	.file	"ap_config.c"
	.option nopic
	.attribute arch, "rv32i2p0_m2p0_f2p0_c2p0"
	.attribute unaligned_access, 0
	.attribute stack_align, 16
	.text
.Ltext0:
	.cfi_sections	.debug_frame
	.section	.text.hostapd_config_defaults_bss,"ax",@progbits
	.align	1
	.globl	hostapd_config_defaults_bss
	.type	hostapd_config_defaults_bss, @function
hostapd_config_defaults_bss:
.LFB79:
	.file 1 "/mnt/d/GitHub/bl_iot_sdk_for_aithinker/components/security/wpa_supplicant/src/ap/ap_config.c"
	.loc 1 23 1
	.cfi_startproc
.LVL0:
	.loc 1 24 5
	.loc 1 24 20 is_stmt 0
	li	a5,3
	sw	a5,124(a0)
	.loc 1 26 5 is_stmt 1
	.loc 1 29 32 is_stmt 0
	li	a4,2
	.loc 1 26 30
	li	a2,300
	.loc 1 28 32
	li	a5,1
	sw	a5,112(a0)
	.loc 1 29 32
	sw	a4,116(a0)
	.loc 1 26 30
	sw	a2,108(a0)
	.loc 1 28 5 is_stmt 1
	.loc 1 29 5
	.loc 1 31 5
	.loc 1 31 26 is_stmt 0
	addi	a5,a0,128
	li	a3,600
	sw	a3,32(a5)
	.loc 1 32 5 is_stmt 1
	.loc 1 32 24 is_stmt 0
	li	a3,86016
	addi	a3,a3,384
	sw	a3,40(a5)
	.loc 1 33 5 is_stmt 1
	.loc 1 33 23 is_stmt 0
	sw	a4,4(a5)
	.loc 1 34 5 is_stmt 1
	.loc 1 34 23 is_stmt 0
	sw	a4,24(a5)
	.loc 1 35 5 is_stmt 1
	.loc 1 35 20 is_stmt 0
	sw	a4,28(a5)
	.loc 1 36 5 is_stmt 1
	.loc 1 38 22 is_stmt 0
	li	a3,4
	sw	a3,0(a0)
	.loc 1 40 22
	sw	a4,4(a0)
	.loc 1 36 23
	sw	zero,176(a0)
	.loc 1 38 5 is_stmt 1
	.loc 1 40 5
	.loc 1 42 5
	.loc 1 42 28 is_stmt 0
	sw	a2,64(a5)
	.loc 1 43 5 is_stmt 1
	.loc 1 43 24 is_stmt 0
	sw	a4,12(a0)
	.loc 1 45 5 is_stmt 1
	.loc 1 45 30 is_stmt 0
	li	a4,-1
	sh	a4,214(a0)
	.loc 1 48 5 is_stmt 1
	.loc 1 48 37 is_stmt 0
	li	a3,1000
	sw	a3,12(a5)
	.loc 1 49 5 is_stmt 1
	.loc 1 49 39 is_stmt 0
	li	a3,201
	sw	a3,16(a5)
	.loc 1 59 5 is_stmt 1
	.loc 1 59 22 is_stmt 0
	sw	a4,72(a5)
	.loc 1 65 1
	ret
	.cfi_endproc
.LFE79:
	.size	hostapd_config_defaults_bss, .-hostapd_config_defaults_bss
	.section	.text.hostapd_config_defaults,"ax",@progbits
	.align	1
	.globl	hostapd_config_defaults
	.type	hostapd_config_defaults, @function
hostapd_config_defaults:
.LFB80:
	.loc 1 69 1 is_stmt 1
	.cfi_startproc
	.loc 1 72 5
	.loc 1 73 5
	.loc 1 76 5
	.loc 1 69 1 is_stmt 0
	addi	sp,sp,-16
	.cfi_def_cfa_offset 16
	.loc 1 76 37
	li	a1,100
	li	a0,1
	.loc 1 69 1
	sw	ra,12(sp)
	sw	s0,8(sp)
	sw	s1,4(sp)
	.cfi_offset 1, -4
	.cfi_offset 8, -8
	.cfi_offset 9, -12
	.loc 1 76 37
	call	wpa_supplicant_zalloc
.LVL1:
	mv	s0,a0
.LVL2:
	.loc 1 77 5 is_stmt 1
	.loc 1 77 40 is_stmt 0
	li	a1,216
	li	a0,1
	call	wpa_supplicant_zalloc
.LVL3:
	mv	s1,a0
.LVL4:
	.loc 1 78 5 is_stmt 1
	.loc 1 78 8 is_stmt 0
	beq	s0,zero,.L3
	.loc 1 78 21 discriminator 1
	bne	a0,zero,.L4
.L3:
	.loc 1 79 6 is_stmt 1
	.loc 1 79 10
	.loc 1 79 17
	.loc 1 81 9
	mv	a0,s0
	call	wpa_supplicant_free
.LVL5:
	.loc 1 82 9
	mv	a0,s1
	call	wpa_supplicant_free
.LVL6:
	.loc 1 83 9
	.loc 1 83 15 is_stmt 0
	li	s0,0
.LVL7:
.L2:
	.loc 1 102 1
	lw	ra,12(sp)
	.cfi_remember_state
	.cfi_restore 1
	mv	a0,s0
	lw	s0,8(sp)
	.cfi_restore 8
	lw	s1,4(sp)
	.cfi_restore 9
.LVL8:
	addi	sp,sp,16
	.cfi_def_cfa_offset 0
	jr	ra
.LVL9:
.L4:
	.cfi_restore_state
	.loc 1 86 5 is_stmt 1
	call	hostapd_config_defaults_bss
.LVL10:
	.loc 1 88 5
	.loc 1 88 19 is_stmt 0
	li	a5,1
	sw	a5,8(s0)
	.loc 1 89 5 is_stmt 1
	.loc 1 94 31 is_stmt 0
	sb	a5,24(s0)
	.loc 1 96 20
	li	a5,12
	.loc 1 91 22
	li	a4,100
	.loc 1 96 20
	sh	a5,68(s0)
	.loc 1 98 29
	li	a5,255
	.loc 1 91 22
	sh	a4,12(s0)
	.loc 1 98 29
	sw	a5,48(s0)
	.loc 1 92 25
	li	a4,-1
	.loc 1 99 36
	li	a5,60
	.loc 1 89 15
	sw	s1,0(s0)
	.loc 1 91 5 is_stmt 1
	.loc 1 92 5
	.loc 1 92 25 is_stmt 0
	sw	a4,16(s0)
	.loc 1 93 5 is_stmt 1
	.loc 1 93 27 is_stmt 0
	sw	a4,20(s0)
	.loc 1 94 5 is_stmt 1
	.loc 1 96 5
	.loc 1 98 5
	.loc 1 99 5
	.loc 1 99 36 is_stmt 0
	sw	a5,52(s0)
	.loc 1 101 5 is_stmt 1
	.loc 1 101 12 is_stmt 0
	j	.L2
	.cfi_endproc
.LFE80:
	.size	hostapd_config_defaults, .-hostapd_config_defaults
	.section	.text.hostapd_mac_comp,"ax",@progbits
	.align	1
	.globl	hostapd_mac_comp
	.type	hostapd_mac_comp, @function
hostapd_mac_comp:
.LFB81:
	.loc 1 106 1 is_stmt 1
	.cfi_startproc
.LVL11:
	.loc 1 107 5
	.loc 1 107 12 is_stmt 0
	li	a2,6
	tail	memcmp
.LVL12:
	.cfi_endproc
.LFE81:
	.size	hostapd_mac_comp, .-hostapd_mac_comp
	.section	.text.hostapd_mac_comp_empty,"ax",@progbits
	.align	1
	.globl	hostapd_mac_comp_empty
	.type	hostapd_mac_comp_empty, @function
hostapd_mac_comp_empty:
.LFB82:
	.loc 1 112 1 is_stmt 1
	.cfi_startproc
.LVL13:
	.loc 1 113 5
	.loc 1 115 5
	.loc 1 112 1 is_stmt 0
	addi	sp,sp,-32
	.cfi_def_cfa_offset 32
	sw	s0,24(sp)
	.loc 1 115 5
	li	a1,6
	.cfi_offset 8, -8
	.loc 1 112 1
	mv	s0,a0
	.loc 1 115 5
	addi	a0,sp,8
.LVL14:
	.loc 1 112 1
	sw	ra,28(sp)
	.cfi_offset 1, -4
	.loc 1 115 5
	call	wpa_supplicant_bzero
.LVL15:
	.loc 1 117 5 is_stmt 1
	.loc 1 117 12 is_stmt 0
	addi	a1,sp,8
	mv	a0,s0
	li	a2,6
	call	memcmp
.LVL16:
	.loc 1 118 1
	lw	ra,28(sp)
	.cfi_restore 1
	lw	s0,24(sp)
	.cfi_restore 8
.LVL17:
	addi	sp,sp,32
	.cfi_def_cfa_offset 0
	jr	ra
	.cfi_endproc
.LFE82:
	.size	hostapd_mac_comp_empty, .-hostapd_mac_comp_empty
	.section	.text.hostapd_setup_wpa_psk,"ax",@progbits
	.align	1
	.globl	hostapd_setup_wpa_psk
	.type	hostapd_setup_wpa_psk, @function
hostapd_setup_wpa_psk:
.LFB84:
	.loc 1 142 1 is_stmt 1
	.cfi_startproc
.LVL18:
	.loc 1 143 5
	.loc 1 145 5
	.loc 1 145 8 is_stmt 0
	lw	a5,60(a0)
	beq	a5,zero,.L16
	.loc 1 142 1
	addi	sp,sp,-16
	.cfi_def_cfa_offset 16
	sw	s0,8(sp)
	sw	ra,12(sp)
	.cfi_offset 8, -8
	.cfi_offset 1, -4
	.loc 1 146 12
	lw	a5,56(a0)
	mv	s0,a0
	.loc 1 146 9 is_stmt 1
	.loc 1 146 12 is_stmt 0
	bne	a5,zero,.L15
	.loc 1 150 10 is_stmt 1
	.loc 1 150 14
	.loc 1 150 21
	.loc 1 152 13
.LVL19:
.LBB4:
.LBB5:
	.loc 1 122 5
	.loc 1 122 47 is_stmt 0
	li	a1,48
	li	a0,1
.LVL20:
	call	wpa_supplicant_zalloc
.LVL21:
	mv	a4,a0
	.loc 1 122 19
	sw	a0,56(s0)
	.loc 1 123 5 is_stmt 1
.LBE5:
.LBE4:
	.loc 1 153 24 is_stmt 0
	li	a0,-1
.LBB7:
.LBB6:
	.loc 1 123 8
	beq	a4,zero,.L13
	.loc 1 127 5 is_stmt 1
	.loc 1 127 9
	.loc 1 127 16
	.loc 1 129 5
	.loc 1 129 9
	.loc 1 129 16
	.loc 1 132 5
	lw	a2,48(s0)
	lw	a0,60(s0)
	li	a5,32
	addi	a4,a4,8
	li	a3,4096
	addi	a1,s0,16
	call	pbkdf2_sha1
.LVL22:
	.loc 1 135 5
	.loc 1 135 9
	.loc 1 135 16
	.loc 1 137 5
.L15:
.LBE6:
.LBE7:
	.loc 1 155 9
	.loc 1 155 13 is_stmt 0
	lw	a5,56(s0)
	.loc 1 155 30
	li	a4,1
	.loc 1 158 12
	li	a0,0
	.loc 1 155 30
	sw	a4,4(a5)
.L13:
	.loc 1 159 1
	lw	ra,12(sp)
	.cfi_restore 1
	lw	s0,8(sp)
	.cfi_restore 8
.LVL23:
	addi	sp,sp,16
	.cfi_def_cfa_offset 0
	jr	ra
.LVL24:
.L16:
	.loc 1 158 12
	li	a0,0
.LVL25:
	.loc 1 159 1
	ret
	.cfi_endproc
.LFE84:
	.size	hostapd_setup_wpa_psk, .-hostapd_setup_wpa_psk
	.section	.text.hostapd_wep_key_cmp,"ax",@progbits
	.align	1
	.globl	hostapd_wep_key_cmp
	.type	hostapd_wep_key_cmp, @function
hostapd_wep_key_cmp:
.LFB85:
	.loc 1 163 1 is_stmt 1
	.cfi_startproc
.LVL26:
	.loc 1 164 5
	.loc 1 166 5
	.loc 1 166 8 is_stmt 0
	lbu	a4,0(a0)
	lbu	a5,0(a1)
	bne	a4,a5,.L28
	.loc 1 166 26 discriminator 1
	lw	a4,40(a0)
	lw	a5,40(a1)
	bne	a4,a5,.L28
	.loc 1 163 1
	addi	sp,sp,-16
	.cfi_def_cfa_offset 16
	sw	s0,8(sp)
	sw	s1,4(sp)
	sw	s2,0(sp)
	sw	ra,12(sp)
	.cfi_offset 8, -8
	.cfi_offset 9, -12
	.cfi_offset 18, -16
	.cfi_offset 1, -4
	addi	s2,a0,4
	addi	s0,a1,4
	addi	s1,a0,20
.LVL27:
.L24:
	.loc 1 169 9 is_stmt 1
	.loc 1 169 19 is_stmt 0
	lw	a2,16(s2)
	.loc 1 169 12
	lw	a5,16(s0)
	bne	a2,a5,.L23
	.loc 1 170 10 discriminator 1
	lw	a1,0(s0)
	lw	a0,0(s2)
	call	memcmp
.LVL28:
	.loc 1 169 36 discriminator 1
	bne	a0,zero,.L23
	.loc 1 168 24 is_stmt 1 discriminator 2
	.loc 1 168 17 discriminator 2
	.loc 1 168 5 is_stmt 0 discriminator 2
	addi	s2,s2,4
	addi	s0,s0,4
	bne	s2,s1,.L24
.L22:
	.loc 1 173 1
	lw	ra,12(sp)
	.cfi_remember_state
	.cfi_restore 1
	lw	s0,8(sp)
	.cfi_restore 8
	lw	s1,4(sp)
	.cfi_restore 9
.LVL29:
	lw	s2,0(sp)
	.cfi_restore 18
	addi	sp,sp,16
	.cfi_def_cfa_offset 0
	jr	ra
.L23:
	.cfi_restore_state
	.loc 1 167 16
	li	a0,1
	j	.L22
.LVL30:
.L28:
	.cfi_def_cfa_offset 0
	.cfi_restore 1
	.cfi_restore 8
	.cfi_restore 9
	.cfi_restore 18
	li	a0,1
.LVL31:
	.loc 1 173 1
	ret
	.cfi_endproc
.LFE85:
	.size	hostapd_wep_key_cmp, .-hostapd_wep_key_cmp
	.section	.text.hostapd_maclist_found,"ax",@progbits
	.align	1
	.globl	hostapd_maclist_found
	.type	hostapd_maclist_found, @function
hostapd_maclist_found:
.LFB86:
	.loc 1 187 1 is_stmt 1
	.cfi_startproc
.LVL32:
	.loc 1 188 5
	.loc 1 190 5
	.loc 1 191 5
	.loc 1 187 1 is_stmt 0
	addi	sp,sp,-48
	.cfi_def_cfa_offset 48
	sw	s0,40(sp)
	sw	s2,32(sp)
	sw	s4,24(sp)
	sw	s5,20(sp)
	sw	s6,16(sp)
	sw	s7,12(sp)
	sw	ra,44(sp)
	sw	s1,36(sp)
	sw	s3,28(sp)
	.cfi_offset 8, -8
	.cfi_offset 18, -16
	.cfi_offset 20, -24
	.cfi_offset 21, -28
	.cfi_offset 22, -32
	.cfi_offset 23, -36
	.cfi_offset 1, -4
	.cfi_offset 9, -12
	.cfi_offset 19, -20
	.loc 1 187 1
	mv	s5,a0
	mv	s6,a2
	mv	s2,a3
	.loc 1 191 9
	addi	s0,a1,-1
.LVL33:
	.loc 1 193 5 is_stmt 1
	.loc 1 190 11 is_stmt 0
	li	s4,0
	.loc 1 195 26
	li	s7,12
.LVL34:
.L33:
	.loc 1 193 11 is_stmt 1
	ble	s4,s0,.L38
	.loc 1 207 12 is_stmt 0
	li	a0,0
	j	.L32
.L38:
	.loc 1 194 9 is_stmt 1
	.loc 1 194 25 is_stmt 0
	add	s1,s4,s0
	.loc 1 194 16
	srai	s1,s1,1
.LVL35:
	.loc 1 195 9 is_stmt 1
	.loc 1 195 26 is_stmt 0
	mul	s3,s1,s7
	.loc 1 195 15
	li	a2,6
	mv	a1,s6
	.loc 1 195 26
	add	s3,s5,s3
	.loc 1 195 15
	mv	a0,s3
	call	memcmp
.LVL36:
	.loc 1 196 9 is_stmt 1
	.loc 1 196 12 is_stmt 0
	bne	a0,zero,.L34
	.loc 1 197 13 is_stmt 1
	.loc 1 199 20 is_stmt 0
	li	a0,1
.LVL37:
	.loc 1 197 16
	beq	s2,zero,.L32
	.loc 1 198 17 is_stmt 1
	.loc 1 198 40 is_stmt 0
	lw	a5,8(s3)
	.loc 1 198 26
	sw	a5,0(s2)
.LVL38:
.L32:
	.loc 1 208 1
	lw	ra,44(sp)
	.cfi_remember_state
	.cfi_restore 1
	lw	s0,40(sp)
	.cfi_restore 8
.LVL39:
	lw	s1,36(sp)
	.cfi_restore 9
	lw	s2,32(sp)
	.cfi_restore 18
.LVL40:
	lw	s3,28(sp)
	.cfi_restore 19
	lw	s4,24(sp)
	.cfi_restore 20
.LVL41:
	lw	s5,20(sp)
	.cfi_restore 21
.LVL42:
	lw	s6,16(sp)
	.cfi_restore 22
.LVL43:
	lw	s7,12(sp)
	.cfi_restore 23
	addi	sp,sp,48
	.cfi_def_cfa_offset 0
	jr	ra
.LVL44:
.L34:
	.cfi_restore_state
	.loc 1 201 9 is_stmt 1
	.loc 1 201 12 is_stmt 0
	bge	a0,zero,.L36
	.loc 1 202 13 is_stmt 1
	.loc 1 202 19 is_stmt 0
	addi	s4,s1,1
.LVL45:
	j	.L33
.L36:
	.loc 1 204 13 is_stmt 1
	.loc 1 204 17 is_stmt 0
	addi	s0,s1,-1
.LVL46:
	j	.L33
	.cfi_endproc
.LFE86:
	.size	hostapd_maclist_found, .-hostapd_maclist_found
	.section	.text.hostapd_rate_found,"ax",@progbits
	.align	1
	.globl	hostapd_rate_found
	.type	hostapd_rate_found, @function
hostapd_rate_found:
.LFB87:
	.loc 1 212 1 is_stmt 1
	.cfi_startproc
.LVL47:
	.loc 1 213 5
	.loc 1 215 5
	.loc 1 215 8 is_stmt 0
	beq	a0,zero,.L45
.LVL48:
.L43:
	.loc 1 218 17 is_stmt 1 discriminator 1
	.loc 1 218 21 is_stmt 0 discriminator 1
	lw	a5,0(a0)
	.loc 1 218 5 discriminator 1
	bge	a5,zero,.L44
.L45:
	.loc 1 216 16
	li	a0,0
	ret
.L44:
	.loc 1 219 9 is_stmt 1
	.loc 1 219 12 is_stmt 0
	addi	a0,a0,4
	bne	a5,a1,.L43
	.loc 1 220 20
	li	a0,1
	.loc 1 223 1
	ret
	.cfi_endproc
.LFE87:
	.size	hostapd_rate_found, .-hostapd_rate_found
	.section	.text.hostapd_get_psk,"ax",@progbits
	.align	1
	.globl	hostapd_get_psk
	.type	hostapd_get_psk, @function
hostapd_get_psk:
.LFB88:
	.loc 1 227 1 is_stmt 1
	.cfi_startproc
.LVL49:
	.loc 1 228 5
	.loc 1 229 5
	.loc 1 227 1 is_stmt 0
	addi	sp,sp,-32
	.cfi_def_cfa_offset 32
	sw	s1,20(sp)
	sw	s2,16(sp)
	sw	s3,12(sp)
	sw	ra,28(sp)
	sw	s0,24(sp)
	sw	s4,8(sp)
	.cfi_offset 9, -12
	.cfi_offset 18, -16
	.cfi_offset 19, -20
	.cfi_offset 1, -4
	.cfi_offset 8, -8
	.cfi_offset 20, -24
	.loc 1 231 14
	lw	s0,56(a0)
	.loc 1 227 1
	mv	s2,a1
	mv	s1,a2
	.loc 1 229 28
	seqz	s3,a2
.LVL50:
	.loc 1 231 5 is_stmt 1
.L48:
	.loc 1 231 36 discriminator 1
	.loc 1 231 5 is_stmt 0 discriminator 1
	beq	s0,zero,.L47
	.loc 1 232 9 is_stmt 1
	addi	s4,s0,8
	.loc 1 232 12 is_stmt 0
	beq	s3,zero,.L49
	.loc 1 232 21 discriminator 1
	lw	a5,4(s0)
	beq	a5,zero,.L50
.L52:
	.loc 1 234 13 is_stmt 1
	.loc 1 234 20 is_stmt 0
	mv	s0,s4
.LVL51:
.L47:
	.loc 1 241 1
	lw	ra,28(sp)
	.cfi_remember_state
	.cfi_restore 1
	mv	a0,s0
	lw	s0,24(sp)
	.cfi_restore 8
	lw	s1,20(sp)
	.cfi_restore 9
.LVL52:
	lw	s2,16(sp)
	.cfi_restore 18
.LVL53:
	lw	s3,12(sp)
	.cfi_restore 19
.LVL54:
	lw	s4,8(sp)
	.cfi_restore 20
	addi	sp,sp,32
	.cfi_def_cfa_offset 0
	jr	ra
.LVL55:
.L50:
	.cfi_restore_state
	.loc 1 233 28
	li	a2,6
	mv	a1,s2
	addi	a0,s0,40
	call	memcmp
.LVL56:
	.loc 1 233 25
	beq	a0,zero,.L52
.L49:
	.loc 1 236 9 is_stmt 1
	.loc 1 236 12 is_stmt 0
	bne	s1,s4,.L53
	.loc 1 237 21
	li	s3,1
.LVL57:
.L53:
	.loc 1 231 48 is_stmt 1 discriminator 2
	.loc 1 231 52 is_stmt 0 discriminator 2
	lw	s0,0(s0)
.LVL58:
	j	.L48
	.cfi_endproc
.LFE88:
	.size	hostapd_get_psk, .-hostapd_get_psk
	.text
.Letext0:
	.file 2 "/mnt/d/GitHub/bl_iot_sdk_for_aithinker/toolchain/riscv/Linux/lib/gcc/riscv64-unknown-elf/10.2.0/include/stddef.h"
	.file 3 "/mnt/d/GitHub/bl_iot_sdk_for_aithinker/toolchain/riscv/Linux/riscv64-unknown-elf/include/machine/_default_types.h"
	.file 4 "/mnt/d/GitHub/bl_iot_sdk_for_aithinker/toolchain/riscv/Linux/riscv64-unknown-elf/include/sys/_stdint.h"
	.file 5 "/mnt/d/GitHub/bl_iot_sdk_for_aithinker/components/security/wpa_supplicant/src/utils/common.h"
	.file 6 "/mnt/d/GitHub/bl_iot_sdk_for_aithinker/components/security/wpa_supplicant/src/common/defs.h"
	.file 7 "/mnt/d/GitHub/bl_iot_sdk_for_aithinker/components/security/wpa_supplicant/src/ap/ap_config.h"
	.file 8 "/mnt/d/GitHub/bl_iot_sdk_for_aithinker/toolchain/riscv/Linux/riscv64-unknown-elf/include/string.h"
	.file 9 "/mnt/d/GitHub/bl_iot_sdk_for_aithinker/components/security/wpa_supplicant/port/include/os.h"
	.file 10 "/mnt/d/GitHub/bl_iot_sdk_for_aithinker/components/security/wpa_supplicant/src/crypto/sha1.h"