	.file	"web_server.c"
	.option nopic
	.attribute arch, "rv32i2p0_m2p0_f2p0_c2p0"
	.attribute unaligned_access, 0
	.attribute stack_align, 16
	.text
.Ltext0:
	.cfi_sections	.debug_frame
	.section	.rodata.web_server2.str1.4,"aMS",@progbits,1
	.align	2
.LC0:
	.string	"the received data:\n%s\n"
	.section	.text.web_server2,"ax",@progbits
	.align	1
	.globl	web_server2
	.type	web_server2, @function
web_server2:
.LFB6:
	.file 1 "/mnt/d/GitHub/bl_iot_sdk_for_aithinker/components/network/dns_server/src/web_server.c"
	.loc 1 74 1
	.cfi_startproc
.LVL0:
	.loc 1 75 3
	.loc 1 76 3
	.loc 1 77 3
	.loc 1 74 1 is_stmt 0
	addi	sp,sp,-48
	.cfi_def_cfa_offset 48
	.loc 1 77 10
	li	a2,0
	li	a1,0
	li	a0,16
.LVL1:
	.loc 1 74 1
	sw	ra,44(sp)
	sw	s0,40(sp)
	sw	s2,32(sp)
	sw	s3,28(sp)
	sw	s4,24(sp)
	sw	s5,20(sp)
	sw	s1,36(sp)
	.cfi_offset 1, -4
	.cfi_offset 8, -8
	.cfi_offset 18, -16
	.cfi_offset 19, -20
	.cfi_offset 20, -24
	.cfi_offset 21, -28
	.cfi_offset 9, -12
	.loc 1 77 10
	call	netconn_new_with_proto_and_callback
.LVL2:
	.loc 1 78 3
	li	a2,80
	li	a1,0
	.loc 1 77 10
	mv	s0,a0
.LVL3:
	.loc 1 78 3 is_stmt 1
	call	netconn_bind
.LVL4:
	.loc 1 79 3
	li	a1,255
	mv	a0,s0
	call	netconn_listen_with_backlog
.LVL5:
.LBB4:
.LBB5:
	.loc 1 49 5 is_stmt 0
	lui	s3,%hi(.LC0)
	.loc 1 51 8
	li	s4,4
	.loc 1 52 7
	lui	s5,%hi(.LANCHOR0)
	lui	s2,%hi(.LANCHOR1)
.L8:
.LBE5:
.LBE4:
	.loc 1 80 3 is_stmt 1
	.loc 1 81 5
	.loc 1 81 11 is_stmt 0
	addi	a1,sp,4
	mv	a0,s0
	call	netconn_accept
.LVL6:
	.loc 1 82 5 is_stmt 1
	.loc 1 82 8 is_stmt 0
	bne	a0,zero,.L2
	.loc 1 83 7 is_stmt 1
	lw	s1,4(sp)
.LVL7:
.LBB7:
.LBB6:
	.loc 1 41 3
	.loc 1 42 3
	.loc 1 43 3
	.loc 1 44 3
	.loc 1 46 3
	.loc 1 46 9 is_stmt 0
	addi	a1,sp,8
	mv	a0,s1
.LVL8:
	call	netconn_recv
.LVL9:
	.loc 1 47 3 is_stmt 1
	.loc 1 47 6 is_stmt 0
	bne	a0,zero,.L4
	.loc 1 48 5 is_stmt 1
	lw	a0,8(sp)
.LVL10:
	addi	a2,sp,2
	addi	a1,sp,12
	call	netbuf_data
.LVL11:
	.loc 1 49 5
	lw	a1,12(sp)
	addi	a0,s3,%lo(.LC0)
	call	printf
.LVL12:
	.loc 1 51 5
	.loc 1 51 8 is_stmt 0
	lhu	a5,2(sp)
	bleu	a5,s4,.L4
	.loc 1 51 27
	lw	a5,12(sp)
	.loc 1 51 21
	li	a4,71
	lbu	a3,0(a5)
	bne	a3,a4,.L4
	.loc 1 51 38
	lbu	a3,1(a5)
	li	a4,69
	bne	a3,a4,.L4
	.loc 1 51 55
	lbu	a3,2(a5)
	li	a4,84
	bne	a3,a4,.L4
	.loc 1 51 72
	lbu	a3,3(a5)
	li	a4,32
	bne	a3,a4,.L4
	.loc 1 51 89
	lbu	a4,4(a5)
	li	a5,47
	bne	a4,a5,.L4
	.loc 1 52 7 is_stmt 1
	li	a4,0
	li	a3,0
	li	a2,44
	addi	a1,s5,%lo(.LANCHOR0)
	mv	a0,s1
	call	netconn_write_partly
.LVL13:
	.loc 1 54 7
	.loc 1 64 11
	li	a4,0
	li	a3,0
	li	a2,351
	addi	a1,s2,%lo(.LANCHOR1)
	mv	a0,s1
	call	netconn_write_partly
.LVL14:
.L4:
	.loc 1 68 3
	mv	a0,s1
	call	netconn_close
.LVL15:
	.loc 1 69 3
	lw	a0,8(sp)
	call	netbuf_delete
.LVL16:
.LBE6:
.LBE7:
	.loc 1 84 7
	lw	a0,4(sp)
	call	netconn_delete
.LVL17:
	.loc 1 80 9
	.loc 1 81 9 is_stmt 0
	j	.L8
.LVL18:
.L2:
	.loc 1 87 7 is_stmt 1
	mv	a0,s0
.LVL19:
	call	netconn_close
.LVL20:
	.loc 1 88 7
	mv	a0,s0
	call	netconn_delete
.LVL21:
	.loc 1 89 7
	.loc 1 92 1 is_stmt 0
	lw	ra,44(sp)
	.cfi_restore 1
	lw	s0,40(sp)
	.cfi_restore 8
.LVL22:
	lw	s1,36(sp)
	.cfi_restore 9
	lw	s2,32(sp)
	.cfi_restore 18
	lw	s3,28(sp)
	.cfi_restore 19
	lw	s4,24(sp)
	.cfi_restore 20
	lw	s5,20(sp)
	.cfi_restore 21
	addi	sp,sp,48
	.cfi_def_cfa_offset 0
	jr	ra
	.cfi_endproc
.LFE6:
	.size	web_server2, .-web_server2
	.section	.rodata.http_html_hdr,"a"
	.align	2
	.set	.LANCHOR0,. + 0
	.type	http_html_hdr, @object
	.size	http_html_hdr, 45
http_html_hdr:
	.string	"HTTP/1.1 200 OK\r\nContent-type: text/html\r\n\r\n"
	.section	.rodata.http_index_hml,"a"
	.align	2
	.set	.LANCHOR1,. + 0
	.type	http_index_hml, @object
	.size	http_index_hml, 352
http_index_hml:
	.ascii	"<!DOCTYPE html><html>\n<head>\n  <meta name=\"viewport\" con"
	.ascii	"tent=\"width=device-width, initial-scale"
	.string	"=1\">\n  <style type=\"text/css\">\n    html, body, iframe { margin: 0; padding: 0; height: 100%; }\n    iframe { display: block; width: 100%; border: none; }\n  </style>\n<title>HELLO BL602</title>\n</head>\n<body>\n<h1>Hello World, from BL602!</h1>\n</body>\n</html>\n"
	.text
.Letext0:
	.file 2 "/mnt/d/GitHub/bl_iot_sdk_for_aithinker/toolchain/riscv/Linux/lib/gcc/riscv64-unknown-elf/10.2.0/include/stdint-gcc.h"
	.file 3 "/mnt/d/GitHub/bl_iot_sdk_for_aithinker/components/network/lwip/src/include/lwip/arch.h"
	.file 4 "/mnt/d/GitHub/bl_iot_sdk_for_aithinker/components/network/lwip/src/include/lwip/err.h"
	.file 5 "/mnt/d/GitHub/bl_iot_sdk_for_aithinker/components/platform/soc/bl602/freertos_riscv_ram/config/queue.h"
	.file 6 "/mnt/d/GitHub/bl_iot_sdk_for_aithinker/components/platform/soc/bl602/freertos_riscv_ram/config/semphr.h"
	.file 7 "/mnt/d/GitHub/bl_iot_sdk_for_aithinker/components/network/lwip/lwip-port/arch/sys_arch.h"
	.file 8 "/mnt/d/GitHub/bl_iot_sdk_for_aithinker/components/network/lwip/src/include/lwip/ip4_addr.h"
	.file 9 "/mnt/d/GitHub/bl_iot_sdk_for_aithinker/components/network/lwip/src/include/lwip/ip_addr.h"
	.file 10 "/mnt/d/GitHub/bl_iot_sdk_for_aithinker/components/network/lwip/src/include/lwip/pbuf.h"
	.file 11 "/mnt/d/GitHub/bl_iot_sdk_for_aithinker/components/network/lwip/src/include/lwip/memp.h"
	.file 12 "/mnt/d/GitHub/bl_iot_sdk_for_aithinker/components/network/lwip/src/include/lwip/netbuf.h"
	.file 13 "/mnt/d/GitHub/bl_iot_sdk_for_aithinker/components/network/lwip/src/include/lwip/netif.h"
	.file 14 "/mnt/d/GitHub/bl_iot_sdk_for_aithinker/components/network/lwip/src/include/lwip/api.h"
	.file 15 "/mnt/d/GitHub/bl_iot_sdk_for_aithinker/toolchain/riscv/Linux/riscv64-unknown-elf/include/stdio.h"