	.file	"bridgeif_fdb.c"
	.option nopic
	.attribute arch, "rv32i2p0_m2p0_f2p0_c2p0"
	.attribute unaligned_access, 0
	.attribute stack_align, 16
	.text
.Ltext0:
	.cfi_sections	.debug_frame
	.section	.text.bridgeif_age_tmr,"ax",@progbits
	.align	1
	.type	bridgeif_age_tmr, @function
bridgeif_age_tmr:
.LFB8:
	.file 1 "/mnt/d/GitHub/bl_iot_sdk_for_aithinker/components/network/lwip/src/netif/bridgeif_fdb.c"
	.loc 1 181 1
	.cfi_startproc
.LVL0:
	.loc 1 182 3
	.loc 1 181 1 is_stmt 0
	mv	a2,a0
.LVL1:
	.loc 1 184 3 is_stmt 1
	.loc 1 184 8
	.loc 1 184 7
	.loc 1 184 17
	.loc 1 186 3
.LBB5:
.LBB6:
	.loc 1 155 3
	.loc 1 156 3
	.loc 1 157 3
	.loc 1 159 3
	.loc 1 160 3
	.loc 1 162 3
	.loc 1 162 10 is_stmt 0
	li	a3,0
.LVL2:
.L2:
	.loc 1 162 15 is_stmt 1
	.loc 1 162 22 is_stmt 0
	lhu	a5,0(a2)
	.loc 1 162 3
	blt	a3,a5,.L6
	.loc 1 175 3 is_stmt 1
.LVL3:
.LBE6:
.LBE5:
	.loc 1 187 3
	lui	a1,%hi(bridgeif_age_tmr)
	addi	a1,a1,%lo(bridgeif_age_tmr)
	li	a0,1000
.LVL4:
	tail	sys_timeout
.LVL5:
.L6:
.LBB9:
.LBB8:
.LBB7:
	.loc 1 163 5
	.loc 1 163 28 is_stmt 0
	lw	a4,4(a2)
	slli	a5,a3,4
	add	a5,a4,a5
.LVL6:
	.loc 1 164 5 is_stmt 1
	.loc 1 164 8 is_stmt 0
	lbu	a4,0(a5)
	beq	a4,zero,.L4
	.loc 1 164 21
	lw	a4,4(a5)
	.loc 1 164 17
	beq	a4,zero,.L4
	.loc 1 165 7 is_stmt 1
	.loc 1 167 7
	.loc 1 168 9
	.loc 1 168 13 is_stmt 0
	addi	a4,a4,-1
	.loc 1 168 12
	sw	a4,4(a5)
	bne	a4,zero,.L4
	.loc 1 169 11 is_stmt 1
	.loc 1 169 19 is_stmt 0
	sb	zero,0(a5)
.L4:
	.loc 1 172 7 is_stmt 1
.LBE7:
	.loc 1 162 41
	.loc 1 162 42 is_stmt 0
	addi	a3,a3,1
.LVL7:
	j	.L2
.LBE8:
.LBE9:
	.cfi_endproc
.LFE8:
	.size	bridgeif_age_tmr, .-bridgeif_age_tmr
	.section	.text.bridgeif_fdb_update_src,"ax",@progbits
	.align	1
	.globl	bridgeif_fdb_update_src
	.type	bridgeif_fdb_update_src, @function
bridgeif_fdb_update_src:
.LFB5:
	.loc 1 77 1 is_stmt 1
	.cfi_startproc
.LVL8:
	.loc 1 78 3
	.loc 1 79 3
	.loc 1 77 1 is_stmt 0
	addi	sp,sp,-48
	.cfi_def_cfa_offset 48
	sw	s1,36(sp)
	sw	s2,32(sp)
	sw	s3,28(sp)
	sw	ra,44(sp)
	sw	s0,40(sp)
	.cfi_offset 9, -12
	.cfi_offset 18, -16
	.cfi_offset 19, -20
	.cfi_offset 1, -4
	.cfi_offset 8, -8
	.loc 1 77 1
	mv	s1,a0
.LVL9:
	.loc 1 80 3 is_stmt 1
	.loc 1 81 3
	.loc 1 82 3
	.loc 1 77 1 is_stmt 0
	mv	s2,a2
	.loc 1 82 10
	li	s3,0
.LVL10:
.L11:
	.loc 1 82 15 is_stmt 1 discriminator 1
	.loc 1 82 22 is_stmt 0 discriminator 1
	lhu	a3,0(s1)
	.loc 1 82 3 discriminator 1
	bgt	a3,s3,.L14
	.loc 1 99 10
	li	a4,0
.LVL11:
.L15:
	.loc 1 99 15 is_stmt 1 discriminator 1
	.loc 1 99 3 is_stmt 0 discriminator 1
	beq	a3,a4,.L10
.LBB10:
	.loc 1 100 5 is_stmt 1
	.loc 1 100 28 is_stmt 0
	lw	a5,4(s1)
	slli	s0,a4,4
	add	s0,a5,s0
.LVL12:
	.loc 1 101 5 is_stmt 1
	.loc 1 101 8 is_stmt 0
	lbu	a5,0(s0)
	beq	a5,zero,.L16
	.loc 1 101 18 discriminator 1
	lw	a5,4(s0)
	bne	a5,zero,.L17
.L16:
	.loc 1 102 7 is_stmt 1
	.loc 1 104 7
	.loc 1 107 55
	.loc 1 108 9
	li	a2,6
	addi	a0,s0,8
	call	memcpy
.LVL13:
	.loc 1 109 9
	.loc 1 109 15 is_stmt 0
	li	a5,300
	sw	a5,4(s0)
	.loc 1 110 9 is_stmt 1
	.loc 1 111 17 is_stmt 0
	li	a5,1
	.loc 1 110 17
	sb	s2,1(s0)
	.loc 1 111 9 is_stmt 1
	.loc 1 111 17 is_stmt 0
	sb	a5,0(s0)
	.loc 1 112 9 is_stmt 1
	.loc 1 113 9
	.loc 1 114 9
	j	.L10
.LVL14:
.L14:
.LBE10:
.LBB11:
	.loc 1 83 5
	.loc 1 83 28 is_stmt 0
	lw	a5,4(s1)
	slli	s0,s3,4
	add	s0,a5,s0
.LVL15:
	.loc 1 84 5 is_stmt 1
	.loc 1 84 8 is_stmt 0
	lbu	a5,0(s0)
	beq	a5,zero,.L12
	.loc 1 84 17 discriminator 1
	lw	a5,4(s0)
	beq	a5,zero,.L12
	.loc 1 85 7 is_stmt 1
	.loc 1 85 12 is_stmt 0
	li	a2,6
	addi	a0,s0,8
	sw	a1,12(sp)
	call	memcmp
.LVL16:
	.loc 1 85 10
	lw	a1,12(sp)
	bne	a0,zero,.L12
	.loc 1 88 55 is_stmt 1
	.loc 1 89 9
	.loc 1 90 9
	.loc 1 90 15 is_stmt 0
	li	a5,300
	sw	a5,4(s0)
	.loc 1 91 9 is_stmt 1
	.loc 1 91 17 is_stmt 0
	sb	s2,1(s0)
	.loc 1 92 9 is_stmt 1
	.loc 1 93 9
	.loc 1 94 9
.LVL17:
.L10:
.LBE11:
	.loc 1 121 1 is_stmt 0
	lw	ra,44(sp)
	.cfi_remember_state
	.cfi_restore 1
	lw	s0,40(sp)
	.cfi_restore 8
	lw	s1,36(sp)
	.cfi_restore 9
.LVL18:
	lw	s2,32(sp)
	.cfi_restore 18
	lw	s3,28(sp)
	.cfi_restore 19
	addi	sp,sp,48
	.cfi_def_cfa_offset 0
	jr	ra
.LVL19:
.L12:
	.cfi_restore_state
	.loc 1 82 41 is_stmt 1
	.loc 1 82 42 is_stmt 0
	addi	s3,s3,1
.LVL20:
	j	.L11
.LVL21:
.L17:
.LBB12:
	.loc 1 116 7 is_stmt 1 discriminator 2
.LBE12:
	.loc 1 99 41 discriminator 2
	.loc 1 99 42 is_stmt 0 discriminator 2
	addi	a4,a4,1
.LVL22:
	j	.L15
	.cfi_endproc
.LFE5:
	.size	bridgeif_fdb_update_src, .-bridgeif_fdb_update_src
	.section	.text.bridgeif_fdb_get_dst_ports,"ax",@progbits
	.align	1
	.globl	bridgeif_fdb_get_dst_ports
	.type	bridgeif_fdb_get_dst_ports, @function
bridgeif_fdb_get_dst_ports:
.LFB6:
	.loc 1 129 1 is_stmt 1
	.cfi_startproc
.LVL23:
	.loc 1 130 3
	.loc 1 131 3
	.loc 1 129 1 is_stmt 0
	addi	sp,sp,-32
	.cfi_def_cfa_offset 32
	sw	s1,20(sp)
	sw	s2,16(sp)
	sw	s3,12(sp)
	sw	ra,28(sp)
	sw	s0,24(sp)
	.cfi_offset 9, -12
	.cfi_offset 18, -16
	.cfi_offset 19, -20
	.cfi_offset 1, -4
	.cfi_offset 8, -8
	.loc 1 129 1
	mv	s2,a0
.LVL24:
	.loc 1 132 3 is_stmt 1
	.loc 1 133 3
	.loc 1 134 3
	.loc 1 129 1 is_stmt 0
	mv	s3,a1
	.loc 1 134 10
	li	s1,0
.LVL25:
.L30:
	.loc 1 134 15 is_stmt 1 discriminator 1
	.loc 1 134 22 is_stmt 0 discriminator 1
	lhu	a5,0(s2)
	.loc 1 134 3 discriminator 1
	bgt	a5,s1,.L33
	.loc 1 145 10
	li	a0,255
	j	.L32
.L33:
.LBB13:
	.loc 1 135 5 is_stmt 1
	.loc 1 135 28 is_stmt 0
	lw	a5,4(s2)
	slli	s0,s1,4
	add	s0,a5,s0
.LVL26:
	.loc 1 136 5 is_stmt 1
	.loc 1 136 8 is_stmt 0
	lbu	a5,0(s0)
	beq	a5,zero,.L31
	.loc 1 136 17 discriminator 1
	lw	a5,4(s0)
	beq	a5,zero,.L31
	.loc 1 137 7 is_stmt 1
	.loc 1 137 12 is_stmt 0
	li	a2,6
	mv	a1,s3
	addi	a0,s0,8
	call	memcmp
.LVL27:
	.loc 1 137 10
	bne	a0,zero,.L31
.LBB14:
	.loc 1 138 9 is_stmt 1
	.loc 1 138 63 is_stmt 0
	lbu	a5,1(s0)
	.loc 1 138 59
	li	a0,1
	sll	a0,a0,a5
	.loc 1 138 29
	andi	a0,a0,0xff
.LVL28:
	.loc 1 139 9 is_stmt 1
	.loc 1 140 9
.L32:
.LBE14:
.LBE13:
	.loc 1 146 1 is_stmt 0
	lw	ra,28(sp)
	.cfi_remember_state
	.cfi_restore 1
	lw	s0,24(sp)
	.cfi_restore 8
	lw	s1,20(sp)
	.cfi_restore 9
.LVL29:
	lw	s2,16(sp)
	.cfi_restore 18
.LVL30:
	lw	s3,12(sp)
	.cfi_restore 19
.LVL31:
	addi	sp,sp,32
	.cfi_def_cfa_offset 0
	jr	ra
.LVL32:
.L31:
	.cfi_restore_state
	.loc 1 134 41 is_stmt 1
	.loc 1 134 42 is_stmt 0
	addi	s1,s1,1
.LVL33:
	j	.L30
	.cfi_endproc
.LFE6:
	.size	bridgeif_fdb_get_dst_ports, .-bridgeif_fdb_get_dst_ports
	.section	.text.bridgeif_fdb_init,"ax",@progbits
	.align	1
	.globl	bridgeif_fdb_init
	.type	bridgeif_fdb_init, @function
bridgeif_fdb_init:
.LFB9:
	.loc 1 196 1 is_stmt 1
	.cfi_startproc
.LVL34:
	.loc 1 197 3
	.loc 1 198 3
	.loc 1 199 3
	.loc 1 200 3
	.loc 1 200 8
	.loc 1 200 47
	.loc 1 200 57
	.loc 1 201 3
	.loc 1 202 3
	.loc 1 198 71 is_stmt 0
	slli	a1,a0,4
	.loc 1 198 10
	addi	a1,a1,8
	.loc 1 196 1
	addi	sp,sp,-16
	.cfi_def_cfa_offset 16
	.loc 1 202 28
	slli	a1,a1,16
	.loc 1 196 1
	sw	s1,4(sp)
	.loc 1 202 28
	srli	a1,a1,16
	.cfi_offset 9, -12
	.loc 1 196 1
	mv	s1,a0
	.loc 1 202 28
	li	a0,1
.LVL35:
	.loc 1 196 1
	sw	s0,8(sp)
	sw	ra,12(sp)
	.cfi_offset 8, -8
	.cfi_offset 1, -4
	.loc 1 202 28
	call	mem_calloc
.LVL36:
	mv	s0,a0
.LVL37:
	.loc 1 203 3 is_stmt 1
	.loc 1 203 6 is_stmt 0
	beq	a0,zero,.L41
	.loc 1 206 3 is_stmt 1
	.loc 1 207 44 is_stmt 0
	addi	a5,a0,8
	.loc 1 209 3
	lui	a1,%hi(bridgeif_age_tmr)
	.loc 1 206 24
	sh	s1,0(a0)
	.loc 1 207 3 is_stmt 1
	.loc 1 207 12 is_stmt 0
	sw	a5,4(a0)
	.loc 1 209 3 is_stmt 1
	mv	a2,a0
	addi	a1,a1,%lo(bridgeif_age_tmr)
	li	a0,1000
	call	sys_timeout
.LVL38:
	.loc 1 211 3
.L41:
	.loc 1 212 1 is_stmt 0
	lw	ra,12(sp)
	.cfi_restore 1
	mv	a0,s0
	lw	s0,8(sp)
	.cfi_restore 8
.LVL39:
	lw	s1,4(sp)
	.cfi_restore 9
	addi	sp,sp,16
	.cfi_def_cfa_offset 0
	jr	ra
	.cfi_endproc
.LFE9:
	.size	bridgeif_fdb_init, .-bridgeif_fdb_init
	.text
.Letext0:
	.file 2 "/mnt/d/GitHub/bl_iot_sdk_for_aithinker/toolchain/riscv/Linux/riscv64-unknown-elf/include/machine/_default_types.h"
	.file 3 "/mnt/d/GitHub/bl_iot_sdk_for_aithinker/toolchain/riscv/Linux/lib/gcc/riscv64-unknown-elf/10.2.0/include/stddef.h"
	.file 4 "/mnt/d/GitHub/bl_iot_sdk_for_aithinker/toolchain/riscv/Linux/riscv64-unknown-elf/include/sys/_stdint.h"
	.file 5 "/mnt/d/GitHub/bl_iot_sdk_for_aithinker/components/network/lwip/src/include/lwip/arch.h"
	.file 6 "/mnt/d/GitHub/bl_iot_sdk_for_aithinker/components/network/lwip/src/include/netif/bridgeif.h"
	.file 7 "/mnt/d/GitHub/bl_iot_sdk_for_aithinker/components/network/lwip/src/include/lwip/mem.h"
	.file 8 "/mnt/d/GitHub/bl_iot_sdk_for_aithinker/components/network/lwip/src/include/lwip/prot/ethernet.h"
	.file 9 "/mnt/d/GitHub/bl_iot_sdk_for_aithinker/components/network/lwip/src/include/lwip/timeouts.h"
	.file 10 "/mnt/d/GitHub/bl_iot_sdk_for_aithinker/toolchain/riscv/Linux/riscv64-unknown-elf/include/string.h"