	.file	"bl_sec_pka.c"
	.option nopic
	.attribute arch, "rv32i2p0_m2p0_f2p0_c2p0"
	.attribute unaligned_access, 0
	.attribute stack_align, 16
	.text
.Ltext0:
	.cfi_sections	.debug_frame
	.section	.text.bl_sec_pka_init,"ax",@progbits
	.align	1
	.globl	bl_sec_pka_init
	.type	bl_sec_pka_init, @function
bl_sec_pka_init:
.LFB8:
	.file 1 "/mnt/d/GitHub/bl_iot_sdk_for_aithinker/components/platform/hosal/sec_common/bl_sec_pka.c"
	.loc 1 40 1
	.cfi_startproc
	.loc 1 46 5
	.loc 1 40 1 is_stmt 0
	addi	sp,sp,-16
	.cfi_def_cfa_offset 16
	.loc 1 46 5
	li	a0,0
	.loc 1 40 1
	sw	ra,12(sp)
	.cfi_offset 1, -4
	.loc 1 46 5
	call	GLB_Set_PKA_CLK_Sel
.LVL0:
	.loc 1 49 5 is_stmt 1
	.loc 1 49 17 is_stmt 0
	lui	a1,%hi(.LANCHOR0)
	addi	a1,a1,%lo(.LANCHOR0)
	li	a0,1
	call	xQueueCreateMutexStatic
.LVL1:
	.loc 1 55 1
	lw	ra,12(sp)
	.cfi_restore 1
	.loc 1 49 15
	lui	a5,%hi(.LANCHOR1)
	sw	a0,%lo(.LANCHOR1)(a5)
	.loc 1 50 5 is_stmt 1
	.loc 1 50 8 is_stmt 0
	seqz	a0,a0
	.loc 1 55 1
	neg	a0,a0
	addi	sp,sp,16
	.cfi_def_cfa_offset 0
	jr	ra
	.cfi_endproc
.LFE8:
	.size	bl_sec_pka_init, .-bl_sec_pka_init
	.section	.text.bl_sec_pka_mutex_take,"ax",@progbits
	.align	1
	.globl	bl_sec_pka_mutex_take
	.type	bl_sec_pka_mutex_take, @function
bl_sec_pka_mutex_take:
.LFB9:
	.loc 1 58 1 is_stmt 1
	.cfi_startproc
	.loc 1 59 5
	.loc 1 59 37 is_stmt 0
	lui	a5,%hi(.LANCHOR1)
	lw	a0,%lo(.LANCHOR1)(a5)
	.loc 1 58 1
	addi	sp,sp,-16
	.cfi_def_cfa_offset 16
	.loc 1 59 37
	li	a1,-1
	.loc 1 58 1
	sw	ra,12(sp)
	.cfi_offset 1, -4
	.loc 1 59 37
	call	xQueueSemaphoreTake
.LVL2:
	.loc 1 63 1
	lw	ra,12(sp)
	.cfi_restore 1
	.loc 1 59 8
	addi	a0,a0,-1
	snez	a0,a0
	.loc 1 63 1
	neg	a0,a0
	addi	sp,sp,16
	.cfi_def_cfa_offset 0
	jr	ra
	.cfi_endproc
.LFE9:
	.size	bl_sec_pka_mutex_take, .-bl_sec_pka_mutex_take
	.section	.text.bl_sec_pka_mutex_give,"ax",@progbits
	.align	1
	.globl	bl_sec_pka_mutex_give
	.type	bl_sec_pka_mutex_give, @function
bl_sec_pka_mutex_give:
.LFB10:
	.loc 1 66 1 is_stmt 1
	.cfi_startproc
	.loc 1 67 5
	.loc 1 67 37 is_stmt 0
	lui	a5,%hi(.LANCHOR1)
	lw	a0,%lo(.LANCHOR1)(a5)
	.loc 1 66 1
	addi	sp,sp,-16
	.cfi_def_cfa_offset 16
	.loc 1 67 37
	li	a3,0
	li	a2,0
	li	a1,0
	.loc 1 66 1
	sw	ra,12(sp)
	.cfi_offset 1, -4
	.loc 1 67 37
	call	xQueueGenericSend
.LVL3:
	.loc 1 71 1
	lw	ra,12(sp)
	.cfi_restore 1
	.loc 1 67 8
	addi	a0,a0,-1
	snez	a0,a0
	.loc 1 71 1
	neg	a0,a0
	addi	sp,sp,16
	.cfi_def_cfa_offset 0
	jr	ra
	.cfi_endproc
.LFE10:
	.size	bl_sec_pka_mutex_give, .-bl_sec_pka_mutex_give
	.section	.bss.pka_mutex_buf,"aw",@nobits
	.align	2
	.set	.LANCHOR0,. + 0
	.type	pka_mutex_buf, @object
	.size	pka_mutex_buf, 80
pka_mutex_buf:
	.zero	80
	.section	.sbss.pka_mutex,"aw",@nobits
	.align	2
	.set	.LANCHOR1,. + 0
	.type	pka_mutex, @object
	.size	pka_mutex, 4
pka_mutex:
	.zero	4
	.text
.Letext0:
	.file 2 "/mnt/d/GitHub/bl_iot_sdk_for_aithinker/toolchain/riscv/Linux/lib/gcc/riscv64-unknown-elf/10.2.0/include/stdint-gcc.h"
	.file 3 "/mnt/d/GitHub/bl_iot_sdk_for_aithinker/components/platform/soc/bl602/freertos_riscv_ram/portable/GCC/RISC-V/portmacro.h"
	.file 4 "/mnt/d/GitHub/bl_iot_sdk_for_aithinker/components/platform/soc/bl602/freertos_riscv_ram/config/FreeRTOS.h"
	.file 5 "/mnt/d/GitHub/bl_iot_sdk_for_aithinker/components/platform/soc/bl602/freertos_riscv_ram/config/queue.h"
	.file 6 "/mnt/d/GitHub/bl_iot_sdk_for_aithinker/components/platform/soc/bl602/freertos_riscv_ram/config/semphr.h"
	.file 7 "/mnt/d/GitHub/bl_iot_sdk_for_aithinker/components/platform/soc/bl602/bl602_std/bl602_std/StdDriver/Inc/bl602_glb.h"