	.file	"bl_sec_aes.c"
	.option nopic
	.attribute arch, "rv32i2p0_m2p0_f2p0_c2p0"
	.attribute unaligned_access, 0
	.attribute stack_align, 16
	.text
.Ltext0:
	.cfi_sections	.debug_frame
	.section	.text.bl_sec_aes_init,"ax",@progbits
	.align	1
	.globl	bl_sec_aes_init
	.type	bl_sec_aes_init, @function
bl_sec_aes_init:
.LFB8:
	.file 1 "/mnt/d/GitHub/bl_iot_sdk_for_aithinker/components/platform/hosal/sec_common/bl_sec_aes.c"
	.loc 1 37 1
	.cfi_startproc
	.loc 1 38 5
	.loc 1 37 1 is_stmt 0
	addi	sp,sp,-16
	.cfi_def_cfa_offset 16
	.loc 1 38 5
	li	a0,0
	.loc 1 37 1
	sw	ra,12(sp)
	.cfi_offset 1, -4
	.loc 1 38 5
	call	Sec_Eng_AES_Enable_BE
.LVL0:
	.loc 1 39 5 is_stmt 1
	.loc 1 40 1 is_stmt 0
	lw	ra,12(sp)
	.cfi_restore 1
	li	a0,0
	addi	sp,sp,16
	.cfi_def_cfa_offset 0
	jr	ra
	.cfi_endproc
.LFE8:
	.size	bl_sec_aes_init, .-bl_sec_aes_init
	.section	.text.bl_aes_acquire_hw,"ax",@progbits
	.align	1
	.globl	bl_aes_acquire_hw
	.type	bl_aes_acquire_hw, @function
bl_aes_acquire_hw:
.LFB9:
	.loc 1 43 1 is_stmt 1
	.cfi_startproc
	.loc 1 44 5
	.loc 1 43 1 is_stmt 0
	addi	sp,sp,-16
	.cfi_def_cfa_offset 16
	sw	ra,12(sp)
	.cfi_offset 1, -4
	.loc 1 44 5
	call	vTaskEnterCritical
.LVL1:
	.loc 1 45 5 is_stmt 1
	.loc 1 46 1 is_stmt 0
	lw	ra,12(sp)
	.cfi_restore 1
	li	a0,0
	addi	sp,sp,16
	.cfi_def_cfa_offset 0
	jr	ra
	.cfi_endproc
.LFE9:
	.size	bl_aes_acquire_hw, .-bl_aes_acquire_hw
	.section	.text.bl_aes_release_hw,"ax",@progbits
	.align	1
	.globl	bl_aes_release_hw
	.type	bl_aes_release_hw, @function
bl_aes_release_hw:
.LFB10:
	.loc 1 49 1 is_stmt 1
	.cfi_startproc
	.loc 1 50 5
	.loc 1 49 1 is_stmt 0
	addi	sp,sp,-16
	.cfi_def_cfa_offset 16
	sw	ra,12(sp)
	.cfi_offset 1, -4
	.loc 1 50 5
	call	vTaskExitCritical
.LVL2:
	.loc 1 51 5 is_stmt 1
	.loc 1 52 1 is_stmt 0
	lw	ra,12(sp)
	.cfi_restore 1
	li	a0,0
	addi	sp,sp,16
	.cfi_def_cfa_offset 0
	jr	ra
	.cfi_endproc
.LFE10:
	.size	bl_aes_release_hw, .-bl_aes_release_hw
	.section	.text.bl_aes_init,"ax",@progbits
	.align	1
	.globl	bl_aes_init
	.type	bl_aes_init, @function
bl_aes_init:
.LFB11:
	.loc 1 55 1 is_stmt 1
	.cfi_startproc
.LVL3:
	.loc 1 56 5
	.loc 1 56 8 is_stmt 0
	beq	a0,zero,.L9
	.loc 1 55 1
	addi	sp,sp,-16
	.cfi_def_cfa_offset 16
	.loc 1 59 5
	li	a2,60
	li	a1,0
	.loc 1 55 1
	sw	s0,8(sp)
	sw	ra,12(sp)
	.cfi_offset 8, -8
	.cfi_offset 1, -4
	mv	s0,a0
	.loc 1 59 5 is_stmt 1
	call	memset
.LVL4:
	.loc 1 60 5
	.loc 1 61 5
	.loc 1 60 29 is_stmt 0
	lbu	a5,1(s0)
	.loc 1 63 12
	li	a0,0
	.loc 1 60 29
	andi	a5,a5,-51
	ori	a5,a5,2
	sb	a5,1(s0)
	.loc 1 63 5 is_stmt 1
	.loc 1 64 1 is_stmt 0
	lw	ra,12(sp)
	.cfi_restore 1
	lw	s0,8(sp)
	.cfi_restore 8
.LVL5:
	addi	sp,sp,16
	.cfi_def_cfa_offset 0
	jr	ra
.LVL6:
.L9:
	.loc 1 57 16
	li	a0,-1
.LVL7:
	.loc 1 64 1
	ret
	.cfi_endproc
.LFE11:
	.size	bl_aes_init, .-bl_aes_init
	.section	.text.bl_aes_set_key,"ax",@progbits
	.align	1
	.globl	bl_aes_set_key
	.type	bl_aes_set_key, @function
bl_aes_set_key:
.LFB12:
	.loc 1 67 1 is_stmt 1
	.cfi_startproc
.LVL8:
	.loc 1 68 5
	.loc 1 68 8 is_stmt 0
	beq	a0,zero,.L18
	mv	a5,a0
	mv	a1,a2
.LVL9:
	.loc 1 69 16 discriminator 1
	li	a0,-1
.LVL10:
	.loc 1 68 15 discriminator 1
	beq	a2,zero,.L24
	mv	a2,a3
.LVL11:
	.loc 1 68 9 discriminator 2
	andi	a4,a3,-9
	li	a3,16
.LVL12:
	beq	a4,a3,.L16
	.loc 1 68 57 discriminator 4
	li	a4,32
	bne	a2,a4,.L24
.L16:
	.loc 1 71 5 is_stmt 1
	.loc 1 73 5
	.loc 1 67 1 is_stmt 0
	addi	sp,sp,-16
	.cfi_def_cfa_offset 16
	sw	ra,12(sp)
	.cfi_offset 1, -4
	.loc 1 73 32
	lw	a4,0(a5)
	.loc 1 75 8
	li	a3,16
	.loc 1 73 32
	andi	a4,a4,-65
	sw	a4,0(a5)
	.loc 1 74 5 is_stmt 1
	.loc 1 75 5
	.loc 1 76 18 is_stmt 0
	li	a4,0
	.loc 1 75 8
	beq	a2,a3,.L17
	.loc 1 77 12 is_stmt 1
	.loc 1 77 15 is_stmt 0
	li	a3,24
	.loc 1 78 18
	li	a4,2
	.loc 1 77 15
	beq	a2,a3,.L17
	.loc 1 80 18
	li	a4,1
.L17:
.LVL13:
	.loc 1 82 5 is_stmt 1
	.loc 1 82 27 is_stmt 0
	slli	a3,a4,3
	lw	a4,0(a5)
.LVL14:
	.loc 1 83 5
	addi	a0,a5,28
	.loc 1 82 27
	andi	a4,a4,-25
	or	a4,a4,a3
	sw	a4,0(a5)
	.loc 1 83 5 is_stmt 1
	call	memcpy
.LVL15:
	.loc 1 85 5
	.loc 1 86 1 is_stmt 0
	lw	ra,12(sp)
	.cfi_restore 1
	.loc 1 85 12
	li	a0,0
	.loc 1 86 1
	addi	sp,sp,16
	.cfi_def_cfa_offset 0
	jr	ra
.LVL16:
.L18:
	.loc 1 69 16
	li	a0,-1
.LVL17:
	ret
.LVL18:
.L24:
	.loc 1 86 1
	ret
	.cfi_endproc
.LFE12:
	.size	bl_aes_set_key, .-bl_aes_set_key
	.section	.text.bl_aes_transform,"ax",@progbits
	.align	1
	.globl	bl_aes_transform
	.type	bl_aes_transform, @function
bl_aes_transform:
.LFB13:
	.loc 1 89 1 is_stmt 1
	.cfi_startproc
.LVL19:
	.loc 1 90 5
	.loc 1 91 5
	.loc 1 91 8 is_stmt 0
	beq	a0,zero,.L28
	.loc 1 89 1 discriminator 1
	addi	sp,sp,-32
	.cfi_def_cfa_offset 32
	sw	s0,24(sp)
	sw	ra,28(sp)
	.cfi_offset 8, -8
	.cfi_offset 1, -4
	.loc 1 91 15 discriminator 1
	sw	a2,12(sp)
	mv	s0,a0
	.loc 1 92 16 discriminator 1
	li	a0,-1
.LVL20:
	.loc 1 91 15 discriminator 1
	beq	a2,zero,.L26
	.loc 1 91 9 discriminator 2
	sw	a3,8(sp)
	beq	a3,zero,.L26
	.loc 1 95 5 is_stmt 1
	.loc 1 96 5
	.loc 1 96 8 is_stmt 0
	snez	a5,a1
	.loc 1 95 29
	lw	a1,0(s0)
.LVL21:
	li	a3,65536
.LVL22:
	slli	a5,a5,5
	or	a5,a5,a3
	addi	a3,a3,-33
	and	a3,a1,a3
	or	a5,a5,a3
	sw	a5,0(s0)
	.loc 1 102 5 is_stmt 1
	li	a0,0
	call	Sec_Eng_AES_Enable_Link
.LVL23:
	.loc 1 103 5
	lw	a4,8(sp)
	lw	a2,12(sp)
	li	a3,16
	mv	a1,s0
	li	a0,0
	call	Sec_Eng_AES_Link_Work
.LVL24:
	.loc 1 104 5
	li	a0,0
	call	Sec_Eng_AES_Disable_Link
.LVL25:
	.loc 1 106 5
	.loc 1 106 12 is_stmt 0
	li	a0,0
.LVL26:
.L26:
	.loc 1 107 1
	lw	ra,28(sp)
	.cfi_restore 1
	lw	s0,24(sp)
	.cfi_restore 8
.LVL27:
	addi	sp,sp,32
	.cfi_def_cfa_offset 0
.LVL28:
	jr	ra
.LVL29:
.L28:
	.loc 1 92 16
	li	a0,-1
.LVL30:
	.loc 1 107 1
	ret
	.cfi_endproc
.LFE13:
	.size	bl_aes_transform, .-bl_aes_transform
	.text
.Letext0:
	.file 2 "/mnt/d/GitHub/bl_iot_sdk_for_aithinker/toolchain/riscv/Linux/lib/gcc/riscv64-unknown-elf/10.2.0/include/stddef.h"
	.file 3 "/mnt/d/GitHub/bl_iot_sdk_for_aithinker/toolchain/riscv/Linux/lib/gcc/riscv64-unknown-elf/10.2.0/include/stdint-gcc.h"
	.file 4 "/mnt/d/GitHub/bl_iot_sdk_for_aithinker/components/platform/hosal/sec_common/bl_sec_aes.h"
	.file 5 "/mnt/d/GitHub/bl_iot_sdk_for_aithinker/components/platform/soc/bl602/bl602_std/bl602_std/StdDriver/Inc/bl602_sec_eng.h"
	.file 6 "/mnt/d/GitHub/bl_iot_sdk_for_aithinker/toolchain/riscv/Linux/riscv64-unknown-elf/include/string.h"
	.file 7 "/mnt/d/GitHub/bl_iot_sdk_for_aithinker/components/platform/soc/bl602/freertos_riscv_ram/portable/GCC/RISC-V/portmacro.h"