	.file	"xz_decompress.c"
	.option nopic
	.attribute arch, "rv32i2p0_m2p0_f2p0_c2p0"
	.attribute unaligned_access, 0
	.attribute stack_align, 16
	.text
.Ltext0:
	.cfi_sections	.debug_frame
	.section	.text.xz_uncompress_init,"ax",@progbits
	.align	1
	.globl	xz_uncompress_init
	.type	xz_uncompress_init, @function
xz_uncompress_init:
.LFB1:
	.file 1 "/mnt/d/GitHub/bl_iot_sdk_for_aithinker/components/platform/soc/bl602/bl602_std/bl602_std/Common/xz/xz_decompress.c"
	.loc 1 9 1
	.cfi_startproc
.LVL0:
	.loc 1 10 5
	.loc 1 9 1 is_stmt 0
	addi	sp,sp,-16
	.cfi_def_cfa_offset 16
	sw	ra,12(sp)
	sw	s0,8(sp)
	sw	s1,4(sp)
	sw	s2,0(sp)
	.cfi_offset 1, -4
	.cfi_offset 8, -8
	.cfi_offset 9, -12
	.cfi_offset 18, -16
	.loc 1 9 1
	mv	s0,a0
	mv	s2,a1
	mv	s1,a2
	.loc 1 10 5
	call	xz_crc32_init
.LVL1:
	.loc 1 16 5 is_stmt 1
	.loc 1 16 9 is_stmt 0
	li	a1,32768
	li	a0,2
	call	xz_dec_init
.LVL2:
	.loc 1 16 7
	lui	a5,%hi(.LANCHOR0)
	sw	a0,%lo(.LANCHOR0)(a5)
	.loc 1 17 5 is_stmt 1
	.loc 1 17 8 is_stmt 0
	beq	a0,zero,.L3
	.loc 1 21 5 is_stmt 1
	.loc 1 21 16 is_stmt 0
	sw	s2,0(s0)
	.loc 1 22 5 is_stmt 1
	.loc 1 22 20 is_stmt 0
	sw	zero,4(s0)
	.loc 1 23 5 is_stmt 1
	.loc 1 23 21 is_stmt 0
	sw	zero,8(s0)
	.loc 1 24 5 is_stmt 1
	.loc 1 24 17 is_stmt 0
	sw	s1,12(s0)
	.loc 1 25 5 is_stmt 1
	.loc 1 25 21 is_stmt 0
	sw	zero,16(s0)
	.loc 1 26 5 is_stmt 1
	.loc 1 26 22 is_stmt 0
	sw	zero,20(s0)
	.loc 1 28 2 is_stmt 1
	.loc 1 28 9 is_stmt 0
	li	a0,0
.L1:
	.loc 1 29 1
	lw	ra,12(sp)
	.cfi_remember_state
	.cfi_restore 1
	lw	s0,8(sp)
	.cfi_restore 8
.LVL3:
	lw	s1,4(sp)
	.cfi_restore 9
.LVL4:
	lw	s2,0(sp)
	.cfi_restore 18
.LVL5:
	addi	sp,sp,16
	.cfi_def_cfa_offset 0
	jr	ra
.LVL6:
.L3:
	.cfi_restore_state
	.loc 1 18 20
	li	a0,1
	j	.L1
	.cfi_endproc
.LFE1:
	.size	xz_uncompress_init, .-xz_uncompress_init
	.section	.text.xz_uncompress_stream,"ax",@progbits
	.align	1
	.globl	xz_uncompress_stream
	.type	xz_uncompress_stream, @function
xz_uncompress_stream:
.LFB2:
	.loc 1 33 1 is_stmt 1
	.cfi_startproc
.LVL7:
	.loc 1 34 2
	.loc 1 35 2
	.loc 1 33 1 is_stmt 0
	addi	sp,sp,-16
	.cfi_def_cfa_offset 16
	sw	s0,8(sp)
	sw	s1,4(sp)
	sw	ra,12(sp)
	.cfi_offset 8, -8
	.cfi_offset 9, -12
	.cfi_offset 1, -4
	.loc 1 35 14
	sw	zero,0(a5)
	.loc 1 37 2 is_stmt 1
	.loc 1 33 1 is_stmt 0
	mv	s1,a5
	.loc 1 37 5
	lw	a3,4(a0)
.LVL8:
	lw	a5,8(a0)
.LVL9:
	.loc 1 33 1
	mv	s0,a0
	.loc 1 37 5
	bne	a3,a5,.L6
	.loc 1 38 3 is_stmt 1
	.loc 1 38 19 is_stmt 0
	sw	a2,8(a0)
	.loc 1 39 10 is_stmt 1
	.loc 1 39 25 is_stmt 0
	sw	zero,4(a0)
.L6:
	.loc 1 42 2 is_stmt 1
	.loc 1 42 5 is_stmt 0
	lw	a3,16(s0)
	lw	a5,20(s0)
	bne	a3,a5,.L7
	.loc 1 43 10 is_stmt 1
	.loc 1 43 27 is_stmt 0
	sw	a4,20(s0)
	.loc 1 44 3 is_stmt 1
	.loc 1 44 19 is_stmt 0
	sw	zero,16(s0)
.L7:
	.loc 1 47 2 is_stmt 1
	.loc 1 47 11 is_stmt 0
	lui	a5,%hi(.LANCHOR0)
	lw	a0,%lo(.LANCHOR0)(a5)
.LVL10:
	mv	a1,s0
.LVL11:
	call	xz_dec_run
.LVL12:
	.loc 1 49 2 is_stmt 1
	.loc 1 49 5 is_stmt 0
	li	a4,1
	lw	a5,16(s0)
	beq	a0,a4,.L8
	.loc 1 49 32 discriminator 1
	lw	a4,20(s0)
	bne	a5,a4,.L5
.L8:
	.loc 1 50 3 is_stmt 1
	.loc 1 50 15 is_stmt 0
	sw	a5,0(s1)
	.loc 1 52 2 is_stmt 1
.L5:
	.loc 1 53 1 is_stmt 0
	lw	ra,12(sp)
	.cfi_restore 1
	lw	s0,8(sp)
	.cfi_restore 8
.LVL13:
	lw	s1,4(sp)
	.cfi_restore 9
.LVL14:
	addi	sp,sp,16
	.cfi_def_cfa_offset 0
	jr	ra
	.cfi_endproc
.LFE2:
	.size	xz_uncompress_stream, .-xz_uncompress_stream
	.section	.text.xz_uncompress_end,"ax",@progbits
	.align	1
	.globl	xz_uncompress_end
	.type	xz_uncompress_end, @function
xz_uncompress_end:
.LFB3:
	.loc 1 56 1 is_stmt 1
	.cfi_startproc
	.loc 1 57 2
	lui	a5,%hi(.LANCHOR0)
	lw	a0,%lo(.LANCHOR0)(a5)
	tail	xz_dec_end
.LVL15:
	.cfi_endproc
.LFE3:
	.size	xz_uncompress_end, .-xz_uncompress_end
	.section	.sbss.s,"aw",@nobits
	.align	2
	.set	.LANCHOR0,. + 0
	.type	s, @object
	.size	s, 4
s:
	.zero	4
	.text
.Letext0:
	.file 2 "/mnt/d/GitHub/bl_iot_sdk_for_aithinker/toolchain/riscv/Linux/lib/gcc/riscv64-unknown-elf/10.2.0/include/stddef.h"
	.file 3 "/mnt/d/GitHub/bl_iot_sdk_for_aithinker/toolchain/riscv/Linux/lib/gcc/riscv64-unknown-elf/10.2.0/include/stdint-gcc.h"
	.file 4 "/mnt/d/GitHub/bl_iot_sdk_for_aithinker/components/platform/soc/bl602/bl602_std/bl602_std/Common/xz/xz.h"