	.file	"xz_port.c"
	.option nopic
	.attribute arch, "rv32i2p0_m2p0_f2p0_c2p0"
	.attribute unaligned_access, 0
	.attribute stack_align, 16
	.text
.Ltext0:
	.cfi_sections	.debug_frame
	.section	.text.simple_malloc_init,"ax",@progbits
	.align	1
	.globl	simple_malloc_init
	.type	simple_malloc_init, @function
simple_malloc_init:
.LFB4:
	.file 1 "/mnt/d/GitHub/bl_iot_sdk_for_aithinker/components/platform/soc/bl602/bl602_std/bl602_std/Common/xz/xz_port.c"
	.loc 1 6 1
	.cfi_startproc
	.loc 1 7 5
	.loc 1 7 13 is_stmt 0
	lui	a5,%hi(.LANCHOR0)
	sw	zero,%lo(.LANCHOR0)(a5)
	.loc 1 8 1
	ret
	.cfi_endproc
.LFE4:
	.size	simple_malloc_init, .-simple_malloc_init
	.section	.rodata.simple_malloc.str1.4,"aMS",@progbits,1
	.align	2
.LC0:
	.string	"Simple Malloc %d\r\n"
	.section	.text.simple_malloc,"ax",@progbits
	.align	1
	.globl	simple_malloc
	.type	simple_malloc, @function
simple_malloc:
.LFB5:
	.loc 1 10 1 is_stmt 1
	.cfi_startproc
.LVL0:
	.loc 1 11 5
	.loc 1 12 5
	.loc 1 10 1 is_stmt 0
	addi	sp,sp,-16
	.cfi_def_cfa_offset 16
	sw	s0,8(sp)
	.loc 1 12 5
	mv	a1,a0
	.cfi_offset 8, -8
	.loc 1 10 1
	mv	s0,a0
	.loc 1 12 5
	lui	a0,%hi(.LC0)
.LVL1:
	addi	a0,a0,%lo(.LC0)
	.loc 1 10 1
	sw	ra,12(sp)
	.cfi_offset 1, -4
	.loc 1 12 5
	call	bflb_platform_printf
.LVL2:
	.loc 1 13 5 is_stmt 1
	.loc 1 13 16 is_stmt 0
	lui	a5,%hi(.LANCHOR0)
	addi	a5,a5,%lo(.LANCHOR0)
	lw	a0,0(a5)
	.loc 1 13 7
	li	a4,65536
	.loc 1 13 16
	add	s0,a0,s0
.LVL3:
	.loc 1 13 7
	bgeu	s0,a4,.L4
	.loc 1 14 9 is_stmt 1
	.loc 1 14 10 is_stmt 0
	lui	a4,%hi(mallocBuf)
	addi	a4,a4,%lo(mallocBuf)
	add	a0,a0,a4
.LVL4:
	.loc 1 15 9 is_stmt 1
	.loc 1 15 17 is_stmt 0
	sw	s0,0(a5)
	.loc 1 16 9 is_stmt 1
.LVL5:
.L2:
	.loc 1 19 1 is_stmt 0
	lw	ra,12(sp)
	.cfi_remember_state
	.cfi_restore 1
	lw	s0,8(sp)
	.cfi_restore 8
	addi	sp,sp,16
	.cfi_def_cfa_offset 0
	jr	ra
.L4:
	.cfi_restore_state
	.loc 1 18 11
	li	a0,0
	j	.L2
	.cfi_endproc
.LFE5:
	.size	simple_malloc, .-simple_malloc
	.section	.rodata.simple_free.str1.4,"aMS",@progbits,1
	.align	2
.LC1:
	.string	"Simple Free %08x\r\n"
	.section	.text.simple_free,"ax",@progbits
	.align	1
	.globl	simple_free
	.type	simple_free, @function
simple_free:
.LFB6:
	.loc 1 22 1 is_stmt 1
	.cfi_startproc
.LVL6:
	.loc 1 23 5
	.loc 1 22 1 is_stmt 0
	mv	a1,a0
	.loc 1 23 5
	lui	a0,%hi(.LC1)
.LVL7:
	addi	a0,a0,%lo(.LC1)
	tail	bflb_platform_printf
.LVL8:
	.cfi_endproc
.LFE6:
	.size	simple_free, .-simple_free
	.section	.noinit_data,"aw"
	.align	2
	.type	mallocBuf, @object
	.size	mallocBuf, 65536
mallocBuf:
	.zero	65536
	.section	.sbss.malloced,"aw",@nobits
	.align	2
	.set	.LANCHOR0,. + 0
	.type	malloced, @object
	.size	malloced, 4
malloced:
	.zero	4
	.text
.Letext0:
	.file 2 "/mnt/d/GitHub/bl_iot_sdk_for_aithinker/toolchain/riscv/Linux/riscv64-unknown-elf/include/machine/_default_types.h"
	.file 3 "/mnt/d/GitHub/bl_iot_sdk_for_aithinker/toolchain/riscv/Linux/riscv64-unknown-elf/include/sys/_stdint.h"
	.file 4 "/mnt/d/GitHub/bl_iot_sdk_for_aithinker/components/platform/soc/bl602/bl602_std/bl602_std/Common/platform_print/bflb_platform.h"