	.file	"wpa_common.c"
	.option nopic
	.attribute arch, "rv32i2p0_m2p0_f2p0_c2p0"
	.attribute unaligned_access, 0
	.attribute stack_align, 16
	.text
.Ltext0:
	.cfi_sections	.debug_frame
	.section	.text.WPA_GET_BE32,"ax",@progbits
	.align	1
	.type	WPA_GET_BE32, @function
WPA_GET_BE32:
.LFB41:
	.file 1 "/mnt/d/GitHub/bl_iot_sdk_for_aithinker/components/security/wpa_supplicant/src/utils/common.h"
	.loc 1 160 1
	.cfi_startproc
.LVL0:
	.loc 1 161 2
	.loc 1 161 10 is_stmt 0
	lbu	a5,0(a0)
	.loc 1 161 60
	lbu	a4,3(a0)
	.loc 1 161 21
	slli	a5,a5,24
	.loc 1 161 57
	or	a5,a5,a4
	.loc 1 161 32
	lbu	a4,1(a0)
	.loc 1 161 47
	lbu	a0,2(a0)
.LVL1:
	.loc 1 161 36
	slli	a4,a4,16
	.loc 1 161 57
	or	a5,a5,a4
	.loc 1 161 51
	slli	a0,a0,8
	.loc 1 162 1
	or	a0,a5,a0
	ret
	.cfi_endproc
.LFE41:
	.size	WPA_GET_BE32, .-WPA_GET_BE32
	.section	.text.rsn_selector_to_bitfield,"ax",@progbits
	.align	1
	.type	rsn_selector_to_bitfield, @function
rsn_selector_to_bitfield:
.LFB79:
	.file 2 "/mnt/d/GitHub/bl_iot_sdk_for_aithinker/components/security/wpa_supplicant/src/common/wpa_common.c"
	.loc 2 30 1 is_stmt 1
	.cfi_startproc
.LVL2:
	.loc 2 31 2
	.loc 2 30 1 is_stmt 0
	addi	sp,sp,-16
	.cfi_def_cfa_offset 16
	sw	ra,12(sp)
	.cfi_offset 1, -4
	.loc 2 31 6
	call	WPA_GET_BE32
.LVL3:
	.loc 2 31 5
	li	a5,1028096
	addi	a3,a5,-1024
	beq	a0,a3,.L4
	mv	a4,a0
	.loc 2 33 2 is_stmt 1
	.loc 2 33 5 is_stmt 0
	addi	a3,a5,-1023
	.loc 2 34 10
	li	a0,128
	.loc 2 33 5
	beq	a4,a3,.L2
	.loc 2 35 2 is_stmt 1
	.loc 2 35 5 is_stmt 0
	addi	a3,a5,-1022
	.loc 2 36 10
	li	a0,2
	.loc 2 35 5
	beq	a4,a3,.L2
	.loc 2 37 2 is_stmt 1
	.loc 2 37 5 is_stmt 0
	addi	a3,a5,-1020
	.loc 2 38 10
	li	a0,8
	.loc 2 37 5
	beq	a4,a3,.L2
	.loc 2 39 2 is_stmt 1
	.loc 2 39 5 is_stmt 0
	addi	a3,a5,-1019
	.loc 2 40 10
	li	a0,256
	.loc 2 39 5
	beq	a4,a3,.L2
	.loc 2 42 2 is_stmt 1
	.loc 2 42 5 is_stmt 0
	addi	a5,a5,-1018
	.loc 2 45 9
	li	a0,0
	.loc 2 42 5
	bne	a4,a5,.L2
	.loc 2 43 10
	li	a0,32
.L2:
	.loc 2 46 1
	lw	ra,12(sp)
	.cfi_remember_state
	.cfi_restore 1
	addi	sp,sp,16
	.cfi_def_cfa_offset 0
	jr	ra
.L4:
	.cfi_restore_state
	.loc 2 32 10
	li	a0,1
	j	.L2
	.cfi_endproc
.LFE79:
	.size	rsn_selector_to_bitfield, .-rsn_selector_to_bitfield
	.section	.text.wpa_selector_to_bitfield,"ax",@progbits
	.align	1
	.type	wpa_selector_to_bitfield, @function
wpa_selector_to_bitfield:
.LFB81:
	.loc 2 74 1 is_stmt 1
	.cfi_startproc
.LVL4:
	.loc 2 75 2
	.loc 2 74 1 is_stmt 0
	addi	sp,sp,-16
	.cfi_def_cfa_offset 16
	sw	ra,12(sp)
	.cfi_offset 1, -4
	.loc 2 75 6
	call	WPA_GET_BE32
.LVL5:
	.loc 2 75 5
	li	a5,5304320
	addi	a3,a5,512
	beq	a0,a3,.L13
	mv	a4,a0
	.loc 2 77 2 is_stmt 1
	.loc 2 77 5 is_stmt 0
	addi	a3,a5,513
	.loc 2 78 10
	li	a0,128
	.loc 2 77 5
	beq	a4,a3,.L11
	.loc 2 79 2 is_stmt 1
	.loc 2 79 5 is_stmt 0
	addi	a3,a5,514
	.loc 2 80 10
	li	a0,2
	.loc 2 79 5
	beq	a4,a3,.L11
	.loc 2 81 2 is_stmt 1
	.loc 2 81 5 is_stmt 0
	addi	a3,a5,516
	.loc 2 82 10
	li	a0,8
	.loc 2 81 5
	beq	a4,a3,.L11
	.loc 2 83 2 is_stmt 1
	.loc 2 83 5 is_stmt 0
	addi	a5,a5,517
	.loc 2 85 9
	li	a0,0
	.loc 2 83 5
	bne	a4,a5,.L11
	.loc 2 84 10
	li	a0,256
.L11:
	.loc 2 86 1
	lw	ra,12(sp)
	.cfi_remember_state
	.cfi_restore 1
	addi	sp,sp,16
	.cfi_def_cfa_offset 0
	jr	ra
.L13:
	.cfi_restore_state
	.loc 2 76 10
	li	a0,1
	j	.L11
	.cfi_endproc
.LFE81:
	.size	wpa_selector_to_bitfield, .-wpa_selector_to_bitfield
	.section	.text.wpa_parse_wpa_ie_rsn,"ax",@progbits
	.align	1
	.globl	wpa_parse_wpa_ie_rsn
	.type	wpa_parse_wpa_ie_rsn, @function
wpa_parse_wpa_ie_rsn:
.LFB83:
	.loc 2 108 1 is_stmt 1
	.cfi_startproc
.LVL6:
	.loc 2 110 2
	.loc 2 111 2
	.loc 2 112 2
	.loc 2 113 2
	.loc 2 115 2
	.loc 2 108 1 is_stmt 0
	addi	sp,sp,-64
	.cfi_def_cfa_offset 64
	sw	s0,56(sp)
	.cfi_offset 8, -8
	mv	s0,a2
	sw	s1,52(sp)
	sw	s3,44(sp)
	.cfi_offset 9, -12
	.cfi_offset 19, -20
	mv	s1,a0
	mv	s3,a1
	.loc 2 115 2
	li	a2,32
.LVL7:
	li	a1,0
.LVL8:
	mv	a0,s0
.LVL9:
	.loc 2 108 1
	sw	ra,60(sp)
	sw	s2,48(sp)
	sw	s4,40(sp)
	sw	s5,36(sp)
	sw	s6,32(sp)
	sw	s7,28(sp)
	sw	s8,24(sp)
	sw	s9,20(sp)
	sw	s10,16(sp)
	sw	s11,12(sp)
	.cfi_offset 1, -4
	.cfi_offset 18, -16
	.cfi_offset 20, -24
	.cfi_offset 21, -28
	.cfi_offset 22, -32
	.cfi_offset 23, -36
	.cfi_offset 24, -40
	.cfi_offset 25, -44
	.cfi_offset 26, -48
	.cfi_offset 27, -52
	.loc 2 115 2
	call	memset
.LVL10:
	.loc 2 116 2 is_stmt 1
	.loc 2 116 14 is_stmt 0
	li	a5,2
	sw	a5,0(s0)
	.loc 2 117 2 is_stmt 1
	.loc 2 119 17 is_stmt 0
	li	a3,1
	.loc 2 117 24
	li	a5,8
	sw	a5,4(s0)
	.loc 2 118 2 is_stmt 1
	.loc 2 118 21 is_stmt 0
	sw	a5,8(s0)
	.loc 2 119 2 is_stmt 1
	.loc 2 119 17 is_stmt 0
	sw	a3,12(s0)
	.loc 2 120 2 is_stmt 1
	.loc 2 120 21 is_stmt 0
	sw	zero,16(s0)
	.loc 2 121 2 is_stmt 1
	.loc 2 121 14 is_stmt 0
	sw	zero,24(s0)
	.loc 2 122 2 is_stmt 1
	.loc 2 122 18 is_stmt 0
	sw	zero,20(s0)
	.loc 2 123 2 is_stmt 1
	.loc 2 123 26 is_stmt 0
	sw	zero,28(s0)
	.loc 2 125 2 is_stmt 1
	.loc 2 130 2
	.loc 2 130 5 is_stmt 0
	li	a4,3
	.loc 2 135 10
	li	a0,-1
	.loc 2 130 5
	bleu	s3,a4,.L19
	.loc 2 138 2 is_stmt 1
.LVL11:
	.loc 2 140 2
	.loc 2 140 5 is_stmt 0
	lbu	a2,0(s1)
	li	a5,48
	.loc 2 147 10
	li	a0,-2
	.loc 2 140 5
	bne	a2,a5,.L19
	.loc 2 141 9 discriminator 1
	lbu	a2,1(s1)
	.loc 2 141 29 discriminator 1
	addi	a5,s3,-2
	.loc 2 140 25 discriminator 1
	bne	a2,a5,.L19
.LVL12:
	.loc 1 138 2 is_stmt 1
	.loc 2 141 33 is_stmt 0
	lbu	a5,3(s1)
	lbu	a2,2(s1)
	slli	a5,a5,8
	or	a5,a5,a2
	bne	a5,a3,.L19
	.loc 2 150 2 is_stmt 1
	.loc 2 151 20 is_stmt 0
	addi	s2,s3,-4
	.loc 2 150 6
	addi	a5,s1,4
.LVL13:
	.loc 2 151 2 is_stmt 1
	.loc 2 153 2
	.loc 2 153 5 is_stmt 0
	ble	s2,a4,.L21
	.loc 2 154 3 is_stmt 1
	.loc 2 154 24 is_stmt 0
	mv	a0,a5
	call	rsn_selector_to_bitfield
.LVL14:
	.loc 2 154 22
	sw	a0,8(s0)
	.loc 2 155 3 is_stmt 1
	.loc 2 155 7 is_stmt 0
	addi	a5,s1,8
.LVL15:
	.loc 2 156 3 is_stmt 1
	.loc 2 156 8 is_stmt 0
	addi	s2,s3,-8
.LVL16:
.L22:
	.loc 2 165 2 is_stmt 1
	.loc 2 165 5 is_stmt 0
	li	a4,1
	ble	s2,a4,.L23
	.loc 2 166 3 is_stmt 1
	.loc 2 166 25 is_stmt 0
	sw	zero,4(s0)
	.loc 2 167 3 is_stmt 1
.LVL17:
	.loc 1 138 2
	lbu	s3,1(a5)
.LVL18:
	lbu	s1,0(a5)
.LVL19:
	.loc 2 169 8 is_stmt 0
	addi	s4,s2,-2
	slli	s3,s3,8
	or	s3,s3,s1
.LVL20:
	.loc 2 168 3 is_stmt 1
	.loc 2 175 11 is_stmt 0
	li	a0,-4
	.loc 2 168 7
	addi	s1,a5,2
.LVL21:
	.loc 2 169 3 is_stmt 1
	.loc 2 170 3
	.loc 2 170 6 is_stmt 0
	beq	s3,zero,.L19
	.loc 2 170 34 discriminator 1
	slli	s5,s3,2
	.loc 2 170 18 discriminator 1
	bgt	s5,s4,.L19
	.loc 2 168 7
	mv	s7,s1
	.loc 2 177 10
	li	s6,0
.LVL22:
.L24:
	.loc 2 178 4 is_stmt 1 discriminator 3
	.loc 2 178 29 is_stmt 0 discriminator 3
	mv	a0,s7
	call	rsn_selector_to_bitfield
.LVL23:
	.loc 2 178 26 discriminator 3
	lw	a5,4(s0)
	.loc 2 177 27 discriminator 3
	addi	s6,s6,1
.LVL24:
	.loc 2 179 8 discriminator 3
	addi	s7,s7,4
.LVL25:
	.loc 2 178 26 discriminator 3
	or	a5,a5,a0
	sw	a5,4(s0)
	.loc 2 179 4 is_stmt 1 discriminator 3
.LVL26:
	.loc 2 180 4 discriminator 3
	.loc 2 177 26 discriminator 3
	.loc 2 177 15 discriminator 3
	.loc 2 177 3 is_stmt 0 discriminator 3
	bgt	s3,s6,.L24
	li	a4,-4
	mul	a4,s3,a4
	addi	s2,s2,2
	addi	a5,s3,-1
	.loc 2 179 8
	add	s5,s1,s5
	slli	a5,a5,2
	add	s4,s4,a4
	add	s2,s2,a4
.LVL27:
	.loc 2 190 2 is_stmt 1
	.loc 2 190 5 is_stmt 0
	li	a4,1
	ble	s4,a4,.L26
	.loc 2 191 3 is_stmt 1
	.loc 2 191 18 is_stmt 0
	sw	zero,12(s0)
	.loc 2 192 3 is_stmt 1
.LVL28:
	.loc 1 138 2
	lbu	s3,1(s5)
.LVL29:
	lbu	a4,0(s5)
	.loc 2 193 7 is_stmt 0
	addi	a5,a5,6
	slli	s3,s3,8
	or	s3,s3,a4
.LVL30:
	.loc 2 193 3 is_stmt 1
	.loc 2 193 7 is_stmt 0
	add	s1,s1,a5
.LVL31:
	.loc 2 194 3 is_stmt 1
	.loc 2 194 8 is_stmt 0
	addi	s2,s2,-6
.LVL32:
	.loc 2 195 3 is_stmt 1
	.loc 2 200 11 is_stmt 0
	li	a0,-6
	.loc 2 195 6
	beq	s3,zero,.L19
	.loc 2 195 34 discriminator 1
	slli	s7,s3,2
	.loc 2 195 18 discriminator 1
	bgt	s7,s2,.L19
.LBB46:
.LBB47:
	.loc 2 50 5
	li	a4,1028096
.LBE47:
.LBE46:
	.loc 2 193 7
	mv	s6,s1
.LVL33:
	.loc 2 202 10
	li	s5,0
.LBB50:
.LBB48:
	.loc 2 50 5
	addi	s8,a4,-1023
	.loc 2 52 5
	addi	s9,a4,-1022
	.loc 2 62 12
	addi	s10,a4,-1016
	.loc 2 65 5
	addi	s11,a4,-1019
	.loc 2 67 5
	addi	s4,a4,-1018
.LVL34:
.L28:
.LBE48:
.LBE50:
	.loc 2 203 4 is_stmt 1
.LBB51:
.LBB49:
	.loc 2 50 2
	.loc 2 50 6 is_stmt 0
	mv	a0,s6
	call	WPA_GET_BE32
.LVL35:
	.loc 2 51 10
	li	a4,1
	.loc 2 50 5
	beq	a0,s8,.L27
	.loc 2 52 2 is_stmt 1
	.loc 2 53 10 is_stmt 0
	li	a4,2
	.loc 2 52 5
	beq	a0,s9,.L27
	.loc 2 62 9 is_stmt 1
	.loc 2 63 24 is_stmt 0
	li	a4,1024
	.loc 2 62 12
	beq	a0,s10,.L27
	.loc 2 65 2 is_stmt 1
	.loc 2 66 10 is_stmt 0
	li	a4,128
	.loc 2 65 5
	beq	a0,s11,.L27
	.loc 2 67 2 is_stmt 1
	.loc 2 70 9 is_stmt 0
	li	a4,0
	.loc 2 67 5
	bne	a0,s4,.L27
	.loc 2 68 10
	li	a4,256
.L27:
.LVL36:
.LBE49:
.LBE51:
	.loc 2 203 19
	lw	a3,12(s0)
	.loc 2 202 27
	addi	s5,s5,1
.LVL37:
	.loc 2 204 8
	addi	s6,s6,4
.LVL38:
	.loc 2 203 19
	or	a4,a3,a4
	sw	a4,12(s0)
	.loc 2 204 4 is_stmt 1
.LVL39:
	.loc 2 205 4
	.loc 2 202 26
	.loc 2 202 15
	.loc 2 202 3 is_stmt 0
	bgt	s3,s5,.L28
	li	a4,-4
	mul	s3,s3,a4
.LVL40:
	.loc 2 215 5
	li	a4,1
	.loc 2 204 8
	add	a5,s1,s7
	addi	a3,s3,4
	.loc 2 205 9
	add	s3,s3,s2
	add	a3,a3,s2
.LVL41:
	.loc 2 215 2 is_stmt 1
	.loc 2 215 5 is_stmt 0
	ble	s3,a4,.L53
	.loc 2 216 3 is_stmt 1
.LVL42:
	.loc 1 138 2
	.loc 2 216 24 is_stmt 0
	lbu	a4,1(a5)
	lbu	a2,0(a5)
	slli	a4,a4,8
	or	a4,a4,a2
	sw	a4,16(s0)
	.loc 2 217 3 is_stmt 1
.LVL43:
	.loc 2 218 3
	.loc 2 221 2
	.loc 2 221 5 is_stmt 0
	li	a4,7
	ble	a3,a4,.L53
	.loc 2 222 3 is_stmt 1
.LVL44:
	.loc 1 138 2
	lbu	a4,3(a5)
	lbu	a2,2(a5)
	.loc 2 224 8 is_stmt 0
	addi	a3,a3,-8
.LVL45:
	slli	a4,a4,8
	or	a4,a4,a2
.LVL46:
	.loc 2 222 21
	sw	a4,20(s0)
	.loc 2 223 3 is_stmt 1
	.loc 2 225 36 is_stmt 0
	slli	a4,a4,4
	.loc 2 223 7
	addi	a5,a5,4
.LVL47:
	.loc 2 224 3 is_stmt 1
	.loc 2 225 3
	.loc 2 225 6 is_stmt 0
	ble	a4,a3,.L31
	.loc 2 232 4 is_stmt 1
	.loc 2 232 20 is_stmt 0
	sw	zero,20(s0)
	.loc 2 233 4 is_stmt 1
	.loc 2 233 11 is_stmt 0
	li	a0,-9
	j	.L19
.LVL48:
.L21:
	.loc 2 157 9 is_stmt 1
	.loc 2 162 10 is_stmt 0
	li	a0,-3
	.loc 2 157 12
	ble	s2,zero,.L22
.LVL49:
.L19:
	.loc 2 252 1
	lw	ra,60(sp)
	.cfi_remember_state
	.cfi_restore 1
	lw	s0,56(sp)
	.cfi_restore 8
.LVL50:
	lw	s1,52(sp)
	.cfi_restore 9
	lw	s2,48(sp)
	.cfi_restore 18
	lw	s3,44(sp)
	.cfi_restore 19
	lw	s4,40(sp)
	.cfi_restore 20
	lw	s5,36(sp)
	.cfi_restore 21
	lw	s6,32(sp)
	.cfi_restore 22
	lw	s7,28(sp)
	.cfi_restore 23
	lw	s8,24(sp)
	.cfi_restore 24
	lw	s9,20(sp)
	.cfi_restore 25
	lw	s10,16(sp)
	.cfi_restore 26
	lw	s11,12(sp)
	.cfi_restore 27
	addi	sp,sp,64
	.cfi_def_cfa_offset 0
	jr	ra
.LVL51:
.L23:
	.cfi_restore_state
	.loc 2 182 9 is_stmt 1
	.loc 2 187 10 is_stmt 0
	li	a0,-5
	.loc 2 182 12
	beq	s2,a4,.L19
.LVL52:
.L53:
	.loc 2 236 4 is_stmt 1
	.loc 2 237 4
	.loc 2 248 9 is_stmt 0
	li	a0,0
	j	.L19
.LVL53:
.L26:
	.loc 2 207 9 is_stmt 1
	.loc 2 212 10 is_stmt 0
	li	a0,-7
	.loc 2 207 12
	beq	s4,a4,.L19
	j	.L53
.LVL54:
.L31:
	.loc 2 235 4 is_stmt 1
	.loc 2 235 16 is_stmt 0
	sw	a5,24(s0)
	j	.L53
	.cfi_endproc
.LFE83:
	.size	wpa_parse_wpa_ie_rsn, .-wpa_parse_wpa_ie_rsn
	.section	.text.wpa_parse_wpa_ie_wpa,"ax",@progbits
	.align	1
	.globl	wpa_parse_wpa_ie_wpa
	.type	wpa_parse_wpa_ie_wpa, @function
wpa_parse_wpa_ie_wpa:
.LFB84:
	.loc 2 256 1 is_stmt 1
	.cfi_startproc
.LVL55:
	.loc 2 257 2
	.loc 2 258 2
	.loc 2 259 2
	.loc 2 260 2
	.loc 2 262 2
	.loc 2 256 1 is_stmt 0
	addi	sp,sp,-48
	.cfi_def_cfa_offset 48
	sw	s0,40(sp)
	.cfi_offset 8, -8
	mv	s0,a2
	sw	s1,36(sp)
	sw	s2,32(sp)
	.cfi_offset 9, -12
	.cfi_offset 18, -16
	mv	s1,a0
	mv	s2,a1
	.loc 2 262 2
	li	a2,32
.LVL56:
	li	a1,0
.LVL57:
	mv	a0,s0
.LVL58:
	.loc 2 256 1
	sw	s3,28(sp)
	sw	ra,44(sp)
	sw	s4,24(sp)
	sw	s5,20(sp)
	sw	s6,16(sp)
	sw	s7,12(sp)
	sw	s8,8(sp)
	sw	s9,4(sp)
	.cfi_offset 19, -20
	.cfi_offset 1, -4
	.cfi_offset 20, -24
	.cfi_offset 21, -28
	.cfi_offset 22, -32
	.cfi_offset 23, -36
	.cfi_offset 24, -40
	.cfi_offset 25, -44
	.loc 2 262 2
	call	memset
.LVL59:
	.loc 2 263 2 is_stmt 1
	.loc 2 264 24 is_stmt 0
	li	a5,2
	.loc 2 263 14
	li	s3,1
	.loc 2 264 24
	sw	a5,4(s0)
	.loc 2 265 21
	sw	a5,8(s0)
	.loc 2 263 14
	sw	s3,0(s0)
	.loc 2 264 2 is_stmt 1
	.loc 2 265 2
	.loc 2 266 2
	.loc 2 266 17 is_stmt 0
	sw	s3,12(s0)
	.loc 2 267 2 is_stmt 1
	.loc 2 267 21 is_stmt 0
	sw	zero,16(s0)
	.loc 2 268 2 is_stmt 1
	.loc 2 268 14 is_stmt 0
	sw	zero,24(s0)
	.loc 2 269 2 is_stmt 1
	.loc 2 269 18 is_stmt 0
	sw	zero,20(s0)
	.loc 2 270 2 is_stmt 1
	.loc 2 270 26 is_stmt 0
	sw	zero,28(s0)
	.loc 2 272 2 is_stmt 1
	.loc 2 277 2
	.loc 2 277 5 is_stmt 0
	li	a5,7
	.loc 2 280 10
	li	a4,-1
	.loc 2 277 5
	bleu	s2,a5,.L54
	.loc 2 283 2 is_stmt 1
.LVL60:
	.loc 2 285 2
	.loc 2 285 5 is_stmt 0
	lbu	a3,0(s1)
	li	a5,221
	.loc 2 291 10
	li	a4,-2
	.loc 2 285 5
	bne	a3,a5,.L54
	.loc 2 286 9 discriminator 1
	lbu	a3,1(s1)
	.loc 2 286 29 discriminator 1
	addi	a5,s2,-2
	.loc 2 285 26 discriminator 1
	bne	a3,a5,.L54
	.loc 2 287 6
	addi	a0,s1,2
	call	WPA_GET_BE32
.LVL61:
	.loc 2 286 33
	li	a5,5304320
	addi	a5,a5,513
	.loc 2 291 10
	li	a4,-2
	.loc 2 286 33
	bne	a0,a5,.L54
.LVL62:
	.loc 1 138 2 is_stmt 1
	.loc 2 287 133 is_stmt 0
	lbu	a5,7(s1)
	lbu	a4,6(s1)
	slli	a5,a5,8
	or	a5,a5,a4
	.loc 2 291 10
	li	a4,-2
	.loc 2 287 133
	bne	a5,s3,.L54
	.loc 2 294 2 is_stmt 1
	.loc 2 295 20 is_stmt 0
	addi	s3,s2,-8
	.loc 2 297 5
	li	a4,3
	.loc 2 294 6
	addi	a0,s1,8
.LVL63:
	.loc 2 295 2 is_stmt 1
	.loc 2 297 2
	.loc 2 297 5 is_stmt 0
	ble	s3,a4,.L56
	.loc 2 298 3 is_stmt 1
	.loc 2 298 24 is_stmt 0
	call	wpa_selector_to_bitfield
.LVL64:
	.loc 2 298 22
	sw	a0,8(s0)
	.loc 2 299 3 is_stmt 1
	.loc 2 300 8 is_stmt 0
	addi	s3,s2,-12
.LVL65:
	.loc 2 299 7
	addi	a0,s1,12
.LVL66:
	.loc 2 300 3 is_stmt 1
.L57:
	.loc 2 307 2
	.loc 2 307 5 is_stmt 0
	li	a3,1
	ble	s3,a3,.L58
	.loc 2 308 3 is_stmt 1
	.loc 2 308 25 is_stmt 0
	sw	zero,4(s0)
	.loc 2 309 3 is_stmt 1
.LVL67:
	.loc 1 138 2
	lbu	s2,1(a0)
.LVL68:
	lbu	s1,0(a0)
.LVL69:
	.loc 2 311 8 is_stmt 0
	addi	s4,s3,-2
	slli	s2,s2,8
	or	s2,s2,s1
.LVL70:
	.loc 2 310 3 is_stmt 1
	.loc 2 315 11 is_stmt 0
	li	a4,-4
	.loc 2 310 7
	addi	s1,a0,2
.LVL71:
	.loc 2 311 3 is_stmt 1
	.loc 2 312 3
	.loc 2 312 6 is_stmt 0
	beq	s2,zero,.L54
	.loc 2 312 34 discriminator 1
	slli	s5,s2,2
	.loc 2 312 18 discriminator 1
	bgt	s5,s4,.L54
	.loc 2 310 7
	mv	s7,s1
	.loc 2 317 10
	li	s6,0
.LVL72:
.L59:
	.loc 2 318 4 is_stmt 1 discriminator 3
	.loc 2 318 29 is_stmt 0 discriminator 3
	mv	a0,s7
	call	wpa_selector_to_bitfield
.LVL73:
	.loc 2 318 26 discriminator 3
	lw	a5,4(s0)
	.loc 2 317 27 discriminator 3
	addi	s6,s6,1
.LVL74:
	.loc 2 319 8 discriminator 3
	addi	s7,s7,4
.LVL75:
	.loc 2 318 26 discriminator 3
	or	a5,a5,a0
	sw	a5,4(s0)
	.loc 2 319 4 is_stmt 1 discriminator 3
.LVL76:
	.loc 2 320 4 discriminator 3
	.loc 2 317 26 discriminator 3
	.loc 2 317 15 discriminator 3
	.loc 2 317 3 is_stmt 0 discriminator 3
	bgt	s2,s6,.L59
	li	a4,-4
	mul	a4,s2,a4
	addi	a5,s2,-1
	addi	s3,s3,2
	.loc 2 328 5
	li	a3,1
	.loc 2 319 8
	add	s5,s1,s5
	slli	a5,a5,2
	add	s4,s4,a4
	add	s3,s3,a4
.LVL77:
	.loc 2 328 2 is_stmt 1
	.loc 2 328 5 is_stmt 0
	ble	s4,a3,.L61
	.loc 2 329 3 is_stmt 1
	.loc 2 329 18 is_stmt 0
	sw	zero,12(s0)
	.loc 2 330 3 is_stmt 1
.LVL78:
	.loc 1 138 2
	lbu	s2,1(s5)
.LVL79:
	lbu	a4,0(s5)
	.loc 2 331 7 is_stmt 0
	addi	a5,a5,6
	slli	s2,s2,8
	or	s2,s2,a4
.LVL80:
	.loc 2 331 3 is_stmt 1
	.loc 2 331 7 is_stmt 0
	add	s1,s1,a5
.LVL81:
	.loc 2 332 3 is_stmt 1
	.loc 2 332 8 is_stmt 0
	addi	s3,s3,-6
.LVL82:
	.loc 2 333 3 is_stmt 1
	.loc 2 336 11 is_stmt 0
	li	a4,-6
	.loc 2 333 6
	beq	s2,zero,.L54
	.loc 2 333 34 discriminator 1
	slli	s7,s2,2
	.loc 2 333 18 discriminator 1
	bgt	s7,s3,.L54
.LBB62:
.LBB63:
	.loc 2 90 5
	li	a4,5304320
.LBE63:
.LBE62:
	.loc 2 331 7
	mv	s6,s1
.LVL83:
	.loc 2 338 10
	li	s5,0
.LBB66:
.LBB64:
	.loc 2 90 5
	addi	s8,a4,513
	.loc 2 92 5
	addi	s9,a4,514
	.loc 2 94 5
	addi	s4,a4,512
.LVL84:
.L63:
.LBE64:
.LBE66:
	.loc 2 339 4 is_stmt 1
.LBB67:
.LBB65:
	.loc 2 90 2
	.loc 2 90 6 is_stmt 0
	mv	a0,s6
	call	WPA_GET_BE32
.LVL85:
	.loc 2 91 10
	li	a4,1
	.loc 2 90 5
	beq	a0,s8,.L62
	.loc 2 92 2 is_stmt 1
	.loc 2 93 10 is_stmt 0
	li	a4,2
	.loc 2 92 5
	beq	a0,s9,.L62
	.loc 2 94 2 is_stmt 1
	.loc 2 96 9 is_stmt 0
	li	a4,0
	.loc 2 94 5
	bne	a0,s4,.L62
	.loc 2 95 10
	li	a4,16
.L62:
.LVL86:
.LBE65:
.LBE67:
	.loc 2 339 19
	lw	a3,12(s0)
	.loc 2 338 27
	addi	s5,s5,1
.LVL87:
	.loc 2 340 8
	addi	s6,s6,4
.LVL88:
	.loc 2 339 19
	or	a4,a3,a4
	sw	a4,12(s0)
	.loc 2 340 4 is_stmt 1
.LVL89:
	.loc 2 341 4
	.loc 2 338 26
	.loc 2 338 15
	.loc 2 338 3 is_stmt 0
	bgt	s2,s5,.L63
	li	a5,-4
	mul	s2,s2,a5
.LVL90:
	.loc 2 349 5
	li	a5,1
	.loc 2 340 8
	add	s1,s1,s7
	add	s3,s2,s3
.LVL91:
	.loc 2 349 2 is_stmt 1
	.loc 2 349 5 is_stmt 0
	ble	s3,a5,.L86
	.loc 2 350 3 is_stmt 1
.LVL92:
	.loc 1 138 2
	.loc 2 350 24 is_stmt 0
	lbu	a5,1(s1)
	lbu	a4,0(s1)
	slli	a5,a5,8
	or	a5,a5,a4
	sw	a5,16(s0)
	j	.L86
.LVL93:
.L56:
	.loc 2 301 9 is_stmt 1
	.loc 2 304 10 is_stmt 0
	li	a4,-3
	.loc 2 301 12
	ble	s3,zero,.L57
.LVL94:
.L54:
	.loc 2 361 1
	lw	ra,44(sp)
	.cfi_remember_state
	.cfi_restore 1
	lw	s0,40(sp)
	.cfi_restore 8
.LVL95:
	lw	s1,36(sp)
	.cfi_restore 9
	lw	s2,32(sp)
	.cfi_restore 18
	lw	s3,28(sp)
	.cfi_restore 19
	lw	s4,24(sp)
	.cfi_restore 20
	lw	s5,20(sp)
	.cfi_restore 21
	lw	s6,16(sp)
	.cfi_restore 22
	lw	s7,12(sp)
	.cfi_restore 23
	lw	s8,8(sp)
	.cfi_restore 24
	lw	s9,4(sp)
	.cfi_restore 25
	mv	a0,a4
	addi	sp,sp,48
	.cfi_def_cfa_offset 0
	jr	ra
.LVL96:
.L58:
	.cfi_restore_state
	.loc 2 322 9 is_stmt 1
	.loc 2 325 10 is_stmt 0
	li	a4,-5
	.loc 2 322 12
	beq	s3,a3,.L54
.LVL97:
.L86:
	.loc 2 351 3 is_stmt 1
	.loc 2 352 3
	.loc 2 360 9 is_stmt 0
	li	a4,0
	j	.L54
.LVL98:
.L61:
	.loc 2 343 9 is_stmt 1
	.loc 2 346 10 is_stmt 0
	li	a4,-7
	.loc 2 343 12
	bne	s4,a3,.L86
	j	.L54
	.cfi_endproc
.LFE84:
	.size	wpa_parse_wpa_ie_wpa, .-wpa_parse_wpa_ie_wpa
	.section	.text.wpa_parse_kde_ies,"ax",@progbits
	.align	1
	.globl	wpa_parse_kde_ies
	.type	wpa_parse_kde_ies, @function
wpa_parse_kde_ies:
.LFB86:
	.loc 2 456 1 is_stmt 1
	.cfi_startproc
.LVL99:
	.loc 2 457 5
	.loc 2 458 5
	.loc 2 460 5
	.loc 2 456 1 is_stmt 0
	addi	sp,sp,-80
	.cfi_def_cfa_offset 80
	sw	s5,52(sp)
	.cfi_offset 21, -28
	mv	s5,a2
	sw	s0,72(sp)
	sw	s4,56(sp)
	.cfi_offset 8, -8
	.cfi_offset 20, -24
	mv	s0,a1
	mv	s4,a0
	.loc 2 460 5
	li	a2,44
.LVL100:
	li	a1,0
.LVL101:
	mv	a0,s5
.LVL102:
	.loc 2 456 1
	sw	s1,68(sp)
	sw	s2,64(sp)
	sw	s3,60(sp)
	sw	s6,48(sp)
	sw	s7,44(sp)
	sw	s8,40(sp)
	sw	s9,36(sp)
	sw	s10,32(sp)
	sw	s11,28(sp)
	sw	ra,76(sp)
	.cfi_offset 9, -12
	.cfi_offset 18, -16
	.cfi_offset 19, -20
	.cfi_offset 22, -32
	.cfi_offset 23, -36
	.cfi_offset 24, -40
	.cfi_offset 25, -44
	.cfi_offset 26, -48
	.cfi_offset 27, -52
	.cfi_offset 1, -4
	.loc 2 461 25
	add	s1,s4,s0
	.loc 2 460 5
	call	memset
.LVL103:
	.loc 2 461 5 is_stmt 1
	.loc 2 463 32 is_stmt 0
	addi	s0,s0,-1
.LVL104:
	add	a5,s4,s0
.LBB70:
.LBB71:
	.loc 2 376 21
	li	s2,5304320
	.loc 2 392 24
	li	s0,1028096
.LVL105:
	addi	s6,s0,-1023
	.loc 2 399 24
	addi	s7,s0,-1021
	.loc 2 437 24
	addi	s8,s0,-1015
.LBE71:
.LBE70:
	.loc 2 462 12
	li	s3,221
	.loc 2 463 32
	sw	a5,8(sp)
.LBB79:
.LBB72:
	.loc 2 392 8
	li	s9,6
	.loc 2 385 27
	li	s10,19
	.loc 2 386 26
	addi	s0,s0,-1020
	.loc 2 376 21
	addi	s2,s2,513
	.loc 2 377 135
	li	s11,1
.LVL106:
.L88:
.LBE72:
.LBE79:
	.loc 2 461 38 is_stmt 1 discriminator 1
	.loc 2 461 42 is_stmt 0 discriminator 1
	addi	a4,s4,1
	.loc 2 461 5 discriminator 1
	bgtu	s1,a4,.L98
.L102:
.LBB80:
.LBB73:
	li	a0,0
.LBE73:
.LBE80:
	.loc 2 501 5 is_stmt 1
	.loc 2 501 12 is_stmt 0
	j	.L87
.L98:
	.loc 2 462 9 is_stmt 1
	.loc 2 462 16 is_stmt 0
	lbu	a2,0(s4)
	.loc 2 462 12
	bne	a2,s3,.L89
	.loc 2 462 28 discriminator 1
	lw	a5,8(sp)
	beq	s4,a5,.L102
	.loc 2 463 37
	lbu	a4,1(s4)
	beq	a4,zero,.L102
.L89:
	.loc 2 467 9 is_stmt 1
	.loc 2 467 26 is_stmt 0
	lbu	a4,1(s4)
	.loc 2 467 21
	addi	a1,a4,2
	add	a1,s4,a1
	.loc 2 467 12
	bltu	s1,a1,.L101
	.loc 2 476 9 is_stmt 1
	.loc 2 476 12 is_stmt 0
	li	a5,48
	bne	a2,a5,.L91
	.loc 2 477 13 is_stmt 1
	.loc 2 477 24 is_stmt 0
	sw	s4,8(s5)
	.loc 2 478 13 is_stmt 1
	.loc 2 478 33 is_stmt 0
	lbu	a4,1(s4)
	.loc 2 478 37
	addi	a4,a4,2
	.loc 2 478 28
	sw	a4,12(s5)
.L92:
	.loc 2 496 13 is_stmt 1 discriminator 2
	.loc 2 496 17 discriminator 2
	.loc 2 496 24 discriminator 2
	.loc 2 461 53 discriminator 2
	.loc 2 461 67 is_stmt 0 discriminator 2
	lbu	a4,1(s4)
	.loc 2 461 62 discriminator 2
	addi	a4,a4,2
	.loc 2 461 57 discriminator 2
	add	s4,s4,a4
.LVL107:
	j	.L88
.L91:
	.loc 2 487 16 is_stmt 1
	.loc 2 487 19 is_stmt 0
	bne	a2,s3,.L92
	.loc 2 488 13 is_stmt 1
.LVL108:
.LBB81:
.LBB74:
	.loc 2 373 5
	.loc 2 373 8 is_stmt 0
	beq	a4,zero,.L102
	.loc 2 376 5 is_stmt 1
	.loc 2 376 8 is_stmt 0
	li	a5,5
	bleu	a4,a5,.L93
	.loc 2 377 9
	addi	a0,s4,2
	sw	a4,12(sp)
	call	WPA_GET_BE32
.LVL109:
	.loc 2 376 21
	lw	a4,12(sp)
	bne	a0,s2,.L93
	.loc 2 377 135
	lbu	a2,6(s4)
	bne	a2,s11,.L93
	.loc 2 378 25
	lbu	a2,7(s4)
	bne	a2,zero,.L93
	.loc 2 380 9 is_stmt 1
	.loc 2 380 20 is_stmt 0
	sw	s4,0(s5)
	.loc 2 381 9 is_stmt 1
	.loc 2 381 29 is_stmt 0
	lbu	a4,1(s4)
	.loc 2 381 33
	addi	a4,a4,2
	.loc 2 381 24
	sw	a4,4(s5)
	.loc 2 382 9 is_stmt 1
.LVL110:
.LBE74:
.LBE81:
	.loc 2 489 13
	.loc 2 491 13
	j	.L92
.LVL111:
.L93:
.LBB82:
.LBB75:
	.loc 2 385 5
	.loc 2 385 17 is_stmt 0
	addi	a2,s4,5
	.loc 2 385 8
	bleu	s1,a2,.L94
	.loc 2 385 27
	bleu	a4,s10,.L94
	.loc 2 387 9
	addi	a0,s4,2
	call	WPA_GET_BE32
.LVL112:
	.loc 2 386 26
	bne	a0,s0,.L95
	.loc 2 388 9 is_stmt 1
	.loc 2 388 29 is_stmt 0
	addi	a4,s4,6
	.loc 2 388 19
	sw	a4,16(s5)
	.loc 2 389 9 is_stmt 1
.LVL113:
.LBE75:
.LBE82:
	.loc 2 489 13
	.loc 2 491 13
	j	.L92
.LVL114:
.L94:
.LBB83:
.LBB76:
	.loc 2 392 5
	.loc 2 392 8 is_stmt 0
	bleu	a4,s9,.L92
.L95:
	.loc 2 393 9
	addi	a0,s4,2
	call	WPA_GET_BE32
.LVL115:
	.loc 2 392 24
	bne	a0,s6,.L96
	.loc 2 394 9 is_stmt 1
	.loc 2 394 27 is_stmt 0
	addi	a4,s4,6
	.loc 2 394 17
	sw	a4,20(s5)
	.loc 2 395 9 is_stmt 1
	.loc 2 395 26 is_stmt 0
	lbu	a4,1(s4)
	.loc 2 395 30
	addi	a4,a4,-4
	.loc 2 395 21
	sw	a4,24(s5)
	.loc 2 396 9 is_stmt 1
.LVL116:
.LBE76:
.LBE83:
	.loc 2 489 13
	.loc 2 491 13
	j	.L92
.LVL117:
.L96:
.LBB84:
.LBB77:
	.loc 2 399 5
	.loc 2 399 24 is_stmt 0
	bne	a0,s7,.L97
	.loc 2 401 9 is_stmt 1
	.loc 2 401 32 is_stmt 0
	addi	a4,s4,6
	.loc 2 401 22
	sw	a4,28(s5)
	.loc 2 402 9 is_stmt 1
	.loc 2 402 31 is_stmt 0
	lbu	a4,1(s4)
	.loc 2 402 35
	addi	a4,a4,-4
	.loc 2 402 26
	sw	a4,32(s5)
	.loc 2 403 9 is_stmt 1
.LVL118:
.LBE77:
.LBE84:
	.loc 2 489 13
	.loc 2 491 13
	j	.L92
.LVL119:
.L97:
.LBB85:
.LBB78:
	.loc 2 437 5
	.loc 2 437 24 is_stmt 0
	bne	a0,s8,.L92
	.loc 2 439 9 is_stmt 1
	.loc 2 439 28 is_stmt 0
	addi	a4,s4,6
	.loc 2 439 18
	sw	a4,36(s5)
	.loc 2 440 9 is_stmt 1
	.loc 2 440 27 is_stmt 0
	lbu	a4,1(s4)
	.loc 2 440 31
	addi	a4,a4,-4
	.loc 2 440 22
	sw	a4,40(s5)
	.loc 2 441 9 is_stmt 1
.LVL120:
.LBE78:
.LBE85:
	.loc 2 489 13
	.loc 2 491 13
	j	.L92
.L101:
	.loc 2 473 17 is_stmt 0
	li	a0,-1
.L87:
	.loc 2 502 1
	lw	ra,76(sp)
	.cfi_restore 1
	lw	s0,72(sp)
	.cfi_restore 8
	lw	s1,68(sp)
	.cfi_restore 9
.LVL121:
	lw	s2,64(sp)
	.cfi_restore 18
	lw	s3,60(sp)
	.cfi_restore 19
	lw	s4,56(sp)
	.cfi_restore 20
.LVL122:
	lw	s5,52(sp)
	.cfi_restore 21
.LVL123:
	lw	s6,48(sp)
	.cfi_restore 22
	lw	s7,44(sp)
	.cfi_restore 23
	lw	s8,40(sp)
	.cfi_restore 24
	lw	s9,36(sp)
	.cfi_restore 25
	lw	s10,32(sp)
	.cfi_restore 26
	lw	s11,28(sp)
	.cfi_restore 27
	addi	sp,sp,80
	.cfi_def_cfa_offset 0
	jr	ra
	.cfi_endproc
.LFE86:
	.size	wpa_parse_kde_ies, .-wpa_parse_kde_ies
	.section	.text.wpa_eapol_key_mic,"ax",@progbits
	.align	1
	.globl	wpa_eapol_key_mic
	.type	wpa_eapol_key_mic, @function
wpa_eapol_key_mic:
.LFB87:
	.loc 2 524 1 is_stmt 1
	.cfi_startproc
.LVL124:
	.loc 2 525 2
	.loc 2 527 2
	.loc 2 524 1 is_stmt 0
	addi	sp,sp,-48
	.cfi_def_cfa_offset 48
	sw	s1,36(sp)
	sw	ra,44(sp)
	sw	s0,40(sp)
	.cfi_offset 9, -12
	.cfi_offset 1, -4
	.cfi_offset 8, -8
	.loc 2 527 2
	li	t1,2
	.loc 2 524 1
	mv	a5,a1
	mv	s1,a4
	.loc 2 527 2
	beq	a1,t1,.L105
	mv	a6,a0
	mv	a1,a2
.LVL125:
	mv	a7,a3
	bgt	a5,t1,.L106
	beq	a5,zero,.L107
	li	a1,1
	beq	a5,a1,.L108
.LVL126:
.L110:
	.loc 2 532 11
	li	s0,-1
	j	.L104
.LVL127:
.L106:
	.loc 2 527 2
	li	a4,3
	bne	a5,a4,.L110
.L107:
	.loc 2 540 3 is_stmt 1
	.loc 2 547 1 is_stmt 0
	lw	s0,40(sp)
	.cfi_remember_state
	.cfi_restore 8
	lw	ra,44(sp)
	.cfi_restore 1
	.loc 2 540 10
	mv	a3,s1
.LVL128:
	.loc 2 547 1
	lw	s1,36(sp)
	.cfi_restore 9
.LVL129:
	.loc 2 540 10
	mv	a2,a7
	.loc 2 547 1
	.loc 2 540 10
	mv	a0,a6
.LVL130:
	.loc 2 547 1
	addi	sp,sp,48
	.cfi_def_cfa_offset 0
	.loc 2 540 10
	tail	omac1_aes_128
.LVL131:
.L108:
	.cfi_restore_state
	.loc 2 529 7 is_stmt 1
	.loc 2 547 1 is_stmt 0
	lw	s0,40(sp)
	.cfi_remember_state
	.cfi_restore 8
	lw	ra,44(sp)
	.cfi_restore 1
	lw	s1,36(sp)
	.cfi_restore 9
.LVL132:
	.loc 2 529 14
	li	a1,16
	.loc 2 547 1
	addi	sp,sp,48
	.cfi_def_cfa_offset 0
	.loc 2 529 14
	tail	hmac_md5
.LVL133:
.L105:
	.cfi_restore_state
	.loc 2 531 3 is_stmt 1
	.loc 2 531 7 is_stmt 0
	addi	a4,sp,12
	li	a1,16
.LVL134:
	call	hmac_sha1
.LVL135:
	mv	s0,a0
	.loc 2 531 6
	bne	a0,zero,.L110
	.loc 2 533 3 is_stmt 1
	li	a2,16
	addi	a1,sp,12
	mv	a0,s1
	call	memcpy
.LVL136:
	.loc 2 534 3
	.loc 2 546 2
.L104:
	.loc 2 547 1 is_stmt 0
	lw	ra,44(sp)
	.cfi_restore 1
	mv	a0,s0
	lw	s0,40(sp)
	.cfi_restore 8
	lw	s1,36(sp)
	.cfi_restore 9
.LVL137:
	addi	sp,sp,48
	.cfi_def_cfa_offset 0
	jr	ra
	.cfi_endproc
.LFE87:
	.size	wpa_eapol_key_mic, .-wpa_eapol_key_mic
	.section	.text.wpa_compare_rsn_ie,"ax",@progbits
	.align	1
	.globl	wpa_compare_rsn_ie
	.type	wpa_compare_rsn_ie, @function
wpa_compare_rsn_ie:
.LFB88:
	.loc 2 552 1 is_stmt 1
	.cfi_startproc
.LVL138:
	.loc 2 553 2
	.loc 2 552 1 is_stmt 0
	mv	a0,a1
.LVL139:
	.loc 2 554 10
	li	a5,-1
	.loc 2 553 5
	beq	a1,zero,.L121
	mv	a1,a3
.LVL140:
	.loc 2 553 17 discriminator 1
	beq	a3,zero,.L121
	.loc 2 556 2 is_stmt 1
	.loc 2 556 5 is_stmt 0
	bne	a2,a4,.L121
	.loc 2 552 1 discriminator 1
	addi	sp,sp,-16
	.cfi_def_cfa_offset 16
	sw	ra,12(sp)
	.cfi_offset 1, -4
	.loc 2 556 26 discriminator 1
	call	memcmp
.LVL141:
	.loc 2 583 1 discriminator 1
	lw	ra,12(sp)
	.cfi_restore 1
	.loc 2 556 23 discriminator 1
	snez	a5,a0
	neg	a5,a5
	.loc 2 583 1 discriminator 1
	mv	a0,a5
	addi	sp,sp,16
	.cfi_def_cfa_offset 0
	jr	ra
.LVL142:
.L121:
	.loc 2 583 1
	mv	a0,a5
.LVL143:
	ret
	.cfi_endproc
.LFE88:
	.size	wpa_compare_rsn_ie, .-wpa_compare_rsn_ie
	.section	.text.wpa_pmk_to_ptk,"ax",@progbits
	.align	1
	.globl	wpa_pmk_to_ptk
	.type	wpa_pmk_to_ptk, @function
wpa_pmk_to_ptk:
.LFB89:
	.loc 2 638 1 is_stmt 1
	.cfi_startproc
.LVL144:
	.loc 2 639 2
	.loc 2 641 2
	.loc 2 638 1 is_stmt 0
	addi	sp,sp,-128
	.cfi_def_cfa_offset 128
	sw	s4,104(sp)
	sw	s5,100(sp)
	sw	s6,96(sp)
	.cfi_offset 20, -24
	.cfi_offset 21, -28
	.cfi_offset 22, -32
	mv	s4,a0
	mv	s5,a1
	mv	s6,a2
	.loc 2 641 6
	mv	a1,a4
.LVL145:
	li	a2,6
.LVL146:
	mv	a0,a3
.LVL147:
	.loc 2 638 1
	sw	s0,120(sp)
	sw	s1,116(sp)
	sw	s2,112(sp)
	sw	s3,108(sp)
	sw	s7,92(sp)
	sw	ra,124(sp)
	.cfi_offset 8, -8
	.cfi_offset 9, -12
	.cfi_offset 18, -16
	.cfi_offset 19, -20
	.cfi_offset 23, -36
	.cfi_offset 1, -4
	.loc 2 638 1
	mv	s2,a3
	mv	s3,a4
	mv	s0,a5
	mv	s1,a6
	mv	s7,a7
	.loc 2 641 6
	call	memcmp
.LVL148:
	.loc 2 642 3
	li	a2,6
	.loc 2 641 5
	bge	a0,zero,.L125
	.loc 2 642 3 is_stmt 1
	mv	a1,s2
	addi	a0,sp,4
	call	memcpy
.LVL149:
	.loc 2 643 3
	li	a2,6
	mv	a1,s3
.L132:
	.loc 2 646 3 is_stmt 0
	addi	a0,sp,10
	call	memcpy
.LVL150:
	.loc 2 649 2 is_stmt 1
	.loc 2 649 6 is_stmt 0
	li	a2,32
	mv	a1,s1
	mv	a0,s0
	call	memcmp
.LVL151:
	.loc 2 650 3
	li	a2,32
	.loc 2 649 5
	bge	a0,zero,.L127
	.loc 2 650 3 is_stmt 1
	mv	a1,s0
	addi	a0,sp,16
	call	memcpy
.LVL152:
	.loc 2 651 3
	li	a2,32
	mv	a1,s1
.L133:
	.loc 2 655 3 is_stmt 0
	addi	a0,sp,48
	call	memcpy
.LVL153:
	.loc 2 659 2 is_stmt 1
	.loc 2 659 5 is_stmt 0
	lw	a5,132(sp)
	.loc 2 660 3
	lw	a6,128(sp)
	.loc 2 659 5
	beq	a5,zero,.L129
	.loc 2 660 3 is_stmt 1
	mv	a5,s7
	li	a4,76
	addi	a3,sp,4
	mv	a2,s6
	mv	a1,s5
	mv	a0,s4
	call	sha256_prf
.LVL154:
.L124:
	.loc 2 672 1 is_stmt 0
	lw	ra,124(sp)
	.cfi_remember_state
	.cfi_restore 1
	lw	s0,120(sp)
	.cfi_restore 8
.LVL155:
	lw	s1,116(sp)
	.cfi_restore 9
.LVL156:
	lw	s2,112(sp)
	.cfi_restore 18
.LVL157:
	lw	s3,108(sp)
	.cfi_restore 19
.LVL158:
	lw	s4,104(sp)
	.cfi_restore 20
.LVL159:
	lw	s5,100(sp)
	.cfi_restore 21
.LVL160:
	lw	s6,96(sp)
	.cfi_restore 22
.LVL161:
	lw	s7,92(sp)
	.cfi_restore 23
.LVL162:
	addi	sp,sp,128
	.cfi_def_cfa_offset 0
.LVL163:
	jr	ra
.LVL164:
.L125:
	.cfi_restore_state
	.loc 2 645 3 is_stmt 1
	mv	a1,s3
	addi	a0,sp,4
	call	memcpy
.LVL165:
	.loc 2 646 3
	li	a2,6
	mv	a1,s2
	j	.L132
.L127:
	.loc 2 654 3
	mv	a1,s1
	addi	a0,sp,16
	call	memcpy
.LVL166:
	.loc 2 655 3
	li	a2,32
	mv	a1,s0
	j	.L133
.L129:
	.loc 2 665 6
	mv	a5,s7
	li	a4,76
	addi	a3,sp,4
	mv	a2,s6
	mv	a1,s5
	mv	a0,s4
	call	sha1_prf
.LVL167:
	.loc 2 667 2
	.loc 2 667 6
	.loc 2 667 13
	.loc 2 670 2
	.loc 2 670 6
	.loc 2 670 13
	.loc 2 671 2
	.loc 2 671 6
	.loc 2 671 13
	.loc 2 672 1 is_stmt 0
	j	.L124
	.cfi_endproc
.LFE89:
	.size	wpa_pmk_to_ptk, .-wpa_pmk_to_ptk
	.section	.rodata.rsn_pmkid.str1.4,"aMS",@progbits,1
	.align	2
.LC1:
	.string	"PMK Name"
	.section	.text.rsn_pmkid,"ax",@progbits
	.align	1
	.globl	rsn_pmkid
	.type	rsn_pmkid, @function
rsn_pmkid:
.LFB90:
	.loc 2 688 1 is_stmt 1
	.cfi_startproc
.LVL168:
	.loc 2 689 2
	.loc 2 690 2
	.loc 2 691 2
	.loc 2 688 1 is_stmt 0
	addi	sp,sp,-112
	.cfi_def_cfa_offset 112
	sw	s1,100(sp)
	.cfi_offset 9, -12
	mv	s1,a1
	.loc 2 691 15
	lui	a1,%hi(.LANCHOR0)
.LVL169:
	.loc 2 688 1
	sw	s0,104(sp)
	sw	s5,84(sp)
	.cfi_offset 8, -8
	.cfi_offset 21, -28
	mv	s0,a0
	mv	s5,a2
	.loc 2 691 15
	addi	a1,a1,%lo(.LANCHOR0)
	li	a2,12
.LVL170:
	addi	a0,sp,36
.LVL171:
	.loc 2 688 1
	sw	ra,108(sp)
	sw	s2,96(sp)
	sw	s3,92(sp)
	.cfi_offset 1, -4
	.cfi_offset 18, -16
	.cfi_offset 19, -20
	mv	s2,a4
	mv	s3,a5
	sw	s4,88(sp)
	sw	s6,80(sp)
	.cfi_offset 20, -24
	.cfi_offset 22, -32
	.loc 2 688 1
	mv	s4,a3
	.loc 2 691 15
	call	memcpy
.LVL172:
	.loc 2 692 2 is_stmt 1
	.loc 2 694 5
	addi	s6,sp,12
	lui	a1,%hi(.LC1)
	li	a2,9
	addi	a1,a1,%lo(.LC1)
	mv	a0,s6
	call	memcpy
.LVL173:
	.loc 2 695 2
	.loc 2 695 10 is_stmt 0
	sw	s6,24(sp)
	.loc 2 696 2 is_stmt 1
	.loc 2 696 10 is_stmt 0
	sw	s5,28(sp)
	.loc 2 697 2 is_stmt 1
	.loc 2 697 10 is_stmt 0
	sw	s4,32(sp)
	.loc 2 700 2 is_stmt 1
	.loc 2 701 3 is_stmt 0
	addi	a5,sp,48
	addi	a4,sp,36
	addi	a3,sp,24
	li	a2,3
	mv	a1,s1
	mv	a0,s0
	.loc 2 700 5
	beq	s3,zero,.L135
	.loc 2 701 3 is_stmt 1
	call	hmac_sha256_vector
.LVL174:
.L136:
	.loc 2 706 2
	addi	a1,sp,48
	mv	a0,s2
	li	a2,16
	call	memcpy
.LVL175:
	.loc 2 707 1 is_stmt 0
	lw	ra,108(sp)
	.cfi_remember_state
	.cfi_restore 1
	lw	s0,104(sp)
	.cfi_restore 8
.LVL176:
	lw	s1,100(sp)
	.cfi_restore 9
.LVL177:
	lw	s2,96(sp)
	.cfi_restore 18
.LVL178:
	lw	s3,92(sp)
	.cfi_restore 19
.LVL179:
	lw	s4,88(sp)
	.cfi_restore 20
.LVL180:
	lw	s5,84(sp)
	.cfi_restore 21
.LVL181:
	lw	s6,80(sp)
	.cfi_restore 22
	addi	sp,sp,112
	.cfi_def_cfa_offset 0
	jr	ra
.LVL182:
.L135:
	.cfi_restore_state
	.loc 2 705 2 is_stmt 1
	call	hmac_sha1_vector
.LVL183:
	j	.L136
	.cfi_endproc
.LFE90:
	.size	rsn_pmkid, .-rsn_pmkid
	.section	.text.wpa_cipher_key_len,"ax",@progbits
	.align	1
	.globl	wpa_cipher_key_len
	.type	wpa_cipher_key_len, @function
wpa_cipher_key_len:
.LFB91:
	.loc 2 710 1
	.cfi_startproc
.LVL184:
	.loc 2 711 2
	li	a4,128
	.loc 2 710 1 is_stmt 0
	mv	a5,a0
	.loc 2 711 2
	beq	a0,a4,.L141
	bgt	a0,a4,.L140
	li	a4,8
	.loc 2 714 10
	li	a0,16
.LVL185:
	.loc 2 711 2
	beq	a5,a4,.L138
	li	a4,64
	beq	a5,a4,.L138
	li	a4,2
	.loc 2 723 9
	li	a0,0
	.loc 2 711 2
	bne	a5,a4,.L138
	li	a0,32
	ret
.LVL186:
.L140:
	li	a4,256
	.loc 2 723 9
	li	a0,0
.LVL187:
	.loc 2 711 2
	bne	a5,a4,.L138
	.loc 2 718 10
	li	a0,13
	ret
.LVL188:
.L141:
	.loc 2 720 10
	li	a0,5
.LVL189:
.L138:
	.loc 2 724 1
	ret
	.cfi_endproc
.LFE91:
	.size	wpa_cipher_key_len, .-wpa_cipher_key_len
	.section	.text.wpa_cipher_to_alg,"ax",@progbits
	.align	1
	.globl	wpa_cipher_to_alg
	.type	wpa_cipher_to_alg, @function
wpa_cipher_to_alg:
.LFB92:
	.loc 2 727 1 is_stmt 1
	.cfi_startproc
.LVL190:
	.loc 2 728 2
	li	a5,64
	beq	a0,a5,.L149
	bgt	a0,a5,.L148
	li	a5,2
	beq	a0,a5,.L147
	li	a5,8
	bne	a0,a5,.L150
	.loc 2 730 10 is_stmt 0
	li	a0,3
.LVL191:
	ret
.LVL192:
.L148:
	.loc 2 728 2
	addi	a0,a0,-128
.LVL193:
	andi	a5,a0,-129
	.loc 2 739 9
	li	a0,0
.LVL194:
	.loc 2 728 2
	bne	a5,zero,.L147
	.loc 2 737 10
	li	a0,6
	ret
.LVL195:
.L149:
	.loc 2 728 2
	li	a0,9
.LVL196:
	ret
.LVL197:
.L150:
	.loc 2 739 9
	li	a0,0
.LVL198:
.L147:
	.loc 2 740 1
	ret
	.cfi_endproc
.LFE92:
	.size	wpa_cipher_to_alg, .-wpa_cipher_to_alg
	.section	.text.wpa_cipher_to_suite,"ax",@progbits
	.align	1
	.globl	wpa_cipher_to_suite
	.type	wpa_cipher_to_suite, @function
wpa_cipher_to_suite:
.LFB93:
	.loc 2 743 1 is_stmt 1
	.cfi_startproc
.LVL199:
	.loc 2 744 2
	.loc 2 744 13 is_stmt 0
	andi	a4,a1,8
	.loc 2 743 1
	mv	a5,a0
	.loc 2 744 5
	beq	a4,zero,.L153
	.loc 2 745 3 is_stmt 1
	.loc 2 746 90 is_stmt 0
	li	a4,2
	beq	a0,a4,.L158
	li	a0,5304320
.LVL200:
	addi	a0,a0,516
	ret
.LVL201:
.L153:
	.loc 2 747 2 is_stmt 1
	.loc 2 747 13 is_stmt 0
	andi	a4,a1,64
	.loc 2 747 5
	bne	a4,zero,.L159
	.loc 2 749 2 is_stmt 1
	.loc 2 749 13 is_stmt 0
	andi	a4,a1,2
	.loc 2 749 5
	beq	a4,zero,.L155
	.loc 2 750 3 is_stmt 1
	.loc 2 751 90 is_stmt 0
	li	a4,2
	beq	a0,a4,.L160
	li	a0,5304320
.LVL202:
	addi	a0,a0,514
	ret
.LVL203:
.L155:
	.loc 2 752 2 is_stmt 1
	.loc 2 752 13 is_stmt 0
	andi	a4,a1,256
	.loc 2 752 5
	beq	a4,zero,.L156
	.loc 2 753 3 is_stmt 1
	.loc 2 754 90 is_stmt 0
	li	a4,2
	beq	a0,a4,.L161
	li	a0,5304320
.LVL204:
	addi	a0,a0,517
	ret
.LVL205:
.L156:
	.loc 2 755 2 is_stmt 1
	.loc 2 755 13 is_stmt 0
	andi	a4,a1,128
	.loc 2 755 5
	beq	a4,zero,.L157
	.loc 2 756 3 is_stmt 1
	.loc 2 757 90 is_stmt 0
	li	a4,2
	beq	a0,a4,.L162
	li	a0,5304320
.LVL206:
	addi	a0,a0,513
	ret
.LVL207:
.L157:
	.loc 2 758 2 is_stmt 1
	.loc 2 758 13 is_stmt 0
	andi	a0,a1,1
.LVL208:
	.loc 2 758 5
	beq	a0,zero,.L152
	.loc 2 759 3 is_stmt 1
	.loc 2 760 90 is_stmt 0
	li	a4,2
	beq	a5,a4,.L163
	li	a0,5304320
	addi	a0,a0,512
	ret
.LVL209:
.L158:
	.loc 2 746 90
	li	a0,1028096
.LVL210:
	addi	a0,a0,-1020
	ret
.LVL211:
.L159:
	.loc 2 748 10
	li	a0,1028096
.LVL212:
	addi	a0,a0,-1016
	ret
.LVL213:
.L160:
	.loc 2 751 90
	li	a0,1028096
.LVL214:
	addi	a0,a0,-1022
	ret
.LVL215:
.L161:
	.loc 2 754 90
	li	a0,1028096
.LVL216:
	addi	a0,a0,-1019
	ret
.LVL217:
.L162:
	.loc 2 757 90
	li	a0,1028096
.LVL218:
	addi	a0,a0,-1023
	ret
.L163:
	.loc 2 760 90
	li	a0,1028096
	addi	a0,a0,-1024
.L152:
	.loc 2 762 1
	ret
	.cfi_endproc
.LFE93:
	.size	wpa_cipher_to_suite, .-wpa_cipher_to_suite
	.section	.text.rsn_cipher_put_suites,"ax",@progbits
	.align	1
	.globl	rsn_cipher_put_suites
	.type	rsn_cipher_put_suites, @function
rsn_cipher_put_suites:
.LFB94:
	.loc 2 765 1 is_stmt 1
	.cfi_startproc
.LVL219:
	.loc 2 766 2
	.loc 2 768 2
	.loc 2 768 14 is_stmt 0
	andi	a4,a1,8
	.loc 2 765 1
	mv	a5,a0
	.loc 2 766 6
	li	a0,0
.LVL220:
	.loc 2 768 5
	beq	a4,zero,.L168
	.loc 2 769 3 is_stmt 1
.LVL221:
.LBB86:
.LBB87:
	.loc 1 166 2
	.loc 1 167 7 is_stmt 0
	li	a4,15
	sb	a4,1(a5)
	.loc 1 168 7
	li	a4,-84
	sb	a4,2(a5)
	.loc 1 169 7
	li	a4,4
	.loc 1 166 7
	sb	zero,0(a5)
	.loc 1 167 2 is_stmt 1
	.loc 1 168 2
	.loc 1 169 2
	.loc 1 169 7 is_stmt 0
	sb	a4,3(a5)
.LVL222:
.LBE87:
.LBE86:
	.loc 2 770 3 is_stmt 1
	.loc 2 771 13 is_stmt 0
	li	a0,1
	.loc 2 770 7
	addi	a5,a5,4
.LVL223:
	.loc 2 771 3 is_stmt 1
.L168:
	.loc 2 773 2
	.loc 2 773 14 is_stmt 0
	andi	a4,a1,64
	.loc 2 773 5
	beq	a4,zero,.L169
	.loc 2 774 3 is_stmt 1
.LVL224:
.LBB88:
.LBB89:
	.loc 1 166 2
	.loc 1 167 7 is_stmt 0
	li	a4,15
	sb	a4,1(a5)
	.loc 1 168 7
	li	a4,-84
	sb	a4,2(a5)
	.loc 1 169 7
	li	a4,8
	.loc 1 166 7
	sb	zero,0(a5)
	.loc 1 167 2 is_stmt 1
	.loc 1 168 2
	.loc 1 169 2
	.loc 1 169 7 is_stmt 0
	sb	a4,3(a5)
.LVL225:
.LBE89:
.LBE88:
	.loc 2 775 3 is_stmt 1
	.loc 2 776 13 is_stmt 0
	addi	a0,a0,1
.LVL226:
	.loc 2 775 7
	addi	a5,a5,4
.LVL227:
	.loc 2 776 3 is_stmt 1
.L169:
	.loc 2 778 2
	.loc 2 778 14 is_stmt 0
	andi	a4,a1,2
	.loc 2 778 5
	beq	a4,zero,.L170
	.loc 2 779 3 is_stmt 1
.LVL228:
.LBB90:
.LBB91:
	.loc 1 166 2
	.loc 1 167 7 is_stmt 0
	li	a4,15
	sb	a4,1(a5)
	.loc 1 168 7
	li	a4,-84
	sb	a4,2(a5)
	.loc 1 169 7
	li	a4,2
	.loc 1 166 7
	sb	zero,0(a5)
	.loc 1 167 2 is_stmt 1
	.loc 1 168 2
	.loc 1 169 2
	.loc 1 169 7 is_stmt 0
	sb	a4,3(a5)
.LVL229:
.LBE91:
.LBE90:
	.loc 2 780 3 is_stmt 1
	.loc 2 781 13 is_stmt 0
	addi	a0,a0,1
.LVL230:
	.loc 2 780 7
	addi	a5,a5,4
.LVL231:
	.loc 2 781 3 is_stmt 1
.L170:
	.loc 2 783 2
	.loc 2 783 14 is_stmt 0
	andi	a1,a1,1
.LVL232:
	.loc 2 783 5
	beq	a1,zero,.L167
	.loc 2 784 3 is_stmt 1
.LVL233:
.LBB92:
.LBB93:
	.loc 1 166 2
	.loc 1 167 7 is_stmt 0
	li	a4,15
	sb	a4,1(a5)
	.loc 1 168 7
	li	a4,-84
	.loc 1 166 7
	sb	zero,0(a5)
	.loc 1 167 2 is_stmt 1
	.loc 1 168 2
	.loc 1 168 7 is_stmt 0
	sb	a4,2(a5)
	.loc 1 169 2 is_stmt 1
	.loc 1 169 7 is_stmt 0
	sb	zero,3(a5)
.LVL234:
.LBE93:
.LBE92:
	.loc 2 785 3 is_stmt 1
	.loc 2 786 3
	.loc 2 786 13 is_stmt 0
	addi	a0,a0,1
.LVL235:
	.loc 2 789 2 is_stmt 1
.L167:
	.loc 2 790 1 is_stmt 0
	ret
	.cfi_endproc
.LFE94:
	.size	rsn_cipher_put_suites, .-rsn_cipher_put_suites
	.section	.text.wpa_cipher_put_suites,"ax",@progbits
	.align	1
	.globl	wpa_cipher_put_suites
	.type	wpa_cipher_put_suites, @function
wpa_cipher_put_suites:
.LFB95:
	.loc 2 793 1 is_stmt 1
	.cfi_startproc
.LVL236:
	.loc 2 794 2
	.loc 2 796 2
	.loc 2 796 14 is_stmt 0
	andi	a4,a1,8
	.loc 2 793 1
	mv	a5,a0
	.loc 2 794 6
	li	a0,0
.LVL237:
	.loc 2 796 5
	beq	a4,zero,.L184
	.loc 2 797 3 is_stmt 1
.LVL238:
.LBB94:
.LBB95:
	.loc 1 166 2
	.loc 1 167 7 is_stmt 0
	li	a4,80
	sb	a4,1(a5)
	.loc 1 168 7
	li	a4,-14
	sb	a4,2(a5)
	.loc 1 169 7
	li	a4,4
	.loc 1 166 7
	sb	zero,0(a5)
	.loc 1 167 2 is_stmt 1
	.loc 1 168 2
	.loc 1 169 2
	.loc 1 169 7 is_stmt 0
	sb	a4,3(a5)
.LVL239:
.LBE95:
.LBE94:
	.loc 2 798 3 is_stmt 1
	.loc 2 799 13 is_stmt 0
	li	a0,1
	.loc 2 798 7
	addi	a5,a5,4
.LVL240:
	.loc 2 799 3 is_stmt 1
.L184:
	.loc 2 801 2
	.loc 2 801 14 is_stmt 0
	andi	a4,a1,2
	.loc 2 801 5
	beq	a4,zero,.L185
	.loc 2 802 3 is_stmt 1
.LVL241:
.LBB96:
.LBB97:
	.loc 1 166 2
	.loc 1 167 7 is_stmt 0
	li	a4,80
	sb	a4,1(a5)
	.loc 1 168 7
	li	a4,-14
	sb	a4,2(a5)
	.loc 1 169 7
	li	a4,2
	.loc 1 166 7
	sb	zero,0(a5)
	.loc 1 167 2 is_stmt 1
	.loc 1 168 2
	.loc 1 169 2
	.loc 1 169 7 is_stmt 0
	sb	a4,3(a5)
.LVL242:
.LBE97:
.LBE96:
	.loc 2 803 3 is_stmt 1
	.loc 2 804 13 is_stmt 0
	addi	a0,a0,1
.LVL243:
	.loc 2 803 7
	addi	a5,a5,4
.LVL244:
	.loc 2 804 3 is_stmt 1
.L185:
	.loc 2 806 2
	.loc 2 806 14 is_stmt 0
	andi	a1,a1,1
.LVL245:
	.loc 2 806 5
	beq	a1,zero,.L183
	.loc 2 807 3 is_stmt 1
.LVL246:
.LBB98:
.LBB99:
	.loc 1 166 2
	.loc 1 167 7 is_stmt 0
	li	a4,80
	sb	a4,1(a5)
	.loc 1 168 7
	li	a4,-14
	.loc 1 166 7
	sb	zero,0(a5)
	.loc 1 167 2 is_stmt 1
	.loc 1 168 2
	.loc 1 168 7 is_stmt 0
	sb	a4,2(a5)
	.loc 1 169 2 is_stmt 1
	.loc 1 169 7 is_stmt 0
	sb	zero,3(a5)
.LVL247:
.LBE99:
.LBE98:
	.loc 2 808 3 is_stmt 1
	.loc 2 809 3
	.loc 2 809 13 is_stmt 0
	addi	a0,a0,1
.LVL248:
	.loc 2 812 2 is_stmt 1
.L183:
	.loc 2 813 1 is_stmt 0
	ret
	.cfi_endproc
.LFE95:
	.size	wpa_cipher_put_suites, .-wpa_cipher_put_suites
	.section	.rodata
	.align	2
	.set	.LANCHOR0,. + 0
.LC0:
	.word	8
	.word	6
	.word	6
	.text
.Letext0:
	.file 3 "/mnt/d/GitHub/bl_iot_sdk_for_aithinker/toolchain/riscv/Linux/lib/gcc/riscv64-unknown-elf/10.2.0/include/stddef.h"
	.file 4 "/mnt/d/GitHub/bl_iot_sdk_for_aithinker/toolchain/riscv/Linux/riscv64-unknown-elf/include/machine/_default_types.h"
	.file 5 "/mnt/d/GitHub/bl_iot_sdk_for_aithinker/toolchain/riscv/Linux/riscv64-unknown-elf/include/sys/_stdint.h"
	.file 6 "/mnt/d/GitHub/bl_iot_sdk_for_aithinker/components/security/wpa_supplicant/src/common/wpa_common.h"
	.file 7 "/mnt/d/GitHub/bl_iot_sdk_for_aithinker/toolchain/riscv/Linux/riscv64-unknown-elf/include/string.h"
	.file 8 "/mnt/d/GitHub/bl_iot_sdk_for_aithinker/components/security/wpa_supplicant/src/crypto/sha256.h"
	.file 9 "/mnt/d/GitHub/bl_iot_sdk_for_aithinker/components/security/wpa_supplicant/src/crypto/sha1.h"
	.file 10 "/mnt/d/GitHub/bl_iot_sdk_for_aithinker/components/security/wpa_supplicant/src/crypto/aes.h"
	.file 11 "/mnt/d/GitHub/bl_iot_sdk_for_aithinker/components/security/wpa_supplicant/src/crypto/md5.h"
	.file 12 "/mnt/d/GitHub/bl_iot_sdk_for_aithinker/components/network/wifi/include/supplicant_api.h"
	.file 13 "<built-in>"