	.file	"common.c"
	.option nopic
	.attribute arch, "rv32i2p0_m2p0_f2p0_c2p0"
	.attribute unaligned_access, 0
	.attribute stack_align, 16
	.text
.Ltext0:
	.cfi_sections	.debug_frame
	.section	.text.hex2num,"ax",@progbits
	.align	1
	.type	hex2num, @function
hex2num:
.LFB70:
	.file 1 "/mnt/d/GitHub/bl_iot_sdk_for_aithinker/components/security/wpa_supplicant/src/utils/common.c"
	.loc 1 35 1
	.cfi_startproc
.LVL0:
	.loc 1 36 2
	.loc 1 35 1 is_stmt 0
	mv	a5,a0
	.loc 1 36 15
	addi	a0,a0,-48
.LVL1:
	.loc 1 36 5
	andi	a3,a0,0xff
	li	a4,9
	bleu	a3,a4,.L1
	.loc 1 38 2 is_stmt 1
	.loc 1 38 15 is_stmt 0
	addi	a4,a5,-97
	.loc 1 38 5
	andi	a4,a4,0xff
	li	a3,5
	bgtu	a4,a3,.L4
	.loc 1 39 3 is_stmt 1
	.loc 1 39 18 is_stmt 0
	addi	a0,a5,-87
	ret
.L4:
.LVL2:
.LBB4:
.LBB5:
	.loc 1 40 2 is_stmt 1
	.loc 1 40 15 is_stmt 0
	addi	a4,a5,-65
	.loc 1 40 5
	andi	a4,a4,0xff
	.loc 1 42 9
	li	a0,-1
	.loc 1 40 5
	bgtu	a4,a3,.L1
	.loc 1 41 3 is_stmt 1
	.loc 1 41 18 is_stmt 0
	addi	a0,a5,-55
.LVL3:
.L1:
.LBE5:
.LBE4:
	.loc 1 43 1
	ret
	.cfi_endproc
.LFE70:
	.size	hex2num, .-hex2num
	.section	.text.inc_byte_array,"ax",@progbits
	.align	1
	.globl	inc_byte_array
	.type	inc_byte_array, @function
inc_byte_array:
.LFB69:
	.loc 1 24 1 is_stmt 1
	.cfi_startproc
.LVL4:
.L11:
	.loc 1 30 3
	.loc 1 30 6 is_stmt 0
	addi	a1,a1,-1
.LVL5:
	.loc 1 26 8 is_stmt 1
	blt	a1,zero,.L6
	.loc 1 27 3
	add	a4,a0,a1
	.loc 1 27 15 is_stmt 0
	lbu	a5,0(a4)
	addi	a5,a5,1
	andi	a5,a5,0xff
	sb	a5,0(a4)
	.loc 1 28 3 is_stmt 1
	.loc 1 28 6 is_stmt 0
	beq	a5,zero,.L11
.L6:
	.loc 1 32 1
	ret
	.cfi_endproc
.LFE69:
	.size	inc_byte_array, .-inc_byte_array
	.section	.text.hex2byte,"ax",@progbits
	.align	1
	.globl	hex2byte
	.type	hex2byte, @function
hex2byte:
.LFB71:
	.loc 1 47 1 is_stmt 1
	.cfi_startproc
.LVL6:
	.loc 1 48 2
	.loc 1 49 2
	.loc 1 47 1 is_stmt 0
	addi	sp,sp,-16
	.cfi_def_cfa_offset 16
	sw	s1,4(sp)
	sw	ra,12(sp)
	sw	s0,8(sp)
	.cfi_offset 9, -12
	.cfi_offset 1, -4
	.cfi_offset 8, -8
	.loc 1 47 1
	mv	s1,a0
	.loc 1 49 6
	lbu	a0,0(a0)
.LVL7:
	call	hex2num
.LVL8:
	.loc 1 50 2 is_stmt 1
	.loc 1 50 5 is_stmt 0
	blt	a0,zero,.L14
	mv	s0,a0
	.loc 1 52 2 is_stmt 1
.LVL9:
	.loc 1 52 6 is_stmt 0
	lbu	a0,1(s1)
.LVL10:
	call	hex2num
.LVL11:
	mv	a5,a0
.LVL12:
	.loc 1 53 2 is_stmt 1
	.loc 1 51 10 is_stmt 0
	li	a0,-1
.LVL13:
	.loc 1 53 5
	blt	a5,zero,.L12
	.loc 1 55 2 is_stmt 1
	.loc 1 55 12 is_stmt 0
	slli	s0,s0,4
.LVL14:
	.loc 1 55 18
	or	a0,s0,a5
.LVL15:
.L12:
	.loc 1 56 1
	lw	ra,12(sp)
	.cfi_remember_state
	.cfi_restore 1
	lw	s0,8(sp)
	.cfi_restore 8
	lw	s1,4(sp)
	.cfi_restore 9
	addi	sp,sp,16
	.cfi_def_cfa_offset 0
	jr	ra
.LVL16:
.L14:
	.cfi_restore_state
	.loc 1 51 10
	li	a0,-1
.LVL17:
	j	.L12
	.cfi_endproc
.LFE71:
	.size	hex2byte, .-hex2byte
	.section	.text.hexstr2bin,"ax",@progbits
	.align	1
	.globl	hexstr2bin
	.type	hexstr2bin, @function
hexstr2bin:
.LFB72:
	.loc 1 68 1 is_stmt 1
	.cfi_startproc
.LVL18:
	.loc 1 69 2
	.loc 1 70 2
	.loc 1 71 2
	.loc 1 68 1 is_stmt 0
	addi	sp,sp,-16
	.cfi_def_cfa_offset 16
	sw	s0,8(sp)
	sw	s1,4(sp)
	sw	s2,0(sp)
	sw	ra,12(sp)
	.cfi_offset 8, -8
	.cfi_offset 9, -12
	.cfi_offset 18, -16
	.cfi_offset 1, -4
	.loc 1 68 1
	mv	s1,a0
.LVL19:
	.loc 1 72 2 is_stmt 1
	.loc 1 74 2
	.loc 1 68 1 is_stmt 0
	mv	s0,a1
	add	s2,a1,a2
.LVL20:
.L18:
	.loc 1 74 14 is_stmt 1 discriminator 1
	.loc 1 74 2 is_stmt 0 discriminator 1
	bne	s0,s2,.L20
	.loc 1 81 9
	li	a0,0
.L17:
	.loc 1 82 1
	lw	ra,12(sp)
	.cfi_remember_state
	.cfi_restore 1
	lw	s0,8(sp)
	.cfi_restore 8
.LVL21:
	lw	s1,4(sp)
	.cfi_restore 9
.LVL22:
	lw	s2,0(sp)
	.cfi_restore 18
	addi	sp,sp,16
	.cfi_def_cfa_offset 0
	jr	ra
.LVL23:
.L20:
	.cfi_restore_state
	.loc 1 75 3 is_stmt 1
	.loc 1 75 7 is_stmt 0
	mv	a0,s1
	call	hex2byte
.LVL24:
	.loc 1 76 3 is_stmt 1
	.loc 1 76 6 is_stmt 0
	blt	a0,zero,.L21
	.loc 1 78 3 is_stmt 1 discriminator 2
	.loc 1 78 8 is_stmt 0 discriminator 2
	addi	s0,s0,1
.LVL25:
	.loc 1 79 8 discriminator 2
	addi	s1,s1,2
.LVL26:
	.loc 1 78 11 discriminator 2
	sb	a0,-1(s0)
	.loc 1 79 3 is_stmt 1 discriminator 2
.LVL27:
	.loc 1 74 23 discriminator 2
	j	.L18
.L21:
	.loc 1 77 11 is_stmt 0
	li	a0,-1
.LVL28:
	j	.L17
	.cfi_endproc
.LFE72:
	.size	hexstr2bin, .-hexstr2bin
	.globl	__bswapsi2
	.section	.text.wpa_get_ntp_timestamp,"ax",@progbits
	.align	1
	.globl	wpa_get_ntp_timestamp
	.type	wpa_get_ntp_timestamp, @function
wpa_get_ntp_timestamp:
.LFB73:
	.loc 1 85 1 is_stmt 1
	.cfi_startproc
.LVL29:
	.loc 1 86 2
	.loc 1 87 2
	.loc 1 88 2
	.loc 1 91 2
	.loc 1 85 1 is_stmt 0
	addi	sp,sp,-48
	.cfi_def_cfa_offset 48
	sw	s1,36(sp)
	.cfi_offset 9, -12
	mv	s1,a0
	.loc 1 91 2
	addi	a0,sp,16
.LVL30:
	.loc 1 85 1
	sw	ra,44(sp)
	sw	s0,40(sp)
	.cfi_offset 1, -4
	.cfi_offset 8, -8
	.loc 1 91 2
	call	os_get_time
.LVL31:
	.loc 1 92 2 is_stmt 1
	.loc 1 94 2
	.loc 1 94 7 is_stmt 0
	lw	a5,24(sp)
.LVL32:
	.loc 1 95 2 is_stmt 1
	.loc 1 95 14 is_stmt 0
	li	s0,4096
	addi	s0,s0,199
	mul	s0,a5,s0
	.loc 1 95 29
	srli	a4,a5,5
	.loc 1 95 43
	srli	a5,a5,9
.LVL33:
	add	a5,a4,a5
	.loc 1 92 6
	lw	a0,16(sp)
	.loc 1 95 7
	sub	s0,s0,a5
.LVL34:
	.loc 1 96 2 is_stmt 1
	.loc 1 96 9 is_stmt 0
	li	a5,-2085978112
	addi	a5,a5,-384
	add	a0,a0,a5
	call	__bswapsi2
.LVL35:
	.loc 1 97 2
	addi	a1,sp,12
	.loc 1 96 6
	sw	a0,12(sp)
	.loc 1 97 2 is_stmt 1
	li	a2,4
	mv	a0,s1
	call	memcpy
.LVL36:
	.loc 1 98 2
	.loc 1 98 9 is_stmt 0
	mv	a0,s0
	call	__bswapsi2
.LVL37:
	.loc 1 98 6
	sw	a0,12(sp)
	.loc 1 99 2 is_stmt 1
	addi	a1,sp,12
	addi	a0,s1,4
	li	a2,4
	call	memcpy
.LVL38:
	.loc 1 100 1 is_stmt 0
	lw	ra,44(sp)
	.cfi_restore 1
	lw	s0,40(sp)
	.cfi_restore 8
.LVL39:
	lw	s1,36(sp)
	.cfi_restore 9
.LVL40:
	addi	sp,sp,48
	.cfi_def_cfa_offset 0
	jr	ra
	.cfi_endproc
.LFE73:
	.size	wpa_get_ntp_timestamp, .-wpa_get_ntp_timestamp
	.section	.rodata.printf_encode.str1.4,"aMS",@progbits,1
	.align	2
.LC0:
	.string	"\\x%02x"
	.section	.text.printf_encode,"ax",@progbits
	.align	1
	.globl	printf_encode
	.type	printf_encode, @function
printf_encode:
.LFB74:
	.loc 1 103 1 is_stmt 1
	.cfi_startproc
.LVL41:
	.loc 1 104 2
	.loc 1 103 1 is_stmt 0
	addi	sp,sp,-64
	.cfi_def_cfa_offset 64
	sw	s0,56(sp)
	sw	s1,52(sp)
	sw	s2,48(sp)
	sw	s3,44(sp)
	sw	s4,40(sp)
	sw	s5,36(sp)
	sw	s6,32(sp)
	sw	s7,28(sp)
	sw	s8,24(sp)
	sw	s9,20(sp)
	sw	s10,16(sp)
	sw	s11,12(sp)
	sw	ra,60(sp)
	.cfi_offset 8, -8
	.cfi_offset 9, -12
	.cfi_offset 18, -16
	.cfi_offset 19, -20
	.cfi_offset 20, -24
	.cfi_offset 21, -28
	.cfi_offset 22, -32
	.cfi_offset 23, -36
	.cfi_offset 24, -40
	.cfi_offset 25, -44
	.cfi_offset 26, -48
	.cfi_offset 27, -52
	.cfi_offset 1, -4
	.loc 1 103 1
	mv	s0,a0
	.loc 1 104 8
	add	s3,a0,a1
.LVL42:
	.loc 1 105 2 is_stmt 1
	.loc 1 107 2
	mv	s2,a2
	add	s4,a2,a3
	.loc 1 111 3 is_stmt 0
	li	s5,27
	.loc 1 121 11
	li	s1,92
	.loc 1 122 11
	li	s7,101
	.loc 1 137 7
	li	s8,95
	.loc 1 140 12
	lui	s9,%hi(.LC0)
	.loc 1 111 3
	li	s6,34
	li	s10,10
	.loc 1 126 11
	li	s11,110
.LVL43:
.L26:
	.loc 1 107 14 is_stmt 1 discriminator 1
	.loc 1 107 2 is_stmt 0 discriminator 1
	beq	s4,s2,.L39
	.loc 1 108 3 is_stmt 1
	.loc 1 108 11 is_stmt 0
	addi	a5,s0,4
	.loc 1 108 6
	bgtu	s3,a5,.L27
.L39:
	.loc 1 147 2 is_stmt 1
	.loc 1 148 1 is_stmt 0
	lw	ra,60(sp)
	.cfi_remember_state
	.cfi_restore 1
	.loc 1 147 7
	sb	zero,0(s0)
	.loc 1 148 1
	lw	s0,56(sp)
	.cfi_restore 8
.LVL44:
	lw	s1,52(sp)
	.cfi_restore 9
	lw	s2,48(sp)
	.cfi_restore 18
.LVL45:
	lw	s3,44(sp)
	.cfi_restore 19
.LVL46:
	lw	s4,40(sp)
	.cfi_restore 20
	lw	s5,36(sp)
	.cfi_restore 21
	lw	s6,32(sp)
	.cfi_restore 22
	lw	s7,28(sp)
	.cfi_restore 23
	lw	s8,24(sp)
	.cfi_restore 24
	lw	s9,20(sp)
	.cfi_restore 25
	lw	s10,16(sp)
	.cfi_restore 26
	lw	s11,12(sp)
	.cfi_restore 27
	addi	sp,sp,64
	.cfi_def_cfa_offset 0
	jr	ra
.LVL47:
.L27:
	.cfi_restore_state
	.loc 1 111 3 is_stmt 1
	.loc 1 111 15 is_stmt 0
	lbu	a3,0(s2)
	.loc 1 111 3
	beq	a3,s5,.L28
	bgtu	a3,s5,.L29
	beq	a3,s10,.L30
	li	a5,13
	beq	a3,a5,.L31
	li	a5,9
	beq	a3,a5,.L32
.L33:
	.loc 1 137 4 is_stmt 1
	.loc 1 137 22 is_stmt 0
	addi	a5,a3,-32
	.loc 1 137 7
	andi	a5,a5,0xff
	bgtu	a5,s8,.L37
	.loc 1 138 5 is_stmt 1
.LVL48:
	.loc 1 138 12 is_stmt 0
	sb	a3,0(s0)
	.loc 1 138 9
	addi	s0,s0,1
.LVL49:
	j	.L36
.L29:
	.loc 1 111 3
	beq	a3,s6,.L34
	bne	a3,s1,.L33
	.loc 1 117 4 is_stmt 1
.LVL50:
	.loc 1 117 11 is_stmt 0
	sb	s1,0(s0)
	.loc 1 118 4 is_stmt 1
.LVL51:
	.loc 1 118 11 is_stmt 0
	sb	s1,1(s0)
	.loc 1 119 4 is_stmt 1
	j	.L42
.LVL52:
.L34:
	.loc 1 113 4
	.loc 1 113 11 is_stmt 0
	sb	s1,0(s0)
	.loc 1 114 4 is_stmt 1
.LVL53:
	.loc 1 114 11 is_stmt 0
	sb	s6,1(s0)
	.loc 1 115 4 is_stmt 1
.LVL54:
.L42:
	.loc 1 135 4
	.loc 1 134 8 is_stmt 0
	addi	s0,s0,2
.L36:
.LVL55:
	.loc 1 107 23 is_stmt 1 discriminator 2
	addi	s2,s2,1
.LVL56:
	j	.L26
.L28:
	.loc 1 121 4
.LVL57:
	.loc 1 121 11 is_stmt 0
	sb	s1,0(s0)
	.loc 1 122 4 is_stmt 1
.LVL58:
	.loc 1 122 11 is_stmt 0
	sb	s7,1(s0)
	.loc 1 123 4 is_stmt 1
	j	.L42
.LVL59:
.L30:
	.loc 1 125 4
	.loc 1 125 11 is_stmt 0
	sb	s1,0(s0)
	.loc 1 126 4 is_stmt 1
.LVL60:
	.loc 1 126 11 is_stmt 0
	sb	s11,1(s0)
	.loc 1 127 4 is_stmt 1
	j	.L42
.LVL61:
.L31:
	.loc 1 129 4
	.loc 1 129 11 is_stmt 0
	sb	s1,0(s0)
	.loc 1 130 4 is_stmt 1
.LVL62:
	.loc 1 130 11 is_stmt 0
	li	a5,114
.LVL63:
.L43:
	.loc 1 134 11
	sb	a5,1(s0)
	j	.L42
.LVL64:
.L32:
	.loc 1 133 4 is_stmt 1
	.loc 1 133 11 is_stmt 0
	sb	s1,0(s0)
	.loc 1 134 4 is_stmt 1
.LVL65:
	.loc 1 134 11 is_stmt 0
	li	a5,116
	j	.L43
.LVL66:
.L37:
	.loc 1 140 5 is_stmt 1
	.loc 1 140 12 is_stmt 0
	sub	a1,s3,s0
	mv	a0,s0
	addi	a2,s9,%lo(.LC0)
	call	snprintf
.LVL67:
	.loc 1 140 9
	add	s0,s0,a0
.LVL68:
	j	.L36
	.cfi_endproc
.LFE74:
	.size	printf_encode, .-printf_encode
	.section	.text.printf_decode,"ax",@progbits
	.align	1
	.globl	printf_decode
	.type	printf_decode, @function
printf_decode:
.LFB75:
	.loc 1 152 1 is_stmt 1
	.cfi_startproc
.LVL69:
	addi	sp,sp,-64
	.cfi_def_cfa_offset 64
	sw	s0,56(sp)
	sw	s1,52(sp)
	sw	s2,48(sp)
	sw	s3,44(sp)
	sw	s4,40(sp)
	sw	s5,36(sp)
	sw	s6,32(sp)
	sw	s7,28(sp)
	sw	s10,16(sp)
	sw	s11,12(sp)
	sw	ra,60(sp)
	sw	s8,24(sp)
	sw	s9,20(sp)
	.cfi_offset 8, -8
	.cfi_offset 9, -12
	.cfi_offset 18, -16
	.cfi_offset 19, -20
	.cfi_offset 20, -24
	.cfi_offset 21, -28
	.cfi_offset 22, -32
	.cfi_offset 23, -36
	.cfi_offset 26, -48
	.cfi_offset 27, -52
	.cfi_offset 1, -4
	.cfi_offset 24, -40
	.cfi_offset 25, -44
	.loc 1 152 1 is_stmt 0
	mv	s4,a0
	mv	s1,a1
	.loc 1 153 2 is_stmt 1
.LVL70:
	.loc 1 154 2
	.loc 1 155 2
	.loc 1 157 2
	.loc 1 152 1 is_stmt 0
	mv	s5,a2
	.loc 1 154 9
	li	s0,0
	.loc 1 160 3
	li	s6,92
	li	s2,110
	li	s10,101
	.loc 1 185 16
	li	s11,27
	li	s3,34
	li	s7,7
.LVL71:
.L45:
	.loc 1 157 8 is_stmt 1
	.loc 1 157 9 is_stmt 0
	lbu	a4,0(s5)
	.loc 1 157 8
	bne	a4,zero,.L63
.L46:
	.loc 1 226 2 is_stmt 1
	.loc 1 226 5 is_stmt 0
	bgeu	s0,s1,.L44
	.loc 1 227 3 is_stmt 1
	.loc 1 227 12 is_stmt 0
	add	a3,s4,s0
	sb	zero,0(a3)
	.loc 1 229 2 is_stmt 1
.L44:
	.loc 1 230 1 is_stmt 0
	lw	ra,60(sp)
	.cfi_remember_state
	.cfi_restore 1
	mv	a0,s0
	lw	s0,56(sp)
	.cfi_restore 8
.LVL72:
	lw	s1,52(sp)
	.cfi_restore 9
.LVL73:
	lw	s2,48(sp)
	.cfi_restore 18
	lw	s3,44(sp)
	.cfi_restore 19
	lw	s4,40(sp)
	.cfi_restore 20
.LVL74:
	lw	s5,36(sp)
	.cfi_restore 21
.LVL75:
	lw	s6,32(sp)
	.cfi_restore 22
	lw	s7,28(sp)
	.cfi_restore 23
	lw	s8,24(sp)
	.cfi_restore 24
	lw	s9,20(sp)
	.cfi_restore 25
	lw	s10,16(sp)
	.cfi_restore 26
	lw	s11,12(sp)
	.cfi_restore 27
	addi	sp,sp,64
	.cfi_def_cfa_offset 0
	jr	ra
.LVL76:
.L63:
	.cfi_restore_state
	.loc 1 158 3 is_stmt 1
	.loc 1 158 11 is_stmt 0
	addi	s9,s0,1
	.loc 1 158 6
	bgeu	s9,s1,.L46
	.loc 1 160 3 is_stmt 1
	.loc 1 162 7 is_stmt 0
	addi	s8,s5,1
	.loc 1 160 3
	bne	a4,s6,.L47
	.loc 1 162 4 is_stmt 1
.LVL77:
	.loc 1 163 4
	.loc 1 163 12 is_stmt 0
	lbu	a4,1(s5)
	beq	a4,s2,.L48
	bgtu	a4,s2,.L49
	beq	a4,s6,.L50
	bgtu	a4,s6,.L51
	beq	a4,s3,.L52
	addi	a4,a4,-48
	andi	a0,a4,0xff
	bgtu	a0,s7,.L66
	.loc 1 210 5 is_stmt 1
.LVL78:
	.loc 1 211 9 is_stmt 0
	lbu	a7,2(s5)
	.loc 1 210 9
	mv	a0,a4
.LVL79:
	.loc 1 211 5 is_stmt 1
	.loc 1 211 21 is_stmt 0
	addi	a7,a7,-48
	.loc 1 211 8
	andi	a5,a7,0xff
	bleu	a5,s7,.L54
	.loc 1 210 15
	addi	s8,s5,2
.LVL80:
.L61:
	.loc 1 213 5 is_stmt 1
	.loc 1 213 9 is_stmt 0
	lbu	a2,0(s8)
	.loc 1 213 21
	addi	a2,a2,-48
	.loc 1 213 8
	andi	a4,a2,0xff
	bgtu	a4,s7,.L62
	.loc 1 214 6 is_stmt 1
	.loc 1 214 16 is_stmt 0
	slli	a4,a0,3
	.loc 1 214 27
	addi	s8,s8,1
.LVL81:
	.loc 1 214 10
	add	a0,a2,a4
.LVL82:
.L62:
	.loc 1 215 5 is_stmt 1
	.loc 1 215 16 is_stmt 0
	add	s0,s4,s0
	sb	a0,0(s0)
	.loc 1 216 5 is_stmt 1
	j	.L53
.LVL83:
.L51:
	beq	a4,s10,.L56
.LVL84:
.L66:
	.loc 1 220 4 is_stmt 0
	mv	s9,s0
	j	.L53
.LVL85:
.L49:
	li	a5,116
	beq	a4,a5,.L57
	li	a5,120
	beq	a4,a5,.L58
	li	a5,114
	bne	a4,a5,.L66
	.loc 1 177 5 is_stmt 1
.LVL86:
	.loc 1 177 16 is_stmt 0
	add	s0,s4,s0
	li	a5,13
	j	.L70
.LVL87:
.L50:
	.loc 1 165 5 is_stmt 1
	.loc 1 165 16 is_stmt 0
	add	s0,s4,s0
	sb	s6,0(s0)
	.loc 1 166 5 is_stmt 1
.L69:
	.loc 1 174 5
	.loc 1 174 8 is_stmt 0
	addi	s8,s5,2
.LVL88:
	.loc 1 175 5 is_stmt 1
.L53:
	.loc 1 220 4 is_stmt 0
	mv	s0,s9
	mv	s5,s8
	j	.L45
.LVL89:
.L52:
	.loc 1 169 5 is_stmt 1
	.loc 1 169 16 is_stmt 0
	add	s0,s4,s0
	sb	s3,0(s0)
	.loc 1 170 5 is_stmt 1
	j	.L69
.LVL90:
.L48:
	.loc 1 173 5
	.loc 1 173 16 is_stmt 0
	add	s0,s4,s0
	li	a5,10
.L70:
	sb	a5,0(s0)
	j	.L69
.LVL91:
.L57:
	.loc 1 181 5 is_stmt 1
	.loc 1 181 16 is_stmt 0
	add	s0,s4,s0
	li	a5,9
	j	.L70
.LVL92:
.L56:
	.loc 1 185 5 is_stmt 1
	.loc 1 185 16 is_stmt 0
	add	s0,s4,s0
	sb	s11,0(s0)
	.loc 1 186 5 is_stmt 1
	j	.L69
.LVL93:
.L58:
	.loc 1 189 5
	.loc 1 189 8 is_stmt 0
	addi	s8,s5,2
.LVL94:
	.loc 1 190 5 is_stmt 1
	.loc 1 190 11 is_stmt 0
	mv	a0,s8
	call	hex2byte
.LVL95:
	.loc 1 191 5 is_stmt 1
	.loc 1 191 8 is_stmt 0
	bge	a0,zero,.L60
	.loc 1 192 6 is_stmt 1
	.loc 1 192 12 is_stmt 0
	lbu	a0,2(s5)
.LVL96:
	call	hex2num
.LVL97:
	.loc 1 193 6 is_stmt 1
	.loc 1 193 9 is_stmt 0
	blt	a0,zero,.L66
	.loc 1 195 6 is_stmt 1
.LVL98:
	.loc 1 195 17 is_stmt 0
	add	s0,s4,s0
	sb	a0,0(s0)
	.loc 1 196 6 is_stmt 1
	.loc 1 196 9 is_stmt 0
	addi	s8,s5,3
.LVL99:
	j	.L53
.LVL100:
.L60:
	.loc 1 198 6 is_stmt 1
	.loc 1 198 17 is_stmt 0
	add	s0,s4,s0
	sb	a0,0(s0)
	.loc 1 199 6 is_stmt 1
	.loc 1 199 10 is_stmt 0
	addi	s8,s5,4
.LVL101:
	j	.L53
.LVL102:
.L54:
	.loc 1 212 6 is_stmt 1
	.loc 1 212 16 is_stmt 0
	slli	a4,a4,3
	.loc 1 212 27
	addi	s8,s5,3
.LVL103:
	.loc 1 212 10
	add	a0,a7,a4
.LVL104:
	j	.L61
.LVL105:
.L47:
	.loc 1 222 4 is_stmt 1
	.loc 1 222 15 is_stmt 0
	add	s0,s4,s0
	sb	a4,0(s0)
	.loc 1 223 4 is_stmt 1
	j	.L53
	.cfi_endproc
.LFE75:
	.size	printf_decode, .-printf_decode
	.section	.text.wpa_is_hex,"ax",@progbits
	.align	1
	.globl	wpa_is_hex
	.type	wpa_is_hex, @function
wpa_is_hex:
.LFB77:
	.loc 1 305 1
	.cfi_startproc
.LVL106:
	.loc 1 306 2
	.loc 1 308 2
	.loc 1 308 9 is_stmt 0
	li	a4,0
	.loc 1 309 6
	li	a3,94
.LVL107:
.L72:
	.loc 1 308 14 is_stmt 1 discriminator 1
	.loc 1 308 2 is_stmt 0 discriminator 1
	bne	a4,a1,.L74
	.loc 1 312 9
	li	a0,0
.LVL108:
	ret
.LVL109:
.L74:
	.loc 1 309 3 is_stmt 1
	.loc 1 309 11 is_stmt 0
	add	a5,a0,a4
	.loc 1 309 20
	lbu	a5,0(a5)
	addi	a5,a5,-32
	.loc 1 309 6
	andi	a5,a5,0xff
	bgtu	a5,a3,.L75
	.loc 1 308 23 is_stmt 1 discriminator 2
	.loc 1 308 24 is_stmt 0 discriminator 2
	addi	a4,a4,1
.LVL110:
	j	.L72
.L75:
	.loc 1 310 11
	li	a0,1
.LVL111:
	.loc 1 313 1
	ret
	.cfi_endproc
.LFE77:
	.size	wpa_is_hex, .-wpa_is_hex
	.section	.text.wpa_merge_byte_arrays,"ax",@progbits
	.align	1
	.globl	wpa_merge_byte_arrays
	.type	wpa_merge_byte_arrays, @function
wpa_merge_byte_arrays:
.LFB78:
	.loc 1 319 1 is_stmt 1
	.cfi_startproc
.LVL112:
	.loc 1 320 2
	.loc 1 322 2
	.loc 1 319 1 is_stmt 0
	addi	sp,sp,-32
	.cfi_def_cfa_offset 32
	sw	s1,20(sp)
	sw	s4,8(sp)
	.cfi_offset 9, -12
	.cfi_offset 20, -24
	mv	s1,a1
	mv	s4,a2
	.loc 1 322 2
	mv	a2,a1
.LVL113:
	li	a1,0
.LVL114:
	.loc 1 319 1
	sw	s0,24(sp)
	sw	s2,16(sp)
	sw	s3,12(sp)
	sw	s5,4(sp)
	sw	ra,28(sp)
	.cfi_offset 8, -8
	.cfi_offset 18, -16
	.cfi_offset 19, -20
	.cfi_offset 21, -28
	.cfi_offset 1, -4
	.loc 1 319 1
	mv	s2,a0
	mv	s0,a3
	mv	s3,a4
	mv	s5,a5
	.loc 1 322 2
	call	memset
.LVL115:
	.loc 1 324 2 is_stmt 1
	.loc 1 324 5 is_stmt 0
	beq	s4,zero,.L81
	.loc 1 325 3 is_stmt 1
	.loc 1 325 6 is_stmt 0
	bgtu	s1,s0,.L78
	.loc 1 326 4 is_stmt 1
	mv	a2,s1
	mv	a1,s4
	mv	a0,s2
.LVL116:
.L86:
	.loc 1 336 4 is_stmt 0
	call	memcpy
.LVL117:
	.loc 1 337 4 is_stmt 1
	.loc 1 337 11 is_stmt 0
	mv	a2,s1
.L76:
	.loc 1 345 1
	lw	ra,28(sp)
	.cfi_remember_state
	.cfi_restore 1
	lw	s0,24(sp)
	.cfi_restore 8
	lw	s1,20(sp)
	.cfi_restore 9
.LVL118:
	lw	s2,16(sp)
	.cfi_restore 18
.LVL119:
	lw	s3,12(sp)
	.cfi_restore 19
.LVL120:
	lw	s4,8(sp)
	.cfi_restore 20
.LVL121:
	lw	s5,4(sp)
	.cfi_restore 21
.LVL122:
	mv	a0,a2
	addi	sp,sp,32
	.cfi_def_cfa_offset 0
	jr	ra
.LVL123:
.L78:
	.cfi_restore_state
	.loc 1 330 3 is_stmt 1
	mv	a2,s0
	mv	a1,s4
	mv	a0,s2
	call	memcpy
.LVL124:
	.loc 1 331 3
	.loc 1 330 3 is_stmt 0
	mv	a2,s0
.LVL125:
.L77:
	.loc 1 334 2 is_stmt 1
	.loc 1 334 5 is_stmt 0
	beq	s3,zero,.L76
	.loc 1 335 3 is_stmt 1
	.loc 1 335 11 is_stmt 0
	add	s0,a2,s5
.LVL126:
	.loc 1 336 16
	add	a0,s2,a2
	.loc 1 335 6
	bltu	s0,s1,.L80
	.loc 1 336 4 is_stmt 1
	sub	a2,s1,a2
.LVL127:
	mv	a1,s3
	j	.L86
.LVL128:
.L81:
	.loc 1 320 9 is_stmt 0
	li	a2,0
	j	.L77
.LVL129:
.L80:
	.loc 1 340 3 is_stmt 1
	mv	a2,s5
.LVL130:
	mv	a1,s3
	call	memcpy
.LVL131:
	.loc 1 341 3
	.loc 1 340 3 is_stmt 0
	mv	a2,s0
.LVL132:
	j	.L76
	.cfi_endproc
.LFE78:
	.size	wpa_merge_byte_arrays, .-wpa_merge_byte_arrays
	.section	.text.dup_binstr,"ax",@progbits
	.align	1
	.globl	dup_binstr
	.type	dup_binstr, @function
dup_binstr:
.LFB79:
	.loc 1 349 1 is_stmt 1
	.cfi_startproc
.LVL133:
	.loc 1 350 2
	.loc 1 352 2
	.loc 1 349 1 is_stmt 0
	addi	sp,sp,-16
	.cfi_def_cfa_offset 16
	sw	s1,4(sp)
	sw	ra,12(sp)
	sw	s0,8(sp)
	sw	s2,0(sp)
	.cfi_offset 9, -12
	.cfi_offset 1, -4
	.cfi_offset 8, -8
	.cfi_offset 18, -16
	.loc 1 353 9
	li	s1,0
	.loc 1 352 5
	beq	a0,zero,.L87
	mv	s2,a0
	.loc 1 354 8
	addi	a0,a1,1
.LVL134:
	mv	s0,a1
	.loc 1 354 2 is_stmt 1
	.loc 1 354 8 is_stmt 0
	call	wpa_supplicant_malloc
.LVL135:
	mv	s1,a0
.LVL136:
	.loc 1 355 2 is_stmt 1
	.loc 1 355 5 is_stmt 0
	beq	a0,zero,.L87
	.loc 1 357 2 is_stmt 1
	mv	a2,s0
	mv	a1,s2
	.loc 1 358 11 is_stmt 0
	add	s0,s1,s0
.LVL137:
	.loc 1 357 2
	call	memcpy
.LVL138:
	.loc 1 358 2 is_stmt 1
	.loc 1 358 11 is_stmt 0
	sb	zero,0(s0)
	.loc 1 360 2 is_stmt 1
.LVL139:
.L87:
	.loc 1 361 1 is_stmt 0
	lw	ra,12(sp)
	.cfi_restore 1
	lw	s0,8(sp)
	.cfi_restore 8
	lw	s2,0(sp)
	.cfi_restore 18
	mv	a0,s1
	lw	s1,4(sp)
	.cfi_restore 9
	addi	sp,sp,16
	.cfi_def_cfa_offset 0
	jr	ra
	.cfi_endproc
.LFE79:
	.size	dup_binstr, .-dup_binstr
	.section	.text.wpa_config_parse_string,"ax",@progbits
	.align	1
	.globl	wpa_config_parse_string
	.type	wpa_config_parse_string, @function
wpa_config_parse_string:
.LFB76:
	.loc 1 235 1 is_stmt 1
	.cfi_startproc
.LVL140:
	.loc 1 236 2
	.loc 1 235 1 is_stmt 0
	addi	sp,sp,-32
	.cfi_def_cfa_offset 32
	sw	s0,24(sp)
	sw	s3,12(sp)
	sw	ra,28(sp)
	sw	s1,20(sp)
	sw	s2,16(sp)
	.cfi_offset 8, -8
	.cfi_offset 19, -20
	.cfi_offset 1, -4
	.cfi_offset 9, -12
	.cfi_offset 18, -16
	.loc 1 236 6
	lbu	a4,0(a0)
	.loc 1 236 5
	li	a5,34
	.loc 1 235 1
	mv	s0,a0
	mv	s3,a1
	.loc 1 236 5
	bne	a4,a5,.L95
.LBB6:
	.loc 1 237 3 is_stmt 1
	.loc 1 238 3
	.loc 1 239 3
	.loc 1 239 8 is_stmt 0
	addi	s0,a0,1
.LVL141:
	.loc 1 240 3 is_stmt 1
	.loc 1 240 9 is_stmt 0
	li	a1,34
.LVL142:
	mv	a0,s0
	call	strrchr
.LVL143:
	.loc 1 241 3 is_stmt 1
	.loc 1 241 6 is_stmt 0
	bne	a0,zero,.L96
.LVL144:
.L112:
.LBE6:
.LBB7:
	.loc 1 295 4 is_stmt 1
	.loc 1 295 10 is_stmt 0
	li	s1,0
	j	.L94
.LVL145:
.L96:
.LBE7:
.LBB8:
	.loc 1 241 18 discriminator 1
	lbu	a5,1(a0)
	bne	a5,zero,.L112
	.loc 1 243 3 is_stmt 1
	.loc 1 243 14 is_stmt 0
	sub	a1,a0,s0
	.loc 1 244 9
	mv	a0,s0
.LVL146:
.LBE8:
	.loc 1 301 1
	lw	s0,24(sp)
	.cfi_remember_state
	.cfi_restore 8
.LVL147:
	lw	ra,28(sp)
	.cfi_restore 1
	lw	s1,20(sp)
	.cfi_restore 9
	lw	s2,16(sp)
	.cfi_restore 18
.LBB9:
	.loc 1 243 8
	sw	a1,0(s3)
	.loc 1 244 3 is_stmt 1
.LBE9:
	.loc 1 301 1 is_stmt 0
	lw	s3,12(sp)
	.cfi_restore 19
.LVL148:
	addi	sp,sp,32
	.cfi_def_cfa_offset 0
.LBB10:
	.loc 1 244 9
	tail	dup_binstr
.LVL149:
.L95:
	.cfi_restore_state
.LBE10:
	.loc 1 248 9 is_stmt 1
	.loc 1 248 12 is_stmt 0
	li	a3,80
	bne	a4,a3,.L99
	.loc 1 248 27 discriminator 1
	lbu	a4,1(a0)
	bne	a4,a5,.L99
.LBB11:
	.loc 1 249 3 is_stmt 1
	.loc 1 250 3
	.loc 1 251 3
	.loc 1 252 3
	.loc 1 252 9 is_stmt 0
	addi	s0,a0,2
.LVL150:
	.loc 1 253 3 is_stmt 1
	.loc 1 253 9 is_stmt 0
	li	a1,34
.LVL151:
	mv	a0,s0
	call	strrchr
.LVL152:
	.loc 1 254 3 is_stmt 1
	.loc 1 254 6 is_stmt 0
	beq	a0,zero,.L112
	.loc 1 254 18 discriminator 1
	lbu	a5,1(a0)
	bne	a5,zero,.L112
	.loc 1 256 3 is_stmt 1
	.loc 1 256 14 is_stmt 0
	sub	s1,a0,s0
.LVL153:
	.loc 1 257 3 is_stmt 1
	.loc 1 257 10 is_stmt 0
	mv	a1,s1
	mv	a0,s0
.LVL154:
	call	dup_binstr
.LVL155:
	mv	s2,a0
.LVL156:
	.loc 1 258 3 is_stmt 1
	.loc 1 258 6 is_stmt 0
	beq	a0,zero,.L112
	.loc 1 261 3 is_stmt 1
	.loc 1 261 9 is_stmt 0
	addi	s0,s1,1
.LVL157:
	mv	a0,s0
.LVL158:
	call	wpa_supplicant_malloc
.LVL159:
	mv	s1,a0
.LVL160:
	.loc 1 262 3 is_stmt 1
	.loc 1 262 6 is_stmt 0
	bne	a0,zero,.L100
.L113:
	.loc 1 268 3 is_stmt 1
	mv	a0,s2
	call	wpa_supplicant_free
.LVL161:
	.loc 1 270 3
.L94:
.LBE11:
	.loc 1 301 1 is_stmt 0
	lw	ra,28(sp)
	.cfi_remember_state
	.cfi_restore 1
	lw	s0,24(sp)
	.cfi_restore 8
	lw	s2,16(sp)
	.cfi_restore 18
	lw	s3,12(sp)
	.cfi_restore 19
.LVL162:
	mv	a0,s1
	lw	s1,20(sp)
	.cfi_restore 9
	addi	sp,sp,32
	.cfi_def_cfa_offset 0
	jr	ra
.LVL163:
.L100:
	.cfi_restore_state
.LBB12:
	.loc 1 267 3 is_stmt 1
	.loc 1 267 10 is_stmt 0
	mv	a2,s2
	mv	a1,s0
	call	printf_decode
.LVL164:
	.loc 1 267 8
	sw	a0,0(s3)
	j	.L113
.LVL165:
.L99:
.LBE12:
.LBB13:
	.loc 1 272 3 is_stmt 1
	.loc 1 273 3
	.loc 1 273 23 is_stmt 0
	mv	a0,s0
	call	strlen
.LVL166:
	.loc 1 275 3 is_stmt 1
	.loc 1 275 12 is_stmt 0
	andi	a5,a0,1
	.loc 1 275 6
	bne	a5,zero,.L112
	.loc 1 289 3 is_stmt 1
	.loc 1 289 8 is_stmt 0
	srli	s2,a0,1
.LVL167:
	.loc 1 290 3 is_stmt 1
	.loc 1 290 9 is_stmt 0
	addi	a0,s2,1
.LVL168:
	call	wpa_supplicant_malloc
.LVL169:
	mv	s1,a0
.LVL170:
	.loc 1 291 3 is_stmt 1
	.loc 1 291 6 is_stmt 0
	beq	a0,zero,.L112
	.loc 1 293 3 is_stmt 1
	.loc 1 293 7 is_stmt 0
	mv	a1,a0
	mv	a2,s2
	mv	a0,s0
	call	hexstr2bin
.LVL171:
	.loc 1 293 6
	beq	a0,zero,.L101
	.loc 1 294 4 is_stmt 1
	mv	a0,s1
	call	wpa_supplicant_free
.LVL172:
	j	.L112
.L101:
	.loc 1 297 3
	.loc 1 297 13 is_stmt 0
	add	a5,s1,s2
	sb	zero,0(a5)
	.loc 1 298 3 is_stmt 1
	.loc 1 298 8 is_stmt 0
	sw	s2,0(s3)
	.loc 1 299 3 is_stmt 1
	.loc 1 299 10 is_stmt 0
	j	.L94
.LBE13:
	.cfi_endproc
.LFE76:
	.size	wpa_config_parse_string, .-wpa_config_parse_string
	.section	.text.wpa_bin_clear_free,"ax",@progbits
	.align	1
	.globl	wpa_bin_clear_free
	.type	wpa_bin_clear_free, @function
wpa_bin_clear_free:
.LFB80:
	.loc 1 363 1 is_stmt 1
	.cfi_startproc
.LVL173:
	.loc 1 364 2
	.loc 1 364 5 is_stmt 0
	beq	a0,zero,.L114
	.loc 1 363 1
	addi	sp,sp,-16
	.cfi_def_cfa_offset 16
	mv	a2,a1
	.loc 1 365 3 is_stmt 1
	li	a1,0
.LVL174:
	.loc 1 363 1 is_stmt 0
	sw	s0,8(sp)
	sw	ra,12(sp)
	.cfi_offset 8, -8
	.cfi_offset 1, -4
	mv	s0,a0
	.loc 1 365 3
	call	memset
.LVL175:
	.loc 1 366 3 is_stmt 1
	mv	a0,s0
	.loc 1 368 1 is_stmt 0
	lw	s0,8(sp)
	.cfi_restore 8
.LVL176:
	lw	ra,12(sp)
	.cfi_restore 1
	addi	sp,sp,16
	.cfi_def_cfa_offset 0
	.loc 1 366 3
	tail	wpa_supplicant_free
.LVL177:
.L114:
	ret
	.cfi_endproc
.LFE80:
	.size	wpa_bin_clear_free, .-wpa_bin_clear_free
	.section	.text.int_array_len,"ax",@progbits
	.align	1
	.globl	int_array_len
	.type	int_array_len, @function
int_array_len:
.LFB81:
	.loc 1 371 1 is_stmt 1
	.cfi_startproc
.LVL178:
	.loc 1 372 2
	.loc 1 373 2
	.loc 1 371 1 is_stmt 0
	mv	a5,a0
	.loc 1 373 9
	li	a0,0
.LVL179:
.L120:
	.loc 1 373 14 is_stmt 1 discriminator 1
	.loc 1 373 2 is_stmt 0 discriminator 1
	beq	a5,zero,.L119
	.loc 1 373 20 discriminator 3
	slli	a4,a0,2
	add	a4,a5,a4
	.loc 1 373 16 discriminator 3
	lw	a4,0(a4)
	bne	a4,zero,.L122
.L119:
	.loc 1 376 1
	ret
.L122:
	.loc 1 374 3 is_stmt 1 discriminator 4
	.loc 1 373 25 discriminator 4
	.loc 1 373 26 is_stmt 0 discriminator 4
	addi	a0,a0,1
.LVL180:
	j	.L120
	.cfi_endproc
.LFE81:
	.size	int_array_len, .-int_array_len
	.section	.text.bin_clear_free,"ax",@progbits
	.align	1
	.globl	bin_clear_free
	.type	bin_clear_free, @function
bin_clear_free:
.LFB95:
	.cfi_startproc
	tail	wpa_bin_clear_free
	.cfi_endproc
.LFE95:
	.size	bin_clear_free, .-bin_clear_free
	.section	.text.str_clear_free,"ax",@progbits
	.align	1
	.globl	str_clear_free
	.type	str_clear_free, @function
str_clear_free:
.LFB83:
	.loc 1 387 1 is_stmt 1
	.cfi_startproc
.LVL181:
	.loc 1 388 2
	.loc 1 388 5 is_stmt 0
	beq	a0,zero,.L125
	.loc 1 387 1
	addi	sp,sp,-16
	.cfi_def_cfa_offset 16
	sw	ra,12(sp)
	sw	s0,8(sp)
	.cfi_offset 1, -4
	.cfi_offset 8, -8
	mv	s0,a0
.LBB14:
	.loc 1 389 3 is_stmt 1
	.loc 1 389 16 is_stmt 0
	call	strlen
.LVL182:
	mv	a2,a0
.LVL183:
	.loc 1 390 3 is_stmt 1
	li	a1,0
	mv	a0,s0
.LVL184:
	call	memset
.LVL185:
	.loc 1 391 3
	mv	a0,s0
.LBE14:
	.loc 1 393 1 is_stmt 0
	lw	s0,8(sp)
	.cfi_restore 8
.LVL186:
	lw	ra,12(sp)
	.cfi_restore 1
	addi	sp,sp,16
	.cfi_def_cfa_offset 0
.LBB15:
	.loc 1 391 3
	tail	wpa_supplicant_free
.LVL187:
.L125:
	ret
.LBE15:
	.cfi_endproc
.LFE83:
	.size	str_clear_free, .-str_clear_free
	.section	.text.os_gmtime,"ax",@progbits
	.align	1
	.globl	os_gmtime
	.type	os_gmtime, @function
os_gmtime:
.LFB84:
	.loc 1 396 1 is_stmt 1
	.cfi_startproc
.LVL188:
	.loc 1 397 2
	.loc 1 398 2
	.loc 1 396 1 is_stmt 0
	addi	sp,sp,-32
	.cfi_def_cfa_offset 32
	.loc 1 398 9
	sw	a0,8(sp)
	.loc 1 400 8
	addi	a0,sp,8
.LVL189:
	.loc 1 396 1
	sw	s0,24(sp)
	sw	ra,28(sp)
	.cfi_offset 8, -8
	.cfi_offset 1, -4
	.loc 1 396 1
	mv	s0,a2
	.loc 1 398 9
	sw	a1,12(sp)
	.loc 1 400 2 is_stmt 1
	.loc 1 400 8 is_stmt 0
	call	gmtime
.LVL190:
	.loc 1 401 2 is_stmt 1
	.loc 1 401 5 is_stmt 0
	beq	a0,zero,.L132
	.loc 1 403 2 is_stmt 1
	.loc 1 403 15 is_stmt 0
	lw	a5,0(a0)
	.loc 1 403 10
	sw	a5,0(s0)
	.loc 1 404 2 is_stmt 1
	.loc 1 404 15 is_stmt 0
	lw	a5,4(a0)
	.loc 1 404 10
	sw	a5,4(s0)
	.loc 1 405 2 is_stmt 1
	.loc 1 405 16 is_stmt 0
	lw	a5,8(a0)
	.loc 1 405 11
	sw	a5,8(s0)
	.loc 1 406 2 is_stmt 1
	.loc 1 406 15 is_stmt 0
	lw	a5,12(a0)
	.loc 1 406 10
	sw	a5,12(s0)
	.loc 1 407 2 is_stmt 1
	.loc 1 407 26 is_stmt 0
	lw	a5,16(a0)
	addi	a5,a5,1
	.loc 1 407 12
	sw	a5,16(s0)
	.loc 1 408 2 is_stmt 1
	.loc 1 408 26 is_stmt 0
	lw	a5,20(a0)
	.loc 1 409 9
	li	a0,0
.LVL191:
	.loc 1 408 26
	addi	a5,a5,1900
	.loc 1 408 11
	sw	a5,20(s0)
	.loc 1 409 2 is_stmt 1
.L130:
	.loc 1 410 1 is_stmt 0
	lw	ra,28(sp)
	.cfi_remember_state
	.cfi_restore 1
	lw	s0,24(sp)
	.cfi_restore 8
.LVL192:
	addi	sp,sp,32
	.cfi_def_cfa_offset 0
	jr	ra
.LVL193:
.L132:
	.cfi_restore_state
	.loc 1 402 10
	li	a0,-1
.LVL194:
	j	.L130
	.cfi_endproc
.LFE84:
	.size	os_gmtime, .-os_gmtime
	.section	.text.os_mktime,"ax",@progbits
	.align	1
	.globl	os_mktime
	.type	os_mktime, @function
os_mktime:
.LFB85:
	.loc 1 414 1 is_stmt 1
	.cfi_startproc
.LVL195:
	.loc 1 415 2
	.loc 1 417 2
	.loc 1 414 1 is_stmt 0
	addi	sp,sp,-80
	.cfi_def_cfa_offset 80
	sw	s2,64(sp)
	sw	ra,76(sp)
	.cfi_offset 18, -16
	.cfi_offset 1, -4
	mv	s2,a5
	sw	s0,72(sp)
	sw	s1,68(sp)
	sw	s3,60(sp)
	sw	s4,56(sp)
	sw	s5,52(sp)
	sw	s6,48(sp)
	.cfi_offset 8, -8
	.cfi_offset 9, -12
	.cfi_offset 19, -20
	.cfi_offset 20, -24
	.cfi_offset 21, -28
	.cfi_offset 22, -32
	.loc 1 417 5
	li	a5,1969
.LVL196:
	ble	a0,a5,.L136
	.loc 1 417 18 discriminator 1
	addi	s0,a1,-1
	li	a5,11
	mv	s1,a0
	.loc 1 420 10 discriminator 1
	li	a0,-1
.LVL197:
	.loc 1 417 18 discriminator 1
	bgtu	s0,a5,.L134
	mv	s3,a4
	.loc 1 417 45 discriminator 3
	addi	a5,a2,-1
	li	a4,30
.LVL198:
	mv	s5,a2
	bgtu	a5,a4,.L134
	.loc 1 418 13
	li	a5,23
	mv	s4,a3
	bgtu	a3,a5,.L134
	.loc 1 418 37 discriminator 2
	li	a5,59
	bgtu	s3,a5,.L134
	.loc 1 418 60 discriminator 4
	li	a5,60
	bgtu	s2,a5,.L134
	.loc 1 422 2
	li	a2,36
.LVL199:
	li	a1,0
.LVL200:
	addi	a0,sp,12
	mv	s6,a6
	.loc 1 422 2 is_stmt 1
	call	memset
.LVL201:
	.loc 1 423 2
	.loc 1 423 20 is_stmt 0
	addi	s1,s1,-1900
.LVL202:
	.loc 1 430 19
	addi	a0,sp,12
	.loc 1 423 13
	sw	s1,32(sp)
	.loc 1 424 2 is_stmt 1
	.loc 1 424 12 is_stmt 0
	sw	s0,28(sp)
	.loc 1 425 2 is_stmt 1
	.loc 1 425 13 is_stmt 0
	sw	s5,24(sp)
	.loc 1 426 2 is_stmt 1
	.loc 1 426 13 is_stmt 0
	sw	s4,20(sp)
	.loc 1 427 2 is_stmt 1
	.loc 1 427 12 is_stmt 0
	sw	s3,16(sp)
	.loc 1 428 2 is_stmt 1
	.loc 1 428 12 is_stmt 0
	sw	s2,12(sp)
	.loc 1 430 2 is_stmt 1
	.loc 1 430 19 is_stmt 0
	call	mktime
.LVL203:
	.loc 1 430 5
	sw	a0,0(s6)
	sw	a1,4(s6)
	.loc 1 431 2 is_stmt 1
	.loc 1 431 9 is_stmt 0
	li	a0,0
.LVL204:
.L134:
	.loc 1 432 1
	lw	ra,76(sp)
	.cfi_remember_state
	.cfi_restore 1
	lw	s0,72(sp)
	.cfi_restore 8
	lw	s1,68(sp)
	.cfi_restore 9
	lw	s2,64(sp)
	.cfi_restore 18
.LVL205:
	lw	s3,60(sp)
	.cfi_restore 19
	lw	s4,56(sp)
	.cfi_restore 20
	lw	s5,52(sp)
	.cfi_restore 21
	lw	s6,48(sp)
	.cfi_restore 22
	addi	sp,sp,80
	.cfi_def_cfa_offset 0
	jr	ra
.LVL206:
.L136:
	.cfi_restore_state
	.loc 1 420 10
	li	a0,-1
.LVL207:
	j	.L134
	.cfi_endproc
.LFE85:
	.size	os_mktime, .-os_mktime
	.section	.text.get_param,"ax",@progbits
	.align	1
	.globl	get_param
	.type	get_param, @function
get_param:
.LFB86:
	.loc 1 435 1 is_stmt 1
	.cfi_startproc
.LVL208:
	.loc 1 436 2
	.loc 1 437 2
	.loc 1 438 2
	.loc 1 440 2
	.loc 1 435 1 is_stmt 0
	addi	sp,sp,-16
	.cfi_def_cfa_offset 16
	sw	s0,8(sp)
	sw	s1,4(sp)
	sw	ra,12(sp)
	sw	s2,0(sp)
	.cfi_offset 8, -8
	.cfi_offset 9, -12
	.cfi_offset 1, -4
	.cfi_offset 18, -16
	.loc 1 435 1
	mv	s0,a1
	.loc 1 440 8
	call	strstr
.LVL209:
	mv	s1,a0
.LVL210:
	.loc 1 441 2 is_stmt 1
	.loc 1 441 5 is_stmt 0
	beq	a0,zero,.L143
	.loc 1 444 2 is_stmt 1
	.loc 1 444 9 is_stmt 0
	mv	a0,s0
	call	strlen
.LVL211:
	.loc 1 444 6
	add	s2,s1,a0
.LVL212:
	.loc 1 445 2 is_stmt 1
	.loc 1 445 8 is_stmt 0
	li	a1,32
	mv	a0,s2
	call	strchr
.LVL213:
	.loc 1 446 2 is_stmt 1
	.loc 1 447 13 is_stmt 0
	sub	s0,a0,s2
.LVL214:
	.loc 1 446 5
	bne	a0,zero,.L146
	.loc 1 449 3 is_stmt 1
	.loc 1 449 9 is_stmt 0
	mv	a0,s2
.LVL215:
	call	strlen
.LVL216:
	mv	s0,a0
.LVL217:
.L146:
	.loc 1 450 2 is_stmt 1
	.loc 1 450 8 is_stmt 0
	addi	a0,s0,1
	call	wpa_supplicant_malloc
.LVL218:
	mv	s1,a0
.LVL219:
	.loc 1 451 2 is_stmt 1
	.loc 1 451 5 is_stmt 0
	beq	a0,zero,.L143
	.loc 1 453 2 is_stmt 1
	mv	a2,s0
	mv	a1,s2
	.loc 1 454 11 is_stmt 0
	add	s0,s1,s0
.LVL220:
	.loc 1 453 2
	call	memcpy
.LVL221:
	.loc 1 454 2 is_stmt 1
	.loc 1 454 11 is_stmt 0
	sb	zero,0(s0)
	.loc 1 455 2 is_stmt 1
.LVL222:
.L143:
	.loc 1 456 1 is_stmt 0
	lw	ra,12(sp)
	.cfi_restore 1
	lw	s0,8(sp)
	.cfi_restore 8
	lw	s2,0(sp)
	.cfi_restore 18
	mv	a0,s1
	lw	s1,4(sp)
	.cfi_restore 9
	addi	sp,sp,16
	.cfi_def_cfa_offset 0
	jr	ra
	.cfi_endproc
.LFE86:
	.size	get_param, .-get_param
	.section	.text.os_memdup,"ax",@progbits
	.align	1
	.globl	os_memdup
	.type	os_memdup, @function
os_memdup:
.LFB87:
	.loc 1 459 1 is_stmt 1
	.cfi_startproc
.LVL223:
	.loc 1 460 2
	.loc 1 459 1 is_stmt 0
	addi	sp,sp,-32
	.cfi_def_cfa_offset 32
	sw	s1,20(sp)
	.cfi_offset 9, -12
	mv	s1,a0
	.loc 1 460 12
	mv	a0,a1
.LVL224:
	.loc 1 459 1
	sw	s0,24(sp)
	sw	ra,28(sp)
	.cfi_offset 8, -8
	.cfi_offset 1, -4
	.loc 1 460 12
	sw	a1,12(sp)
	call	wpa_supplicant_malloc
.LVL225:
	mv	s0,a0
.LVL226:
	.loc 1 462 2 is_stmt 1
	.loc 1 462 5 is_stmt 0
	beq	a0,zero,.L154
	.loc 1 462 8 discriminator 1
	beq	s1,zero,.L154
	.loc 1 463 3 is_stmt 1
	lw	a2,12(sp)
	mv	a1,s1
	call	memcpy
.LVL227:
	.loc 1 464 2
.L154:
	.loc 1 465 1 is_stmt 0
	lw	ra,28(sp)
	.cfi_restore 1
	mv	a0,s0
	lw	s0,24(sp)
	.cfi_restore 8
.LVL228:
	lw	s1,20(sp)
	.cfi_restore 9
.LVL229:
	addi	sp,sp,32
	.cfi_def_cfa_offset 0
.LVL230:
	jr	ra
	.cfi_endproc
.LFE87:
	.size	os_memdup, .-os_memdup
	.section	.text.hwaddr_aton2,"ax",@progbits
	.align	1
	.globl	hwaddr_aton2
	.type	hwaddr_aton2, @function
hwaddr_aton2:
.LFB88:
	.loc 1 474 1 is_stmt 1
	.cfi_startproc
.LVL231:
	.loc 1 475 2
	.loc 1 476 2
	.loc 1 478 2
	.loc 1 474 1 is_stmt 0
	addi	sp,sp,-48
	.cfi_def_cfa_offset 48
	sw	s1,36(sp)
	sw	s3,28(sp)
	sw	s4,24(sp)
	sw	s5,20(sp)
	sw	s6,16(sp)
	sw	s7,12(sp)
	sw	s8,8(sp)
	sw	ra,44(sp)
	sw	s0,40(sp)
	sw	s2,32(sp)
	.cfi_offset 9, -12
	.cfi_offset 19, -20
	.cfi_offset 20, -24
	.cfi_offset 21, -28
	.cfi_offset 22, -32
	.cfi_offset 23, -36
	.cfi_offset 24, -40
	.cfi_offset 1, -4
	.cfi_offset 8, -8
	.cfi_offset 18, -16
	.loc 1 474 1
	mv	s3,a0
	mv	s5,a1
	.loc 1 478 14 is_stmt 1
	.loc 1 476 14 is_stmt 0
	mv	s1,a0
	.loc 1 478 9
	li	s4,0
.LBB16:
	.loc 1 481 9
	li	s6,58
	.loc 1 481 37
	li	s7,1
.LBE16:
	.loc 1 478 2
	li	s8,6
.LVL232:
.L164:
	.loc 1 474 1
	mv	s2,s1
	j	.L168
.LVL233:
.L165:
.LBB17:
	.loc 1 482 4 is_stmt 1
	.loc 1 482 7 is_stmt 0
	addi	s2,s2,1
.LVL234:
.L168:
	.loc 1 481 9 is_stmt 1
	.loc 1 481 10 is_stmt 0
	lbu	a0,0(s2)
	.loc 1 481 9
	beq	a0,s6,.L165
	.loc 1 481 37 discriminator 2
	addi	a5,a0,-45
	andi	a5,a5,0xff
	bleu	a5,s7,.L165
	.loc 1 484 3 is_stmt 1
.LVL235:
	.loc 1 484 7 is_stmt 0
	call	hex2num
.LVL236:
	mv	s0,a0
.LVL237:
	.loc 1 485 3 is_stmt 1
	.loc 1 485 6 is_stmt 0
	blt	a0,zero,.L170
	.loc 1 487 3 is_stmt 1
	.loc 1 487 7 is_stmt 0
	lbu	a0,1(s2)
	.loc 1 487 19
	addi	s1,s2,2
.LVL238:
	.loc 1 487 7
	call	hex2num
.LVL239:
	.loc 1 488 3 is_stmt 1
	.loc 1 488 6 is_stmt 0
	blt	a0,zero,.L170
	.loc 1 490 3 is_stmt 1 discriminator 2
.LVL240:
	.loc 1 490 16 is_stmt 0 discriminator 2
	slli	s0,s0,4
.LVL241:
	.loc 1 490 11 discriminator 2
	add	a5,s5,s4
	.loc 1 490 22 discriminator 2
	or	s0,s0,a0
	.loc 1 490 11 discriminator 2
	sb	s0,0(a5)
.LBE17:
	.loc 1 478 21 is_stmt 1 discriminator 2
	.loc 1 478 22 is_stmt 0 discriminator 2
	addi	s4,s4,1
.LVL242:
	.loc 1 478 14 is_stmt 1 discriminator 2
	.loc 1 478 2 is_stmt 0 discriminator 2
	bne	s4,s8,.L164
	.loc 1 493 2 is_stmt 1
	.loc 1 493 13 is_stmt 0
	sub	a0,s1,s3
.LVL243:
.L163:
	.loc 1 494 1
	lw	ra,44(sp)
	.cfi_remember_state
	.cfi_restore 1
	lw	s0,40(sp)
	.cfi_restore 8
	lw	s1,36(sp)
	.cfi_restore 9
	lw	s2,32(sp)
	.cfi_restore 18
	lw	s3,28(sp)
	.cfi_restore 19
.LVL244:
	lw	s4,24(sp)
	.cfi_restore 20
.LVL245:
	lw	s5,20(sp)
	.cfi_restore 21
	lw	s6,16(sp)
	.cfi_restore 22
	lw	s7,12(sp)
	.cfi_restore 23
	lw	s8,8(sp)
	.cfi_restore 24
	addi	sp,sp,48
	.cfi_def_cfa_offset 0
	jr	ra
.LVL246:
.L170:
	.cfi_restore_state
.LBB18:
	.loc 1 486 11
	li	a0,-1
	j	.L163
.LBE18:
	.cfi_endproc
.LFE88:
	.size	hwaddr_aton2, .-hwaddr_aton2
	.section	.text.os_time_expired,"ax",@progbits
	.align	1
	.globl	os_time_expired
	.type	os_time_expired, @function
os_time_expired:
.LFB90:
	.loc 1 510 1 is_stmt 1
	.cfi_startproc
.LVL247:
	.loc 1 511 2
.LBB21:
.LBB22:
	.loc 1 500 2
	.loc 1 502 2
	.loc 1 502 7
	.loc 1 502 32 is_stmt 0
	lw	a6,0(a0)
	lw	a5,0(a1)
	lw	a4,4(a0)
	lw	a7,4(a1)
	.loc 1 502 72
	lw	a0,8(a0)
.LVL248:
	lw	a1,8(a1)
.LVL249:
	.loc 1 502 32
	sub	a5,a6,a5
	sgtu	a6,a5,a6
	sub	a4,a4,a7
	.loc 1 502 72
	sub	a0,a0,a1
	.loc 1 502 32
	sub	a4,a4,a6
.LVL250:
	.loc 1 502 45 is_stmt 1
	.loc 1 502 86
	.loc 1 502 89 is_stmt 0
	bge	a0,zero,.L173
	.loc 1 502 110 is_stmt 1
	.loc 1 502 121 is_stmt 0
	seqz	a1,a5
	sub	a4,a4,a1
.LVL251:
	.loc 1 502 138
	li	a1,999424
	addi	a1,a1,576
	.loc 1 502 121
	addi	a5,a5,-1
.LVL252:
	.loc 1 502 125 is_stmt 1
	.loc 1 502 138 is_stmt 0
	add	a0,a0,a1
.LVL253:
.L173:
	.loc 1 502 160 is_stmt 1
	.loc 1 503 2
	.loc 1 503 34 is_stmt 0
	bgt	a4,a3,.L176
	bne	a4,a3,.L178
	bgtu	a5,a2,.L176
.L178:
	bne	a2,a5,.L177
	bne	a3,a4,.L177
	.loc 1 504 28
	sgt	a0,a0,zero
.LVL254:
	ret
.LVL255:
.L176:
	.loc 1 503 34
	li	a0,1
.LVL256:
	ret
.LVL257:
.L177:
	li	a0,0
.LVL258:
.LBE22:
.LBE21:
	.loc 1 512 1
	ret
	.cfi_endproc
.LFE90:
	.size	os_time_expired, .-os_time_expired
	.section	.text.rssi_to_rcpi,"ax",@progbits
	.align	1
	.globl	rssi_to_rcpi
	.type	rssi_to_rcpi, @function
rssi_to_rcpi:
.LFB91:
	.loc 1 515 1 is_stmt 1
	.cfi_startproc
.LVL259:
	.loc 1 516 2
	.loc 1 515 1 is_stmt 0
	mv	a5,a0
	.loc 1 516 5
	beq	a0,zero,.L181
	.loc 1 518 2 is_stmt 1
	.loc 1 518 5 is_stmt 0
	li	a4,-110
	.loc 1 519 10
	li	a0,0
.LVL260:
	.loc 1 518 5
	blt	a5,a4,.L180
	.loc 1 520 2 is_stmt 1
	.loc 1 521 10 is_stmt 0
	li	a0,220
	.loc 1 520 5
	bgt	a5,zero,.L180
	.loc 1 522 2 is_stmt 1
	.loc 1 522 15 is_stmt 0
	addi	a0,a5,110
	.loc 1 522 22
	slli	a0,a0,1
	andi	a0,a0,0xff
	ret
.LVL261:
.L181:
	.loc 1 517 10
	li	a0,255
.LVL262:
.L180:
	.loc 1 523 1
	ret
	.cfi_endproc
.LFE91:
	.size	rssi_to_rcpi, .-rssi_to_rcpi
	.section	.text.wpa_ssid_txt,"ax",@progbits
	.align	1
	.globl	wpa_ssid_txt
	.type	wpa_ssid_txt, @function
wpa_ssid_txt:
.LFB92:
	.loc 1 540 1 is_stmt 1
	.cfi_startproc
.LVL263:
	.loc 1 541 2
	.loc 1 543 2
	.loc 1 540 1 is_stmt 0
	addi	sp,sp,-16
	.cfi_def_cfa_offset 16
	sw	s0,8(sp)
	sw	ra,12(sp)
	.cfi_offset 8, -8
	.cfi_offset 1, -4
	lui	s0,%hi(.LANCHOR0)
	.loc 1 543 5
	bne	a0,zero,.L185
	.loc 1 544 3 is_stmt 1
	.loc 1 544 15 is_stmt 0
	sb	zero,%lo(.LANCHOR0)(s0)
	.loc 1 545 3 is_stmt 1
.LVL264:
.L186:
	.loc 1 550 1 is_stmt 0
	lw	ra,12(sp)
	.cfi_remember_state
	.cfi_restore 1
	addi	a0,s0,%lo(.LANCHOR0)
	lw	s0,8(sp)
	.cfi_restore 8
	addi	sp,sp,16
	.cfi_def_cfa_offset 0
	jr	ra
.LVL265:
.L185:
	.cfi_restore_state
	mv	a2,a0
	mv	a3,a1
	.loc 1 548 2 is_stmt 1
	addi	a0,s0,%lo(.LANCHOR0)
.LVL266:
	li	a1,129
.LVL267:
	call	printf_encode
.LVL268:
	.loc 1 549 2
	.loc 1 549 9 is_stmt 0
	j	.L186
	.cfi_endproc
.LFE92:
	.size	wpa_ssid_txt, .-wpa_ssid_txt
	.section	.bss.ssid_txt.0,"aw",@nobits
	.align	2
	.set	.LANCHOR0,. + 0
	.type	ssid_txt.0, @object
	.size	ssid_txt.0, 129
ssid_txt.0:
	.zero	129
	.text
.Letext0:
	.file 2 "/mnt/d/GitHub/bl_iot_sdk_for_aithinker/toolchain/riscv/Linux/lib/gcc/riscv64-unknown-elf/10.2.0/include/stddef.h"
	.file 3 "/mnt/d/GitHub/bl_iot_sdk_for_aithinker/toolchain/riscv/Linux/riscv64-unknown-elf/include/machine/_default_types.h"
	.file 4 "/mnt/d/GitHub/bl_iot_sdk_for_aithinker/toolchain/riscv/Linux/riscv64-unknown-elf/include/sys/_types.h"
	.file 5 "/mnt/d/GitHub/bl_iot_sdk_for_aithinker/toolchain/riscv/Linux/riscv64-unknown-elf/include/sys/_stdint.h"
	.file 6 "/mnt/d/GitHub/bl_iot_sdk_for_aithinker/toolchain/riscv/Linux/riscv64-unknown-elf/include/sys/_timeval.h"
	.file 7 "/mnt/d/GitHub/bl_iot_sdk_for_aithinker/toolchain/riscv/Linux/riscv64-unknown-elf/include/time.h"
	.file 8 "/mnt/d/GitHub/bl_iot_sdk_for_aithinker/components/security/wpa_supplicant/port/include/os.h"
	.file 9 "/mnt/d/GitHub/bl_iot_sdk_for_aithinker/components/security/wpa_supplicant/src/utils/common.h"
	.file 10 "/mnt/d/GitHub/bl_iot_sdk_for_aithinker/toolchain/riscv/Linux/riscv64-unknown-elf/include/string.h"
	.file 11 "/mnt/d/GitHub/bl_iot_sdk_for_aithinker/toolchain/riscv/Linux/riscv64-unknown-elf/include/stdio.h"