	.file	"wpa_debug.c"
	.option nopic
	.attribute arch, "rv32i2p0_m2p0_f2p0_c2p0"
	.attribute unaligned_access, 0
	.attribute stack_align, 16
	.text
.Ltext0:
	.cfi_sections	.debug_frame
	.section	.rodata._wpa_snprintf_hex.constprop.0.str1.4,"aMS",@progbits,1
	.align	2
.LC0:
	.string	"%02X"
	.align	2
.LC1:
	.string	"%02x"
	.section	.text._wpa_snprintf_hex.constprop.0,"ax",@progbits
	.align	1
	.type	_wpa_snprintf_hex.constprop.0, @function
_wpa_snprintf_hex.constprop.0:
.LFB74:
	.file 1 "/mnt/d/GitHub/bl_iot_sdk_for_aithinker/components/security/wpa_supplicant/src/utils/wpa_debug.c"
	.loc 1 19 1
	.cfi_startproc
.LVL0:
	addi	sp,sp,-32
	.cfi_def_cfa_offset 32
	sw	s1,20(sp)
	sw	s3,12(sp)
	sw	ra,28(sp)
	sw	s0,24(sp)
	sw	s2,16(sp)
	sw	s4,8(sp)
	sw	s5,4(sp)
	sw	s6,0(sp)
	.cfi_offset 9, -12
	.cfi_offset 19, -20
	.cfi_offset 1, -4
	.cfi_offset 8, -8
	.cfi_offset 18, -16
	.cfi_offset 20, -24
	.cfi_offset 21, -28
	.cfi_offset 22, -32
	.loc 1 19 1 is_stmt 0
	mv	s3,a0
.LVL1:
	.loc 1 22 5 is_stmt 1
	.loc 1 23 5
	.loc 1 24 5
	.loc 1 26 5
	.loc 1 27 5
	.loc 1 28 5
	.loc 1 29 5
	.loc 1 30 5
	.loc 1 19 1 is_stmt 0
	mv	s1,a2
	.loc 1 30 75
	bne	a4,zero,.L8
	.loc 1 31 62
	lui	s4,%hi(.LC1)
	addi	s4,s4,%lo(.LC1)
.L2:
.LVL2:
	.loc 1 33 5 is_stmt 1
	.loc 1 34 16 is_stmt 0
	li	a0,0
.LVL3:
	.loc 1 33 8
	beq	a1,zero,.L1
	.loc 1 23 23
	add	s2,s3,a1
	add	s5,s1,a3
	.loc 1 23 11
	mv	s0,s3
.LVL4:
.L4:
	.loc 1 36 17 is_stmt 1
	.loc 1 36 5 is_stmt 0
	beq	s1,s5,.L11
	.loc 1 37 9 is_stmt 1
	.loc 1 37 15 is_stmt 0
	lbu	a3,0(s1)
	.loc 1 37 33
	sub	s6,s2,s0
	.loc 1 37 15
	mv	a2,s4
	mv	a1,s6
	mv	a0,s0
	call	snprintf
.LVL5:
	.loc 1 38 9 is_stmt 1
	.loc 1 38 12 is_stmt 0
	bge	a0,zero,.L5
.LVL6:
.L11:
	.loc 1 44 5 is_stmt 1
	.loc 1 44 12 is_stmt 0
	sb	zero,-1(s2)
	.loc 1 45 5 is_stmt 1
	.loc 1 45 16 is_stmt 0
	sub	a0,s0,s3
.LVL7:
.L1:
	.loc 1 46 1
	lw	ra,28(sp)
	.cfi_remember_state
	.cfi_restore 1
	lw	s0,24(sp)
	.cfi_restore 8
	lw	s1,20(sp)
	.cfi_restore 9
	lw	s2,16(sp)
	.cfi_restore 18
	lw	s3,12(sp)
	.cfi_restore 19
.LVL8:
	lw	s4,8(sp)
	.cfi_restore 20
.LVL9:
	lw	s5,4(sp)
	.cfi_restore 21
	lw	s6,0(sp)
	.cfi_restore 22
	addi	sp,sp,32
	.cfi_def_cfa_offset 0
	jr	ra
.LVL10:
.L8:
	.cfi_restore_state
	.loc 1 30 62
	lui	s4,%hi(.LC0)
	addi	s4,s4,%lo(.LC0)
	j	.L2
.LVL11:
.L5:
	.loc 1 38 21
	addi	s1,s1,1
.LVL12:
	ble	s6,a0,.L11
	.loc 1 42 9 is_stmt 1
	.loc 1 42 13 is_stmt 0
	add	s0,s0,a0
.LVL13:
	.loc 1 36 26 is_stmt 1
	j	.L4
	.cfi_endproc
.LFE74:
	.size	_wpa_snprintf_hex.constprop.0, .-_wpa_snprintf_hex.constprop.0
	.section	.text.wpa_snprintf_hex_uppercase,"ax",@progbits
	.align	1
	.globl	wpa_snprintf_hex_uppercase
	.type	wpa_snprintf_hex_uppercase, @function
wpa_snprintf_hex_uppercase:
.LFB70:
	.loc 1 49 1
	.cfi_startproc
.LVL14:
	.loc 1 50 2
	.loc 1 50 9 is_stmt 0
	li	a4,1
	tail	_wpa_snprintf_hex.constprop.0
.LVL15:
	.cfi_endproc
.LFE70:
	.size	wpa_snprintf_hex_uppercase, .-wpa_snprintf_hex_uppercase
	.section	.text.wpa_snprintf_hex,"ax",@progbits
	.align	1
	.globl	wpa_snprintf_hex
	.type	wpa_snprintf_hex, @function
wpa_snprintf_hex:
.LFB71:
	.loc 1 54 1 is_stmt 1
	.cfi_startproc
.LVL16:
	.loc 1 55 2
	.loc 1 55 9 is_stmt 0
	li	a4,0
	tail	_wpa_snprintf_hex.constprop.0
.LVL17:
	.cfi_endproc
.LFE71:
	.size	wpa_snprintf_hex, .-wpa_snprintf_hex
	.section	.text.eloop_cancel_timeout,"ax",@progbits
	.align	1
	.globl	eloop_cancel_timeout
	.type	eloop_cancel_timeout, @function
eloop_cancel_timeout:
.LFB72:
	.loc 1 122 1 is_stmt 1
	.cfi_startproc
.LVL18:
	.loc 1 123 5
	.loc 1 124 1 is_stmt 0
	li	a0,0
.LVL19:
	ret
	.cfi_endproc
.LFE72:
	.size	eloop_cancel_timeout, .-eloop_cancel_timeout
	.section	.text.eloop_register_timeout,"ax",@progbits
	.align	1
	.globl	eloop_register_timeout
	.type	eloop_register_timeout, @function
eloop_register_timeout:
.LFB73:
	.loc 1 129 1 is_stmt 1
	.cfi_startproc
.LVL20:
	.loc 1 130 5
	.loc 1 131 1 is_stmt 0
	li	a0,0
.LVL21:
	ret
	.cfi_endproc
.LFE73:
	.size	eloop_register_timeout, .-eloop_register_timeout
	.text
.Letext0:
	.file 2 "/mnt/d/GitHub/bl_iot_sdk_for_aithinker/toolchain/riscv/Linux/lib/gcc/riscv64-unknown-elf/10.2.0/include/stddef.h"
	.file 3 "/mnt/d/GitHub/bl_iot_sdk_for_aithinker/toolchain/riscv/Linux/riscv64-unknown-elf/include/machine/_default_types.h"
	.file 4 "/mnt/d/GitHub/bl_iot_sdk_for_aithinker/toolchain/riscv/Linux/riscv64-unknown-elf/include/sys/_stdint.h"
	.file 5 "/mnt/d/GitHub/bl_iot_sdk_for_aithinker/components/security/wpa_supplicant/include/utils/wpa_debug.h"
	.file 6 "/mnt/d/GitHub/bl_iot_sdk_for_aithinker/components/security/wpa_supplicant/src/utils/common.h"
	.file 7 "/mnt/d/GitHub/bl_iot_sdk_for_aithinker/toolchain/riscv/Linux/riscv64-unknown-elf/include/stdio.h"