	.file	"vfs_file.c"
	.option nopic
	.attribute arch, "rv32i2p0_m2p0_f2p0_c2p0"
	.attribute unaligned_access, 0
	.attribute stack_align, 16
	.text
.Ltext0:
	.cfi_sections	.debug_frame
	.section	.text.file_cmp_cb,"ax",@progbits
	.align	1
	.type	file_cmp_cb, @function
file_cmp_cb:
.LFB4:
	.file 1 "/mnt/d/GitHub/bl_iot_sdk_for_aithinker/components/fs/vfs/src/vfs_file.c"
	.loc 1 22 1
	.cfi_startproc
.LVL0:
	.loc 1 23 5
	.loc 1 24 5
	.loc 1 25 5
	.loc 1 25 14 is_stmt 0
	lw	a5,12(a1)
	.loc 1 25 22
	lw	a4,12(a2)
	.loc 1 25 14
	lw	a5,12(a5)
	.loc 1 25 22
	lw	a4,12(a4)
	.loc 1 25 19
	sgt	a0,a5,a4
.LVL1:
	.loc 1 25 37
	slt	a5,a5,a4
	.loc 1 26 1
	sub	a0,a0,a5
	ret
	.cfi_endproc
.LFE4:
	.size	file_cmp_cb, .-file_cmp_cb
	.section	.text.file_init,"ax",@progbits
	.align	1
	.globl	file_init
	.type	file_init, @function
file_init:
.LFB5:
	.loc 1 29 1 is_stmt 1
	.cfi_startproc
	.loc 1 30 5
.LVL2:
	.loc 1 31 5
	.loc 1 29 1 is_stmt 0
	addi	sp,sp,-16
	.cfi_def_cfa_offset 16
	sw	s0,8(sp)
	.cfi_offset 8, -8
	.loc 1 31 13
	lui	s0,%hi(.LANCHOR0)
	addi	s0,s0,%lo(.LANCHOR0)
	.loc 1 31 8
	lw	a5,0(s0)
	.loc 1 29 1
	sw	ra,12(sp)
	sw	s1,4(sp)
	.cfi_offset 1, -4
	.cfi_offset 9, -12
	.loc 1 31 8
	beq	a5,zero,.L3
.L5:
	.loc 1 30 9
	li	a4,0
.LVL3:
.L2:
	.loc 1 48 1
	lw	ra,12(sp)
	.cfi_remember_state
	.cfi_restore 1
	lw	s0,8(sp)
	.cfi_restore 8
	lw	s1,4(sp)
	.cfi_restore 9
	mv	a0,a4
	addi	sp,sp,16
	.cfi_def_cfa_offset 0
	jr	ra
.LVL4:
.L3:
	.cfi_restore_state
.L4:
	.loc 1 32 9 is_stmt 1
	.loc 1 32 28 is_stmt 0
	li	a0,12
	call	pvPortMalloc
.LVL5:
	.loc 1 32 26
	sw	a0,0(s0)
	.loc 1 33 9 is_stmt 1
	.loc 1 34 17 is_stmt 0
	li	a4,-1
	.loc 1 33 12
	beq	a0,zero,.L2
	.loc 1 37 9 is_stmt 1
	li	a2,12
	li	a1,0
	call	memset
.LVL6:
	.loc 1 38 9
	.loc 1 38 42 is_stmt 0
	lui	a0,%hi(file_cmp_cb)
	.loc 1 38 25
	lw	s1,0(s0)
	.loc 1 38 42
	addi	a0,a0,%lo(file_cmp_cb)
	call	rb_tree_create
.LVL7:
	.loc 1 38 40
	sw	a0,0(s1)
	.loc 1 39 9 is_stmt 1
	.loc 1 39 36 is_stmt 0
	lw	a0,0(s0)
	.loc 1 39 12
	lw	a5,0(a0)
	bne	a5,zero,.L5
	.loc 1 40 13 is_stmt 1
	call	vPortFree
.LVL8:
	.loc 1 41 13
	.loc 1 42 17 is_stmt 0
	li	a4,-1
	.loc 1 41 30
	sw	zero,0(s0)
	.loc 1 42 13 is_stmt 1
.LVL9:
	.loc 1 43 13
	j	.L2
	.cfi_endproc
.LFE5:
	.size	file_init, .-file_init
	.section	.rodata.new_file.str1.4,"aMS",@progbits,1
	.align	2
.LC0:
	.string	"VFS_ASSERT:f != NULL"
	.align	2
.LC1:
	.string	"vfs_file.c"
	.align	2
.LC2:
	.string	" %s:%d\r\n"
	.section	.text.new_file,"ax",@progbits
	.align	1
	.globl	new_file
	.type	new_file, @function
new_file:
.LFB6:
	.loc 1 51 1
	.cfi_startproc
.LVL10:
	.loc 1 52 5
	.loc 1 53 5
	.loc 1 55 5
	.loc 1 51 1 is_stmt 0
	addi	sp,sp,-32
	.cfi_def_cfa_offset 32
	sw	s2,16(sp)
	.cfi_offset 18, -16
	.loc 1 55 13
	lui	s2,%hi(.LANCHOR0)
	lw	a5,%lo(.LANCHOR0)(s2)
	.loc 1 51 1
	sw	ra,28(sp)
	sw	s0,24(sp)
	sw	s1,20(sp)
	sw	s3,12(sp)
	sw	s4,8(sp)
	sw	s5,4(sp)
	.cfi_offset 1, -4
	.cfi_offset 8, -8
	.cfi_offset 9, -12
	.cfi_offset 19, -20
	.cfi_offset 20, -24
	.cfi_offset 21, -28
	.loc 1 55 8
	bne	a5,zero,.L9
.LVL11:
.L21:
	.loc 1 83 9 is_stmt 1
	.loc 1 84 9
	.loc 1 83 11 is_stmt 0
	li	s0,0
.LVL12:
.L8:
	.loc 1 89 1
	lw	ra,28(sp)
	.cfi_remember_state
	.cfi_restore 1
	mv	a0,s0
	lw	s0,24(sp)
	.cfi_restore 8
	lw	s1,20(sp)
	.cfi_restore 9
	lw	s2,16(sp)
	.cfi_restore 18
	lw	s3,12(sp)
	.cfi_restore 19
	lw	s4,8(sp)
	.cfi_restore 20
	lw	s5,4(sp)
	.cfi_restore 21
	addi	sp,sp,32
	.cfi_def_cfa_offset 0
	jr	ra
.LVL13:
.L9:
	.cfi_restore_state
	mv	s4,a0
	.loc 1 55 48 discriminator 1
	lw	a0,0(a5)
.LVL14:
	call	rb_tree_size
.LVL15:
	.loc 1 55 33 discriminator 1
	li	a5,59
	bgtu	a0,a5,.L21
	addi	s2,s2,%lo(.LANCHOR0)
	.loc 1 60 30
	lw	a2,0(s2)
	.loc 1 59 12
	li	s1,0
	.loc 1 60 55
	li	a1,1
	.loc 1 59 5
	li	a3,60
.L15:
.LVL16:
	.loc 1 60 9 is_stmt 1
	.loc 1 60 44 is_stmt 0
	srai	a5,s1,5
	.loc 1 60 41
	slli	s5,a5,2
	add	a4,a2,s5
	lw	a5,4(a4)
	.loc 1 60 55
	sll	s3,a1,s1
	.loc 1 60 50
	and	a0,a5,s3
	.loc 1 60 12
	bne	a0,zero,.L12
	.loc 1 61 13 is_stmt 1
	.loc 1 61 49 is_stmt 0
	or	a5,a5,s3
	sw	a5,4(a4)
	.loc 1 62 13 is_stmt 1
.LVL17:
	.loc 1 63 13
	.loc 1 67 5
	.loc 1 71 5
	.loc 1 71 9 is_stmt 0
	li	a0,16
	call	pvPortMalloc
.LVL18:
	mv	s0,a0
.LVL19:
	.loc 1 73 5 is_stmt 1
	.loc 1 73 10
	.loc 1 73 13 is_stmt 0
	bne	a0,zero,.L19
	.loc 1 73 9 is_stmt 1 discriminator 1
	lui	a0,%hi(.LC0)
	addi	a0,a0,%lo(.LC0)
	call	puts
.LVL20:
	.loc 1 73 42 discriminator 1
	lui	a1,%hi(.LC1)
	lui	a0,%hi(.LC2)
	li	a2,73
	addi	a1,a1,%lo(.LC1)
	addi	a0,a0,%lo(.LC2)
	call	printf
.LVL21:
.L16:
	.loc 1 73 82 discriminator 1
	.loc 1 73 90 discriminator 1
	.loc 1 73 87 discriminator 1
	j	.L16
.LVL22:
.L12:
	.loc 1 59 31 discriminator 2
	.loc 1 59 32 is_stmt 0 discriminator 2
	addi	s1,s1,1
.LVL23:
	.loc 1 59 17 is_stmt 1 discriminator 2
	.loc 1 59 5 is_stmt 0 discriminator 2
	bne	s1,a3,.L15
	j	.L21
.LVL24:
.L19:
	.loc 1 73 101 is_stmt 1 discriminator 2
	.loc 1 75 5 discriminator 2
	.loc 1 80 11 is_stmt 0 discriminator 2
	lw	a5,0(s2)
	.loc 1 78 16 discriminator 2
	addi	s1,s1,2
.LVL25:
	.loc 1 75 13 discriminator 2
	sw	s4,0(a0)
	.loc 1 76 5 is_stmt 1 discriminator 2
	.loc 1 76 14 is_stmt 0 discriminator 2
	sw	zero,4(a0)
	.loc 1 77 5 is_stmt 1 discriminator 2
	.loc 1 77 15 is_stmt 0 discriminator 2
	sw	zero,8(a0)
	.loc 1 78 5 is_stmt 1 discriminator 2
	.loc 1 78 11 is_stmt 0 discriminator 2
	sw	s1,12(a0)
	.loc 1 80 5 is_stmt 1 discriminator 2
	.loc 1 80 11 is_stmt 0 discriminator 2
	mv	a1,a0
	lw	a0,0(a5)
	call	rb_tree_insert
.LVL26:
	.loc 1 80 8 discriminator 2
	bne	a0,zero,.L17
	.loc 1 81 9 is_stmt 1
	lw	a5,0(s2)
	.loc 1 81 49 is_stmt 0
	not	s3,s3
	.loc 1 82 9
	mv	a0,s0
	add	a5,a5,s5
	.loc 1 81 46
	lw	a4,4(a5)
	and	s3,a4,s3
	sw	s3,4(a5)
	.loc 1 82 9 is_stmt 1
	call	vPortFree
.LVL27:
	j	.L21
.L17:
.L10:
	.loc 1 86 5
	mv	a0,s4
	call	inode_ref
.LVL28:
	.loc 1 88 5
	.loc 1 88 12 is_stmt 0
	j	.L8
	.cfi_endproc
.LFE6:
	.size	new_file, .-new_file
	.section	.text.del_file,"ax",@progbits
	.align	1
	.globl	del_file
	.type	del_file, @function
del_file:
.LFB7:
	.loc 1 92 1 is_stmt 1
	.cfi_startproc
.LVL29:
	.loc 1 93 5
	.loc 1 94 5
	.loc 1 92 1 is_stmt 0
	addi	sp,sp,-16
	.cfi_def_cfa_offset 16
	sw	ra,12(sp)
	sw	s0,8(sp)
	.cfi_offset 1, -4
	.cfi_offset 8, -8
	.loc 1 92 1
	mv	s0,a0
	.loc 1 94 5
	lw	a0,0(a0)
.LVL30:
	call	inode_unref
.LVL31:
	.loc 1 95 5 is_stmt 1
	.loc 1 96 8 is_stmt 0
	lw	a4,12(s0)
	.loc 1 97 36
	li	a3,32
	.loc 1 97 42
	lui	a5,%hi(.LANCHOR0)
	.loc 1 96 8
	addi	a4,a4,-2
	.loc 1 97 42
	lw	a2,%lo(.LANCHOR0)(a5)
	.loc 1 97 36
	div	a5,a4,a3
	.loc 1 95 16
	sw	zero,0(s0)
	.loc 1 96 5 is_stmt 1
.LVL32:
	.loc 1 97 5
	.loc 1 98 5 is_stmt 0
	mv	a1,s0
	.loc 1 97 56
	rem	a4,a4,a3
.LVL33:
	slli	a5,a5,2
	add	a5,a2,a5
	.loc 1 97 49
	li	a3,1
	sll	a4,a3,a4
	.loc 1 97 42
	lw	a3,4(a5)
	.loc 1 97 45
	not	a4,a4
	.loc 1 97 42
	and	a4,a3,a4
	sw	a4,4(a5)
.LVL34:
	.loc 1 98 5 is_stmt 1
	lw	a0,0(a2)
	call	rb_tree_remove
.LVL35:
	.loc 1 99 5
	mv	a0,s0
	.loc 1 100 1 is_stmt 0
	lw	s0,8(sp)
	.cfi_restore 8
.LVL36:
	lw	ra,12(sp)
	.cfi_restore 1
	addi	sp,sp,16
	.cfi_def_cfa_offset 0
	.loc 1 99 5
	tail	vPortFree
.LVL37:
	.cfi_endproc
.LFE7:
	.size	del_file, .-del_file
	.section	.text.get_fd,"ax",@progbits
	.align	1
	.globl	get_fd
	.type	get_fd, @function
get_fd:
.LFB8:
	.loc 1 103 1 is_stmt 1
	.cfi_startproc
.LVL38:
	.loc 1 104 5
	.loc 1 105 1 is_stmt 0
	lw	a0,12(a0)
.LVL39:
	ret
	.cfi_endproc
.LFE8:
	.size	get_fd, .-get_fd
	.section	.text.get_file,"ax",@progbits
	.align	1
	.globl	get_file
	.type	get_file, @function
get_file:
.LFB9:
	.loc 1 108 1 is_stmt 1
	.cfi_startproc
.LVL40:
	.loc 1 109 5
	.loc 1 110 5
	.loc 1 110 8 is_stmt 0
	blt	a0,zero,.L27
	.loc 1 113 5 is_stmt 1
	.loc 1 115 22 is_stmt 0
	lui	a5,%hi(.LANCHOR0)
	lw	a5,%lo(.LANCHOR0)(a5)
	.loc 1 108 1
	addi	sp,sp,-32
	.cfi_def_cfa_offset 32
	sw	ra,28(sp)
	.cfi_offset 1, -4
	.loc 1 113 10
	sw	a0,12(sp)
	.loc 1 115 5 is_stmt 1
	.loc 1 115 22 is_stmt 0
	lw	a0,0(a5)
.LVL41:
	mv	a1,sp
	call	rb_tree_find
.LVL42:
	.loc 1 116 1
	lw	ra,28(sp)
	.cfi_restore 1
	addi	sp,sp,32
	.cfi_def_cfa_offset 0
	jr	ra
.LVL43:
.L27:
	.loc 1 111 15
	li	a0,0
.LVL44:
	.loc 1 116 1
	ret
	.cfi_endproc
.LFE9:
	.size	get_file, .-get_file
	.section	.text.get_all_file,"ax",@progbits
	.align	1
	.globl	get_all_file
	.type	get_all_file, @function
get_all_file:
.LFB10:
	.loc 1 119 1 is_stmt 1
	.cfi_startproc
.LVL45:
	.loc 1 120 5
	.loc 1 121 5
	.loc 1 122 5
	.loc 1 119 1 is_stmt 0
	addi	sp,sp,-32
	.cfi_def_cfa_offset 32
	sw	s3,12(sp)
	.cfi_offset 19, -20
	.loc 1 122 45
	lui	s3,%hi(.LANCHOR0)
	.loc 1 119 1
	sw	s0,24(sp)
	sw	s4,8(sp)
	sw	ra,28(sp)
	sw	s1,20(sp)
	sw	s2,16(sp)
	.cfi_offset 8, -8
	.cfi_offset 20, -24
	.cfi_offset 1, -4
	.cfi_offset 9, -12
	.cfi_offset 18, -16
	.loc 1 122 45
	addi	s3,s3,%lo(.LANCHOR0)
	.loc 1 122 16
	lw	a5,0(s3)
	.loc 1 119 1
	mv	s4,a0
	mv	s0,a1
	.loc 1 122 16
	lw	a0,0(a5)
.LVL46:
	call	rb_tree_size
.LVL47:
	.loc 1 124 5 is_stmt 1
	.loc 1 124 8 is_stmt 0
	bne	a0,zero,.L33
.LVL48:
.L48:
	.loc 1 140 9 is_stmt 1
	.loc 1 141 9
	.loc 1 140 18 is_stmt 0
	li	s2,0
.LVL49:
.L32:
	.loc 1 155 1
	lw	ra,28(sp)
	.cfi_remember_state
	.cfi_restore 1
	lw	s0,24(sp)
	.cfi_restore 8
	lw	s1,20(sp)
	.cfi_restore 9
	lw	s3,12(sp)
	.cfi_restore 19
	lw	s4,8(sp)
	.cfi_restore 20
.LVL50:
	mv	a0,s2
	lw	s2,16(sp)
	.cfi_restore 18
	addi	sp,sp,32
	.cfi_def_cfa_offset 0
	jr	ra
.LVL51:
.L33:
	.cfi_restore_state
	mv	s2,a0
	.loc 1 128 5 is_stmt 1
.LVL52:
	.loc 1 129 5
	.loc 1 129 12 is_stmt 0
	call	rb_iter_create
.LVL53:
	mv	s1,a0
.LVL54:
	.loc 1 131 5 is_stmt 1
	.loc 1 131 8 is_stmt 0
	beq	a0,zero,.L48
	.loc 1 136 5 is_stmt 1
	.loc 1 136 15 is_stmt 0
	lw	a5,0(s3)
	lw	a1,0(a5)
	call	rb_iter_first
.LVL55:
	.loc 1 136 13
	sw	a0,0(s4)
	.loc 1 138 5 is_stmt 1
	.loc 1 138 8 is_stmt 0
	beq	a0,zero,.L36
	.loc 1 128 14
	bleu	s0,s2,.L37
	mv	s0,s2
.LVL56:
.L37:
.LBB2:
	.loc 1 144 14
	li	s3,1
.LVL57:
.L38:
	.loc 1 144 21 is_stmt 1 discriminator 1
	mv	s2,s3
	.loc 1 144 5 is_stmt 0 discriminator 1
	bgtu	s0,s3,.L40
	mv	s2,s0
.L39:
.L34:
.LVL58:
.LBE2:
	.loc 1 152 5 is_stmt 1
	mv	a0,s1
	call	rb_iter_dealloc
.LVL59:
	.loc 1 154 5
	.loc 1 154 12 is_stmt 0
	j	.L32
.LVL60:
.L36:
	.loc 1 139 9 is_stmt 1
	mv	a0,s1
	call	rb_iter_dealloc
.LVL61:
	j	.L48
.LVL62:
.L40:
.LBB3:
	.loc 1 145 9
	.loc 1 145 19 is_stmt 0
	mv	a0,s1
	call	rb_iter_next
.LVL63:
	.loc 1 145 17
	slli	a5,s3,2
	add	a5,s4,a5
	sw	a0,0(a5)
	.loc 1 146 9 is_stmt 1
	.loc 1 146 12 is_stmt 0
	beq	a0,zero,.L39
	.loc 1 144 35 is_stmt 1 discriminator 2
	.loc 1 144 36 is_stmt 0 discriminator 2
	addi	s3,s3,1
.LVL64:
	j	.L38
.LBE3:
	.cfi_endproc
.LFE10:
	.size	get_all_file, .-get_all_file
	.section	.sbss.files_handle_dev,"aw",@nobits
	.align	2
	.set	.LANCHOR0,. + 0
	.type	files_handle_dev, @object
	.size	files_handle_dev, 4
files_handle_dev:
	.zero	4
	.text
.Letext0:
	.file 2 "/mnt/d/GitHub/bl_iot_sdk_for_aithinker/toolchain/riscv/Linux/lib/gcc/riscv64-unknown-elf/10.2.0/include/stddef.h"
	.file 3 "/mnt/d/GitHub/bl_iot_sdk_for_aithinker/toolchain/riscv/Linux/lib/gcc/riscv64-unknown-elf/10.2.0/include/stdint-gcc.h"
	.file 4 "/mnt/d/GitHub/bl_iot_sdk_for_aithinker/toolchain/riscv/Linux/riscv64-unknown-elf/include/machine/_default_types.h"
	.file 5 "/mnt/d/GitHub/bl_iot_sdk_for_aithinker/toolchain/riscv/Linux/riscv64-unknown-elf/include/sys/_types.h"
	.file 6 "/mnt/d/GitHub/bl_iot_sdk_for_aithinker/toolchain/riscv/Linux/riscv64-unknown-elf/include/sys/_timeval.h"
	.file 7 "/mnt/d/GitHub/bl_iot_sdk_for_aithinker/toolchain/riscv/Linux/riscv64-unknown-elf/include/sys/_timespec.h"
	.file 8 "/mnt/d/GitHub/bl_iot_sdk_for_aithinker/toolchain/riscv/Linux/riscv64-unknown-elf/include/sys/types.h"
	.file 9 "/mnt/d/GitHub/bl_iot_sdk_for_aithinker/toolchain/riscv/Linux/riscv64-unknown-elf/include/sys/stat.h"
	.file 10 "/mnt/d/GitHub/bl_iot_sdk_for_aithinker/components/fs/vfs/include/vfs_dir.h"
	.file 11 "/mnt/d/GitHub/bl_iot_sdk_for_aithinker/components/fs/vfs/include/vfs_inode.h"
	.file 12 "/mnt/d/GitHub/bl_iot_sdk_for_aithinker/components/utils/include/utils_rbtree.h"
	.file 13 "/mnt/d/GitHub/bl_iot_sdk_for_aithinker/components/platform/soc/bl602/freertos_riscv_ram/config/portable.h"
	.file 14 "/mnt/d/GitHub/bl_iot_sdk_for_aithinker/toolchain/riscv/Linux/riscv64-unknown-elf/include/stdio.h"
	.file 15 "/mnt/d/GitHub/bl_iot_sdk_for_aithinker/toolchain/riscv/Linux/riscv64-unknown-elf/include/string.h"