	.file	"vfs_register.c"
	.option nopic
	.attribute arch, "rv32i2p0_m2p0_f2p0_c2p0"
	.attribute unaligned_access, 0
	.attribute stack_align, 16
	.text
.Ltext0:
	.cfi_sections	.debug_frame
	.section	.text.aos_register_driver,"ax",@progbits
	.align	1
	.globl	aos_register_driver
	.type	aos_register_driver, @function
aos_register_driver:
.LFB1:
	.file 1 "/mnt/d/GitHub/bl_iot_sdk_for_aithinker/components/fs/vfs/src/vfs_register.c"
	.loc 1 15 1
	.cfi_startproc
.LVL0:
	.loc 1 16 5
	.loc 1 15 1 is_stmt 0
	addi	sp,sp,-48
	.cfi_def_cfa_offset 48
	sw	s1,36(sp)
	.cfi_offset 9, -12
	.loc 1 19 33
	lui	s1,%hi(g_vfs_mutex)
	.loc 1 15 1
	sw	s5,20(sp)
	.cfi_offset 21, -28
	mv	s5,a0
	.loc 1 19 33
	lw	a0,%lo(g_vfs_mutex)(s1)
.LVL1:
	.loc 1 15 1
	sw	s4,24(sp)
	.cfi_offset 20, -24
	mv	s4,a1
	.loc 1 19 33
	li	a1,-1
.LVL2:
	.loc 1 15 1
	sw	s3,28(sp)
	sw	ra,44(sp)
	sw	s0,40(sp)
	sw	s2,32(sp)
	.cfi_offset 19, -20
	.cfi_offset 1, -4
	.cfi_offset 8, -8
	.cfi_offset 18, -16
	.loc 1 15 1
	mv	s3,a2
	.loc 1 16 14
	sw	zero,12(sp)
	.loc 1 17 5 is_stmt 1
	.loc 1 19 5
	.loc 1 19 33 is_stmt 0
	call	xQueueSemaphoreTake
.LVL3:
	.loc 1 19 8
	li	a5,1
	bne	a0,a5,.L5
	mv	s2,a0
	.loc 1 24 5 is_stmt 1
	.loc 1 24 11 is_stmt 0
	addi	a1,sp,12
	mv	a0,s5
	call	inode_reserve
.LVL4:
	mv	s0,a0
.LVL5:
	.loc 1 25 5 is_stmt 1
	.loc 1 25 8 is_stmt 0
	bne	a0,zero,.L3
	.loc 1 27 9 is_stmt 1
	.loc 1 27 14
	.loc 1 27 20 is_stmt 0
	lw	a5,12(sp)
	.loc 1 29 25
	sw	s4,0(a5)
	.loc 1 27 27
	sb	s2,16(a5)
	.loc 1 27 57 is_stmt 1
	.loc 1 29 9
	.loc 1 30 9
	.loc 1 30 21 is_stmt 0
	lw	a5,12(sp)
	sw	s3,4(a5)
.L3:
	.loc 1 34 5 is_stmt 1
	.loc 1 34 33 is_stmt 0
	lw	a0,%lo(g_vfs_mutex)(s1)
	li	a3,0
	li	a2,0
	li	a1,0
	call	xQueueGenericSend
.LVL6:
	.loc 1 34 8
	li	a5,1
	beq	a0,a5,.L1
	.loc 1 35 9 is_stmt 1
.LVL7:
	.loc 1 36 9
	.loc 1 36 17 is_stmt 0
	lw	a5,12(sp)
	lw	a0,8(a5)
	.loc 1 36 12
	beq	a0,zero,.L4
	.loc 1 37 13 is_stmt 1
	call	vPortFree
.LVL8:
.L4:
	.loc 1 40 9
	lw	a0,12(sp)
	li	a2,20
	li	a1,0
	call	memset
.LVL9:
	.loc 1 41 9
.L5:
	.loc 1 21 16 is_stmt 0
	li	s0,-1
.L1:
	.loc 1 45 1
	lw	ra,44(sp)
	.cfi_restore 1
	mv	a0,s0
	lw	s0,40(sp)
	.cfi_restore 8
	lw	s1,36(sp)
	.cfi_restore 9
	lw	s2,32(sp)
	.cfi_restore 18
	lw	s3,28(sp)
	.cfi_restore 19
.LVL10:
	lw	s4,24(sp)
	.cfi_restore 20
.LVL11:
	lw	s5,20(sp)
	.cfi_restore 21
.LVL12:
	addi	sp,sp,48
	.cfi_def_cfa_offset 0
	jr	ra
	.cfi_endproc
.LFE1:
	.size	aos_register_driver, .-aos_register_driver
	.section	.text.aos_unregister_driver,"ax",@progbits
	.align	1
	.globl	aos_unregister_driver
	.type	aos_unregister_driver, @function
aos_unregister_driver:
.LFB2:
	.loc 1 48 1 is_stmt 1
	.cfi_startproc
.LVL13:
	.loc 1 49 5
	.loc 1 51 5
	.loc 1 48 1 is_stmt 0
	addi	sp,sp,-16
	.cfi_def_cfa_offset 16
	sw	s2,0(sp)
	.cfi_offset 18, -16
	.loc 1 51 33
	lui	s2,%hi(g_vfs_mutex)
	.loc 1 48 1
	sw	s0,8(sp)
	.cfi_offset 8, -8
	mv	s0,a0
	.loc 1 51 33
	lw	a0,%lo(g_vfs_mutex)(s2)
.LVL14:
	li	a1,-1
	.loc 1 48 1
	sw	ra,12(sp)
	sw	s1,4(sp)
	.cfi_offset 1, -4
	.cfi_offset 9, -12
	.loc 1 51 33
	call	xQueueSemaphoreTake
.LVL15:
	.loc 1 51 8
	li	a5,1
	bne	a0,a5,.L11
	mv	s1,a0
	.loc 1 56 5 is_stmt 1
	.loc 1 56 11 is_stmt 0
	mv	a0,s0
	call	inode_release
.LVL16:
	mv	s0,a0
.LVL17:
	.loc 1 58 5 is_stmt 1
	.loc 1 58 33 is_stmt 0
	lw	a0,%lo(g_vfs_mutex)(s2)
	li	a3,0
	li	a2,0
	li	a1,0
	call	xQueueGenericSend
.LVL18:
	.loc 1 58 8
	beq	a0,s1,.L10
.LVL19:
.L11:
	.loc 1 59 9 is_stmt 1
	.loc 1 60 9
	.loc 1 60 16 is_stmt 0
	li	s0,-1
.LVL20:
.L10:
	.loc 1 64 1
	lw	ra,12(sp)
	.cfi_restore 1
	mv	a0,s0
	lw	s0,8(sp)
	.cfi_restore 8
	lw	s1,4(sp)
	.cfi_restore 9
	lw	s2,0(sp)
	.cfi_restore 18
	addi	sp,sp,16
	.cfi_def_cfa_offset 0
	jr	ra
	.cfi_endproc
.LFE2:
	.size	aos_unregister_driver, .-aos_unregister_driver
	.section	.text.aos_register_fs,"ax",@progbits
	.align	1
	.globl	aos_register_fs
	.type	aos_register_fs, @function
aos_register_fs:
.LFB3:
	.loc 1 67 1 is_stmt 1
	.cfi_startproc
.LVL21:
	.loc 1 68 5
	.loc 1 67 1 is_stmt 0
	addi	sp,sp,-48
	.cfi_def_cfa_offset 48
	sw	s1,36(sp)
	.cfi_offset 9, -12
	.loc 1 71 33
	lui	s1,%hi(g_vfs_mutex)
	.loc 1 67 1
	sw	s4,24(sp)
	.cfi_offset 20, -24
	mv	s4,a0
	.loc 1 71 33
	lw	a0,%lo(g_vfs_mutex)(s1)
.LVL22:
	.loc 1 67 1
	sw	s3,28(sp)
	.cfi_offset 19, -20
	mv	s3,a1
	.loc 1 71 33
	li	a1,-1
.LVL23:
	.loc 1 67 1
	sw	s2,32(sp)
	sw	ra,44(sp)
	sw	s0,40(sp)
	.cfi_offset 18, -16
	.cfi_offset 1, -4
	.cfi_offset 8, -8
	.loc 1 67 1
	mv	s2,a2
	.loc 1 68 14
	sw	zero,12(sp)
	.loc 1 69 5 is_stmt 1
	.loc 1 71 5
	.loc 1 71 33 is_stmt 0
	call	xQueueSemaphoreTake
.LVL24:
	.loc 1 71 8
	li	a5,1
	bne	a0,a5,.L18
	.loc 1 76 5 is_stmt 1
	.loc 1 76 11 is_stmt 0
	addi	a1,sp,12
	mv	a0,s4
	call	inode_reserve
.LVL25:
	mv	s0,a0
.LVL26:
	.loc 1 77 5 is_stmt 1
	.loc 1 77 8 is_stmt 0
	bne	a0,zero,.L16
	.loc 1 78 9 is_stmt 1
	.loc 1 78 14
	.loc 1 78 20 is_stmt 0
	lw	a5,12(sp)
	.loc 1 78 27
	li	a4,3
	.loc 1 80 26
	sw	s3,0(a5)
	.loc 1 78 27
	sb	a4,16(a5)
	.loc 1 78 55 is_stmt 1
	.loc 1 80 9
	.loc 1 81 9
	.loc 1 81 21 is_stmt 0
	lw	a5,12(sp)
	sw	s2,4(a5)
.L16:
	.loc 1 84 5 is_stmt 1
	.loc 1 84 33 is_stmt 0
	lw	a0,%lo(g_vfs_mutex)(s1)
	li	a3,0
	li	a2,0
	li	a1,0
	call	xQueueGenericSend
.LVL27:
	.loc 1 84 8
	li	a5,1
	beq	a0,a5,.L14
	.loc 1 85 9 is_stmt 1
.LVL28:
	.loc 1 86 9
	.loc 1 86 17 is_stmt 0
	lw	a5,12(sp)
	lw	a0,8(a5)
	.loc 1 86 12
	beq	a0,zero,.L17
	.loc 1 87 13 is_stmt 1
	call	vPortFree
.LVL29:
.L17:
	.loc 1 90 9
	lw	a0,12(sp)
	li	a2,20
	li	a1,0
	call	memset
.LVL30:
	.loc 1 91 9
.L18:
	.loc 1 73 16 is_stmt 0
	li	s0,-1
.L14:
	.loc 1 95 1
	lw	ra,44(sp)
	.cfi_restore 1
	mv	a0,s0
	lw	s0,40(sp)
	.cfi_restore 8
	lw	s1,36(sp)
	.cfi_restore 9
	lw	s2,32(sp)
	.cfi_restore 18
.LVL31:
	lw	s3,28(sp)
	.cfi_restore 19
.LVL32:
	lw	s4,24(sp)
	.cfi_restore 20
.LVL33:
	addi	sp,sp,48
	.cfi_def_cfa_offset 0
	jr	ra
	.cfi_endproc
.LFE3:
	.size	aos_register_fs, .-aos_register_fs
	.section	.text.aos_unregister_fs,"ax",@progbits
	.align	1
	.globl	aos_unregister_fs
	.type	aos_unregister_fs, @function
aos_unregister_fs:
.LFB6:
	.cfi_startproc
	tail	aos_unregister_driver
	.cfi_endproc
.LFE6:
	.size	aos_unregister_fs, .-aos_unregister_fs
	.text
.Letext0:
	.file 2 "/mnt/d/GitHub/bl_iot_sdk_for_aithinker/toolchain/riscv/Linux/lib/gcc/riscv64-unknown-elf/10.2.0/include/stddef.h"
	.file 3 "/mnt/d/GitHub/bl_iot_sdk_for_aithinker/toolchain/riscv/Linux/riscv64-unknown-elf/include/machine/_default_types.h"
	.file 4 "/mnt/d/GitHub/bl_iot_sdk_for_aithinker/toolchain/riscv/Linux/riscv64-unknown-elf/include/sys/_types.h"
	.file 5 "/mnt/d/GitHub/bl_iot_sdk_for_aithinker/toolchain/riscv/Linux/lib/gcc/riscv64-unknown-elf/10.2.0/include/stdint-gcc.h"
	.file 6 "/mnt/d/GitHub/bl_iot_sdk_for_aithinker/components/platform/soc/bl602/freertos_riscv_ram/portable/GCC/RISC-V/portmacro.h"
	.file 7 "/mnt/d/GitHub/bl_iot_sdk_for_aithinker/components/platform/soc/bl602/freertos_riscv_ram/config/queue.h"
	.file 8 "/mnt/d/GitHub/bl_iot_sdk_for_aithinker/components/platform/soc/bl602/freertos_riscv_ram/config/semphr.h"
	.file 9 "/mnt/d/GitHub/bl_iot_sdk_for_aithinker/toolchain/riscv/Linux/riscv64-unknown-elf/include/sys/_timeval.h"
	.file 10 "/mnt/d/GitHub/bl_iot_sdk_for_aithinker/toolchain/riscv/Linux/riscv64-unknown-elf/include/sys/_timespec.h"
	.file 11 "/mnt/d/GitHub/bl_iot_sdk_for_aithinker/toolchain/riscv/Linux/riscv64-unknown-elf/include/sys/types.h"
	.file 12 "/mnt/d/GitHub/bl_iot_sdk_for_aithinker/toolchain/riscv/Linux/riscv64-unknown-elf/include/sys/stat.h"
	.file 13 "/mnt/d/GitHub/bl_iot_sdk_for_aithinker/components/fs/vfs/include/vfs_dir.h"
	.file 14 "/mnt/d/GitHub/bl_iot_sdk_for_aithinker/components/fs/vfs/include/vfs_inode.h"
	.file 15 "/mnt/d/GitHub/bl_iot_sdk_for_aithinker/components/platform/soc/bl602/freertos_riscv_ram/config/portable.h"
	.file 16 "/mnt/d/GitHub/bl_iot_sdk_for_aithinker/toolchain/riscv/Linux/riscv64-unknown-elf/include/string.h"