	.file	"loopset_ir.c"
	.option nopic
	.attribute arch, "rv32i2p0_m2p0_f2p0_c2p0"
	.attribute unaligned_access, 0
	.attribute stack_align, 16
	.text
.Ltext0:
	.cfi_sections	.debug_frame
	.section	.text._ir_bloop_evt,"ax",@progbits
	.align	1
	.type	_ir_bloop_evt, @function
_ir_bloop_evt:
.LFB28:
	.file 1 "/mnt/d/GitHub/bl_iot_sdk_for_aithinker/components/sys/bloop/loopset/src/loopset_ir.c"
	.loc 1 23 1
	.cfi_startproc
.LVL0:
	.loc 1 24 5
	.loc 1 26 5
	.loc 1 23 1 is_stmt 0
	addi	sp,sp,-16
	.cfi_def_cfa_offset 16
	sw	ra,12(sp)
	.cfi_offset 1, -4
	.loc 1 26 12
	call	bl_receivedata
.LVL1:
	mv	a2,a0
.LVL2:
	.loc 1 27 5 is_stmt 1
	.loc 1 28 9 is_stmt 0
	li	a1,2
	.loc 1 27 8
	beq	a0,zero,.L5
	.loc 1 30 9 is_stmt 1
	li	a1,1
.L5:
	li	a0,6
.LVL3:
	call	aos_post_event
.LVL4:
	.loc 1 32 5
	call	bl_enable_rx_int
.LVL5:
	.loc 1 34 5
	.loc 1 35 1 is_stmt 0
	lw	ra,12(sp)
	.cfi_restore 1
	li	a0,0
	addi	sp,sp,16
	.cfi_def_cfa_offset 0
	jr	ra
	.cfi_endproc
.LFE28:
	.size	_ir_bloop_evt, .-_ir_bloop_evt
	.section	.rodata._ir_bloop_msg.str1.4,"aMS",@progbits,1
	.align	2
.LC0:
	.string	"loopset_ir.c"
	.align	2
.LC1:
	.string	"DEBUG"
	.align	2
.LC2:
	.string	"%s (%d)[%s:%4d] [IR] [MSG] called with msg info\r\n\r\n"
	.section	.text._ir_bloop_msg,"ax",@progbits
	.align	1
	.type	_ir_bloop_msg, @function
_ir_bloop_msg:
.LFB29:
	.loc 1 38 1 is_stmt 1
	.cfi_startproc
.LVL6:
	.loc 1 39 5
	.loc 1 39 43
	.loc 1 39 48
	.loc 1 39 70 is_stmt 0
	lui	a5,%hi(_fsymc_level_loopset)
	.loc 1 39 51
	lw	a4,%lo(_fsymc_level_loopset)(a5)
	li	a5,1
	bgtu	a4,a5,.L11
	.loc 1 39 116 discriminator 3
	lui	a4,%hi(_fsymf_level_loopsetloopset_ir)
	.loc 1 39 95 discriminator 3
	lw	a4,%lo(_fsymf_level_loopsetloopset_ir)(a4)
	bgtu	a4,a5,.L11
.LVL7:
.LBB4:
.LBB5:
	.loc 1 39 154 is_stmt 1
.LBE5:
.LBE4:
	.loc 1 38 1 is_stmt 0
	addi	sp,sp,-16
	.cfi_def_cfa_offset 16
	sw	ra,12(sp)
	.cfi_offset 1, -4
.LBB8:
.LBB6:
	.loc 1 39 239
	call	xPortIsInsideInterrupt
.LVL8:
	.loc 1 39 154
	beq	a0,zero,.L8
	.loc 1 39 268
	call	xTaskGetTickCountFromISR
.LVL9:
.L14:
	.loc 1 39 299
	mv	a2,a0
	.loc 1 39 154
	lui	a3,%hi(.LC0)
	lui	a1,%hi(.LC1)
	lui	a0,%hi(.LC2)
	addi	a0,a0,%lo(.LC2)
	li	a4,39
	addi	a3,a3,%lo(.LC0)
	addi	a1,a1,%lo(.LC1)
	call	bl_printk
.LVL10:
.LBE6:
.LBE8:
	.loc 1 39 352 is_stmt 1
	.loc 1 39 363
	.loc 1 41 5
	.loc 1 42 1 is_stmt 0
	lw	ra,12(sp)
	.cfi_remember_state
	.cfi_restore 1
	li	a0,0
	addi	sp,sp,16
	.cfi_def_cfa_offset 0
	jr	ra
.LVL11:
.L8:
	.cfi_restore_state
.LBB9:
.LBB7:
	.loc 1 39 299
	call	xTaskGetTickCount
.LVL12:
	j	.L14
.LVL13:
.L11:
	.cfi_def_cfa_offset 0
	.cfi_restore 1
.LBE7:
.LBE9:
	.loc 1 39 352 is_stmt 1
	.loc 1 39 363
	.loc 1 41 5
	.loc 1 42 1 is_stmt 0
	li	a0,0
.LVL14:
	ret
	.cfi_endproc
.LFE29:
	.size	_ir_bloop_msg, .-_ir_bloop_msg
	.section	.text.loopset_ir_hook_on_looprt,"ax",@progbits
	.align	1
	.globl	loopset_ir_hook_on_looprt
	.type	loopset_ir_hook_on_looprt, @function
loopset_ir_hook_on_looprt:
.LFB30:
	.loc 1 45 1 is_stmt 1
	.cfi_startproc
	.loc 1 46 5
	.loc 1 55 5
	.loc 1 55 12 is_stmt 0
	lui	a0,%hi(.LANCHOR0)
	li	a1,3
	addi	a0,a0,%lo(.LANCHOR0)
	tail	looprt_handler_register
.LVL15:
	.cfi_endproc
.LFE30:
	.size	loopset_ir_hook_on_looprt, .-loopset_ir_hook_on_looprt
	.section	.text.ir_async_post,"ax",@progbits
	.align	1
	.globl	ir_async_post
	.type	ir_async_post, @function
ir_async_post:
.LFB31:
	.loc 1 59 1 is_stmt 1
	.cfi_startproc
	.loc 1 60 5
	li	a1,1
	li	a0,3
	tail	looprt_evt_notify_async_fromISR
.LVL16:
	.cfi_endproc
.LFE31:
	.size	ir_async_post, .-ir_async_post
	.section	.rodata.str1.4,"aMS",@progbits,1
	.align	2
.LC3:
	.string	"IR Trigger"
	.globl	_fsymf_info_loopsetloopset_ir
	.align	2
.LC4:
	.string	"loopset.loopset_ir"
	.comm	_fsymf_level_loopsetloopset_ir,4,4
	.align	2
.LC5:
	.string	"loopset"
	.weak	_fsymc_level_loopset
	.section	.rodata._ir_bloop_handler_holder.0,"a"
	.align	2
	.set	.LANCHOR0,. + 0
	.type	_ir_bloop_handler_holder.0, @object
	.size	_ir_bloop_handler_holder.0, 12
_ir_bloop_handler_holder.0:
	.word	.LC3
	.word	_ir_bloop_evt
	.word	_ir_bloop_msg
	.section	.sbss._fsymc_level_loopset,"aw",@nobits
	.align	2
	.type	_fsymc_level_loopset, @object
	.size	_fsymc_level_loopset, 4
_fsymc_level_loopset:
	.zero	4
	.section	.srodata.BLOG_HARD_DECLARE_DISABLE,"a"
	.align	2
	.type	BLOG_HARD_DECLARE_DISABLE, @object
	.size	BLOG_HARD_DECLARE_DISABLE, 4
BLOG_HARD_DECLARE_DISABLE:
	.zero	4
	.section	.static_blogcomponent_code.loopset,"a"
	.align	2
	.type	_fsymc_info_loopset, @object
	.size	_fsymc_info_loopset, 8
_fsymc_info_loopset:
	.word	_fsymc_level_loopset
	.word	.LC5
	.section	.static_blogfile_code.loopsetloopset_ir,"a"
	.align	2
	.type	_fsymf_info_loopsetloopset_ir, @object
	.size	_fsymf_info_loopsetloopset_ir, 8
_fsymf_info_loopsetloopset_ir:
	.word	_fsymf_level_loopsetloopset_ir
	.word	.LC4
	.text
.Letext0:
	.file 2 "/mnt/d/GitHub/bl_iot_sdk_for_aithinker/toolchain/riscv/Linux/lib/gcc/riscv64-unknown-elf/10.2.0/include/stdint-gcc.h"
	.file 3 "/mnt/d/GitHub/bl_iot_sdk_for_aithinker/components/platform/soc/bl602/freertos_riscv_ram/config/task.h"
	.file 4 "/mnt/d/GitHub/bl_iot_sdk_for_aithinker/components/stage/blog/blog_type.h"
	.file 5 "/mnt/d/GitHub/bl_iot_sdk_for_aithinker/components/stage/blog/blog.h"
	.file 6 "/mnt/d/GitHub/bl_iot_sdk_for_aithinker/components/utils/include/utils_list.h"
	.file 7 "/mnt/d/GitHub/bl_iot_sdk_for_aithinker/components/sys/bloop/bloop/include/bloop.h"
	.file 8 "/mnt/d/GitHub/bl_iot_sdk_for_aithinker/components/sys/bloop/looprt/include/looprt.h"
	.file 9 "/mnt/d/GitHub/bl_iot_sdk_for_aithinker/components/platform/hosal/bl602_hal/bl_ir.h"
	.file 10 "/mnt/d/GitHub/bl_iot_sdk_for_aithinker/components/stage/yloop/include/aos/yloop.h"
	.file 11 "/mnt/d/GitHub/bl_iot_sdk_for_aithinker/components/platform/soc/bl602/freertos_riscv_ram/portable/GCC/RISC-V/portmacro.h"
	.file 12 "/mnt/d/GitHub/bl_iot_sdk_for_aithinker/components/utils/include/utils_log.h"