	.file	"loopset_led_cli.c"
	.option nopic
	.attribute arch, "rv32i2p0_m2p0_f2p0_c2p0"
	.attribute unaligned_access, 0
	.attribute stack_align, 16
	.text
.Ltext0:
	.cfi_sections	.debug_frame
	.section	.rodata.cmd_loopset_led_trigger.str1.4,"aMS",@progbits,1
	.align	2
.LC0:
	.string	"Usage: %s pin 0/1[0:Lo Active, 1:Hi Active] 0/1[0:Hearbeat, 1:Blink]\r\n"
	.align	2
.LC1:
	.string	"Illegal Params\r\n"
	.section	.text.cmd_loopset_led_trigger,"ax",@progbits
	.align	1
	.globl	cmd_loopset_led_trigger
	.type	cmd_loopset_led_trigger, @function
cmd_loopset_led_trigger:
.LFB3:
	.file 1 "/mnt/d/GitHub/bl_iot_sdk_for_aithinker/components/sys/bloop/loopset/src/loopset_led_cli.c"
	.loc 1 8 1
	.cfi_startproc
.LVL0:
	.loc 1 9 5
	.loc 1 10 5
	.loc 1 8 1 is_stmt 0
	addi	sp,sp,-16
	.cfi_def_cfa_offset 16
	sw	s0,8(sp)
	sw	ra,12(sp)
	sw	s1,4(sp)
	sw	s2,0(sp)
	.cfi_offset 8, -8
	.cfi_offset 1, -4
	.cfi_offset 9, -12
	.cfi_offset 18, -16
	.loc 1 10 8
	li	a5,4
	.loc 1 8 1
	mv	s0,a3
	.loc 1 10 8
	beq	a2,a5,.L2
	.loc 1 11 9 is_stmt 1
	.loc 1 24 1 is_stmt 0
	lw	s0,8(sp)
	.cfi_remember_state
	.cfi_restore 8
	lw	ra,12(sp)
	.cfi_restore 1
	lw	s1,4(sp)
	.cfi_restore 9
	lw	s2,0(sp)
	.cfi_restore 18
	.loc 1 11 9
	lw	a1,0(a3)
.LVL1:
	lui	a0,%hi(.LC0)
.LVL2:
	.loc 1 24 1
	.loc 1 11 9
	addi	a0,a0,%lo(.LC0)
	.loc 1 24 1
	addi	sp,sp,16
	.cfi_def_cfa_offset 0
	.loc 1 11 9
	tail	printf
.LVL3:
.L2:
	.cfi_restore_state
.LBB4:
.LBB5:
	.loc 1 16 5 is_stmt 1
	.loc 1 16 11 is_stmt 0
	lw	a0,4(a3)
.LVL4:
	call	atoi
.LVL5:
	mv	s1,a0
.LVL6:
	.loc 1 17 5 is_stmt 1
	.loc 1 17 14 is_stmt 0
	lw	a0,8(s0)
	call	atoi
.LVL7:
	mv	s2,a0
.LVL8:
	.loc 1 18 5 is_stmt 1
	.loc 1 18 12 is_stmt 0
	lw	a0,12(s0)
.LVL9:
	call	atoi
.LVL10:
	.loc 1 19 5 is_stmt 1
	.loc 1 19 8 is_stmt 0
	ble	s1,zero,.L3
	.loc 1 19 18
	blt	s2,zero,.L3
	.loc 1 19 32
	bge	a0,zero,.L4
.L3:
	.loc 1 20 9 is_stmt 1
.LBE5:
.LBE4:
	.loc 1 24 1 is_stmt 0
	lw	s0,8(sp)
	.cfi_remember_state
	.cfi_restore 8
.LVL11:
	lw	ra,12(sp)
	.cfi_restore 1
	lw	s1,4(sp)
	.cfi_restore 9
.LVL12:
	lw	s2,0(sp)
	.cfi_restore 18
.LVL13:
.LBB12:
.LBB6:
	.loc 1 20 9
	lui	a0,%hi(.LC1)
.LVL14:
.LBE6:
.LBE12:
	.loc 1 24 1
.LBB13:
.LBB7:
	.loc 1 20 9
	addi	a0,a0,%lo(.LC1)
.LBE7:
.LBE13:
	.loc 1 24 1
	addi	sp,sp,16
	.cfi_def_cfa_offset 0
.LBB14:
.LBB8:
	.loc 1 20 9
	tail	puts
.LVL15:
.L4:
	.cfi_restore_state
	.loc 1 23 5 is_stmt 1
.LBE8:
.LBE14:
	.loc 1 24 1 is_stmt 0
	lw	s0,8(sp)
	.cfi_restore 8
.LVL16:
	lw	ra,12(sp)
	.cfi_restore 1
	lw	s2,0(sp)
	.cfi_restore 18
.LVL17:
.LBB15:
.LBB9:
	.loc 1 23 5
	mv	a0,s1
.LVL18:
.LBE9:
.LBE15:
	.loc 1 24 1
	lw	s1,4(sp)
	.cfi_restore 9
.LVL19:
.LBB16:
.LBB10:
	.loc 1 23 5
	li	a1,100
.LBE10:
.LBE16:
	.loc 1 24 1
	addi	sp,sp,16
	.cfi_def_cfa_offset 0
.LBB17:
.LBB11:
	.loc 1 23 5
	tail	loopset_led_trigger
.LVL20:
.LBE11:
.LBE17:
	.cfi_endproc
.LFE3:
	.size	cmd_loopset_led_trigger, .-cmd_loopset_led_trigger
	.section	.text.loopset_led_cli_init,"ax",@progbits
	.align	1
	.globl	loopset_led_cli_init
	.type	loopset_led_cli_init, @function
loopset_led_cli_init:
.LFB4:
	.loc 1 32 1 is_stmt 1
	.cfi_startproc
	.loc 1 37 5
	.loc 1 38 1 is_stmt 0
	li	a0,0
	ret
	.cfi_endproc
.LFE4:
	.size	loopset_led_cli_init, .-loopset_led_cli_init
	.section	.rodata.str1.4,"aMS",@progbits,1
	.align	2
.LC2:
	.string	"loopset-led-trigger"
	.align	2
.LC3:
	.string	"Trigger LED on PIN"
	.section	.static_cli_cmds,"a"
	.align	2
	.type	cmds_user, @object
	.size	cmds_user, 12
cmds_user:
	.word	.LC2
	.word	.LC3
	.word	cmd_loopset_led_trigger
	.text
.Letext0:
	.file 2 "/mnt/d/GitHub/bl_iot_sdk_for_aithinker/components/stage/cli/cli/include/cli.h"
	.file 3 "/mnt/d/GitHub/bl_iot_sdk_for_aithinker/toolchain/riscv/Linux/riscv64-unknown-elf/include/stdlib.h"
	.file 4 "/mnt/d/GitHub/bl_iot_sdk_for_aithinker/toolchain/riscv/Linux/riscv64-unknown-elf/include/stdio.h"
	.file 5 "/mnt/d/GitHub/bl_iot_sdk_for_aithinker/components/sys/bloop/loopset/include/loopset.h"