	.file	"test_crypto-bl.c"
	.option nopic
	.attribute arch, "rv32i2p0_m2p0_f2p0_c2p0"
	.attribute unaligned_access, 0
	.attribute stack_align, 16
	.text
.Ltext0:
	.cfi_sections	.debug_frame
	.section	.rodata.wpa_crypto_tc_cmac_1.str1.4,"aMS",@progbits,1
	.align	2
.LC1:
	.string	"%s: LN %d failed\r\n"
	.align	2
.LC2:
	.string	"%s: succeed\r\n"
	.align	2
.LC0:
	.string	"\204\357\257\366\037g\343\334C\342\346\352\221\026d\037"
	.section	.text.wpa_crypto_tc_cmac_1,"ax",@progbits
	.align	1
	.globl	wpa_crypto_tc_cmac_1
	.type	wpa_crypto_tc_cmac_1, @function
wpa_crypto_tc_cmac_1:
.LFB46:
	.file 1 "/mnt/d/GitHub/bl_iot_sdk_for_aithinker/components/security/wpa_supplicant/test/test_crypto-bl.c"
	.loc 1 9 1
	.cfi_startproc
	.loc 1 10 5
	.loc 1 9 1 is_stmt 0
	addi	sp,sp,-80
	.cfi_def_cfa_offset 80
	.loc 1 13 19
	lui	a1,%hi(.LC0)
	.loc 1 11 13
	li	a5,171
	.loc 1 13 19
	li	a2,16
	addi	a1,a1,%lo(.LC0)
	addi	a0,sp,32
	.loc 1 9 1
	sw	ra,76(sp)
	sw	s0,72(sp)
	.cfi_offset 1, -4
	.cfi_offset 8, -8
	.loc 1 11 13
	sw	a5,16(sp)
	.loc 1 10 13
	sw	zero,0(sp)
	sw	zero,4(sp)
	sw	zero,8(sp)
	sw	zero,12(sp)
	.loc 1 11 5 is_stmt 1
	.loc 1 11 13 is_stmt 0
	sw	zero,20(sp)
	sw	zero,24(sp)
	sw	zero,28(sp)
	.loc 1 13 5 is_stmt 1
	.loc 1 13 19 is_stmt 0
	call	memcpy
.LVL0:
	.loc 1 14 5 is_stmt 1
	.loc 1 16 9 is_stmt 0
	li	a2,16
	addi	a3,sp,48
	addi	a1,sp,16
	mv	a0,sp
	.loc 1 14 13
	sw	zero,48(sp)
	sw	zero,52(sp)
	sw	zero,56(sp)
	sw	zero,60(sp)
	.loc 1 16 5 is_stmt 1
	.loc 1 16 9 is_stmt 0
	call	omac1_aes_128
.LVL1:
	lui	s0,%hi(.LANCHOR0)
	.loc 1 17 14
	li	a2,17
	.loc 1 16 8
	bne	a0,zero,.L7
	.loc 1 21 5 is_stmt 1
	.loc 1 21 14 is_stmt 0
	li	a2,16
	addi	a1,sp,32
	addi	a0,sp,48
	call	memcmp
.LVL2:
	.loc 1 21 8
	bne	a0,zero,.L4
	.loc 1 22 9 is_stmt 1
	.loc 1 22 14
	lui	a0,%hi(.LC2)
	addi	a1,s0,%lo(.LANCHOR0)
	addi	a0,a0,%lo(.LC2)
	call	printf
.LVL3:
	.loc 1 22 59
.L1:
	.loc 1 26 1 is_stmt 0
	lw	ra,76(sp)
	.cfi_remember_state
	.cfi_restore 1
	lw	s0,72(sp)
	.cfi_restore 8
	addi	sp,sp,80
	.cfi_def_cfa_offset 0
	jr	ra
.L4:
	.cfi_restore_state
	.loc 1 24 9 is_stmt 1
	.loc 1 24 14
	li	a2,24
.L7:
	lui	a0,%hi(.LC1)
	addi	a1,s0,%lo(.LANCHOR0)
	addi	a0,a0,%lo(.LC1)
	call	printf
.LVL4:
	.loc 1 24 68
	j	.L1
	.cfi_endproc
.LFE46:
	.size	wpa_crypto_tc_cmac_1, .-wpa_crypto_tc_cmac_1
	.section	.text.wpa_crypto_test,"ax",@progbits
	.align	1
	.globl	wpa_crypto_test
	.type	wpa_crypto_test, @function
wpa_crypto_test:
.LFB47:
	.loc 1 29 1
	.cfi_startproc
	.loc 1 30 5
	tail	wpa_crypto_tc_cmac_1
.LVL5:
	.cfi_endproc
.LFE47:
	.size	wpa_crypto_test, .-wpa_crypto_test
	.section	.rodata.__func__.0,"a"
	.align	2
	.set	.LANCHOR0,. + 0
	.type	__func__.0, @object
	.size	__func__.0, 21
__func__.0:
	.string	"wpa_crypto_tc_cmac_1"
	.text
.Letext0:
	.file 2 "/mnt/d/GitHub/bl_iot_sdk_for_aithinker/components/security/wpa_supplicant/src/crypto/aes.h"
	.file 3 "/mnt/d/GitHub/bl_iot_sdk_for_aithinker/toolchain/riscv/Linux/riscv64-unknown-elf/include/string.h"
	.file 4 "/mnt/d/GitHub/bl_iot_sdk_for_aithinker/toolchain/riscv/Linux/riscv64-unknown-elf/include/stdio.h"
	.file 5 "/mnt/d/GitHub/bl_iot_sdk_for_aithinker/toolchain/riscv/Linux/lib/gcc/riscv64-unknown-elf/10.2.0/include/stdint-gcc.h"
	.file 6 "<built-in>"