	.file	"api_lib.c"
	.option nopic
	.attribute arch, "rv32i2p0_m2p0_f2p0_c2p0"
	.attribute unaligned_access, 0
	.attribute stack_align, 16
	.text
.Ltext0:
	.cfi_sections	.debug_frame
	.section	.text.netconn_apimsg,"ax",@progbits
	.align	1
	.type	netconn_apimsg, @function
netconn_apimsg:
.LFB5:
	.file 1 "/mnt/d/GitHub/bl_iot_sdk_for_aithinker/components/network/lwip/src/api/api_lib.c"
	.loc 1 119 1
	.cfi_startproc
.LVL0:
	.loc 1 120 3
	.loc 1 131 3
	.loc 1 131 9 is_stmt 0
	lw	a2,0(a1)
	.loc 1 119 1
	addi	sp,sp,-16
	.cfi_def_cfa_offset 16
	sw	s0,8(sp)
	.loc 1 131 9
	addi	a2,a2,16
	.loc 1 119 1
	sw	ra,12(sp)
	.cfi_offset 8, -8
	.cfi_offset 1, -4
	.loc 1 119 1
	mv	s0,a1
	.loc 1 131 9
	call	tcpip_send_msg_wait_sem
.LVL1:
	.loc 1 132 3 is_stmt 1
	.loc 1 132 6 is_stmt 0
	bne	a0,zero,.L2
	.loc 1 133 5 is_stmt 1
	.loc 1 133 18 is_stmt 0
	lb	a0,4(s0)
.LVL2:
.L2:
	.loc 1 136 1
	lw	ra,12(sp)
	.cfi_restore 1
	lw	s0,8(sp)
	.cfi_restore 8
.LVL3:
	addi	sp,sp,16
	.cfi_def_cfa_offset 0
	jr	ra
	.cfi_endproc
.LFE5:
	.size	netconn_apimsg, .-netconn_apimsg
	.section	.text.netconn_close_shutdown,"ax",@progbits
	.align	1
	.type	netconn_close_shutdown, @function
netconn_close_shutdown:
.LFB29:
	.loc 1 1090 1 is_stmt 1
	.cfi_startproc
.LVL4:
	.loc 1 1091 3
	.loc 1 1092 3
	.loc 1 1093 3
	.loc 1 1095 3
	.loc 1 1095 8
	.loc 1 1095 11 is_stmt 0
	beq	a0,zero,.L6
	.loc 1 1095 25 is_stmt 1 discriminator 2
	.loc 1 1095 34 discriminator 2
	.loc 1 1097 3 discriminator 2
	.loc 1 1098 3 discriminator 2
	.loc 1 1090 1 is_stmt 0 discriminator 2
	addi	sp,sp,-64
	.cfi_def_cfa_offset 64
	sw	ra,60(sp)
	.cfi_offset 1, -4
	.loc 1 1101 19 discriminator 2
	sb	a1,20(sp)
	.loc 1 1098 12 discriminator 2
	sw	a0,12(sp)
	.loc 1 1101 3 is_stmt 1 discriminator 2
	.loc 1 1105 3 discriminator 2
	.loc 1 1105 29 is_stmt 0 discriminator 2
	call	sys_now
.LVL5:
	.loc 1 1105 27 discriminator 2
	sw	a0,24(sp)
	.loc 1 1111 3 is_stmt 1 discriminator 2
	.loc 1 1111 9 is_stmt 0 discriminator 2
	lui	a0,%hi(lwip_netconn_do_close)
	addi	a1,sp,12
	addi	a0,a0,%lo(lwip_netconn_do_close)
	call	netconn_apimsg
.LVL6:
	.loc 1 1112 3 is_stmt 1 discriminator 2
	.loc 1 1114 3 discriminator 2
	.loc 1 1115 1 is_stmt 0 discriminator 2
	lw	ra,60(sp)
	.cfi_restore 1
	addi	sp,sp,64
	.cfi_def_cfa_offset 0
	jr	ra
.LVL7:
.L6:
	.loc 1 1095 17
	li	a0,-16
.LVL8:
	.loc 1 1115 1
	ret
	.cfi_endproc
.LFE29:
	.size	netconn_close_shutdown, .-netconn_close_shutdown
	.section	.text.netconn_new_with_proto_and_callback,"ax",@progbits
	.align	1
	.globl	netconn_new_with_proto_and_callback
	.type	netconn_new_with_proto_and_callback, @function
netconn_new_with_proto_and_callback:
.LFB6:
	.loc 1 150 1 is_stmt 1
	.cfi_startproc
.LVL9:
	.loc 1 151 3
	.loc 1 152 3
	.loc 1 153 3
	.loc 1 155 3
	.loc 1 150 1 is_stmt 0
	addi	sp,sp,-64
	.cfi_def_cfa_offset 64
	sw	s1,52(sp)
	.cfi_offset 9, -12
	mv	s1,a1
	.loc 1 155 10
	mv	a1,a2
.LVL10:
	.loc 1 150 1
	sw	s0,56(sp)
	sw	ra,60(sp)
	sw	s2,48(sp)
	.cfi_offset 8, -8
	.cfi_offset 1, -4
	.cfi_offset 18, -16
	.loc 1 155 10
	call	netconn_alloc
.LVL11:
	mv	s0,a0
.LVL12:
	.loc 1 156 3 is_stmt 1
	.loc 1 156 6 is_stmt 0
	beq	a0,zero,.L11
.LBB2:
	.loc 1 157 5 is_stmt 1
	.loc 1 159 5
	.loc 1 160 14 is_stmt 0
	sw	a0,12(sp)
	.loc 1 161 11
	lui	a0,%hi(lwip_netconn_do_newconn)
	addi	a1,sp,12
	addi	a0,a0,%lo(lwip_netconn_do_newconn)
	.loc 1 159 21
	sb	s1,20(sp)
	.loc 1 160 5 is_stmt 1
	.loc 1 161 5
	.loc 1 161 11 is_stmt 0
	call	netconn_apimsg
.LVL13:
	.loc 1 162 5 is_stmt 1
	.loc 1 162 8 is_stmt 0
	beq	a0,zero,.L11
	.loc 1 163 7 is_stmt 1
	.loc 1 163 12
	.loc 1 163 11
	.loc 1 163 21
	.loc 1 164 7
	.loc 1 164 12
	.loc 1 164 18 is_stmt 0
	addi	s1,s0,20
	mv	a0,s1
.LVL14:
	call	sys_mbox_valid
.LVL15:
	.loc 1 164 54 is_stmt 1
	.loc 1 164 64
	.loc 1 166 7
	.loc 1 166 12
	.loc 1 166 19 is_stmt 0
	addi	a0,s0,24
	call	sys_mbox_valid
.LVL16:
	.loc 1 166 57 is_stmt 1
	.loc 1 166 67
	.loc 1 169 7
	.loc 1 169 12
	.loc 1 169 18 is_stmt 0
	addi	s2,s0,16
	mv	a0,s2
	call	sys_sem_valid
.LVL17:
	.loc 1 169 57 is_stmt 1
	.loc 1 169 67
	.loc 1 170 7
	mv	a0,s2
	call	sys_sem_free
.LVL18:
	.loc 1 172 7
	mv	a0,s1
	call	sys_mbox_free
.LVL19:
	.loc 1 173 7
	mv	a1,s0
	li	a0,7
	call	memp_free
.LVL20:
	.loc 1 174 7
	.loc 1 175 7
	.loc 1 175 13 is_stmt 0
	li	s0,0
.LVL21:
.L11:
.LBE2:
	.loc 1 180 1
	lw	ra,60(sp)
	.cfi_restore 1
	mv	a0,s0
	lw	s0,56(sp)
	.cfi_restore 8
	lw	s1,52(sp)
	.cfi_restore 9
	lw	s2,48(sp)
	.cfi_restore 18
	addi	sp,sp,64
	.cfi_def_cfa_offset 0
	jr	ra
	.cfi_endproc
.LFE6:
	.size	netconn_new_with_proto_and_callback, .-netconn_new_with_proto_and_callback
	.section	.text.netconn_prepare_delete,"ax",@progbits
	.align	1
	.globl	netconn_prepare_delete
	.type	netconn_prepare_delete, @function
netconn_prepare_delete:
.LFB7:
	.loc 1 193 1 is_stmt 1
	.cfi_startproc
.LVL22:
	.loc 1 194 3
	.loc 1 195 3
	.loc 1 198 3
	.loc 1 198 6 is_stmt 0
	beq	a0,zero,.L22
.LVL23:
.LBB5:
.LBB6:
	.loc 1 202 3 is_stmt 1
	.loc 1 203 3
.LBE6:
.LBE5:
	.loc 1 193 1 is_stmt 0
	addi	sp,sp,-64
	.cfi_def_cfa_offset 64
	sw	ra,60(sp)
	.cfi_offset 1, -4
.LBB8:
.LBB7:
	.loc 1 203 12
	sw	a0,12(sp)
	.loc 1 207 3 is_stmt 1
	.loc 1 207 29 is_stmt 0
	call	sys_now
.LVL24:
	.loc 1 207 27
	sw	a0,24(sp)
	.loc 1 214 3 is_stmt 1
	.loc 1 214 9 is_stmt 0
	lui	a0,%hi(lwip_netconn_do_delconn)
	addi	a1,sp,12
	addi	a0,a0,%lo(lwip_netconn_do_delconn)
	call	netconn_apimsg
.LVL25:
	.loc 1 215 3 is_stmt 1
	.loc 1 217 3
.LBE7:
.LBE8:
	.loc 1 221 1 is_stmt 0
	lw	ra,60(sp)
	.cfi_restore 1
	addi	sp,sp,64
	.cfi_def_cfa_offset 0
	jr	ra
.LVL26:
.L22:
	.loc 1 199 12
	li	a0,0
.LVL27:
	.loc 1 221 1
	ret
	.cfi_endproc
.LFE7:
	.size	netconn_prepare_delete, .-netconn_prepare_delete
	.section	.text.netconn_delete,"ax",@progbits
	.align	1
	.globl	netconn_delete
	.type	netconn_delete, @function
netconn_delete:
.LFB8:
	.loc 1 234 1 is_stmt 1
	.cfi_startproc
.LVL28:
	.loc 1 235 3
	.loc 1 238 3
	.loc 1 234 1 is_stmt 0
	addi	sp,sp,-16
	.cfi_def_cfa_offset 16
	sw	s0,8(sp)
	sw	ra,12(sp)
	sw	s1,4(sp)
	.cfi_offset 8, -8
	.cfi_offset 1, -4
	.cfi_offset 9, -12
	.loc 1 239 12
	li	s0,0
	.loc 1 238 6
	beq	a0,zero,.L28
	mv	s1,a0
	.loc 1 249 5 is_stmt 1
	.loc 1 249 11 is_stmt 0
	call	netconn_prepare_delete
.LVL29:
	mv	s0,a0
.LVL30:
	.loc 1 251 3 is_stmt 1
	.loc 1 251 6 is_stmt 0
	bne	a0,zero,.L28
	.loc 1 252 5 is_stmt 1
	mv	a0,s1
.LVL31:
	call	netconn_free
.LVL32:
.L28:
	.loc 1 255 1 is_stmt 0
	lw	ra,12(sp)
	.cfi_restore 1
	mv	a0,s0
	lw	s0,8(sp)
	.cfi_restore 8
	lw	s1,4(sp)
	.cfi_restore 9
	addi	sp,sp,16
	.cfi_def_cfa_offset 0
	jr	ra
	.cfi_endproc
.LFE8:
	.size	netconn_delete, .-netconn_delete
	.section	.text.netconn_getaddr,"ax",@progbits
	.align	1
	.globl	netconn_getaddr
	.type	netconn_getaddr, @function
netconn_getaddr:
.LFB9:
	.loc 1 270 1 is_stmt 1
	.cfi_startproc
.LVL33:
	.loc 1 271 3
	.loc 1 272 3
	.loc 1 274 3
	.loc 1 274 8
	.loc 1 274 11 is_stmt 0
	beq	a0,zero,.L33
	mv	a5,a0
	.loc 1 274 25 is_stmt 1 discriminator 2
	.loc 1 274 34 discriminator 2
	.loc 1 275 3 discriminator 2
	.loc 1 275 8 discriminator 2
	.loc 1 274 17 is_stmt 0 discriminator 2
	li	a0,-16
.LVL34:
	.loc 1 275 11 discriminator 2
	beq	a1,zero,.L37
	.loc 1 275 25 is_stmt 1 discriminator 2
	.loc 1 275 34 discriminator 2
	.loc 1 276 3 discriminator 2
	.loc 1 276 8 discriminator 2
	.loc 1 276 11 is_stmt 0 discriminator 2
	beq	a2,zero,.L37
	.loc 1 276 25 is_stmt 1 discriminator 2
	.loc 1 276 34 discriminator 2
	.loc 1 278 3 discriminator 2
	.loc 1 279 3 discriminator 2
	.loc 1 270 1 is_stmt 0 discriminator 2
	addi	sp,sp,-64
	.cfi_def_cfa_offset 64
	.loc 1 288 9 discriminator 2
	lui	a0,%hi(lwip_netconn_do_getaddr)
	.loc 1 286 21 discriminator 2
	sw	a1,20(sp)
	.loc 1 288 9 discriminator 2
	addi	a0,a0,%lo(lwip_netconn_do_getaddr)
	addi	a1,sp,12
.LVL35:
	.loc 1 270 1 discriminator 2
	sw	ra,60(sp)
	.cfi_offset 1, -4
	.loc 1 279 12 discriminator 2
	sw	a5,12(sp)
	.loc 1 280 3 is_stmt 1 discriminator 2
	.loc 1 280 20 is_stmt 0 discriminator 2
	sb	a3,28(sp)
	.loc 1 286 3 is_stmt 1 discriminator 2
	.loc 1 287 3 discriminator 2
	.loc 1 287 19 is_stmt 0 discriminator 2
	sw	a2,24(sp)
	.loc 1 288 3 is_stmt 1 discriminator 2
	.loc 1 288 9 is_stmt 0 discriminator 2
	call	netconn_apimsg
.LVL36:
	.loc 1 290 3 is_stmt 1 discriminator 2
	.loc 1 292 3 discriminator 2
	.loc 1 293 1 is_stmt 0 discriminator 2
	lw	ra,60(sp)
	.cfi_restore 1
	addi	sp,sp,64
	.cfi_def_cfa_offset 0
	jr	ra
.LVL37:
.L33:
	.loc 1 274 17
	li	a0,-16
.LVL38:
	ret
.LVL39:
.L37:
	.loc 1 293 1
	ret
	.cfi_endproc
.LFE9:
	.size	netconn_getaddr, .-netconn_getaddr
	.section	.text.netconn_bind,"ax",@progbits
	.align	1
	.globl	netconn_bind
	.type	netconn_bind, @function
netconn_bind:
.LFB10:
	.loc 1 308 1 is_stmt 1
	.cfi_startproc
.LVL40:
	.loc 1 309 3
	.loc 1 310 3
	.loc 1 312 3
	.loc 1 312 8
	.loc 1 312 11 is_stmt 0
	beq	a0,zero,.L43
	.loc 1 312 25 is_stmt 1 discriminator 2
	.loc 1 312 34 discriminator 2
	.loc 1 316 3 discriminator 2
	.loc 1 308 1 is_stmt 0 discriminator 2
	addi	sp,sp,-64
	.cfi_def_cfa_offset 64
	sw	ra,60(sp)
	.cfi_offset 1, -4
	.loc 1 316 6 discriminator 2
	bne	a1,zero,.L42
	.loc 1 317 10
	lui	a1,%hi(ip_addr_any)
.LVL41:
	addi	a1,a1,%lo(ip_addr_any)
.L42:
.LVL42:
	.loc 1 331 3 is_stmt 1
	.loc 1 332 3
	.loc 1 332 12 is_stmt 0
	sw	a0,12(sp)
	.loc 1 333 3 is_stmt 1
	.loc 1 335 9 is_stmt 0
	lui	a0,%hi(lwip_netconn_do_bind)
.LVL43:
	.loc 1 333 21
	sw	a1,20(sp)
	.loc 1 334 3 is_stmt 1
	.loc 1 335 9 is_stmt 0
	addi	a0,a0,%lo(lwip_netconn_do_bind)
	addi	a1,sp,12
.LVL44:
	.loc 1 334 19
	sh	a2,24(sp)
	.loc 1 335 3 is_stmt 1
	.loc 1 335 9 is_stmt 0
	call	netconn_apimsg
.LVL45:
	.loc 1 336 3 is_stmt 1
	.loc 1 338 3
	.loc 1 339 1 is_stmt 0
	lw	ra,60(sp)
	.cfi_restore 1
	addi	sp,sp,64
	.cfi_def_cfa_offset 0
	jr	ra
.LVL46:
.L43:
	.loc 1 312 17
	li	a0,-16
.LVL47:
	.loc 1 339 1
	ret
	.cfi_endproc
.LFE10:
	.size	netconn_bind, .-netconn_bind
	.section	.text.netconn_bind_if,"ax",@progbits
	.align	1
	.globl	netconn_bind_if
	.type	netconn_bind_if, @function
netconn_bind_if:
.LFB11:
	.loc 1 352 1 is_stmt 1
	.cfi_startproc
.LVL48:
	.loc 1 353 3
	.loc 1 354 3
	.loc 1 356 3
	.loc 1 356 8
	.loc 1 356 11 is_stmt 0
	beq	a0,zero,.L50
	.loc 1 356 25 is_stmt 1 discriminator 2
	.loc 1 356 34 discriminator 2
	.loc 1 358 3 discriminator 2
	.loc 1 359 3 discriminator 2
	.loc 1 352 1 is_stmt 0 discriminator 2
	addi	sp,sp,-64
	.cfi_def_cfa_offset 64
	.loc 1 359 12 discriminator 2
	sw	a0,12(sp)
	.loc 1 360 3 is_stmt 1 discriminator 2
	.loc 1 361 9 is_stmt 0 discriminator 2
	lui	a0,%hi(lwip_netconn_do_bind_if)
.LVL49:
	.loc 1 360 21 discriminator 2
	sb	a1,26(sp)
	.loc 1 361 3 is_stmt 1 discriminator 2
	.loc 1 361 9 is_stmt 0 discriminator 2
	addi	a0,a0,%lo(lwip_netconn_do_bind_if)
	addi	a1,sp,12
.LVL50:
	.loc 1 352 1 discriminator 2
	sw	ra,60(sp)
	.cfi_offset 1, -4
	.loc 1 361 9 discriminator 2
	call	netconn_apimsg
.LVL51:
	.loc 1 362 3 is_stmt 1 discriminator 2
	.loc 1 364 3 discriminator 2
	.loc 1 365 1 is_stmt 0 discriminator 2
	lw	ra,60(sp)
	.cfi_restore 1
	addi	sp,sp,64
	.cfi_def_cfa_offset 0
	jr	ra
.LVL52:
.L50:
	.loc 1 356 17
	li	a0,-16
.LVL53:
	.loc 1 365 1
	ret
	.cfi_endproc
.LFE11:
	.size	netconn_bind_if, .-netconn_bind_if
	.section	.text.netconn_connect,"ax",@progbits
	.align	1
	.globl	netconn_connect
	.type	netconn_connect, @function
netconn_connect:
.LFB12:
	.loc 1 378 1 is_stmt 1
	.cfi_startproc
.LVL54:
	.loc 1 379 3
	.loc 1 380 3
	.loc 1 382 3
	.loc 1 382 8
	.loc 1 382 11 is_stmt 0
	beq	a0,zero,.L58
	.loc 1 382 25 is_stmt 1 discriminator 2
	.loc 1 382 34 discriminator 2
	.loc 1 386 3 discriminator 2
	.loc 1 378 1 is_stmt 0 discriminator 2
	addi	sp,sp,-64
	.cfi_def_cfa_offset 64
	sw	ra,60(sp)
	.cfi_offset 1, -4
	.loc 1 386 6 discriminator 2
	bne	a1,zero,.L57
	.loc 1 387 10
	lui	a1,%hi(ip_addr_any)
.LVL55:
	addi	a1,a1,%lo(ip_addr_any)
.L57:
.LVL56:
	.loc 1 391 3 is_stmt 1
	.loc 1 392 3
	.loc 1 392 12 is_stmt 0
	sw	a0,12(sp)
	.loc 1 393 3 is_stmt 1
	.loc 1 395 9 is_stmt 0
	lui	a0,%hi(lwip_netconn_do_connect)
.LVL57:
	.loc 1 393 21
	sw	a1,20(sp)
	.loc 1 394 3 is_stmt 1
	.loc 1 395 9 is_stmt 0
	addi	a0,a0,%lo(lwip_netconn_do_connect)
	addi	a1,sp,12
.LVL58:
	.loc 1 394 19
	sh	a2,24(sp)
	.loc 1 395 3 is_stmt 1
	.loc 1 395 9 is_stmt 0
	call	netconn_apimsg
.LVL59:
	.loc 1 396 3 is_stmt 1
	.loc 1 398 3
	.loc 1 399 1 is_stmt 0
	lw	ra,60(sp)
	.cfi_restore 1
	addi	sp,sp,64
	.cfi_def_cfa_offset 0
	jr	ra
.LVL60:
.L58:
	.loc 1 382 17
	li	a0,-16
.LVL61:
	.loc 1 399 1
	ret
	.cfi_endproc
.LFE12:
	.size	netconn_connect, .-netconn_connect
	.section	.text.netconn_disconnect,"ax",@progbits
	.align	1
	.globl	netconn_disconnect
	.type	netconn_disconnect, @function
netconn_disconnect:
.LFB13:
	.loc 1 410 1 is_stmt 1
	.cfi_startproc
.LVL62:
	.loc 1 411 3
	.loc 1 412 3
	.loc 1 414 3
	.loc 1 414 8
	.loc 1 414 11 is_stmt 0
	beq	a0,zero,.L65
	.loc 1 414 25 is_stmt 1 discriminator 2
	.loc 1 414 34 discriminator 2
	.loc 1 416 3 discriminator 2
	.loc 1 417 3 discriminator 2
	.loc 1 410 1 is_stmt 0 discriminator 2
	addi	sp,sp,-64
	.cfi_def_cfa_offset 64
	.loc 1 417 12 discriminator 2
	sw	a0,12(sp)
	.loc 1 418 3 is_stmt 1 discriminator 2
	.loc 1 418 9 is_stmt 0 discriminator 2
	lui	a0,%hi(lwip_netconn_do_disconnect)
.LVL63:
	addi	a1,sp,12
.LVL64:
	addi	a0,a0,%lo(lwip_netconn_do_disconnect)
	.loc 1 410 1 discriminator 2
	sw	ra,60(sp)
	.cfi_offset 1, -4
	.loc 1 418 9 discriminator 2
	call	netconn_apimsg
.LVL65:
	.loc 1 419 3 is_stmt 1 discriminator 2
	.loc 1 421 3 discriminator 2
	.loc 1 422 1 is_stmt 0 discriminator 2
	lw	ra,60(sp)
	.cfi_restore 1
	addi	sp,sp,64
	.cfi_def_cfa_offset 0
	jr	ra
.LVL66:
.L65:
	.loc 1 414 17
	li	a0,-16
.LVL67:
	.loc 1 422 1
	ret
	.cfi_endproc
.LFE13:
	.size	netconn_disconnect, .-netconn_disconnect
	.section	.text.netconn_listen_with_backlog,"ax",@progbits
	.align	1
	.globl	netconn_listen_with_backlog
	.type	netconn_listen_with_backlog, @function
netconn_listen_with_backlog:
.LFB14:
	.loc 1 435 1 is_stmt 1
	.cfi_startproc
.LVL68:
	.loc 1 437 3
	.loc 1 438 3
	.loc 1 441 3
	.loc 1 443 3
	.loc 1 443 8
	.loc 1 443 11 is_stmt 0
	beq	a0,zero,.L72
	.loc 1 443 25 is_stmt 1 discriminator 2
	.loc 1 443 34 discriminator 2
	.loc 1 445 3 discriminator 2
	.loc 1 446 3 discriminator 2
	.loc 1 435 1 is_stmt 0 discriminator 2
	addi	sp,sp,-64
	.cfi_def_cfa_offset 64
	.loc 1 446 12 discriminator 2
	sw	a0,12(sp)
	.loc 1 450 3 is_stmt 1 discriminator 2
	.loc 1 450 9 is_stmt 0 discriminator 2
	lui	a0,%hi(lwip_netconn_do_listen)
.LVL69:
	addi	a1,sp,12
.LVL70:
	addi	a0,a0,%lo(lwip_netconn_do_listen)
	.loc 1 435 1 discriminator 2
	sw	ra,60(sp)
	.cfi_offset 1, -4
	.loc 1 450 9 discriminator 2
	call	netconn_apimsg
.LVL71:
	.loc 1 451 3 is_stmt 1 discriminator 2
	.loc 1 453 3 discriminator 2
	.loc 1 459 1 is_stmt 0 discriminator 2
	lw	ra,60(sp)
	.cfi_restore 1
	addi	sp,sp,64
	.cfi_def_cfa_offset 0
	jr	ra
.LVL72:
.L72:
	.loc 1 443 17
	li	a0,-16
.LVL73:
	.loc 1 459 1
	ret
	.cfi_endproc
.LFE14:
	.size	netconn_listen_with_backlog, .-netconn_listen_with_backlog
	.section	.text.netconn_tcp_recvd,"ax",@progbits
	.align	1
	.globl	netconn_tcp_recvd
	.type	netconn_tcp_recvd, @function
netconn_tcp_recvd:
.LFB18:
	.loc 1 690 1 is_stmt 1
	.cfi_startproc
.LVL74:
	.loc 1 691 3
	.loc 1 692 3
	.loc 1 693 3
	.loc 1 693 8
	.loc 1 693 11 is_stmt 0
	beq	a0,zero,.L79
	.loc 1 693 22 discriminator 2
	lw	a4,0(a0)
	.loc 1 693 12 discriminator 2
	li	a3,16
	mv	a5,a0
	.loc 1 693 22 discriminator 2
	andi	a4,a4,240
	.loc 1 693 57 discriminator 2
	li	a0,-16
.LVL75:
	.loc 1 693 12 discriminator 2
	bne	a4,a3,.L82
	.loc 1 693 65 is_stmt 1
	.loc 1 693 74
	.loc 1 696 3
	.loc 1 697 3
.LVL76:
	.loc 1 690 1 is_stmt 0
	addi	sp,sp,-64
	.cfi_def_cfa_offset 64
.LVL77:
.LBB11:
.LBB12:
	.loc 1 679 3 is_stmt 1
	.loc 1 679 8
	.loc 1 679 65
	.loc 1 679 74
	.loc 1 682 3
	.loc 1 685 10 is_stmt 0
	lui	a0,%hi(lwip_netconn_do_recv)
	.loc 1 683 18
	sw	a1,20(sp)
	.loc 1 685 10
	addi	a0,a0,%lo(lwip_netconn_do_recv)
	addi	a1,sp,12
.LVL78:
.LBE12:
.LBE11:
	.loc 1 690 1
	sw	ra,60(sp)
	.cfi_offset 1, -4
.LBB14:
.LBB13:
	.loc 1 682 13
	sw	a5,12(sp)
	.loc 1 683 3 is_stmt 1
	.loc 1 685 3
	.loc 1 685 10 is_stmt 0
	call	netconn_apimsg
.LVL79:
.LBE13:
.LBE14:
	.loc 1 698 3 is_stmt 1
	.loc 1 699 3
	.loc 1 700 1 is_stmt 0
	lw	ra,60(sp)
	.cfi_restore 1
	addi	sp,sp,64
	.cfi_def_cfa_offset 0
	jr	ra
.LVL80:
.L79:
	.loc 1 693 57
	li	a0,-16
.LVL81:
	ret
.LVL82:
.L82:
	.loc 1 700 1
	ret
	.cfi_endproc
.LFE18:
	.size	netconn_tcp_recvd, .-netconn_tcp_recvd
	.section	.text.netconn_send,"ax",@progbits
	.align	1
	.globl	netconn_send
	.type	netconn_send, @function
netconn_send:
.LFB26:
	.loc 1 942 1 is_stmt 1
	.cfi_startproc
.LVL83:
	.loc 1 943 3
	.loc 1 944 3
	.loc 1 946 3
	.loc 1 946 8
	.loc 1 946 11 is_stmt 0
	beq	a0,zero,.L87
	.loc 1 946 25 is_stmt 1 discriminator 2
	.loc 1 946 34 discriminator 2
	.loc 1 948 3 discriminator 2
	.loc 1 950 3 discriminator 2
	.loc 1 951 3 discriminator 2
	.loc 1 942 1 is_stmt 0 discriminator 2
	addi	sp,sp,-64
	.cfi_def_cfa_offset 64
	.loc 1 951 12 discriminator 2
	sw	a0,12(sp)
	.loc 1 952 3 is_stmt 1 discriminator 2
	.loc 1 953 9 is_stmt 0 discriminator 2
	lui	a0,%hi(lwip_netconn_do_send)
.LVL84:
	.loc 1 952 13 discriminator 2
	sw	a1,20(sp)
	.loc 1 953 3 is_stmt 1 discriminator 2
	.loc 1 953 9 is_stmt 0 discriminator 2
	addi	a0,a0,%lo(lwip_netconn_do_send)
	addi	a1,sp,12
.LVL85:
	.loc 1 942 1 discriminator 2
	sw	ra,60(sp)
	.cfi_offset 1, -4
	.loc 1 953 9 discriminator 2
	call	netconn_apimsg
.LVL86:
	.loc 1 954 3 is_stmt 1 discriminator 2
	.loc 1 956 3 discriminator 2
	.loc 1 957 1 is_stmt 0 discriminator 2
	lw	ra,60(sp)
	.cfi_restore 1
	addi	sp,sp,64
	.cfi_def_cfa_offset 0
	jr	ra
.LVL87:
.L87:
	.loc 1 946 17
	li	a0,-16
.LVL88:
	.loc 1 957 1
	ret
	.cfi_endproc
.LFE26:
	.size	netconn_send, .-netconn_send
	.section	.text.netconn_sendto,"ax",@progbits
	.align	1
	.globl	netconn_sendto
	.type	netconn_sendto, @function
netconn_sendto:
.LFB25:
	.loc 1 923 1 is_stmt 1
	.cfi_startproc
.LVL89:
	.loc 1 924 3
	.loc 1 924 6 is_stmt 0
	beq	a1,zero,.L93
	.loc 1 925 5 is_stmt 1
	.loc 1 925 8 is_stmt 0
	li	a5,0
	beq	a2,zero,.L94
	.loc 1 925 8 discriminator 1
	lw	a5,0(a2)
.L94:
	.loc 1 925 25 discriminator 4
	sw	a5,8(a1)
	.loc 1 926 5 is_stmt 1 discriminator 4
	.loc 1 926 15 is_stmt 0 discriminator 4
	sh	a3,12(a1)
	.loc 1 927 5 is_stmt 1 discriminator 4
	.loc 1 927 12 is_stmt 0 discriminator 4
	tail	netconn_send
.LVL90:
.L93:
	.loc 1 930 1
	li	a0,-6
.LVL91:
	ret
	.cfi_endproc
.LFE25:
	.size	netconn_sendto, .-netconn_sendto
	.section	.text.netconn_write_vectors_partly,"ax",@progbits
	.align	1
	.globl	netconn_write_vectors_partly
	.type	netconn_write_vectors_partly, @function
netconn_write_vectors_partly:
.LFB28:
	.loc 1 999 1 is_stmt 1
	.cfi_startproc
.LVL92:
	.loc 1 1000 3
	.loc 1 1001 3
	.loc 1 1002 3
	.loc 1 1003 3
	.loc 1 1004 3
	.loc 1 1006 3
	.loc 1 1006 8
	.loc 1 1006 11 is_stmt 0
	beq	a0,zero,.L106
	.loc 1 999 1 discriminator 2
	addi	sp,sp,-64
	.cfi_def_cfa_offset 64
	sw	s0,56(sp)
	sw	ra,60(sp)
	.cfi_offset 8, -8
	.cfi_offset 1, -4
	.loc 1 1007 28 discriminator 2
	lw	a5,0(a0)
	mv	s0,a4
	.loc 1 1006 25 is_stmt 1 discriminator 2
	.loc 1 1006 34 discriminator 2
	.loc 1 1007 3 discriminator 2
	.loc 1 1007 8 discriminator 2
	.loc 1 1007 11 is_stmt 0 discriminator 2
	li	a4,16
.LVL93:
	.loc 1 1007 28 discriminator 2
	andi	a5,a5,240
	mv	a6,a0
	.loc 1 1007 64 discriminator 2
	li	a0,-6
.LVL94:
	.loc 1 1007 11 discriminator 2
	bne	a5,a4,.L97
	.loc 1 1007 72 is_stmt 1 discriminator 2
	.loc 1 1007 81 discriminator 2
	.loc 1 1008 3 discriminator 2
.LVL95:
	.loc 1 1010 3 discriminator 2
	.loc 1 1008 45 is_stmt 0 discriminator 2
	lbu	a5,50(a6)
	.loc 1 1010 11 discriminator 2
	lw	a7,32(a6)
	.loc 1 1008 45 discriminator 2
	andi	a4,a3,4
	andi	a5,a5,2
	or	a5,a5,a4
	snez	a5,a5
	.loc 1 1010 6 discriminator 2
	or	a5,a5,a7
	beq	a5,zero,.L98
.LVL96:
	.loc 1 1014 17 discriminator 1
	bne	s0,zero,.L98
.LVL97:
.L97:
	.loc 1 1078 1
	lw	ra,60(sp)
	.cfi_remember_state
	.cfi_restore 1
	lw	s0,56(sp)
	.cfi_restore 8
.LVL98:
	addi	sp,sp,64
	.cfi_def_cfa_offset 0
	jr	ra
.LVL99:
.L100:
	.cfi_restore_state
	.loc 1 1023 5 is_stmt 1
	.loc 1 1023 23 is_stmt 0
	lw	t1,0(a0)
	.loc 1 1024 8
	addi	a0,a0,8
	.loc 1 1023 10
	add	a5,a5,t1
.LVL100:
	.loc 1 1024 5 is_stmt 1
	.loc 1 1024 8 is_stmt 0
	bgtu	t1,a5,.L109
	.loc 1 1022 30 is_stmt 1 discriminator 2
	.loc 1 1022 31 is_stmt 0 discriminator 2
	addi	a4,a4,1
.LVL101:
.L99:
	.loc 1 1022 15 is_stmt 1 discriminator 1
	.loc 1 1022 3 is_stmt 0 discriminator 1
	bgt	a2,a4,.L100
	.loc 1 1029 3 is_stmt 1
	.loc 1 1029 6 is_stmt 0
	bne	a5,zero,.L101
.LVL102:
.L105:
	.loc 1 1030 12
	li	a0,0
	j	.L97
.LVL103:
.L98:
	addi	a0,a1,4
	.loc 1 999 1 discriminator 1
	li	a4,0
	li	a5,0
	j	.L99
.LVL104:
.L101:
	.loc 1 1031 10 is_stmt 1
	.loc 1 1031 13 is_stmt 0
	bge	a5,zero,.L102
.LBB15:
	.loc 1 1032 5 is_stmt 1
	.loc 1 1034 5
.LBE15:
	.loc 1 1007 64 is_stmt 0
	li	a0,-6
.LBB16:
	.loc 1 1034 8
	beq	s0,zero,.L97
	.loc 1 1039 10
	li	a5,-2147483648
.LVL105:
	xori	a5,a5,-1
.L102:
.LVL106:
.LBE16:
	.loc 1 1042 3 is_stmt 1
	.loc 1 1044 3
	.loc 1 1044 12 is_stmt 0
	sw	a6,12(sp)
	.loc 1 1045 3 is_stmt 1
	.loc 1 1045 20 is_stmt 0
	sw	a1,20(sp)
	.loc 1 1046 3 is_stmt 1
	.loc 1 1046 24 is_stmt 0
	sh	a2,24(sp)
	.loc 1 1047 3 is_stmt 1
	.loc 1 1047 24 is_stmt 0
	sw	zero,28(sp)
	.loc 1 1048 3 is_stmt 1
	.loc 1 1048 22 is_stmt 0
	sb	a3,40(sp)
	.loc 1 1049 3 is_stmt 1
	.loc 1 1049 17 is_stmt 0
	sw	a5,32(sp)
	.loc 1 1050 3 is_stmt 1
	.loc 1 1050 20 is_stmt 0
	sw	zero,36(sp)
	.loc 1 1052 3 is_stmt 1
	.loc 1 1052 6 is_stmt 0
	beq	a7,zero,.L103
	.loc 1 1055 5 is_stmt 1
	.loc 1 1055 30 is_stmt 0
	call	sys_now
.LVL107:
	.loc 1 1055 28
	sw	a0,44(sp)
.L104:
	.loc 1 1064 3 is_stmt 1
	.loc 1 1064 9 is_stmt 0
	lui	a0,%hi(lwip_netconn_do_write)
	addi	a1,sp,12
	addi	a0,a0,%lo(lwip_netconn_do_write)
	call	netconn_apimsg
.LVL108:
	.loc 1 1065 3 is_stmt 1
	.loc 1 1065 6 is_stmt 0
	bne	a0,zero,.L97
	.loc 1 1066 5 is_stmt 1
	.loc 1 1066 8 is_stmt 0
	beq	s0,zero,.L105
	.loc 1 1067 7 is_stmt 1
	.loc 1 1067 22 is_stmt 0
	lw	a5,36(sp)
	sw	a5,0(s0)
	j	.L97
.LVL109:
.L103:
	.loc 1 1057 5 is_stmt 1
	.loc 1 1057 28 is_stmt 0
	sw	zero,44(sp)
	j	.L104
.LVL110:
.L106:
	.cfi_def_cfa_offset 0
	.cfi_restore 1
	.cfi_restore 8
	.loc 1 1006 17
	li	a0,-16
.LVL111:
	.loc 1 1078 1
	ret
.LVL112:
.L109:
	.cfi_def_cfa_offset 64
	.cfi_offset 1, -4
	.cfi_offset 8, -8
	.loc 1 1007 64
	li	a0,-6
	j	.L97
	.cfi_endproc
.LFE28:
	.size	netconn_write_vectors_partly, .-netconn_write_vectors_partly
	.section	.text.netconn_write_partly,"ax",@progbits
	.align	1
	.globl	netconn_write_partly
	.type	netconn_write_partly, @function
netconn_write_partly:
.LFB27:
	.loc 1 976 1 is_stmt 1
	.cfi_startproc
.LVL113:
	.loc 1 977 3
	.loc 1 978 3
	.loc 1 976 1 is_stmt 0
	addi	sp,sp,-32
	.cfi_def_cfa_offset 32
	.loc 1 978 14
	sw	a1,8(sp)
	.loc 1 979 3 is_stmt 1
	.loc 1 979 14 is_stmt 0
	sw	a2,12(sp)
	.loc 1 980 3 is_stmt 1
	.loc 1 980 10 is_stmt 0
	addi	a1,sp,8
.LVL114:
	li	a2,1
.LVL115:
	.loc 1 976 1
	sw	ra,28(sp)
	.cfi_offset 1, -4
	.loc 1 980 10
	call	netconn_write_vectors_partly
.LVL116:
	.loc 1 981 1
	lw	ra,28(sp)
	.cfi_restore 1
	addi	sp,sp,32
	.cfi_def_cfa_offset 0
	jr	ra
	.cfi_endproc
.LFE27:
	.size	netconn_write_partly, .-netconn_write_partly
	.section	.text.netconn_close,"ax",@progbits
	.align	1
	.globl	netconn_close
	.type	netconn_close, @function
netconn_close:
.LFB30:
	.loc 1 1126 1 is_stmt 1
	.cfi_startproc
.LVL117:
	.loc 1 1128 3
	.loc 1 1128 10 is_stmt 0
	li	a1,3
	tail	netconn_close_shutdown
.LVL118:
	.cfi_endproc
.LFE30:
	.size	netconn_close, .-netconn_close
	.section	.text.netconn_err,"ax",@progbits
	.align	1
	.globl	netconn_err
	.type	netconn_err, @function
netconn_err:
.LFB31:
	.loc 1 1140 1 is_stmt 1
	.cfi_startproc
.LVL119:
	.loc 1 1141 3
	.loc 1 1142 3
	.loc 1 1143 3
	.loc 1 1140 1 is_stmt 0
	addi	sp,sp,-16
	.cfi_def_cfa_offset 16
	sw	s1,4(sp)
	sw	ra,12(sp)
	sw	s0,8(sp)
	.cfi_offset 9, -12
	.cfi_offset 1, -4
	.cfi_offset 8, -8
	.loc 1 1144 12
	li	s1,0
	.loc 1 1143 6
	beq	a0,zero,.L125
	mv	s0,a0
.LVL120:
.LBB19:
.LBB20:
	.loc 1 1146 3 is_stmt 1
	.loc 1 1146 9 is_stmt 0
	call	sys_arch_protect
.LVL121:
	.loc 1 1147 3 is_stmt 1
	.loc 1 1147 7 is_stmt 0
	lb	s1,12(s0)
.LVL122:
	.loc 1 1148 3 is_stmt 1
	.loc 1 1148 21 is_stmt 0
	sb	zero,12(s0)
	.loc 1 1149 3 is_stmt 1
	call	sys_arch_unprotect
.LVL123:
	.loc 1 1150 3
.L125:
.LBE20:
.LBE19:
	.loc 1 1151 1 is_stmt 0
	lw	ra,12(sp)
	.cfi_restore 1
	lw	s0,8(sp)
	.cfi_restore 8
	mv	a0,s1
	lw	s1,4(sp)
	.cfi_restore 9
	addi	sp,sp,16
	.cfi_def_cfa_offset 0
	jr	ra
	.cfi_endproc
.LFE31:
	.size	netconn_err, .-netconn_err
	.section	.text.netconn_accept,"ax",@progbits
	.align	1
	.globl	netconn_accept
	.type	netconn_accept, @function
netconn_accept:
.LFB15:
	.loc 1 472 1 is_stmt 1
	.cfi_startproc
.LVL124:
	.loc 1 474 3
	.loc 1 475 3
	.loc 1 476 3
	.loc 1 481 3
	.loc 1 481 8
	.loc 1 472 1 is_stmt 0
	addi	sp,sp,-48
	.cfi_def_cfa_offset 48
	sw	ra,44(sp)
	sw	s0,40(sp)
	sw	s1,36(sp)
	sw	s2,32(sp)
	sw	s3,28(sp)
	.cfi_offset 1, -4
	.cfi_offset 8, -8
	.cfi_offset 9, -12
	.cfi_offset 18, -16
	.cfi_offset 19, -20
	.loc 1 481 11
	bne	a1,zero,.L129
.L131:
	.loc 1 481 17
	li	s0,-16
.LVL125:
.L130:
	.loc 1 560 1
	lw	ra,44(sp)
	.cfi_remember_state
	.cfi_restore 1
	mv	a0,s0
	lw	s0,40(sp)
	.cfi_restore 8
	lw	s1,36(sp)
	.cfi_restore 9
	lw	s2,32(sp)
	.cfi_restore 18
	lw	s3,28(sp)
	.cfi_restore 19
	addi	sp,sp,48
	.cfi_def_cfa_offset 0
	jr	ra
.LVL126:
.L129:
	.cfi_restore_state
	.loc 1 482 13 discriminator 2
	sw	zero,0(a1)
	mv	s1,a0
	mv	s2,a1
	.loc 1 481 25 is_stmt 1 discriminator 2
	.loc 1 481 34 discriminator 2
	.loc 1 482 3 discriminator 2
	.loc 1 483 3 discriminator 2
	.loc 1 483 8 discriminator 2
	.loc 1 483 11 is_stmt 0 discriminator 2
	beq	a0,zero,.L131
.LVL127:
	.loc 1 483 25 is_stmt 1 discriminator 2
	.loc 1 483 34 discriminator 2
	.loc 1 488 3 discriminator 2
	.loc 1 488 9 is_stmt 0 discriminator 2
	call	netconn_err
.LVL128:
	.loc 1 488 7 discriminator 2
	sb	a0,11(sp)
	.loc 1 489 3 is_stmt 1 discriminator 2
	.loc 1 488 9 is_stmt 0 discriminator 2
	mv	s0,a0
	.loc 1 489 6 discriminator 2
	bne	a0,zero,.L130
	.loc 1 493 3 is_stmt 1
	.loc 1 493 9 is_stmt 0
	addi	s3,s1,24
	mv	a0,s3
	call	sys_mbox_valid
.LVL129:
	.loc 1 493 6
	bne	a0,zero,.L132
.L133:
	.loc 1 496 12
	li	s0,-15
	j	.L130
.L132:
	.loc 1 493 56 discriminator 1
	lbu	a5,50(s1)
	.loc 1 493 7 discriminator 1
	andi	a4,a5,1
	bne	a4,zero,.L133
	.loc 1 499 3 is_stmt 1
	.loc 1 501 3
	.loc 1 502 3
	.loc 1 502 6 is_stmt 0
	andi	a5,a5,2
	beq	a5,zero,.L134
	.loc 1 503 5 is_stmt 1
	.loc 1 503 9 is_stmt 0
	addi	a1,sp,12
	mv	a0,s3
	call	sys_arch_mbox_tryfetch
.LVL130:
	.loc 1 503 8
	li	a5,-1
	beq	a0,a5,.L139
.L137:
	.loc 1 519 3 is_stmt 1
	.loc 1 531 3
	.loc 1 531 11 is_stmt 0
	lw	a5,56(s1)
	.loc 1 531 6
	bne	a5,zero,.L135
.L136:
	.loc 1 531 76 is_stmt 1 discriminator 3
	.loc 1 533 3 discriminator 3
	.loc 1 533 7 is_stmt 0 discriminator 3
	lw	a0,12(sp)
	addi	a1,sp,11
	call	lwip_netconn_is_err_msg
.LVL131:
	.loc 1 533 6 discriminator 3
	beq	a0,zero,.L138
	.loc 1 535 5 is_stmt 1
	.loc 1 536 5
	.loc 1 536 12 is_stmt 0
	lb	s0,11(sp)
	j	.L130
.L134:
	.loc 1 510 5 is_stmt 1
	.loc 1 510 9 is_stmt 0
	lw	a2,36(s1)
	addi	a1,sp,12
	mv	a0,s3
	call	sys_arch_mbox_fetch
.LVL132:
	.loc 1 510 8
	li	a5,-1
	bne	a0,a5,.L137
	.loc 1 513 14
	li	s0,-3
	j	.L130
.L135:
	.loc 1 531 25 is_stmt 1 discriminator 1
	.loc 1 531 26 is_stmt 0 discriminator 1
	li	a2,0
	li	a1,1
	mv	a0,s1
	jalr	a5
.LVL133:
	j	.L136
.L138:
	.loc 1 538 3 is_stmt 1
	.loc 1 538 18 is_stmt 0
	lw	a5,12(sp)
	.loc 1 538 6
	beq	a5,zero,.L133
	.loc 1 543 3 is_stmt 1
.LVL134:
	.loc 1 552 3
	.loc 1 552 13 is_stmt 0
	sw	a5,0(s2)
	.loc 1 554 3 is_stmt 1
	.loc 1 554 10 is_stmt 0
	j	.L130
.LVL135:
.L139:
	.loc 1 506 14
	li	s0,-7
	j	.L130
	.cfi_endproc
.LFE15:
	.size	netconn_accept, .-netconn_accept
	.section	.text.netconn_recv_data,"ax",@progbits
	.align	1
	.type	netconn_recv_data, @function
netconn_recv_data:
.LFB16:
	.loc 1 580 1 is_stmt 1
	.cfi_startproc
.LVL136:
	.loc 1 581 3
	.loc 1 580 1 is_stmt 0
	addi	sp,sp,-48
	.cfi_def_cfa_offset 48
	sw	ra,44(sp)
	sw	s0,40(sp)
	sw	s1,36(sp)
	sw	s2,32(sp)
	sw	s3,28(sp)
	.cfi_offset 1, -4
	.cfi_offset 8, -8
	.cfi_offset 9, -12
	.cfi_offset 18, -16
	.cfi_offset 19, -20
	.loc 1 581 9
	sw	zero,12(sp)
	.loc 1 582 3 is_stmt 1
	.loc 1 584 3
	.loc 1 584 8
	.loc 1 584 11 is_stmt 0
	bne	a1,zero,.L149
.L151:
	.loc 1 584 17
	li	a0,-16
.LVL137:
.L150:
	.loc 1 673 1
	lw	ra,44(sp)
	.cfi_remember_state
	.cfi_restore 1
	lw	s0,40(sp)
	.cfi_restore 8
	lw	s1,36(sp)
	.cfi_restore 9
	lw	s2,32(sp)
	.cfi_restore 18
	lw	s3,28(sp)
	.cfi_restore 19
	addi	sp,sp,48
	.cfi_def_cfa_offset 0
	jr	ra
.LVL138:
.L149:
	.cfi_restore_state
	.loc 1 585 12 discriminator 2
	sw	zero,0(a1)
	mv	s0,a0
	mv	s1,a1
	.loc 1 584 25 is_stmt 1 discriminator 2
	.loc 1 584 34 discriminator 2
	.loc 1 585 3 discriminator 2
	.loc 1 586 3 discriminator 2
	.loc 1 586 8 discriminator 2
	.loc 1 586 11 is_stmt 0 discriminator 2
	beq	a0,zero,.L151
.LVL139:
	.loc 1 588 8 discriminator 2
	addi	s3,a0,20
	mv	a0,s3
	mv	s2,a2
	.loc 1 586 25 is_stmt 1 discriminator 2
	.loc 1 586 34 discriminator 2
	.loc 1 588 3 discriminator 2
	.loc 1 588 8 is_stmt 0 discriminator 2
	call	sys_mbox_valid
.LVL140:
	.loc 1 588 6 discriminator 2
	bne	a0,zero,.L152
.LBB21:
	.loc 1 589 5 is_stmt 1
	.loc 1 589 17 is_stmt 0
	mv	a0,s0
	call	netconn_err
.LVL141:
	.loc 1 590 5 is_stmt 1
	.loc 1 590 8 is_stmt 0
	bne	a0,zero,.L150
.LVL142:
.L158:
	.loc 1 594 12
	li	a0,-11
	j	.L150
.L152:
.LBE21:
	.loc 1 597 3 is_stmt 1
	.loc 1 598 3
	.loc 1 598 58 is_stmt 0
	lbu	a5,50(s0)
	andi	a2,s2,4
	andi	a5,a5,3
	or	a2,a5,a2
	bne	a2,zero,.L153
	.loc 1 599 28
	lb	a5,12(s0)
	beq	a5,zero,.L154
.L153:
	.loc 1 600 5 is_stmt 1
	.loc 1 600 9 is_stmt 0
	addi	a1,sp,12
	mv	a0,s3
	call	sys_arch_mbox_tryfetch
.LVL143:
	.loc 1 600 8
	li	a5,-1
	beq	a0,a5,.L155
.L159:
	.loc 1 623 3 is_stmt 1
	.loc 1 636 3
	.loc 1 636 20 is_stmt 0
	lw	a5,0(s0)
	.loc 1 636 6
	li	a4,16
.LBB22:
	.loc 1 641 9
	lw	a0,12(sp)
.LBE22:
	.loc 1 636 20
	andi	a5,a5,240
	.loc 1 636 6
	bne	a5,a4,.L172
.LBB23:
	.loc 1 639 5 is_stmt 1
	.loc 1 641 5
	.loc 1 641 9 is_stmt 0
	addi	a1,sp,11
	call	lwip_netconn_is_err_msg
.LVL144:
	.loc 1 641 8
	beq	a0,zero,.L160
	.loc 1 643 7 is_stmt 1
	.loc 1 643 15 is_stmt 0
	lb	a0,11(sp)
	.loc 1 643 10
	li	a5,-15
	bne	a0,a5,.L150
.L175:
.LBE23:
	.loc 1 672 3 is_stmt 1 discriminator 3
	.loc 1 672 10 is_stmt 0 discriminator 3
	li	a0,0
	j	.L150
.L155:
.LBB24:
	.loc 1 601 7 is_stmt 1
	.loc 1 602 7
	.loc 1 603 7
	.loc 1 603 13 is_stmt 0
	mv	a0,s0
	call	netconn_err
.LVL145:
	.loc 1 604 7 is_stmt 1
	.loc 1 604 10 is_stmt 0
	bne	a0,zero,.L150
	.loc 1 608 7 is_stmt 1
	.loc 1 608 10 is_stmt 0
	lbu	a5,50(s0)
	.loc 1 611 14
	li	a0,-7
.LVL146:
	.loc 1 608 10
	andi	a5,a5,1
	beq	a5,zero,.L150
	j	.L158
.L154:
.LBE24:
	.loc 1 615 5 is_stmt 1
	.loc 1 615 9 is_stmt 0
	lw	a2,36(s0)
	addi	a1,sp,12
	mv	a0,s3
	call	sys_arch_mbox_fetch
.LVL147:
	mv	a4,a0
	.loc 1 615 8
	li	a5,-1
	.loc 1 617 14
	li	a0,-3
	.loc 1 615 8
	bne	a4,a5,.L159
	j	.L150
.L160:
.LBB25:
	.loc 1 649 5 is_stmt 1
	.loc 1 649 9 is_stmt 0
	lw	a5,12(sp)
.L174:
.LBE25:
	.loc 1 658 9
	lhu	s2,8(a5)
.LVL148:
	.loc 1 663 3 is_stmt 1
.LBB26:
	.loc 1 663 8
	.loc 1 663 30
	.loc 1 663 42 is_stmt 0
	call	sys_arch_protect
.LVL149:
	.loc 1 663 62 is_stmt 1
	.loc 1 663 79 is_stmt 0
	lw	a5,44(s0)
	sub	a5,a5,s2
	sw	a5,44(s0)
	.loc 1 663 87 is_stmt 1
	call	sys_arch_unprotect
.LVL150:
.LBE26:
	.loc 1 663 125
	.loc 1 666 3
	.loc 1 666 11 is_stmt 0
	lw	a5,56(s0)
	.loc 1 666 6
	beq	a5,zero,.L163
	.loc 1 666 25 is_stmt 1 discriminator 1
	.loc 1 666 26 is_stmt 0 discriminator 1
	mv	a2,s2
	li	a1,1
	mv	a0,s0
	jalr	a5
.LVL151:
.L163:
	.loc 1 666 78 is_stmt 1 discriminator 3
	.loc 1 668 3 discriminator 3
	.loc 1 670 3 discriminator 3
	.loc 1 670 12 is_stmt 0 discriminator 3
	lw	a5,12(sp)
	sw	a5,0(s1)
	j	.L175
.LVL152:
.L172:
	.loc 1 657 5 is_stmt 1
	.loc 1 657 10
	.loc 1 657 9
	.loc 1 657 19
	.loc 1 658 5
	.loc 1 658 9 is_stmt 0
	lw	a5,0(a0)
	j	.L174
	.cfi_endproc
.LFE16:
	.size	netconn_recv_data, .-netconn_recv_data
	.section	.text.netconn_recv_udp_raw_netbuf,"ax",@progbits
	.align	1
	.globl	netconn_recv_udp_raw_netbuf
	.type	netconn_recv_udp_raw_netbuf, @function
netconn_recv_udp_raw_netbuf:
.LFB22:
	.loc 1 823 1 is_stmt 1
	.cfi_startproc
.LVL153:
	.loc 1 824 3
	.loc 1 824 8
	.loc 1 824 11 is_stmt 0
	beq	a0,zero,.L177
	.loc 1 824 22 discriminator 2
	lw	a5,0(a0)
	.loc 1 824 12 discriminator 2
	li	a4,16
	.loc 1 824 22 discriminator 2
	andi	a5,a5,240
	.loc 1 824 12 discriminator 2
	beq	a5,a4,.L177
	.loc 1 824 65 is_stmt 1 discriminator 4
	.loc 1 824 74 discriminator 4
	.loc 1 827 3 discriminator 4
	.loc 1 827 10 is_stmt 0 discriminator 4
	li	a2,0
	tail	netconn_recv_data
.LVL154:
.L177:
	.loc 1 828 1
	li	a0,-16
.LVL155:
	ret
	.cfi_endproc
.LFE22:
	.size	netconn_recv_udp_raw_netbuf, .-netconn_recv_udp_raw_netbuf
	.section	.text.netconn_recv_udp_raw_netbuf_flags,"ax",@progbits
	.align	1
	.globl	netconn_recv_udp_raw_netbuf_flags
	.type	netconn_recv_udp_raw_netbuf_flags, @function
netconn_recv_udp_raw_netbuf_flags:
.LFB23:
	.loc 1 843 1 is_stmt 1
	.cfi_startproc
.LVL156:
	.loc 1 844 3
	.loc 1 844 8
	.loc 1 844 11 is_stmt 0
	beq	a0,zero,.L182
	.loc 1 844 22 discriminator 2
	lw	a5,0(a0)
	.loc 1 844 12 discriminator 2
	li	a4,16
	.loc 1 844 22 discriminator 2
	andi	a5,a5,240
	.loc 1 844 12 discriminator 2
	beq	a5,a4,.L182
	.loc 1 844 65 is_stmt 1 discriminator 4
	.loc 1 844 74 discriminator 4
	.loc 1 847 3 discriminator 4
	.loc 1 847 10 is_stmt 0 discriminator 4
	tail	netconn_recv_data
.LVL157:
.L182:
	.loc 1 848 1
	li	a0,-16
.LVL158:
	ret
	.cfi_endproc
.LFE23:
	.size	netconn_recv_udp_raw_netbuf_flags, .-netconn_recv_udp_raw_netbuf_flags
	.section	.text.netconn_recv_data_tcp,"ax",@progbits
	.align	1
	.type	netconn_recv_data_tcp, @function
netconn_recv_data_tcp:
.LFB19:
	.loc 1 704 1 is_stmt 1
	.cfi_startproc
.LVL159:
	.loc 1 705 3
	.loc 1 706 3
	.loc 1 707 3
	.loc 1 712 3
	.loc 1 704 1 is_stmt 0
	addi	sp,sp,-80
	.cfi_def_cfa_offset 80
	sw	s0,72(sp)
	.cfi_offset 8, -8
	mv	s0,a0
	.loc 1 712 8
	addi	a0,a0,20
.LVL160:
	.loc 1 704 1
	sw	s1,68(sp)
	sw	s2,64(sp)
	sw	s3,60(sp)
	sw	ra,76(sp)
	.cfi_offset 9, -12
	.cfi_offset 18, -16
	.cfi_offset 19, -20
	.cfi_offset 1, -4
	.loc 1 704 1
	mv	s3,a1
	mv	s2,a2
	.loc 1 712 8
	call	sys_mbox_valid
.LVL161:
	.loc 1 714 12
	li	s1,-11
	.loc 1 712 6
	beq	a0,zero,.L187
	.loc 1 716 3 is_stmt 1
	.loc 1 716 15 is_stmt 0
	lbu	a5,50(s0)
	.loc 1 716 6
	slli	a4,a5,24
	srai	a4,a4,24
	bge	a4,zero,.L188
	.loc 1 717 5 is_stmt 1
	.loc 1 717 10
	.loc 1 717 26 is_stmt 0
	andi	a5,a5,127
	.loc 1 717 24
	sb	a5,50(s0)
	.loc 1 717 81 is_stmt 1
	.loc 1 718 5
.LVL162:
.L189:
	.loc 1 753 7
	.loc 1 753 15 is_stmt 0
	lw	a5,56(s0)
	.loc 1 753 10
	beq	a5,zero,.L192
	.loc 1 753 29 is_stmt 1 discriminator 1
	.loc 1 753 30 is_stmt 0 discriminator 1
	li	a2,0
	li	a1,1
	mv	a0,s0
	jalr	a5
.LVL163:
.L192:
	.loc 1 753 80 is_stmt 1 discriminator 3
	.loc 1 754 7 discriminator 3
	.loc 1 754 10 is_stmt 0 discriminator 3
	lw	a5,8(s0)
	bne	a5,zero,.L193
	.loc 1 756 9 is_stmt 1
	.loc 1 756 15 is_stmt 0
	mv	a0,s0
	call	netconn_err
.LVL164:
	mv	s1,a0
.LVL165:
	.loc 1 757 9 is_stmt 1
	.loc 1 757 12 is_stmt 0
	bne	a0,zero,.L187
	.loc 1 760 16
	li	s1,-14
	j	.L187
.LVL166:
.L188:
	.loc 1 721 3 is_stmt 1
	.loc 1 724 5
	.loc 1 727 3
	.loc 1 727 9 is_stmt 0
	mv	a2,s2
	mv	a1,s3
	mv	a0,s0
	call	netconn_recv_data
.LVL167:
	mv	s1,a0
.LVL168:
	.loc 1 728 3 is_stmt 1
	.loc 1 728 6 is_stmt 0
	bne	a0,zero,.L187
	.loc 1 734 3 is_stmt 1
	.loc 1 735 6 is_stmt 0
	andi	a5,s2,8
	.loc 1 734 7
	lw	s3,0(s3)
.LVL169:
	.loc 1 735 3 is_stmt 1
	.loc 1 735 6 is_stmt 0
	bne	a5,zero,.L190
.LBB30:
	.loc 1 737 5 is_stmt 1
	.loc 1 737 11 is_stmt 0
	li	a4,1
	beq	s3,zero,.L191
	.loc 1 737 11 discriminator 1
	lhu	a4,8(s3)
.L191:
.LVL170:
	.loc 1 740 5 is_stmt 1 discriminator 4
.LBB31:
.LBB32:
	.loc 1 679 3 discriminator 4
	.loc 1 679 8 discriminator 4
	.loc 1 679 22 is_stmt 0 discriminator 4
	lw	a5,0(s0)
	.loc 1 679 12 discriminator 4
	li	a3,16
	.loc 1 679 22 discriminator 4
	andi	a5,a5,240
	.loc 1 679 12 discriminator 4
	bne	a5,a3,.L190
	.loc 1 679 65 is_stmt 1
	.loc 1 679 74
	.loc 1 682 3
	.loc 1 685 10 is_stmt 0
	lui	a0,%hi(lwip_netconn_do_recv)
.LVL171:
	addi	a1,sp,12
.LVL172:
	addi	a0,a0,%lo(lwip_netconn_do_recv)
	.loc 1 682 13
	sw	s0,12(sp)
	.loc 1 683 3 is_stmt 1
	.loc 1 683 18 is_stmt 0
	sw	a4,20(sp)
	.loc 1 685 3 is_stmt 1
	.loc 1 685 10 is_stmt 0
	call	netconn_apimsg
.LVL173:
.L190:
.LBE32:
.LBE31:
	.loc 1 741 5 is_stmt 1
.LBE30:
	.loc 1 745 3
	.loc 1 745 6 is_stmt 0
	bne	s3,zero,.L187
	.loc 1 746 5 is_stmt 1
	.loc 1 746 8 is_stmt 0
	andi	s2,s2,16
	beq	s2,zero,.L189
	.loc 1 749 7 is_stmt 1
	.loc 1 749 12
	.loc 1 749 28 is_stmt 0
	lbu	a5,50(s0)
	.loc 1 750 14
	li	s1,-7
	.loc 1 749 28
	ori	a5,a5,-128
	.loc 1 749 26
	sb	a5,50(s0)
	.loc 1 749 67 is_stmt 1
	.loc 1 750 7
.LVL174:
.L187:
	.loc 1 769 1 is_stmt 0
	lw	ra,76(sp)
	.cfi_remember_state
	.cfi_restore 1
	lw	s0,72(sp)
	.cfi_restore 8
.LVL175:
	lw	s2,64(sp)
	.cfi_restore 18
	lw	s3,60(sp)
	.cfi_restore 19
	mv	a0,s1
	lw	s1,68(sp)
	.cfi_restore 9
	addi	sp,sp,80
	.cfi_def_cfa_offset 0
	jr	ra
.LVL176:
.L193:
	.cfi_restore_state
	.loc 1 763 7 is_stmt 1
	li	a1,1
	mv	a0,s0
	call	netconn_close_shutdown
.LVL177:
	.loc 1 765 7
	.loc 1 765 14 is_stmt 0
	li	s1,-15
	j	.L187
	.cfi_endproc
.LFE19:
	.size	netconn_recv_data_tcp, .-netconn_recv_data_tcp
	.section	.text.netconn_recv_tcp_pbuf,"ax",@progbits
	.align	1
	.globl	netconn_recv_tcp_pbuf
	.type	netconn_recv_tcp_pbuf, @function
netconn_recv_tcp_pbuf:
.LFB20:
	.loc 1 783 1 is_stmt 1
	.cfi_startproc
.LVL178:
	.loc 1 784 3
	.loc 1 784 8
	.loc 1 784 11 is_stmt 0
	beq	a0,zero,.L204
	.loc 1 784 22 discriminator 2
	lw	a5,0(a0)
	.loc 1 784 12 discriminator 2
	li	a4,16
	.loc 1 784 22 discriminator 2
	andi	a5,a5,240
	.loc 1 784 12 discriminator 2
	bne	a5,a4,.L204
	.loc 1 784 65 is_stmt 1 discriminator 4
	.loc 1 784 74 discriminator 4
	.loc 1 787 3 discriminator 4
	.loc 1 787 10 is_stmt 0 discriminator 4
	li	a2,0
	tail	netconn_recv_data_tcp
.LVL179:
.L204:
	.loc 1 788 1
	li	a0,-16
.LVL180:
	ret
	.cfi_endproc
.LFE20:
	.size	netconn_recv_tcp_pbuf, .-netconn_recv_tcp_pbuf
	.section	.text.netconn_recv_tcp_pbuf_flags,"ax",@progbits
	.align	1
	.globl	netconn_recv_tcp_pbuf_flags
	.type	netconn_recv_tcp_pbuf_flags, @function
netconn_recv_tcp_pbuf_flags:
.LFB21:
	.loc 1 804 1 is_stmt 1
	.cfi_startproc
.LVL181:
	.loc 1 805 3
	.loc 1 805 8
	.loc 1 805 11 is_stmt 0
	beq	a0,zero,.L209
	.loc 1 805 22 discriminator 2
	lw	a5,0(a0)
	.loc 1 805 12 discriminator 2
	li	a4,16
	.loc 1 805 22 discriminator 2
	andi	a5,a5,240
	.loc 1 805 12 discriminator 2
	bne	a5,a4,.L209
	.loc 1 805 65 is_stmt 1 discriminator 4
	.loc 1 805 74 discriminator 4
	.loc 1 808 3 discriminator 4
	.loc 1 808 10 is_stmt 0 discriminator 4
	tail	netconn_recv_data_tcp
.LVL182:
.L209:
	.loc 1 809 1
	li	a0,-16
.LVL183:
	ret
	.cfi_endproc
.LFE21:
	.size	netconn_recv_tcp_pbuf_flags, .-netconn_recv_tcp_pbuf_flags
	.section	.text.netconn_recv,"ax",@progbits
	.align	1
	.globl	netconn_recv
	.type	netconn_recv, @function
netconn_recv:
.LFB24:
	.loc 1 861 1 is_stmt 1
	.cfi_startproc
.LVL184:
	.loc 1 863 3
	.loc 1 864 3
	.loc 1 867 3
	.loc 1 867 8
	.loc 1 861 1 is_stmt 0
	addi	sp,sp,-48
	.cfi_def_cfa_offset 48
	sw	ra,44(sp)
	sw	s0,40(sp)
	sw	s1,36(sp)
	sw	s2,32(sp)
	sw	s3,28(sp)
	.cfi_offset 1, -4
	.cfi_offset 8, -8
	.cfi_offset 9, -12
	.cfi_offset 18, -16
	.cfi_offset 19, -20
	.loc 1 867 11
	bne	a1,zero,.L214
.L216:
	.loc 1 867 17
	li	s1,-16
.LVL185:
.L215:
	.loc 1 908 1 discriminator 1
	lw	ra,44(sp)
	.cfi_remember_state
	.cfi_restore 1
	lw	s0,40(sp)
	.cfi_restore 8
	lw	s2,32(sp)
	.cfi_restore 18
	lw	s3,28(sp)
	.cfi_restore 19
	mv	a0,s1
	lw	s1,36(sp)
	.cfi_restore 9
	addi	sp,sp,48
	.cfi_def_cfa_offset 0
	jr	ra
.LVL186:
.L214:
	.cfi_restore_state
	.loc 1 868 12 discriminator 2
	sw	zero,0(a1)
	mv	s3,a0
	mv	s2,a1
	.loc 1 867 25 is_stmt 1 discriminator 2
	.loc 1 867 34 discriminator 2
	.loc 1 868 3 discriminator 2
	.loc 1 869 3 discriminator 2
	.loc 1 869 8 discriminator 2
	.loc 1 869 11 is_stmt 0 discriminator 2
	beq	a0,zero,.L216
	.loc 1 869 25 is_stmt 1 discriminator 2
	.loc 1 869 34 discriminator 2
	.loc 1 873 3 discriminator 2
	.loc 1 873 20 is_stmt 0 discriminator 2
	lw	a5,0(a0)
	.loc 1 873 6 discriminator 2
	li	a4,16
	.loc 1 873 20 discriminator 2
	andi	a5,a5,240
	.loc 1 873 6 discriminator 2
	bne	a5,a4,.L217
.LBB33:
	.loc 1 876 5 is_stmt 1
	.loc 1 879 28 is_stmt 0
	li	a0,6
.LVL187:
	.loc 1 876 18
	sw	zero,12(sp)
	.loc 1 879 5 is_stmt 1
	.loc 1 879 28 is_stmt 0
	call	memp_malloc
.LVL188:
	mv	s0,a0
.LVL189:
	.loc 1 880 5 is_stmt 1
	.loc 1 881 14 is_stmt 0
	li	s1,-1
	.loc 1 880 8
	beq	a0,zero,.L215
	.loc 1 884 5 is_stmt 1
	.loc 1 884 11 is_stmt 0
	li	a2,0
	addi	a1,sp,12
	mv	a0,s3
	call	netconn_recv_data_tcp
.LVL190:
	mv	s1,a0
.LVL191:
	.loc 1 885 5 is_stmt 1
	.loc 1 885 8 is_stmt 0
	beq	a0,zero,.L219
	.loc 1 886 7 is_stmt 1
	mv	a1,s0
	li	a0,6
.LVL192:
	call	memp_free
.LVL193:
	.loc 1 887 7
	.loc 1 887 14 is_stmt 0
	j	.L215
.LVL194:
.L219:
	.loc 1 889 5 is_stmt 1
	.loc 1 889 10
	.loc 1 889 14 is_stmt 0
	lw	a5,12(sp)
	.loc 1 889 9 is_stmt 1
	.loc 1 889 19
	.loc 1 891 5
	.loc 1 893 15 is_stmt 0
	sh	zero,12(s0)
	.loc 1 894 25
	sw	zero,8(s0)
	.loc 1 891 12
	sw	a5,0(s0)
	.loc 1 892 5 is_stmt 1
	.loc 1 892 14 is_stmt 0
	sw	a5,4(s0)
	.loc 1 893 5 is_stmt 1
	.loc 1 894 5
	.loc 1 895 5
	.loc 1 895 14 is_stmt 0
	sw	s0,0(s2)
	.loc 1 897 5 is_stmt 1
	.loc 1 897 12 is_stmt 0
	j	.L215
.LVL195:
.L217:
.LBE33:
	.loc 1 905 5 is_stmt 1
	.loc 1 908 1 is_stmt 0
	lw	s0,40(sp)
	.cfi_restore 8
	lw	ra,44(sp)
	.cfi_restore 1
	lw	s1,36(sp)
	.cfi_restore 9
	lw	s2,32(sp)
	.cfi_restore 18
	lw	s3,28(sp)
	.cfi_restore 19
	.loc 1 905 12
	li	a2,0
	.loc 1 908 1
	addi	sp,sp,48
	.cfi_def_cfa_offset 0
	.loc 1 905 12
	tail	netconn_recv_data
.LVL196:
	.cfi_endproc
.LFE24:
	.size	netconn_recv, .-netconn_recv
	.section	.text.netconn_shutdown,"ax",@progbits
	.align	1
	.globl	netconn_shutdown
	.type	netconn_shutdown, @function
netconn_shutdown:
.LFB32:
	.loc 1 1164 1 is_stmt 1
	.cfi_startproc
.LVL197:
	.loc 1 1165 3
	.loc 1 1165 64 is_stmt 0
	snez	a2,a2
.LVL198:
	snez	a1,a1
.LVL199:
	slli	a2,a2,1
	.loc 1 1165 10
	or	a1,a2,a1
	tail	netconn_close_shutdown
.LVL200:
	.cfi_endproc
.LFE32:
	.size	netconn_shutdown, .-netconn_shutdown
	.section	.text.netconn_join_leave_group,"ax",@progbits
	.align	1
	.globl	netconn_join_leave_group
	.type	netconn_join_leave_group, @function
netconn_join_leave_group:
.LFB33:
	.loc 1 1185 1 is_stmt 1
	.cfi_startproc
.LVL201:
	.loc 1 1186 3
	.loc 1 1187 3
	.loc 1 1189 3
	.loc 1 1189 8
	.loc 1 1189 11 is_stmt 0
	beq	a0,zero,.L232
	.loc 1 1189 25 is_stmt 1 discriminator 2
	.loc 1 1189 34 discriminator 2
	.loc 1 1191 3 discriminator 2
	.loc 1 1195 3 discriminator 2
	.loc 1 1185 1 is_stmt 0 discriminator 2
	addi	sp,sp,-64
	.cfi_def_cfa_offset 64
	sw	ra,60(sp)
	.cfi_offset 1, -4
	.loc 1 1195 6 discriminator 2
	bne	a1,zero,.L230
	.loc 1 1196 15
	lui	a1,%hi(ip_addr_any)
.LVL202:
	addi	a1,a1,%lo(ip_addr_any)
.L230:
.LVL203:
	.loc 1 1198 3 is_stmt 1
	.loc 1 1198 6 is_stmt 0
	bne	a2,zero,.L231
	.loc 1 1199 16
	lui	a2,%hi(ip_addr_any)
.LVL204:
	addi	a2,a2,%lo(ip_addr_any)
.L231:
.LVL205:
	.loc 1 1203 3 is_stmt 1
	.loc 1 1203 12 is_stmt 0
	sw	a0,12(sp)
	.loc 1 1204 3 is_stmt 1
	.loc 1 1207 9 is_stmt 0
	lui	a0,%hi(lwip_netconn_do_join_leave_group)
.LVL206:
	.loc 1 1204 24
	sw	a1,20(sp)
	.loc 1 1205 3 is_stmt 1
	.loc 1 1207 9 is_stmt 0
	addi	a0,a0,%lo(lwip_netconn_do_join_leave_group)
	addi	a1,sp,12
.LVL207:
	.loc 1 1205 25
	sw	a2,24(sp)
	.loc 1 1206 3 is_stmt 1
	.loc 1 1206 28 is_stmt 0
	sw	a3,32(sp)
	.loc 1 1207 3 is_stmt 1
	.loc 1 1207 9 is_stmt 0
	call	netconn_apimsg
.LVL208:
	.loc 1 1208 3 is_stmt 1
	.loc 1 1210 3
	.loc 1 1211 1 is_stmt 0
	lw	ra,60(sp)
	.cfi_restore 1
	addi	sp,sp,64
	.cfi_def_cfa_offset 0
	jr	ra
.LVL209:
.L232:
	.loc 1 1189 17
	li	a0,-16
.LVL210:
	.loc 1 1211 1
	ret
	.cfi_endproc
.LFE33:
	.size	netconn_join_leave_group, .-netconn_join_leave_group
	.section	.text.netconn_join_leave_group_netif,"ax",@progbits
	.align	1
	.globl	netconn_join_leave_group_netif
	.type	netconn_join_leave_group_netif, @function
netconn_join_leave_group_netif:
.LFB34:
	.loc 1 1227 1 is_stmt 1
	.cfi_startproc
.LVL211:
	.loc 1 1228 3
	.loc 1 1229 3
	.loc 1 1231 3
	.loc 1 1231 8
	.loc 1 1231 11 is_stmt 0
	beq	a0,zero,.L240
	mv	a5,a0
	.loc 1 1231 25 is_stmt 1 discriminator 2
	.loc 1 1231 34 discriminator 2
	.loc 1 1233 3 discriminator 2
	.loc 1 1237 3 discriminator 2
	.loc 1 1237 6 is_stmt 0 discriminator 2
	bne	a1,zero,.L239
	.loc 1 1238 15
	lui	a1,%hi(ip_addr_any)
.LVL212:
	addi	a1,a1,%lo(ip_addr_any)
.L239:
.LVL213:
	.loc 1 1240 3 is_stmt 1
	.loc 1 1241 12 is_stmt 0
	li	a0,-12
.LVL214:
	.loc 1 1240 6
	beq	a2,zero,.L243
	.loc 1 1245 3 is_stmt 1
	.loc 1 1227 1 is_stmt 0
	addi	sp,sp,-64
	.cfi_def_cfa_offset 64
	.loc 1 1249 9
	lui	a0,%hi(lwip_netconn_do_join_leave_group_netif)
	.loc 1 1246 24
	sw	a1,20(sp)
	.loc 1 1249 9
	addi	a0,a0,%lo(lwip_netconn_do_join_leave_group_netif)
	addi	a1,sp,12
.LVL215:
	.loc 1 1227 1
	sw	ra,60(sp)
	.cfi_offset 1, -4
	.loc 1 1245 12
	sw	a5,12(sp)
	.loc 1 1246 3 is_stmt 1
	.loc 1 1247 3
	.loc 1 1247 21 is_stmt 0
	sb	a2,28(sp)
	.loc 1 1248 3 is_stmt 1
	.loc 1 1248 28 is_stmt 0
	sw	a3,32(sp)
	.loc 1 1249 3 is_stmt 1
	.loc 1 1249 9 is_stmt 0
	call	netconn_apimsg
.LVL216:
	.loc 1 1250 3 is_stmt 1
	.loc 1 1252 3
	.loc 1 1253 1 is_stmt 0
	lw	ra,60(sp)
	.cfi_restore 1
	addi	sp,sp,64
	.cfi_def_cfa_offset 0
	jr	ra
.LVL217:
.L240:
	.loc 1 1231 17
	li	a0,-16
.LVL218:
	ret
.LVL219:
.L243:
	.loc 1 1253 1
	ret
	.cfi_endproc
.LFE34:
	.size	netconn_join_leave_group_netif, .-netconn_join_leave_group_netif
	.section	.text.netconn_gethostbyname,"ax",@progbits
	.align	1
	.globl	netconn_gethostbyname
	.type	netconn_gethostbyname, @function
netconn_gethostbyname:
.LFB35:
	.loc 1 1276 1 is_stmt 1
	.cfi_startproc
.LVL220:
	.loc 1 1277 3
	.loc 1 1279 3
	.loc 1 1281 3
	.loc 1 1282 3
	.loc 1 1284 3
	.loc 1 1284 8
	.loc 1 1276 1 is_stmt 0
	addi	sp,sp,-48
	.cfi_def_cfa_offset 48
	sw	s0,40(sp)
	sw	ra,44(sp)
	.cfi_offset 8, -8
	.cfi_offset 1, -4
	.loc 1 1284 17
	li	s0,-16
	.loc 1 1284 11
	beq	a0,zero,.L247
	.loc 1 1284 25 is_stmt 1 discriminator 2
	.loc 1 1284 34 discriminator 2
	.loc 1 1285 3 discriminator 2
	.loc 1 1285 8 discriminator 2
	.loc 1 1285 11 is_stmt 0 discriminator 2
	beq	a1,zero,.L247
	mv	a5,a0
	.loc 1 1285 25 is_stmt 1 discriminator 2
	.loc 1 1285 34 discriminator 2
	.loc 1 1302 3 discriminator 2
	.loc 1 1307 3 discriminator 2
	.loc 1 1307 11 is_stmt 0 discriminator 2
	addi	a4,sp,11
	.loc 1 1308 11 discriminator 2
	addi	a0,sp,12
.LVL221:
	.loc 1 1309 12 discriminator 2
	sw	a1,20(sp)
	.loc 1 1318 9 discriminator 2
	li	a1,0
.LVL222:
	.loc 1 1307 11 discriminator 2
	sw	a4,28(sp)
	.loc 1 1308 3 is_stmt 1 discriminator 2
	.loc 1 1308 11 is_stmt 0 discriminator 2
	sw	a0,24(sp)
	.loc 1 1309 3 is_stmt 1 discriminator 2
	.loc 1 1310 3 discriminator 2
	.loc 1 1310 12 is_stmt 0 discriminator 2
	sw	a5,16(sp)
	.loc 1 1318 3 is_stmt 1 discriminator 2
	.loc 1 1318 9 is_stmt 0 discriminator 2
	call	sys_sem_new
.LVL223:
	.loc 1 1318 7 discriminator 2
	sb	a0,11(sp)
	.loc 1 1319 3 is_stmt 1 discriminator 2
	.loc 1 1318 9 is_stmt 0 discriminator 2
	mv	s0,a0
	.loc 1 1319 6 discriminator 2
	bne	a0,zero,.L247
	.loc 1 1325 3 is_stmt 1
	.loc 1 1325 11 is_stmt 0
	lw	a2,24(sp)
	lui	a0,%hi(lwip_netconn_do_gethostbyname)
	addi	a1,sp,16
	addi	a0,a0,%lo(lwip_netconn_do_gethostbyname)
	call	tcpip_send_msg_wait_sem
.LVL224:
	mv	s0,a0
.LVL225:
	.loc 1 1327 3 is_stmt 1
	lw	a0,24(sp)
	call	sys_sem_free
.LVL226:
	.loc 1 1329 3
	.loc 1 1329 6 is_stmt 0
	bne	s0,zero,.L247
	.loc 1 1339 3 is_stmt 1
	.loc 1 1340 3
	.loc 1 1340 10 is_stmt 0
	lb	s0,11(sp)
.LVL227:
.L247:
	.loc 1 1341 1
	lw	ra,44(sp)
	.cfi_restore 1
	mv	a0,s0
	lw	s0,40(sp)
	.cfi_restore 8
	addi	sp,sp,48
	.cfi_def_cfa_offset 0
	jr	ra
	.cfi_endproc
.LFE35:
	.size	netconn_gethostbyname, .-netconn_gethostbyname
	.text
.Letext0:
	.file 2 "/mnt/d/GitHub/bl_iot_sdk_for_aithinker/components/network/lwip/lwip-port/arch/cc.h"
	.file 3 "/mnt/d/GitHub/bl_iot_sdk_for_aithinker/toolchain/riscv/Linux/riscv64-unknown-elf/include/machine/_default_types.h"
	.file 4 "/mnt/d/GitHub/bl_iot_sdk_for_aithinker/toolchain/riscv/Linux/lib/gcc/riscv64-unknown-elf/10.2.0/include/stddef.h"
	.file 5 "/mnt/d/GitHub/bl_iot_sdk_for_aithinker/toolchain/riscv/Linux/riscv64-unknown-elf/include/sys/_types.h"
	.file 6 "/mnt/d/GitHub/bl_iot_sdk_for_aithinker/toolchain/riscv/Linux/riscv64-unknown-elf/include/sys/_stdint.h"
	.file 7 "/mnt/d/GitHub/bl_iot_sdk_for_aithinker/toolchain/riscv/Linux/riscv64-unknown-elf/include/sys/types.h"
	.file 8 "/mnt/d/GitHub/bl_iot_sdk_for_aithinker/components/network/lwip/src/include/lwip/arch.h"
	.file 9 "/mnt/d/GitHub/bl_iot_sdk_for_aithinker/components/network/lwip/src/include/lwip/err.h"
	.file 10 "/mnt/d/GitHub/bl_iot_sdk_for_aithinker/components/network/lwip/src/include/lwip/pbuf.h"
	.file 11 "/mnt/d/GitHub/bl_iot_sdk_for_aithinker/components/network/lwip/src/include/lwip/ip4_addr.h"
	.file 12 "/mnt/d/GitHub/bl_iot_sdk_for_aithinker/components/network/lwip/src/include/lwip/ip_addr.h"
	.file 13 "/mnt/d/GitHub/bl_iot_sdk_for_aithinker/components/network/lwip/src/include/lwip/netbuf.h"
	.file 14 "/mnt/d/GitHub/bl_iot_sdk_for_aithinker/components/platform/soc/bl602/freertos_riscv_ram/config/queue.h"
	.file 15 "/mnt/d/GitHub/bl_iot_sdk_for_aithinker/components/platform/soc/bl602/freertos_riscv_ram/config/semphr.h"
	.file 16 "/mnt/d/GitHub/bl_iot_sdk_for_aithinker/components/network/lwip/lwip-port/arch/sys_arch.h"
	.file 17 "/mnt/d/GitHub/bl_iot_sdk_for_aithinker/components/network/lwip/src/include/lwip/api.h"
	.file 18 "/mnt/d/GitHub/bl_iot_sdk_for_aithinker/components/network/lwip/src/include/lwip/ip.h"
	.file 19 "/mnt/d/GitHub/bl_iot_sdk_for_aithinker/components/network/lwip/src/include/lwip/tcp.h"
	.file 20 "/mnt/d/GitHub/bl_iot_sdk_for_aithinker/components/network/lwip/src/include/lwip/udp.h"
	.file 21 "/mnt/d/GitHub/bl_iot_sdk_for_aithinker/components/network/lwip/src/include/lwip/raw.h"
	.file 22 "/mnt/d/GitHub/bl_iot_sdk_for_aithinker/components/network/lwip/src/include/lwip/priv/api_msg.h"
	.file 23 "/mnt/d/GitHub/bl_iot_sdk_for_aithinker/components/network/lwip/src/include/lwip/memp.h"
	.file 24 "/mnt/d/GitHub/bl_iot_sdk_for_aithinker/components/network/lwip/src/include/lwip/tcpip.h"
	.file 25 "/mnt/d/GitHub/bl_iot_sdk_for_aithinker/components/network/lwip/src/include/lwip/tcpbase.h"
	.file 26 "/mnt/d/GitHub/bl_iot_sdk_for_aithinker/components/network/lwip/src/include/lwip/priv/tcp_priv.h"
	.file 27 "/mnt/d/GitHub/bl_iot_sdk_for_aithinker/components/network/lwip/src/include/lwip/prot/tcp.h"
	.file 28 "/mnt/d/GitHub/bl_iot_sdk_for_aithinker/components/network/lwip/src/include/lwip/sys.h"
	.file 29 "/mnt/d/GitHub/bl_iot_sdk_for_aithinker/components/network/lwip/src/include/lwip/priv/tcpip_priv.h"