	.file	"if_api.c"
	.option nopic
	.attribute arch, "rv32i2p0_m2p0_f2p0_c2p0"
	.attribute unaligned_access, 0
	.attribute stack_align, 16
	.text
.Ltext0:
	.cfi_sections	.debug_frame
	.section	.text.lwip_if_indextoname,"ax",@progbits
	.align	1
	.globl	lwip_if_indextoname
	.type	lwip_if_indextoname, @function
lwip_if_indextoname:
.LFB5:
	.file 1 "/mnt/d/GitHub/bl_iot_sdk_for_aithinker/components/network/lwip/src/api/if_api.c"
	.loc 1 62 1
	.cfi_startproc
.LVL0:
	.loc 1 64 3
	.loc 1 62 1 is_stmt 0
	addi	sp,sp,-16
	.cfi_def_cfa_offset 16
	sw	ra,12(sp)
	sw	s0,8(sp)
	.cfi_offset 1, -4
	.cfi_offset 8, -8
	.loc 1 64 6
	li	a5,255
	bleu	a0,a5,.L2
.LVL1:
.L4:
	.loc 1 74 3 is_stmt 1
	.loc 1 74 8
	.loc 1 74 17
	.loc 1 74 23 is_stmt 0
	lui	a5,%hi(errno)
	li	a4,6
	sw	a4,%lo(errno)(a5)
	.loc 1 74 39 is_stmt 1
	.loc 1 75 3
	.loc 1 75 9 is_stmt 0
	li	s0,0
.L3:
	.loc 1 76 1
	lw	ra,12(sp)
	.cfi_remember_state
	.cfi_restore 1
	mv	a0,s0
	lw	s0,8(sp)
	.cfi_restore 8
	addi	sp,sp,16
	.cfi_def_cfa_offset 0
	jr	ra
.LVL2:
.L2:
	.cfi_restore_state
.LBB2:
	.loc 1 65 17
	andi	a0,a0,0xff
.LVL3:
	mv	s0,a1
	.loc 1 65 5 is_stmt 1
	.loc 1 65 17 is_stmt 0
	call	netifapi_netif_index_to_name
.LVL4:
	.loc 1 66 5 is_stmt 1
	.loc 1 66 8 is_stmt 0
	bne	a0,zero,.L4
	.loc 1 66 14 discriminator 1
	lbu	a5,0(s0)
	bne	a5,zero,.L3
	j	.L4
.LBE2:
	.cfi_endproc
.LFE5:
	.size	lwip_if_indextoname, .-lwip_if_indextoname
	.section	.text.lwip_if_nametoindex,"ax",@progbits
	.align	1
	.globl	lwip_if_nametoindex
	.type	lwip_if_nametoindex, @function
lwip_if_nametoindex:
.LFB6:
	.loc 1 87 1 is_stmt 1
	.cfi_startproc
.LVL5:
	.loc 1 89 3
	.loc 1 90 3
	.loc 1 92 3
	.loc 1 87 1 is_stmt 0
	addi	sp,sp,-32
	.cfi_def_cfa_offset 32
	.loc 1 92 9
	addi	a1,sp,15
	.loc 1 87 1
	sw	ra,28(sp)
	.cfi_offset 1, -4
	.loc 1 92 9
	call	netifapi_netif_name_to_index
.LVL6:
	.loc 1 93 3 is_stmt 1
	.loc 1 93 6 is_stmt 0
	bne	a0,zero,.L11
	.loc 1 94 5 is_stmt 1
	.loc 1 94 12 is_stmt 0
	lbu	a0,15(sp)
.LVL7:
.L9:
	.loc 1 100 1
	lw	ra,28(sp)
	.cfi_remember_state
	.cfi_restore 1
	addi	sp,sp,32
	.cfi_def_cfa_offset 0
	jr	ra
.LVL8:
.L11:
	.cfi_restore_state
	.loc 1 99 10
	li	a0,0
.LVL9:
	j	.L9
	.cfi_endproc
.LFE6:
	.size	lwip_if_nametoindex, .-lwip_if_nametoindex
	.text
.Letext0:
	.file 2 "/mnt/d/GitHub/bl_iot_sdk_for_aithinker/toolchain/riscv/Linux/riscv64-unknown-elf/include/machine/_default_types.h"
	.file 3 "/mnt/d/GitHub/bl_iot_sdk_for_aithinker/toolchain/riscv/Linux/riscv64-unknown-elf/include/sys/_stdint.h"
	.file 4 "/mnt/d/GitHub/bl_iot_sdk_for_aithinker/components/network/lwip/src/include/lwip/arch.h"
	.file 5 "/mnt/d/GitHub/bl_iot_sdk_for_aithinker/components/network/lwip/src/include/lwip/err.h"
	.file 6 "/mnt/d/GitHub/bl_iot_sdk_for_aithinker/components/network/lwip/src/include/lwip/netifapi.h"
	.file 7 "/mnt/d/GitHub/bl_iot_sdk_for_aithinker/components/network/lwip/src/include/lwip/errno.h"