	.file	"netifapi.c"
	.option nopic
	.attribute arch, "rv32i2p0_m2p0_f2p0_c2p0"
	.attribute unaligned_access, 0
	.attribute stack_align, 16
	.text
.Ltext0:
	.cfi_sections	.debug_frame
	.section	.text.netifapi_do_netif_add,"ax",@progbits
	.align	1
	.type	netifapi_do_netif_add, @function
netifapi_do_netif_add:
.LFB5:
	.file 1 "/mnt/d/GitHub/bl_iot_sdk_for_aithinker/components/network/lwip/src/api/netifapi.c"
	.loc 1 62 1
	.cfi_startproc
.LVL0:
	.loc 1 65 3
	.loc 1 67 3
	.loc 1 62 1 is_stmt 0
	addi	sp,sp,-16
	.cfi_def_cfa_offset 16
	sw	ra,12(sp)
	.cfi_offset 1, -4
	.loc 1 67 8
	lw	a6,32(a0)
	lw	a5,28(a0)
	lw	a4,24(a0)
	lw	a3,20(a0)
	lw	a2,16(a0)
	lw	a1,12(a0)
	lw	a0,8(a0)
.LVL1:
	call	netif_add
.LVL2:
	.loc 1 67 6
	beq	a0,zero,.L3
	.loc 1 78 12
	li	a0,0
.L2:
	.loc 1 80 1
	lw	ra,12(sp)
	.cfi_remember_state
	.cfi_restore 1
	addi	sp,sp,16
	.cfi_def_cfa_offset 0
	jr	ra
.L3:
	.cfi_restore_state
	.loc 1 76 12
	li	a0,-12
	j	.L2
	.cfi_endproc
.LFE5:
	.size	netifapi_do_netif_add, .-netifapi_do_netif_add
	.section	.text.netifapi_do_netif_set_addr,"ax",@progbits
	.align	1
	.type	netifapi_do_netif_set_addr, @function
netifapi_do_netif_set_addr:
.LFB6:
	.loc 1 88 1 is_stmt 1
	.cfi_startproc
.LVL3:
	.loc 1 91 3
	.loc 1 93 3
	.loc 1 88 1 is_stmt 0
	addi	sp,sp,-16
	.cfi_def_cfa_offset 16
	sw	ra,12(sp)
	.cfi_offset 1, -4
	.loc 1 93 3
	lw	a3,20(a0)
	lw	a2,16(a0)
	lw	a1,12(a0)
	lw	a0,8(a0)
.LVL4:
	call	netif_set_addr
.LVL5:
	.loc 1 97 3 is_stmt 1
	.loc 1 98 1 is_stmt 0
	lw	ra,12(sp)
	.cfi_restore 1
	li	a0,0
	addi	sp,sp,16
	.cfi_def_cfa_offset 0
	jr	ra
	.cfi_endproc
.LFE6:
	.size	netifapi_do_netif_set_addr, .-netifapi_do_netif_set_addr
	.section	.text.netifapi_do_name_to_index,"ax",@progbits
	.align	1
	.type	netifapi_do_name_to_index, @function
netifapi_do_name_to_index:
.LFB7:
	.loc 1 106 1 is_stmt 1
	.cfi_startproc
.LVL6:
	.loc 1 109 3
	.loc 1 111 3
	.loc 1 106 1 is_stmt 0
	addi	sp,sp,-16
	.cfi_def_cfa_offset 16
	sw	s0,8(sp)
	sw	ra,12(sp)
	.cfi_offset 8, -8
	.cfi_offset 1, -4
	.loc 1 106 1
	mv	s0,a0
	.loc 1 111 24
	lw	a0,12(a0)
.LVL7:
	call	netif_name_to_index
.LVL8:
	.loc 1 111 22
	sb	a0,16(s0)
	.loc 1 112 3 is_stmt 1
	.loc 1 113 1 is_stmt 0
	lw	ra,12(sp)
	.cfi_restore 1
	lw	s0,8(sp)
	.cfi_restore 8
.LVL9:
	li	a0,0
	addi	sp,sp,16
	.cfi_def_cfa_offset 0
	jr	ra
	.cfi_endproc
.LFE7:
	.size	netifapi_do_name_to_index, .-netifapi_do_name_to_index
	.section	.text.netifapi_do_index_to_name,"ax",@progbits
	.align	1
	.type	netifapi_do_index_to_name, @function
netifapi_do_index_to_name:
.LFB8:
	.loc 1 120 1 is_stmt 1
	.cfi_startproc
.LVL10:
	.loc 1 123 3
	.loc 1 125 3
	.loc 1 120 1 is_stmt 0
	addi	sp,sp,-16
	.cfi_def_cfa_offset 16
	sw	s0,8(sp)
	sw	ra,12(sp)
	.cfi_offset 8, -8
	.cfi_offset 1, -4
	.loc 1 125 8
	lw	a1,12(a0)
	.loc 1 120 1
	mv	s0,a0
	.loc 1 125 8
	lbu	a0,16(a0)
.LVL11:
	call	netif_index_to_name
.LVL12:
	.loc 1 125 6
	bne	a0,zero,.L10
	.loc 1 127 5 is_stmt 1
	.loc 1 127 17 is_stmt 0
	lw	a5,12(s0)
	.loc 1 127 26
	sb	zero,0(a5)
.L10:
	.loc 1 129 3 is_stmt 1
	.loc 1 130 1 is_stmt 0
	lw	ra,12(sp)
	.cfi_restore 1
	lw	s0,8(sp)
	.cfi_restore 8
.LVL13:
	li	a0,0
	addi	sp,sp,16
	.cfi_def_cfa_offset 0
	jr	ra
	.cfi_endproc
.LFE8:
	.size	netifapi_do_index_to_name, .-netifapi_do_index_to_name
	.section	.text.netifapi_do_netif_common,"ax",@progbits
	.align	1
	.type	netifapi_do_netif_common, @function
netifapi_do_netif_common:
.LFB9:
	.loc 1 138 1 is_stmt 1
	.cfi_startproc
.LVL14:
	.loc 1 141 3
	.loc 1 143 3
	.loc 1 143 22 is_stmt 0
	lw	a4,16(a0)
	.loc 1 138 1
	mv	a5,a0
	.loc 1 144 12
	lw	a0,8(a0)
.LVL15:
	.loc 1 143 6
	beq	a4,zero,.L13
	.loc 1 144 5 is_stmt 1
	.loc 1 144 12 is_stmt 0
	jr	a4
.LVL16:
.L13:
.LBB4:
.LBB5:
	.loc 1 146 5 is_stmt 1
.LBE5:
.LBE4:
	.loc 1 138 1 is_stmt 0
	addi	sp,sp,-16
	.cfi_def_cfa_offset 16
	sw	ra,12(sp)
	.cfi_offset 1, -4
.LBB7:
.LBB6:
	.loc 1 146 5
	lw	a5,12(a5)
.LVL17:
	jalr	a5
.LVL18:
	.loc 1 147 5 is_stmt 1
.LBE6:
.LBE7:
	.loc 1 149 1 is_stmt 0
	lw	ra,12(sp)
	.cfi_restore 1
	li	a0,0
	addi	sp,sp,16
	.cfi_def_cfa_offset 0
	jr	ra
	.cfi_endproc
.LFE9:
	.size	netifapi_do_netif_common, .-netifapi_do_netif_common
	.section	.text.netifapi_arp_add,"ax",@progbits
	.align	1
	.globl	netifapi_arp_add
	.type	netifapi_arp_add, @function
netifapi_arp_add:
.LFB10:
	.loc 1 164 1 is_stmt 1
	.cfi_startproc
.LVL19:
	.loc 1 165 3
	.loc 1 168 3
	.loc 1 176 3
	.loc 1 177 3
	.loc 1 178 3
	.loc 1 181 3
	.loc 1 182 1 is_stmt 0
	li	a0,-6
.LVL20:
	ret
	.cfi_endproc
.LFE10:
	.size	netifapi_arp_add, .-netifapi_arp_add
	.section	.text.netifapi_arp_remove,"ax",@progbits
	.align	1
	.globl	netifapi_arp_remove
	.type	netifapi_arp_remove, @function
netifapi_arp_remove:
.LFB11:
	.loc 1 194 1 is_stmt 1
	.cfi_startproc
.LVL21:
	.loc 1 195 3
	.loc 1 198 3
	.loc 1 206 3
	.loc 1 207 3
	.loc 1 210 3
	.loc 1 211 1 is_stmt 0
	li	a0,-6
.LVL22:
	ret
	.cfi_endproc
.LFE11:
	.size	netifapi_arp_remove, .-netifapi_arp_remove
	.section	.text.netifapi_netif_add,"ax",@progbits
	.align	1
	.globl	netifapi_netif_add
	.type	netifapi_netif_add, @function
netifapi_netif_add:
.LFB12:
	.loc 1 227 1 is_stmt 1
	.cfi_startproc
.LVL23:
	.loc 1 228 3
	.loc 1 229 3
	.loc 1 230 3
	.loc 1 233 3
	.loc 1 227 1 is_stmt 0
	addi	sp,sp,-64
	.cfi_def_cfa_offset 64
	sw	ra,60(sp)
	.cfi_offset 1, -4
	.loc 1 233 6
	bne	a1,zero,.L19
	.loc 1 234 12
	lui	a1,%hi(ip_addr_any)
.LVL24:
	addi	a1,a1,%lo(ip_addr_any)
.L19:
.LVL25:
	.loc 1 236 3 is_stmt 1
	.loc 1 236 6 is_stmt 0
	bne	a2,zero,.L20
	.loc 1 237 13
	lui	a2,%hi(ip_addr_any)
.LVL26:
	addi	a2,a2,%lo(ip_addr_any)
.L20:
.LVL27:
	.loc 1 239 3 is_stmt 1
	.loc 1 239 6 is_stmt 0
	bne	a3,zero,.L21
	.loc 1 240 8
	lui	a3,%hi(ip_addr_any)
.LVL28:
	addi	a3,a3,%lo(ip_addr_any)
.L21:
.LVL29:
	.loc 1 244 3 is_stmt 1
	.loc 1 244 13 is_stmt 0
	sw	a0,20(sp)
	.loc 1 246 3 is_stmt 1
	.loc 1 253 9 is_stmt 0
	lui	a0,%hi(netifapi_do_netif_add)
.LVL30:
	.loc 1 246 22
	sw	a1,24(sp)
	.loc 1 247 3 is_stmt 1
	.loc 1 253 9 is_stmt 0
	addi	a0,a0,%lo(netifapi_do_netif_add)
	addi	a1,sp,12
.LVL31:
	.loc 1 247 23
	sw	a2,28(sp)
	.loc 1 248 3 is_stmt 1
	.loc 1 248 18 is_stmt 0
	sw	a3,32(sp)
	.loc 1 250 3 is_stmt 1
	.loc 1 250 21 is_stmt 0
	sw	a4,36(sp)
	.loc 1 251 3 is_stmt 1
	.loc 1 251 20 is_stmt 0
	sw	a5,40(sp)
	.loc 1 252 3 is_stmt 1
	.loc 1 252 21 is_stmt 0
	sw	a6,44(sp)
	.loc 1 253 3 is_stmt 1
	.loc 1 253 9 is_stmt 0
	call	tcpip_api_call
.LVL32:
	.loc 1 254 3 is_stmt 1
	.loc 1 255 3
	.loc 1 256 1 is_stmt 0
	lw	ra,60(sp)
	.cfi_restore 1
	addi	sp,sp,64
	.cfi_def_cfa_offset 0
	jr	ra
	.cfi_endproc
.LFE12:
	.size	netifapi_netif_add, .-netifapi_netif_add
	.section	.text.netifapi_netif_set_addr,"ax",@progbits
	.align	1
	.globl	netifapi_netif_set_addr
	.type	netifapi_netif_set_addr, @function
netifapi_netif_set_addr:
.LFB13:
	.loc 1 271 1 is_stmt 1
	.cfi_startproc
.LVL33:
	.loc 1 272 3
	.loc 1 273 3
	.loc 1 274 3
	.loc 1 276 3
	.loc 1 271 1 is_stmt 0
	addi	sp,sp,-64
	.cfi_def_cfa_offset 64
	sw	ra,60(sp)
	.cfi_offset 1, -4
	.loc 1 276 6
	bne	a1,zero,.L24
	.loc 1 277 12
	lui	a1,%hi(ip_addr_any)
.LVL34:
	addi	a1,a1,%lo(ip_addr_any)
.L24:
.LVL35:
	.loc 1 279 3 is_stmt 1
	.loc 1 279 6 is_stmt 0
	bne	a2,zero,.L25
	.loc 1 280 13
	lui	a2,%hi(ip_addr_any)
.LVL36:
	addi	a2,a2,%lo(ip_addr_any)
.L25:
.LVL37:
	.loc 1 282 3 is_stmt 1
	.loc 1 282 6 is_stmt 0
	bne	a3,zero,.L26
	.loc 1 283 8
	lui	a3,%hi(ip_addr_any)
.LVL38:
	addi	a3,a3,%lo(ip_addr_any)
.L26:
.LVL39:
	.loc 1 286 3 is_stmt 1
	.loc 1 286 13 is_stmt 0
	sw	a0,20(sp)
	.loc 1 287 3 is_stmt 1
	.loc 1 290 9 is_stmt 0
	lui	a0,%hi(netifapi_do_netif_set_addr)
.LVL40:
	.loc 1 287 22
	sw	a1,24(sp)
	.loc 1 288 3 is_stmt 1
	.loc 1 290 9 is_stmt 0
	addi	a0,a0,%lo(netifapi_do_netif_set_addr)
	addi	a1,sp,12
.LVL41:
	.loc 1 288 23
	sw	a2,28(sp)
	.loc 1 289 3 is_stmt 1
	.loc 1 289 18 is_stmt 0
	sw	a3,32(sp)
	.loc 1 290 3 is_stmt 1
	.loc 1 290 9 is_stmt 0
	call	tcpip_api_call
.LVL42:
	.loc 1 291 3 is_stmt 1
	.loc 1 292 3
	.loc 1 293 1 is_stmt 0
	lw	ra,60(sp)
	.cfi_restore 1
	addi	sp,sp,64
	.cfi_def_cfa_offset 0
	jr	ra
	.cfi_endproc
.LFE13:
	.size	netifapi_netif_set_addr, .-netifapi_netif_set_addr
	.section	.text.netifapi_netif_common,"ax",@progbits
	.align	1
	.globl	netifapi_netif_common
	.type	netifapi_netif_common, @function
netifapi_netif_common:
.LFB14:
	.loc 1 305 1 is_stmt 1
	.cfi_startproc
.LVL43:
	.loc 1 306 3
	.loc 1 307 3
	.loc 1 308 3
	.loc 1 310 3
	.loc 1 305 1 is_stmt 0
	addi	sp,sp,-64
	.cfi_def_cfa_offset 64
	.loc 1 310 13
	sw	a0,20(sp)
	.loc 1 311 3 is_stmt 1
	.loc 1 313 9 is_stmt 0
	lui	a0,%hi(netifapi_do_netif_common)
.LVL44:
	.loc 1 311 27
	sw	a1,24(sp)
	.loc 1 312 3 is_stmt 1
	.loc 1 313 9 is_stmt 0
	addi	a0,a0,%lo(netifapi_do_netif_common)
	addi	a1,sp,12
.LVL45:
	.loc 1 305 1
	sw	ra,60(sp)
	.cfi_offset 1, -4
	.loc 1 312 27
	sw	a2,28(sp)
	.loc 1 313 3 is_stmt 1
	.loc 1 313 9 is_stmt 0
	call	tcpip_api_call
.LVL46:
	.loc 1 314 3 is_stmt 1
	.loc 1 315 3
	.loc 1 316 1 is_stmt 0
	lw	ra,60(sp)
	.cfi_restore 1
	addi	sp,sp,64
	.cfi_def_cfa_offset 0
	jr	ra
	.cfi_endproc
.LFE14:
	.size	netifapi_netif_common, .-netifapi_netif_common
	.section	.text.netifapi_netif_name_to_index,"ax",@progbits
	.align	1
	.globl	netifapi_netif_name_to_index
	.type	netifapi_netif_name_to_index, @function
netifapi_netif_name_to_index:
.LFB15:
	.loc 1 328 1 is_stmt 1
	.cfi_startproc
.LVL47:
	.loc 1 329 3
	.loc 1 330 3
	.loc 1 331 3
	.loc 1 333 3
	.loc 1 328 1 is_stmt 0
	addi	sp,sp,-64
	.cfi_def_cfa_offset 64
	sw	s0,56(sp)
	sw	ra,60(sp)
	.cfi_offset 8, -8
	.cfi_offset 1, -4
	.loc 1 339 20
	sw	a0,24(sp)
	.loc 1 341 9
	lui	a0,%hi(netifapi_do_name_to_index)
.LVL48:
	.loc 1 328 1
	mv	s0,a1
	.loc 1 333 8
	sb	zero,0(a1)
	.loc 1 339 3 is_stmt 1
	.loc 1 341 3
	.loc 1 341 9 is_stmt 0
	addi	a0,a0,%lo(netifapi_do_name_to_index)
	addi	a1,sp,12
.LVL49:
	call	tcpip_api_call
.LVL50:
	.loc 1 342 3 is_stmt 1
	.loc 1 342 6 is_stmt 0
	bne	a0,zero,.L31
	.loc 1 343 5 is_stmt 1
	.loc 1 343 10 is_stmt 0
	lbu	a5,28(sp)
	sb	a5,0(s0)
.L31:
	.loc 1 345 3 is_stmt 1
	.loc 1 346 3
	.loc 1 347 1 is_stmt 0
	lw	ra,60(sp)
	.cfi_restore 1
	lw	s0,56(sp)
	.cfi_restore 8
.LVL51:
	addi	sp,sp,64
	.cfi_def_cfa_offset 0
	jr	ra
	.cfi_endproc
.LFE15:
	.size	netifapi_netif_name_to_index, .-netifapi_netif_name_to_index
	.section	.text.netifapi_netif_index_to_name,"ax",@progbits
	.align	1
	.globl	netifapi_netif_index_to_name
	.type	netifapi_netif_index_to_name, @function
netifapi_netif_index_to_name:
.LFB16:
	.loc 1 360 1 is_stmt 1
	.cfi_startproc
.LVL52:
	.loc 1 361 3
	.loc 1 362 3
	.loc 1 363 3
	.loc 1 365 3
	.loc 1 360 1 is_stmt 0
	addi	sp,sp,-64
	.cfi_def_cfa_offset 64
	.loc 1 365 21
	sb	a0,28(sp)
	.loc 1 367 3 is_stmt 1
	.loc 1 369 9 is_stmt 0
	lui	a0,%hi(netifapi_do_index_to_name)
.LVL53:
	.loc 1 367 20
	sw	a1,24(sp)
	.loc 1 369 3 is_stmt 1
	.loc 1 369 9 is_stmt 0
	addi	a0,a0,%lo(netifapi_do_index_to_name)
	addi	a1,sp,12
.LVL54:
	.loc 1 360 1
	sw	ra,60(sp)
	.cfi_offset 1, -4
	.loc 1 369 9
	call	tcpip_api_call
.LVL55:
	.loc 1 376 3 is_stmt 1
	.loc 1 377 3
	.loc 1 378 1 is_stmt 0
	lw	ra,60(sp)
	.cfi_restore 1
	addi	sp,sp,64
	.cfi_def_cfa_offset 0
	jr	ra
	.cfi_endproc
.LFE16:
	.size	netifapi_netif_index_to_name, .-netifapi_netif_index_to_name
	.text
.Letext0:
	.file 2 "/mnt/d/GitHub/bl_iot_sdk_for_aithinker/toolchain/riscv/Linux/riscv64-unknown-elf/include/machine/_default_types.h"
	.file 3 "/mnt/d/GitHub/bl_iot_sdk_for_aithinker/toolchain/riscv/Linux/lib/gcc/riscv64-unknown-elf/10.2.0/include/stddef.h"
	.file 4 "/mnt/d/GitHub/bl_iot_sdk_for_aithinker/toolchain/riscv/Linux/riscv64-unknown-elf/include/sys/_stdint.h"
	.file 5 "/mnt/d/GitHub/bl_iot_sdk_for_aithinker/components/network/lwip/src/include/lwip/arch.h"
	.file 6 "/mnt/d/GitHub/bl_iot_sdk_for_aithinker/components/network/lwip/src/include/lwip/err.h"
	.file 7 "/mnt/d/GitHub/bl_iot_sdk_for_aithinker/components/network/lwip/src/include/lwip/pbuf.h"
	.file 8 "/mnt/d/GitHub/bl_iot_sdk_for_aithinker/components/network/lwip/src/include/lwip/ip4_addr.h"
	.file 9 "/mnt/d/GitHub/bl_iot_sdk_for_aithinker/components/network/lwip/src/include/lwip/ip_addr.h"
	.file 10 "/mnt/d/GitHub/bl_iot_sdk_for_aithinker/components/network/lwip/src/include/lwip/netif.h"
	.file 11 "/mnt/d/GitHub/bl_iot_sdk_for_aithinker/components/network/lwip/src/include/lwip/prot/ethernet.h"
	.file 12 "/mnt/d/GitHub/bl_iot_sdk_for_aithinker/components/platform/soc/bl602/freertos_riscv_ram/config/queue.h"
	.file 13 "/mnt/d/GitHub/bl_iot_sdk_for_aithinker/components/platform/soc/bl602/freertos_riscv_ram/config/semphr.h"
	.file 14 "/mnt/d/GitHub/bl_iot_sdk_for_aithinker/components/network/lwip/lwip-port/arch/sys_arch.h"
	.file 15 "/mnt/d/GitHub/bl_iot_sdk_for_aithinker/components/network/lwip/src/include/lwip/priv/tcpip_priv.h"
	.file 16 "/mnt/d/GitHub/bl_iot_sdk_for_aithinker/components/network/lwip/src/include/lwip/priv/api_msg.h"
	.file 17 "/mnt/d/GitHub/bl_iot_sdk_for_aithinker/components/network/lwip/src/include/lwip/netifapi.h"