	.file	"assert.c"
	.option nopic
	.attribute arch, "rv32i2p0_m2p0_f2p0_c2p0"
	.attribute unaligned_access, 0
	.attribute stack_align, 16
	.text
.Ltext0:
	.cfi_sections	.debug_frame
	.section	.rodata.__assert.str1.4,"aMS",@progbits,1
	.align	2
.LC0:
	.string	"Assertion Failed: %s, in %s:%d\r\n"
	.section	.text.__assert,"ax",@progbits
	.align	1
	.globl	__assert
	.type	__assert, @function
__assert:
.LFB3:
	.file 1 "/mnt/d/GitHub/bl_iot_sdk_for_aithinker/components/libc/newlibc/assert.c"
	.loc 1 10 1
	.cfi_startproc
.LVL0:
	.loc 1 11 5
	.loc 1 10 1 is_stmt 0
	mv	a3,a1
	mv	a1,a2
.LVL1:
	.loc 1 11 5
	mv	a2,a0
.LVL2:
	lui	a0,%hi(.LC0)
.LVL3:
	.loc 1 10 1
	addi	sp,sp,-16
	.cfi_def_cfa_offset 16
	.loc 1 11 5
	addi	a0,a0,%lo(.LC0)
	.loc 1 10 1
	sw	ra,12(sp)
	.cfi_offset 1, -4
	.loc 1 11 5
	call	printf
.LVL4:
	.loc 1 12 5 is_stmt 1
	.loc 1 12 22
	li	a0,2
	call	vEnvironmentCall
.LVL5:
.L2:
	.loc 1 13 5 discriminator 1
	.loc 1 13 13 discriminator 1
	.loc 1 13 10 discriminator 1
	j	.L2
	.cfi_endproc
.LFE3:
	.size	__assert, .-__assert
	.section	.rodata.__assert_func.str1.4,"aMS",@progbits,1
	.align	2
.LC1:
	.string	"Assertion Failed: %s, in %s %s:%d\r\n"
	.section	.text.__assert_func,"ax",@progbits
	.align	1
	.globl	__assert_func
	.type	__assert_func, @function
__assert_func:
.LFB4:
	.loc 1 18 1
	.cfi_startproc
.LVL6:
	.loc 1 19 5
	.loc 1 18 1 is_stmt 0
	mv	a4,a1
	mv	a1,a3
.LVL7:
	.loc 1 19 5
	mv	a3,a0
.LVL8:
	lui	a0,%hi(.LC1)
.LVL9:
	.loc 1 18 1
	addi	sp,sp,-16
	.cfi_def_cfa_offset 16
	.loc 1 19 5
	addi	a0,a0,%lo(.LC1)
	.loc 1 18 1
	sw	ra,12(sp)
	.cfi_offset 1, -4
	.loc 1 19 5
	call	printf
.LVL10:
	.loc 1 20 5 is_stmt 1
	.loc 1 20 22
	li	a0,2
	call	vEnvironmentCall
.LVL11:
.L5:
	.loc 1 21 5 discriminator 1
	.loc 1 21 13 discriminator 1
	.loc 1 21 10 discriminator 1
	j	.L5
	.cfi_endproc
.LFE4:
	.size	__assert_func, .-__assert_func
	.section	.text.abort,"ax",@progbits
	.align	1
	.globl	abort
	.type	abort, @function
abort:
.LFB5:
	.loc 1 25 13
	.cfi_startproc
	.loc 1 26 5
	.loc 1 26 22
	.loc 1 25 13 is_stmt 0
	addi	sp,sp,-16
	.cfi_def_cfa_offset 16
	.loc 1 26 22
	li	a0,2
	.loc 1 25 13
	sw	ra,12(sp)
	.cfi_offset 1, -4
	.loc 1 26 22
	call	vEnvironmentCall
.LVL12:
.L8:
	.loc 1 27 5 is_stmt 1 discriminator 1
	.loc 1 27 13 discriminator 1
	.loc 1 27 10 discriminator 1
	j	.L8
	.cfi_endproc
.LFE5:
	.size	abort, .-abort
	.text
.Letext0:
	.file 2 "/mnt/d/GitHub/bl_iot_sdk_for_aithinker/toolchain/riscv/Linux/riscv64-unknown-elf/include/assert.h"
	.file 3 "/mnt/d/GitHub/bl_iot_sdk_for_aithinker/components/platform/soc/bl602/freertos_riscv_ram/portable/GCC/RISC-V/portmacro.h"
	.file 4 "/mnt/d/GitHub/bl_iot_sdk_for_aithinker/toolchain/riscv/Linux/riscv64-unknown-elf/include/stdio.h"