	.file	"bl602_hbn.c"
	.option nopic
	.attribute arch, "rv32i2p0_m2p0_f2p0_c2p0"
	.attribute unaligned_access, 0
	.attribute stack_align, 16
	.text
.Ltext0:
	.cfi_sections	.debug_frame
	.section	.tcm_code./mnt/d/GitHub/bl_iot_sdk_for_aithinker/components/platform/soc/bl602/bl602_std/bl602_std/StdDriver/Src/bl602_hbn.c201,"ax",@progbits
	.align	1
	.weak	HBN_Power_Down_Flash
	.type	HBN_Power_Down_Flash, @function
HBN_Power_Down_Flash:
.LFB10:
	.file 1 "/mnt/d/GitHub/bl_iot_sdk_for_aithinker/components/platform/soc/bl602/bl602_std/bl602_std/StdDriver/Src/bl602_hbn.c"
	.loc 1 202 1
	.cfi_startproc
.LVL0:
	.loc 1 203 5
	.loc 1 205 5
	.loc 1 202 1 is_stmt 0
	addi	sp,sp,-112
	.cfi_def_cfa_offset 112
	sw	ra,108(sp)
	sw	s0,104(sp)
	.cfi_offset 1, -4
	.cfi_offset 8, -8
	.loc 1 205 7
	bne	a0,zero,.L2
	.loc 1 206 9 is_stmt 1
	call	SFlash_Cache_Flush
.LVL1:
	.loc 1 207 9
	li	a0,587202560
	li	a2,84
	addi	a1,sp,12
	addi	a0,a0,12
	call	XIP_SFlash_Read_Via_Cache_Need_Lock
.LVL2:
	.loc 1 208 9
	call	SFlash_Cache_Flush
.LVL3:
	.loc 1 210 9
	li	a0,0
	call	SF_Ctrl_Set_Owner
.LVL4:
	.loc 1 211 9
	addi	a0,sp,12
.L5:
	.loc 1 214 9 is_stmt 0
	call	SFlash_Reset_Continue_Read
.LVL5:
	.loc 1 217 5 is_stmt 1
	call	SFlash_Powerdown
.LVL6:
	.loc 1 218 1 is_stmt 0
	lw	ra,108(sp)
	.cfi_remember_state
	.cfi_restore 1
	lw	s0,104(sp)
	.cfi_restore 8
	addi	sp,sp,112
	.cfi_def_cfa_offset 0
	jr	ra
.LVL7:
.L2:
	.cfi_restore_state
	mv	s0,a0
	.loc 1 213 9 is_stmt 1
	li	a0,0
.LVL8:
	call	SF_Ctrl_Set_Owner
.LVL9:
	.loc 1 214 9
	mv	a0,s0
	j	.L5
	.cfi_endproc
.LFE10:
	.size	HBN_Power_Down_Flash, .-HBN_Power_Down_Flash
	.section	.tcm_code./mnt/d/GitHub/bl_iot_sdk_for_aithinker/components/platform/soc/bl602/bl602_std/bl602_std/StdDriver/Src/bl602_hbn.c234,"ax",@progbits
	.align	1
	.weak	HBN_Enable
	.type	HBN_Enable, @function
HBN_Enable:
.LFB11:
	.loc 1 235 1
	.cfi_startproc
.LVL10:
	.loc 1 236 5
	.loc 1 238 5
	.loc 1 239 5
	.loc 1 243 5
	.loc 1 235 1 is_stmt 0
	addi	sp,sp,-16
	.cfi_def_cfa_offset 16
	sw	ra,12(sp)
	.cfi_offset 1, -4
	.loc 1 243 60
	li	a5,1073803264
	li	a4,36
	sw	a4,52(a5)
	.loc 1 245 5 is_stmt 1
	.loc 1 245 11 is_stmt 0
	lw	a4,20(a5)
.LVL11:
	.loc 1 246 5 is_stmt 1
	.loc 1 246 82 is_stmt 0
	slli	a0,a0,8
.LVL12:
	.loc 1 246 23
	andi	a4,a4,-257
.LVL13:
	.loc 1 246 11
	or	a0,a0,a4
.LVL14:
	.loc 1 247 5 is_stmt 1
	.loc 1 247 11 is_stmt 0
	li	a4,-65536
	addi	a4,a4,-1
	and	a0,a0,a4
.LVL15:
	.loc 1 248 5 is_stmt 1
	.loc 1 248 60 is_stmt 0
	sw	a0,20(a5)
	.loc 1 271 5 is_stmt 1
	.loc 1 271 11 is_stmt 0
	lw	a4,48(a5)
.LVL16:
	.loc 1 272 5 is_stmt 1
	.loc 1 272 11 is_stmt 0
	andi	a4,a4,-4
.LVL17:
	.loc 1 273 5 is_stmt 1
	.loc 1 273 60 is_stmt 0
	sw	a4,48(a5)
	.loc 1 274 5 is_stmt 1
 #APP
# 274 "/mnt/d/GitHub/bl_iot_sdk_for_aithinker/components/platform/soc/bl602/bl602_std/bl602_std/StdDriver/Src/bl602_hbn.c" 1
	nop
# 0 "" 2
	.loc 1 274 28
# 274 "/mnt/d/GitHub/bl_iot_sdk_for_aithinker/components/platform/soc/bl602/bl602_std/bl602_std/StdDriver/Src/bl602_hbn.c" 1
	nop
# 0 "" 2
	.loc 1 274 51
# 274 "/mnt/d/GitHub/bl_iot_sdk_for_aithinker/components/platform/soc/bl602/bl602_std/bl602_std/StdDriver/Src/bl602_hbn.c" 1
	nop
# 0 "" 2
	.loc 1 274 74
# 274 "/mnt/d/GitHub/bl_iot_sdk_for_aithinker/components/platform/soc/bl602/bl602_std/bl602_std/StdDriver/Src/bl602_hbn.c" 1
	nop
# 0 "" 2
	.loc 1 277 5
	.loc 1 277 61 is_stmt 0
 #NO_APP
	li	a4,1312968704
.LVL18:
	addi	a3,a5,256
	addi	a4,a4,-1979
	sw	a4,0(a3)
.LVL19:
	.loc 1 279 5 is_stmt 1
	.loc 1 279 11 is_stmt 0
	lw	a5,0(a5)
.LVL20:
	.loc 1 281 5 is_stmt 1
	li	a4,3
	bgtu	a2,a4,.L7
	li	a4,1
	bgtu	a2,a4,.L8
	li	a4,-4096
	bne	a2,zero,.L9
	.loc 1 283 13
.LVL21:
	.loc 1 284 13
	.loc 1 284 19 is_stmt 0
	addi	a4,a4,1535
	and	a5,a5,a4
.LVL22:
	.loc 1 285 13 is_stmt 1
.L7:
	.loc 1 306 5
	.loc 1 306 11 is_stmt 0
	li	a4,-33554432
	addi	a4,a4,-1
	and	a5,a5,a4
.LVL23:
	.loc 1 307 5 is_stmt 1
	.loc 1 307 59 is_stmt 0
	li	a4,1073803264
	sw	a5,0(a4)
	.loc 1 310 5 is_stmt 1
	.loc 1 310 11 is_stmt 0
	lw	a5,0(a4)
.LVL24:
	.loc 1 311 5 is_stmt 1
	.loc 1 311 11 is_stmt 0
	ori	a5,a5,128
.LVL25:
	.loc 1 312 5 is_stmt 1
	.loc 1 312 59 is_stmt 0
	sw	a5,0(a4)
.LVL26:
.L10:
	.loc 1 314 5 is_stmt 1 discriminator 1
	.loc 1 315 9 discriminator 1
	li	a0,1000
	call	BL602_Delay_MS
.LVL27:
	.loc 1 314 10 discriminator 1
	j	.L10
.LVL28:
.L9:
	.loc 1 288 13
	.loc 1 289 13
	addi	a4,a4,2047
	and	a5,a5,a4
.LVL29:
	.loc 1 289 19 is_stmt 0
	ori	a5,a5,512
.LVL30:
	.loc 1 290 13 is_stmt 1
	j	.L7
.L8:
	.loc 1 298 13
.LVL31:
	.loc 1 299 13
	.loc 1 299 19 is_stmt 0
	li	a4,4096
	addi	a4,a4,-1536
	or	a5,a5,a4
.LVL32:
	.loc 1 300 13 is_stmt 1
	j	.L7
	.cfi_endproc
.LFE11:
	.size	HBN_Enable, .-HBN_Enable
	.section	.tcm_code./mnt/d/GitHub/bl_iot_sdk_for_aithinker/components/platform/soc/bl602/bl602_std/bl602_std/StdDriver/Src/bl602_hbn.c331,"ax",@progbits
	.align	1
	.globl	HBN_Enable_Ext
	.type	HBN_Enable_Ext, @function
HBN_Enable_Ext:
.LFB12:
	.loc 1 332 1
	.cfi_startproc
.LVL33:
	.loc 1 333 5
	.loc 1 335 5
	.loc 1 336 5
	.loc 1 340 5
	.loc 1 332 1 is_stmt 0
	addi	sp,sp,-16
	.cfi_def_cfa_offset 16
	sw	ra,12(sp)
	.cfi_offset 1, -4
	.loc 1 340 60
	li	a5,1073803264
	li	a4,36
	sw	a4,52(a5)
	.loc 1 342 5 is_stmt 1
	.loc 1 342 11 is_stmt 0
	lw	a4,20(a5)
.LVL34:
	.loc 1 343 5 is_stmt 1
	.loc 1 343 82 is_stmt 0
	slli	a0,a0,8
.LVL35:
	.loc 1 349 23
	li	a3,-7864320
	.loc 1 343 23
	andi	a4,a4,-257
.LVL36:
	.loc 1 343 11
	or	a0,a0,a4
.LVL37:
	.loc 1 344 5 is_stmt 1
	.loc 1 344 11 is_stmt 0
	li	a4,-65536
	addi	a4,a4,-1
	and	a0,a0,a4
.LVL38:
	.loc 1 345 5 is_stmt 1
	.loc 1 345 60 is_stmt 0
	sw	a0,20(a5)
	.loc 1 348 5 is_stmt 1
	.loc 1 348 11 is_stmt 0
	lw	a4,0(a5)
.LVL39:
	.loc 1 349 5 is_stmt 1
	.loc 1 349 23 is_stmt 0
	addi	a3,a3,-1
	and	a3,a4,a3
.LVL40:
	.loc 1 350 5 is_stmt 1
	.loc 1 349 81 is_stmt 0
	slli	a4,a1,19
	.loc 1 349 11
	or	a4,a4,a3
.LVL41:
	.loc 1 350 23
	li	a3,-491520
	addi	a3,a3,-1
	and	a4,a4,a3
.LVL42:
	.loc 1 350 81
	slli	a1,a1,15
.LVL43:
	.loc 1 350 11
	or	a1,a1,a4
.LVL44:
	.loc 1 351 5 is_stmt 1
	.loc 1 351 59 is_stmt 0
	sw	a1,0(a5)
	.loc 1 354 5 is_stmt 1
	.loc 1 354 11 is_stmt 0
	lw	a4,48(a5)
.LVL45:
	.loc 1 355 5 is_stmt 1
	.loc 1 355 11 is_stmt 0
	andi	a4,a4,-4
.LVL46:
	.loc 1 356 5 is_stmt 1
	.loc 1 356 60 is_stmt 0
	sw	a4,48(a5)
	.loc 1 357 5 is_stmt 1
 #APP
# 357 "/mnt/d/GitHub/bl_iot_sdk_for_aithinker/components/platform/soc/bl602/bl602_std/bl602_std/StdDriver/Src/bl602_hbn.c" 1
	nop
# 0 "" 2
	.loc 1 357 28
# 357 "/mnt/d/GitHub/bl_iot_sdk_for_aithinker/components/platform/soc/bl602/bl602_std/bl602_std/StdDriver/Src/bl602_hbn.c" 1
	nop
# 0 "" 2
	.loc 1 357 51
# 357 "/mnt/d/GitHub/bl_iot_sdk_for_aithinker/components/platform/soc/bl602/bl602_std/bl602_std/StdDriver/Src/bl602_hbn.c" 1
	nop
# 0 "" 2
	.loc 1 357 74
# 357 "/mnt/d/GitHub/bl_iot_sdk_for_aithinker/components/platform/soc/bl602/bl602_std/bl602_std/StdDriver/Src/bl602_hbn.c" 1
	nop
# 0 "" 2
	.loc 1 360 5
	.loc 1 360 61 is_stmt 0
 #NO_APP
	li	a4,1312968704
.LVL47:
	addi	a3,a5,256
	addi	a4,a4,-1979
	sw	a4,0(a3)
.LVL48:
	.loc 1 362 5 is_stmt 1
	.loc 1 362 11 is_stmt 0
	lw	a5,0(a5)
.LVL49:
	.loc 1 364 5 is_stmt 1
	li	a4,3
	bgtu	a2,a4,.L13
	li	a4,1
	bgtu	a2,a4,.L14
	li	a4,-4096
	bne	a2,zero,.L15
	.loc 1 366 13
.LVL50:
	.loc 1 367 13
	.loc 1 367 19 is_stmt 0
	addi	a4,a4,1535
	and	a5,a5,a4
.LVL51:
	.loc 1 368 13 is_stmt 1
.L13:
	.loc 1 389 5
	.loc 1 389 11 is_stmt 0
	li	a4,-33554432
	addi	a4,a4,-1
	and	a5,a5,a4
.LVL52:
	.loc 1 390 5 is_stmt 1
	.loc 1 390 59 is_stmt 0
	li	a4,1073803264
	sw	a5,0(a4)
	.loc 1 393 5 is_stmt 1
	.loc 1 393 11 is_stmt 0
	lw	a5,0(a4)
.LVL53:
	.loc 1 394 5 is_stmt 1
	.loc 1 394 11 is_stmt 0
	ori	a5,a5,128
.LVL54:
	.loc 1 395 5 is_stmt 1
	.loc 1 395 59 is_stmt 0
	sw	a5,0(a4)
.LVL55:
.L16:
	.loc 1 397 5 is_stmt 1 discriminator 1
	.loc 1 398 9 discriminator 1
	li	a0,1000
	call	BL602_Delay_MS
.LVL56:
	.loc 1 397 10 discriminator 1
	j	.L16
.LVL57:
.L15:
	.loc 1 371 13
	.loc 1 372 13
	addi	a4,a4,2047
	and	a5,a5,a4
.LVL58:
	.loc 1 372 19 is_stmt 0
	ori	a5,a5,512
.LVL59:
	.loc 1 373 13 is_stmt 1
	j	.L13
.L14:
	.loc 1 381 13
.LVL60:
	.loc 1 382 13
	.loc 1 382 19 is_stmt 0
	li	a4,4096
	addi	a4,a4,-1536
	or	a5,a5,a4
.LVL61:
	.loc 1 383 13 is_stmt 1
	j	.L13
	.cfi_endproc
.LFE12:
	.size	HBN_Enable_Ext, .-HBN_Enable_Ext
	.section	.tcm_code./mnt/d/GitHub/bl_iot_sdk_for_aithinker/components/platform/soc/bl602/bl602_std/bl602_std/StdDriver/Src/bl602_hbn.c412,"ax",@progbits
	.align	1
	.weak	HBN_Reset
	.type	HBN_Reset, @function
HBN_Reset:
.LFB13:
	.loc 1 413 1
	.cfi_startproc
	.loc 1 414 5
	.loc 1 416 5
	.loc 1 416 11 is_stmt 0
	li	a4,1073803264
	lw	a5,0(a4)
.LVL62:
	.loc 1 418 5 is_stmt 1
	.loc 1 418 11 is_stmt 0
	li	a3,-4096
	addi	a3,a3,-1
	and	a5,a5,a3
.LVL63:
	.loc 1 419 5 is_stmt 1
	.loc 1 421 11 is_stmt 0
	li	a3,4096
	.loc 1 419 59
	sw	a5,0(a4)
	.loc 1 421 5 is_stmt 1
	.loc 1 421 11 is_stmt 0
	or	a3,a5,a3
.LVL64:
	.loc 1 422 5 is_stmt 1
	.loc 1 422 59 is_stmt 0
	sw	a3,0(a4)
	.loc 1 424 5 is_stmt 1
.LVL65:
	.loc 1 425 5
	.loc 1 425 59 is_stmt 0
	sw	a5,0(a4)
	.loc 1 427 5 is_stmt 1
	.loc 1 428 1 is_stmt 0
	li	a0,0
	ret
	.cfi_endproc
.LFE13:
	.size	HBN_Reset, .-HBN_Reset
	.section	.text.HBN_App_Reset,"ax",@progbits
	.align	1
	.globl	HBN_App_Reset
	.type	HBN_App_Reset, @function
HBN_App_Reset:
.LFB14:
	.loc 1 443 1 is_stmt 1
	.cfi_startproc
.LVL66:
	.loc 1 444 5
	.loc 1 446 5
	.loc 1 443 1 is_stmt 0
	addi	sp,sp,-80
	.cfi_def_cfa_offset 80
	sw	ra,76(sp)
	sw	s0,72(sp)
	sw	s1,68(sp)
	sw	s2,64(sp)
	sw	s3,60(sp)
	sw	s4,56(sp)
	sw	s5,52(sp)
	sw	s6,48(sp)
	sw	s7,44(sp)
	sw	s8,40(sp)
	sw	s9,36(sp)
	sw	s10,32(sp)
	sw	s11,28(sp)
	.cfi_offset 1, -4
	.cfi_offset 8, -8
	.cfi_offset 9, -12
	.cfi_offset 18, -16
	.cfi_offset 19, -20
	.cfi_offset 20, -24
	.cfi_offset 21, -28
	.cfi_offset 22, -32
	.cfi_offset 23, -36
	.cfi_offset 24, -40
	.cfi_offset 25, -44
	.cfi_offset 26, -48
	.cfi_offset 27, -52
	.loc 1 446 13
	li	s0,1073803264
	lw	s11,0(s0)
.LVL67:
	.loc 1 447 5 is_stmt 1
	.loc 1 447 13 is_stmt 0
	lw	a4,4(s0)
	.loc 1 455 13
	addi	s1,s0,256
	.loc 1 447 13
	sw	a4,12(sp)
.LVL68:
	.loc 1 448 5 is_stmt 1
	.loc 1 448 13 is_stmt 0
	lw	a5,8(s0)
	sw	a5,8(sp)
.LVL69:
	.loc 1 449 5 is_stmt 1
	.loc 1 449 13 is_stmt 0
	lw	s10,20(s0)
.LVL70:
	.loc 1 450 5 is_stmt 1
	.loc 1 450 13 is_stmt 0
	lw	s9,28(s0)
.LVL71:
	.loc 1 451 5 is_stmt 1
	.loc 1 451 13 is_stmt 0
	lw	s8,32(s0)
.LVL72:
	.loc 1 452 5 is_stmt 1
	.loc 1 452 13 is_stmt 0
	lw	s7,36(s0)
.LVL73:
	.loc 1 453 5 is_stmt 1
	.loc 1 453 13 is_stmt 0
	lw	s6,40(s0)
.LVL74:
	.loc 1 454 5 is_stmt 1
	.loc 1 454 13 is_stmt 0
	lw	s5,52(s0)
	.loc 1 455 5 is_stmt 1
	.loc 1 455 13 is_stmt 0
	lw	s4,0(s1)
	.loc 1 456 5 is_stmt 1
	.loc 1 456 14 is_stmt 0
	lw	s3,4(s1)
	.loc 1 457 5 is_stmt 1
	.loc 1 457 14 is_stmt 0
	lw	s2,8(s1)
	.loc 1 459 5 is_stmt 1
	call	HBN_Reset
.LVL75:
	.loc 1 461 5
	li	a0,100
	call	BL602_Delay_US
.LVL76:
	.loc 1 463 5
	.loc 1 463 59 is_stmt 0
	lw	a4,12(sp)
	.loc 1 478 1
	li	a0,0
	.loc 1 463 59
	sw	a4,4(s0)
.LVL77:
	.loc 1 464 5 is_stmt 1
	.loc 1 464 59 is_stmt 0
	lw	a5,8(sp)
	sw	a5,8(s0)
	.loc 1 465 5 is_stmt 1
	.loc 1 465 59 is_stmt 0
	sw	s11,0(s0)
	.loc 1 467 5 is_stmt 1
	.loc 1 467 60 is_stmt 0
	sw	s10,20(s0)
	.loc 1 468 5 is_stmt 1
	.loc 1 468 60 is_stmt 0
	sw	s9,28(s0)
	.loc 1 469 5 is_stmt 1
	.loc 1 469 60 is_stmt 0
	sw	s8,32(s0)
	.loc 1 470 5 is_stmt 1
	.loc 1 470 60 is_stmt 0
	sw	s7,36(s0)
	.loc 1 471 5 is_stmt 1
	.loc 1 471 60 is_stmt 0
	sw	s6,40(s0)
	.loc 1 472 5 is_stmt 1
	.loc 1 472 60 is_stmt 0
	sw	s5,52(s0)
	.loc 1 473 5 is_stmt 1
	.loc 1 473 61 is_stmt 0
	sw	s4,0(s1)
	.loc 1 474 5 is_stmt 1
	.loc 1 474 61 is_stmt 0
	sw	s3,4(s1)
	.loc 1 475 5 is_stmt 1
	.loc 1 475 61 is_stmt 0
	sw	s2,8(s1)
	.loc 1 477 5 is_stmt 1
	.loc 1 478 1 is_stmt 0
	lw	ra,76(sp)
	.cfi_restore 1
	lw	s0,72(sp)
	.cfi_restore 8
	lw	s1,68(sp)
	.cfi_restore 9
	lw	s2,64(sp)
	.cfi_restore 18
	lw	s3,60(sp)
	.cfi_restore 19
	lw	s4,56(sp)
	.cfi_restore 20
	lw	s5,52(sp)
	.cfi_restore 21
	lw	s6,48(sp)
	.cfi_restore 22
.LVL78:
	lw	s7,44(sp)
	.cfi_restore 23
.LVL79:
	lw	s8,40(sp)
	.cfi_restore 24
.LVL80:
	lw	s9,36(sp)
	.cfi_restore 25
.LVL81:
	lw	s10,32(sp)
	.cfi_restore 26
.LVL82:
	lw	s11,28(sp)
	.cfi_restore 27
.LVL83:
	addi	sp,sp,80
	.cfi_def_cfa_offset 0
	jr	ra
	.cfi_endproc
.LFE14:
	.size	HBN_App_Reset, .-HBN_App_Reset
	.section	.text.HBN_Disable,"ax",@progbits
	.align	1
	.globl	HBN_Disable
	.type	HBN_Disable, @function
HBN_Disable:
.LFB15:
	.loc 1 489 1 is_stmt 1
	.cfi_startproc
	.loc 1 490 5
	.loc 1 492 5
	.loc 1 492 11 is_stmt 0
	li	a4,1073803264
	lw	a5,0(a4)
.LVL84:
	.loc 1 494 5 is_stmt 1
	.loc 1 498 1 is_stmt 0
	li	a0,0
	.loc 1 494 11
	andi	a5,a5,-129
.LVL85:
	.loc 1 495 5 is_stmt 1
	.loc 1 495 59 is_stmt 0
	sw	a5,0(a4)
	.loc 1 497 5 is_stmt 1
	.loc 1 498 1 is_stmt 0
	ret
	.cfi_endproc
.LFE15:
	.size	HBN_Disable, .-HBN_Disable
	.section	.text.HBN_PIR_Enable,"ax",@progbits
	.align	1
	.globl	HBN_PIR_Enable
	.type	HBN_PIR_Enable, @function
HBN_PIR_Enable:
.LFB16:
	.loc 1 509 1 is_stmt 1
	.cfi_startproc
	.loc 1 510 5
	.loc 1 512 5
	.loc 1 512 11 is_stmt 0
	li	a4,1073803264
	lw	a5,32(a4)
.LVL86:
	.loc 1 513 5 is_stmt 1
	.loc 1 517 1 is_stmt 0
	li	a0,0
	.loc 1 513 11
	ori	a5,a5,128
.LVL87:
	.loc 1 514 5 is_stmt 1
	.loc 1 514 60 is_stmt 0
	sw	a5,32(a4)
	.loc 1 516 5 is_stmt 1
	.loc 1 517 1 is_stmt 0
	ret
	.cfi_endproc
.LFE16:
	.size	HBN_PIR_Enable, .-HBN_PIR_Enable
	.section	.text.HBN_PIR_Disable,"ax",@progbits
	.align	1
	.globl	HBN_PIR_Disable
	.type	HBN_PIR_Disable, @function
HBN_PIR_Disable:
.LFB17:
	.loc 1 528 1 is_stmt 1
	.cfi_startproc
	.loc 1 529 5
	.loc 1 531 5
	.loc 1 531 11 is_stmt 0
	li	a4,1073803264
	lw	a5,32(a4)
.LVL88:
	.loc 1 532 5 is_stmt 1
	.loc 1 536 1 is_stmt 0
	li	a0,0
	.loc 1 532 11
	andi	a5,a5,-129
.LVL89:
	.loc 1 533 5 is_stmt 1
	.loc 1 533 60 is_stmt 0
	sw	a5,32(a4)
	.loc 1 535 5 is_stmt 1
	.loc 1 536 1 is_stmt 0
	ret
	.cfi_endproc
.LFE17:
	.size	HBN_PIR_Disable, .-HBN_PIR_Disable
	.section	.text.HBN_PIR_INT_Config,"ax",@progbits
	.align	1
	.globl	HBN_PIR_INT_Config
	.type	HBN_PIR_INT_Config, @function
HBN_PIR_INT_Config:
.LFB18:
	.loc 1 547 1 is_stmt 1
	.cfi_startproc
.LVL90:
	.loc 1 548 5
	.loc 1 549 5
	.loc 1 550 5
	.loc 1 551 5
	.loc 1 553 5
	.loc 1 553 11 is_stmt 0
	li	a2,1073803264
	lw	a5,32(a2)
.LVL91:
	.loc 1 556 5 is_stmt 1
	.loc 1 563 5
	.loc 1 569 5
	.loc 1 570 5
	.loc 1 563 7 is_stmt 0
	lw	a4,4(a0)
	.loc 1 570 23
	andi	a3,a5,-49
	.loc 1 556 7
	lw	a5,0(a0)
.LVL92:
	.loc 1 563 7
	addi	a4,a4,-1
	snez	a4,a4
	.loc 1 556 7
	addi	a5,a5,-1
	snez	a5,a5
	.loc 1 569 24
	slli	a5,a5,1
	.loc 1 569 12
	or	a5,a5,a4
	.loc 1 570 78
	slli	a5,a5,4
	.loc 1 570 11
	or	a5,a5,a3
.LVL93:
	.loc 1 571 5 is_stmt 1
	.loc 1 571 60 is_stmt 0
	sw	a5,32(a2)
.LVL94:
	.loc 1 573 5 is_stmt 1
	.loc 1 574 1 is_stmt 0
	li	a0,0
.LVL95:
	ret
	.cfi_endproc
.LFE18:
	.size	HBN_PIR_INT_Config, .-HBN_PIR_INT_Config
	.section	.text.HBN_PIR_LPF_Sel,"ax",@progbits
	.align	1
	.globl	HBN_PIR_LPF_Sel
	.type	HBN_PIR_LPF_Sel, @function
HBN_PIR_LPF_Sel:
.LFB19:
	.loc 1 585 1 is_stmt 1
	.cfi_startproc
.LVL96:
	.loc 1 586 5
	.loc 1 588 5
	.loc 1 590 5
	.loc 1 590 11 is_stmt 0
	li	a4,1073803264
	lw	a5,32(a4)
.LVL97:
	.loc 1 591 5 is_stmt 1
	.loc 1 591 75 is_stmt 0
	slli	a0,a0,2
.LVL98:
	.loc 1 591 23
	andi	a5,a5,-5
.LVL99:
	.loc 1 591 11
	or	a0,a0,a5
.LVL100:
	.loc 1 592 5 is_stmt 1
	.loc 1 592 60 is_stmt 0
	sw	a0,32(a4)
	.loc 1 594 5 is_stmt 1
	.loc 1 595 1 is_stmt 0
	li	a0,0
.LVL101:
	ret
	.cfi_endproc
.LFE19:
	.size	HBN_PIR_LPF_Sel, .-HBN_PIR_LPF_Sel
	.section	.text.HBN_PIR_HPF_Sel,"ax",@progbits
	.align	1
	.globl	HBN_PIR_HPF_Sel
	.type	HBN_PIR_HPF_Sel, @function
HBN_PIR_HPF_Sel:
.LFB20:
	.loc 1 606 1 is_stmt 1
	.cfi_startproc
.LVL102:
	.loc 1 607 5
	.loc 1 609 5
	.loc 1 611 5
	.loc 1 611 11 is_stmt 0
	li	a4,1073803264
	lw	a5,32(a4)
.LVL103:
	.loc 1 612 5 is_stmt 1
	.loc 1 612 23 is_stmt 0
	andi	a5,a5,-4
.LVL104:
	.loc 1 612 11
	or	a5,a5,a0
.LVL105:
	.loc 1 613 5 is_stmt 1
	.loc 1 613 60 is_stmt 0
	sw	a5,32(a4)
	.loc 1 615 5 is_stmt 1
	.loc 1 616 1 is_stmt 0
	li	a0,0
.LVL106:
	ret
	.cfi_endproc
.LFE20:
	.size	HBN_PIR_HPF_Sel, .-HBN_PIR_HPF_Sel
	.section	.text.HBN_Set_PIR_Threshold,"ax",@progbits
	.align	1
	.globl	HBN_Set_PIR_Threshold
	.type	HBN_Set_PIR_Threshold, @function
HBN_Set_PIR_Threshold:
.LFB21:
	.loc 1 627 1 is_stmt 1
	.cfi_startproc
.LVL107:
	.loc 1 628 5
	.loc 1 630 5
	.loc 1 632 5
	.loc 1 632 11 is_stmt 0
	li	a4,1073803264
	lw	a5,36(a4)
.LVL108:
	.loc 1 633 5 is_stmt 1
	.loc 1 633 23 is_stmt 0
	li	a3,-16384
	and	a5,a5,a3
.LVL109:
	.loc 1 633 11
	or	a0,a0,a5
.LVL110:
	.loc 1 634 5 is_stmt 1
	.loc 1 634 60 is_stmt 0
	sw	a0,36(a4)
	.loc 1 636 5 is_stmt 1
	.loc 1 637 1 is_stmt 0
	li	a0,0
.LVL111:
	ret
	.cfi_endproc
.LFE21:
	.size	HBN_Set_PIR_Threshold, .-HBN_Set_PIR_Threshold
	.section	.text.HBN_Get_PIR_Threshold,"ax",@progbits
	.align	1
	.globl	HBN_Get_PIR_Threshold
	.type	HBN_Get_PIR_Threshold, @function
HBN_Get_PIR_Threshold:
.LFB22:
	.loc 1 648 1 is_stmt 1
	.cfi_startproc
	.loc 1 649 5
	.loc 1 651 5
	.loc 1 651 11 is_stmt 0
	li	a5,1073803264
	lw	a0,36(a5)
.LVL112:
	.loc 1 653 5 is_stmt 1
	.loc 1 653 57 is_stmt 0
	slli	a0,a0,18
.LVL113:
	.loc 1 654 1
	srli	a0,a0,18
	ret
	.cfi_endproc
.LFE22:
	.size	HBN_Get_PIR_Threshold, .-HBN_Get_PIR_Threshold
	.section	.text.HBN_Set_PIR_Interval,"ax",@progbits
	.align	1
	.globl	HBN_Set_PIR_Interval
	.type	HBN_Set_PIR_Interval, @function
HBN_Set_PIR_Interval:
.LFB23:
	.loc 1 665 1 is_stmt 1
	.cfi_startproc
.LVL114:
	.loc 1 666 5
	.loc 1 668 5
	.loc 1 670 5
	.loc 1 670 11 is_stmt 0
	li	a4,1073803264
	lw	a5,40(a4)
.LVL115:
	.loc 1 671 5 is_stmt 1
	.loc 1 671 23 is_stmt 0
	li	a3,-4096
	and	a5,a5,a3
.LVL116:
	.loc 1 671 11
	or	a0,a0,a5
.LVL117:
	.loc 1 672 5 is_stmt 1
	.loc 1 672 60 is_stmt 0
	sw	a0,40(a4)
	.loc 1 674 5 is_stmt 1
	.loc 1 675 1 is_stmt 0
	li	a0,0
.LVL118:
	ret
	.cfi_endproc
.LFE23:
	.size	HBN_Set_PIR_Interval, .-HBN_Set_PIR_Interval
	.section	.text.HBN_Get_PIR_Interval,"ax",@progbits
	.align	1
	.globl	HBN_Get_PIR_Interval
	.type	HBN_Get_PIR_Interval, @function
HBN_Get_PIR_Interval:
.LFB24:
	.loc 1 686 1 is_stmt 1
	.cfi_startproc
	.loc 1 687 5
	.loc 1 689 5
	.loc 1 689 11 is_stmt 0
	li	a5,1073803264
	lw	a0,40(a5)
.LVL119:
	.loc 1 691 5 is_stmt 1
	.loc 1 691 57 is_stmt 0
	slli	a0,a0,20
.LVL120:
	.loc 1 692 1
	srli	a0,a0,20
	ret
	.cfi_endproc
.LFE24:
	.size	HBN_Get_PIR_Interval, .-HBN_Get_PIR_Interval
	.section	.text.HBN_Get_BOR_OUT_State,"ax",@progbits
	.align	1
	.globl	HBN_Get_BOR_OUT_State
	.type	HBN_Get_BOR_OUT_State, @function
HBN_Get_BOR_OUT_State:
.LFB25:
	.loc 1 703 1 is_stmt 1
	.cfi_startproc
	.loc 1 704 5
	.loc 1 704 17 is_stmt 0
	li	a5,1073803264
	lw	a0,44(a5)
	.loc 1 704 119
	srli	a0,a0,3
	.loc 1 705 1
	andi	a0,a0,1
	ret
	.cfi_endproc
.LFE25:
	.size	HBN_Get_BOR_OUT_State, .-HBN_Get_BOR_OUT_State
	.section	.text.HBN_Set_BOR_Config,"ax",@progbits
	.align	1
	.globl	HBN_Set_BOR_Config
	.type	HBN_Set_BOR_Config, @function
HBN_Set_BOR_Config:
.LFB26:
	.loc 1 718 1 is_stmt 1
	.cfi_startproc
.LVL121:
	.loc 1 719 5
	.loc 1 721 5
	.loc 1 722 5
	.loc 1 724 5
	.loc 1 724 11 is_stmt 0
	li	a5,1073803264
	lw	a4,44(a5)
.LVL122:
	.loc 1 725 5 is_stmt 1
	.loc 1 728 15 is_stmt 0
	andi	a5,a4,-5
	.loc 1 725 7
	beq	a0,zero,.L34
	.loc 1 726 9 is_stmt 1
	.loc 1 726 15 is_stmt 0
	ori	a5,a4,4
.LVL123:
.L34:
	.loc 1 730 5 is_stmt 1
	.loc 1 731 5
	.loc 1 730 81 is_stmt 0
	slli	a1,a1,1
.LVL124:
	.loc 1 730 11
	andi	a5,a5,-4
.LVL125:
	.loc 1 731 23
	or	a5,a5,a1
	.loc 1 731 11
	or	a5,a5,a2
.LVL126:
	.loc 1 732 5 is_stmt 1
	.loc 1 732 60 is_stmt 0
	li	a4,1073803264
	sw	a5,44(a4)
	.loc 1 734 5 is_stmt 1
	.loc 1 735 1 is_stmt 0
	li	a0,0
.LVL127:
	ret
	.cfi_endproc
.LFE26:
	.size	HBN_Set_BOR_Config, .-HBN_Set_BOR_Config
	.section	.tcm_code./mnt/d/GitHub/bl_iot_sdk_for_aithinker/components/platform/soc/bl602/bl602_std/bl602_std/StdDriver/Src/bl602_hbn.c747,"ax",@progbits
	.align	1
	.weak	HBN_Set_Ldo11_Aon_Vout
	.type	HBN_Set_Ldo11_Aon_Vout, @function
HBN_Set_Ldo11_Aon_Vout:
.LFB27:
	.loc 1 748 1 is_stmt 1
	.cfi_startproc
.LVL128:
	.loc 1 749 5
	.loc 1 751 5
	.loc 1 753 5
	.loc 1 753 11 is_stmt 0
	li	a4,1073803264
	lw	a5,48(a4)
.LVL129:
	.loc 1 754 5 is_stmt 1
	.loc 1 754 81 is_stmt 0
	slli	a0,a0,28
.LVL130:
	.loc 1 754 23
	slli	a5,a5,4
.LVL131:
	srli	a5,a5,4
	.loc 1 754 11
	or	a0,a0,a5
.LVL132:
	.loc 1 755 5 is_stmt 1
	.loc 1 755 60 is_stmt 0
	sw	a0,48(a4)
	.loc 1 757 5 is_stmt 1
	.loc 1 758 1 is_stmt 0
	li	a0,0
.LVL133:
	ret
	.cfi_endproc
.LFE27:
	.size	HBN_Set_Ldo11_Aon_Vout, .-HBN_Set_Ldo11_Aon_Vout
	.section	.tcm_code./mnt/d/GitHub/bl_iot_sdk_for_aithinker/components/platform/soc/bl602/bl602_std/bl602_std/StdDriver/Src/bl602_hbn.c771,"ax",@progbits
	.align	1
	.weak	HBN_Set_Ldo11_Rt_Vout
	.type	HBN_Set_Ldo11_Rt_Vout, @function
HBN_Set_Ldo11_Rt_Vout:
.LFB28:
	.loc 1 772 1 is_stmt 1
	.cfi_startproc
.LVL134:
	.loc 1 773 5
	.loc 1 775 5
	.loc 1 777 5
	.loc 1 777 11 is_stmt 0
	li	a3,1073803264
	lw	a5,48(a3)
.LVL135:
	.loc 1 778 5 is_stmt 1
	.loc 1 778 23 is_stmt 0
	li	a4,-251658240
	addi	a4,a4,-1
	and	a5,a5,a4
.LVL136:
	.loc 1 778 81
	slli	a0,a0,24
.LVL137:
	.loc 1 778 11
	or	a0,a0,a5
.LVL138:
	.loc 1 779 5 is_stmt 1
	.loc 1 779 60 is_stmt 0
	sw	a0,48(a3)
	.loc 1 781 5 is_stmt 1
	.loc 1 782 1 is_stmt 0
	li	a0,0
.LVL139:
	ret
	.cfi_endproc
.LFE28:
	.size	HBN_Set_Ldo11_Rt_Vout, .-HBN_Set_Ldo11_Rt_Vout
	.section	.tcm_code./mnt/d/GitHub/bl_iot_sdk_for_aithinker/components/platform/soc/bl602/bl602_std/bl602_std/StdDriver/Src/bl602_hbn.c795,"ax",@progbits
	.align	1
	.weak	HBN_Set_Ldo11_Soc_Vout
	.type	HBN_Set_Ldo11_Soc_Vout, @function
HBN_Set_Ldo11_Soc_Vout:
.LFB29:
	.loc 1 796 1 is_stmt 1
	.cfi_startproc
.LVL140:
	.loc 1 797 5
	.loc 1 799 5
	.loc 1 801 5
	.loc 1 801 11 is_stmt 0
	li	a3,1073803264
	lw	a5,48(a3)
.LVL141:
	.loc 1 802 5 is_stmt 1
	.loc 1 802 23 is_stmt 0
	li	a4,-983040
	addi	a4,a4,-1
	and	a5,a5,a4
.LVL142:
	.loc 1 802 81
	slli	a0,a0,16
.LVL143:
	.loc 1 802 11
	or	a0,a0,a5
.LVL144:
	.loc 1 803 5 is_stmt 1
	.loc 1 803 60 is_stmt 0
	sw	a0,48(a3)
	.loc 1 805 5 is_stmt 1
	.loc 1 806 1 is_stmt 0
	li	a0,0
.LVL145:
	ret
	.cfi_endproc
.LFE29:
	.size	HBN_Set_Ldo11_Soc_Vout, .-HBN_Set_Ldo11_Soc_Vout
	.section	.tcm_code./mnt/d/GitHub/bl_iot_sdk_for_aithinker/components/platform/soc/bl602/bl602_std/bl602_std/StdDriver/Src/bl602_hbn.c817,"ax",@progbits
	.align	1
	.globl	HBN_Set_Ldo11_All_Vout
	.type	HBN_Set_Ldo11_All_Vout, @function
HBN_Set_Ldo11_All_Vout:
.LFB30:
	.loc 1 818 1 is_stmt 1
	.cfi_startproc
.LVL146:
	.loc 1 819 5
	.loc 1 821 5
	.loc 1 823 5
	.loc 1 823 11 is_stmt 0
	li	a3,1073803264
	lw	a4,48(a3)
.LVL147:
	.loc 1 824 5 is_stmt 1
	.loc 1 824 81 is_stmt 0
	slli	a5,a0,28
	.loc 1 824 23
	slli	a4,a4,4
.LVL148:
	srli	a4,a4,4
.LVL149:
	.loc 1 825 5 is_stmt 1
	.loc 1 824 11 is_stmt 0
	or	a5,a5,a4
.LVL150:
	.loc 1 825 23
	li	a4,-251658240
	addi	a4,a4,-1
	and	a4,a5,a4
.LVL151:
	.loc 1 826 5 is_stmt 1
	.loc 1 825 81 is_stmt 0
	slli	a5,a0,24
	.loc 1 825 11
	or	a5,a5,a4
.LVL152:
	.loc 1 826 23
	li	a4,-983040
	addi	a4,a4,-1
	and	a5,a5,a4
.LVL153:
	.loc 1 826 81
	slli	a0,a0,16
.LVL154:
	.loc 1 826 11
	or	a0,a0,a5
.LVL155:
	.loc 1 827 5 is_stmt 1
	.loc 1 827 60 is_stmt 0
	sw	a0,48(a3)
	.loc 1 829 5 is_stmt 1
	.loc 1 830 1 is_stmt 0
	li	a0,0
.LVL156:
	ret
	.cfi_endproc
.LFE30:
	.size	HBN_Set_Ldo11_All_Vout, .-HBN_Set_Ldo11_All_Vout
	.section	.text.HBN_Set_UART_CLK_Sel,"ax",@progbits
	.align	1
	.globl	HBN_Set_UART_CLK_Sel
	.type	HBN_Set_UART_CLK_Sel, @function
HBN_Set_UART_CLK_Sel:
.LFB32:
	.loc 1 868 1 is_stmt 1
	.cfi_startproc
.LVL157:
	.loc 1 869 5
	.loc 1 871 5
	.loc 1 873 5
	.loc 1 873 11 is_stmt 0
	li	a4,1073803264
	lw	a5,48(a4)
.LVL158:
	.loc 1 874 5 is_stmt 1
	.loc 1 874 78 is_stmt 0
	slli	a0,a0,2
.LVL159:
	.loc 1 874 23
	andi	a5,a5,-5
.LVL160:
	.loc 1 874 11
	or	a0,a0,a5
.LVL161:
	.loc 1 875 5 is_stmt 1
	.loc 1 875 60 is_stmt 0
	sw	a0,48(a4)
	.loc 1 877 5 is_stmt 1
	.loc 1 878 1 is_stmt 0
	li	a0,0
.LVL162:
	ret
	.cfi_endproc
.LFE32:
	.size	HBN_Set_UART_CLK_Sel, .-HBN_Set_UART_CLK_Sel
	.section	.text.HBN_Set_XCLK_CLK_Sel,"ax",@progbits
	.align	1
	.globl	HBN_Set_XCLK_CLK_Sel
	.type	HBN_Set_XCLK_CLK_Sel, @function
HBN_Set_XCLK_CLK_Sel:
.LFB33:
	.loc 1 889 1 is_stmt 1
	.cfi_startproc
.LVL163:
	.loc 1 890 5
	.loc 1 891 5
	.loc 1 893 5
	.loc 1 895 5
	.loc 1 895 11 is_stmt 0
	li	a5,1073803264
	lw	a5,48(a5)
.LVL164:
	.loc 1 896 5 is_stmt 1
	.loc 1 896 12 is_stmt 0
	andi	a4,a5,3
.LVL165:
	.loc 1 897 5 is_stmt 1
	beq	a0,zero,.L42
	li	a3,1
	beq	a0,a3,.L43
.L44:
	.loc 1 907 5
	.loc 1 907 23 is_stmt 0
	andi	a5,a5,-4
.LVL166:
	.loc 1 907 11
	or	a5,a5,a4
.LVL167:
	.loc 1 908 5 is_stmt 1
	.loc 1 908 60 is_stmt 0
	li	a4,1073803264
.LVL168:
	sw	a5,48(a4)
	.loc 1 909 6 is_stmt 1
 #APP
# 909 "/mnt/d/GitHub/bl_iot_sdk_for_aithinker/components/platform/soc/bl602/bl602_std/bl602_std/StdDriver/Src/bl602_hbn.c" 1
	nop
# 0 "" 2
	.loc 1 909 29
# 909 "/mnt/d/GitHub/bl_iot_sdk_for_aithinker/components/platform/soc/bl602/bl602_std/bl602_std/StdDriver/Src/bl602_hbn.c" 1
	nop
# 0 "" 2
	.loc 1 909 52
# 909 "/mnt/d/GitHub/bl_iot_sdk_for_aithinker/components/platform/soc/bl602/bl602_std/bl602_std/StdDriver/Src/bl602_hbn.c" 1
	nop
# 0 "" 2
	.loc 1 909 75
# 909 "/mnt/d/GitHub/bl_iot_sdk_for_aithinker/components/platform/soc/bl602/bl602_std/bl602_std/StdDriver/Src/bl602_hbn.c" 1
	nop
# 0 "" 2
	.loc 1 909 98
# 909 "/mnt/d/GitHub/bl_iot_sdk_for_aithinker/components/platform/soc/bl602/bl602_std/bl602_std/StdDriver/Src/bl602_hbn.c" 1
	nop
# 0 "" 2
	.loc 1 909 121
# 909 "/mnt/d/GitHub/bl_iot_sdk_for_aithinker/components/platform/soc/bl602/bl602_std/bl602_std/StdDriver/Src/bl602_hbn.c" 1
	nop
# 0 "" 2
	.loc 1 909 144
# 909 "/mnt/d/GitHub/bl_iot_sdk_for_aithinker/components/platform/soc/bl602/bl602_std/bl602_std/StdDriver/Src/bl602_hbn.c" 1
	nop
# 0 "" 2
	.loc 1 909 167
# 909 "/mnt/d/GitHub/bl_iot_sdk_for_aithinker/components/platform/soc/bl602/bl602_std/bl602_std/StdDriver/Src/bl602_hbn.c" 1
	nop
# 0 "" 2
	.loc 1 909 191
	.loc 1 911 5
	.loc 1 912 1 is_stmt 0
 #NO_APP
	li	a0,0
.LVL169:
	ret
.LVL170:
.L42:
	.loc 1 899 13 is_stmt 1
	.loc 1 899 20 is_stmt 0
	andi	a4,a5,2
.LVL171:
	.loc 1 900 13 is_stmt 1
	j	.L44
.L43:
	.loc 1 902 13
	.loc 1 902 20 is_stmt 0
	ori	a4,a4,1
.LVL172:
	.loc 1 903 13 is_stmt 1
	j	.L44
	.cfi_endproc
.LFE33:
	.size	HBN_Set_XCLK_CLK_Sel, .-HBN_Set_XCLK_CLK_Sel
	.section	.sclock_rlt_code./mnt/d/GitHub/bl_iot_sdk_for_aithinker/components/platform/soc/bl602/bl602_std/bl602_std/StdDriver/Src/bl602_hbn.c922,"ax",@progbits
	.align	1
	.globl	HBN_Get_Root_CLK_Sel
	.type	HBN_Get_Root_CLK_Sel, @function
HBN_Get_Root_CLK_Sel:
.LFB34:
	.loc 1 923 1
	.cfi_startproc
	.loc 1 924 5
.LVL173:
	.loc 1 926 5
	.loc 1 926 12 is_stmt 0
	li	a5,1073803264
	lw	a5,48(a5)
.LVL174:
	.loc 1 928 5 is_stmt 1
	li	a4,2
	.loc 1 928 56 is_stmt 0
	li	a0,0
	andi	a5,a5,3
.LVL175:
	addi	a5,a5,-1
	bgtu	a5,a4,.L45
	lui	a4,%hi(.LANCHOR0)
	addi	a4,a4,%lo(.LANCHOR0)
	add	a5,a4,a5
	lbu	a0,0(a5)
.L45:
	.loc 1 940 1
	ret
	.cfi_endproc
.LFE34:
	.size	HBN_Get_Root_CLK_Sel, .-HBN_Get_Root_CLK_Sel
	.section	.sclock_rlt_code./mnt/d/GitHub/bl_iot_sdk_for_aithinker/components/platform/soc/bl602/bl602_std/bl602_std/StdDriver/Src/bl602_hbn.c952,"ax",@progbits
	.align	1
	.weak	HBN_Set_ROOT_CLK_Sel
	.type	HBN_Set_ROOT_CLK_Sel, @function
HBN_Set_ROOT_CLK_Sel:
.LFB35:
	.loc 1 953 1 is_stmt 1
	.cfi_startproc
.LVL176:
	.loc 1 954 5
	.loc 1 955 5
	.loc 1 957 5
	.loc 1 959 5
	.loc 1 959 11 is_stmt 0
	li	a5,1073803264
	lw	a5,48(a5)
.LVL177:
	.loc 1 960 5 is_stmt 1
	.loc 1 961 5 is_stmt 0
	li	a3,1
	.loc 1 960 12
	andi	a4,a5,3
.LVL178:
	.loc 1 961 5 is_stmt 1
	beq	a0,a3,.L49
	li	a3,2
	beq	a0,a3,.L50
	bne	a0,zero,.L51
.LVL179:
.L49:
	.loc 1 974 5
	.loc 1 974 23 is_stmt 0
	andi	a5,a5,-4
.LVL180:
	.loc 1 974 11
	or	a0,a5,a0
.LVL181:
	.loc 1 975 5 is_stmt 1
	.loc 1 975 60 is_stmt 0
	li	a5,1073803264
	sw	a0,48(a5)
	.loc 1 976 6 is_stmt 1
 #APP
# 976 "/mnt/d/GitHub/bl_iot_sdk_for_aithinker/components/platform/soc/bl602/bl602_std/bl602_std/StdDriver/Src/bl602_hbn.c" 1
	nop
# 0 "" 2
	.loc 1 976 29
# 976 "/mnt/d/GitHub/bl_iot_sdk_for_aithinker/components/platform/soc/bl602/bl602_std/bl602_std/StdDriver/Src/bl602_hbn.c" 1
	nop
# 0 "" 2
	.loc 1 976 52
# 976 "/mnt/d/GitHub/bl_iot_sdk_for_aithinker/components/platform/soc/bl602/bl602_std/bl602_std/StdDriver/Src/bl602_hbn.c" 1
	nop
# 0 "" 2
	.loc 1 976 75
# 976 "/mnt/d/GitHub/bl_iot_sdk_for_aithinker/components/platform/soc/bl602/bl602_std/bl602_std/StdDriver/Src/bl602_hbn.c" 1
	nop
# 0 "" 2
	.loc 1 976 98
# 976 "/mnt/d/GitHub/bl_iot_sdk_for_aithinker/components/platform/soc/bl602/bl602_std/bl602_std/StdDriver/Src/bl602_hbn.c" 1
	nop
# 0 "" 2
	.loc 1 976 121
# 976 "/mnt/d/GitHub/bl_iot_sdk_for_aithinker/components/platform/soc/bl602/bl602_std/bl602_std/StdDriver/Src/bl602_hbn.c" 1
	nop
# 0 "" 2
	.loc 1 976 144
# 976 "/mnt/d/GitHub/bl_iot_sdk_for_aithinker/components/platform/soc/bl602/bl602_std/bl602_std/StdDriver/Src/bl602_hbn.c" 1
	nop
# 0 "" 2
	.loc 1 976 167
# 976 "/mnt/d/GitHub/bl_iot_sdk_for_aithinker/components/platform/soc/bl602/bl602_std/bl602_std/StdDriver/Src/bl602_hbn.c" 1
	nop
# 0 "" 2
	.loc 1 976 191
	.loc 1 978 5
	.loc 1 979 1 is_stmt 0
 #NO_APP
	li	a0,0
.LVL182:
	ret
.LVL183:
.L50:
	.loc 1 969 13 is_stmt 1
	.loc 1 969 20 is_stmt 0
	ori	a0,a4,2
.LVL184:
	.loc 1 970 13 is_stmt 1
	j	.L49
.LVL185:
.L51:
	.loc 1 960 12 is_stmt 0
	mv	a0,a4
.LVL186:
	j	.L49
	.cfi_endproc
.LFE35:
	.size	HBN_Set_ROOT_CLK_Sel, .-HBN_Set_ROOT_CLK_Sel
	.section	.text.HBN_Set_HRAM_slp,"ax",@progbits
	.align	1
	.globl	HBN_Set_HRAM_slp
	.type	HBN_Set_HRAM_slp, @function
HBN_Set_HRAM_slp:
.LFB36:
	.loc 1 991 1 is_stmt 1
	.cfi_startproc
	.loc 1 992 5
.LVL187:
	.loc 1 994 5
	.loc 1 994 11 is_stmt 0
	li	a4,1073803264
	lw	a5,52(a4)
.LVL188:
	.loc 1 995 5 is_stmt 1
	.loc 1 996 5
	.loc 1 1000 1 is_stmt 0
	li	a0,0
	andi	a5,a5,-65
.LVL189:
	.loc 1 996 11
	ori	a5,a5,128
.LVL190:
	.loc 1 997 5 is_stmt 1
	.loc 1 997 60 is_stmt 0
	sw	a5,52(a4)
	.loc 1 999 5 is_stmt 1
	.loc 1 1000 1 is_stmt 0
	ret
	.cfi_endproc
.LFE36:
	.size	HBN_Set_HRAM_slp, .-HBN_Set_HRAM_slp
	.section	.text.HBN_Set_HRAM_Ret,"ax",@progbits
	.align	1
	.globl	HBN_Set_HRAM_Ret
	.type	HBN_Set_HRAM_Ret, @function
HBN_Set_HRAM_Ret:
.LFB37:
	.loc 1 1011 1 is_stmt 1
	.cfi_startproc
	.loc 1 1012 5
.LVL191:
	.loc 1 1014 5
	.loc 1 1014 11 is_stmt 0
	li	a4,1073803264
	lw	a5,52(a4)
.LVL192:
	.loc 1 1015 5 is_stmt 1
	.loc 1 1020 1 is_stmt 0
	li	a0,0
	.loc 1 1015 11
	andi	a5,a5,-129
.LVL193:
	.loc 1 1016 5 is_stmt 1
	.loc 1 1016 11 is_stmt 0
	ori	a5,a5,64
.LVL194:
	.loc 1 1017 5 is_stmt 1
	.loc 1 1017 60 is_stmt 0
	sw	a5,52(a4)
	.loc 1 1019 5 is_stmt 1
	.loc 1 1020 1 is_stmt 0
	ret
	.cfi_endproc
.LFE37:
	.size	HBN_Set_HRAM_Ret, .-HBN_Set_HRAM_Ret
	.section	.sclock_rlt_code./mnt/d/GitHub/bl_iot_sdk_for_aithinker/components/platform/soc/bl602/bl602_std/bl602_std/StdDriver/Src/bl602_hbn.c1032,"ax",@progbits
	.align	1
	.weak	HBN_Power_On_Xtal_32K
	.type	HBN_Power_On_Xtal_32K, @function
HBN_Power_On_Xtal_32K:
.LFB38:
	.loc 1 1033 1 is_stmt 1
	.cfi_startproc
	.loc 1 1034 5
.LVL195:
	.loc 1 1036 5
	.loc 1 1033 1 is_stmt 0
	addi	sp,sp,-16
	.cfi_def_cfa_offset 16
	sw	ra,12(sp)
	.cfi_offset 1, -4
	.loc 1 1036 11
	li	a4,1073803264
	lw	a5,516(a4)
.LVL196:
	.loc 1 1037 5 is_stmt 1
	.loc 1 1038 5
	.loc 1 1038 11 is_stmt 0
	li	a3,786432
	.loc 1 1042 5
	li	a0,1100
	.loc 1 1038 11
	or	a5,a5,a3
.LVL197:
	.loc 1 1039 5 is_stmt 1
	.loc 1 1039 61 is_stmt 0
	sw	a5,516(a4)
	.loc 1 1042 5 is_stmt 1
	call	BL602_Delay_US
.LVL198:
	.loc 1 1044 5
	.loc 1 1045 1 is_stmt 0
	lw	ra,12(sp)
	.cfi_restore 1
	li	a0,0
	addi	sp,sp,16
	.cfi_def_cfa_offset 0
	jr	ra
	.cfi_endproc
.LFE38:
	.size	HBN_Power_On_Xtal_32K, .-HBN_Power_On_Xtal_32K
	.section	.sclock_rlt_code./mnt/d/GitHub/bl_iot_sdk_for_aithinker/components/platform/soc/bl602/bl602_std/bl602_std/StdDriver/Src/bl602_hbn.c1058,"ax",@progbits
	.align	1
	.weak	HBN_Power_Off_Xtal_32K
	.type	HBN_Power_Off_Xtal_32K, @function
HBN_Power_Off_Xtal_32K:
.LFB39:
	.loc 1 1059 1 is_stmt 1
	.cfi_startproc
	.loc 1 1060 5
.LVL199:
	.loc 1 1062 5
	.loc 1 1062 11 is_stmt 0
	li	a3,1073803264
	lw	a5,516(a3)
.LVL200:
	.loc 1 1063 5 is_stmt 1
	.loc 1 1064 5
	.loc 1 1064 11 is_stmt 0
	li	a4,-786432
	addi	a4,a4,-1
	and	a5,a5,a4
.LVL201:
	.loc 1 1065 5 is_stmt 1
	.loc 1 1065 61 is_stmt 0
	sw	a5,516(a3)
	.loc 1 1067 5 is_stmt 1
	.loc 1 1068 1 is_stmt 0
	li	a0,0
	ret
	.cfi_endproc
.LFE39:
	.size	HBN_Power_Off_Xtal_32K, .-HBN_Power_Off_Xtal_32K
	.section	.sclock_rlt_code./mnt/d/GitHub/bl_iot_sdk_for_aithinker/components/platform/soc/bl602/bl602_std/bl602_std/StdDriver/Src/bl602_hbn.c1079,"ax",@progbits
	.align	1
	.globl	HBN_Power_On_RC32K
	.type	HBN_Power_On_RC32K, @function
HBN_Power_On_RC32K:
.LFB40:
	.loc 1 1080 1 is_stmt 1
	.cfi_startproc
	.loc 1 1081 5
.LVL202:
	.loc 1 1083 5
	.loc 1 1080 1 is_stmt 0
	addi	sp,sp,-16
	.cfi_def_cfa_offset 16
	sw	ra,12(sp)
	.cfi_offset 1, -4
	.loc 1 1083 11
	li	a4,1073803264
	lw	a5,48(a4)
.LVL203:
	.loc 1 1084 5 is_stmt 1
	.loc 1 1088 5 is_stmt 0
	li	a0,880
	.loc 1 1084 11
	ori	a5,a5,32
.LVL204:
	.loc 1 1085 5 is_stmt 1
	.loc 1 1085 60 is_stmt 0
	sw	a5,48(a4)
	.loc 1 1088 5 is_stmt 1
	call	BL602_Delay_US
.LVL205:
	.loc 1 1090 5
	.loc 1 1091 1 is_stmt 0
	lw	ra,12(sp)
	.cfi_restore 1
	li	a0,0
	addi	sp,sp,16
	.cfi_def_cfa_offset 0
	jr	ra
	.cfi_endproc
.LFE40:
	.size	HBN_Power_On_RC32K, .-HBN_Power_On_RC32K
	.section	.sclock_rlt_code./mnt/d/GitHub/bl_iot_sdk_for_aithinker/components/platform/soc/bl602/bl602_std/bl602_std/StdDriver/Src/bl602_hbn.c1101,"ax",@progbits
	.align	1
	.globl	HBN_Power_Off_RC32K
	.type	HBN_Power_Off_RC32K, @function
HBN_Power_Off_RC32K:
.LFB41:
	.loc 1 1102 1 is_stmt 1
	.cfi_startproc
	.loc 1 1103 5
.LVL206:
	.loc 1 1105 5
	.loc 1 1105 11 is_stmt 0
	li	a4,1073803264
	lw	a5,48(a4)
.LVL207:
	.loc 1 1106 5 is_stmt 1
	.loc 1 1110 1 is_stmt 0
	li	a0,0
	.loc 1 1106 11
	andi	a5,a5,-33
.LVL208:
	.loc 1 1107 5 is_stmt 1
	.loc 1 1107 60 is_stmt 0
	sw	a5,48(a4)
	.loc 1 1109 5 is_stmt 1
	.loc 1 1110 1 is_stmt 0
	ret
	.cfi_endproc
.LFE41:
	.size	HBN_Power_Off_RC32K, .-HBN_Power_Off_RC32K
	.section	.sclock_rlt_code./mnt/d/GitHub/bl_iot_sdk_for_aithinker/components/platform/soc/bl602/bl602_std/bl602_std/StdDriver/Src/bl602_hbn.c1122,"ax",@progbits
	.align	1
	.weak	HBN_Trim_RC32K
	.type	HBN_Trim_RC32K, @function
HBN_Trim_RC32K:
.LFB42:
	.loc 1 1123 1 is_stmt 1
	.cfi_startproc
	.loc 1 1124 5
	.loc 1 1125 5
.LVL209:
	.loc 1 1127 5
	.loc 1 1123 1 is_stmt 0
	addi	sp,sp,-32
	.cfi_def_cfa_offset 32
	.loc 1 1127 5
	addi	a0,sp,12
	.loc 1 1123 1
	sw	ra,28(sp)
	sw	s0,24(sp)
	.cfi_offset 1, -4
	.cfi_offset 8, -8
	.loc 1 1127 5
	call	EF_Ctrl_Read_RC32K_Trim
.LVL210:
	.loc 1 1128 5 is_stmt 1
	.loc 1 1128 8 is_stmt 0
	lw	a0,12(sp)
	srli	a5,a0,11
	andi	a5,a5,1
	.loc 1 1128 7
	bne	a5,zero,.L61
.L63:
	.loc 1 1139 12
	li	a0,1
.LVL211:
.L60:
	.loc 1 1140 1
	lw	ra,28(sp)
	.cfi_remember_state
	.cfi_restore 1
	lw	s0,24(sp)
	.cfi_restore 8
	addi	sp,sp,32
	.cfi_def_cfa_offset 0
	jr	ra
.LVL212:
.L61:
	.cfi_restore_state
	.loc 1 1129 9 is_stmt 1
	.loc 1 1129 16 is_stmt 0
	srli	s0,a0,10
	.loc 1 1129 43
	li	a1,10
	andi	a0,a0,1023
	.loc 1 1129 16
	andi	s0,s0,1
	.loc 1 1129 43
	call	EF_Ctrl_Get_Trim_Parity
.LVL213:
	.loc 1 1129 11
	bne	s0,a0,.L63
	.loc 1 1130 13 is_stmt 1
	.loc 1 1130 21 is_stmt 0
	li	a3,1073803264
	lw	a4,512(a3)
.LVL214:
	.loc 1 1131 13 is_stmt 1
	.loc 1 1132 13
	.loc 1 1131 105 is_stmt 0
	lw	a5,12(sp)
	.loc 1 1134 13
	li	a0,2
	.loc 1 1131 31
	slli	a4,a4,10
.LVL215:
	srli	a4,a4,10
	.loc 1 1131 105
	slli	a5,a5,22
	.loc 1 1131 67
	or	a5,a5,a4
	.loc 1 1132 31
	li	a4,524288
	or	a5,a5,a4
.LVL216:
	.loc 1 1133 13 is_stmt 1
	.loc 1 1133 69 is_stmt 0
	sw	a5,512(a3)
	.loc 1 1134 13 is_stmt 1
	call	BL602_Delay_US
.LVL217:
	.loc 1 1135 13
	.loc 1 1135 20 is_stmt 0
	li	a0,0
	j	.L60
	.cfi_endproc
.LFE42:
	.size	HBN_Trim_RC32K, .-HBN_Trim_RC32K
	.section	.sclock_rlt_code./mnt/d/GitHub/bl_iot_sdk_for_aithinker/components/platform/soc/bl602/bl602_std/bl602_std/StdDriver/Src/bl602_hbn.c842,"ax",@progbits
	.align	1
	.weak	HBN_32K_Sel
	.type	HBN_32K_Sel, @function
HBN_32K_Sel:
.LFB31:
	.loc 1 843 1 is_stmt 1
	.cfi_startproc
.LVL218:
	.loc 1 844 5
	.loc 1 847 5
	.loc 1 849 5
	.loc 1 843 1 is_stmt 0
	addi	sp,sp,-16
	.cfi_def_cfa_offset 16
	sw	s0,8(sp)
	sw	ra,12(sp)
	.cfi_offset 8, -8
	.cfi_offset 1, -4
	.loc 1 843 1
	mv	s0,a0
	.loc 1 849 5
	call	HBN_Trim_RC32K
.LVL219:
	.loc 1 851 5 is_stmt 1
	.loc 1 851 11 is_stmt 0
	li	a5,1073803264
	lw	a0,48(a5)
.LVL220:
	.loc 1 852 5 is_stmt 1
	.loc 1 852 79 is_stmt 0
	slli	s0,s0,3
.LVL221:
	.loc 1 852 23
	andi	a0,a0,-25
.LVL222:
	.loc 1 852 11
	or	s0,s0,a0
.LVL223:
	.loc 1 853 5 is_stmt 1
	.loc 1 853 60 is_stmt 0
	sw	s0,48(a5)
	.loc 1 855 5 is_stmt 1
	.loc 1 856 1 is_stmt 0
	lw	ra,12(sp)
	.cfi_restore 1
	lw	s0,8(sp)
	.cfi_restore 8
.LVL224:
	li	a0,0
	addi	sp,sp,16
	.cfi_def_cfa_offset 0
	jr	ra
	.cfi_endproc
.LFE31:
	.size	HBN_32K_Sel, .-HBN_32K_Sel
	.section	.text.HBN_Get_Status_Flag,"ax",@progbits
	.align	1
	.globl	HBN_Get_Status_Flag
	.type	HBN_Get_Status_Flag, @function
HBN_Get_Status_Flag:
.LFB43:
	.loc 1 1152 1 is_stmt 1
	.cfi_startproc
	.loc 1 1153 5
	.loc 1 1153 13 is_stmt 0
	li	a5,1073803264
	lw	a0,256(a5)
	.loc 1 1154 1
	ret
	.cfi_endproc
.LFE43:
	.size	HBN_Get_Status_Flag, .-HBN_Get_Status_Flag
	.section	.text.HBN_Set_Status_Flag,"ax",@progbits
	.align	1
	.globl	HBN_Set_Status_Flag
	.type	HBN_Set_Status_Flag, @function
HBN_Set_Status_Flag:
.LFB44:
	.loc 1 1165 1 is_stmt 1
	.cfi_startproc
.LVL225:
	.loc 1 1166 5
	.loc 1 1166 61 is_stmt 0
	li	a5,1073803264
	sw	a0,256(a5)
	.loc 1 1168 5 is_stmt 1
	.loc 1 1169 1 is_stmt 0
	li	a0,0
.LVL226:
	ret
	.cfi_endproc
.LFE44:
	.size	HBN_Set_Status_Flag, .-HBN_Set_Status_Flag
	.section	.text.HBN_Get_Wakeup_Addr,"ax",@progbits
	.align	1
	.globl	HBN_Get_Wakeup_Addr
	.type	HBN_Get_Wakeup_Addr, @function
HBN_Get_Wakeup_Addr:
.LFB45:
	.loc 1 1180 1 is_stmt 1
	.cfi_startproc
	.loc 1 1181 5
	.loc 1 1181 13 is_stmt 0
	li	a5,1073803264
	lw	a0,260(a5)
	.loc 1 1182 1
	ret
	.cfi_endproc
.LFE45:
	.size	HBN_Get_Wakeup_Addr, .-HBN_Get_Wakeup_Addr
	.section	.text.HBN_Set_Wakeup_Addr,"ax",@progbits
	.align	1
	.globl	HBN_Set_Wakeup_Addr
	.type	HBN_Set_Wakeup_Addr, @function
HBN_Set_Wakeup_Addr:
.LFB46:
	.loc 1 1193 1 is_stmt 1
	.cfi_startproc
.LVL227:
	.loc 1 1194 5
	.loc 1 1194 61 is_stmt 0
	li	a5,1073803264
	sw	a0,260(a5)
	.loc 1 1196 5 is_stmt 1
	.loc 1 1197 1 is_stmt 0
	li	a0,0
.LVL228:
	ret
	.cfi_endproc
.LFE46:
	.size	HBN_Set_Wakeup_Addr, .-HBN_Set_Wakeup_Addr
	.section	.text.HBN_Clear_RTC_Counter,"ax",@progbits
	.align	1
	.globl	HBN_Clear_RTC_Counter
	.type	HBN_Clear_RTC_Counter, @function
HBN_Clear_RTC_Counter:
.LFB47:
	.loc 1 1208 1 is_stmt 1
	.cfi_startproc
	.loc 1 1209 5
	.loc 1 1211 5
	.loc 1 1211 11 is_stmt 0
	li	a4,1073803264
	lw	a5,0(a4)
.LVL229:
	.loc 1 1213 5 is_stmt 1
	.loc 1 1216 1 is_stmt 0
	li	a0,0
	.loc 1 1213 67
	andi	a5,a5,-2
.LVL230:
	.loc 1 1213 59
	sw	a5,0(a4)
	.loc 1 1215 5 is_stmt 1
	.loc 1 1216 1 is_stmt 0
	ret
	.cfi_endproc
.LFE47:
	.size	HBN_Clear_RTC_Counter, .-HBN_Clear_RTC_Counter
	.section	.text.HBN_Enable_RTC_Counter,"ax",@progbits
	.align	1
	.globl	HBN_Enable_RTC_Counter
	.type	HBN_Enable_RTC_Counter, @function
HBN_Enable_RTC_Counter:
.LFB48:
	.loc 1 1227 1 is_stmt 1
	.cfi_startproc
	.loc 1 1228 5
	.loc 1 1230 5
	.loc 1 1230 11 is_stmt 0
	li	a4,1073803264
	lw	a5,0(a4)
.LVL231:
	.loc 1 1232 5 is_stmt 1
	.loc 1 1235 1 is_stmt 0
	li	a0,0
	.loc 1 1232 67
	ori	a5,a5,1
.LVL232:
	.loc 1 1232 59
	sw	a5,0(a4)
	.loc 1 1234 5 is_stmt 1
	.loc 1 1235 1 is_stmt 0
	ret
	.cfi_endproc
.LFE48:
	.size	HBN_Enable_RTC_Counter, .-HBN_Enable_RTC_Counter
	.section	.text.HBN_Set_RTC_Timer,"ax",@progbits
	.align	1
	.globl	HBN_Set_RTC_Timer
	.type	HBN_Set_RTC_Timer, @function
HBN_Set_RTC_Timer:
.LFB49:
	.loc 1 1250 1 is_stmt 1
	.cfi_startproc
.LVL233:
	.loc 1 1251 5
	.loc 1 1254 5
	.loc 1 1256 5
	.loc 1 1256 59 is_stmt 0
	li	a5,1073803264
	sw	a1,4(a5)
	.loc 1 1257 5 is_stmt 1
	.loc 1 1257 72 is_stmt 0
	andi	a2,a2,0xff
.LVL234:
	.loc 1 1257 59
	sw	a2,8(a5)
	.loc 1 1259 5 is_stmt 1
	.loc 1 1259 11 is_stmt 0
	lw	a4,0(a5)
.LVL235:
	.loc 1 1261 5 is_stmt 1
	.loc 1 1261 23 is_stmt 0
	li	a2,-16777216
	addi	a2,a2,-1
	and	a4,a4,a2
.LVL236:
	.loc 1 1261 78
	slli	a0,a0,24
.LVL237:
	.loc 1 1261 11
	or	a0,a0,a4
.LVL238:
	.loc 1 1263 5 is_stmt 1
	.loc 1 1263 24 is_stmt 0
	slli	a3,a3,1
.LVL239:
	.loc 1 1263 12
	or	a3,a3,a0
.LVL240:
	.loc 1 1264 5 is_stmt 1
	.loc 1 1264 59 is_stmt 0
	sw	a3,0(a5)
	.loc 1 1266 5 is_stmt 1
	.loc 1 1267 1 is_stmt 0
	li	a0,0
	ret
	.cfi_endproc
.LFE49:
	.size	HBN_Set_RTC_Timer, .-HBN_Set_RTC_Timer
	.section	.text.HBN_Get_RTC_Timer_Val,"ax",@progbits
	.align	1
	.globl	HBN_Get_RTC_Timer_Val
	.type	HBN_Get_RTC_Timer_Val, @function
HBN_Get_RTC_Timer_Val:
.LFB51:
	.loc 1 1306 1 is_stmt 1
	.cfi_startproc
.LVL241:
.LBB6:
.LBB7:
	.loc 1 1284 12 is_stmt 0
	li	a2,-2147483648
	.loc 1 1283 12
	li	a5,1073803264
	xori	a7,a2,-1
.L78:
.LBE7:
.LBE6:
	.loc 1 1307 5 is_stmt 1 discriminator 1
	.loc 1 1308 5 discriminator 1
	.loc 1 1310 5 discriminator 1
	.loc 1 1311 9 discriminator 1
.LVL242:
.LBB10:
.LBB8:
	.loc 1 1280 5 discriminator 1
	.loc 1 1283 5 discriminator 1
	.loc 1 1283 12 is_stmt 0 discriminator 1
	lw	a4,16(a5)
.LVL243:
	.loc 1 1284 5 is_stmt 1 discriminator 1
	.loc 1 1284 12 is_stmt 0 discriminator 1
	or	a3,a4,a2
.LVL244:
	.loc 1 1285 5 is_stmt 1 discriminator 1
	.loc 1 1285 60 is_stmt 0 discriminator 1
	sw	a3,16(a5)
	.loc 1 1286 5 is_stmt 1 discriminator 1
	and	a4,a4,a7
.LVL245:
	.loc 1 1287 5 discriminator 1
	.loc 1 1287 60 is_stmt 0 discriminator 1
	sw	a4,16(a5)
	.loc 1 1290 5 is_stmt 1 discriminator 1
	.loc 1 1290 16 is_stmt 0 discriminator 1
	lw	t1,12(a5)
.LVL246:
	.loc 1 1291 5 is_stmt 1 discriminator 1
	.loc 1 1291 18 is_stmt 0 discriminator 1
	lw	a3,16(a5)
.LVL247:
	.loc 1 1293 5 is_stmt 1 discriminator 1
.LBE8:
.LBE10:
	.loc 1 1312 9 discriminator 1
	.loc 1 1313 9 discriminator 1
.LBB11:
.LBB12:
	.loc 1 1280 5 discriminator 1
	.loc 1 1283 5 discriminator 1
	.loc 1 1283 12 is_stmt 0 discriminator 1
	lw	a4,16(a5)
.LVL248:
	.loc 1 1284 5 is_stmt 1 discriminator 1
.LBE12:
.LBE11:
.LBB14:
.LBB9:
	.loc 1 1291 74 is_stmt 0 discriminator 1
	andi	a3,a3,255
.LVL249:
.LBE9:
.LBE14:
.LBB15:
.LBB13:
	.loc 1 1284 12 discriminator 1
	or	a6,a4,a2
.LVL250:
	.loc 1 1285 5 is_stmt 1 discriminator 1
	.loc 1 1285 60 is_stmt 0 discriminator 1
	sw	a6,16(a5)
	.loc 1 1286 5 is_stmt 1 discriminator 1
	and	a4,a4,a7
.LVL251:
	.loc 1 1287 5 discriminator 1
	.loc 1 1287 60 is_stmt 0 discriminator 1
	sw	a4,16(a5)
	.loc 1 1290 5 is_stmt 1 discriminator 1
	.loc 1 1290 16 is_stmt 0 discriminator 1
	lw	a6,12(a5)
.LVL252:
	.loc 1 1291 5 is_stmt 1 discriminator 1
	.loc 1 1291 18 is_stmt 0 discriminator 1
	lw	a4,16(a5)
.LVL253:
	.loc 1 1291 74 discriminator 1
	andi	a4,a4,255
.LVL254:
	.loc 1 1293 5 is_stmt 1 discriminator 1
.LBE13:
.LBE15:
	.loc 1 1314 9 discriminator 1
	.loc 1 1315 13 discriminator 1
	.loc 1 1315 5 is_stmt 0 discriminator 1
	bgtu	a3,a4,.L78
	bne	a3,a4,.L77
	bgtu	t1,a6,.L78
.L77:
	.loc 1 1317 5 is_stmt 1
	.loc 1 1317 13 is_stmt 0
	sw	a6,0(a0)
	.loc 1 1318 5 is_stmt 1
	.loc 1 1318 14 is_stmt 0
	sw	a4,0(a1)
	.loc 1 1320 5 is_stmt 1
.LVL255:
	.loc 1 1321 1 is_stmt 0
	li	a0,0
.LVL256:
	ret
	.cfi_endproc
.LFE51:
	.size	HBN_Get_RTC_Timer_Val, .-HBN_Get_RTC_Timer_Val
	.section	.text.HBN_Clear_RTC_INT,"ax",@progbits
	.align	1
	.globl	HBN_Clear_RTC_INT
	.type	HBN_Clear_RTC_INT, @function
HBN_Clear_RTC_INT:
.LFB52:
	.loc 1 1332 1 is_stmt 1
	.cfi_startproc
	.loc 1 1333 5
	.loc 1 1335 5
	.loc 1 1335 11 is_stmt 0
	li	a4,1073803264
	lw	a5,0(a4)
.LVL257:
	.loc 1 1337 5 is_stmt 1
	.loc 1 1340 1 is_stmt 0
	li	a0,0
	.loc 1 1337 67
	andi	a5,a5,-15
.LVL258:
	.loc 1 1337 59
	sw	a5,0(a4)
	.loc 1 1339 5 is_stmt 1
	.loc 1 1340 1 is_stmt 0
	ret
	.cfi_endproc
.LFE52:
	.size	HBN_Clear_RTC_INT, .-HBN_Clear_RTC_INT
	.section	.text.HBN_GPIO_INT_Enable,"ax",@progbits
	.align	1
	.globl	HBN_GPIO_INT_Enable
	.type	HBN_GPIO_INT_Enable, @function
HBN_GPIO_INT_Enable:
.LFB53:
	.loc 1 1351 1 is_stmt 1
	.cfi_startproc
.LVL259:
	.loc 1 1352 5
	.loc 1 1355 5
	.loc 1 1357 5
	.loc 1 1357 11 is_stmt 0
	li	a4,1073803264
	lw	a5,20(a4)
.LVL260:
	.loc 1 1358 5 is_stmt 1
	.loc 1 1358 23 is_stmt 0
	andi	a5,a5,-8
.LVL261:
	.loc 1 1358 11
	or	a5,a5,a0
.LVL262:
	.loc 1 1359 5 is_stmt 1
	.loc 1 1359 60 is_stmt 0
	sw	a5,20(a4)
	.loc 1 1361 5 is_stmt 1
	.loc 1 1362 1 is_stmt 0
	li	a0,0
.LVL263:
	ret
	.cfi_endproc
.LFE53:
	.size	HBN_GPIO_INT_Enable, .-HBN_GPIO_INT_Enable
	.section	.text.HBN_GPIO_INT_Disable,"ax",@progbits
	.align	1
	.globl	HBN_GPIO_INT_Disable
	.type	HBN_GPIO_INT_Disable, @function
HBN_GPIO_INT_Disable:
.LFB54:
	.loc 1 1373 1 is_stmt 1
	.cfi_startproc
	.loc 1 1374 5
	.loc 1 1376 5
	.loc 1 1376 11 is_stmt 0
	li	a4,1073803264
	lw	a5,20(a4)
.LVL264:
	.loc 1 1377 5 is_stmt 1
	.loc 1 1381 1 is_stmt 0
	li	a0,0
	.loc 1 1377 11
	andi	a5,a5,-25
.LVL265:
	.loc 1 1378 5 is_stmt 1
	.loc 1 1378 60 is_stmt 0
	sw	a5,20(a4)
	.loc 1 1380 5 is_stmt 1
	.loc 1 1381 1 is_stmt 0
	ret
	.cfi_endproc
.LFE54:
	.size	HBN_GPIO_INT_Disable, .-HBN_GPIO_INT_Disable
	.section	.text.HBN_Get_INT_State,"ax",@progbits
	.align	1
	.globl	HBN_Get_INT_State
	.type	HBN_Get_INT_State, @function
HBN_Get_INT_State:
.LFB55:
	.loc 1 1392 1 is_stmt 1
	.cfi_startproc
.LVL266:
	.loc 1 1393 5
	.loc 1 1397 5
	.loc 1 1397 11 is_stmt 0
	li	a5,1073803264
	lw	a4,24(a5)
.LVL267:
	.loc 1 1399 5 is_stmt 1
	.loc 1 1399 17 is_stmt 0
	li	a5,1
	sll	a0,a5,a0
.LVL268:
	.loc 1 1399 14
	and	a0,a0,a4
	.loc 1 1404 1
	snez	a0,a0
	ret
	.cfi_endproc
.LFE55:
	.size	HBN_Get_INT_State, .-HBN_Get_INT_State
	.section	.text.HBN_Get_Pin_Wakeup_Mode,"ax",@progbits
	.align	1
	.globl	HBN_Get_Pin_Wakeup_Mode
	.type	HBN_Get_Pin_Wakeup_Mode, @function
HBN_Get_Pin_Wakeup_Mode:
.LFB56:
	.loc 1 1415 1 is_stmt 1
	.cfi_startproc
	.loc 1 1416 5
	.loc 1 1416 17 is_stmt 0
	li	a5,1073803264
	lw	a0,20(a5)
	.loc 1 1417 1
	andi	a0,a0,7
	ret
	.cfi_endproc
.LFE56:
	.size	HBN_Get_Pin_Wakeup_Mode, .-HBN_Get_Pin_Wakeup_Mode
	.section	.text.HBN_Clear_IRQ,"ax",@progbits
	.align	1
	.globl	HBN_Clear_IRQ
	.type	HBN_Clear_IRQ, @function
HBN_Clear_IRQ:
.LFB57:
	.loc 1 1428 1 is_stmt 1
	.cfi_startproc
.LVL269:
	.loc 1 1429 5
	.loc 1 1431 5
	.loc 1 1434 5
	.loc 1 1434 11 is_stmt 0
	li	a4,1073803264
	lw	a3,28(a4)
.LVL270:
	.loc 1 1435 5 is_stmt 1
	.loc 1 1435 17 is_stmt 0
	li	a5,1
	sll	a0,a5,a0
.LVL271:
	.loc 1 1435 12
	or	a3,a0,a3
.LVL272:
	.loc 1 1436 5 is_stmt 1
	.loc 1 1436 60 is_stmt 0
	sw	a3,28(a4)
	.loc 1 1439 5 is_stmt 1
	.loc 1 1439 11 is_stmt 0
	lw	a5,28(a4)
.LVL273:
	.loc 1 1440 5 is_stmt 1
	.loc 1 1440 16 is_stmt 0
	not	a0,a0
	.loc 1 1440 12
	and	a0,a0,a5
.LVL274:
	.loc 1 1441 5 is_stmt 1
	.loc 1 1441 60 is_stmt 0
	sw	a0,28(a4)
	.loc 1 1443 5 is_stmt 1
	.loc 1 1444 1 is_stmt 0
	li	a0,0
.LVL275:
	ret
	.cfi_endproc
.LFE57:
	.size	HBN_Clear_IRQ, .-HBN_Clear_IRQ
	.section	.tcm_code./mnt/d/GitHub/bl_iot_sdk_for_aithinker/components/platform/soc/bl602/bl602_std/bl602_std/StdDriver/Src/bl602_hbn.c1456,"ax",@progbits
	.align	1
	.weak	HBN_Hw_Pu_Pd_Cfg
	.type	HBN_Hw_Pu_Pd_Cfg, @function
HBN_Hw_Pu_Pd_Cfg:
.LFB58:
	.loc 1 1457 1 is_stmt 1
	.cfi_startproc
.LVL276:
	.loc 1 1458 5
	.loc 1 1460 5
	.loc 1 1460 11 is_stmt 0
	li	a5,1073803264
	lw	a5,20(a5)
.LVL277:
	.loc 1 1461 5 is_stmt 1
	.loc 1 1461 7 is_stmt 0
	beq	a0,zero,.L86
	.loc 1 1462 9 is_stmt 1
	.loc 1 1462 15 is_stmt 0
	li	a4,65536
	or	a5,a5,a4
.LVL278:
.L87:
	.loc 1 1466 5 is_stmt 1
	.loc 1 1466 60 is_stmt 0
	li	a4,1073803264
	sw	a5,20(a4)
	.loc 1 1468 5 is_stmt 1
	.loc 1 1469 1 is_stmt 0
	li	a0,0
.LVL279:
	ret
.LVL280:
.L86:
	.loc 1 1464 9 is_stmt 1
	.loc 1 1464 15 is_stmt 0
	li	a4,-65536
	addi	a4,a4,-1
	and	a5,a5,a4
.LVL281:
	j	.L87
	.cfi_endproc
.LFE58:
	.size	HBN_Hw_Pu_Pd_Cfg, .-HBN_Hw_Pu_Pd_Cfg
	.section	.text.HBN_Aon_Pad_IeSmt_Cfg,"ax",@progbits
	.align	1
	.globl	HBN_Aon_Pad_IeSmt_Cfg
	.type	HBN_Aon_Pad_IeSmt_Cfg, @function
HBN_Aon_Pad_IeSmt_Cfg:
.LFB59:
	.loc 1 1481 1 is_stmt 1
	.cfi_startproc
.LVL282:
	.loc 1 1482 5
	.loc 1 1484 5
	.loc 1 1484 11 is_stmt 0
	li	a4,1073803264
	lw	a5,20(a4)
.LVL283:
	.loc 1 1485 5 is_stmt 1
	.loc 1 1485 78 is_stmt 0
	slli	a0,a0,8
.LVL284:
	.loc 1 1485 23
	andi	a5,a5,-257
.LVL285:
	.loc 1 1485 11
	or	a0,a0,a5
.LVL286:
	.loc 1 1486 5 is_stmt 1
	.loc 1 1486 60 is_stmt 0
	sw	a0,20(a4)
	.loc 1 1488 5 is_stmt 1
	.loc 1 1489 1 is_stmt 0
	li	a0,0
.LVL287:
	ret
	.cfi_endproc
.LFE59:
	.size	HBN_Aon_Pad_IeSmt_Cfg, .-HBN_Aon_Pad_IeSmt_Cfg
	.section	.tcm_code./mnt/d/GitHub/bl_iot_sdk_for_aithinker/components/platform/soc/bl602/bl602_std/bl602_std/StdDriver/Src/bl602_hbn.c1501,"ax",@progbits
	.align	1
	.weak	HBN_Pin_WakeUp_Mask
	.type	HBN_Pin_WakeUp_Mask, @function
HBN_Pin_WakeUp_Mask:
.LFB60:
	.loc 1 1502 1 is_stmt 1
	.cfi_startproc
.LVL288:
	.loc 1 1503 5
	.loc 1 1505 5
	.loc 1 1505 11 is_stmt 0
	li	a4,1073803264
	lw	a5,20(a4)
.LVL289:
	.loc 1 1506 5 is_stmt 1
	.loc 1 1506 79 is_stmt 0
	slli	a0,a0,3
.LVL290:
	.loc 1 1506 23
	andi	a5,a5,-25
.LVL291:
	.loc 1 1506 11
	or	a0,a0,a5
.LVL292:
	.loc 1 1507 5 is_stmt 1
	.loc 1 1507 60 is_stmt 0
	sw	a0,20(a4)
	.loc 1 1509 5 is_stmt 1
	.loc 1 1510 1 is_stmt 0
	li	a0,0
.LVL293:
	ret
	.cfi_endproc
.LFE60:
	.size	HBN_Pin_WakeUp_Mask, .-HBN_Pin_WakeUp_Mask
	.section	.text.HBN_Enable_AComp0_IRQ,"ax",@progbits
	.align	1
	.globl	HBN_Enable_AComp0_IRQ
	.type	HBN_Enable_AComp0_IRQ, @function
HBN_Enable_AComp0_IRQ:
.LFB61:
	.loc 1 1522 1 is_stmt 1
	.cfi_startproc
.LVL294:
	.loc 1 1523 5
	.loc 1 1524 5
	.loc 1 1526 5
	.loc 1 1528 5
	.loc 1 1528 11 is_stmt 0
	li	a2,1073803264
	lw	a4,20(a2)
.LVL295:
	.loc 1 1529 5 is_stmt 1
	.loc 1 1531 23 is_stmt 0
	li	a5,-3145728
	addi	a5,a5,-1
	.loc 1 1529 58
	srli	a3,a4,20
	.loc 1 1531 23
	and	a4,a4,a5
.LVL296:
	.loc 1 1530 23
	li	a5,1
	.loc 1 1529 12
	andi	a3,a3,3
.LVL297:
	.loc 1 1530 5 is_stmt 1
	.loc 1 1531 5
	.loc 1 1530 23 is_stmt 0
	sll	a5,a5,a0
	.loc 1 1530 12
	or	a5,a5,a3
	.loc 1 1531 80
	slli	a5,a5,20
	.loc 1 1531 11
	or	a5,a5,a4
.LVL298:
	.loc 1 1532 5 is_stmt 1
	.loc 1 1532 60 is_stmt 0
	sw	a5,20(a2)
	.loc 1 1534 5 is_stmt 1
	.loc 1 1535 1 is_stmt 0
	li	a0,0
.LVL299:
	ret
	.cfi_endproc
.LFE61:
	.size	HBN_Enable_AComp0_IRQ, .-HBN_Enable_AComp0_IRQ
	.section	.text.HBN_Disable_AComp0_IRQ,"ax",@progbits
	.align	1
	.globl	HBN_Disable_AComp0_IRQ
	.type	HBN_Disable_AComp0_IRQ, @function
HBN_Disable_AComp0_IRQ:
.LFB62:
	.loc 1 1546 1 is_stmt 1
	.cfi_startproc
.LVL300:
	.loc 1 1547 5
	.loc 1 1548 5
	.loc 1 1550 5
	.loc 1 1552 5
	.loc 1 1552 11 is_stmt 0
	li	a2,1073803264
	lw	a3,20(a2)
.LVL301:
	.loc 1 1553 5 is_stmt 1
	.loc 1 1554 5
	.loc 1 1555 5
	.loc 1 1555 23 is_stmt 0
	li	a4,-3145728
	.loc 1 1554 25
	li	a5,1
	sll	a5,a5,a0
	.loc 1 1555 23
	addi	a4,a4,-1
	and	a4,a3,a4
	.loc 1 1554 22
	not	a5,a5
	.loc 1 1553 58
	srli	a3,a3,20
.LVL302:
	.loc 1 1555 80
	and	a5,a5,a3
	slli	a5,a5,20
	li	a3,3145728
	and	a5,a5,a3
	.loc 1 1555 11
	or	a5,a4,a5
.LVL303:
	.loc 1 1556 5 is_stmt 1
	.loc 1 1556 60 is_stmt 0
	sw	a5,20(a2)
	.loc 1 1558 5 is_stmt 1
	.loc 1 1559 1 is_stmt 0
	li	a0,0
.LVL304:
	ret
	.cfi_endproc
.LFE62:
	.size	HBN_Disable_AComp0_IRQ, .-HBN_Disable_AComp0_IRQ
	.section	.text.HBN_Enable_AComp1_IRQ,"ax",@progbits
	.align	1
	.globl	HBN_Enable_AComp1_IRQ
	.type	HBN_Enable_AComp1_IRQ, @function
HBN_Enable_AComp1_IRQ:
.LFB63:
	.loc 1 1570 1 is_stmt 1
	.cfi_startproc
.LVL305:
	.loc 1 1571 5
	.loc 1 1572 5
	.loc 1 1574 5
	.loc 1 1576 5
	.loc 1 1576 11 is_stmt 0
	li	a2,1073803264
	lw	a4,20(a2)
.LVL306:
	.loc 1 1577 5 is_stmt 1
	.loc 1 1579 23 is_stmt 0
	li	a5,-12582912
	addi	a5,a5,-1
	.loc 1 1577 58
	srli	a3,a4,22
	.loc 1 1579 23
	and	a4,a4,a5
.LVL307:
	.loc 1 1578 23
	li	a5,1
	.loc 1 1577 12
	andi	a3,a3,3
.LVL308:
	.loc 1 1578 5 is_stmt 1
	.loc 1 1579 5
	.loc 1 1578 23 is_stmt 0
	sll	a5,a5,a0
	.loc 1 1578 12
	or	a5,a5,a3
	.loc 1 1579 80
	slli	a5,a5,22
	.loc 1 1579 11
	or	a5,a5,a4
.LVL309:
	.loc 1 1580 5 is_stmt 1
	.loc 1 1580 60 is_stmt 0
	sw	a5,20(a2)
	.loc 1 1582 5 is_stmt 1
	.loc 1 1583 1 is_stmt 0
	li	a0,0
.LVL310:
	ret
	.cfi_endproc
.LFE63:
	.size	HBN_Enable_AComp1_IRQ, .-HBN_Enable_AComp1_IRQ
	.section	.text.HBN_Disable_AComp1_IRQ,"ax",@progbits
	.align	1
	.globl	HBN_Disable_AComp1_IRQ
	.type	HBN_Disable_AComp1_IRQ, @function
HBN_Disable_AComp1_IRQ:
.LFB64:
	.loc 1 1594 1 is_stmt 1
	.cfi_startproc
.LVL311:
	.loc 1 1595 5
	.loc 1 1596 5
	.loc 1 1598 5
	.loc 1 1600 5
	.loc 1 1600 11 is_stmt 0
	li	a2,1073803264
	lw	a3,20(a2)
.LVL312:
	.loc 1 1601 5 is_stmt 1
	.loc 1 1602 5
	.loc 1 1603 5
	.loc 1 1603 23 is_stmt 0
	li	a4,-12582912
	.loc 1 1602 25
	li	a5,1
	sll	a5,a5,a0
	.loc 1 1603 23
	addi	a4,a4,-1
	and	a4,a3,a4
	.loc 1 1602 22
	not	a5,a5
	.loc 1 1601 58
	srli	a3,a3,22
.LVL313:
	.loc 1 1603 80
	and	a5,a5,a3
	slli	a5,a5,22
	li	a3,12582912
	and	a5,a5,a3
	.loc 1 1603 11
	or	a5,a4,a5
.LVL314:
	.loc 1 1604 5 is_stmt 1
	.loc 1 1604 60 is_stmt 0
	sw	a5,20(a2)
	.loc 1 1606 5 is_stmt 1
	.loc 1 1607 1 is_stmt 0
	li	a0,0
.LVL315:
	ret
	.cfi_endproc
.LFE64:
	.size	HBN_Disable_AComp1_IRQ, .-HBN_Disable_AComp1_IRQ
	.section	.text.HBN_Enable_BOR_IRQ,"ax",@progbits
	.align	1
	.globl	HBN_Enable_BOR_IRQ
	.type	HBN_Enable_BOR_IRQ, @function
HBN_Enable_BOR_IRQ:
.LFB65:
	.loc 1 1618 1 is_stmt 1
	.cfi_startproc
	.loc 1 1619 5
	.loc 1 1621 5
	.loc 1 1621 11 is_stmt 0
	li	a4,1073803264
	lw	a5,20(a4)
.LVL316:
	.loc 1 1622 5 is_stmt 1
	.loc 1 1622 11 is_stmt 0
	li	a3,262144
	.loc 1 1626 1
	li	a0,0
	.loc 1 1622 11
	or	a5,a5,a3
.LVL317:
	.loc 1 1623 5 is_stmt 1
	.loc 1 1623 60 is_stmt 0
	sw	a5,20(a4)
	.loc 1 1625 5 is_stmt 1
	.loc 1 1626 1 is_stmt 0
	ret
	.cfi_endproc
.LFE65:
	.size	HBN_Enable_BOR_IRQ, .-HBN_Enable_BOR_IRQ
	.section	.text.HBN_Disable_BOR_IRQ,"ax",@progbits
	.align	1
	.globl	HBN_Disable_BOR_IRQ
	.type	HBN_Disable_BOR_IRQ, @function
HBN_Disable_BOR_IRQ:
.LFB66:
	.loc 1 1637 1 is_stmt 1
	.cfi_startproc
	.loc 1 1638 5
	.loc 1 1640 5
	.loc 1 1640 11 is_stmt 0
	li	a3,1073803264
	lw	a5,20(a3)
.LVL318:
	.loc 1 1641 5 is_stmt 1
	.loc 1 1641 11 is_stmt 0
	li	a4,-262144
	addi	a4,a4,-1
	and	a5,a5,a4
.LVL319:
	.loc 1 1642 5 is_stmt 1
	.loc 1 1642 60 is_stmt 0
	sw	a5,20(a3)
	.loc 1 1644 5 is_stmt 1
	.loc 1 1645 1 is_stmt 0
	li	a0,0
	ret
	.cfi_endproc
.LFE66:
	.size	HBN_Disable_BOR_IRQ, .-HBN_Disable_BOR_IRQ
	.section	.text.HBN_Out0_IRQHandler_Install,"ax",@progbits
	.align	1
	.globl	HBN_Out0_IRQHandler_Install
	.type	HBN_Out0_IRQHandler_Install, @function
HBN_Out0_IRQHandler_Install:
.LFB67:
	.loc 1 1656 1 is_stmt 1
	.cfi_startproc
	.loc 1 1661 5
	.loc 1 1662 1 is_stmt 0
	li	a0,0
	ret
	.cfi_endproc
.LFE67:
	.size	HBN_Out0_IRQHandler_Install, .-HBN_Out0_IRQHandler_Install
	.section	.text.HBN_Out0_Callback_Install,"ax",@progbits
	.align	1
	.globl	HBN_Out0_Callback_Install
	.type	HBN_Out0_Callback_Install, @function
HBN_Out0_Callback_Install:
.LFB68:
	.loc 1 1674 1 is_stmt 1
	.cfi_startproc
.LVL320:
	.loc 1 1676 5
	.loc 1 1678 5
	.loc 1 1680 5
	.loc 1 1681 1 is_stmt 0
	li	a0,0
.LVL321:
	ret
	.cfi_endproc
.LFE68:
	.size	HBN_Out0_Callback_Install, .-HBN_Out0_Callback_Install
	.section	.text.HBN_Out1_IRQHandler_Install,"ax",@progbits
	.align	1
	.globl	HBN_Out1_IRQHandler_Install
	.type	HBN_Out1_IRQHandler_Install, @function
HBN_Out1_IRQHandler_Install:
.LFB75:
	.cfi_startproc
	li	a0,0
	ret
	.cfi_endproc
.LFE75:
	.size	HBN_Out1_IRQHandler_Install, .-HBN_Out1_IRQHandler_Install
	.section	.text.HBN_Out1_Callback_Install,"ax",@progbits
	.align	1
	.globl	HBN_Out1_Callback_Install
	.type	HBN_Out1_Callback_Install, @function
HBN_Out1_Callback_Install:
.LFB70:
	.loc 1 1710 1 is_stmt 1
	.cfi_startproc
.LVL322:
	.loc 1 1712 5
	.loc 1 1714 5
	.loc 1 1716 5
	.loc 1 1717 1 is_stmt 0
	li	a0,0
.LVL323:
	ret
	.cfi_endproc
.LFE70:
	.size	HBN_Out1_Callback_Install, .-HBN_Out1_Callback_Install
	.section	.tcm_code./mnt/d/GitHub/bl_iot_sdk_for_aithinker/components/platform/soc/bl602/bl602_std/bl602_std/StdDriver/Src/bl602_hbn.c1732,"ax",@progbits
	.align	1
	.weak	HBN_GPIO7_Dbg_Pull_Cfg
	.type	HBN_GPIO7_Dbg_Pull_Cfg, @function
HBN_GPIO7_Dbg_Pull_Cfg:
.LFB71:
	.loc 1 1733 1 is_stmt 1
	.cfi_startproc
.LVL324:
	.loc 1 1734 5
	.loc 1 1736 5
	.loc 1 1738 5
	.loc 1 1738 11 is_stmt 0
	li	a6,1073803264
	lw	a5,20(a6)
.LVL325:
	.loc 1 1739 5 is_stmt 1
	.loc 1 1739 23 is_stmt 0
	li	a4,-134217728
	addi	a4,a4,-1
	and	a5,a5,a4
.LVL326:
	.loc 1 1740 5 is_stmt 1
	.loc 1 1739 78 is_stmt 0
	slli	a2,a2,27
.LVL327:
	.loc 1 1739 11
	or	a2,a2,a5
.LVL328:
	.loc 1 1740 23
	li	a5,-117440512
	addi	a5,a5,-1
	and	a2,a2,a5
.LVL329:
	.loc 1 1741 5 is_stmt 1
	.loc 1 1740 79 is_stmt 0
	slli	a3,a3,24
.LVL330:
	.loc 1 1741 23
	li	a5,-65536
	.loc 1 1740 11
	or	a3,a3,a2
.LVL331:
	.loc 1 1741 23
	addi	a5,a5,-1
	and	a3,a3,a5
.LVL332:
	.loc 1 1742 5 is_stmt 1
	.loc 1 1741 79 is_stmt 0
	slli	a0,a0,16
.LVL333:
	.loc 1 1741 11
	or	a0,a0,a3
.LVL334:
	.loc 1 1742 79
	slli	a1,a1,8
.LVL335:
	.loc 1 1742 23
	andi	a0,a0,-257
.LVL336:
	.loc 1 1742 11
	or	a0,a1,a0
.LVL337:
	.loc 1 1743 5 is_stmt 1
	.loc 1 1743 60 is_stmt 0
	sw	a0,20(a6)
	.loc 1 1745 5 is_stmt 1
	.loc 1 1746 1 is_stmt 0
	li	a0,0
.LVL338:
	ret
	.cfi_endproc
.LFE71:
	.size	HBN_GPIO7_Dbg_Pull_Cfg, .-HBN_GPIO7_Dbg_Pull_Cfg
	.section	.tcm_code./mnt/d/GitHub/bl_iot_sdk_for_aithinker/components/platform/soc/bl602/bl602_std/bl602_std/StdDriver/Src/bl602_hbn.c1759,"ax",@progbits
	.align	1
	.weak	HBN_Set_Embedded_Flash_Pullup
	.type	HBN_Set_Embedded_Flash_Pullup, @function
HBN_Set_Embedded_Flash_Pullup:
.LFB72:
	.loc 1 1760 1 is_stmt 1
	.cfi_startproc
.LVL339:
	.loc 1 1761 5
	.loc 1 1763 5
	.loc 1 1763 11 is_stmt 0
	li	a4,1073803264
	lw	a5,268(a4)
.LVL340:
	.loc 1 1765 5 is_stmt 1
	.loc 1 1766 5
	.loc 1 1765 13 is_stmt 0
	seqz	a0,a0
.LVL341:
	.loc 1 1766 20
	andi	a5,a5,-2
.LVL342:
	.loc 1 1766 11
	or	a0,a0,a5
.LVL343:
	.loc 1 1768 5 is_stmt 1
	.loc 1 1768 61 is_stmt 0
	sw	a0,268(a4)
	.loc 1 1770 5 is_stmt 1
	.loc 1 1771 1 is_stmt 0
	li	a0,0
.LVL344:
	ret
	.cfi_endproc
.LFE72:
	.size	HBN_Set_Embedded_Flash_Pullup, .-HBN_Set_Embedded_Flash_Pullup
	.section	.tcm_code./mnt/d/GitHub/bl_iot_sdk_for_aithinker/components/platform/soc/bl602/bl602_std/bl602_std/StdDriver/Src/bl602_hbn.c101,"ax",@progbits
	.align	1
	.globl	HBN_Mode_Enter
	.type	HBN_Mode_Enter, @function
HBN_Mode_Enter:
.LFB8:
	.loc 1 102 1 is_stmt 1
	.cfi_startproc
.LVL345:
	.loc 1 103 5
	.loc 1 102 1 is_stmt 0
	addi	sp,sp,-32
	.cfi_def_cfa_offset 32
	sw	s0,24(sp)
	sw	ra,28(sp)
	.cfi_offset 8, -8
	.cfi_offset 1, -4
	.loc 1 106 7
	lbu	a5,0(a0)
	.loc 1 103 14
	sw	zero,8(sp)
	.loc 1 103 23
	sw	zero,12(sp)
	.loc 1 104 5 is_stmt 1
	.loc 1 106 5
	.loc 1 102 1 is_stmt 0
	mv	s0,a0
	.loc 1 106 7
	beq	a5,zero,.L103
	.loc 1 107 9 is_stmt 1
	li	a0,1
.LVL346:
	call	HBN_32K_Sel
.LVL347:
.L104:
	.loc 1 114 5
	li	a0,0
	call	HBN_Hw_Pu_Pd_Cfg
.LVL348:
	.loc 1 116 5
	lbu	a0,8(s0)
	not	a0,a0
	andi	a0,a0,0xff
	call	HBN_Pin_WakeUp_Mask
.LVL349:
	.loc 1 117 5
	.loc 1 117 7 is_stmt 0
	lbu	a5,8(s0)
	beq	a5,zero,.L105
	.loc 1 118 9 is_stmt 1
	li	a0,1
	call	HBN_Aon_Pad_IeSmt_Cfg
.LVL350:
	.loc 1 119 9
	lw	a0,12(s0)
	call	HBN_GPIO_INT_Enable
.LVL351:
.L106:
	.loc 1 125 5
	call	HBN_Clear_RTC_Counter
.LVL352:
	.loc 1 126 5
	.loc 1 126 7 is_stmt 0
	lw	a5,4(s0)
	beq	a5,zero,.L107
	.loc 1 127 9 is_stmt 1
	addi	a1,sp,12
	addi	a0,sp,8
	call	HBN_Get_RTC_Timer_Val
.LVL353:
	.loc 1 128 9
	.loc 1 129 9
	.loc 1 129 28 is_stmt 0
	lw	a2,4(s0)
	.loc 1 129 12
	lw	a1,8(sp)
	.loc 1 130 9
	lw	a5,12(sp)
	.loc 1 129 28
	slli	a2,a2,15
	.loc 1 129 12
	add	a1,a2,a1
	sltu	a2,a1,a2
.LVL354:
	.loc 1 130 9 is_stmt 1
	li	a3,1
	add	a2,a2,a5
.LVL355:
	li	a0,1
	call	HBN_Set_RTC_Timer
.LVL356:
	.loc 1 131 9
	call	HBN_Enable_RTC_Counter
.LVL357:
.L107:
	.loc 1 134 5
	lw	a0,16(s0)
	call	HBN_Power_Down_Flash
.LVL358:
	.loc 1 135 5
	li	a0,1
	call	HBN_Set_Embedded_Flash_Pullup
.LVL359:
	.loc 1 137 5
	li	a1,0
	li	a0,0
	call	GLB_Set_System_CLK
.LVL360:
	.loc 1 139 5
	lw	a2,20(s0)
	lw	a1,24(s0)
	lbu	a0,8(s0)
	call	HBN_Enable
.LVL361:
	.loc 1 140 1 is_stmt 0
	lw	ra,28(sp)
	.cfi_remember_state
	.cfi_restore 1
	lw	s0,24(sp)
	.cfi_restore 8
.LVL362:
	addi	sp,sp,32
	.cfi_def_cfa_offset 0
	jr	ra
.LVL363:
.L103:
	.cfi_restore_state
	.loc 1 109 9 is_stmt 1
	li	a0,0
	call	HBN_32K_Sel
.LVL364:
	.loc 1 110 9
	call	HBN_Power_Off_Xtal_32K
.LVL365:
	j	.L104
.L105:
	.loc 1 121 9
	li	a0,0
	call	HBN_Aon_Pad_IeSmt_Cfg
.LVL366:
	j	.L106
	.cfi_endproc
.LFE8:
	.size	HBN_Mode_Enter, .-HBN_Mode_Enter
	.section	.tcm_code./mnt/d/GitHub/bl_iot_sdk_for_aithinker/components/platform/soc/bl602/bl602_std/bl602_std/StdDriver/Src/bl602_hbn.c150,"ax",@progbits
	.align	1
	.globl	HBN_Mode_Enter_Ext
	.type	HBN_Mode_Enter_Ext, @function
HBN_Mode_Enter_Ext:
.LFB9:
	.loc 1 151 1
	.cfi_startproc
.LVL367:
	.loc 1 152 5
	.loc 1 151 1 is_stmt 0
	addi	sp,sp,-32
	.cfi_def_cfa_offset 32
	sw	s0,24(sp)
	sw	ra,28(sp)
	.cfi_offset 8, -8
	.cfi_offset 1, -4
	.loc 1 155 7
	lbu	a5,0(a0)
	.loc 1 152 14
	sw	zero,8(sp)
	.loc 1 152 23
	sw	zero,12(sp)
	.loc 1 153 5 is_stmt 1
	.loc 1 155 5
	.loc 1 151 1 is_stmt 0
	mv	s0,a0
	.loc 1 155 7
	beq	a5,zero,.L113
	.loc 1 156 9 is_stmt 1
	li	a0,1
.LVL368:
	call	HBN_32K_Sel
.LVL369:
.L114:
	.loc 1 163 5
	li	a0,0
	call	HBN_Hw_Pu_Pd_Cfg
.LVL370:
	.loc 1 165 5
	lbu	a0,8(s0)
	not	a0,a0
	andi	a0,a0,0xff
	call	HBN_Pin_WakeUp_Mask
.LVL371:
	.loc 1 166 5
	.loc 1 166 7 is_stmt 0
	lbu	a5,8(s0)
	beq	a5,zero,.L115
	.loc 1 167 9 is_stmt 1
	li	a0,1
	call	HBN_Aon_Pad_IeSmt_Cfg
.LVL372:
	.loc 1 168 9
	lw	a0,12(s0)
	call	HBN_GPIO_INT_Enable
.LVL373:
.L116:
	.loc 1 174 5
	.loc 1 174 7 is_stmt 0
	lw	a5,4(s0)
	beq	a5,zero,.L117
	.loc 1 175 9 is_stmt 1
	call	HBN_Clear_RTC_Counter
.LVL374:
	.loc 1 176 9
	addi	a1,sp,12
	addi	a0,sp,8
	call	HBN_Get_RTC_Timer_Val
.LVL375:
	.loc 1 177 9
	.loc 1 178 9
	.loc 1 178 17 is_stmt 0
	lw	a2,4(s0)
	.loc 1 178 12
	lw	a1,8(sp)
	.loc 1 179 9
	lw	a5,12(sp)
	li	a3,1
	.loc 1 178 12
	add	a1,a2,a1
	sltu	a2,a1,a2
.LVL376:
	.loc 1 179 9 is_stmt 1
	add	a2,a2,a5
.LVL377:
	li	a0,1
	call	HBN_Set_RTC_Timer
.LVL378:
	.loc 1 180 9
	call	HBN_Enable_RTC_Counter
.LVL379:
.L117:
	.loc 1 183 5
	lw	a0,16(s0)
	call	HBN_Power_Down_Flash
.LVL380:
	.loc 1 184 5
	li	a0,1
	call	HBN_Set_Embedded_Flash_Pullup
.LVL381:
	.loc 1 186 5
	li	a1,0
	li	a0,0
	call	GLB_Set_System_CLK
.LVL382:
	.loc 1 188 5
	lw	a2,20(s0)
	lw	a1,24(s0)
	lbu	a0,8(s0)
	call	HBN_Enable_Ext
.LVL383:
.L113:
	.loc 1 158 9
	li	a0,0
	call	HBN_32K_Sel
.LVL384:
	.loc 1 159 9
	call	HBN_Power_Off_Xtal_32K
.LVL385:
	j	.L114
.L115:
	.loc 1 170 9
	li	a0,0
	call	HBN_Aon_Pad_IeSmt_Cfg
.LVL386:
	j	.L116
	.cfi_endproc
.LFE9:
	.size	HBN_Mode_Enter_Ext, .-HBN_Mode_Enter_Ext
	.section	.text.HBN_Set_BOR_Cfg,"ax",@progbits
	.align	1
	.globl	HBN_Set_BOR_Cfg
	.type	HBN_Set_BOR_Cfg, @function
HBN_Set_BOR_Cfg:
.LFB73:
	.loc 1 1783 1
	.cfi_startproc
.LVL387:
	.loc 1 1784 5
	.loc 1 1786 5
	.loc 1 1783 1 is_stmt 0
	addi	sp,sp,-16
	.cfi_def_cfa_offset 16
	sw	s0,8(sp)
	sw	ra,12(sp)
	.cfi_offset 8, -8
	.cfi_offset 1, -4
	.loc 1 1786 7
	lbu	a5,1(a0)
	.loc 1 1783 1
	mv	s0,a0
	.loc 1 1786 7
	beq	a5,zero,.L123
	.loc 1 1787 9 is_stmt 1
	call	HBN_Enable_BOR_IRQ
.LVL388:
.L124:
	.loc 1 1792 5
	.loc 1 1792 11 is_stmt 0
	li	a5,1073803264
	lw	a5,44(a5)
.LVL389:
	.loc 1 1794 5 is_stmt 1
	.loc 1 1795 7 is_stmt 0
	lbu	a3,3(s0)
	.loc 1 1794 23
	andi	a4,a5,-3
	.loc 1 1794 60
	lbu	a5,2(s0)
.LVL390:
	.loc 1 1794 89
	slli	a5,a5,1
	.loc 1 1794 11
	or	a5,a5,a4
.LVL391:
	.loc 1 1795 5 is_stmt 1
	.loc 1 1798 15 is_stmt 0
	andi	a4,a5,-2
	.loc 1 1795 7
	beq	a3,zero,.L126
	.loc 1 1796 9 is_stmt 1
	.loc 1 1796 15 is_stmt 0
	ori	a4,a5,1
.LVL392:
.L126:
	.loc 1 1801 5 is_stmt 1
	.loc 1 1801 7 is_stmt 0
	lbu	a3,0(s0)
	.loc 1 1804 15
	andi	a5,a4,-5
	.loc 1 1801 7
	beq	a3,zero,.L128
	.loc 1 1802 9 is_stmt 1
	.loc 1 1802 15 is_stmt 0
	ori	a5,a4,4
.LVL393:
.L128:
	.loc 1 1807 5 is_stmt 1
	.loc 1 1807 60 is_stmt 0
	li	a4,1073803264
	sw	a5,44(a4)
	.loc 1 1809 5 is_stmt 1
	.loc 1 1810 1 is_stmt 0
	lw	ra,12(sp)
	.cfi_remember_state
	.cfi_restore 1
	lw	s0,8(sp)
	.cfi_restore 8
.LVL394:
	li	a0,0
	addi	sp,sp,16
	.cfi_def_cfa_offset 0
	jr	ra
.LVL395:
.L123:
	.cfi_restore_state
	.loc 1 1789 9 is_stmt 1
	call	HBN_Disable_BOR_IRQ
.LVL396:
	j	.L124
	.cfi_endproc
.LFE73:
	.size	HBN_Set_BOR_Cfg, .-HBN_Set_BOR_Cfg
	.section	.srodata.CSWTCH.50,"a"
	.align	2
	.set	.LANCHOR0,. + 0
	.type	CSWTCH.50, @object
	.size	CSWTCH.50, 3
CSWTCH.50:
	.byte	1
	.byte	2
	.byte	2
	.text
.Letext0:
	.file 2 "/mnt/d/GitHub/bl_iot_sdk_for_aithinker/toolchain/riscv/Linux/lib/gcc/riscv64-unknown-elf/10.2.0/include/stdint-gcc.h"
	.file 3 "/mnt/d/GitHub/bl_iot_sdk_for_aithinker/components/platform/soc/bl602/bl602_std/bl602_std/StdDriver/Inc/bl602_common.h"
	.file 4 "/mnt/d/GitHub/bl_iot_sdk_for_aithinker/components/platform/soc/bl602/bl602_std/bl602_std/StdDriver/Inc/bl602_ef_ctrl.h"
	.file 5 "/mnt/d/GitHub/bl_iot_sdk_for_aithinker/components/platform/soc/bl602/bl602_std/bl602_std/StdDriver/Inc/bl602_sf_ctrl.h"
	.file 6 "/mnt/d/GitHub/bl_iot_sdk_for_aithinker/components/platform/soc/bl602/bl602_std/bl602_std/StdDriver/Inc/bl602_sflash.h"
	.file 7 "/mnt/d/GitHub/bl_iot_sdk_for_aithinker/components/platform/soc/bl602/bl602_std/bl602_std/StdDriver/Inc/bl602_hbn.h"
	.file 8 "/mnt/d/GitHub/bl_iot_sdk_for_aithinker/components/platform/soc/bl602/bl602_std/bl602_std/StdDriver/Inc/bl602_glb.h"
	.file 9 "/mnt/d/GitHub/bl_iot_sdk_for_aithinker/components/platform/soc/bl602/bl602_std/bl602_std/StdDriver/Inc/bl602_xip_sflash.h"