	.file	"bl602_mfg_flash.c"
	.option nopic
	.attribute arch, "rv32i2p0_m2p0_f2p0_c2p0"
	.attribute unaligned_access, 0
	.attribute stack_align, 16
	.text
.Ltext0:
	.cfi_sections	.debug_frame
	.section	.text.PtTable_Flash_Read,"ax",@progbits
	.align	1
	.type	PtTable_Flash_Read, @function
PtTable_Flash_Read:
.LFB8:
	.file 1 "/mnt/d/GitHub/bl_iot_sdk_for_aithinker/components/platform/soc/bl602/bl602_std/bl602_std/StdDriver/Src/bl602_mfg_flash.c"
	.loc 1 26 1
	.cfi_startproc
.LVL0:
	.loc 1 27 5
	lui	a5,%hi(.LANCHOR0)
	.loc 1 26 1 is_stmt 0
	mv	a3,a2
	.loc 1 27 5
	mv	a2,a1
.LVL1:
	mv	a1,a0
.LVL2:
	lw	a0,%lo(.LANCHOR0)(a5)
.LVL3:
	.loc 1 26 1
	addi	sp,sp,-16
	.cfi_def_cfa_offset 16
	sw	ra,12(sp)
	.cfi_offset 1, -4
	.loc 1 27 5
	call	XIP_SFlash_Read_Need_Lock_Ext
.LVL4:
	.loc 1 28 5 is_stmt 1
	.loc 1 29 1 is_stmt 0
	lw	ra,12(sp)
	.cfi_restore 1
	li	a0,0
	addi	sp,sp,16
	.cfi_def_cfa_offset 0
	jr	ra
	.cfi_endproc
.LFE8:
	.size	PtTable_Flash_Read, .-PtTable_Flash_Read
	.section	.text.mfg_flash_read,"ax",@progbits
	.align	1
	.type	mfg_flash_read, @function
mfg_flash_read:
.LFB11:
	.loc 1 79 1 is_stmt 1
	.cfi_startproc
	.loc 1 80 5
	.loc 1 84 6
	.loc 1 84 10 is_stmt 0
	lui	a5,%hi(.LANCHOR2)
	lw	a1,%lo(.LANCHOR2)(a5)
	lui	a5,%hi(.LANCHOR0)
	lw	a0,%lo(.LANCHOR0)(a5)
	lui	a2,%hi(.LANCHOR1)
	.loc 1 79 1
	addi	sp,sp,-16
	.cfi_def_cfa_offset 16
	.loc 1 84 10
	li	a3,24
	addi	a2,a2,%lo(.LANCHOR1)
	.loc 1 79 1
	sw	ra,12(sp)
	.cfi_offset 1, -4
	.loc 1 84 10
	call	XIP_SFlash_Read_Need_Lock_Ext
.LVL5:
	.loc 1 85 6 is_stmt 1
	.loc 1 91 1 is_stmt 0
	lw	ra,12(sp)
	.cfi_restore 1
	.loc 1 85 8
	snez	a0,a0
.LVL6:
	.loc 1 91 1
	neg	a0,a0
	addi	sp,sp,16
	.cfi_def_cfa_offset 0
	jr	ra
	.cfi_endproc
.LFE11:
	.size	mfg_flash_read, .-mfg_flash_read
	.section	.text.mfg_flash_program,"ax",@progbits
	.align	1
	.type	mfg_flash_program, @function
mfg_flash_program:
.LFB10:
	.loc 1 58 1 is_stmt 1
	.cfi_startproc
	.loc 1 59 5
	.loc 1 63 6
	.loc 1 58 1 is_stmt 0
	addi	sp,sp,-16
	.cfi_def_cfa_offset 16
	sw	s1,4(sp)
	.cfi_offset 9, -12
	.loc 1 63 10
	lui	s1,%hi(.LANCHOR2)
	.loc 1 58 1
	sw	s0,8(sp)
	.loc 1 63 10
	addi	s1,s1,%lo(.LANCHOR2)
	.cfi_offset 8, -8
	lui	s0,%hi(.LANCHOR0)
	lw	a1,0(s1)
	addi	s0,s0,%lo(.LANCHOR0)
	lw	a0,0(s0)
	addi	a2,a1,15
	.loc 1 58 1
	sw	ra,12(sp)
	.cfi_offset 1, -4
	.loc 1 63 10
	call	XIP_SFlash_Erase_Need_Lock_Ext
.LVL7:
	mv	a5,a0
.LVL8:
	.loc 1 64 6 is_stmt 1
	li	a0,-1
.LVL9:
	.loc 1 64 8 is_stmt 0
	bne	a5,zero,.L6
	.loc 1 69 6 is_stmt 1
	.loc 1 69 10 is_stmt 0
	lw	a1,0(s1)
	lw	a0,0(s0)
	lui	a2,%hi(.LANCHOR1)
	li	a3,24
	addi	a2,a2,%lo(.LANCHOR1)
	call	XIP_SFlash_Write_Need_Lock_Ext
.LVL10:
	.loc 1 70 6 is_stmt 1
	.loc 1 70 8 is_stmt 0
	snez	a0,a0
.LVL11:
	neg	a0,a0
.L6:
	.loc 1 76 1
	lw	ra,12(sp)
	.cfi_restore 1
	lw	s0,8(sp)
	.cfi_restore 8
	lw	s1,4(sp)
	.cfi_restore 9
	addi	sp,sp,16
	.cfi_def_cfa_offset 0
	jr	ra
	.cfi_endproc
.LFE10:
	.size	mfg_flash_program, .-mfg_flash_program
	.section	.rodata.mfg_flash_init.str1.4,"aMS",@progbits,1
	.align	2
.LC0:
	.string	"rf_para"
	.section	.text.mfg_flash_init,"ax",@progbits
	.align	1
	.globl	mfg_flash_init
	.type	mfg_flash_init, @function
mfg_flash_init:
.LFB9:
	.loc 1 32 1 is_stmt 1
	.cfi_startproc
.LVL12:
	.loc 1 33 5
	.loc 1 34 5
	.loc 1 36 5
	.loc 1 36 14 is_stmt 0
	lui	a5,%hi(.LANCHOR0)
	sw	a0,%lo(.LANCHOR0)(a5)
	.loc 1 37 5 is_stmt 1
	.loc 1 37 7 is_stmt 0
	bne	a0,zero,.L11
	.loc 1 54 12
	li	a0,-1
.LVL13:
	.loc 1 55 1
	ret
.LVL14:
.L13:
	.cfi_def_cfa_offset 16
	.cfi_offset 1, -4
	.cfi_offset 8, -8
	.cfi_offset 9, -12
	.loc 1 54 12
	li	a0,-1
.L12:
	.loc 1 55 1
	lw	ra,12(sp)
	.cfi_restore 1
	lw	s0,8(sp)
	.cfi_restore 8
	lw	s1,4(sp)
	.cfi_restore 9
	addi	sp,sp,16
	.cfi_def_cfa_offset 0
	jr	ra
.LVL15:
.L11:
	.loc 1 38 9 is_stmt 1
	lui	a2,%hi(PtTable_Flash_Read)
	.loc 1 32 1 is_stmt 0
	addi	sp,sp,-16
	.cfi_def_cfa_offset 16
	.loc 1 38 9
	addi	a2,a2,%lo(PtTable_Flash_Read)
	li	a1,0
	li	a0,0
.LVL16:
	.loc 1 32 1
	sw	ra,12(sp)
	sw	s0,8(sp)
	sw	s1,4(sp)
	.cfi_offset 1, -4
	.cfi_offset 8, -8
	.cfi_offset 9, -12
	.loc 1 39 18
	lui	s0,%hi(ptTableStuff)
	.loc 1 38 9
	call	PtTable_Set_Flash_Operation
.LVL17:
	.loc 1 39 9 is_stmt 1
	.loc 1 39 18 is_stmt 0
	addi	a0,s0,%lo(ptTableStuff)
	call	PtTable_Get_Active_Partition_Need_Lock
.LVL18:
	.loc 1 40 9 is_stmt 1
	.loc 1 40 11 is_stmt 0
	li	a5,2
	beq	a0,a5,.L13
	.loc 1 44 9 is_stmt 1
	.loc 1 44 13 is_stmt 0
	li	a5,596
	mul	a0,a0,a5
.LVL19:
	lui	a2,%hi(.LANCHOR3)
	addi	s0,s0,%lo(ptTableStuff)
	lui	a1,%hi(.LC0)
	addi	s1,a2,%lo(.LANCHOR3)
	addi	a1,a1,%lo(.LC0)
	addi	a2,a2,%lo(.LANCHOR3)
	add	a0,s0,a0
	call	PtTable_Get_Active_Entries_By_Name
.LVL20:
	.loc 1 45 9 is_stmt 1
	.loc 1 45 11 is_stmt 0
	bne	a0,zero,.L13
	.loc 1 46 13 is_stmt 1
	.loc 1 46 25 is_stmt 0
	lw	a4,12(s1)
	lui	a5,%hi(.LANCHOR2)
	sw	a4,%lo(.LANCHOR2)(a5)
	.loc 1 48 13 is_stmt 1
	.loc 1 48 20 is_stmt 0
	j	.L12
	.cfi_endproc
.LFE9:
	.size	mfg_flash_init, .-mfg_flash_init
	.section	.text.mfg_flash_write_xtal_capcode_pre,"ax",@progbits
	.align	1
	.globl	mfg_flash_write_xtal_capcode_pre
	.type	mfg_flash_write_xtal_capcode_pre, @function
mfg_flash_write_xtal_capcode_pre:
.LFB12:
	.loc 1 94 1 is_stmt 1
	.cfi_startproc
.LVL21:
	.loc 1 95 5
	.loc 1 94 1 is_stmt 0
	addi	sp,sp,-16
	.cfi_def_cfa_offset 16
	sw	s0,8(sp)
	.cfi_offset 8, -8
	.loc 1 95 18
	lui	s0,%hi(.LANCHOR1)
	addi	s0,s0,%lo(.LANCHOR1)
	li	a5,65
	.loc 1 94 1
	sw	s1,4(sp)
	.loc 1 95 18
	sw	a5,0(s0)
	.loc 1 96 5 is_stmt 1
	.loc 1 97 20 is_stmt 0
	sb	a0,5(s0)
	.loc 1 96 26
	li	a5,90
	.cfi_offset 9, -12
	.loc 1 94 1
	mv	s1,a1
	.loc 1 98 19
	addi	a0,s0,4
.LVL22:
	li	a1,16
.LVL23:
	.loc 1 94 1
	sw	ra,12(sp)
	.cfi_offset 1, -4
	.loc 1 96 26
	sb	a5,4(s0)
	.loc 1 97 5 is_stmt 1
	.loc 1 98 5
	.loc 1 98 19 is_stmt 0
	call	BFLB_Soft_CRC32
.LVL24:
	.loc 1 98 18
	sw	a0,20(s0)
	.loc 1 100 5 is_stmt 1
	.loc 1 100 7 is_stmt 0
	beq	s1,zero,.L18
	.loc 1 101 9 is_stmt 1
	.loc 1 105 1 is_stmt 0
	lw	s0,8(sp)
	.cfi_remember_state
	.cfi_restore 8
	lw	ra,12(sp)
	.cfi_restore 1
	lw	s1,4(sp)
	.cfi_restore 9
	addi	sp,sp,16
	.cfi_def_cfa_offset 0
	.loc 1 101 16
	tail	mfg_flash_program
.LVL25:
.L18:
	.cfi_restore_state
	.loc 1 105 1
	lw	ra,12(sp)
	.cfi_restore 1
	lw	s0,8(sp)
	.cfi_restore 8
	lw	s1,4(sp)
	.cfi_restore 9
	li	a0,0
	addi	sp,sp,16
	.cfi_def_cfa_offset 0
	jr	ra
	.cfi_endproc
.LFE12:
	.size	mfg_flash_write_xtal_capcode_pre, .-mfg_flash_write_xtal_capcode_pre
	.section	.text.mfg_flash_write_xtal_capcode,"ax",@progbits
	.align	1
	.globl	mfg_flash_write_xtal_capcode
	.type	mfg_flash_write_xtal_capcode, @function
mfg_flash_write_xtal_capcode:
.LFB13:
	.loc 1 108 1 is_stmt 1
	.cfi_startproc
	.loc 1 109 5
	tail	mfg_flash_program
.LVL26:
	.cfi_endproc
.LFE13:
	.size	mfg_flash_write_xtal_capcode, .-mfg_flash_write_xtal_capcode
	.section	.text.mfg_flash_read_xtal_capcode,"ax",@progbits
	.align	1
	.globl	mfg_flash_read_xtal_capcode
	.type	mfg_flash_read_xtal_capcode, @function
mfg_flash_read_xtal_capcode:
.LFB14:
	.loc 1 113 1
	.cfi_startproc
.LVL27:
	.loc 1 114 5
	.loc 1 113 1 is_stmt 0
	addi	sp,sp,-16
	.cfi_def_cfa_offset 16
	sw	s1,4(sp)
	sw	ra,12(sp)
	sw	s0,8(sp)
	sw	s2,0(sp)
	.cfi_offset 9, -12
	.cfi_offset 1, -4
	.cfi_offset 8, -8
	.cfi_offset 18, -16
	.loc 1 113 1
	mv	s1,a0
	.loc 1 114 7
	bne	a1,zero,.L22
.LVL28:
.L25:
	.loc 1 117 5 is_stmt 1
	.loc 1 117 15 is_stmt 0
	lui	s0,%hi(.LANCHOR1)
	addi	s0,s0,%lo(.LANCHOR1)
	.loc 1 117 7
	lw	a4,0(s0)
	li	a5,65
	beq	a4,a5,.L23
.L24:
	.loc 1 115 16
	li	a0,-1
.L26:
	.loc 1 126 1
	lw	ra,12(sp)
	.cfi_remember_state
	.cfi_restore 1
	lw	s0,8(sp)
	.cfi_restore 8
	lw	s1,4(sp)
	.cfi_restore 9
.LVL29:
	lw	s2,0(sp)
	.cfi_restore 18
	addi	sp,sp,16
	.cfi_def_cfa_offset 0
	jr	ra
.LVL30:
.L22:
	.cfi_restore_state
	.loc 1 114 22 discriminator 1
	call	mfg_flash_read
.LVL31:
	.loc 1 114 19 discriminator 1
	beq	a0,zero,.L25
	j	.L24
.L23:
	.loc 1 118 9 is_stmt 1
	.loc 1 118 19 is_stmt 0
	lw	s2,20(s0)
	.loc 1 118 28
	li	a1,16
	addi	a0,s0,4
	call	BFLB_Soft_CRC32
.LVL32:
	.loc 1 118 11
	bne	s2,a0,.L24
	.loc 1 119 13 is_stmt 1
	.loc 1 119 15 is_stmt 0
	lbu	a4,4(s0)
	li	a5,90
	bne	a4,a5,.L24
	.loc 1 120 17 is_stmt 1
	.loc 1 120 33 is_stmt 0
	lbu	a5,5(s0)
	.loc 1 121 24
	li	a0,0
	.loc 1 120 25
	sb	a5,0(s1)
	.loc 1 121 17 is_stmt 1
	.loc 1 121 24 is_stmt 0
	j	.L26
	.cfi_endproc
.LFE14:
	.size	mfg_flash_read_xtal_capcode, .-mfg_flash_read_xtal_capcode
	.section	.text.mfg_flash_write_poweroffset_pre,"ax",@progbits
	.align	1
	.globl	mfg_flash_write_poweroffset_pre
	.type	mfg_flash_write_poweroffset_pre, @function
mfg_flash_write_poweroffset_pre:
.LFB15:
	.loc 1 129 1 is_stmt 1
	.cfi_startproc
.LVL33:
	.loc 1 130 5
	.loc 1 129 1 is_stmt 0
	addi	sp,sp,-16
	.cfi_def_cfa_offset 16
	sw	s0,8(sp)
	.cfi_offset 8, -8
	.loc 1 130 18
	lui	s0,%hi(.LANCHOR1)
	addi	s0,s0,%lo(.LANCHOR1)
	li	a5,65
	sw	a5,0(s0)
	.loc 1 131 5 is_stmt 1
	.loc 1 131 30 is_stmt 0
	li	a5,90
	.loc 1 129 1
	sw	s1,4(sp)
	sw	ra,12(sp)
	.cfi_offset 9, -12
	.cfi_offset 1, -4
	.loc 1 131 30
	sb	a5,6(s0)
	.loc 1 132 5 is_stmt 1
	.loc 1 132 37 is_stmt 0
	lb	a5,0(a0)
	.loc 1 129 1
	mv	s1,a1
	.loc 1 135 19
	li	a1,16
.LVL34:
	.loc 1 132 27
	sb	a5,7(s0)
	.loc 1 133 5 is_stmt 1
	.loc 1 133 27 is_stmt 0
	lb	a5,6(a0)
	sb	a5,8(s0)
	.loc 1 134 5 is_stmt 1
	.loc 1 134 27 is_stmt 0
	lbu	a5,12(a0)
	.loc 1 135 19
	addi	a0,s0,4
.LVL35:
	.loc 1 134 27
	sb	a5,9(s0)
	.loc 1 135 5 is_stmt 1
	.loc 1 135 19 is_stmt 0
	call	BFLB_Soft_CRC32
.LVL36:
	.loc 1 135 18
	sw	a0,20(s0)
	.loc 1 137 5 is_stmt 1
	.loc 1 137 7 is_stmt 0
	beq	s1,zero,.L32
	.loc 1 138 9 is_stmt 1
	.loc 1 142 1 is_stmt 0
	lw	s0,8(sp)
	.cfi_remember_state
	.cfi_restore 8
	lw	ra,12(sp)
	.cfi_restore 1
	lw	s1,4(sp)
	.cfi_restore 9
	addi	sp,sp,16
	.cfi_def_cfa_offset 0
	.loc 1 138 16
	tail	mfg_flash_program
.LVL37:
.L32:
	.cfi_restore_state
	.loc 1 142 1
	lw	ra,12(sp)
	.cfi_restore 1
	lw	s0,8(sp)
	.cfi_restore 8
	lw	s1,4(sp)
	.cfi_restore 9
	li	a0,0
	addi	sp,sp,16
	.cfi_def_cfa_offset 0
	jr	ra
	.cfi_endproc
.LFE15:
	.size	mfg_flash_write_poweroffset_pre, .-mfg_flash_write_poweroffset_pre
	.section	.text.mfg_flash_write_poweroffset,"ax",@progbits
	.align	1
	.globl	mfg_flash_write_poweroffset
	.type	mfg_flash_write_poweroffset, @function
mfg_flash_write_poweroffset:
.LFB22:
	.cfi_startproc
	tail	mfg_flash_program
	.cfi_endproc
.LFE22:
	.size	mfg_flash_write_poweroffset, .-mfg_flash_write_poweroffset
	.section	.text.mfg_flash_read_poweroffset,"ax",@progbits
	.align	1
	.globl	mfg_flash_read_poweroffset
	.type	mfg_flash_read_poweroffset, @function
mfg_flash_read_poweroffset:
.LFB17:
	.loc 1 150 1 is_stmt 1
	.cfi_startproc
.LVL38:
	.loc 1 151 5
	.loc 1 152 5
	.loc 1 154 5
	.loc 1 150 1 is_stmt 0
	addi	sp,sp,-16
	.cfi_def_cfa_offset 16
	sw	s0,8(sp)
	sw	ra,12(sp)
	sw	s1,4(sp)
	sw	s2,0(sp)
	.cfi_offset 8, -8
	.cfi_offset 1, -4
	.cfi_offset 9, -12
	.cfi_offset 18, -16
	.loc 1 150 1
	mv	s0,a0
	.loc 1 154 7
	bne	a1,zero,.L36
.LVL39:
.L39:
	.loc 1 157 5 is_stmt 1
	.loc 1 157 15 is_stmt 0
	lui	s1,%hi(.LANCHOR1)
	addi	s1,s1,%lo(.LANCHOR1)
	.loc 1 157 7
	lw	a4,0(s1)
	li	a5,65
	beq	a4,a5,.L37
.L38:
	.loc 1 155 16
	li	a0,-1
.LVL40:
.L40:
	.loc 1 191 1
	lw	ra,12(sp)
	.cfi_remember_state
	.cfi_restore 1
	lw	s0,8(sp)
	.cfi_restore 8
.LVL41:
	lw	s1,4(sp)
	.cfi_restore 9
	lw	s2,0(sp)
	.cfi_restore 18
	addi	sp,sp,16
	.cfi_def_cfa_offset 0
	jr	ra
.LVL42:
.L36:
	.cfi_restore_state
	.loc 1 154 22 discriminator 1
	call	mfg_flash_read
.LVL43:
	.loc 1 154 19 discriminator 1
	beq	a0,zero,.L39
	j	.L38
.L37:
	.loc 1 158 9 is_stmt 1
	.loc 1 158 19 is_stmt 0
	lw	s2,20(s1)
	.loc 1 158 28
	li	a1,16
	addi	a0,s1,4
	call	BFLB_Soft_CRC32
.LVL44:
	.loc 1 158 11
	bne	s2,a0,.L38
	.loc 1 159 13 is_stmt 1
	.loc 1 159 15 is_stmt 0
	lbu	a4,6(s1)
	li	a5,90
	bne	a4,a5,.L38
	.loc 1 160 17 is_stmt 1
	li	a2,14
	li	a1,0
	mv	a0,s0
	call	memset
.LVL45:
	.loc 1 161 17
	.loc 1 162 52 is_stmt 0
	lb	a7,8(s1)
	.loc 1 161 52
	lb	a3,7(s1)
.LVL46:
	.loc 1 162 17 is_stmt 1
	.loc 1 163 17
	.loc 1 167 55 is_stmt 0
	li	a0,100
	.loc 1 167 21
	li	t3,6
	.loc 1 167 38
	sub	a4,a7,a3
	.loc 1 167 55
	mul	a4,a4,a0
	.loc 1 169 41
	li	t1,50
	.loc 1 163 52
	lb	a6,9(s1)
.LVL47:
	.loc 1 165 17 is_stmt 1
	.loc 1 165 29 is_stmt 0
	sb	a3,0(s0)
	.loc 1 167 17 is_stmt 1
	.loc 1 168 56 is_stmt 0
	andi	a3,a3,0xff
.LVL48:
	.loc 1 170 35
	li	a1,3
	.loc 1 174 29
	sb	a7,6(s0)
	.loc 1 183 30
	sb	a6,12(s0)
	.loc 1 167 21
	div	a4,a4,t3
.LVL49:
	.loc 1 168 17 is_stmt 1
	.loc 1 169 37 is_stmt 0
	addi	a2,a4,25
	.loc 1 169 41
	div	a2,a2,t1
	.loc 1 168 35
	addi	a5,a4,50
	.loc 1 169 45
	add	a2,a3,a2
	.loc 1 169 29
	sb	a2,2(s0)
	.loc 1 170 35
	mul	a2,a4,a1
	.loc 1 170 37
	addi	a2,a2,50
	.loc 1 170 41
	div	a2,a2,a0
	.loc 1 170 45
	add	a2,a3,a2
	.loc 1 170 29
	sb	a2,3(s0)
	.loc 1 171 35
	slli	a2,a4,2
	.loc 1 171 37
	addi	a2,a2,50
	.loc 1 171 41
	div	a2,a2,a0
	.loc 1 168 39
	div	a5,a5,a0
	.loc 1 171 45
	add	a2,a3,a2
	.loc 1 171 29
	sb	a2,4(s0)
	.loc 1 172 35
	li	a2,5
	.loc 1 168 43
	add	a5,a3,a5
	.loc 1 172 35
	mul	a4,a4,a2
.LVL50:
	.loc 1 168 29
	sb	a5,1(s0)
	.loc 1 169 17 is_stmt 1
	.loc 1 170 17
	.loc 1 171 17
	.loc 1 172 17
	.loc 1 176 38 is_stmt 0
	sub	a5,a6,a7
	.loc 1 176 55
	mul	a5,a5,a0
	.loc 1 172 37
	addi	a4,a4,50
	.loc 1 172 41
	div	a4,a4,a0
	.loc 1 176 21
	div	a5,a5,t3
	.loc 1 172 45
	add	a3,a3,a4
	.loc 1 172 29
	sb	a3,5(s0)
	.loc 1 174 17 is_stmt 1
	.loc 1 176 17
.LVL51:
	.loc 1 177 17
	.loc 1 177 56 is_stmt 0
	andi	a4,a7,0xff
	.loc 1 178 37
	addi	a3,a5,25
	.loc 1 178 41
	div	a3,a3,t1
	.loc 1 177 35
	addi	a7,a5,50
.LVL52:
	.loc 1 178 45
	add	a3,a4,a3
	.loc 1 178 29
	sb	a3,8(s0)
	.loc 1 180 36
	slli	a3,a5,2
	.loc 1 180 38
	addi	a3,a3,50
	.loc 1 180 42
	div	a3,a3,a0
	.loc 1 180 46
	add	a3,a4,a3
	.loc 1 180 30
	sb	a3,10(s0)
	.loc 1 185 36
	li	a3,7
	.loc 1 179 35
	mul	a1,a5,a1
	.loc 1 181 36
	mul	a2,a5,a2
	.loc 1 179 37
	addi	a1,a1,50
	.loc 1 185 36
	mul	a5,a5,a3
.LVL53:
	.loc 1 181 38
	addi	a2,a2,50
	.loc 1 185 38
	addi	a5,a5,50
	.loc 1 177 39
	div	a7,a7,a0
.LVL54:
	.loc 1 179 41
	div	a1,a1,a0
	.loc 1 177 43
	add	a7,a4,a7
	.loc 1 177 29
	sb	a7,7(s0)
	.loc 1 178 17 is_stmt 1
	.loc 1 179 17
	.loc 1 181 42 is_stmt 0
	div	a2,a2,a0
	.loc 1 179 45
	add	a1,a4,a1
	.loc 1 179 29
	sb	a1,9(s0)
	.loc 1 180 17 is_stmt 1
	.loc 1 181 17
	.loc 1 185 42 is_stmt 0
	div	a5,a5,a0
	.loc 1 181 46
	add	a2,a4,a2
	.loc 1 181 30
	sb	a2,11(s0)
	.loc 1 183 17 is_stmt 1
	.loc 1 185 17
	.loc 1 186 24 is_stmt 0
	li	a0,0
	.loc 1 185 46
	add	a5,a4,a5
	.loc 1 185 30
	sb	a5,13(s0)
	.loc 1 186 17 is_stmt 1
	.loc 1 186 24 is_stmt 0
	j	.L40
	.cfi_endproc
.LFE17:
	.size	mfg_flash_read_poweroffset, .-mfg_flash_read_poweroffset
	.section	.text.mfg_flash_write_macaddr_pre,"ax",@progbits
	.align	1
	.globl	mfg_flash_write_macaddr_pre
	.type	mfg_flash_write_macaddr_pre, @function
mfg_flash_write_macaddr_pre:
.LFB18:
	.loc 1 194 1 is_stmt 1
	.cfi_startproc
.LVL55:
	.loc 1 195 5
	.loc 1 194 1 is_stmt 0
	addi	sp,sp,-16
	.cfi_def_cfa_offset 16
	sw	s0,8(sp)
	.cfi_offset 8, -8
	.loc 1 195 18
	lui	s0,%hi(.LANCHOR1)
	addi	s0,s0,%lo(.LANCHOR1)
	li	a5,65
	.loc 1 194 1
	sw	s1,4(sp)
	.loc 1 195 18
	sw	a5,0(s0)
	.loc 1 196 5 is_stmt 1
	.loc 1 197 5 is_stmt 0
	li	a2,6
	.loc 1 196 22
	li	a5,90
	.cfi_offset 9, -12
	.loc 1 194 1
	mv	s1,a1
	.loc 1 197 5
	mv	a1,a0
.LVL56:
	addi	a0,s0,11
.LVL57:
	.loc 1 194 1
	sw	ra,12(sp)
	.cfi_offset 1, -4
	.loc 1 196 22
	sb	a5,10(s0)
	.loc 1 197 5 is_stmt 1
	call	memcpy
.LVL58:
	.loc 1 198 5
	.loc 1 198 19 is_stmt 0
	li	a1,16
	addi	a0,s0,4
	call	BFLB_Soft_CRC32
.LVL59:
	.loc 1 198 18
	sw	a0,20(s0)
	.loc 1 200 5 is_stmt 1
	.loc 1 200 7 is_stmt 0
	beq	s1,zero,.L46
	.loc 1 201 9 is_stmt 1
	.loc 1 205 1 is_stmt 0
	lw	s0,8(sp)
	.cfi_remember_state
	.cfi_restore 8
	lw	ra,12(sp)
	.cfi_restore 1
	lw	s1,4(sp)
	.cfi_restore 9
	addi	sp,sp,16
	.cfi_def_cfa_offset 0
	.loc 1 201 16
	tail	mfg_flash_program
.LVL60:
.L46:
	.cfi_restore_state
	.loc 1 205 1
	lw	ra,12(sp)
	.cfi_restore 1
	lw	s0,8(sp)
	.cfi_restore 8
	lw	s1,4(sp)
	.cfi_restore 9
	li	a0,0
	addi	sp,sp,16
	.cfi_def_cfa_offset 0
	jr	ra
	.cfi_endproc
.LFE18:
	.size	mfg_flash_write_macaddr_pre, .-mfg_flash_write_macaddr_pre
	.section	.text.mfg_flash_write_macaddr,"ax",@progbits
	.align	1
	.globl	mfg_flash_write_macaddr
	.type	mfg_flash_write_macaddr, @function
mfg_flash_write_macaddr:
.LFB24:
	.cfi_startproc
	tail	mfg_flash_program
	.cfi_endproc
.LFE24:
	.size	mfg_flash_write_macaddr, .-mfg_flash_write_macaddr
	.section	.text.mfg_flash_read_macaddr,"ax",@progbits
	.align	1
	.globl	mfg_flash_read_macaddr
	.type	mfg_flash_read_macaddr, @function
mfg_flash_read_macaddr:
.LFB20:
	.loc 1 213 1 is_stmt 1
	.cfi_startproc
.LVL61:
	.loc 1 214 5
	.loc 1 213 1 is_stmt 0
	addi	sp,sp,-16
	.cfi_def_cfa_offset 16
	sw	s1,4(sp)
	sw	ra,12(sp)
	sw	s0,8(sp)
	sw	s2,0(sp)
	.cfi_offset 9, -12
	.cfi_offset 1, -4
	.cfi_offset 8, -8
	.cfi_offset 18, -16
	.loc 1 213 1
	mv	s1,a0
	.loc 1 214 7
	bne	a1,zero,.L50
.LVL62:
.L53:
	.loc 1 218 5 is_stmt 1
	.loc 1 218 15 is_stmt 0
	lui	s0,%hi(.LANCHOR1)
	addi	s0,s0,%lo(.LANCHOR1)
	.loc 1 218 7
	lw	a4,0(s0)
	li	a5,65
	beq	a4,a5,.L51
.L52:
	.loc 1 216 16
	li	a0,-1
.L54:
	.loc 1 227 1
	lw	ra,12(sp)
	.cfi_remember_state
	.cfi_restore 1
	lw	s0,8(sp)
	.cfi_restore 8
	lw	s1,4(sp)
	.cfi_restore 9
.LVL63:
	lw	s2,0(sp)
	.cfi_restore 18
	addi	sp,sp,16
	.cfi_def_cfa_offset 0
	jr	ra
.LVL64:
.L50:
	.cfi_restore_state
	.loc 1 214 22 discriminator 1
	call	mfg_flash_read
.LVL65:
	.loc 1 214 19 discriminator 1
	beq	a0,zero,.L53
	j	.L52
.L51:
	.loc 1 219 9 is_stmt 1
	.loc 1 219 19 is_stmt 0
	lw	s2,20(s0)
	.loc 1 219 28
	li	a1,16
	addi	a0,s0,4
	call	BFLB_Soft_CRC32
.LVL66:
	.loc 1 219 11
	bne	s2,a0,.L52
	.loc 1 220 13 is_stmt 1
	.loc 1 220 15 is_stmt 0
	lbu	a4,10(s0)
	li	a5,90
	bne	a4,a5,.L52
	.loc 1 221 17 is_stmt 1
	li	a2,6
	addi	a1,s0,11
	mv	a0,s1
	call	memcpy
.LVL67:
	.loc 1 222 17
	.loc 1 222 24 is_stmt 0
	li	a0,0
	j	.L54
	.cfi_endproc
.LFE20:
	.size	mfg_flash_read_macaddr, .-mfg_flash_read_macaddr
	.globl	ptEntry
	.comm	ptTableStuff,1192,4
	.section	.bss.ptEntry,"aw",@nobits
	.align	2
	.set	.LANCHOR3,. + 0
	.type	ptEntry, @object
	.size	ptEntry, 36
ptEntry:
	.zero	36
	.section	.bss.rf_para,"aw",@nobits
	.align	2
	.set	.LANCHOR1,. + 0
	.type	rf_para, @object
	.size	rf_para, 24
rf_para:
	.zero	24
	.section	.sbss.pFlashCfg,"aw",@nobits
	.align	2
	.set	.LANCHOR0,. + 0
	.type	pFlashCfg, @object
	.size	pFlashCfg, 4
pFlashCfg:
	.zero	4
	.section	.sbss.rf_para_addr,"aw",@nobits
	.align	2
	.set	.LANCHOR2,. + 0
	.type	rf_para_addr, @object
	.size	rf_para_addr, 4
rf_para_addr:
	.zero	4
	.text
.Letext0:
	.file 2 "/mnt/d/GitHub/bl_iot_sdk_for_aithinker/toolchain/riscv/Linux/lib/gcc/riscv64-unknown-elf/10.2.0/include/stdint-gcc.h"
	.file 3 "/mnt/d/GitHub/bl_iot_sdk_for_aithinker/components/platform/soc/bl602/bl602_std/bl602_std/StdDriver/Inc/bl602_common.h"
	.file 4 "/mnt/d/GitHub/bl_iot_sdk_for_aithinker/components/platform/soc/bl602/bl602_std/bl602_std/StdDriver/Inc/bl602_sflash.h"
	.file 5 "/mnt/d/GitHub/bl_iot_sdk_for_aithinker/components/platform/soc/bl602/bl602_std/bl602_std/StdDriver/Inc/bl602_mfg_flash.h"
	.file 6 "/mnt/d/GitHub/bl_iot_sdk_for_aithinker/components/platform/soc/bl602/bl602_std/bl602_std/Common/partition/partition.h"
	.file 7 "/mnt/d/GitHub/bl_iot_sdk_for_aithinker/components/platform/soc/bl602/bl602_std/bl602_std/Common/soft_crc/softcrc.h"
	.file 8 "/mnt/d/GitHub/bl_iot_sdk_for_aithinker/toolchain/riscv/Linux/riscv64-unknown-elf/include/string.h"
	.file 9 "/mnt/d/GitHub/bl_iot_sdk_for_aithinker/components/platform/soc/bl602/bl602_std/bl602_std/StdDriver/Inc/bl602_xip_sflash_ext.h"