	.file	"bl602_common.c"
	.option nopic
	.attribute arch, "rv32i2p0_m2p0_f2p0_c2p0"
	.attribute unaligned_access, 0
	.attribute stack_align, 16
	.text
.Ltext0:
	.cfi_sections	.debug_frame
	.section	.tcm_code./mnt/d/GitHub/bl_iot_sdk_for_aithinker/components/platform/soc/bl602/bl602_std/bl602_std/StdDriver/Src/bl602_common.c226,"ax",@progbits
	.align	1
	.weak	ASM_Delay_Us
	.type	ASM_Delay_Us, @function
ASM_Delay_Us:
.LFB12:
	.file 1 "/mnt/d/GitHub/bl_iot_sdk_for_aithinker/components/platform/soc/bl602/bl602_std/bl602_std/StdDriver/Src/bl602_common.c"
	.loc 1 227 1
	.cfi_startproc
.LVL0:
	.loc 1 228 5
	.loc 1 229 5
	.loc 1 227 1 is_stmt 0
	addi	sp,sp,-32
	.cfi_def_cfa_offset 32
	.loc 1 229 14
	li	a5,40
	sw	a5,28(sp)
	.loc 1 231 5 is_stmt 1
.LVL1:
	.loc 1 237 5
	.loc 1 237 32 is_stmt 0
	lui	a5,%hi(ASM_Delay_Us)
	addi	a5,a5,%lo(ASM_Delay_Us)
	srli	a5,a5,24
	.loc 1 227 1
	sw	a0,12(sp)
	sw	a1,8(sp)
	.loc 1 237 32
	andi	a5,a5,15
	.loc 1 237 7
	li	a4,1
	bne	a5,a4,.L2
	.loc 1 239 9 is_stmt 1
	.loc 1 239 17 is_stmt 0
	li	a5,1073778688
	lw	a5,0(a5)
	.loc 1 239 12
	li	a4,4096
	and	a5,a5,a4
	.loc 1 239 11
	beq	a5,zero,.L2
	.loc 1 241 13 is_stmt 1
	.loc 1 241 20 is_stmt 0
	li	a5,80
	sw	a5,28(sp)
.L2:
	.loc 1 245 5 is_stmt 1
 #APP
# 245 "/mnt/d/GitHub/bl_iot_sdk_for_aithinker/components/platform/soc/bl602/bl602_std/bl602_std/StdDriver/Src/bl602_common.c" 1
	.align 4
	lw       a4,12(sp)
	lui   a5,0x18
	addi  a5,a5,1696
	divu  a5,a4,a5
	sw       a5,12(sp)
	lw       a4,12(sp)
	lw       a5,8(sp)
	mul   a5,a4,a5
	sw       a5,12(sp)
	lw       a4,12(sp)
	lw       a5,28(sp)
	divu  a5,a4,a5
	sw    a5,12(sp)
	lw    a5,12(sp)
	li    a4,0x1
	beq   a5,zero,end
	beq   a5,a4,end
	nop
	nop
	.align 4
	loop  :
addi  a4,a5,-1
	mv    a5,a4
	bnez  a5,loop
	nop
	end   :
	nop

# 0 "" 2
	.loc 1 278 1 is_stmt 0
 #NO_APP
	addi	sp,sp,32
	.cfi_def_cfa_offset 0
	jr	ra
	.cfi_endproc
.LFE12:
	.size	ASM_Delay_Us, .-ASM_Delay_Us
	.section	.rodata.Trap_Handler.str1.4,"aMS",@progbits,1
	.align	2
.LC0:
	.string	"Trap_Handler\r\n"
	.align	2
.LC1:
	.string	"mcause=%08x\r\n"
	.align	2
.LC2:
	.string	"mepc:%08x\r\n"
	.align	2
.LC3:
	.string	"mtval:%08x\r\n"
	.align	2
.LC4:
	.string	"Instruction access fault\r\n"
	.align	2
.LC5:
	.string	"Illegal instruction\r\n"
	.align	2
.LC6:
	.string	"Breakpoint\r\n"
	.align	2
.LC7:
	.string	"Load address misaligned\r\n"
	.align	2
.LC8:
	.string	"Load access fault\r\n"
	.align	2
.LC9:
	.string	"Store/AMO address misaligned\r\n"
	.align	2
.LC10:
	.string	"Store/AMO access fault\r\n"
	.align	2
.LC11:
	.string	"Environment call from U-mode\r\n"
	.align	2
.LC12:
	.string	"Environment call from M-mode\r\n"
	.align	2
.LC13:
	.string	"Cause num=%d\r\n"
	.section	.text.Trap_Handler,"ax",@progbits
	.align	1
	.globl	Trap_Handler
	.type	Trap_Handler, @function
Trap_Handler:
.LFB8:
	.loc 1 57 24 is_stmt 1
	.cfi_startproc
	.loc 1 58 5
	.loc 1 59 5
	.loc 1 60 5
	.loc 1 62 5
	lui	a0,%hi(.LC0)
	.loc 1 57 24 is_stmt 0
	addi	sp,sp,-16
	.cfi_def_cfa_offset 16
	.loc 1 62 5
	addi	a0,a0,%lo(.LC0)
	.loc 1 57 24
	sw	ra,12(sp)
	sw	s0,8(sp)
	sw	s1,4(sp)
	.cfi_offset 1, -4
	.cfi_offset 8, -8
	.cfi_offset 9, -12
	.loc 1 62 5
	call	bflb_platform_printf
.LVL2:
	.loc 1 64 5 is_stmt 1
.LBB2:
	.loc 1 64 16
	.loc 1 64 37
 #APP
# 64 "/mnt/d/GitHub/bl_iot_sdk_for_aithinker/components/platform/soc/bl602/bl602_std/bl602_std/StdDriver/Src/bl602_common.c" 1
	csrr s1, mcause
# 0 "" 2
.LVL3:
	.loc 1 64 90
 #NO_APP
.LBE2:
	.loc 1 65 5
	lui	a0,%hi(.LC1)
	mv	a1,s1
	addi	a0,a0,%lo(.LC1)
	call	bflb_platform_printf
.LVL4:
	.loc 1 66 5
.LBB3:
	.loc 1 66 12
	.loc 1 66 33
 #APP
# 66 "/mnt/d/GitHub/bl_iot_sdk_for_aithinker/components/platform/soc/bl602/bl602_std/bl602_std/StdDriver/Src/bl602_common.c" 1
	csrr s0, mepc
# 0 "" 2
.LVL5:
	.loc 1 66 84
 #NO_APP
.LBE3:
	.loc 1 67 5
	lui	a0,%hi(.LC2)
	mv	a1,s0
	addi	a0,a0,%lo(.LC2)
	call	bflb_platform_printf
.LVL6:
	.loc 1 68 5
.LBB4:
	.loc 1 68 13
	.loc 1 68 34
 #APP
# 68 "/mnt/d/GitHub/bl_iot_sdk_for_aithinker/components/platform/soc/bl602/bl602_std/bl602_std/StdDriver/Src/bl602_common.c" 1
	csrr a1, mtval
# 0 "" 2
.LVL7:
	.loc 1 68 86
 #NO_APP
.LBE4:
	.loc 1 69 5
	lui	a0,%hi(.LC3)
	addi	a0,a0,%lo(.LC3)
	call	bflb_platform_printf
.LVL8:
	.loc 1 71 5
	.loc 1 71 10 is_stmt 0
	andi	a1,s1,1023
.LVL9:
	.loc 1 72 5 is_stmt 1
	addi	a5,a1,-1
	li	a4,8
	bgtu	a5,a4,.L8
	lui	a4,%hi(.L10)
	slli	a5,a5,2
	addi	a4,a4,%lo(.L10)
	add	a5,a5,a4
	lw	a5,0(a5)
	jr	a5
	.section	.rodata.Trap_Handler,"a",@progbits
	.align	2
	.align	2
.L10:
	.word	.L18
	.word	.L17
	.word	.L16
	.word	.L15
	.word	.L14
	.word	.L13
	.word	.L12
	.word	.L11
	.word	.L9
	.section	.text.Trap_Handler
.L18:
	.loc 1 74 13
	lui	a0,%hi(.LC4)
	addi	a0,a0,%lo(.LC4)
	call	bflb_platform_printf
.LVL10:
	.loc 1 75 13
.L19:
.L20:
	.loc 1 110 5 discriminator 1
	.loc 1 110 13 discriminator 1
	.loc 1 110 10 discriminator 1
	j	.L20
.LVL11:
.L17:
	.loc 1 77 13
	lui	a0,%hi(.LC5)
	addi	a0,a0,%lo(.LC5)
	call	bflb_platform_printf
.LVL12:
	.loc 1 78 13
	j	.L19
.LVL13:
.L16:
	.loc 1 80 13
	lui	a0,%hi(.LC6)
	addi	a0,a0,%lo(.LC6)
	call	bflb_platform_printf
.LVL14:
	.loc 1 81 13
	j	.L19
.LVL15:
.L15:
	.loc 1 83 13
	lui	a0,%hi(.LC7)
	addi	a0,a0,%lo(.LC7)
	call	bflb_platform_printf
.LVL16:
	.loc 1 84 13
	j	.L19
.LVL17:
.L14:
	.loc 1 86 13
	lui	a0,%hi(.LC8)
	addi	a0,a0,%lo(.LC8)
	call	bflb_platform_printf
.LVL18:
	.loc 1 87 13
	j	.L19
.LVL19:
.L13:
	.loc 1 89 13
	lui	a0,%hi(.LC9)
	addi	a0,a0,%lo(.LC9)
	call	bflb_platform_printf
.LVL20:
	.loc 1 90 13
	j	.L19
.LVL21:
.L12:
	.loc 1 92 13
	lui	a0,%hi(.LC10)
	addi	a0,a0,%lo(.LC10)
	call	bflb_platform_printf
.LVL22:
	.loc 1 93 13
	j	.L19
.LVL23:
.L11:
	.loc 1 95 13
	lui	a0,%hi(.LC11)
	addi	a0,a0,%lo(.LC11)
	call	bflb_platform_printf
.LVL24:
	.loc 1 96 13
	.loc 1 97 13
	.loc 1 97 133
	.loc 1 96 16 is_stmt 0
	addi	s0,s0,4
.LVL25:
	.loc 1 97 133
 #APP
# 97 "/mnt/d/GitHub/bl_iot_sdk_for_aithinker/components/platform/soc/bl602/bl602_std/bl602_std/StdDriver/Src/bl602_common.c" 1
	csrw mepc, s0
# 0 "" 2
 #NO_APP
	j	.L19
.LVL26:
.L9:
	.loc 1 100 13 is_stmt 1
	lui	a0,%hi(.LC12)
	addi	a0,a0,%lo(.LC12)
	call	bflb_platform_printf
.LVL27:
	.loc 1 101 13
	.loc 1 102 13
	.loc 1 102 133
	.loc 1 101 16 is_stmt 0
	addi	s0,s0,4
.LVL28:
	.loc 1 102 133
 #APP
# 102 "/mnt/d/GitHub/bl_iot_sdk_for_aithinker/components/platform/soc/bl602/bl602_std/bl602_std/StdDriver/Src/bl602_common.c" 1
	csrw mepc, s0
# 0 "" 2
 #NO_APP
	j	.L19
.LVL29:
.L8:
	.loc 1 105 13 is_stmt 1
	lui	a0,%hi(.LC13)
	addi	a0,a0,%lo(.LC13)
	call	bflb_platform_printf
.LVL30:
	.loc 1 106 13
	.loc 1 107 13
	.loc 1 107 133
	.loc 1 106 16 is_stmt 0
	addi	s0,s0,4
.LVL31:
	.loc 1 107 133
 #APP
# 107 "/mnt/d/GitHub/bl_iot_sdk_for_aithinker/components/platform/soc/bl602/bl602_std/bl602_std/StdDriver/Src/bl602_common.c" 1
	csrw mepc, s0
# 0 "" 2
 #NO_APP
	j	.L19
	.cfi_endproc
.LFE8:
	.size	Trap_Handler, .-Trap_Handler
	.section	.text.Interrupt_Handler_Register,"ax",@progbits
	.align	1
	.globl	Interrupt_Handler_Register
	.type	Interrupt_Handler_Register, @function
Interrupt_Handler_Register:
.LFB9:
	.loc 1 114 1 is_stmt 1
	.cfi_startproc
.LVL32:
	.loc 1 115 5
	.loc 1 115 7 is_stmt 0
	li	a5,79
	bgtu	a0,a5,.L22
	.loc 1 116 9 is_stmt 1
	.loc 1 116 34 is_stmt 0
	lui	a5,%hi(.LANCHOR0)
	slli	a0,a0,2
.LVL33:
	addi	a5,a5,%lo(.LANCHOR0)
	add	a0,a5,a0
	sw	a1,0(a0)
.L22:
	.loc 1 118 1
	ret
	.cfi_endproc
.LFE9:
	.size	Interrupt_Handler_Register, .-Interrupt_Handler_Register
	.section	.rodata.Interrupt_Handler.str1.4,"aMS",@progbits,1
	.align	2
.LC14:
	.string	"Exception should not be here\r\n"
	.align	2
.LC15:
	.string	"Interrupt num:%d IRQHandler not installed\r\n"
	.align	2
.LC16:
	.string	"Peripheral Interrupt num:%d \r\n"
	.align	2
.LC17:
	.string	"Unexpected interrupt num:%d\r\n"
	.section	.text.Interrupt_Handler,"ax",@progbits
	.align	1
	.globl	Interrupt_Handler
	.type	Interrupt_Handler, @function
Interrupt_Handler:
.LFB10:
	.loc 1 121 1 is_stmt 1
	.cfi_startproc
	.loc 1 122 5
	.loc 1 123 5
.LVL34:
	.loc 1 124 5
	.loc 1 121 1 is_stmt 0
	addi	sp,sp,-48
	.cfi_def_cfa_offset 48
	.loc 1 124 23
	sw	zero,24(sp)
	.loc 1 121 1
	sw	ra,44(sp)
	sw	s0,40(sp)
	.cfi_offset 1, -4
	.cfi_offset 8, -8
	.loc 1 124 37
	sw	zero,28(sp)
	.loc 1 128 5 is_stmt 1
 #APP
# 128 "/mnt/d/GitHub/bl_iot_sdk_for_aithinker/components/platform/soc/bl602/bl602_std/bl602_std/StdDriver/Src/bl602_common.c" 1
	csrr a5, mepc
# 0 "" 2
 #NO_APP
	sw	a5,24(sp)
	.loc 1 129 5
 #APP
# 129 "/mnt/d/GitHub/bl_iot_sdk_for_aithinker/components/platform/soc/bl602/bl602_std/bl602_std/StdDriver/Src/bl602_common.c" 1
	csrr a5, mcause
# 0 "" 2
 #NO_APP
	sw	a5,28(sp)
	.loc 1 131 5
	.loc 1 131 29 is_stmt 0
	lw	a5,28(sp)
	.loc 1 131 7
	blt	a5,zero,.L25
	.loc 1 133 9 is_stmt 1
	.loc 1 151 1 is_stmt 0
	lw	s0,40(sp)
	.cfi_remember_state
	.cfi_restore 8
	lw	ra,44(sp)
	.cfi_restore 1
	.loc 1 133 9
	lui	a0,%hi(.LC14)
	.loc 1 151 1
	.loc 1 133 9
	addi	a0,a0,%lo(.LC14)
	.loc 1 151 1
	addi	sp,sp,48
	.cfi_def_cfa_offset 0
	.loc 1 133 9
	tail	bflb_platform_printf
.LVL35:
.L25:
	.cfi_restore_state
	.loc 1 135 9 is_stmt 1
	.loc 1 135 21 is_stmt 0
	lw	s0,28(sp)
	.loc 1 136 11
	li	a5,79
	.loc 1 135 12
	andi	a1,s0,1023
.LVL36:
	.loc 1 136 9 is_stmt 1
	.loc 1 136 11 is_stmt 0
	bgtu	a1,a5,.L26
	.loc 1 137 13 is_stmt 1
	.loc 1 137 25 is_stmt 0
	lui	a4,%hi(.LANCHOR0)
	slli	a5,a1,2
	addi	a4,a4,%lo(.LANCHOR0)
	add	a5,a4,a5
	lw	a5,0(a5)
.LVL37:
	.loc 1 138 13 is_stmt 1
	.loc 1 138 15 is_stmt 0
	beq	a5,zero,.L27
	.loc 1 139 17 is_stmt 1
	.loc 1 151 1 is_stmt 0
	lw	s0,40(sp)
	.cfi_remember_state
	.cfi_restore 8
	lw	ra,44(sp)
	.cfi_restore 1
	addi	sp,sp,48
	.cfi_def_cfa_offset 0
	.loc 1 139 17
	jr	a5
.LVL38:
.L27:
	.cfi_restore_state
	.loc 1 141 17 is_stmt 1
	lui	a0,%hi(.LC15)
	addi	a0,a0,%lo(.LC15)
	sw	a1,12(sp)
	.loc 1 142 19 is_stmt 0
	andi	s0,s0,1008
	.loc 1 141 17
	call	bflb_platform_printf
.LVL39:
	.loc 1 142 17 is_stmt 1
	.loc 1 142 19 is_stmt 0
	lw	a1,12(sp)
	beq	s0,zero,.L28
	.loc 1 143 21 is_stmt 1
	lui	a0,%hi(.LC16)
	addi	a1,a1,-16
	addi	a0,a0,%lo(.LC16)
	call	bflb_platform_printf
.LVL40:
.L28:
.L31:
	.loc 1 145 17 discriminator 1
	.loc 1 145 25 discriminator 1
	.loc 1 145 22 discriminator 1
	j	.L31
.LVL41:
.L26:
	.loc 1 148 13
	.loc 1 151 1 is_stmt 0
	lw	s0,40(sp)
	.cfi_restore 8
	lw	ra,44(sp)
	.cfi_restore 1
	.loc 1 148 13
	lui	a0,%hi(.LC17)
	.loc 1 151 1
	.loc 1 148 13
	addi	a0,a0,%lo(.LC17)
	.loc 1 151 1
	addi	sp,sp,48
	.cfi_def_cfa_offset 0
	.loc 1 148 13
	tail	bflb_platform_printf
.LVL42:
	.cfi_endproc
.LFE10:
	.size	Interrupt_Handler, .-Interrupt_Handler
	.section	.text.FreeRTOS_Interrupt_Handler,"ax",@progbits
	.align	1
	.globl	FreeRTOS_Interrupt_Handler
	.type	FreeRTOS_Interrupt_Handler, @function
FreeRTOS_Interrupt_Handler:
.LFB11:
	.loc 1 154 1 is_stmt 1
	.cfi_startproc
	.loc 1 155 5
	tail	Interrupt_Handler
.LVL43:
	.cfi_endproc
.LFE11:
	.size	FreeRTOS_Interrupt_Handler, .-FreeRTOS_Interrupt_Handler
	.section	.tcm_code./mnt/d/GitHub/bl_iot_sdk_for_aithinker/components/platform/soc/bl602/bl602_std/bl602_std/StdDriver/Src/bl602_common.c292,"ax",@progbits
	.align	1
	.weak	BL602_Delay_US
	.type	BL602_Delay_US, @function
BL602_Delay_US:
.LFB13:
	.loc 1 293 1
	.cfi_startproc
.LVL44:
	.loc 1 294 5
	li	a5,1073803264
	.loc 1 293 1 is_stmt 0
	mv	a1,a0
	.loc 1 294 5
	lw	a0,264(a5)
.LVL45:
	tail	ASM_Delay_Us
.LVL46:
	.cfi_endproc
.LFE13:
	.size	BL602_Delay_US, .-BL602_Delay_US
	.globl	bl602_delay_us
	.set	bl602_delay_us,BL602_Delay_US
	.section	.tcm_code./mnt/d/GitHub/bl_iot_sdk_for_aithinker/components/platform/soc/bl602/bl602_std/bl602_std/StdDriver/Src/bl602_common.c307,"ax",@progbits
	.align	1
	.weak	BL602_Delay_MS
	.type	BL602_Delay_MS, @function
BL602_Delay_MS:
.LFB14:
	.loc 1 308 1 is_stmt 1
	.cfi_startproc
.LVL47:
	.loc 1 309 5
	.loc 1 310 5
	.loc 1 312 5
	.loc 1 308 1 is_stmt 0
	addi	sp,sp,-16
	.cfi_def_cfa_offset 16
	sw	s0,8(sp)
	sw	ra,12(sp)
	sw	s1,4(sp)
	sw	s2,0(sp)
	.cfi_offset 8, -8
	.cfi_offset 1, -4
	.cfi_offset 9, -12
	.cfi_offset 18, -16
	.loc 1 312 7
	li	a5,1023
	.loc 1 308 1
	mv	s0,a0
	.loc 1 312 7
	bleu	a0,a5,.L36
	.loc 1 315 23
	srli	s2,a0,10
	.loc 1 315 14
	li	s1,0
.LVL48:
.L37:
	.loc 1 316 13 is_stmt 1 discriminator 3
	li	a0,1024000
	.loc 1 315 31 is_stmt 0 discriminator 3
	addi	s1,s1,1
.LVL49:
	.loc 1 316 13 discriminator 3
	call	BL602_Delay_US
.LVL50:
	.loc 1 315 30 is_stmt 1 discriminator 3
	.loc 1 315 17 discriminator 3
	.loc 1 315 9 is_stmt 0 discriminator 3
	bne	s2,s1,.L37
.LVL51:
.L36:
	.loc 1 319 5 is_stmt 1
	.loc 1 319 11 is_stmt 0
	andi	s0,s0,1023
.LVL52:
	.loc 1 319 7
	beq	s0,zero,.L35
	.loc 1 321 9 is_stmt 1
.LVL53:
	.loc 1 322 9
	li	a0,1000
	mul	a0,s0,a0
	.loc 1 325 1 is_stmt 0
	lw	s0,8(sp)
	.cfi_remember_state
	.cfi_restore 8
.LVL54:
	lw	ra,12(sp)
	.cfi_restore 1
	lw	s1,4(sp)
	.cfi_restore 9
	lw	s2,0(sp)
	.cfi_restore 18
	addi	sp,sp,16
	.cfi_def_cfa_offset 0
	.loc 1 322 9
	tail	BL602_Delay_US
.LVL55:
.L35:
	.cfi_restore_state
	.loc 1 325 1
	lw	ra,12(sp)
	.cfi_restore 1
	lw	s0,8(sp)
	.cfi_restore 8
	lw	s1,4(sp)
	.cfi_restore 9
	lw	s2,0(sp)
	.cfi_restore 18
	addi	sp,sp,16
	.cfi_def_cfa_offset 0
	jr	ra
	.cfi_endproc
.LFE14:
	.size	BL602_Delay_MS, .-BL602_Delay_MS
	.globl	bl602_delay_ms
	.set	bl602_delay_ms,BL602_Delay_MS
	.section	.tcm_code./mnt/d/GitHub/bl_iot_sdk_for_aithinker/components/platform/soc/bl602/bl602_std/bl602_std/StdDriver/Src/bl602_common.c338,"ax",@progbits
	.align	1
	.weak	BL602_MemCpy
	.type	BL602_MemCpy, @function
BL602_MemCpy:
.LFB15:
	.loc 1 339 1 is_stmt 1
	.cfi_startproc
.LVL56:
	.loc 1 340 5
	.loc 1 341 5
	.loc 1 343 5
	.loc 1 343 11 is_stmt 0
	li	a5,0
.LVL57:
.L42:
	.loc 1 343 11 is_stmt 1
	bne	a2,a5,.L43
	.loc 1 346 5
	.loc 1 347 1 is_stmt 0
	ret
.L43:
	.loc 1 344 9 is_stmt 1
.LVL58:
	.loc 1 344 16 is_stmt 0
	add	a4,a1,a5
	lbu	a3,0(a4)
	.loc 1 344 14
	add	a4,a0,a5
	addi	a5,a5,1
.LVL59:
	sb	a3,0(a4)
	j	.L42
	.cfi_endproc
.LFE15:
	.size	BL602_MemCpy, .-BL602_MemCpy
	.section	.tcm_code./mnt/d/GitHub/bl_iot_sdk_for_aithinker/components/platform/soc/bl602/bl602_std/bl602_std/StdDriver/Src/bl602_common.c360,"ax",@progbits
	.align	1
	.weak	BL602_MemCpy4
	.type	BL602_MemCpy4, @function
BL602_MemCpy4:
.LFB16:
	.loc 1 361 1 is_stmt 1
	.cfi_startproc
.LVL60:
	.loc 1 362 5
	.loc 1 363 5
	.loc 1 365 5
	.loc 1 363 15 is_stmt 0
	mv	a5,a0
	.loc 1 365 11
	li	a4,-1
.LVL61:
.L45:
	.loc 1 365 11 is_stmt 1
	.loc 1 365 13 is_stmt 0
	addi	a2,a2,-1
.LVL62:
	.loc 1 365 11
	bne	a2,a4,.L46
	.loc 1 368 5 is_stmt 1
	.loc 1 369 1 is_stmt 0
	ret
.L46:
	.loc 1 366 9 is_stmt 1
	.loc 1 366 16 is_stmt 0
	lw	a3,0(a1)
	.loc 1 366 18
	addi	a1,a1,4
.LVL63:
	.loc 1 366 11
	addi	a5,a5,4
.LVL64:
	.loc 1 366 14
	sw	a3,-4(a5)
	j	.L45
	.cfi_endproc
.LFE16:
	.size	BL602_MemCpy4, .-BL602_MemCpy4
	.section	.tcm_code./mnt/d/GitHub/bl_iot_sdk_for_aithinker/components/platform/soc/bl602/bl602_std/bl602_std/StdDriver/Src/bl602_common.c382,"ax",@progbits
	.align	1
	.weak	BL602_MemCpy_Fast
	.type	BL602_MemCpy_Fast, @function
BL602_MemCpy_Fast:
.LFB17:
	.loc 1 383 1 is_stmt 1
	.cfi_startproc
.LVL65:
	addi	sp,sp,-16
	.cfi_def_cfa_offset 16
	.loc 1 388 30 is_stmt 0
	or	a5,a0,a1
	.loc 1 383 1
	sw	s0,8(sp)
	sw	ra,12(sp)
	sw	s1,4(sp)
	sw	s2,0(sp)
	.cfi_offset 8, -8
	.cfi_offset 1, -4
	.cfi_offset 9, -12
	.cfi_offset 18, -16
	.loc 1 388 30
	andi	a5,a5,3
	.loc 1 383 1
	mv	s0,a0
	.loc 1 384 5 is_stmt 1
.LVL66:
	.loc 1 385 5
	.loc 1 386 5
	.loc 1 388 5
	.loc 1 388 30 is_stmt 0
	bne	a5,zero,.L48
	mv	s1,a2
	.loc 1 389 9 is_stmt 1
	srli	a2,a2,2
.LVL67:
	mv	s2,a1
	call	BL602_MemCpy4
.LVL68:
	.loc 1 390 9
	.loc 1 391 9
	andi	a5,s1,-4
.LVL69:
	.loc 1 392 9
.L49:
	.loc 1 392 14
	bne	a5,s1,.L50
.LVL70:
.L51:
	.loc 1 399 5
	.loc 1 400 1 is_stmt 0
	lw	ra,12(sp)
	.cfi_remember_state
	.cfi_restore 1
	mv	a0,s0
	lw	s0,8(sp)
	.cfi_restore 8
.LVL71:
	lw	s1,4(sp)
	.cfi_restore 9
	lw	s2,0(sp)
	.cfi_restore 18
	addi	sp,sp,16
	.cfi_def_cfa_offset 0
	jr	ra
.LVL72:
.L50:
	.cfi_restore_state
	.loc 1 393 13 is_stmt 1
	.loc 1 393 28 is_stmt 0
	add	a4,s2,a5
	lbu	a3,0(a4)
	.loc 1 393 24
	add	a4,s0,a5
	addi	a5,a5,1
	sb	a3,0(a4)
	.loc 1 394 13 is_stmt 1
.LVL73:
	j	.L49
.LVL74:
.L48:
	.loc 1 397 9
	call	BL602_MemCpy
.LVL75:
	j	.L51
	.cfi_endproc
.LFE17:
	.size	BL602_MemCpy_Fast, .-BL602_MemCpy_Fast
	.section	.tcm_code./mnt/d/GitHub/bl_iot_sdk_for_aithinker/components/platform/soc/bl602/bl602_std/bl602_std/StdDriver/Src/bl602_common.c413,"ax",@progbits
	.align	1
	.weak	BL602_MemSet
	.type	BL602_MemSet, @function
BL602_MemSet:
.LFB18:
	.loc 1 414 1
	.cfi_startproc
.LVL76:
	.loc 1 415 5
	.loc 1 417 5
	add	a2,a0,a2
.LVL77:
	.loc 1 415 14 is_stmt 0
	mv	a5,a0
.LVL78:
.L54:
	.loc 1 417 11 is_stmt 1
	bne	a5,a2,.L55
	.loc 1 421 5
	.loc 1 422 1 is_stmt 0
	ret
.L55:
	.loc 1 418 9 is_stmt 1
	.loc 1 418 11 is_stmt 0
	addi	a5,a5,1
.LVL79:
	.loc 1 418 14
	sb	a1,-1(a5)
	.loc 1 419 9 is_stmt 1
.LVL80:
	j	.L54
	.cfi_endproc
.LFE18:
	.size	BL602_MemSet, .-BL602_MemSet
	.section	.tcm_code./mnt/d/GitHub/bl_iot_sdk_for_aithinker/components/platform/soc/bl602/bl602_std/bl602_std/StdDriver/Src/bl602_common.c434,"ax",@progbits
	.align	1
	.weak	BL602_MemSet4
	.type	BL602_MemSet4, @function
BL602_MemSet4:
.LFB19:
	.loc 1 435 1
	.cfi_startproc
.LVL81:
	.loc 1 436 5
	.loc 1 438 5
	.loc 1 436 15 is_stmt 0
	mv	a5,a0
	.loc 1 438 11
	li	a4,-1
.LVL82:
.L57:
	.loc 1 438 11 is_stmt 1
	.loc 1 438 13 is_stmt 0
	addi	a2,a2,-1
.LVL83:
	.loc 1 438 11
	bne	a2,a4,.L58
	.loc 1 441 5 is_stmt 1
	.loc 1 442 1 is_stmt 0
	ret
.L58:
	.loc 1 439 9 is_stmt 1
	.loc 1 439 11 is_stmt 0
	addi	a5,a5,4
.LVL84:
	.loc 1 439 14
	sw	a1,-4(a5)
	j	.L57
	.cfi_endproc
.LFE19:
	.size	BL602_MemSet4, .-BL602_MemSet4
	.section	.tcm_code./mnt/d/GitHub/bl_iot_sdk_for_aithinker/components/platform/soc/bl602/bl602_std/bl602_std/StdDriver/Src/bl602_common.c455,"ax",@progbits
	.align	1
	.weak	BL602_MemCmp
	.type	BL602_MemCmp, @function
BL602_MemCmp:
.LFB20:
	.loc 1 456 1 is_stmt 1
	.cfi_startproc
.LVL85:
	.loc 1 457 5
	.loc 1 456 1 is_stmt 0
	mv	a4,a0
.LVL86:
	.loc 1 458 5 is_stmt 1
	.loc 1 460 5
	.loc 1 460 11 is_stmt 0
	li	a5,0
.LVL87:
.L60:
	.loc 1 460 11 is_stmt 1
	bne	a5,a2,.L62
	li	a0,0
	.loc 1 466 5
	.loc 1 466 12 is_stmt 0
	j	.L59
.L62:
	.loc 1 461 9 is_stmt 1
.LVL88:
	.loc 1 461 18 is_stmt 0
	add	a3,a4,a5
	.loc 1 461 13
	lbu	a6,0(a3)
	.loc 1 461 31
	add	a3,a1,a5
	.loc 1 461 26
	lbu	a3,0(a3)
	.loc 1 462 12
	addi	a5,a5,1
.LVL89:
	.loc 1 461 11
	sub	a0,a6,a3
.LVL90:
	.loc 1 462 9 is_stmt 1
	.loc 1 462 12 is_stmt 0
	beq	a6,a3,.L60
.LVL91:
.L59:
	.loc 1 467 1
	ret
	.cfi_endproc
.LFE20:
	.size	BL602_MemCmp, .-BL602_MemCmp
	.globl	__Interrupt_Handlers
	.section	.bss.__Interrupt_Handlers,"aw",@nobits
	.align	2
	.set	.LANCHOR0,. + 0
	.type	__Interrupt_Handlers, @object
	.size	__Interrupt_Handlers, 320
__Interrupt_Handlers:
	.zero	320
	.text
.Letext0:
	.file 2 "/mnt/d/GitHub/bl_iot_sdk_for_aithinker/components/platform/soc/bl602/bl602_std/bl602_std/Device/Bouffalo/BL602/Peripherals/bl602.h"
	.file 3 "/mnt/d/GitHub/bl_iot_sdk_for_aithinker/toolchain/riscv/Linux/lib/gcc/riscv64-unknown-elf/10.2.0/include/stdint-gcc.h"
	.file 4 "/mnt/d/GitHub/bl_iot_sdk_for_aithinker/components/platform/soc/bl602/bl602_std/bl602_std/StdDriver/Inc/bl602_common.h"
	.file 5 "/mnt/d/GitHub/bl_iot_sdk_for_aithinker/components/platform/soc/bl602/bl602_std/bl602_std/Common/platform_print/bflb_platform.h"