	.file	"bl602_spi.c"
	.option nopic
	.attribute arch, "rv32i2p0_m2p0_f2p0_c2p0"
	.attribute unaligned_access, 0
	.attribute stack_align, 16
	.text
.Ltext0:
	.cfi_sections	.debug_frame
	.section	.text.SPI_Init,"ax",@progbits
	.align	1
	.globl	SPI_Init
	.type	SPI_Init, @function
SPI_Init:
.LFB8:
	.file 1 "/mnt/d/GitHub/bl_iot_sdk_for_aithinker/components/platform/soc/bl602/bl602_std/bl602_std/StdDriver/Src/bl602_spi.c"
	.loc 1 169 1
	.cfi_startproc
.LVL0:
	.loc 1 170 5
	.loc 1 171 5
	.loc 1 173 5
	.loc 1 174 5
	.loc 1 175 5
	.loc 1 176 5
	.loc 1 177 5
	.loc 1 178 5
	.loc 1 181 5
	.loc 1 181 12 is_stmt 0
	li	a3,1073782784
	lw	a5,512(a3)
.LVL1:
	.loc 1 182 5 is_stmt 1
	.loc 1 182 25 is_stmt 0
	li	a4,-4096
	addi	a4,a4,2047
	and	a4,a5,a4
.LVL2:
	.loc 1 183 5 is_stmt 1
	.loc 1 182 97 is_stmt 0
	lw	a5,0(a1)
	.loc 1 195 1
	li	a0,0
.LVL3:
	.loc 1 182 97
	slli	a5,a5,11
	.loc 1 182 12
	or	a5,a5,a4
.LVL4:
	.loc 1 184 5 is_stmt 1
	.loc 1 183 98 is_stmt 0
	lw	a4,4(a1)
	.loc 1 183 12
	andi	a5,a5,-641
.LVL5:
	.loc 1 183 98
	slli	a4,a4,9
	.loc 1 184 25
	or	a4,a5,a4
.LVL6:
	.loc 1 185 5 is_stmt 1
	.loc 1 184 94 is_stmt 0
	lw	a5,8(a1)
	slli	a5,a5,7
	.loc 1 184 12
	or	a5,a5,a4
.LVL7:
	.loc 1 186 5 is_stmt 1
	.loc 1 185 93 is_stmt 0
	lw	a4,12(a1)
	.loc 1 185 12
	andi	a5,a5,-97
.LVL8:
	.loc 1 185 93
	slli	a4,a4,6
	.loc 1 186 25
	or	a4,a5,a4
.LVL9:
	.loc 1 187 5 is_stmt 1
	.loc 1 186 93 is_stmt 0
	lw	a5,16(a1)
	addi	a5,a5,1
	.loc 1 186 99
	slli	a5,a5,5
	andi	a5,a5,32
	.loc 1 186 12
	or	a5,a5,a4
.LVL10:
	.loc 1 188 5 is_stmt 1
	.loc 1 187 93 is_stmt 0
	lw	a4,20(a1)
	.loc 1 187 12
	andi	a5,a5,-29
.LVL11:
	.loc 1 187 93
	slli	a4,a4,4
	.loc 1 188 25
	or	a5,a5,a4
	.loc 1 188 91
	lw	a4,24(a1)
	slli	a4,a4,2
	.loc 1 188 12
	or	a5,a4,a5
.LVL12:
	.loc 1 189 5 is_stmt 1
	.loc 1 189 41 is_stmt 0
	sw	a5,512(a3)
	.loc 1 194 5 is_stmt 1
	.loc 1 195 1 is_stmt 0
	ret
	.cfi_endproc
.LFE8:
	.size	SPI_Init, .-SPI_Init
	.section	.text.SPI_DeInit,"ax",@progbits
	.align	1
	.globl	SPI_DeInit
	.type	SPI_DeInit, @function
SPI_DeInit:
.LFB9:
	.loc 1 206 1 is_stmt 1
	.cfi_startproc
.LVL13:
	.loc 1 208 5
	.loc 1 210 5
	.loc 1 210 7 is_stmt 0
	bne	a0,zero,.L5
	.loc 1 211 9 is_stmt 1
	.loc 1 206 1 is_stmt 0
	addi	sp,sp,-16
	.cfi_def_cfa_offset 16
	.loc 1 211 9
	li	a0,18
.LVL14:
	.loc 1 206 1
	sw	ra,12(sp)
	.cfi_offset 1, -4
	.loc 1 211 9
	call	GLB_AHB_Slave1_Reset
.LVL15:
	.loc 1 214 5 is_stmt 1
	.loc 1 215 1 is_stmt 0
	lw	ra,12(sp)
	.cfi_restore 1
	li	a0,0
	addi	sp,sp,16
	.cfi_def_cfa_offset 0
	jr	ra
.LVL16:
.L5:
	.loc 1 214 5 is_stmt 1
	.loc 1 215 1 is_stmt 0
	li	a0,0
.LVL17:
	ret
	.cfi_endproc
.LFE9:
	.size	SPI_DeInit, .-SPI_DeInit
	.section	.text.SPI_ClockConfig,"ax",@progbits
	.align	1
	.globl	SPI_ClockConfig
	.type	SPI_ClockConfig, @function
SPI_ClockConfig:
.LFB10:
	.loc 1 228 1 is_stmt 1
	.cfi_startproc
.LVL18:
	.loc 1 229 5
	.loc 1 230 5
	.loc 1 233 5
	.loc 1 236 5
	.loc 1 236 12 is_stmt 0
	li	a3,1073782784
	addi	a3,a3,512
	lw	a4,16(a3)
.LVL19:
	.loc 1 237 5 is_stmt 1
	.loc 1 248 1 is_stmt 0
	li	a0,0
.LVL20:
	.loc 1 237 25
	andi	a5,a4,-256
.LVL21:
	.loc 1 238 5 is_stmt 1
	.loc 1 237 81 is_stmt 0
	lbu	a4,0(a1)
	.loc 1 237 91
	addi	a4,a4,-1
	.loc 1 237 12
	or	a4,a4,a5
.LVL22:
	.loc 1 238 25
	li	a5,-65536
	addi	a5,a5,255
	and	a4,a4,a5
.LVL23:
	.loc 1 239 5 is_stmt 1
	.loc 1 238 81 is_stmt 0
	lbu	a5,1(a1)
	.loc 1 238 90
	addi	a5,a5,-1
	.loc 1 238 93
	slli	a5,a5,8
	.loc 1 238 12
	or	a5,a5,a4
	.loc 1 239 25
	li	a4,-16711680
.LVL24:
	addi	a4,a4,-1
	and	a4,a5,a4
.LVL25:
	.loc 1 240 5 is_stmt 1
	.loc 1 239 82 is_stmt 0
	lbu	a5,2(a1)
	.loc 1 239 97
	addi	a5,a5,-1
	.loc 1 239 100
	slli	a5,a5,16
	.loc 1 239 12
	or	a5,a5,a4
	.loc 1 240 82
	lbu	a4,3(a1)
.LVL26:
	.loc 1 240 25
	slli	a5,a5,8
	srli	a5,a5,8
	.loc 1 240 97
	addi	a4,a4,-1
	.loc 1 240 100
	slli	a4,a4,24
	.loc 1 240 12
	or	a5,a4,a5
.LVL27:
	.loc 1 241 5 is_stmt 1
	.loc 1 241 42 is_stmt 0
	sw	a5,16(a3)
	.loc 1 244 5 is_stmt 1
	.loc 1 244 12 is_stmt 0
	lw	a4,20(a3)
.LVL28:
	.loc 1 245 5 is_stmt 1
	.loc 1 245 111 is_stmt 0
	lbu	a5,4(a1)
	.loc 1 245 55
	andi	a4,a4,-256
.LVL29:
	.loc 1 245 124
	addi	a5,a5,-1
	.loc 1 245 89
	or	a5,a5,a4
	.loc 1 245 42
	sw	a5,20(a3)
	.loc 1 247 5 is_stmt 1
	.loc 1 248 1 is_stmt 0
	ret
	.cfi_endproc
.LFE10:
	.size	SPI_ClockConfig, .-SPI_ClockConfig
	.section	.text.SPI_SetClock,"ax",@progbits
	.align	1
	.globl	SPI_SetClock
	.type	SPI_SetClock, @function
SPI_SetClock:
.LFB11:
	.loc 1 261 1 is_stmt 1
	.cfi_startproc
.LVL30:
	.loc 1 262 5
	.loc 1 263 5
	.loc 1 264 5
	.loc 1 266 5
	.loc 1 261 1 is_stmt 0
	addi	sp,sp,-16
	.cfi_def_cfa_offset 16
	.loc 1 266 7
	li	a5,40001536
	.loc 1 261 1
	sw	ra,12(sp)
	.cfi_offset 1, -4
	.loc 1 266 7
	addi	a5,a5,-1536
	bgtu	a1,a5,.L14
	.loc 1 269 11 is_stmt 1
	.loc 1 269 13 is_stmt 0
	li	a4,155648
	addi	a4,a4,602
	bleu	a1,a4,.L11
	.loc 1 270 9 is_stmt 1
	.loc 1 271 9
	.loc 1 271 17 is_stmt 0
	divu	a1,a5,a1
.LVL31:
.L18:
	.loc 1 267 17
	li	a5,1
	j	.L10
.LVL32:
.L11:
	.loc 1 272 11 is_stmt 1
	.loc 1 272 13 is_stmt 0
	li	a5,77824
	addi	a5,a5,301
	bleu	a1,a5,.L12
	.loc 1 273 9 is_stmt 1
.LVL33:
	.loc 1 274 9
	.loc 1 274 17 is_stmt 0
	li	a5,20000768
	addi	a5,a5,-768
	divu	a1,a5,a1
.LVL34:
	.loc 1 273 17
	li	a5,2
.LVL35:
.L10:
	.loc 1 287 5 is_stmt 1
	.loc 1 287 12 is_stmt 0
	li	a3,1073782784
	addi	a3,a3,512
	lw	a4,16(a3)
.LVL36:
	.loc 1 288 5 is_stmt 1
	.loc 1 288 83 is_stmt 0
	addi	a1,a1,-1
.LVL37:
	.loc 1 289 25
	li	a2,-65536
	.loc 1 288 25
	andi	a4,a4,-256
.LVL38:
	.loc 1 289 5 is_stmt 1
	.loc 1 288 12 is_stmt 0
	or	a4,a4,a1
.LVL39:
	.loc 1 289 25
	addi	a2,a2,255
	and	a4,a4,a2
.LVL40:
	.loc 1 290 5 is_stmt 1
	.loc 1 289 83 is_stmt 0
	slli	a2,a1,8
	.loc 1 289 12
	or	a4,a2,a4
.LVL41:
	.loc 1 290 25
	li	a2,-16711680
	addi	a2,a2,-1
	and	a2,a4,a2
.LVL42:
	.loc 1 291 5 is_stmt 1
	.loc 1 290 84 is_stmt 0
	slli	a4,a1,16
	.loc 1 290 12
	or	a4,a4,a2
.LVL43:
	.loc 1 291 25
	slli	a4,a4,8
.LVL44:
	.loc 1 291 84
	slli	a2,a1,24
.LVL45:
	.loc 1 291 25
	srli	a4,a4,8
	.loc 1 291 12
	or	a4,a2,a4
.LVL46:
	.loc 1 292 5 is_stmt 1
	.loc 1 292 42 is_stmt 0
	sw	a4,16(a3)
	.loc 1 294 5 is_stmt 1
	.loc 1 294 12 is_stmt 0
	lw	a4,20(a3)
.LVL47:
	.loc 1 295 5 is_stmt 1
	.loc 1 297 5 is_stmt 0
	li	a0,1
.LVL48:
	.loc 1 295 55
	andi	a4,a4,-256
.LVL49:
	.loc 1 295 89
	or	a1,a4,a1
.LVL50:
	.loc 1 295 42
	sw	a1,20(a3)
	.loc 1 297 5 is_stmt 1
	addi	a1,a5,-1
	andi	a1,a1,0xff
	call	GLB_Set_SPI_CLK
.LVL51:
	.loc 1 299 5
	.loc 1 300 1 is_stmt 0
	lw	ra,12(sp)
	.cfi_remember_state
	.cfi_restore 1
	li	a0,0
	addi	sp,sp,16
	.cfi_def_cfa_offset 0
	jr	ra
.LVL52:
.L12:
	.cfi_restore_state
	.loc 1 275 11 is_stmt 1
	.loc 1 275 13 is_stmt 0
	li	a5,40960
	addi	a5,a5,-1898
	bleu	a1,a5,.L13
	.loc 1 276 9 is_stmt 1
.LVL53:
	.loc 1 277 9
	.loc 1 277 17 is_stmt 0
	li	a5,9998336
	addi	a5,a5,1664
	divu	a1,a5,a1
.LVL54:
	.loc 1 276 17
	li	a5,4
	j	.L10
.LVL55:
.L13:
	.loc 1 278 11 is_stmt 1
	.loc 1 278 13 is_stmt 0
	li	a5,4096
	addi	a5,a5,786
	bleu	a1,a5,.L15
	.loc 1 279 9 is_stmt 1
.LVL56:
	.loc 1 280 9
	.loc 1 280 17 is_stmt 0
	li	a5,1249280
	addi	a5,a5,720
	divu	a1,a5,a1
.LVL57:
.L17:
	.loc 1 282 17
	li	a5,32
	j	.L10
.LVL58:
.L14:
	.loc 1 268 17
	li	a1,1
.LVL59:
	j	.L18
.LVL60:
.L15:
	.loc 1 283 17
	li	a1,256
.LVL61:
	j	.L17
	.cfi_endproc
.LFE11:
	.size	SPI_SetClock, .-SPI_SetClock
	.section	.text.SPI_FifoConfig,"ax",@progbits
	.align	1
	.globl	SPI_FifoConfig
	.type	SPI_FifoConfig, @function
SPI_FifoConfig:
.LFB12:
	.loc 1 313 1 is_stmt 1
	.cfi_startproc
.LVL62:
	.loc 1 314 5
	.loc 1 315 5
	.loc 1 318 5
	.loc 1 321 5
	.loc 1 321 12 is_stmt 0
	li	a3,1073782784
	addi	a3,a3,640
	lw	a5,4(a3)
.LVL63:
	.loc 1 322 5 is_stmt 1
	.loc 1 322 25 is_stmt 0
	li	a4,-196608
	addi	a4,a4,-1
	and	a4,a5,a4
.LVL64:
	.loc 1 323 5 is_stmt 1
	.loc 1 322 81 is_stmt 0
	lbu	a5,0(a1)
	.loc 1 333 1
	li	a0,0
.LVL65:
	.loc 1 322 98
	addi	a5,a5,-1
	.loc 1 322 101
	slli	a5,a5,16
	.loc 1 322 12
	or	a5,a5,a4
	.loc 1 323 25
	li	a4,-50331648
.LVL66:
	addi	a4,a4,-1
	and	a5,a5,a4
	.loc 1 323 81
	lbu	a4,1(a1)
	.loc 1 323 98
	addi	a4,a4,-1
	.loc 1 323 101
	slli	a4,a4,24
	.loc 1 323 12
	or	a5,a4,a5
.LVL67:
	.loc 1 324 5 is_stmt 1
	.loc 1 324 42 is_stmt 0
	sw	a5,4(a3)
	.loc 1 327 5 is_stmt 1
	.loc 1 327 12 is_stmt 0
	lw	a5,0(a3)
.LVL68:
	.loc 1 328 5 is_stmt 1
	.loc 1 328 12 is_stmt 0
	lw	a4,4(a1)
	.loc 1 328 25
	andi	a5,a5,-2
.LVL69:
	.loc 1 329 5 is_stmt 1
	.loc 1 328 12 is_stmt 0
	or	a5,a5,a4
.LVL70:
	.loc 1 329 98
	lw	a4,8(a1)
	.loc 1 329 25
	andi	a5,a5,-3
.LVL71:
	.loc 1 329 98
	slli	a4,a4,1
	.loc 1 329 12
	or	a5,a4,a5
.LVL72:
	.loc 1 330 5 is_stmt 1
	.loc 1 330 42 is_stmt 0
	sw	a5,0(a3)
	.loc 1 332 5 is_stmt 1
	.loc 1 333 1 is_stmt 0
	ret
	.cfi_endproc
.LFE12:
	.size	SPI_FifoConfig, .-SPI_FifoConfig
	.section	.text.SPI_Enable,"ax",@progbits
	.align	1
	.globl	SPI_Enable
	.type	SPI_Enable, @function
SPI_Enable:
.LFB13:
	.loc 1 345 1 is_stmt 1
	.cfi_startproc
.LVL73:
	.loc 1 346 5
	.loc 1 347 5
	.loc 1 349 5
	.loc 1 350 5
	.loc 1 352 5
	.loc 1 352 12 is_stmt 0
	li	a5,1073782784
	lw	a5,512(a5)
.LVL74:
	.loc 1 353 5 is_stmt 1
	.loc 1 353 7 is_stmt 0
	beq	a1,zero,.L21
	.loc 1 355 9 is_stmt 1
	.loc 1 355 16 is_stmt 0
	andi	a5,a5,-3
.LVL75:
	.loc 1 356 9 is_stmt 1
	.loc 1 356 16 is_stmt 0
	ori	a5,a5,1
.LVL76:
.L22:
	.loc 1 362 5 is_stmt 1
	.loc 1 362 41 is_stmt 0
	li	a4,1073782784
	sw	a5,512(a4)
	.loc 1 364 5 is_stmt 1
	.loc 1 365 1 is_stmt 0
	li	a0,0
.LVL77:
	ret
.LVL78:
.L21:
	.loc 1 359 9 is_stmt 1
	.loc 1 359 16 is_stmt 0
	andi	a5,a5,-2
.LVL79:
	.loc 1 360 9 is_stmt 1
	.loc 1 360 16 is_stmt 0
	ori	a5,a5,2
.LVL80:
	j	.L22
	.cfi_endproc
.LFE13:
	.size	SPI_Enable, .-SPI_Enable
	.section	.text.SPI_Disable,"ax",@progbits
	.align	1
	.globl	SPI_Disable
	.type	SPI_Disable, @function
SPI_Disable:
.LFB14:
	.loc 1 377 1 is_stmt 1
	.cfi_startproc
.LVL81:
	.loc 1 378 5
	.loc 1 379 5
	.loc 1 381 5
	.loc 1 382 5
	.loc 1 385 5
	.loc 1 385 12 is_stmt 0
	li	a4,1073782784
	lw	a5,512(a4)
.LVL82:
	.loc 1 386 5 is_stmt 1
	.loc 1 387 5
	.loc 1 391 1 is_stmt 0
	li	a0,0
.LVL83:
	.loc 1 387 12
	andi	a5,a5,-4
.LVL84:
	.loc 1 388 5 is_stmt 1
	.loc 1 388 41 is_stmt 0
	sw	a5,512(a4)
	.loc 1 390 5 is_stmt 1
	.loc 1 391 1 is_stmt 0
	ret
	.cfi_endproc
.LFE14:
	.size	SPI_Disable, .-SPI_Disable
	.section	.text.SPI_SetTimeOutValue,"ax",@progbits
	.align	1
	.globl	SPI_SetTimeOutValue
	.type	SPI_SetTimeOutValue, @function
SPI_SetTimeOutValue:
.LFB15:
	.loc 1 403 1 is_stmt 1
	.cfi_startproc
.LVL85:
	.loc 1 404 5
	.loc 1 405 5
	.loc 1 407 5
	.loc 1 410 5
	.loc 1 410 12 is_stmt 0
	li	a4,1073782784
	lw	a5,540(a4)
.LVL86:
	.loc 1 411 5 is_stmt 1
	.loc 1 411 55 is_stmt 0
	li	a3,-4096
	.loc 1 411 109
	addi	a1,a1,-1
.LVL87:
	.loc 1 411 55
	and	a5,a5,a3
.LVL88:
	.loc 1 411 90
	or	a5,a5,a1
	.loc 1 411 42
	sw	a5,540(a4)
	.loc 1 413 5 is_stmt 1
	.loc 1 414 1 is_stmt 0
	li	a0,0
.LVL89:
	ret
	.cfi_endproc
.LFE15:
	.size	SPI_SetTimeOutValue, .-SPI_SetTimeOutValue
	.section	.text.SPI_SetDeglitchCount,"ax",@progbits
	.align	1
	.globl	SPI_SetDeglitchCount
	.type	SPI_SetDeglitchCount, @function
SPI_SetDeglitchCount:
.LFB16:
	.loc 1 426 1 is_stmt 1
	.cfi_startproc
.LVL90:
	.loc 1 427 5
	.loc 1 428 5
	.loc 1 431 5
	.loc 1 434 5
	.loc 1 434 12 is_stmt 0
	li	a3,1073782784
	lw	a5,512(a3)
.LVL91:
	.loc 1 435 5 is_stmt 1
	.loc 1 435 25 is_stmt 0
	li	a4,-61440
	addi	a4,a4,-1
	and	a5,a5,a4
.LVL92:
	.loc 1 435 78
	slli	a1,a1,12
.LVL93:
	.loc 1 435 12
	or	a1,a1,a5
.LVL94:
	.loc 1 436 5 is_stmt 1
	.loc 1 436 41 is_stmt 0
	sw	a1,512(a3)
	.loc 1 438 5 is_stmt 1
	.loc 1 439 1 is_stmt 0
	li	a0,0
.LVL95:
	ret
	.cfi_endproc
.LFE16:
	.size	SPI_SetDeglitchCount, .-SPI_SetDeglitchCount
	.section	.text.SPI_RxIgnoreEnable,"ax",@progbits
	.align	1
	.globl	SPI_RxIgnoreEnable
	.type	SPI_RxIgnoreEnable, @function
SPI_RxIgnoreEnable:
.LFB17:
	.loc 1 452 1 is_stmt 1
	.cfi_startproc
.LVL96:
	.loc 1 453 5
	.loc 1 454 5
	.loc 1 457 5
	.loc 1 460 5
	.loc 1 460 12 is_stmt 0
	li	a5,1073782784
	lw	a4,512(a5)
.LVL97:
	.loc 1 461 5 is_stmt 1
	.loc 1 464 24 is_stmt 0
	slli	a1,a1,16
.LVL98:
	.loc 1 464 32
	or	a1,a1,a2
	.loc 1 461 54
	ori	a4,a4,256
.LVL99:
	.loc 1 461 41
	sw	a4,512(a5)
	.loc 1 464 5 is_stmt 1
.LVL100:
	.loc 1 465 5
	.loc 1 465 42 is_stmt 0
	sw	a1,536(a5)
	.loc 1 467 5 is_stmt 1
	.loc 1 468 1 is_stmt 0
	li	a0,0
.LVL101:
	ret
	.cfi_endproc
.LFE17:
	.size	SPI_RxIgnoreEnable, .-SPI_RxIgnoreEnable
	.section	.text.SPI_RxIgnoreDisable,"ax",@progbits
	.align	1
	.globl	SPI_RxIgnoreDisable
	.type	SPI_RxIgnoreDisable, @function
SPI_RxIgnoreDisable:
.LFB18:
	.loc 1 479 1 is_stmt 1
	.cfi_startproc
.LVL102:
	.loc 1 480 5
	.loc 1 481 5
	.loc 1 484 5
	.loc 1 487 5
	.loc 1 487 12 is_stmt 0
	li	a4,1073782784
	lw	a5,512(a4)
.LVL103:
	.loc 1 488 5 is_stmt 1
	.loc 1 491 1 is_stmt 0
	li	a0,0
.LVL104:
	.loc 1 488 54
	andi	a5,a5,-257
.LVL105:
	.loc 1 488 41
	sw	a5,512(a4)
	.loc 1 490 5 is_stmt 1
	.loc 1 491 1 is_stmt 0
	ret
	.cfi_endproc
.LFE18:
	.size	SPI_RxIgnoreDisable, .-SPI_RxIgnoreDisable
	.section	.text.SPI_ClrTxFifo,"ax",@progbits
	.align	1
	.globl	SPI_ClrTxFifo
	.type	SPI_ClrTxFifo, @function
SPI_ClrTxFifo:
.LFB19:
	.loc 1 502 1 is_stmt 1
	.cfi_startproc
.LVL106:
	.loc 1 503 5
	.loc 1 504 5
	.loc 1 507 5
	.loc 1 510 5
	.loc 1 510 12 is_stmt 0
	li	a4,1073782784
	lw	a5,640(a4)
.LVL107:
	.loc 1 511 5 is_stmt 1
	.loc 1 514 1 is_stmt 0
	li	a0,0
.LVL108:
	.loc 1 511 55
	ori	a5,a5,4
.LVL109:
	.loc 1 511 42
	sw	a5,640(a4)
	.loc 1 513 5 is_stmt 1
	.loc 1 514 1 is_stmt 0
	ret
	.cfi_endproc
.LFE19:
	.size	SPI_ClrTxFifo, .-SPI_ClrTxFifo
	.section	.text.SPI_ClrRxFifo,"ax",@progbits
	.align	1
	.globl	SPI_ClrRxFifo
	.type	SPI_ClrRxFifo, @function
SPI_ClrRxFifo:
.LFB20:
	.loc 1 525 1 is_stmt 1
	.cfi_startproc
.LVL110:
	.loc 1 526 5
	.loc 1 527 5
	.loc 1 530 5
	.loc 1 533 5
	.loc 1 533 12 is_stmt 0
	li	a4,1073782784
	lw	a5,640(a4)
.LVL111:
	.loc 1 534 5 is_stmt 1
	.loc 1 537 1 is_stmt 0
	li	a0,0
.LVL112:
	.loc 1 534 55
	ori	a5,a5,8
.LVL113:
	.loc 1 534 42
	sw	a5,640(a4)
	.loc 1 536 5 is_stmt 1
	.loc 1 537 1 is_stmt 0
	ret
	.cfi_endproc
.LFE20:
	.size	SPI_ClrRxFifo, .-SPI_ClrRxFifo
	.section	.text.SPI_ClrIntStatus,"ax",@progbits
	.align	1
	.globl	SPI_ClrIntStatus
	.type	SPI_ClrIntStatus, @function
SPI_ClrIntStatus:
.LFB21:
	.loc 1 549 1 is_stmt 1
	.cfi_startproc
.LVL114:
	.loc 1 550 5
	.loc 1 551 5
	.loc 1 554 5
	.loc 1 557 5
	.loc 1 557 12 is_stmt 0
	li	a5,1073782784
	lw	a5,516(a5)
.LVL115:
	.loc 1 558 5 is_stmt 1
	.loc 1 558 7 is_stmt 0
	li	a4,6
	bne	a1,a4,.L31
	.loc 1 559 9 is_stmt 1
	.loc 1 559 16 is_stmt 0
	li	a1,2031616
.LVL116:
.L33:
	.loc 1 561 16
	or	a1,a1,a5
.LVL117:
	.loc 1 563 5 is_stmt 1
	.loc 1 563 41 is_stmt 0
	li	a5,1073782784
	sw	a1,516(a5)
	.loc 1 565 5 is_stmt 1
	.loc 1 566 1 is_stmt 0
	li	a0,0
.LVL118:
	ret
.LVL119:
.L31:
	.loc 1 561 9 is_stmt 1
	.loc 1 561 30 is_stmt 0
	addi	a1,a1,16
.LVL120:
	.loc 1 561 20
	li	a4,1
	sll	a1,a4,a1
.LVL121:
	j	.L33
	.cfi_endproc
.LFE21:
	.size	SPI_ClrIntStatus, .-SPI_ClrIntStatus
	.section	.text.SPI_IntMask,"ax",@progbits
	.align	1
	.globl	SPI_IntMask
	.type	SPI_IntMask, @function
SPI_IntMask:
.LFB22:
	.loc 1 579 1 is_stmt 1
	.cfi_startproc
.LVL122:
	.loc 1 580 5
	.loc 1 581 5
	.loc 1 584 5
	.loc 1 585 5
	.loc 1 586 5
	.loc 1 588 5
	.loc 1 588 12 is_stmt 0
	li	a5,1073782784
	lw	a5,516(a5)
.LVL123:
	.loc 1 591 5 is_stmt 1
	.loc 1 591 7 is_stmt 0
	li	a4,6
	bne	a1,a4,.L35
	.loc 1 592 9 is_stmt 1
	.loc 1 592 11 is_stmt 0
	li	a4,1
	bne	a2,a4,.L36
	.loc 1 593 13 is_stmt 1
	.loc 1 593 20 is_stmt 0
	li	a1,16384
.LVL124:
	addi	a1,a1,-256
.L39:
	.loc 1 599 13 is_stmt 1
	.loc 1 599 20 is_stmt 0
	or	a1,a1,a5
.LVL125:
.L37:
	.loc 1 606 5 is_stmt 1
	.loc 1 606 41 is_stmt 0
	li	a5,1073782784
	sw	a1,516(a5)
	.loc 1 608 5 is_stmt 1
	.loc 1 609 1 is_stmt 0
	li	a0,0
.LVL126:
	ret
.LVL127:
.L36:
	.loc 1 595 13 is_stmt 1
	.loc 1 595 20 is_stmt 0
	li	a1,-16384
.LVL128:
	addi	a1,a1,255
.L40:
	.loc 1 601 20
	and	a1,a1,a5
.LVL129:
	j	.L37
.LVL130:
.L35:
	.loc 1 598 9 is_stmt 1
	.loc 1 599 34 is_stmt 0
	addi	a1,a1,8
.LVL131:
	.loc 1 599 24
	li	a4,1
	sll	a1,a4,a1
.LVL132:
	.loc 1 598 11
	beq	a2,a4,.L39
	.loc 1 601 13 is_stmt 1
	.loc 1 601 23 is_stmt 0
	not	a1,a1
	j	.L40
	.cfi_endproc
.LFE22:
	.size	SPI_IntMask, .-SPI_IntMask
	.section	.text.SPI_Int_Callback_Install,"ax",@progbits
	.align	1
	.globl	SPI_Int_Callback_Install
	.type	SPI_Int_Callback_Install, @function
SPI_Int_Callback_Install:
.LFB23:
	.loc 1 622 1 is_stmt 1
	.cfi_startproc
.LVL133:
	.loc 1 624 5
	.loc 1 625 5
	.loc 1 627 5
	.loc 1 629 5
	.loc 1 630 1 is_stmt 0
	li	a0,0
.LVL134:
	ret
	.cfi_endproc
.LFE23:
	.size	SPI_Int_Callback_Install, .-SPI_Int_Callback_Install
	.section	.text.SPI_SendData,"ax",@progbits
	.align	1
	.globl	SPI_SendData
	.type	SPI_SendData, @function
SPI_SendData:
.LFB24:
	.loc 1 642 1 is_stmt 1
	.cfi_startproc
.LVL135:
	.loc 1 643 5
	.loc 1 646 5
	.loc 1 649 5
	.loc 1 649 42 is_stmt 0
	li	a5,1073782784
	sw	a1,648(a5)
	.loc 1 651 5 is_stmt 1
	.loc 1 652 1 is_stmt 0
	li	a0,0
.LVL136:
	ret
	.cfi_endproc
.LFE24:
	.size	SPI_SendData, .-SPI_SendData
	.section	.text.SPI_Send_8bits,"ax",@progbits
	.align	1
	.globl	SPI_Send_8bits
	.type	SPI_Send_8bits, @function
SPI_Send_8bits:
.LFB25:
	.loc 1 666 1 is_stmt 1
	.cfi_startproc
.LVL137:
	.loc 1 667 5
	.loc 1 668 5
	.loc 1 669 5
	.loc 1 670 5
	.loc 1 671 5
	.loc 1 674 5
	.loc 1 675 5
	.loc 1 678 5
	.loc 1 678 12 is_stmt 0
	li	a5,1073782784
	addi	a4,a5,512
	lw	a0,0(a4)
.LVL138:
	.loc 1 679 5 is_stmt 1
	.loc 1 686 12 is_stmt 0
	addi	a5,a5,640
	.loc 1 679 88
	andi	a0,a0,-13
.LVL139:
	.loc 1 679 41
	sw	a0,0(a4)
	.loc 1 682 5 is_stmt 1
	.loc 1 682 12 is_stmt 0
	lw	a0,0(a4)
.LVL140:
	.loc 1 683 5 is_stmt 1
	.loc 1 683 54 is_stmt 0
	andi	a0,a0,-257
.LVL141:
	.loc 1 683 41
	sw	a0,0(a4)
	.loc 1 686 5 is_stmt 1
	.loc 1 686 12 is_stmt 0
	lw	a4,0(a5)
.LVL142:
	.loc 1 687 5 is_stmt 1
	.loc 1 688 5
	.loc 1 688 12 is_stmt 0
	ori	a4,a4,12
.LVL143:
	.loc 1 689 5 is_stmt 1
	.loc 1 689 42 is_stmt 0
	sw	a4,0(a5)
	.loc 1 692 5 is_stmt 1
	.loc 1 692 12 is_stmt 0
	li	a5,4
	mv	a4,a2
.LVL144:
	bleu	a2,a5,.L44
	li	a4,4
.L44:
.LVL145:
	.loc 1 693 5 is_stmt 1
	.loc 1 693 14 is_stmt 0
	li	a5,0
	.loc 1 694 46
	li	a0,1073782784
.LVL146:
.L45:
	.loc 1 693 17 is_stmt 1 discriminator 1
	.loc 1 693 5 is_stmt 0 discriminator 1
	bne	a5,a4,.L46
	mv	a0,a4
	li	t1,159744
.LBB50:
.LBB51:
	.loc 1 1603 17
	li	a6,1073782784
.LVL147:
.L47:
.LBE51:
.LBE50:
	.loc 1 698 10 is_stmt 1 discriminator 1
	.loc 1 698 5 is_stmt 0 discriminator 1
	bltu	a0,a2,.L57
	.loc 1 713 14
	li	a2,0
.LVL148:
	li	a6,159744
.LBB53:
.LBB54:
	.loc 1 1603 17
	li	a0,1073782784
.LVL149:
.L52:
.LBE54:
.LBE53:
	.loc 1 713 17 is_stmt 1 discriminator 1
	.loc 1 713 5 is_stmt 0 discriminator 1
	bne	a2,a4,.L58
	.loc 1 726 12
	li	a0,0
	ret
.LVL150:
.L46:
	.loc 1 694 9 is_stmt 1 discriminator 3
	.loc 1 694 62 is_stmt 0 discriminator 3
	add	a6,a1,a5
	.loc 1 694 48 discriminator 3
	lbu	a6,0(a6)
	.loc 1 693 35 discriminator 3
	addi	a5,a5,1
.LVL151:
	.loc 1 694 46 discriminator 3
	sw	a6,648(a0)
	.loc 1 693 30 is_stmt 1 discriminator 3
.LVL152:
	j	.L45
.LVL153:
.L50:
	.loc 1 701 13
	.loc 1 701 15 is_stmt 0
	beq	a3,zero,.L48
	.loc 1 702 17 is_stmt 1
.LVL154:
	.loc 1 703 17
	.loc 1 703 19 is_stmt 0
	addi	a7,a7,-1
.LVL155:
	bne	a7,zero,.L48
.LVL156:
.L49:
	.loc 1 704 28
	li	a0,2
	.loc 1 727 1
	ret
.LVL157:
.L57:
	addi	a7,t1,256
.L48:
.LVL158:
	.loc 1 700 14 is_stmt 1
.LBB56:
.LBB52:
	.loc 1 1597 5
	.loc 1 1600 5
	.loc 1 1603 5
	.loc 1 1603 17 is_stmt 0
	lw	a5,644(a6)
.LVL159:
	.loc 1 1603 88
	srli	a5,a5,8
.LBE52:
.LBE56:
	.loc 1 700 14
	andi	a5,a5,7
	beq	a5,zero,.L50
	.loc 1 708 9 is_stmt 1
	.loc 1 708 19 is_stmt 0
	lw	a5,652(a6)
	.loc 1 709 9 is_stmt 1
	.loc 1 709 62 is_stmt 0
	add	a5,a1,a0
	.loc 1 709 48
	lbu	a5,0(a5)
	.loc 1 698 28
	addi	a0,a0,1
.LVL160:
	.loc 1 709 46
	sw	a5,648(a6)
	.loc 1 698 23 is_stmt 1
.LVL161:
	j	.L47
.LVL162:
.L54:
	.loc 1 716 13
	.loc 1 716 15 is_stmt 0
	beq	a3,zero,.L53
	.loc 1 717 17 is_stmt 1
.LVL163:
	.loc 1 718 17
	.loc 1 718 19 is_stmt 0
	addi	a1,a1,-1
.LVL164:
	beq	a1,zero,.L49
.LVL165:
.L53:
	.loc 1 715 14 is_stmt 1
.LBB57:
.LBB55:
	.loc 1 1597 5
	.loc 1 1600 5
	.loc 1 1603 5
	.loc 1 1603 17 is_stmt 0
	lw	a5,644(a0)
.LVL166:
	.loc 1 1603 88
	srli	a5,a5,8
.LBE55:
.LBE57:
	.loc 1 715 14
	andi	a5,a5,7
	beq	a5,zero,.L54
	.loc 1 723 9 is_stmt 1 discriminator 2
	.loc 1 723 19 is_stmt 0 discriminator 2
	lw	a5,652(a0)
	.loc 1 713 30 is_stmt 1 discriminator 2
	.loc 1 713 35 is_stmt 0 discriminator 2
	addi	a2,a2,1
.LVL167:
	j	.L52
.LVL168:
.L58:
	addi	a1,a6,256
	j	.L53
	.cfi_endproc
.LFE25:
	.size	SPI_Send_8bits, .-SPI_Send_8bits
	.section	.text.SPI_Send_16bits,"ax",@progbits
	.align	1
	.globl	SPI_Send_16bits
	.type	SPI_Send_16bits, @function
SPI_Send_16bits:
.LFB26:
	.loc 1 741 1 is_stmt 1
	.cfi_startproc
.LVL169:
	.loc 1 742 5
	.loc 1 743 5
	.loc 1 744 5
	.loc 1 745 5
	.loc 1 746 5
	.loc 1 749 5
	.loc 1 750 5
	.loc 1 753 5
	.loc 1 753 12 is_stmt 0
	li	a5,1073782784
	addi	a0,a5,512
.LVL170:
	lw	a4,0(a0)
.LVL171:
	.loc 1 754 5 is_stmt 1
	.loc 1 761 12 is_stmt 0
	addi	a5,a5,640
	.loc 1 754 54
	andi	a4,a4,-13
.LVL172:
	.loc 1 754 88
	ori	a4,a4,4
	.loc 1 754 41
	sw	a4,0(a0)
	.loc 1 757 5 is_stmt 1
	.loc 1 757 12 is_stmt 0
	lw	a4,0(a0)
.LVL173:
	.loc 1 758 5 is_stmt 1
	.loc 1 758 54 is_stmt 0
	andi	a4,a4,-257
.LVL174:
	.loc 1 758 41
	sw	a4,0(a0)
	.loc 1 761 5 is_stmt 1
	.loc 1 761 12 is_stmt 0
	lw	a4,0(a5)
.LVL175:
	.loc 1 762 5 is_stmt 1
	.loc 1 763 5
	.loc 1 763 12 is_stmt 0
	ori	a4,a4,12
.LVL176:
	.loc 1 764 5 is_stmt 1
	.loc 1 764 42 is_stmt 0
	sw	a4,0(a5)
	.loc 1 767 5 is_stmt 1
	.loc 1 767 12 is_stmt 0
	li	a5,4
	mv	a4,a2
.LVL177:
	bleu	a2,a5,.L70
	li	a4,4
.L70:
.LVL178:
	.loc 1 768 5 is_stmt 1
	.loc 1 768 14 is_stmt 0
	li	a5,0
	.loc 1 769 46
	li	a6,1073782784
.LVL179:
.L71:
	.loc 1 768 17 is_stmt 1 discriminator 1
	.loc 1 768 5 is_stmt 0 discriminator 1
	bne	a5,a4,.L72
	mv	a0,a4
	li	t1,159744
.LBB58:
.LBB59:
	.loc 1 1603 17
	li	a6,1073782784
.LVL180:
.L73:
.LBE59:
.LBE58:
	.loc 1 773 10 is_stmt 1 discriminator 1
	.loc 1 773 5 is_stmt 0 discriminator 1
	bltu	a0,a2,.L83
	.loc 1 788 14
	li	a2,0
.LVL181:
	li	a6,159744
.LBB61:
.LBB62:
	.loc 1 1603 17
	li	a0,1073782784
.LVL182:
.L78:
.LBE62:
.LBE61:
	.loc 1 788 17 is_stmt 1 discriminator 1
	.loc 1 788 5 is_stmt 0 discriminator 1
	bne	a2,a4,.L84
	.loc 1 801 12
	li	a0,0
	ret
.LVL183:
.L72:
	.loc 1 769 9 is_stmt 1 discriminator 3
	.loc 1 769 62 is_stmt 0 discriminator 3
	slli	a0,a5,1
	add	a0,a1,a0
	.loc 1 769 48 discriminator 3
	lhu	a0,0(a0)
	.loc 1 768 35 discriminator 3
	addi	a5,a5,1
.LVL184:
	.loc 1 769 46 discriminator 3
	sw	a0,648(a6)
	.loc 1 768 30 is_stmt 1 discriminator 3
.LVL185:
	j	.L71
.LVL186:
.L76:
	.loc 1 776 13
	.loc 1 776 15 is_stmt 0
	beq	a3,zero,.L74
	.loc 1 777 17 is_stmt 1
.LVL187:
	.loc 1 778 17
	.loc 1 778 19 is_stmt 0
	addi	a7,a7,-1
.LVL188:
	bne	a7,zero,.L74
.LVL189:
.L75:
	.loc 1 779 28
	li	a0,2
	.loc 1 802 1
	ret
.LVL190:
.L83:
	addi	a7,t1,256
.L74:
.LVL191:
	.loc 1 775 14 is_stmt 1
.LBB64:
.LBB60:
	.loc 1 1597 5
	.loc 1 1600 5
	.loc 1 1603 5
	.loc 1 1603 17 is_stmt 0
	lw	a5,644(a6)
.LVL192:
	.loc 1 1603 88
	srli	a5,a5,8
.LBE60:
.LBE64:
	.loc 1 775 14
	andi	a5,a5,7
	beq	a5,zero,.L76
	.loc 1 783 9 is_stmt 1
	.loc 1 783 19 is_stmt 0
	lw	a5,652(a6)
	.loc 1 784 9 is_stmt 1
	.loc 1 784 62 is_stmt 0
	slli	a5,a0,1
	add	a5,a1,a5
	.loc 1 784 48
	lhu	a5,0(a5)
	.loc 1 773 28
	addi	a0,a0,1
.LVL193:
	.loc 1 784 46
	sw	a5,648(a6)
	.loc 1 773 23 is_stmt 1
.LVL194:
	j	.L73
.LVL195:
.L80:
	.loc 1 791 13
	.loc 1 791 15 is_stmt 0
	beq	a3,zero,.L79
	.loc 1 792 17 is_stmt 1
.LVL196:
	.loc 1 793 17
	.loc 1 793 19 is_stmt 0
	addi	a1,a1,-1
.LVL197:
	beq	a1,zero,.L75
.LVL198:
.L79:
	.loc 1 790 14 is_stmt 1
.LBB65:
.LBB63:
	.loc 1 1597 5
	.loc 1 1600 5
	.loc 1 1603 5
	.loc 1 1603 17 is_stmt 0
	lw	a5,644(a0)
.LVL199:
	.loc 1 1603 88
	srli	a5,a5,8
.LBE63:
.LBE65:
	.loc 1 790 14
	andi	a5,a5,7
	beq	a5,zero,.L80
	.loc 1 798 9 is_stmt 1 discriminator 2
	.loc 1 798 19 is_stmt 0 discriminator 2
	lw	a5,652(a0)
	.loc 1 788 30 is_stmt 1 discriminator 2
	.loc 1 788 35 is_stmt 0 discriminator 2
	addi	a2,a2,1
.LVL200:
	j	.L78
.LVL201:
.L84:
	addi	a1,a6,256
	j	.L79
	.cfi_endproc
.LFE26:
	.size	SPI_Send_16bits, .-SPI_Send_16bits
	.section	.text.SPI_Send_24bits,"ax",@progbits
	.align	1
	.globl	SPI_Send_24bits
	.type	SPI_Send_24bits, @function
SPI_Send_24bits:
.LFB27:
	.loc 1 816 1 is_stmt 1
	.cfi_startproc
.LVL202:
	.loc 1 817 5
	.loc 1 818 5
	.loc 1 819 5
	.loc 1 820 5
	.loc 1 821 5
	.loc 1 824 5
	.loc 1 825 5
	.loc 1 828 5
	.loc 1 828 12 is_stmt 0
	li	a5,1073782784
	addi	a0,a5,512
.LVL203:
	lw	a4,0(a0)
.LVL204:
	.loc 1 829 5 is_stmt 1
	.loc 1 836 12 is_stmt 0
	addi	a5,a5,640
	.loc 1 829 54
	andi	a4,a4,-13
.LVL205:
	.loc 1 829 88
	ori	a4,a4,8
	.loc 1 829 41
	sw	a4,0(a0)
	.loc 1 832 5 is_stmt 1
	.loc 1 832 12 is_stmt 0
	lw	a4,0(a0)
.LVL206:
	.loc 1 833 5 is_stmt 1
	.loc 1 833 54 is_stmt 0
	andi	a4,a4,-257
.LVL207:
	.loc 1 833 41
	sw	a4,0(a0)
	.loc 1 836 5 is_stmt 1
	.loc 1 836 12 is_stmt 0
	lw	a4,0(a5)
.LVL208:
	.loc 1 837 5 is_stmt 1
	.loc 1 838 5
	.loc 1 838 12 is_stmt 0
	ori	a4,a4,12
.LVL209:
	.loc 1 839 5 is_stmt 1
	.loc 1 839 42 is_stmt 0
	sw	a4,0(a5)
	.loc 1 842 5 is_stmt 1
	.loc 1 842 12 is_stmt 0
	li	a5,4
	mv	a4,a2
.LVL210:
	bleu	a2,a5,.L96
	li	a4,4
.L96:
.LVL211:
	.loc 1 843 5 is_stmt 1
	.loc 1 843 14 is_stmt 0
	li	a5,0
	.loc 1 844 46
	li	a6,1073782784
.LVL212:
.L97:
	.loc 1 843 17 is_stmt 1 discriminator 1
	.loc 1 843 5 is_stmt 0 discriminator 1
	bne	a5,a4,.L98
	mv	a0,a4
	li	t1,159744
.LBB66:
.LBB67:
	.loc 1 1603 17
	li	a6,1073782784
.LVL213:
.L99:
.LBE67:
.LBE66:
	.loc 1 848 10 is_stmt 1 discriminator 1
	.loc 1 848 5 is_stmt 0 discriminator 1
	bltu	a0,a2,.L109
	.loc 1 863 14
	li	a2,0
.LVL214:
	li	a6,159744
.LBB69:
.LBB70:
	.loc 1 1603 17
	li	a0,1073782784
.LVL215:
.L104:
.LBE70:
.LBE69:
	.loc 1 863 17 is_stmt 1 discriminator 1
	.loc 1 863 5 is_stmt 0 discriminator 1
	bne	a2,a4,.L110
	.loc 1 876 12
	li	a0,0
	ret
.LVL216:
.L98:
	.loc 1 844 9 is_stmt 1 discriminator 3
	.loc 1 844 52 is_stmt 0 discriminator 3
	slli	a0,a5,2
	add	a0,a1,a0
	lw	a0,0(a0)
	.loc 1 843 35 discriminator 3
	addi	a5,a5,1
.LVL217:
	.loc 1 844 46 discriminator 3
	sw	a0,648(a6)
	.loc 1 843 30 is_stmt 1 discriminator 3
.LVL218:
	j	.L97
.LVL219:
.L102:
	.loc 1 851 13
	.loc 1 851 15 is_stmt 0
	beq	a3,zero,.L100
	.loc 1 852 17 is_stmt 1
.LVL220:
	.loc 1 853 17
	.loc 1 853 19 is_stmt 0
	addi	a7,a7,-1
.LVL221:
	bne	a7,zero,.L100
.LVL222:
.L101:
	.loc 1 854 28
	li	a0,2
	.loc 1 877 1
	ret
.LVL223:
.L109:
	addi	a7,t1,256
.L100:
.LVL224:
	.loc 1 850 14 is_stmt 1
.LBB72:
.LBB68:
	.loc 1 1597 5
	.loc 1 1600 5
	.loc 1 1603 5
	.loc 1 1603 17 is_stmt 0
	lw	a5,644(a6)
.LVL225:
	.loc 1 1603 88
	srli	a5,a5,8
.LBE68:
.LBE72:
	.loc 1 850 14
	andi	a5,a5,7
	beq	a5,zero,.L102
	.loc 1 858 9 is_stmt 1
	.loc 1 858 19 is_stmt 0
	lw	a5,652(a6)
	.loc 1 859 9 is_stmt 1
	.loc 1 859 52 is_stmt 0
	slli	a5,a0,2
	add	a5,a1,a5
	lw	a5,0(a5)
	.loc 1 848 28
	addi	a0,a0,1
.LVL226:
	.loc 1 859 46
	sw	a5,648(a6)
	.loc 1 848 23 is_stmt 1
.LVL227:
	j	.L99
.LVL228:
.L106:
	.loc 1 866 13
	.loc 1 866 15 is_stmt 0
	beq	a3,zero,.L105
	.loc 1 867 17 is_stmt 1
.LVL229:
	.loc 1 868 17
	.loc 1 868 19 is_stmt 0
	addi	a1,a1,-1
.LVL230:
	beq	a1,zero,.L101
.LVL231:
.L105:
	.loc 1 865 14 is_stmt 1
.LBB73:
.LBB71:
	.loc 1 1597 5
	.loc 1 1600 5
	.loc 1 1603 5
	.loc 1 1603 17 is_stmt 0
	lw	a5,644(a0)
.LVL232:
	.loc 1 1603 88
	srli	a5,a5,8
.LBE71:
.LBE73:
	.loc 1 865 14
	andi	a5,a5,7
	beq	a5,zero,.L106
	.loc 1 873 9 is_stmt 1 discriminator 2
	.loc 1 873 19 is_stmt 0 discriminator 2
	lw	a5,652(a0)
	.loc 1 863 30 is_stmt 1 discriminator 2
	.loc 1 863 35 is_stmt 0 discriminator 2
	addi	a2,a2,1
.LVL233:
	j	.L104
.LVL234:
.L110:
	addi	a1,a6,256
	j	.L105
	.cfi_endproc
.LFE27:
	.size	SPI_Send_24bits, .-SPI_Send_24bits
	.section	.text.SPI_Send_32bits,"ax",@progbits
	.align	1
	.globl	SPI_Send_32bits
	.type	SPI_Send_32bits, @function
SPI_Send_32bits:
.LFB28:
	.loc 1 891 1 is_stmt 1
	.cfi_startproc
.LVL235:
	.loc 1 892 5
	.loc 1 893 5
	.loc 1 894 5
	.loc 1 895 5
	.loc 1 896 5
	.loc 1 899 5
	.loc 1 900 5
	.loc 1 903 5
	.loc 1 903 12 is_stmt 0
	li	a5,1073782784
	addi	a4,a5,512
	lw	a0,0(a4)
.LVL236:
	.loc 1 904 5 is_stmt 1
	.loc 1 911 12 is_stmt 0
	addi	a5,a5,640
	.loc 1 904 88
	ori	a0,a0,12
.LVL237:
	.loc 1 904 41
	sw	a0,0(a4)
	.loc 1 907 5 is_stmt 1
	.loc 1 907 12 is_stmt 0
	lw	a0,0(a4)
.LVL238:
	.loc 1 908 5 is_stmt 1
	.loc 1 908 54 is_stmt 0
	andi	a0,a0,-257
.LVL239:
	.loc 1 908 41
	sw	a0,0(a4)
	.loc 1 911 5 is_stmt 1
	.loc 1 911 12 is_stmt 0
	lw	a4,0(a5)
.LVL240:
	.loc 1 912 5 is_stmt 1
	.loc 1 913 5
	.loc 1 913 12 is_stmt 0
	ori	a4,a4,12
.LVL241:
	.loc 1 914 5 is_stmt 1
	.loc 1 914 42 is_stmt 0
	sw	a4,0(a5)
	.loc 1 917 5 is_stmt 1
	.loc 1 917 12 is_stmt 0
	li	a5,4
	mv	a4,a2
.LVL242:
	bleu	a2,a5,.L122
	li	a4,4
.L122:
.LVL243:
	.loc 1 918 5 is_stmt 1
	.loc 1 918 14 is_stmt 0
	li	a5,0
	.loc 1 919 46
	li	a6,1073782784
.LVL244:
.L123:
	.loc 1 918 17 is_stmt 1 discriminator 1
	.loc 1 918 5 is_stmt 0 discriminator 1
	bne	a5,a4,.L124
	mv	a0,a4
	li	t1,159744
.LBB74:
.LBB75:
	.loc 1 1603 17
	li	a6,1073782784
.LVL245:
.L125:
.LBE75:
.LBE74:
	.loc 1 923 10 is_stmt 1 discriminator 1
	.loc 1 923 5 is_stmt 0 discriminator 1
	bltu	a0,a2,.L135
	.loc 1 938 14
	li	a2,0
.LVL246:
	li	a6,159744
.LBB77:
.LBB78:
	.loc 1 1603 17
	li	a0,1073782784
.LVL247:
.L130:
.LBE78:
.LBE77:
	.loc 1 938 17 is_stmt 1 discriminator 1
	.loc 1 938 5 is_stmt 0 discriminator 1
	bne	a2,a4,.L136
	.loc 1 951 12
	li	a0,0
	ret
.LVL248:
.L124:
	.loc 1 919 9 is_stmt 1 discriminator 3
	.loc 1 919 52 is_stmt 0 discriminator 3
	slli	a0,a5,2
	add	a0,a1,a0
	lw	a0,0(a0)
	.loc 1 918 35 discriminator 3
	addi	a5,a5,1
.LVL249:
	.loc 1 919 46 discriminator 3
	sw	a0,648(a6)
	.loc 1 918 30 is_stmt 1 discriminator 3
.LVL250:
	j	.L123
.LVL251:
.L128:
	.loc 1 926 13
	.loc 1 926 15 is_stmt 0
	beq	a3,zero,.L126
	.loc 1 927 17 is_stmt 1
.LVL252:
	.loc 1 928 17
	.loc 1 928 19 is_stmt 0
	addi	a7,a7,-1
.LVL253:
	bne	a7,zero,.L126
.LVL254:
.L127:
	.loc 1 929 28
	li	a0,2
	.loc 1 952 1
	ret
.LVL255:
.L135:
	addi	a7,t1,256
.L126:
.LVL256:
	.loc 1 925 14 is_stmt 1
.LBB80:
.LBB76:
	.loc 1 1597 5
	.loc 1 1600 5
	.loc 1 1603 5
	.loc 1 1603 17 is_stmt 0
	lw	a5,644(a6)
.LVL257:
	.loc 1 1603 88
	srli	a5,a5,8
.LBE76:
.LBE80:
	.loc 1 925 14
	andi	a5,a5,7
	beq	a5,zero,.L128
	.loc 1 933 9 is_stmt 1
	.loc 1 933 19 is_stmt 0
	lw	a5,652(a6)
	.loc 1 934 9 is_stmt 1
	.loc 1 934 52 is_stmt 0
	slli	a5,a0,2
	add	a5,a1,a5
	lw	a5,0(a5)
	.loc 1 923 28
	addi	a0,a0,1
.LVL258:
	.loc 1 934 46
	sw	a5,648(a6)
	.loc 1 923 23 is_stmt 1
.LVL259:
	j	.L125
.LVL260:
.L132:
	.loc 1 941 13
	.loc 1 941 15 is_stmt 0
	beq	a3,zero,.L131
	.loc 1 942 17 is_stmt 1
.LVL261:
	.loc 1 943 17
	.loc 1 943 19 is_stmt 0
	addi	a1,a1,-1
.LVL262:
	beq	a1,zero,.L127
.LVL263:
.L131:
	.loc 1 940 14 is_stmt 1
.LBB81:
.LBB79:
	.loc 1 1597 5
	.loc 1 1600 5
	.loc 1 1603 5
	.loc 1 1603 17 is_stmt 0
	lw	a5,644(a0)
.LVL264:
	.loc 1 1603 88
	srli	a5,a5,8
.LBE79:
.LBE81:
	.loc 1 940 14
	andi	a5,a5,7
	beq	a5,zero,.L132
	.loc 1 948 9 is_stmt 1 discriminator 2
	.loc 1 948 19 is_stmt 0 discriminator 2
	lw	a5,652(a0)
	.loc 1 938 30 is_stmt 1 discriminator 2
	.loc 1 938 35 is_stmt 0 discriminator 2
	addi	a2,a2,1
.LVL265:
	j	.L130
.LVL266:
.L136:
	addi	a1,a6,256
	j	.L131
	.cfi_endproc
.LFE28:
	.size	SPI_Send_32bits, .-SPI_Send_32bits
	.section	.text.SPI_Recv_8bits,"ax",@progbits
	.align	1
	.globl	SPI_Recv_8bits
	.type	SPI_Recv_8bits, @function
SPI_Recv_8bits:
.LFB29:
	.loc 1 966 1 is_stmt 1
	.cfi_startproc
.LVL267:
	.loc 1 967 5
	.loc 1 968 5
	.loc 1 969 5
	.loc 1 970 5
	.loc 1 973 5
	.loc 1 974 5
	.loc 1 977 5
	.loc 1 977 12 is_stmt 0
	li	a5,1073782784
	addi	a4,a5,512
	lw	a0,0(a4)
.LVL268:
	.loc 1 978 5 is_stmt 1
	.loc 1 985 12 is_stmt 0
	addi	a5,a5,640
	.loc 1 978 88
	andi	a0,a0,-13
.LVL269:
	.loc 1 978 41
	sw	a0,0(a4)
	.loc 1 981 5 is_stmt 1
	.loc 1 981 12 is_stmt 0
	lw	a0,0(a4)
.LVL270:
	.loc 1 982 5 is_stmt 1
	.loc 1 982 54 is_stmt 0
	andi	a0,a0,-257
.LVL271:
	.loc 1 982 41
	sw	a0,0(a4)
	.loc 1 985 5 is_stmt 1
	.loc 1 985 12 is_stmt 0
	lw	a4,0(a5)
.LVL272:
	.loc 1 986 5 is_stmt 1
	.loc 1 987 5
	.loc 1 987 12 is_stmt 0
	ori	a4,a4,12
.LVL273:
	.loc 1 988 5 is_stmt 1
	.loc 1 988 42 is_stmt 0
	sw	a4,0(a5)
	.loc 1 991 5 is_stmt 1
	.loc 1 991 12 is_stmt 0
	li	a4,4
.LVL274:
	mv	a5,a2
.LVL275:
	bleu	a2,a4,.L148
	li	a5,4
.L148:
.LVL276:
	.loc 1 992 5 is_stmt 1
	.loc 1 992 14 is_stmt 0
	li	a4,0
	.loc 1 993 46
	li	a0,1073782784
.LVL277:
.L149:
	.loc 1 992 17 is_stmt 1 discriminator 1
	.loc 1 992 5 is_stmt 0 discriminator 1
	bne	a4,a5,.L150
	.loc 1 997 14
	li	a5,0
.LVL278:
	.loc 1 997 29
	sub	a4,a2,a4
.LVL279:
	li	t1,159744
.LBB82:
.LBB83:
	.loc 1 1603 17
	li	a6,1073782784
.LVL280:
.L151:
.LBE83:
.LBE82:
	.loc 1 997 17 is_stmt 1 discriminator 1
	.loc 1 997 5 is_stmt 0 discriminator 1
	bgtu	a4,a5,.L161
	li	a7,159744
.LBB85:
.LBB86:
	.loc 1 1603 17
	li	a6,1073782784
.L156:
.LBE86:
.LBE85:
	.loc 1 1012 10 is_stmt 1 discriminator 1
	.loc 1 1012 5 is_stmt 0 discriminator 1
	bltu	a5,a2,.L162
	.loc 1 1025 12
	li	a0,0
	ret
.LVL281:
.L150:
	.loc 1 993 9 is_stmt 1 discriminator 3
	.loc 1 993 46 is_stmt 0 discriminator 3
	sw	zero,648(a0)
	.loc 1 992 30 is_stmt 1 discriminator 3
	.loc 1 992 35 is_stmt 0 discriminator 3
	addi	a4,a4,1
.LVL282:
	j	.L149
.LVL283:
.L154:
	.loc 1 1000 13 is_stmt 1
	.loc 1 1000 15 is_stmt 0
	beq	a3,zero,.L152
	.loc 1 1001 17 is_stmt 1
.LVL284:
	.loc 1 1002 17
	.loc 1 1002 19 is_stmt 0
	addi	a7,a7,-1
.LVL285:
	bne	a7,zero,.L152
.LVL286:
.L153:
	.loc 1 1003 28
	li	a0,2
	.loc 1 1026 1
	ret
.L161:
	addi	a7,t1,256
.L152:
.LVL287:
	.loc 1 999 14 is_stmt 1
.LBB88:
.LBB84:
	.loc 1 1597 5
	.loc 1 1600 5
	.loc 1 1603 5
	.loc 1 1603 17 is_stmt 0
	lw	a0,644(a6)
.LVL288:
	.loc 1 1603 88
	srli	a0,a0,8
.LBE84:
.LBE88:
	.loc 1 999 14
	andi	a0,a0,7
	beq	a0,zero,.L154
	.loc 1 1007 9 is_stmt 1 discriminator 2
	.loc 1 1007 34 is_stmt 0 discriminator 2
	lw	a7,652(a6)
.LVL289:
	.loc 1 1007 21 discriminator 2
	add	a0,a1,a5
	.loc 1 997 42 discriminator 2
	addi	a5,a5,1
.LVL290:
	.loc 1 1007 23 discriminator 2
	sb	a7,0(a0)
	.loc 1 1008 9 is_stmt 1 discriminator 2
	.loc 1 1008 46 is_stmt 0 discriminator 2
	sw	zero,648(a6)
	.loc 1 997 37 is_stmt 1 discriminator 2
.LVL291:
	j	.L151
.LVL292:
.L158:
	.loc 1 1015 13
	.loc 1 1015 15 is_stmt 0
	beq	a3,zero,.L157
	.loc 1 1016 17 is_stmt 1
.LVL293:
	.loc 1 1017 17
	.loc 1 1017 19 is_stmt 0
	addi	a0,a0,-1
.LVL294:
	beq	a0,zero,.L153
.LVL295:
.L157:
	.loc 1 1014 14 is_stmt 1
.LBB89:
.LBB87:
	.loc 1 1597 5
	.loc 1 1600 5
	.loc 1 1603 5
	.loc 1 1603 17 is_stmt 0
	lw	a4,644(a6)
.LVL296:
	.loc 1 1603 88
	srli	a4,a4,8
.LBE87:
.LBE89:
	.loc 1 1014 14
	andi	a4,a4,7
	beq	a4,zero,.L158
	.loc 1 1022 9 is_stmt 1
	.loc 1 1022 34 is_stmt 0
	lw	a0,652(a6)
.LVL297:
	.loc 1 1022 21
	add	a4,a1,a5
	.loc 1 1012 28
	addi	a5,a5,1
.LVL298:
	.loc 1 1022 23
	sb	a0,0(a4)
	.loc 1 1012 23 is_stmt 1
.LVL299:
	j	.L156
.LVL300:
.L162:
	addi	a0,a7,256
	j	.L157
	.cfi_endproc
.LFE29:
	.size	SPI_Recv_8bits, .-SPI_Recv_8bits
	.section	.text.SPI_Recv_16bits,"ax",@progbits
	.align	1
	.globl	SPI_Recv_16bits
	.type	SPI_Recv_16bits, @function
SPI_Recv_16bits:
.LFB30:
	.loc 1 1040 1
	.cfi_startproc
.LVL301:
	.loc 1 1041 5
	.loc 1 1042 5
	.loc 1 1043 5
	.loc 1 1044 5
	.loc 1 1047 5
	.loc 1 1048 5
	.loc 1 1051 5
	.loc 1 1051 12 is_stmt 0
	li	a5,1073782784
	addi	a0,a5,512
.LVL302:
	lw	a4,0(a0)
.LVL303:
	.loc 1 1052 5 is_stmt 1
	.loc 1 1059 12 is_stmt 0
	addi	a5,a5,640
	.loc 1 1052 54
	andi	a4,a4,-13
.LVL304:
	.loc 1 1052 88
	ori	a4,a4,4
	.loc 1 1052 41
	sw	a4,0(a0)
	.loc 1 1055 5 is_stmt 1
	.loc 1 1055 12 is_stmt 0
	lw	a4,0(a0)
.LVL305:
	.loc 1 1056 5 is_stmt 1
	.loc 1 1056 54 is_stmt 0
	andi	a4,a4,-257
.LVL306:
	.loc 1 1056 41
	sw	a4,0(a0)
	.loc 1 1059 5 is_stmt 1
	.loc 1 1059 12 is_stmt 0
	lw	a4,0(a5)
.LVL307:
	.loc 1 1060 5 is_stmt 1
	.loc 1 1061 5
	.loc 1 1061 12 is_stmt 0
	ori	a4,a4,12
.LVL308:
	.loc 1 1062 5 is_stmt 1
	.loc 1 1062 42 is_stmt 0
	sw	a4,0(a5)
	.loc 1 1065 5 is_stmt 1
	.loc 1 1065 12 is_stmt 0
	li	a4,4
.LVL309:
	mv	a5,a2
.LVL310:
	bleu	a2,a4,.L174
	li	a5,4
.L174:
.LVL311:
	.loc 1 1066 5 is_stmt 1
	.loc 1 1066 14 is_stmt 0
	li	a4,0
	.loc 1 1067 46
	li	a0,1073782784
.LVL312:
.L175:
	.loc 1 1066 17 is_stmt 1 discriminator 1
	.loc 1 1066 5 is_stmt 0 discriminator 1
	bne	a4,a5,.L176
	.loc 1 1071 14
	li	a5,0
.LVL313:
	.loc 1 1071 29
	sub	a4,a2,a4
.LVL314:
	li	t1,159744
.LBB90:
.LBB91:
	.loc 1 1603 17
	li	a6,1073782784
.LVL315:
.L177:
.LBE91:
.LBE90:
	.loc 1 1071 17 is_stmt 1 discriminator 1
	.loc 1 1071 5 is_stmt 0 discriminator 1
	bgtu	a4,a5,.L187
	li	a7,159744
.LBB93:
.LBB94:
	.loc 1 1603 17
	li	a6,1073782784
.L182:
.LBE94:
.LBE93:
	.loc 1 1086 10 is_stmt 1 discriminator 1
	.loc 1 1086 5 is_stmt 0 discriminator 1
	bltu	a5,a2,.L188
	.loc 1 1099 12
	li	a0,0
	ret
.LVL316:
.L176:
	.loc 1 1067 9 is_stmt 1 discriminator 3
	.loc 1 1067 46 is_stmt 0 discriminator 3
	sw	zero,648(a0)
	.loc 1 1066 30 is_stmt 1 discriminator 3
	.loc 1 1066 35 is_stmt 0 discriminator 3
	addi	a4,a4,1
.LVL317:
	j	.L175
.LVL318:
.L180:
	.loc 1 1074 13 is_stmt 1
	.loc 1 1074 15 is_stmt 0
	beq	a3,zero,.L178
	.loc 1 1075 17 is_stmt 1
.LVL319:
	.loc 1 1076 17
	.loc 1 1076 19 is_stmt 0
	addi	a7,a7,-1
.LVL320:
	bne	a7,zero,.L178
.LVL321:
.L179:
	.loc 1 1077 28
	li	a0,2
	.loc 1 1100 1
	ret
.L187:
	addi	a7,t1,256
.L178:
.LVL322:
	.loc 1 1073 14 is_stmt 1
.LBB96:
.LBB92:
	.loc 1 1597 5
	.loc 1 1600 5
	.loc 1 1603 5
	.loc 1 1603 17 is_stmt 0
	lw	a0,644(a6)
.LVL323:
	.loc 1 1603 88
	srli	a0,a0,8
.LBE92:
.LBE96:
	.loc 1 1073 14
	andi	a0,a0,7
	beq	a0,zero,.L180
	.loc 1 1081 9 is_stmt 1 discriminator 2
	.loc 1 1081 37 is_stmt 0 discriminator 2
	lw	a7,652(a6)
.LVL324:
	.loc 1 1081 23 discriminator 2
	slli	a0,a5,1
	add	a0,a1,a0
	.loc 1 1081 25 discriminator 2
	sh	a7,0(a0)
	.loc 1 1082 9 is_stmt 1 discriminator 2
	.loc 1 1082 46 is_stmt 0 discriminator 2
	sw	zero,648(a6)
	.loc 1 1071 37 is_stmt 1 discriminator 2
	.loc 1 1071 42 is_stmt 0 discriminator 2
	addi	a5,a5,2
.LVL325:
	j	.L177
.LVL326:
.L184:
	.loc 1 1089 13 is_stmt 1
	.loc 1 1089 15 is_stmt 0
	beq	a3,zero,.L183
	.loc 1 1090 17 is_stmt 1
.LVL327:
	.loc 1 1091 17
	.loc 1 1091 19 is_stmt 0
	addi	a0,a0,-1
.LVL328:
	beq	a0,zero,.L179
.LVL329:
.L183:
	.loc 1 1088 14 is_stmt 1
.LBB97:
.LBB95:
	.loc 1 1597 5
	.loc 1 1600 5
	.loc 1 1603 5
	.loc 1 1603 17 is_stmt 0
	lw	a4,644(a6)
.LVL330:
	.loc 1 1603 88
	srli	a4,a4,8
.LBE95:
.LBE97:
	.loc 1 1088 14
	andi	a4,a4,7
	beq	a4,zero,.L184
	.loc 1 1096 9 is_stmt 1
	.loc 1 1096 37 is_stmt 0
	lw	a0,652(a6)
.LVL331:
	.loc 1 1096 23
	slli	a4,a5,1
	add	a4,a1,a4
	.loc 1 1096 25
	sh	a0,0(a4)
	.loc 1 1086 23 is_stmt 1
	.loc 1 1086 28 is_stmt 0
	addi	a5,a5,2
.LVL332:
	j	.L182
.LVL333:
.L188:
	addi	a0,a7,256
	j	.L183
	.cfi_endproc
.LFE30:
	.size	SPI_Recv_16bits, .-SPI_Recv_16bits
	.section	.text.SPI_Recv_24bits,"ax",@progbits
	.align	1
	.globl	SPI_Recv_24bits
	.type	SPI_Recv_24bits, @function
SPI_Recv_24bits:
.LFB31:
	.loc 1 1114 1 is_stmt 1
	.cfi_startproc
.LVL334:
	.loc 1 1115 5
	.loc 1 1116 5
	.loc 1 1117 5
	.loc 1 1118 5
	.loc 1 1121 5
	.loc 1 1122 5
	.loc 1 1125 5
	.loc 1 1125 12 is_stmt 0
	li	a5,1073782784
	addi	a0,a5,512
.LVL335:
	lw	a4,0(a0)
.LVL336:
	.loc 1 1126 5 is_stmt 1
	.loc 1 1133 12 is_stmt 0
	addi	a5,a5,640
	.loc 1 1126 54
	andi	a4,a4,-13
.LVL337:
	.loc 1 1126 88
	ori	a4,a4,8
	.loc 1 1126 41
	sw	a4,0(a0)
	.loc 1 1129 5 is_stmt 1
	.loc 1 1129 12 is_stmt 0
	lw	a4,0(a0)
.LVL338:
	.loc 1 1130 5 is_stmt 1
	.loc 1 1130 54 is_stmt 0
	andi	a4,a4,-257
.LVL339:
	.loc 1 1130 41
	sw	a4,0(a0)
	.loc 1 1133 5 is_stmt 1
	.loc 1 1133 12 is_stmt 0
	lw	a4,0(a5)
.LVL340:
	.loc 1 1134 5 is_stmt 1
	.loc 1 1135 5
	.loc 1 1135 12 is_stmt 0
	ori	a4,a4,12
.LVL341:
	.loc 1 1136 5 is_stmt 1
	.loc 1 1136 42 is_stmt 0
	sw	a4,0(a5)
	.loc 1 1139 5 is_stmt 1
	.loc 1 1139 12 is_stmt 0
	li	a4,4
.LVL342:
	mv	a5,a2
.LVL343:
	bleu	a2,a4,.L200
	li	a5,4
.L200:
.LVL344:
	.loc 1 1140 5 is_stmt 1
	.loc 1 1140 14 is_stmt 0
	li	a4,0
	.loc 1 1141 46
	li	a0,1073782784
.LVL345:
.L201:
	.loc 1 1140 17 is_stmt 1 discriminator 1
	.loc 1 1140 5 is_stmt 0 discriminator 1
	bne	a4,a5,.L202
	.loc 1 1155 63
	li	a7,16777216
	.loc 1 1145 14
	li	a5,0
.LVL346:
	.loc 1 1145 29
	sub	a4,a2,a4
.LVL347:
	li	t3,159744
.LBB98:
.LBB99:
	.loc 1 1603 17
	li	a6,1073782784
.LBE99:
.LBE98:
	.loc 1 1155 63
	addi	a7,a7,-1
.LVL348:
.L203:
	.loc 1 1145 17 is_stmt 1 discriminator 1
	.loc 1 1145 5 is_stmt 0 discriminator 1
	bgtu	a4,a5,.L213
	.loc 1 1170 63
	li	a0,16777216
	li	t1,159744
.LBB101:
.LBB102:
	.loc 1 1603 17
	li	a7,1073782784
.LBE102:
.LBE101:
	.loc 1 1170 63
	addi	a0,a0,-1
.L208:
	.loc 1 1160 10 is_stmt 1 discriminator 1
	.loc 1 1160 5 is_stmt 0 discriminator 1
	bltu	a5,a2,.L214
	.loc 1 1173 12
	li	a0,0
	ret
.LVL349:
.L202:
	.loc 1 1141 9 is_stmt 1 discriminator 3
	.loc 1 1141 46 is_stmt 0 discriminator 3
	sw	zero,648(a0)
	.loc 1 1140 30 is_stmt 1 discriminator 3
	.loc 1 1140 35 is_stmt 0 discriminator 3
	addi	a4,a4,1
.LVL350:
	j	.L201
.LVL351:
.L206:
	.loc 1 1148 13 is_stmt 1
	.loc 1 1148 15 is_stmt 0
	beq	a3,zero,.L204
	.loc 1 1149 17 is_stmt 1
.LVL352:
	.loc 1 1150 17
	.loc 1 1150 19 is_stmt 0
	addi	t1,t1,-1
.LVL353:
	bne	t1,zero,.L204
.LVL354:
.L205:
	.loc 1 1151 28
	li	a0,2
	.loc 1 1174 1
	ret
.L213:
	addi	t1,t3,256
.L204:
.LVL355:
	.loc 1 1147 14 is_stmt 1
.LBB104:
.LBB100:
	.loc 1 1597 5
	.loc 1 1600 5
	.loc 1 1603 5
	.loc 1 1603 17 is_stmt 0
	lw	a0,644(a6)
.LVL356:
	.loc 1 1603 88
	srli	a0,a0,8
.LBE100:
.LBE104:
	.loc 1 1147 14
	andi	a0,a0,7
	beq	a0,zero,.L206
	.loc 1 1155 9 is_stmt 1 discriminator 2
	.loc 1 1155 26 is_stmt 0 discriminator 2
	lw	t1,652(a6)
.LVL357:
	.loc 1 1155 23 discriminator 2
	slli	a0,a5,2
	add	a0,a1,a0
	.loc 1 1155 63 discriminator 2
	and	t1,t1,a7
	.loc 1 1155 23 discriminator 2
	sw	t1,0(a0)
	.loc 1 1156 9 is_stmt 1 discriminator 2
	.loc 1 1156 46 is_stmt 0 discriminator 2
	sw	zero,648(a6)
	.loc 1 1145 37 is_stmt 1 discriminator 2
	.loc 1 1145 42 is_stmt 0 discriminator 2
	addi	a5,a5,2
.LVL358:
	j	.L203
.LVL359:
.L210:
	.loc 1 1163 13 is_stmt 1
	.loc 1 1163 15 is_stmt 0
	beq	a3,zero,.L209
	.loc 1 1164 17 is_stmt 1
.LVL360:
	.loc 1 1165 17
	.loc 1 1165 19 is_stmt 0
	addi	a6,a6,-1
.LVL361:
	beq	a6,zero,.L205
.LVL362:
.L209:
	.loc 1 1162 14 is_stmt 1
.LBB105:
.LBB103:
	.loc 1 1597 5
	.loc 1 1600 5
	.loc 1 1603 5
	.loc 1 1603 17 is_stmt 0
	lw	a4,644(a7)
.LVL363:
	.loc 1 1603 88
	srli	a4,a4,8
.LBE103:
.LBE105:
	.loc 1 1162 14
	andi	a4,a4,7
	beq	a4,zero,.L210
	.loc 1 1170 9 is_stmt 1
	.loc 1 1170 26 is_stmt 0
	lw	a6,652(a7)
.LVL364:
	.loc 1 1170 23
	slli	a4,a5,2
	add	a4,a1,a4
	.loc 1 1170 63
	and	a6,a6,a0
	.loc 1 1170 23
	sw	a6,0(a4)
	.loc 1 1160 23 is_stmt 1
	.loc 1 1160 28 is_stmt 0
	addi	a5,a5,2
.LVL365:
	j	.L208
.LVL366:
.L214:
	addi	a6,t1,256
	j	.L209
	.cfi_endproc
.LFE31:
	.size	SPI_Recv_24bits, .-SPI_Recv_24bits
	.section	.text.SPI_Recv_32bits,"ax",@progbits
	.align	1
	.globl	SPI_Recv_32bits
	.type	SPI_Recv_32bits, @function
SPI_Recv_32bits:
.LFB32:
	.loc 1 1188 1 is_stmt 1
	.cfi_startproc
.LVL367:
	.loc 1 1189 5
	.loc 1 1190 5
	.loc 1 1191 5
	.loc 1 1192 5
	.loc 1 1195 5
	.loc 1 1196 5
	.loc 1 1199 5
	.loc 1 1199 12 is_stmt 0
	li	a5,1073782784
	addi	a4,a5,512
	lw	a0,0(a4)
.LVL368:
	.loc 1 1200 5 is_stmt 1
	.loc 1 1207 12 is_stmt 0
	addi	a5,a5,640
	.loc 1 1200 88
	ori	a0,a0,12
.LVL369:
	.loc 1 1200 41
	sw	a0,0(a4)
	.loc 1 1203 5 is_stmt 1
	.loc 1 1203 12 is_stmt 0
	lw	a0,0(a4)
.LVL370:
	.loc 1 1204 5 is_stmt 1
	.loc 1 1204 54 is_stmt 0
	andi	a0,a0,-257
.LVL371:
	.loc 1 1204 41
	sw	a0,0(a4)
	.loc 1 1207 5 is_stmt 1
	.loc 1 1207 12 is_stmt 0
	lw	a4,0(a5)
.LVL372:
	.loc 1 1208 5 is_stmt 1
	.loc 1 1209 5
	.loc 1 1209 12 is_stmt 0
	ori	a4,a4,12
.LVL373:
	.loc 1 1210 5 is_stmt 1
	.loc 1 1210 42 is_stmt 0
	sw	a4,0(a5)
	.loc 1 1213 5 is_stmt 1
	.loc 1 1213 12 is_stmt 0
	li	a4,4
.LVL374:
	mv	a5,a2
.LVL375:
	bleu	a2,a4,.L226
	li	a5,4
.L226:
.LVL376:
	.loc 1 1214 5 is_stmt 1
	.loc 1 1214 14 is_stmt 0
	li	a4,0
	.loc 1 1215 46
	li	a0,1073782784
.LVL377:
.L227:
	.loc 1 1214 17 is_stmt 1 discriminator 1
	.loc 1 1214 5 is_stmt 0 discriminator 1
	bne	a4,a5,.L228
	.loc 1 1219 14
	li	a5,0
.LVL378:
	.loc 1 1219 29
	sub	a4,a2,a4
.LVL379:
	li	t1,159744
.LBB106:
.LBB107:
	.loc 1 1603 17
	li	a6,1073782784
.LVL380:
.L229:
.LBE107:
.LBE106:
	.loc 1 1219 17 is_stmt 1 discriminator 1
	.loc 1 1219 5 is_stmt 0 discriminator 1
	bgtu	a4,a5,.L239
	li	a7,159744
.LBB109:
.LBB110:
	.loc 1 1603 17
	li	a6,1073782784
.L234:
.LBE110:
.LBE109:
	.loc 1 1234 10 is_stmt 1 discriminator 1
	.loc 1 1234 5 is_stmt 0 discriminator 1
	bltu	a5,a2,.L240
	.loc 1 1247 12
	li	a0,0
	ret
.LVL381:
.L228:
	.loc 1 1215 9 is_stmt 1 discriminator 3
	.loc 1 1215 46 is_stmt 0 discriminator 3
	sw	zero,648(a0)
	.loc 1 1214 30 is_stmt 1 discriminator 3
	.loc 1 1214 35 is_stmt 0 discriminator 3
	addi	a4,a4,1
.LVL382:
	j	.L227
.LVL383:
.L232:
	.loc 1 1222 13 is_stmt 1
	.loc 1 1222 15 is_stmt 0
	beq	a3,zero,.L230
	.loc 1 1223 17 is_stmt 1
.LVL384:
	.loc 1 1224 17
	.loc 1 1224 19 is_stmt 0
	addi	a7,a7,-1
.LVL385:
	bne	a7,zero,.L230
.LVL386:
.L231:
	.loc 1 1225 28
	li	a0,2
	.loc 1 1248 1
	ret
.L239:
	addi	a7,t1,256
.L230:
.LVL387:
	.loc 1 1221 14 is_stmt 1
.LBB112:
.LBB108:
	.loc 1 1597 5
	.loc 1 1600 5
	.loc 1 1603 5
	.loc 1 1603 17 is_stmt 0
	lw	a0,644(a6)
.LVL388:
	.loc 1 1603 88
	srli	a0,a0,8
.LBE108:
.LBE112:
	.loc 1 1221 14
	andi	a0,a0,7
	beq	a0,zero,.L232
	.loc 1 1229 9 is_stmt 1 discriminator 2
.LVL389:
	.loc 1 1229 26 is_stmt 0 discriminator 2
	lw	a7,652(a6)
.LVL390:
	.loc 1 1229 23 discriminator 2
	slli	a0,a5,2
	add	a0,a1,a0
	sw	a7,0(a0)
	.loc 1 1230 9 is_stmt 1 discriminator 2
	.loc 1 1230 46 is_stmt 0 discriminator 2
	sw	zero,648(a6)
	.loc 1 1219 37 is_stmt 1 discriminator 2
	.loc 1 1219 42 is_stmt 0 discriminator 2
	addi	a5,a5,2
.LVL391:
	j	.L229
.LVL392:
.L236:
	.loc 1 1237 13 is_stmt 1
	.loc 1 1237 15 is_stmt 0
	beq	a3,zero,.L235
	.loc 1 1238 17 is_stmt 1
.LVL393:
	.loc 1 1239 17
	.loc 1 1239 19 is_stmt 0
	addi	a0,a0,-1
.LVL394:
	beq	a0,zero,.L231
.LVL395:
.L235:
	.loc 1 1236 14 is_stmt 1
.LBB113:
.LBB111:
	.loc 1 1597 5
	.loc 1 1600 5
	.loc 1 1603 5
	.loc 1 1603 17 is_stmt 0
	lw	a4,644(a6)
.LVL396:
	.loc 1 1603 88
	srli	a4,a4,8
.LBE111:
.LBE113:
	.loc 1 1236 14
	andi	a4,a4,7
	beq	a4,zero,.L236
	.loc 1 1244 9 is_stmt 1
.LVL397:
	.loc 1 1244 26 is_stmt 0
	lw	a0,652(a6)
.LVL398:
	.loc 1 1244 23
	slli	a4,a5,2
	add	a4,a1,a4
	sw	a0,0(a4)
	.loc 1 1234 23 is_stmt 1
	.loc 1 1234 28 is_stmt 0
	addi	a5,a5,2
.LVL399:
	j	.L234
.LVL400:
.L240:
	addi	a0,a7,256
	j	.L235
	.cfi_endproc
.LFE32:
	.size	SPI_Recv_32bits, .-SPI_Recv_32bits
	.section	.text.SPI_SendRecv_8bits,"ax",@progbits
	.align	1
	.globl	SPI_SendRecv_8bits
	.type	SPI_SendRecv_8bits, @function
SPI_SendRecv_8bits:
.LFB33:
	.loc 1 1263 1 is_stmt 1
	.cfi_startproc
.LVL401:
	.loc 1 1264 5
	.loc 1 1265 5
	.loc 1 1266 5
	.loc 1 1267 5
	.loc 1 1270 5
	.loc 1 1271 5
	.loc 1 1274 5
	.loc 1 1274 12 is_stmt 0
	li	a5,1073782784
	addi	a0,a5,512
.LVL402:
	lw	a6,0(a0)
.LVL403:
	.loc 1 1275 5 is_stmt 1
	.loc 1 1282 12 is_stmt 0
	addi	a5,a5,640
	.loc 1 1275 88
	andi	a6,a6,-13
.LVL404:
	.loc 1 1275 41
	sw	a6,0(a0)
	.loc 1 1278 5 is_stmt 1
	.loc 1 1278 12 is_stmt 0
	lw	a6,0(a0)
.LVL405:
	.loc 1 1279 5 is_stmt 1
	.loc 1 1279 54 is_stmt 0
	andi	a6,a6,-257
.LVL406:
	.loc 1 1279 41
	sw	a6,0(a0)
	.loc 1 1282 5 is_stmt 1
	.loc 1 1282 12 is_stmt 0
	lw	a0,0(a5)
.LVL407:
	.loc 1 1283 5 is_stmt 1
	.loc 1 1284 5
	.loc 1 1284 12 is_stmt 0
	ori	a0,a0,12
.LVL408:
	.loc 1 1285 5 is_stmt 1
	.loc 1 1285 42 is_stmt 0
	sw	a0,0(a5)
	.loc 1 1288 5 is_stmt 1
	.loc 1 1288 12 is_stmt 0
	li	a0,4
.LVL409:
	mv	a5,a3
.LVL410:
	bleu	a3,a0,.L252
	li	a5,4
.L252:
.LVL411:
	.loc 1 1289 5 is_stmt 1
	.loc 1 1289 14 is_stmt 0
	li	a0,0
	.loc 1 1290 46
	li	a6,1073782784
.LVL412:
.L253:
	.loc 1 1289 17 is_stmt 1 discriminator 1
	.loc 1 1289 5 is_stmt 0 discriminator 1
	bne	a0,a5,.L254
	mv	a0,a5
.LVL413:
	li	t3,159744
.LBB114:
.LBB115:
	.loc 1 1603 17
	li	a7,1073782784
.LVL414:
.L255:
.LBE115:
.LBE114:
	.loc 1 1294 10 is_stmt 1 discriminator 1
	.loc 1 1294 5 is_stmt 0 discriminator 1
	bltu	a0,a3,.L265
	sub	a5,a3,a5
	add	a5,a2,a5
	li	a6,159744
	add	a2,a2,a3
.LVL415:
.LBB117:
.LBB118:
	.loc 1 1603 17
	li	a0,1073782784
.LVL416:
.L260:
.LBE118:
.LBE117:
	.loc 1 1309 17 is_stmt 1 discriminator 1
	.loc 1 1309 5 is_stmt 0 discriminator 1
	bne	a5,a2,.L266
	.loc 1 1322 12
	li	a0,0
	ret
.LVL417:
.L254:
	.loc 1 1290 9 is_stmt 1 discriminator 3
	.loc 1 1290 66 is_stmt 0 discriminator 3
	add	a7,a1,a0
	.loc 1 1290 48 discriminator 3
	lbu	a7,0(a7)
	.loc 1 1289 35 discriminator 3
	addi	a0,a0,1
.LVL418:
	.loc 1 1290 46 discriminator 3
	sw	a7,648(a6)
	.loc 1 1289 30 is_stmt 1 discriminator 3
.LVL419:
	j	.L253
.LVL420:
.L258:
	.loc 1 1297 13
	.loc 1 1297 15 is_stmt 0
	beq	a4,zero,.L256
	.loc 1 1298 17 is_stmt 1
.LVL421:
	.loc 1 1299 17
	.loc 1 1299 19 is_stmt 0
	addi	t1,t1,-1
.LVL422:
	bne	t1,zero,.L256
.LVL423:
.L257:
	.loc 1 1300 28
	li	a0,2
	.loc 1 1323 1
	ret
.LVL424:
.L265:
	addi	t1,t3,256
.L256:
.LVL425:
	.loc 1 1296 14 is_stmt 1
.LBB120:
.LBB116:
	.loc 1 1597 5
	.loc 1 1600 5
	.loc 1 1603 5
	.loc 1 1603 17 is_stmt 0
	lw	a6,644(a7)
.LVL426:
	.loc 1 1603 88
	srli	a6,a6,8
.LBE116:
.LBE120:
	.loc 1 1296 14
	andi	a6,a6,7
	beq	a6,zero,.L258
	.loc 1 1304 9 is_stmt 1
	.loc 1 1304 45 is_stmt 0
	lw	t1,652(a7)
.LVL427:
	.loc 1 1304 32
	sub	a6,a0,a5
	add	a6,a2,a6
	.loc 1 1304 34
	sb	t1,0(a6)
	.loc 1 1305 9 is_stmt 1
	.loc 1 1305 66 is_stmt 0
	add	a6,a1,a0
	.loc 1 1305 48
	lbu	a6,0(a6)
	.loc 1 1294 28
	addi	a0,a0,1
.LVL428:
	.loc 1 1305 46
	sw	a6,648(a7)
	.loc 1 1294 23 is_stmt 1
.LVL429:
	j	.L255
.LVL430:
.L262:
	.loc 1 1312 13
	.loc 1 1312 15 is_stmt 0
	beq	a4,zero,.L261
	.loc 1 1313 17 is_stmt 1
.LVL431:
	.loc 1 1314 17
	.loc 1 1314 19 is_stmt 0
	addi	a1,a1,-1
.LVL432:
	beq	a1,zero,.L257
.LVL433:
.L261:
	.loc 1 1311 14 is_stmt 1
.LBB121:
.LBB119:
	.loc 1 1597 5
	.loc 1 1600 5
	.loc 1 1603 5
	.loc 1 1603 17 is_stmt 0
	lw	a3,644(a0)
.LVL434:
	.loc 1 1603 88
	srli	a3,a3,8
.LBE119:
.LBE121:
	.loc 1 1311 14
	andi	a3,a3,7
	beq	a3,zero,.L262
	.loc 1 1319 9 is_stmt 1 discriminator 2
	.loc 1 1319 52 is_stmt 0 discriminator 2
	lw	a3,652(a0)
	addi	a5,a5,1
	.loc 1 1319 41 discriminator 2
	sb	a3,-1(a5)
	.loc 1 1309 30 is_stmt 1 discriminator 2
	j	.L260
.LVL435:
.L266:
	addi	a1,a6,256
	j	.L261
	.cfi_endproc
.LFE33:
	.size	SPI_SendRecv_8bits, .-SPI_SendRecv_8bits
	.section	.text.SPI_SendRecv_16bits,"ax",@progbits
	.align	1
	.globl	SPI_SendRecv_16bits
	.type	SPI_SendRecv_16bits, @function
SPI_SendRecv_16bits:
.LFB34:
	.loc 1 1338 1
	.cfi_startproc
.LVL436:
	.loc 1 1339 5
	.loc 1 1340 5
	.loc 1 1341 5
	.loc 1 1342 5
	.loc 1 1345 5
	.loc 1 1346 5
	.loc 1 1349 5
	.loc 1 1349 12 is_stmt 0
	li	a5,1073782784
	lw	a0,512(a5)
.LVL437:
	.loc 1 1350 5 is_stmt 1
	.loc 1 1357 12 is_stmt 0
	addi	a5,a5,640
	.loc 1 1350 54
	andi	a0,a0,-13
.LVL438:
	.loc 1 1350 88
	ori	a0,a0,4
	.loc 1 1350 41
	sw	a0,-128(a5)
	.loc 1 1353 5 is_stmt 1
	.loc 1 1353 12 is_stmt 0
	lw	a0,-128(a5)
.LVL439:
	.loc 1 1354 5 is_stmt 1
	.loc 1 1354 54 is_stmt 0
	andi	a0,a0,-257
.LVL440:
	.loc 1 1354 41
	sw	a0,-128(a5)
	.loc 1 1357 5 is_stmt 1
	.loc 1 1357 12 is_stmt 0
	lw	a0,0(a5)
.LVL441:
	.loc 1 1358 5 is_stmt 1
	.loc 1 1359 5
	.loc 1 1359 12 is_stmt 0
	ori	a0,a0,12
.LVL442:
	.loc 1 1360 5 is_stmt 1
	.loc 1 1360 42 is_stmt 0
	sw	a0,0(a5)
	.loc 1 1363 5 is_stmt 1
	.loc 1 1363 12 is_stmt 0
	li	a0,4
.LVL443:
	mv	a5,a3
.LVL444:
	bleu	a3,a0,.L278
	li	a5,4
.L278:
.LVL445:
	.loc 1 1364 5 is_stmt 1
	.loc 1 1364 14 is_stmt 0
	li	a0,0
	.loc 1 1365 46
	li	a7,1073782784
.LVL446:
.L279:
	.loc 1 1364 17 is_stmt 1 discriminator 1
	.loc 1 1364 5 is_stmt 0 discriminator 1
	bne	a0,a5,.L280
	.loc 1 1364 5
	mv	a7,a2
	mv	a6,a5
	li	t4,159744
.LBB122:
.LBB123:
	.loc 1 1603 17
	li	t1,1073782784
.LVL447:
.L281:
.LBE123:
.LBE122:
	.loc 1 1369 10 is_stmt 1 discriminator 1
	.loc 1 1369 5 is_stmt 0 discriminator 1
	bltu	a6,a3,.L291
	sub	a5,a3,a5
.LVL448:
	slli	a5,a5,1
	slli	a3,a3,1
.LVL449:
	add	a5,a2,a5
	add	a3,a2,a3
	li	a6,159744
.LVL450:
.LBB125:
.LBB126:
	.loc 1 1603 17
	li	a0,1073782784
.LVL451:
.L286:
.LBE126:
.LBE125:
	.loc 1 1384 17 is_stmt 1 discriminator 1
	.loc 1 1384 5 is_stmt 0 discriminator 1
	bne	a5,a3,.L292
	.loc 1 1397 12
	li	a0,0
	ret
.LVL452:
.L280:
	.loc 1 1365 9 is_stmt 1 discriminator 3
	.loc 1 1365 66 is_stmt 0 discriminator 3
	slli	a6,a0,1
	add	a6,a1,a6
	.loc 1 1365 48 discriminator 3
	lhu	a6,0(a6)
	.loc 1 1364 35 discriminator 3
	addi	a0,a0,1
.LVL453:
	.loc 1 1365 46 discriminator 3
	sw	a6,648(a7)
	.loc 1 1364 30 is_stmt 1 discriminator 3
.LVL454:
	j	.L279
.LVL455:
.L284:
	.loc 1 1372 13
	.loc 1 1372 15 is_stmt 0
	beq	a4,zero,.L282
	.loc 1 1373 17 is_stmt 1
.LVL456:
	.loc 1 1374 17
	.loc 1 1374 19 is_stmt 0
	addi	t3,t3,-1
.LVL457:
	bne	t3,zero,.L282
.LVL458:
.L283:
	.loc 1 1375 28
	li	a0,2
	.loc 1 1398 1
	ret
.LVL459:
.L291:
	addi	t3,t4,256
.L282:
.LVL460:
	.loc 1 1371 14 is_stmt 1
.LBB128:
.LBB124:
	.loc 1 1597 5
	.loc 1 1600 5
	.loc 1 1603 5
	.loc 1 1603 17 is_stmt 0
	lw	a0,644(t1)
.LVL461:
	.loc 1 1603 88
	srli	a0,a0,8
.LBE124:
.LBE128:
	.loc 1 1371 14
	andi	a0,a0,7
	beq	a0,zero,.L284
	.loc 1 1379 9 is_stmt 1
	.loc 1 1379 46 is_stmt 0
	lw	a0,652(t1)
	addi	a7,a7,2
	.loc 1 1379 34
	sh	a0,-2(a7)
	.loc 1 1380 9 is_stmt 1
	.loc 1 1380 66 is_stmt 0
	slli	a0,a6,1
	add	a0,a1,a0
	.loc 1 1380 48
	lhu	a0,0(a0)
	.loc 1 1369 28
	addi	a6,a6,1
.LVL462:
	.loc 1 1380 46
	sw	a0,648(t1)
	.loc 1 1369 23 is_stmt 1
.LVL463:
	j	.L281
.LVL464:
.L288:
	.loc 1 1387 13
	.loc 1 1387 15 is_stmt 0
	beq	a4,zero,.L287
	.loc 1 1388 17 is_stmt 1
.LVL465:
	.loc 1 1389 17
	.loc 1 1389 19 is_stmt 0
	addi	a1,a1,-1
.LVL466:
	beq	a1,zero,.L283
.LVL467:
.L287:
	.loc 1 1386 14 is_stmt 1
.LBB129:
.LBB127:
	.loc 1 1597 5
	.loc 1 1600 5
	.loc 1 1603 5
	.loc 1 1603 17 is_stmt 0
	lw	a2,644(a0)
.LVL468:
	.loc 1 1603 88
	srli	a2,a2,8
.LBE127:
.LBE129:
	.loc 1 1386 14
	andi	a2,a2,7
	beq	a2,zero,.L288
	.loc 1 1394 9 is_stmt 1 discriminator 2
	.loc 1 1394 53 is_stmt 0 discriminator 2
	lw	a2,652(a0)
	addi	a5,a5,2
	.loc 1 1394 41 discriminator 2
	sh	a2,-2(a5)
	.loc 1 1384 30 is_stmt 1 discriminator 2
	j	.L286
.LVL469:
.L292:
	addi	a1,a6,256
	j	.L287
	.cfi_endproc
.LFE34:
	.size	SPI_SendRecv_16bits, .-SPI_SendRecv_16bits
	.section	.text.SPI_SendRecv_24bits,"ax",@progbits
	.align	1
	.globl	SPI_SendRecv_24bits
	.type	SPI_SendRecv_24bits, @function
SPI_SendRecv_24bits:
.LFB35:
	.loc 1 1413 1
	.cfi_startproc
.LVL470:
	.loc 1 1414 5
	.loc 1 1415 5
	.loc 1 1416 5
	.loc 1 1417 5
	.loc 1 1420 5
	.loc 1 1421 5
	.loc 1 1424 5
	.loc 1 1424 12 is_stmt 0
	li	a5,1073782784
	lw	a0,512(a5)
.LVL471:
	.loc 1 1425 5 is_stmt 1
	.loc 1 1432 12 is_stmt 0
	addi	a5,a5,640
	.loc 1 1425 54
	andi	a0,a0,-13
.LVL472:
	.loc 1 1425 88
	ori	a0,a0,8
	.loc 1 1425 41
	sw	a0,-128(a5)
	.loc 1 1428 5 is_stmt 1
	.loc 1 1428 12 is_stmt 0
	lw	a0,-128(a5)
.LVL473:
	.loc 1 1429 5 is_stmt 1
	.loc 1 1429 54 is_stmt 0
	andi	a0,a0,-257
.LVL474:
	.loc 1 1429 41
	sw	a0,-128(a5)
	.loc 1 1432 5 is_stmt 1
	.loc 1 1432 12 is_stmt 0
	lw	a0,0(a5)
.LVL475:
	.loc 1 1433 5 is_stmt 1
	.loc 1 1434 5
	.loc 1 1434 12 is_stmt 0
	ori	a0,a0,12
.LVL476:
	.loc 1 1435 5 is_stmt 1
	.loc 1 1435 42 is_stmt 0
	sw	a0,0(a5)
	.loc 1 1438 5 is_stmt 1
	.loc 1 1438 12 is_stmt 0
	li	a0,4
.LVL477:
	mv	a5,a3
.LVL478:
	bleu	a3,a0,.L304
	li	a5,4
.L304:
.LVL479:
	.loc 1 1439 5 is_stmt 1
	.loc 1 1439 14 is_stmt 0
	li	a0,0
	.loc 1 1440 46
	li	a7,1073782784
.LVL480:
.L305:
	.loc 1 1439 17 is_stmt 1 discriminator 1
	.loc 1 1439 5 is_stmt 0 discriminator 1
	bne	a0,a5,.L306
	.loc 1 1454 72
	li	t3,16777216
	.loc 1 1439 5
	mv	a7,a2
	mv	a6,a5
	li	t5,159744
.LBB130:
.LBB131:
	.loc 1 1603 17
	li	t1,1073782784
.LBE131:
.LBE130:
	.loc 1 1454 72
	addi	t3,t3,-1
.LVL481:
.L307:
	.loc 1 1444 10 is_stmt 1 discriminator 1
	.loc 1 1444 5 is_stmt 0 discriminator 1
	bltu	a6,a3,.L317
	sub	a5,a3,a5
.LVL482:
	slli	a5,a5,2
	slli	a3,a3,2
.LVL483:
	.loc 1 1469 79
	li	a1,16777216
.LVL484:
	add	a5,a2,a5
	add	a3,a2,a3
	li	a7,159744
.LBB133:
.LBB134:
	.loc 1 1603 17
	li	a6,1073782784
.LVL485:
.LBE134:
.LBE133:
	.loc 1 1469 79
	addi	a1,a1,-1
.LVL486:
.L312:
	.loc 1 1459 17 is_stmt 1 discriminator 1
	.loc 1 1459 5 is_stmt 0 discriminator 1
	bne	a5,a3,.L318
	.loc 1 1472 12
	li	a0,0
	ret
.LVL487:
.L306:
	.loc 1 1440 9 is_stmt 1 discriminator 3
	.loc 1 1440 56 is_stmt 0 discriminator 3
	slli	a6,a0,2
	add	a6,a1,a6
	lw	a6,0(a6)
	.loc 1 1439 35 discriminator 3
	addi	a0,a0,1
.LVL488:
	.loc 1 1440 46 discriminator 3
	sw	a6,648(a7)
	.loc 1 1439 30 is_stmt 1 discriminator 3
.LVL489:
	j	.L305
.LVL490:
.L310:
	.loc 1 1447 13
	.loc 1 1447 15 is_stmt 0
	beq	a4,zero,.L308
	.loc 1 1448 17 is_stmt 1
.LVL491:
	.loc 1 1449 17
	.loc 1 1449 19 is_stmt 0
	addi	t4,t4,-1
.LVL492:
	bne	t4,zero,.L308
.LVL493:
.L309:
	.loc 1 1450 28
	li	a0,2
	.loc 1 1473 1
	ret
.LVL494:
.L317:
	addi	t4,t5,256
.L308:
.LVL495:
	.loc 1 1446 14 is_stmt 1
.LBB136:
.LBB132:
	.loc 1 1597 5
	.loc 1 1600 5
	.loc 1 1603 5
	.loc 1 1603 17 is_stmt 0
	lw	a0,644(t1)
.LVL496:
	.loc 1 1603 88
	srli	a0,a0,8
.LBE132:
.LBE136:
	.loc 1 1446 14
	andi	a0,a0,7
	beq	a0,zero,.L310
	.loc 1 1454 9 is_stmt 1
	.loc 1 1454 35 is_stmt 0
	lw	a0,652(t1)
	addi	a7,a7,4
	.loc 1 1454 72
	and	a0,a0,t3
	.loc 1 1454 32
	sw	a0,-4(a7)
	.loc 1 1455 9 is_stmt 1
	.loc 1 1455 56 is_stmt 0
	slli	a0,a6,2
	add	a0,a1,a0
	lw	a0,0(a0)
	.loc 1 1444 28
	addi	a6,a6,1
.LVL497:
	.loc 1 1455 46
	sw	a0,648(t1)
	.loc 1 1444 23 is_stmt 1
.LVL498:
	j	.L307
.LVL499:
.L314:
	.loc 1 1462 13
	.loc 1 1462 15 is_stmt 0
	beq	a4,zero,.L313
	.loc 1 1463 17 is_stmt 1
.LVL500:
	.loc 1 1464 17
	.loc 1 1464 19 is_stmt 0
	addi	a0,a0,-1
.LVL501:
	beq	a0,zero,.L309
.LVL502:
.L313:
	.loc 1 1461 14 is_stmt 1
.LBB137:
.LBB135:
	.loc 1 1597 5
	.loc 1 1600 5
	.loc 1 1603 5
	.loc 1 1603 17 is_stmt 0
	lw	a2,644(a6)
.LVL503:
	.loc 1 1603 88
	srli	a2,a2,8
.LBE135:
.LBE137:
	.loc 1 1461 14
	andi	a2,a2,7
	beq	a2,zero,.L314
	.loc 1 1469 9 is_stmt 1 discriminator 2
	.loc 1 1469 42 is_stmt 0 discriminator 2
	lw	a2,652(a6)
	.loc 1 1469 79 discriminator 2
	and	a2,a2,a1
	.loc 1 1469 39 discriminator 2
	sw	a2,0(a5)
	.loc 1 1459 30 is_stmt 1 discriminator 2
	addi	a5,a5,4
	j	.L312
.LVL504:
.L318:
	addi	a0,a7,256
	j	.L313
	.cfi_endproc
.LFE35:
	.size	SPI_SendRecv_24bits, .-SPI_SendRecv_24bits
	.section	.text.SPI_SendRecv_32bits,"ax",@progbits
	.align	1
	.globl	SPI_SendRecv_32bits
	.type	SPI_SendRecv_32bits, @function
SPI_SendRecv_32bits:
.LFB36:
	.loc 1 1488 1
	.cfi_startproc
.LVL505:
	.loc 1 1489 5
	.loc 1 1490 5
	.loc 1 1491 5
	.loc 1 1492 5
	.loc 1 1495 5
	.loc 1 1496 5
	.loc 1 1499 5
	.loc 1 1499 12 is_stmt 0
	li	a5,1073782784
	addi	a0,a5,512
.LVL506:
	lw	a6,0(a0)
.LVL507:
	.loc 1 1500 5 is_stmt 1
	.loc 1 1507 12 is_stmt 0
	addi	a5,a5,640
	.loc 1 1500 88
	ori	a6,a6,12
.LVL508:
	.loc 1 1500 41
	sw	a6,0(a0)
	.loc 1 1503 5 is_stmt 1
	.loc 1 1503 12 is_stmt 0
	lw	a6,0(a0)
.LVL509:
	.loc 1 1504 5 is_stmt 1
	.loc 1 1504 54 is_stmt 0
	andi	a6,a6,-257
.LVL510:
	.loc 1 1504 41
	sw	a6,0(a0)
	.loc 1 1507 5 is_stmt 1
	.loc 1 1507 12 is_stmt 0
	lw	a0,0(a5)
.LVL511:
	.loc 1 1508 5 is_stmt 1
	.loc 1 1509 5
	.loc 1 1509 12 is_stmt 0
	ori	a0,a0,12
.LVL512:
	.loc 1 1510 5 is_stmt 1
	.loc 1 1510 42 is_stmt 0
	sw	a0,0(a5)
	.loc 1 1513 5 is_stmt 1
	.loc 1 1513 12 is_stmt 0
	li	a0,4
.LVL513:
	mv	a5,a3
.LVL514:
	bleu	a3,a0,.L330
	li	a5,4
.L330:
.LVL515:
	.loc 1 1514 5 is_stmt 1
	.loc 1 1514 14 is_stmt 0
	li	a0,0
	.loc 1 1515 46
	li	a7,1073782784
.LVL516:
.L331:
	.loc 1 1514 17 is_stmt 1 discriminator 1
	.loc 1 1514 5 is_stmt 0 discriminator 1
	bne	a0,a5,.L332
	.loc 1 1514 5
	mv	a7,a2
	mv	a6,a5
	li	t4,159744
.LBB138:
.LBB139:
	.loc 1 1603 17
	li	t1,1073782784
.LVL517:
.L333:
.LBE139:
.LBE138:
	.loc 1 1519 10 is_stmt 1 discriminator 1
	.loc 1 1519 5 is_stmt 0 discriminator 1
	bltu	a6,a3,.L343
	sub	a5,a3,a5
.LVL518:
	slli	a5,a5,2
	slli	a3,a3,2
.LVL519:
	add	a5,a2,a5
	add	a3,a2,a3
	li	a6,159744
.LVL520:
.LBB141:
.LBB142:
	.loc 1 1603 17
	li	a0,1073782784
.LVL521:
.L338:
.LBE142:
.LBE141:
	.loc 1 1534 17 is_stmt 1 discriminator 1
	.loc 1 1534 5 is_stmt 0 discriminator 1
	bne	a5,a3,.L344
	.loc 1 1547 12
	li	a0,0
	ret
.LVL522:
.L332:
	.loc 1 1515 9 is_stmt 1 discriminator 3
	.loc 1 1515 56 is_stmt 0 discriminator 3
	slli	a6,a0,2
	add	a6,a1,a6
	lw	a6,0(a6)
	.loc 1 1514 35 discriminator 3
	addi	a0,a0,1
.LVL523:
	.loc 1 1515 46 discriminator 3
	sw	a6,648(a7)
	.loc 1 1514 30 is_stmt 1 discriminator 3
.LVL524:
	j	.L331
.LVL525:
.L336:
	.loc 1 1522 13
	.loc 1 1522 15 is_stmt 0
	beq	a4,zero,.L334
	.loc 1 1523 17 is_stmt 1
.LVL526:
	.loc 1 1524 17
	.loc 1 1524 19 is_stmt 0
	addi	t3,t3,-1
.LVL527:
	bne	t3,zero,.L334
.LVL528:
.L335:
	.loc 1 1525 28
	li	a0,2
	.loc 1 1548 1
	ret
.LVL529:
.L343:
	addi	t3,t4,256
.L334:
.LVL530:
	.loc 1 1521 14 is_stmt 1
.LBB144:
.LBB140:
	.loc 1 1597 5
	.loc 1 1600 5
	.loc 1 1603 5
	.loc 1 1603 17 is_stmt 0
	lw	a0,644(t1)
.LVL531:
	.loc 1 1603 88
	srli	a0,a0,8
.LBE140:
.LBE144:
	.loc 1 1521 14
	andi	a0,a0,7
	beq	a0,zero,.L336
	.loc 1 1529 9 is_stmt 1
	.loc 1 1529 35 is_stmt 0
	lw	a0,652(t1)
	addi	a7,a7,4
	.loc 1 1529 32
	sw	a0,-4(a7)
	.loc 1 1530 9 is_stmt 1
	.loc 1 1530 56 is_stmt 0
	slli	a0,a6,2
	add	a0,a1,a0
	lw	a0,0(a0)
	.loc 1 1519 28
	addi	a6,a6,1
.LVL532:
	.loc 1 1530 46
	sw	a0,648(t1)
	.loc 1 1519 23 is_stmt 1
.LVL533:
	j	.L333
.LVL534:
.L340:
	.loc 1 1537 13
	.loc 1 1537 15 is_stmt 0
	beq	a4,zero,.L339
	.loc 1 1538 17 is_stmt 1
.LVL535:
	.loc 1 1539 17
	.loc 1 1539 19 is_stmt 0
	addi	a1,a1,-1
.LVL536:
	beq	a1,zero,.L335
.LVL537:
.L339:
	.loc 1 1536 14 is_stmt 1
.LBB145:
.LBB143:
	.loc 1 1597 5
	.loc 1 1600 5
	.loc 1 1603 5
	.loc 1 1603 17 is_stmt 0
	lw	a2,644(a0)
.LVL538:
	.loc 1 1603 88
	srli	a2,a2,8
.LBE143:
.LBE145:
	.loc 1 1536 14
	andi	a2,a2,7
	beq	a2,zero,.L340
	.loc 1 1544 9 is_stmt 1 discriminator 2
	.loc 1 1544 42 is_stmt 0 discriminator 2
	lw	a2,652(a0)
	.loc 1 1544 39 discriminator 2
	sw	a2,0(a5)
	.loc 1 1534 30 is_stmt 1 discriminator 2
	addi	a5,a5,4
	j	.L338
.LVL539:
.L344:
	addi	a1,a6,256
	j	.L339
	.cfi_endproc
.LFE36:
	.size	SPI_SendRecv_32bits, .-SPI_SendRecv_32bits
	.section	.text.SPI_ReceiveData,"ax",@progbits
	.align	1
	.globl	SPI_ReceiveData
	.type	SPI_ReceiveData, @function
SPI_ReceiveData:
.LFB37:
	.loc 1 1559 1
	.cfi_startproc
.LVL540:
	.loc 1 1560 5
	.loc 1 1563 5
	.loc 1 1565 5
	.loc 1 1565 13 is_stmt 0
	li	a5,1073782784
	lw	a0,652(a5)
.LVL541:
	.loc 1 1566 1
	ret
	.cfi_endproc
.LFE37:
	.size	SPI_ReceiveData, .-SPI_ReceiveData
	.section	.text.SPI_GetTxFifoCount,"ax",@progbits
	.align	1
	.globl	SPI_GetTxFifoCount
	.type	SPI_GetTxFifoCount, @function
SPI_GetTxFifoCount:
.LFB38:
	.loc 1 1577 1 is_stmt 1
	.cfi_startproc
.LVL542:
	.loc 1 1578 5
	.loc 1 1581 5
	.loc 1 1584 5
	.loc 1 1584 17 is_stmt 0
	li	a5,1073782784
	lw	a0,644(a5)
.LVL543:
	.loc 1 1585 1
	andi	a0,a0,7
	ret
	.cfi_endproc
.LFE38:
	.size	SPI_GetTxFifoCount, .-SPI_GetTxFifoCount
	.section	.text.SPI_GetRxFifoCount,"ax",@progbits
	.align	1
	.globl	SPI_GetRxFifoCount
	.type	SPI_GetRxFifoCount, @function
SPI_GetRxFifoCount:
.LFB39:
	.loc 1 1596 1 is_stmt 1
	.cfi_startproc
.LVL544:
	.loc 1 1597 5
	.loc 1 1600 5
	.loc 1 1603 5
	.loc 1 1603 17 is_stmt 0
	li	a5,1073782784
	lw	a0,644(a5)
.LVL545:
	.loc 1 1603 88
	srli	a0,a0,8
	.loc 1 1604 1
	andi	a0,a0,7
	ret
	.cfi_endproc
.LFE39:
	.size	SPI_GetRxFifoCount, .-SPI_GetRxFifoCount
	.section	.text.SPI_GetIntStatus,"ax",@progbits
	.align	1
	.globl	SPI_GetIntStatus
	.type	SPI_GetIntStatus, @function
SPI_GetIntStatus:
.LFB40:
	.loc 1 1616 1 is_stmt 1
	.cfi_startproc
.LVL546:
	.loc 1 1617 5
	.loc 1 1618 5
	.loc 1 1621 5
	.loc 1 1622 5
	.loc 1 1625 5
	.loc 1 1625 12 is_stmt 0
	li	a5,1073782784
	lw	a5,516(a5)
.LVL547:
	.loc 1 1626 5 is_stmt 1
	.loc 1 1626 7 is_stmt 0
	li	a4,6
	.loc 1 1627 19
	andi	a0,a5,63
.LVL548:
	.loc 1 1626 7
	beq	a1,a4,.L361
	.loc 1 1634 9 is_stmt 1
	.loc 1 1634 23 is_stmt 0
	li	a0,1
	sll	a0,a0,a1
	.loc 1 1634 19
	and	a0,a0,a5
.L361:
	.loc 1 1634 11
	snez	a0,a0
	.loc 1 1641 1
	ret
	.cfi_endproc
.LFE40:
	.size	SPI_GetIntStatus, .-SPI_GetIntStatus
	.section	.text.SPI_GetBusyStatus,"ax",@progbits
	.align	1
	.globl	SPI_GetBusyStatus
	.type	SPI_GetBusyStatus, @function
SPI_GetBusyStatus:
.LFB41:
	.loc 1 1652 1 is_stmt 1
	.cfi_startproc
.LVL549:
	.loc 1 1653 5
	.loc 1 1654 5
	.loc 1 1657 5
	.loc 1 1660 5
	.loc 1 1660 12 is_stmt 0
	li	a5,1073782784
	lw	a0,520(a5)
.LVL550:
	.loc 1 1661 5 is_stmt 1
	.loc 1 1666 1 is_stmt 0
	andi	a0,a0,1
.LVL551:
	ret
	.cfi_endproc
.LFE41:
	.size	SPI_GetBusyStatus, .-SPI_GetBusyStatus
	.section	.text.SPI_GetFifoStatus,"ax",@progbits
	.align	1
	.globl	SPI_GetFifoStatus
	.type	SPI_GetFifoStatus, @function
SPI_GetFifoStatus:
.LFB42:
	.loc 1 1678 1 is_stmt 1
	.cfi_startproc
.LVL552:
	.loc 1 1679 5
	.loc 1 1680 5
	.loc 1 1683 5
	.loc 1 1684 5
	.loc 1 1687 5
	.loc 1 1687 12 is_stmt 0
	li	a5,1073782784
	lw	a5,640(a5)
.LVL553:
	.loc 1 1688 5 is_stmt 1
	.loc 1 1688 29 is_stmt 0
	addi	a1,a1,4
.LVL554:
	.loc 1 1688 19
	li	a0,1
.LVL555:
	sll	a0,a0,a1
	.loc 1 1688 15
	and	a0,a0,a5
	.loc 1 1693 1
	snez	a0,a0
	ret
	.cfi_endproc
.LFE42:
	.size	SPI_GetFifoStatus, .-SPI_GetFifoStatus
	.text
.Letext0:
	.file 2 "/mnt/d/GitHub/bl_iot_sdk_for_aithinker/toolchain/riscv/Linux/lib/gcc/riscv64-unknown-elf/10.2.0/include/stdint-gcc.h"
	.file 3 "/mnt/d/GitHub/bl_iot_sdk_for_aithinker/components/platform/soc/bl602/bl602_std/bl602_std/Device/Bouffalo/BL602/Peripherals/bl602.h"
	.file 4 "/mnt/d/GitHub/bl_iot_sdk_for_aithinker/components/platform/soc/bl602/bl602_std/bl602_std/StdDriver/Inc/bl602_common.h"
	.file 5 "/mnt/d/GitHub/bl_iot_sdk_for_aithinker/components/platform/soc/bl602/bl602_std/bl602_std/StdDriver/Inc/bl602_spi.h"
	.file 6 "/mnt/d/GitHub/bl_iot_sdk_for_aithinker/components/platform/soc/bl602/bl602_std/bl602_std/StdDriver/Inc/bl602_glb.h"