	.file	"bl602_uart.c"
	.option nopic
	.attribute arch, "rv32i2p0_m2p0_f2p0_c2p0"
	.attribute unaligned_access, 0
	.attribute stack_align, 16
	.text
.Ltext0:
	.cfi_sections	.debug_frame
	.section	.text.UART_Init,"ax",@progbits
	.align	1
	.globl	UART_Init
	.type	UART_Init, @function
UART_Init:
.LFB8:
	.file 1 "/mnt/d/GitHub/bl_iot_sdk_for_aithinker/components/platform/soc/bl602/bl602_std/bl602_std/StdDriver/Src/bl602_uart.c"
	.loc 1 188 1
	.cfi_startproc
.LVL0:
	.loc 1 189 5
	.loc 1 190 5
	.loc 1 191 5
	.loc 1 192 5
	.loc 1 193 5
	.loc 1 193 14 is_stmt 0
	slli	a5,a0,2
	lui	a0,%hi(.LANCHOR0)
.LVL1:
	addi	a0,a0,%lo(.LANCHOR0)
	add	a0,a0,a5
	.loc 1 203 23
	lw	a4,0(a1)
	.loc 1 193 14
	lw	a3,0(a0)
.LVL2:
	.loc 1 196 5 is_stmt 1
	.loc 1 197 5
	.loc 1 198 5
	.loc 1 199 5
	.loc 1 200 5
	.loc 1 203 5
	.loc 1 203 47 is_stmt 0
	lw	a0,4(a1)
.LVL3:
	.loc 1 204 5 is_stmt 1
	.loc 1 203 33 is_stmt 0
	li	a2,10
	.loc 1 204 21
	divu	a5,a4,a0
.LVL4:
	.loc 1 205 5 is_stmt 1
	.loc 1 203 33 is_stmt 0
	mul	a4,a4,a2
.LVL5:
	.loc 1 203 38
	divu	a4,a4,a0
	.loc 1 203 14
	remu	a4,a4,a2
.LVL6:
	.loc 1 205 7
	li	a2,4
	bleu	a4,a2,.L2
	.loc 1 206 9 is_stmt 1
	addi	a5,a5,1
.LVL7:
.L2:
	.loc 1 210 5
	.loc 1 210 61 is_stmt 0
	addi	a5,a5,-1
.LVL8:
	.loc 1 210 64
	slli	a4,a5,16
.LVL9:
	.loc 1 210 92
	slli	a5,a5,16
.LVL10:
	srli	a5,a5,16
	.loc 1 210 71
	or	a5,a4,a5
	.loc 1 210 42
	sw	a5,8(a3)
.LVL11:
	.loc 1 213 5 is_stmt 1
	.loc 1 215 19 is_stmt 0
	lw	a2,16(a1)
	.loc 1 213 17
	lw	a4,0(a3)
.LVL12:
	.loc 1 214 5 is_stmt 1
	.loc 1 214 17 is_stmt 0
	lw	a5,4(a3)
.LVL13:
	.loc 1 215 5 is_stmt 1
	li	a0,1
	beq	a2,a0,.L3
	li	a0,2
	beq	a2,a0,.L4
	bne	a2,zero,.L5
	.loc 1 218 13
	.loc 1 218 25 is_stmt 0
	andi	a4,a4,-17
.LVL14:
	.loc 1 219 13 is_stmt 1
	.loc 1 219 25 is_stmt 0
	andi	a5,a5,-17
.LVL15:
	.loc 1 220 13 is_stmt 1
.L5:
	.loc 1 238 5
	.loc 1 238 101 is_stmt 0
	lw	a2,8(a1)
	.loc 1 238 35
	andi	a4,a4,-1793
.LVL16:
	.loc 1 239 35
	andi	a5,a5,-1793
.LVL17:
	.loc 1 238 101
	addi	a2,a2,4
	.loc 1 238 105
	slli	a2,a2,8
.LVL18:
	.loc 1 239 5 is_stmt 1
	.loc 1 238 17 is_stmt 0
	or	a4,a4,a2
.LVL19:
	.loc 1 239 17
	or	a5,a2,a5
.LVL20:
	.loc 1 242 5 is_stmt 1
	.loc 1 242 35 is_stmt 0
	li	a2,-12288
	addi	a2,a2,-1
	and	a4,a4,a2
.LVL21:
	.loc 1 242 102
	lw	a2,12(a1)
	.loc 1 245 7
	lw	a6,20(a1)
	li	a0,1
	.loc 1 242 102
	slli	a2,a2,12
	.loc 1 242 17
	or	a4,a2,a4
.LVL22:
	.loc 1 245 5 is_stmt 1
	.loc 1 248 21 is_stmt 0
	andi	a2,a4,-3
	.loc 1 245 7
	bne	a6,a0,.L7
	.loc 1 246 9 is_stmt 1
	.loc 1 246 21 is_stmt 0
	ori	a2,a4,2
.LVL23:
.L7:
	.loc 1 252 5 is_stmt 1
	.loc 1 252 7 is_stmt 0
	lw	a0,24(a1)
	li	a4,1
	bne	a0,a4,.L8
	.loc 1 253 9 is_stmt 1
	.loc 1 253 21 is_stmt 0
	li	a4,4096
	addi	a4,a4,-2048
	or	a5,a5,a4
.LVL24:
.L9:
	.loc 1 259 5 is_stmt 1
	.loc 1 259 7 is_stmt 0
	lw	a6,28(a1)
	li	a0,1
	.loc 1 262 21
	andi	a4,a5,-3
	.loc 1 259 7
	bne	a6,a0,.L11
	.loc 1 260 9 is_stmt 1
	.loc 1 260 21 is_stmt 0
	ori	a4,a5,2
.LVL25:
.L11:
	.loc 1 266 5 is_stmt 1
	.loc 1 266 42 is_stmt 0
	sw	a2,0(a3)
	.loc 1 267 5 is_stmt 1
	.loc 1 267 42 is_stmt 0
	sw	a4,4(a3)
	.loc 1 270 5 is_stmt 1
	.loc 1 270 17 is_stmt 0
	lw	a4,12(a3)
.LVL26:
	.loc 1 271 5 is_stmt 1
	.loc 1 271 7 is_stmt 0
	lw	a1,32(a1)
.LVL27:
	li	a2,1
	.loc 1 274 21
	andi	a5,a4,-2
	.loc 1 271 7
	bne	a1,a2,.L13
	.loc 1 272 9 is_stmt 1
	.loc 1 272 21 is_stmt 0
	ori	a5,a4,1
.LVL28:
.L13:
	.loc 1 276 5 is_stmt 1
	.loc 1 276 42 is_stmt 0
	sw	a5,12(a3)
.LVL29:
	.loc 1 282 5 is_stmt 1
	.loc 1 283 1 is_stmt 0
	li	a0,0
	ret
.LVL30:
.L3:
	.loc 1 222 13 is_stmt 1
	.loc 1 223 13
	.loc 1 223 25 is_stmt 0
	ori	a4,a4,48
.LVL31:
	.loc 1 224 13 is_stmt 1
	.loc 1 225 13
	.loc 1 225 25 is_stmt 0
	ori	a5,a5,48
.LVL32:
	.loc 1 226 13 is_stmt 1
	j	.L5
.L4:
	.loc 1 228 13
.LVL33:
	.loc 1 229 13
	andi	a4,a4,-33
.LVL34:
	andi	a5,a5,-33
.LVL35:
	.loc 1 229 25 is_stmt 0
	ori	a4,a4,16
.LVL36:
	.loc 1 230 13 is_stmt 1
	.loc 1 231 13
	.loc 1 231 25 is_stmt 0
	ori	a5,a5,16
.LVL37:
	.loc 1 232 13 is_stmt 1
	j	.L5
.LVL38:
.L8:
	.loc 1 255 9
	.loc 1 255 21 is_stmt 0
	li	a4,-4096
	addi	a4,a4,2047
	and	a5,a5,a4
.LVL39:
	j	.L9
	.cfi_endproc
.LFE8:
	.size	UART_Init, .-UART_Init
	.section	.text.UART_DeInit,"ax",@progbits
	.align	1
	.globl	UART_DeInit
	.type	UART_DeInit, @function
UART_DeInit:
.LFB9:
	.loc 1 294 1 is_stmt 1
	.cfi_startproc
.LVL40:
	.loc 1 295 5
	.loc 1 294 1 is_stmt 0
	addi	sp,sp,-16
	.cfi_def_cfa_offset 16
	sw	ra,12(sp)
	.cfi_offset 1, -4
	.loc 1 295 7
	bne	a0,zero,.L15
	.loc 1 296 9 is_stmt 1
	li	a0,16
.LVL41:
.L18:
	.loc 1 298 9 is_stmt 0
	call	GLB_AHB_Slave1_Reset
.LVL42:
.L16:
	.loc 1 301 5 is_stmt 1
	.loc 1 302 1 is_stmt 0
	lw	ra,12(sp)
	.cfi_remember_state
	.cfi_restore 1
	li	a0,0
	addi	sp,sp,16
	.cfi_def_cfa_offset 0
	jr	ra
.LVL43:
.L15:
	.cfi_restore_state
	.loc 1 297 11 is_stmt 1
	.loc 1 297 13 is_stmt 0
	li	a5,1
	bne	a0,a5,.L16
	.loc 1 298 9 is_stmt 1
	li	a0,17
.LVL44:
	j	.L18
	.cfi_endproc
.LFE9:
	.size	UART_DeInit, .-UART_DeInit
	.section	.text.UART_FifoConfig,"ax",@progbits
	.align	1
	.globl	UART_FifoConfig
	.type	UART_FifoConfig, @function
UART_FifoConfig:
.LFB10:
	.loc 1 314 1
	.cfi_startproc
.LVL45:
	.loc 1 315 5
	.loc 1 316 5
	.loc 1 316 14 is_stmt 0
	slli	a5,a0,2
	lui	a0,%hi(.LANCHOR0)
.LVL46:
	addi	a0,a0,%lo(.LANCHOR0)
	add	a0,a0,a5
	lw	a3,0(a0)
.LVL47:
	.loc 1 319 5 is_stmt 1
	.loc 1 322 5
	.loc 1 324 25 is_stmt 0
	li	a4,-2031616
	addi	a4,a4,-1
	.loc 1 322 12
	lw	a5,132(a3)
.LVL48:
	.loc 1 324 5 is_stmt 1
	.loc 1 332 7 is_stmt 0
	li	a2,1
	.loc 1 324 25
	and	a4,a5,a4
.LVL49:
	.loc 1 326 5 is_stmt 1
	.loc 1 324 81 is_stmt 0
	lbu	a5,0(a1)
	.loc 1 324 101
	addi	a5,a5,-1
	.loc 1 324 104
	slli	a5,a5,16
	.loc 1 324 12
	or	a5,a5,a4
	.loc 1 326 25
	li	a4,-520093696
.LVL50:
	addi	a4,a4,-1
	and	a5,a5,a4
	.loc 1 326 81
	lbu	a4,1(a1)
	.loc 1 326 101
	addi	a4,a4,-1
	.loc 1 326 104
	slli	a4,a4,24
	.loc 1 326 12
	or	a5,a4,a5
.LVL51:
	.loc 1 328 5 is_stmt 1
	.loc 1 328 43 is_stmt 0
	sw	a5,132(a3)
	.loc 1 331 5 is_stmt 1
	.loc 1 331 12 is_stmt 0
	lw	a4,128(a3)
.LVL52:
	.loc 1 332 5 is_stmt 1
	.loc 1 332 7 is_stmt 0
	lw	a0,4(a1)
	.loc 1 335 16
	andi	a5,a4,-2
	.loc 1 332 7
	bne	a0,a2,.L21
	.loc 1 333 9 is_stmt 1
	.loc 1 333 16 is_stmt 0
	ori	a5,a4,1
.LVL53:
.L21:
	.loc 1 337 5 is_stmt 1
	.loc 1 337 7 is_stmt 0
	lw	a1,8(a1)
.LVL54:
	li	a2,1
	.loc 1 340 16
	andi	a4,a5,-3
	.loc 1 337 7
	bne	a1,a2,.L23
	.loc 1 338 9 is_stmt 1
	.loc 1 338 16 is_stmt 0
	ori	a4,a5,2
.LVL55:
.L23:
	.loc 1 342 5 is_stmt 1
	.loc 1 342 43 is_stmt 0
	sw	a4,128(a3)
	.loc 1 344 5 is_stmt 1
	.loc 1 345 1 is_stmt 0
	li	a0,0
	ret
	.cfi_endproc
.LFE10:
	.size	UART_FifoConfig, .-UART_FifoConfig
	.section	.text.UART_IrConfig,"ax",@progbits
	.align	1
	.globl	UART_IrConfig
	.type	UART_IrConfig, @function
UART_IrConfig:
.LFB11:
	.loc 1 357 1 is_stmt 1
	.cfi_startproc
.LVL56:
	.loc 1 358 5
	.loc 1 359 5
	.loc 1 359 14 is_stmt 0
	slli	a5,a0,2
	lui	a0,%hi(.LANCHOR0)
.LVL57:
	addi	a0,a0,%lo(.LANCHOR0)
	add	a0,a0,a5
	lw	a5,0(a0)
.LVL58:
	.loc 1 362 5 is_stmt 1
	.loc 1 365 5
	.loc 1 366 7 is_stmt 0
	lw	a0,0(a1)
	li	a2,1
	.loc 1 365 12
	lw	a3,0(a5)
.LVL59:
	.loc 1 366 5 is_stmt 1
	.loc 1 369 16 is_stmt 0
	andi	a4,a3,-65
	.loc 1 366 7
	bne	a0,a2,.L26
	.loc 1 367 9 is_stmt 1
	.loc 1 367 16 is_stmt 0
	ori	a4,a3,64
.LVL60:
.L26:
	.loc 1 371 5 is_stmt 1
	.loc 1 371 7 is_stmt 0
	lw	a0,8(a1)
	li	a2,1
	.loc 1 374 16
	andi	a3,a4,-129
	.loc 1 371 7
	bne	a0,a2,.L28
	.loc 1 372 9 is_stmt 1
	.loc 1 372 16 is_stmt 0
	ori	a3,a4,128
.LVL61:
.L28:
	.loc 1 376 5 is_stmt 1
	.loc 1 376 42 is_stmt 0
	sw	a3,0(a5)
	.loc 1 379 5 is_stmt 1
	.loc 1 379 12 is_stmt 0
	lw	a3,4(a5)
.LVL62:
	.loc 1 380 5 is_stmt 1
	.loc 1 380 7 is_stmt 0
	lw	a0,4(a1)
	li	a2,1
	.loc 1 383 16
	andi	a4,a3,-65
	.loc 1 380 7
	bne	a0,a2,.L30
	.loc 1 381 9 is_stmt 1
	.loc 1 381 16 is_stmt 0
	ori	a4,a3,64
.LVL63:
.L30:
	.loc 1 385 5 is_stmt 1
	.loc 1 385 7 is_stmt 0
	lw	a0,12(a1)
	li	a2,1
	.loc 1 388 16
	andi	a3,a4,-129
	.loc 1 385 7
	bne	a0,a2,.L32
	.loc 1 386 9 is_stmt 1
	.loc 1 386 16 is_stmt 0
	ori	a3,a4,128
.LVL64:
.L32:
	.loc 1 390 5 is_stmt 1
	.loc 1 390 42 is_stmt 0
	sw	a3,4(a5)
	.loc 1 393 5 is_stmt 1
	lw	a4,16(a1)
	.loc 1 399 1 is_stmt 0
	li	a0,0
	.loc 1 393 43
	sw	a4,16(a5)
	.loc 1 396 5 is_stmt 1
	.loc 1 396 50 is_stmt 0
	lhu	a4,20(a1)
	.loc 1 396 43
	sw	a4,20(a5)
	.loc 1 398 5 is_stmt 1
	.loc 1 399 1 is_stmt 0
	ret
	.cfi_endproc
.LFE11:
	.size	UART_IrConfig, .-UART_IrConfig
	.section	.text.UART_Enable,"ax",@progbits
	.align	1
	.globl	UART_Enable
	.type	UART_Enable, @function
UART_Enable:
.LFB12:
	.loc 1 411 1 is_stmt 1
	.cfi_startproc
.LVL65:
	.loc 1 412 5
	.loc 1 413 5
	.loc 1 413 14 is_stmt 0
	slli	a5,a0,2
	lui	a0,%hi(.LANCHOR0)
.LVL66:
	addi	a0,a0,%lo(.LANCHOR0)
	add	a0,a0,a5
	.loc 1 419 7
	andi	a4,a1,-3
	.loc 1 413 14
	lw	a5,0(a0)
.LVL67:
	.loc 1 416 5 is_stmt 1
	.loc 1 417 5
	.loc 1 419 5
	.loc 1 419 7 is_stmt 0
	bne	a4,zero,.L34
	.loc 1 421 9 is_stmt 1
	.loc 1 421 16 is_stmt 0
	lw	a4,0(a5)
.LVL68:
	.loc 1 422 9 is_stmt 1
	.loc 1 422 59 is_stmt 0
	ori	a4,a4,1
.LVL69:
	.loc 1 422 46
	sw	a4,0(a5)
.L34:
	.loc 1 425 5 is_stmt 1
	.loc 1 425 26 is_stmt 0
	addi	a1,a1,-1
.LVL70:
	.loc 1 425 7
	li	a4,1
	bgtu	a1,a4,.L35
	.loc 1 427 9 is_stmt 1
	.loc 1 427 16 is_stmt 0
	lw	a4,4(a5)
.LVL71:
	.loc 1 428 9 is_stmt 1
	.loc 1 428 59 is_stmt 0
	ori	a4,a4,1
.LVL72:
	.loc 1 428 46
	sw	a4,4(a5)
.L35:
	.loc 1 431 5 is_stmt 1
	.loc 1 432 1 is_stmt 0
	li	a0,0
	ret
	.cfi_endproc
.LFE12:
	.size	UART_Enable, .-UART_Enable
	.section	.text.UART_Disable,"ax",@progbits
	.align	1
	.globl	UART_Disable
	.type	UART_Disable, @function
UART_Disable:
.LFB13:
	.loc 1 444 1 is_stmt 1
	.cfi_startproc
.LVL73:
	.loc 1 445 5
	.loc 1 446 5
	.loc 1 446 14 is_stmt 0
	slli	a5,a0,2
	lui	a0,%hi(.LANCHOR0)
.LVL74:
	addi	a0,a0,%lo(.LANCHOR0)
	add	a0,a0,a5
	.loc 1 452 7
	andi	a4,a1,-3
	.loc 1 446 14
	lw	a5,0(a0)
.LVL75:
	.loc 1 449 5 is_stmt 1
	.loc 1 450 5
	.loc 1 452 5
	.loc 1 452 7 is_stmt 0
	bne	a4,zero,.L37
	.loc 1 454 9 is_stmt 1
	.loc 1 454 16 is_stmt 0
	lw	a4,0(a5)
.LVL76:
	.loc 1 455 9 is_stmt 1
	.loc 1 455 59 is_stmt 0
	andi	a4,a4,-2
.LVL77:
	.loc 1 455 46
	sw	a4,0(a5)
.L37:
	.loc 1 458 5 is_stmt 1
	.loc 1 458 26 is_stmt 0
	addi	a1,a1,-1
.LVL78:
	.loc 1 458 7
	li	a4,1
	bgtu	a1,a4,.L38
	.loc 1 460 9 is_stmt 1
	.loc 1 460 16 is_stmt 0
	lw	a4,4(a5)
.LVL79:
	.loc 1 461 9 is_stmt 1
	.loc 1 461 59 is_stmt 0
	andi	a4,a4,-2
.LVL80:
	.loc 1 461 46
	sw	a4,4(a5)
.L38:
	.loc 1 464 5 is_stmt 1
	.loc 1 465 1 is_stmt 0
	li	a0,0
	ret
	.cfi_endproc
.LFE13:
	.size	UART_Disable, .-UART_Disable
	.section	.text.UART_SetTxDataLength,"ax",@progbits
	.align	1
	.globl	UART_SetTxDataLength
	.type	UART_SetTxDataLength, @function
UART_SetTxDataLength:
.LFB14:
	.loc 1 478 1 is_stmt 1
	.cfi_startproc
.LVL81:
	.loc 1 479 5
	.loc 1 480 5
	.loc 1 483 5
	.loc 1 486 5
	.loc 1 480 14 is_stmt 0
	slli	a5,a0,2
	lui	a0,%hi(.LANCHOR0)
.LVL82:
	addi	a0,a0,%lo(.LANCHOR0)
	add	a0,a0,a5
	.loc 1 486 17
	lw	a4,0(a0)
	.loc 1 487 111
	addi	a1,a1,-1
.LVL83:
	.loc 1 487 114
	slli	a1,a1,16
	.loc 1 486 12
	lw	a5,0(a4)
.LVL84:
	.loc 1 487 5 is_stmt 1
	.loc 1 490 1 is_stmt 0
	li	a0,0
	.loc 1 487 55
	slli	a5,a5,16
.LVL85:
	srli	a5,a5,16
	.loc 1 487 91
	or	a1,a1,a5
	.loc 1 487 42
	sw	a1,0(a4)
	.loc 1 489 5 is_stmt 1
	.loc 1 490 1 is_stmt 0
	ret
	.cfi_endproc
.LFE14:
	.size	UART_SetTxDataLength, .-UART_SetTxDataLength
	.section	.text.UART_SetRxDataLength,"ax",@progbits
	.align	1
	.globl	UART_SetRxDataLength
	.type	UART_SetRxDataLength, @function
UART_SetRxDataLength:
.LFB15:
	.loc 1 503 1 is_stmt 1
	.cfi_startproc
.LVL86:
	.loc 1 504 5
	.loc 1 505 5
	.loc 1 508 5
	.loc 1 511 5
	.loc 1 505 14 is_stmt 0
	slli	a5,a0,2
	lui	a0,%hi(.LANCHOR0)
.LVL87:
	addi	a0,a0,%lo(.LANCHOR0)
	add	a0,a0,a5
	.loc 1 511 43
	lw	a4,0(a0)
	.loc 1 512 111
	addi	a1,a1,-1
.LVL88:
	.loc 1 512 114
	slli	a1,a1,16
	.loc 1 511 12
	lw	a5,4(a4)
.LVL89:
	.loc 1 512 5 is_stmt 1
	.loc 1 515 1 is_stmt 0
	li	a0,0
	.loc 1 512 55
	slli	a5,a5,16
.LVL90:
	srli	a5,a5,16
	.loc 1 512 91
	or	a1,a1,a5
	.loc 1 512 42
	sw	a1,4(a4)
	.loc 1 514 5 is_stmt 1
	.loc 1 515 1 is_stmt 0
	ret
	.cfi_endproc
.LFE15:
	.size	UART_SetRxDataLength, .-UART_SetRxDataLength
	.section	.text.UART_SetRxTimeoutValue,"ax",@progbits
	.align	1
	.globl	UART_SetRxTimeoutValue
	.type	UART_SetRxTimeoutValue, @function
UART_SetRxTimeoutValue:
.LFB16:
	.loc 1 527 1 is_stmt 1
	.cfi_startproc
.LVL91:
	.loc 1 528 5
	.loc 1 529 5
	.loc 1 532 5
	.loc 1 535 5
	.loc 1 528 14 is_stmt 0
	slli	a5,a0,2
	lui	a0,%hi(.LANCHOR0)
.LVL92:
	addi	a0,a0,%lo(.LANCHOR0)
	add	a0,a0,a5
	.loc 1 535 43
	lw	a4,0(a0)
	.loc 1 536 77
	addi	a1,a1,-1
.LVL93:
	.loc 1 540 1
	li	a0,0
	.loc 1 535 12
	lw	a5,24(a4)
.LVL94:
	.loc 1 536 5 is_stmt 1
	.loc 1 536 25 is_stmt 0
	andi	a5,a5,-256
.LVL95:
	.loc 1 536 12
	or	a1,a1,a5
.LVL96:
	.loc 1 537 5 is_stmt 1
	.loc 1 537 43 is_stmt 0
	sw	a1,24(a4)
	.loc 1 539 5 is_stmt 1
	.loc 1 540 1 is_stmt 0
	ret
	.cfi_endproc
.LFE16:
	.size	UART_SetRxTimeoutValue, .-UART_SetRxTimeoutValue
	.section	.text.UART_SetDeglitchCount,"ax",@progbits
	.align	1
	.globl	UART_SetDeglitchCount
	.type	UART_SetDeglitchCount, @function
UART_SetDeglitchCount:
.LFB17:
	.loc 1 552 1 is_stmt 1
	.cfi_startproc
.LVL97:
	.loc 1 553 5
	.loc 1 554 5
	.loc 1 557 5
	.loc 1 560 5
	.loc 1 553 14 is_stmt 0
	slli	a5,a0,2
	lui	a0,%hi(.LANCHOR0)
.LVL98:
	addi	a0,a0,%lo(.LANCHOR0)
	add	a0,a0,a5
	.loc 1 560 43
	lw	a3,0(a0)
	.loc 1 561 25
	li	a4,-61440
	addi	a4,a4,-1
	.loc 1 560 12
	lw	a5,4(a3)
.LVL99:
	.loc 1 561 5 is_stmt 1
	.loc 1 561 86 is_stmt 0
	slli	a1,a1,12
.LVL100:
	.loc 1 565 1
	li	a0,0
	.loc 1 561 25
	and	a5,a5,a4
.LVL101:
	.loc 1 561 12
	or	a1,a1,a5
.LVL102:
	.loc 1 562 5 is_stmt 1
	.loc 1 562 42 is_stmt 0
	sw	a1,4(a3)
	.loc 1 564 5 is_stmt 1
	.loc 1 565 1 is_stmt 0
	ret
	.cfi_endproc
.LFE17:
	.size	UART_SetDeglitchCount, .-UART_SetDeglitchCount
	.section	.text.UART_SetRtsValue,"ax",@progbits
	.align	1
	.globl	UART_SetRtsValue
	.type	UART_SetRtsValue, @function
UART_SetRtsValue:
.LFB19:
	.loc 1 602 1 is_stmt 1
	.cfi_startproc
.LVL103:
	.loc 1 603 5
	.loc 1 604 5
	.loc 1 607 5
	.loc 1 610 5
	.loc 1 603 14 is_stmt 0
	slli	a5,a0,2
	lui	a0,%hi(.LANCHOR0)
.LVL104:
	addi	a0,a0,%lo(.LANCHOR0)
	add	a0,a0,a5
	.loc 1 610 43
	lw	a4,0(a0)
	.loc 1 614 1
	li	a0,0
	.loc 1 610 12
	lw	a5,4(a4)
.LVL105:
	.loc 1 611 5 is_stmt 1
	.loc 1 611 55 is_stmt 0
	ori	a5,a5,4
.LVL106:
	.loc 1 611 42
	sw	a5,4(a4)
	.loc 1 613 5 is_stmt 1
	.loc 1 614 1 is_stmt 0
	ret
	.cfi_endproc
.LFE19:
	.size	UART_SetRtsValue, .-UART_SetRtsValue
	.section	.text.UART_ClrRtsValue,"ax",@progbits
	.align	1
	.globl	UART_ClrRtsValue
	.type	UART_ClrRtsValue, @function
UART_ClrRtsValue:
.LFB20:
	.loc 1 625 1 is_stmt 1
	.cfi_startproc
.LVL107:
	.loc 1 626 5
	.loc 1 627 5
	.loc 1 630 5
	.loc 1 633 5
	.loc 1 626 14 is_stmt 0
	slli	a5,a0,2
	lui	a0,%hi(.LANCHOR0)
.LVL108:
	addi	a0,a0,%lo(.LANCHOR0)
	add	a0,a0,a5
	.loc 1 633 43
	lw	a4,0(a0)
	.loc 1 637 1
	li	a0,0
	.loc 1 633 12
	lw	a5,4(a4)
.LVL109:
	.loc 1 634 5 is_stmt 1
	.loc 1 634 55 is_stmt 0
	andi	a5,a5,-5
.LVL110:
	.loc 1 634 42
	sw	a5,4(a4)
	.loc 1 636 5 is_stmt 1
	.loc 1 637 1 is_stmt 0
	ret
	.cfi_endproc
.LFE20:
	.size	UART_ClrRtsValue, .-UART_ClrRtsValue
	.section	.text.UART_TxFreeRun,"ax",@progbits
	.align	1
	.globl	UART_TxFreeRun
	.type	UART_TxFreeRun, @function
UART_TxFreeRun:
.LFB21:
	.loc 1 649 1 is_stmt 1
	.cfi_startproc
.LVL111:
	.loc 1 650 5
	.loc 1 651 5
	.loc 1 654 5
	.loc 1 657 5
	.loc 1 651 14 is_stmt 0
	slli	a5,a0,2
	lui	a0,%hi(.LANCHOR0)
.LVL112:
	addi	a0,a0,%lo(.LANCHOR0)
	add	a0,a0,a5
	.loc 1 657 17
	lw	a4,0(a0)
	.loc 1 658 7
	li	a3,1
	.loc 1 657 12
	lw	a5,0(a4)
.LVL113:
	.loc 1 658 5 is_stmt 1
	.loc 1 658 7 is_stmt 0
	bne	a1,a3,.L46
	.loc 1 659 9 is_stmt 1
	.loc 1 659 59 is_stmt 0
	ori	a5,a5,4
.LVL114:
.L48:
	.loc 1 661 46
	sw	a5,0(a4)
	.loc 1 664 5 is_stmt 1
	.loc 1 665 1 is_stmt 0
	li	a0,0
	ret
.LVL115:
.L46:
	.loc 1 661 9 is_stmt 1
	.loc 1 661 59 is_stmt 0
	andi	a5,a5,-5
.LVL116:
	j	.L48
	.cfi_endproc
.LFE21:
	.size	UART_TxFreeRun, .-UART_TxFreeRun
	.section	.text.UART_AutoBaudDetection,"ax",@progbits
	.align	1
	.globl	UART_AutoBaudDetection
	.type	UART_AutoBaudDetection, @function
UART_AutoBaudDetection:
.LFB22:
	.loc 1 677 1 is_stmt 1
	.cfi_startproc
.LVL117:
	.loc 1 678 5
	.loc 1 679 5
	.loc 1 682 5
	.loc 1 685 5
	.loc 1 679 14 is_stmt 0
	slli	a5,a0,2
	lui	a0,%hi(.LANCHOR0)
.LVL118:
	addi	a0,a0,%lo(.LANCHOR0)
	add	a0,a0,a5
	.loc 1 685 43
	lw	a4,0(a0)
	.loc 1 686 7
	li	a3,1
	.loc 1 685 12
	lw	a5,4(a4)
.LVL119:
	.loc 1 686 5 is_stmt 1
	.loc 1 686 7 is_stmt 0
	bne	a1,a3,.L50
	.loc 1 687 9 is_stmt 1
	.loc 1 687 59 is_stmt 0
	ori	a5,a5,8
.LVL120:
.L52:
	.loc 1 689 46
	sw	a5,4(a4)
	.loc 1 692 5 is_stmt 1
	.loc 1 693 1 is_stmt 0
	li	a0,0
	ret
.LVL121:
.L50:
	.loc 1 689 9 is_stmt 1
	.loc 1 689 59 is_stmt 0
	andi	a5,a5,-9
.LVL122:
	j	.L52
	.cfi_endproc
.LFE22:
	.size	UART_AutoBaudDetection, .-UART_AutoBaudDetection
	.section	.text.UART_TxFifoClear,"ax",@progbits
	.align	1
	.globl	UART_TxFifoClear
	.type	UART_TxFifoClear, @function
UART_TxFifoClear:
.LFB23:
	.loc 1 704 1 is_stmt 1
	.cfi_startproc
.LVL123:
	.loc 1 705 5
	.loc 1 706 5
	.loc 1 709 5
	.loc 1 712 5
	.loc 1 706 14 is_stmt 0
	slli	a5,a0,2
	lui	a0,%hi(.LANCHOR0)
.LVL124:
	addi	a0,a0,%lo(.LANCHOR0)
	add	a0,a0,a5
	.loc 1 712 43
	lw	a4,0(a0)
	.loc 1 716 1
	li	a0,0
	.loc 1 712 12
	lw	a5,128(a4)
.LVL125:
	.loc 1 713 5 is_stmt 1
	.loc 1 713 56 is_stmt 0
	ori	a5,a5,4
.LVL126:
	.loc 1 713 43
	sw	a5,128(a4)
	.loc 1 715 5 is_stmt 1
	.loc 1 716 1 is_stmt 0
	ret
	.cfi_endproc
.LFE23:
	.size	UART_TxFifoClear, .-UART_TxFifoClear
	.section	.text.UART_RxFifoClear,"ax",@progbits
	.align	1
	.globl	UART_RxFifoClear
	.type	UART_RxFifoClear, @function
UART_RxFifoClear:
.LFB24:
	.loc 1 727 1 is_stmt 1
	.cfi_startproc
.LVL127:
	.loc 1 728 5
	.loc 1 729 5
	.loc 1 732 5
	.loc 1 735 5
	.loc 1 729 14 is_stmt 0
	slli	a5,a0,2
	lui	a0,%hi(.LANCHOR0)
.LVL128:
	addi	a0,a0,%lo(.LANCHOR0)
	add	a0,a0,a5
	.loc 1 735 43
	lw	a4,0(a0)
	.loc 1 739 1
	li	a0,0
	.loc 1 735 12
	lw	a5,128(a4)
.LVL129:
	.loc 1 736 5 is_stmt 1
	.loc 1 736 56 is_stmt 0
	ori	a5,a5,8
.LVL130:
	.loc 1 736 43
	sw	a5,128(a4)
	.loc 1 738 5 is_stmt 1
	.loc 1 739 1 is_stmt 0
	ret
	.cfi_endproc
.LFE24:
	.size	UART_RxFifoClear, .-UART_RxFifoClear
	.section	.text.UART_IntMask,"ax",@progbits
	.align	1
	.globl	UART_IntMask
	.type	UART_IntMask, @function
UART_IntMask:
.LFB25:
	.loc 1 752 1 is_stmt 1
	.cfi_startproc
.LVL131:
	.loc 1 753 5
	.loc 1 754 5
	.loc 1 757 5
	.loc 1 758 5
	.loc 1 759 5
	.loc 1 761 5
	.loc 1 754 14 is_stmt 0
	slli	a5,a0,2
	lui	a0,%hi(.LANCHOR0)
.LVL132:
	addi	a0,a0,%lo(.LANCHOR0)
	add	a0,a0,a5
	.loc 1 761 43
	lw	a4,0(a0)
	.loc 1 764 7
	li	a3,8
	.loc 1 761 12
	lw	a5,36(a4)
.LVL133:
	.loc 1 764 5 is_stmt 1
	.loc 1 764 7 is_stmt 0
	bne	a1,a3,.L56
	.loc 1 765 9 is_stmt 1
	.loc 1 765 11 is_stmt 0
	li	a3,1
	.loc 1 768 20
	li	a1,0
.LVL134:
	.loc 1 765 11
	bne	a2,a3,.L57
	.loc 1 766 13 is_stmt 1
	.loc 1 766 20 is_stmt 0
	ori	a1,a5,255
.LVL135:
.L57:
	.loc 1 779 5 is_stmt 1
	.loc 1 779 43 is_stmt 0
	sw	a1,36(a4)
	.loc 1 781 5 is_stmt 1
	.loc 1 782 1 is_stmt 0
	li	a0,0
	ret
.LVL136:
.L56:
	.loc 1 771 9 is_stmt 1
	.loc 1 772 24 is_stmt 0
	li	a3,1
	sll	a1,a3,a1
.LVL137:
	.loc 1 771 11
	bne	a2,a3,.L58
	.loc 1 772 13 is_stmt 1
	.loc 1 772 20 is_stmt 0
	or	a1,a1,a5
.LVL138:
	j	.L57
.LVL139:
.L58:
	.loc 1 774 13 is_stmt 1
	.loc 1 774 23 is_stmt 0
	not	a1,a1
	.loc 1 774 20
	and	a1,a1,a5
.LVL140:
	j	.L57
	.cfi_endproc
.LFE25:
	.size	UART_IntMask, .-UART_IntMask
	.section	.text.UART_IntClear,"ax",@progbits
	.align	1
	.globl	UART_IntClear
	.type	UART_IntClear, @function
UART_IntClear:
.LFB26:
	.loc 1 794 1 is_stmt 1
	.cfi_startproc
.LVL141:
	.loc 1 795 5
	.loc 1 796 5
	.loc 1 799 5
	.loc 1 800 5
	.loc 1 802 5
	.loc 1 796 14 is_stmt 0
	slli	a5,a0,2
	lui	a0,%hi(.LANCHOR0)
.LVL142:
	addi	a0,a0,%lo(.LANCHOR0)
	add	a0,a0,a5
	.loc 1 802 43
	lw	a3,0(a0)
	.loc 1 805 7
	li	a4,8
	.loc 1 802 12
	lw	a5,40(a3)
.LVL143:
	.loc 1 805 5 is_stmt 1
	.loc 1 805 7 is_stmt 0
	bne	a1,a4,.L61
	.loc 1 806 9 is_stmt 1
	.loc 1 806 16 is_stmt 0
	ori	a1,a5,255
.LVL144:
.L62:
	.loc 1 812 5 is_stmt 1
	.loc 1 812 43 is_stmt 0
	sw	a1,40(a3)
	.loc 1 814 5 is_stmt 1
	.loc 1 815 1 is_stmt 0
	li	a0,0
	ret
.LVL145:
.L61:
	.loc 1 808 9 is_stmt 1
	.loc 1 808 20 is_stmt 0
	li	a4,1
	sll	a1,a4,a1
.LVL146:
	.loc 1 808 16
	or	a1,a1,a5
.LVL147:
	j	.L62
	.cfi_endproc
.LFE26:
	.size	UART_IntClear, .-UART_IntClear
	.section	.text.UART_Int_Callback_Install,"ax",@progbits
	.align	1
	.globl	UART_Int_Callback_Install
	.type	UART_Int_Callback_Install, @function
UART_Int_Callback_Install:
.LFB27:
	.loc 1 828 1 is_stmt 1
	.cfi_startproc
.LVL148:
	.loc 1 830 5
	.loc 1 831 5
	.loc 1 833 5
	.loc 1 835 5
	.loc 1 836 1 is_stmt 0
	li	a0,0
.LVL149:
	ret
	.cfi_endproc
.LFE27:
	.size	UART_Int_Callback_Install, .-UART_Int_Callback_Install
	.section	.text.UART_GetAutoBaudCount,"ax",@progbits
	.align	1
	.globl	UART_GetAutoBaudCount
	.type	UART_GetAutoBaudCount, @function
UART_GetAutoBaudCount:
.LFB31:
	.loc 1 946 1 is_stmt 1
	.cfi_startproc
.LVL150:
	.loc 1 947 5
	.loc 1 950 5
	.loc 1 951 5
	.loc 1 954 5
	.loc 1 947 14 is_stmt 0
	slli	a5,a0,2
	lui	a0,%hi(.LANCHOR0)
.LVL151:
	addi	a0,a0,%lo(.LANCHOR0)
	add	a0,a0,a5
	.loc 1 955 45
	lw	a5,0(a0)
	.loc 1 955 17
	lw	a0,52(a5)
	.loc 1 954 7
	bne	a1,zero,.L65
.L67:
	.loc 1 957 55
	srli	a0,a0,16
	.loc 1 959 1
	ret
.L65:
	.loc 1 957 9 is_stmt 1
	.loc 1 957 55 is_stmt 0
	slli	a0,a0,16
	j	.L67
	.cfi_endproc
.LFE31:
	.size	UART_GetAutoBaudCount, .-UART_GetAutoBaudCount
	.section	.text.UART_SetBaudrate,"ax",@progbits
	.align	1
	.globl	UART_SetBaudrate
	.type	UART_SetBaudrate, @function
UART_SetBaudrate:
.LFB18:
	.loc 1 577 1 is_stmt 1
	.cfi_startproc
.LVL152:
	.loc 1 578 5
	.loc 1 578 14 is_stmt 0
	lui	a5,%hi(.LANCHOR0)
	slli	a4,a0,2
	addi	a5,a5,%lo(.LANCHOR0)
	.loc 1 577 1
	addi	sp,sp,-16
	.cfi_def_cfa_offset 16
	.loc 1 578 14
	add	a5,a5,a4
	.loc 1 577 1
	sw	s0,8(sp)
	sw	ra,12(sp)
	.cfi_offset 8, -8
	.cfi_offset 1, -4
	.loc 1 578 14
	lw	s0,0(a5)
.LVL153:
	.loc 1 579 5 is_stmt 1
	.loc 1 582 5
	.loc 1 585 5
	.loc 1 585 14 is_stmt 0
	call	UART_GetAutoBaudCount
.LVL154:
	.loc 1 588 5 is_stmt 1
	.loc 1 588 50 is_stmt 0
	slli	a5,a0,16
	.loc 1 588 57
	or	a5,a5,a0
	.loc 1 588 42
	sw	a5,8(s0)
	.loc 1 590 5 is_stmt 1
	.loc 1 591 1 is_stmt 0
	lw	ra,12(sp)
	.cfi_restore 1
	lw	s0,8(sp)
	.cfi_restore 8
.LVL155:
	li	a0,0
.LVL156:
	addi	sp,sp,16
	.cfi_def_cfa_offset 0
	jr	ra
	.cfi_endproc
.LFE18:
	.size	UART_SetBaudrate, .-UART_SetBaudrate
	.section	.text.UART_GetTxFifoCount,"ax",@progbits
	.align	1
	.globl	UART_GetTxFifoCount
	.type	UART_GetTxFifoCount, @function
UART_GetTxFifoCount:
.LFB32:
	.loc 1 970 1 is_stmt 1
	.cfi_startproc
.LVL157:
	.loc 1 971 5
	.loc 1 974 5
	.loc 1 976 5
	.loc 1 971 14 is_stmt 0
	slli	a5,a0,2
	lui	a0,%hi(.LANCHOR0)
.LVL158:
	addi	a0,a0,%lo(.LANCHOR0)
	add	a0,a0,a5
	.loc 1 976 45
	lw	a5,0(a0)
	.loc 1 976 17
	lw	a0,132(a5)
	.loc 1 977 1
	andi	a0,a0,63
	ret
	.cfi_endproc
.LFE32:
	.size	UART_GetTxFifoCount, .-UART_GetTxFifoCount
	.section	.text.UART_SendData,"ax",@progbits
	.align	1
	.globl	UART_SendData
	.type	UART_SendData, @function
UART_SendData:
.LFB28:
	.loc 1 849 1 is_stmt 1
	.cfi_startproc
.LVL159:
	.loc 1 850 5
	.loc 1 851 5
	.loc 1 851 14 is_stmt 0
	lui	a5,%hi(.LANCHOR0)
	slli	a4,a0,2
	addi	a5,a5,%lo(.LANCHOR0)
	.loc 1 849 1
	addi	sp,sp,-32
	.cfi_def_cfa_offset 32
	.loc 1 851 14
	add	a5,a5,a4
	.loc 1 849 1
	sw	s5,4(sp)
	.cfi_offset 21, -28
	.loc 1 851 14
	lw	s5,0(a5)
.LVL160:
	.loc 1 852 5 is_stmt 1
	.loc 1 855 5
	.loc 1 858 5
	.loc 1 849 1 is_stmt 0
	sw	s0,24(sp)
	.cfi_offset 8, -8
	.loc 1 852 14
	li	s0,159744
	.loc 1 849 1
	sw	s1,20(sp)
	sw	s2,16(sp)
	sw	s3,12(sp)
	sw	s4,8(sp)
	sw	s6,0(sp)
	sw	ra,28(sp)
	.cfi_offset 9, -12
	.cfi_offset 18, -16
	.cfi_offset 19, -20
	.cfi_offset 20, -24
	.cfi_offset 22, -32
	.cfi_offset 1, -4
	.loc 1 849 1
	mv	s2,a0
	mv	s4,a1
	mv	s3,a2
	.loc 1 852 14
	addi	s0,s0,256
	.loc 1 850 14
	li	s1,0
	.loc 1 861 24
	li	s6,159744
.LVL161:
.L72:
	.loc 1 858 10 is_stmt 1
	bltu	s1,s3,.L76
	.loc 1 870 12 is_stmt 0
	li	a0,0
.L71:
	.loc 1 871 1
	lw	ra,28(sp)
	.cfi_remember_state
	.cfi_restore 1
	lw	s0,24(sp)
	.cfi_restore 8
.LVL162:
	lw	s1,20(sp)
	.cfi_restore 9
.LVL163:
	lw	s2,16(sp)
	.cfi_restore 18
.LVL164:
	lw	s3,12(sp)
	.cfi_restore 19
.LVL165:
	lw	s4,8(sp)
	.cfi_restore 20
.LVL166:
	lw	s5,4(sp)
	.cfi_restore 21
.LVL167:
	lw	s6,0(sp)
	.cfi_restore 22
	addi	sp,sp,32
	.cfi_def_cfa_offset 0
	jr	ra
.LVL168:
.L76:
	.cfi_restore_state
	.loc 1 859 9 is_stmt 1
	.loc 1 859 12 is_stmt 0
	mv	a0,s2
	call	UART_GetTxFifoCount
.LVL169:
	.loc 1 859 11
	beq	a0,zero,.L73
	.loc 1 860 13 is_stmt 1
.LVL170:
	.loc 1 860 56 is_stmt 0
	add	a5,s4,s1
	lbu	a5,0(a5)
	.loc 1 860 62
	addi	s1,s1,1
.LVL171:
	.loc 1 861 24
	addi	s0,s6,256
.LVL172:
	.loc 1 860 50
	sb	a5,136(s5)
	.loc 1 861 13 is_stmt 1
.LVL173:
	j	.L72
.LVL174:
.L73:
	.loc 1 863 13
	.loc 1 863 23 is_stmt 0
	addi	s0,s0,-1
.LVL175:
	.loc 1 864 13 is_stmt 1
	.loc 1 864 15 is_stmt 0
	bne	s0,zero,.L72
	.loc 1 865 24
	li	a0,2
	j	.L71
	.cfi_endproc
.LFE28:
	.size	UART_SendData, .-UART_SendData
	.section	.text.UART_GetRxFifoCount,"ax",@progbits
	.align	1
	.globl	UART_GetRxFifoCount
	.type	UART_GetRxFifoCount, @function
UART_GetRxFifoCount:
.LFB33:
	.loc 1 988 1 is_stmt 1
	.cfi_startproc
.LVL176:
	.loc 1 989 5
	.loc 1 992 5
	.loc 1 994 5
	.loc 1 989 14 is_stmt 0
	slli	a5,a0,2
	lui	a0,%hi(.LANCHOR0)
.LVL177:
	addi	a0,a0,%lo(.LANCHOR0)
	add	a0,a0,a5
	.loc 1 994 45
	lw	a5,0(a0)
	.loc 1 994 17
	lw	a0,132(a5)
	.loc 1 994 89
	srli	a0,a0,8
	.loc 1 995 1
	andi	a0,a0,63
	ret
	.cfi_endproc
.LFE33:
	.size	UART_GetRxFifoCount, .-UART_GetRxFifoCount
	.section	.text.UART_ReceiveData,"ax",@progbits
	.align	1
	.globl	UART_ReceiveData
	.type	UART_ReceiveData, @function
UART_ReceiveData:
.LFB30:
	.loc 1 921 1 is_stmt 1
	.cfi_startproc
.LVL178:
	.loc 1 922 5
	.loc 1 923 5
	.loc 1 923 14 is_stmt 0
	lui	a5,%hi(.LANCHOR0)
	slli	a4,a0,2
	addi	a5,a5,%lo(.LANCHOR0)
	.loc 1 921 1
	addi	sp,sp,-32
	.cfi_def_cfa_offset 32
	.loc 1 923 14
	add	a5,a5,a4
	.loc 1 921 1
	sw	s4,8(sp)
	.cfi_offset 20, -24
	.loc 1 923 14
	lw	s4,0(a5)
.LVL179:
	.loc 1 926 5 is_stmt 1
	.loc 1 929 5
	.loc 1 921 1 is_stmt 0
	sw	s0,24(sp)
	sw	s1,20(sp)
	sw	s2,16(sp)
	sw	s3,12(sp)
	sw	ra,28(sp)
	.cfi_offset 8, -8
	.cfi_offset 9, -12
	.cfi_offset 18, -16
	.cfi_offset 19, -20
	.cfi_offset 1, -4
	.loc 1 921 1
	mv	s1,a0
	mv	s2,a1
	mv	s3,a2
	.loc 1 929 10
	li	s0,0
.LVL180:
.L81:
	.loc 1 929 10 is_stmt 1
	beq	s3,s0,.L80
	.loc 1 929 27 is_stmt 0 discriminator 1
	mv	a0,s1
	call	UART_GetRxFifoCount
.LVL181:
	.loc 1 929 24 discriminator 1
	bne	a0,zero,.L83
.L80:
	.loc 1 934 1
	lw	ra,28(sp)
	.cfi_remember_state
	.cfi_restore 1
	mv	a0,s0
	lw	s0,24(sp)
	.cfi_restore 8
.LVL182:
	lw	s1,20(sp)
	.cfi_restore 9
.LVL183:
	lw	s2,16(sp)
	.cfi_restore 18
.LVL184:
	lw	s3,12(sp)
	.cfi_restore 19
.LVL185:
	lw	s4,8(sp)
	.cfi_restore 20
.LVL186:
	addi	sp,sp,32
	.cfi_def_cfa_offset 0
	jr	ra
.LVL187:
.L83:
	.cfi_restore_state
	.loc 1 930 9 is_stmt 1
	.loc 1 930 26 is_stmt 0
	lbu	a4,140(s4)
	.loc 1 930 23
	add	a5,s2,s0
	addi	s0,s0,1
.LVL188:
	sb	a4,0(a5)
	j	.L81
	.cfi_endproc
.LFE30:
	.size	UART_ReceiveData, .-UART_ReceiveData
	.section	.text.UART_GetIntStatus,"ax",@progbits
	.align	1
	.globl	UART_GetIntStatus
	.type	UART_GetIntStatus, @function
UART_GetIntStatus:
.LFB34:
	.loc 1 1007 1 is_stmt 1
	.cfi_startproc
.LVL189:
	.loc 1 1008 5
	.loc 1 1009 5
	.loc 1 1012 5
	.loc 1 1013 5
	.loc 1 1016 5
	.loc 1 1009 14 is_stmt 0
	lui	a5,%hi(.LANCHOR0)
	slli	a0,a0,2
.LVL190:
	addi	a5,a5,%lo(.LANCHOR0)
	add	a5,a5,a0
	.loc 1 1016 43
	lw	a5,0(a5)
	.loc 1 1017 7
	li	a4,8
	.loc 1 1016 12
	lw	a5,32(a5)
.LVL191:
	.loc 1 1017 5 is_stmt 1
	.loc 1 1018 19 is_stmt 0
	andi	a0,a5,255
	.loc 1 1017 7
	beq	a1,a4,.L89
	.loc 1 1025 9 is_stmt 1
	.loc 1 1025 23 is_stmt 0
	li	a0,1
	sll	a0,a0,a1
	.loc 1 1025 19
	and	a0,a0,a5
.L89:
	.loc 1 1025 11
	snez	a0,a0
	.loc 1 1032 1
	ret
	.cfi_endproc
.LFE34:
	.size	UART_GetIntStatus, .-UART_GetIntStatus
	.section	.text.UART_GetTxBusBusyStatus,"ax",@progbits
	.align	1
	.globl	UART_GetTxBusBusyStatus
	.type	UART_GetTxBusBusyStatus, @function
UART_GetTxBusBusyStatus:
.LFB35:
	.loc 1 1043 1 is_stmt 1
	.cfi_startproc
.LVL192:
	.loc 1 1044 5
	.loc 1 1045 5
	.loc 1 1048 5
	.loc 1 1051 5
	.loc 1 1045 14 is_stmt 0
	slli	a5,a0,2
	lui	a0,%hi(.LANCHOR0)
.LVL193:
	addi	a0,a0,%lo(.LANCHOR0)
	add	a0,a0,a5
	.loc 1 1051 43
	lw	a5,0(a0)
	.loc 1 1051 12
	lw	a0,48(a5)
.LVL194:
	.loc 1 1052 5 is_stmt 1
	.loc 1 1058 1 is_stmt 0
	andi	a0,a0,1
.LVL195:
	ret
	.cfi_endproc
.LFE35:
	.size	UART_GetTxBusBusyStatus, .-UART_GetTxBusBusyStatus
	.section	.text.UART_SendDataBlock,"ax",@progbits
	.align	1
	.globl	UART_SendDataBlock
	.type	UART_SendDataBlock, @function
UART_SendDataBlock:
.LFB29:
	.loc 1 884 1 is_stmt 1
	.cfi_startproc
.LVL196:
	.loc 1 885 5
	.loc 1 886 5
	.loc 1 886 14 is_stmt 0
	lui	a5,%hi(.LANCHOR0)
	slli	a4,a0,2
	addi	a5,a5,%lo(.LANCHOR0)
	.loc 1 884 1
	addi	sp,sp,-32
	.cfi_def_cfa_offset 32
	.loc 1 886 14
	add	a5,a5,a4
	.loc 1 884 1
	sw	s5,4(sp)
	.cfi_offset 21, -28
	.loc 1 886 14
	lw	s5,0(a5)
.LVL197:
	.loc 1 887 5 is_stmt 1
	.loc 1 890 5
	.loc 1 893 5
	.loc 1 884 1 is_stmt 0
	sw	s0,24(sp)
	.cfi_offset 8, -8
	.loc 1 887 14
	li	s0,159744
	.loc 1 884 1
	sw	s1,20(sp)
	sw	s2,16(sp)
	sw	s3,12(sp)
	sw	s4,8(sp)
	sw	s6,0(sp)
	sw	ra,28(sp)
	.cfi_offset 9, -12
	.cfi_offset 18, -16
	.cfi_offset 19, -20
	.cfi_offset 20, -24
	.cfi_offset 22, -32
	.cfi_offset 1, -4
	.loc 1 884 1
	mv	s1,a0
	mv	s4,a1
	mv	s3,a2
	.loc 1 887 14
	addi	s0,s0,256
	.loc 1 885 14
	li	s2,0
	.loc 1 896 24
	li	s6,159744
.LVL198:
.L92:
	.loc 1 893 10 is_stmt 1
	bltu	s2,s3,.L96
	.loc 1 905 10 is_stmt 0
	li	s0,1
.LVL199:
.L97:
	.loc 1 905 51 is_stmt 1 discriminator 1
	.loc 1 905 10 discriminator 1
	.loc 1 905 11 is_stmt 0 discriminator 1
	mv	a0,s1
	call	UART_GetTxBusBusyStatus
.LVL200:
	.loc 1 905 10 discriminator 1
	beq	a0,s0,.L97
	.loc 1 907 12
	li	a0,0
.L91:
	.loc 1 908 1
	lw	ra,28(sp)
	.cfi_remember_state
	.cfi_restore 1
	lw	s0,24(sp)
	.cfi_restore 8
	lw	s1,20(sp)
	.cfi_restore 9
.LVL201:
	lw	s2,16(sp)
	.cfi_restore 18
.LVL202:
	lw	s3,12(sp)
	.cfi_restore 19
.LVL203:
	lw	s4,8(sp)
	.cfi_restore 20
.LVL204:
	lw	s5,4(sp)
	.cfi_restore 21
.LVL205:
	lw	s6,0(sp)
	.cfi_restore 22
	addi	sp,sp,32
	.cfi_def_cfa_offset 0
	jr	ra
.LVL206:
.L96:
	.cfi_restore_state
	.loc 1 894 9 is_stmt 1
	.loc 1 894 12 is_stmt 0
	mv	a0,s1
	call	UART_GetTxFifoCount
.LVL207:
	.loc 1 894 11
	beq	a0,zero,.L93
	.loc 1 895 13 is_stmt 1
.LVL208:
	.loc 1 895 56 is_stmt 0
	add	a5,s4,s2
	lbu	a5,0(a5)
	.loc 1 895 62
	addi	s2,s2,1
.LVL209:
	.loc 1 896 24
	addi	s0,s6,256
.LVL210:
	.loc 1 895 50
	sb	a5,136(s5)
	.loc 1 896 13 is_stmt 1
.LVL211:
	j	.L92
.LVL212:
.L93:
	.loc 1 898 13
	.loc 1 898 23 is_stmt 0
	addi	s0,s0,-1
.LVL213:
	.loc 1 899 13 is_stmt 1
	.loc 1 899 15 is_stmt 0
	bne	s0,zero,.L92
	.loc 1 900 24
	li	a0,2
	j	.L91
	.cfi_endproc
.LFE29:
	.size	UART_SendDataBlock, .-UART_SendDataBlock
	.section	.text.UART_GetRxBusBusyStatus,"ax",@progbits
	.align	1
	.globl	UART_GetRxBusBusyStatus
	.type	UART_GetRxBusBusyStatus, @function
UART_GetRxBusBusyStatus:
.LFB36:
	.loc 1 1069 1 is_stmt 1
	.cfi_startproc
.LVL214:
	.loc 1 1070 5
	.loc 1 1071 5
	.loc 1 1074 5
	.loc 1 1077 5
	.loc 1 1071 14 is_stmt 0
	slli	a5,a0,2
	lui	a0,%hi(.LANCHOR0)
.LVL215:
	addi	a0,a0,%lo(.LANCHOR0)
	add	a0,a0,a5
	.loc 1 1077 43
	lw	a5,0(a0)
	.loc 1 1077 12
	lw	a0,48(a5)
.LVL216:
	.loc 1 1078 5 is_stmt 1
	.loc 1 1078 7 is_stmt 0
	srli	a0,a0,1
.LVL217:
	.loc 1 1084 1
	andi	a0,a0,1
	ret
	.cfi_endproc
.LFE36:
	.size	UART_GetRxBusBusyStatus, .-UART_GetRxBusBusyStatus
	.section	.text.UART_GetOverflowStatus,"ax",@progbits
	.align	1
	.globl	UART_GetOverflowStatus
	.type	UART_GetOverflowStatus, @function
UART_GetOverflowStatus:
.LFB37:
	.loc 1 1096 1 is_stmt 1
	.cfi_startproc
.LVL218:
	.loc 1 1097 5
	.loc 1 1098 5
	.loc 1 1101 5
	.loc 1 1102 5
	.loc 1 1105 5
	.loc 1 1098 14 is_stmt 0
	lui	a5,%hi(.LANCHOR0)
	slli	a0,a0,2
.LVL219:
	addi	a5,a5,%lo(.LANCHOR0)
	add	a5,a5,a0
	.loc 1 1105 43
	lw	a5,0(a5)
	.loc 1 1106 30
	addi	a1,a1,4
.LVL220:
	.loc 1 1106 19
	li	a0,1
	.loc 1 1105 12
	lw	a5,128(a5)
.LVL221:
	.loc 1 1106 5 is_stmt 1
	.loc 1 1106 19 is_stmt 0
	sll	a0,a0,a1
	.loc 1 1106 15
	and	a0,a0,a5
	.loc 1 1112 1
	snez	a0,a0
	ret
	.cfi_endproc
.LFE37:
	.size	UART_GetOverflowStatus, .-UART_GetOverflowStatus
	.section	.text.UART_GetBaudrate,"ax",@progbits
	.align	1
	.globl	UART_GetBaudrate
	.type	UART_GetBaudrate, @function
UART_GetBaudrate:
.LFB38:
	.loc 1 1123 1 is_stmt 1
	.cfi_startproc
.LVL222:
	.loc 1 1124 5
	.loc 1 1125 5
	.loc 1 1126 5
	.loc 1 1127 5
	.loc 1 1128 5
	.loc 1 1128 14 is_stmt 0
	slli	a5,a0,2
	lui	a0,%hi(.LANCHOR0)
.LVL223:
	addi	a0,a0,%lo(.LANCHOR0)
	.loc 1 1131 12
	li	a4,1073741824
	.loc 1 1128 14
	add	a0,a0,a5
	.loc 1 1131 12
	lw	a5,8(a4)
.LVL224:
	.loc 1 1128 14
	lw	a1,0(a0)
.LVL225:
	.loc 1 1131 5 is_stmt 1
	.loc 1 1132 5
	.loc 1 1132 56 is_stmt 0
	andi	a0,a5,7
	.loc 1 1133 19
	andi	a5,a5,128
.LVL226:
	.loc 1 1132 10
	addi	a3,a0,1
.LVL227:
	.loc 1 1133 5 is_stmt 1
	.loc 1 1133 7 is_stmt 0
	bne	a5,zero,.L106
	.loc 1 1136 9 is_stmt 1
	.loc 1 1136 16 is_stmt 0
	lw	a5,0(a4)
.LVL228:
	.loc 1 1137 9 is_stmt 1
	.loc 1 1137 60 is_stmt 0
	srli	a0,a5,8
	.loc 1 1138 62
	srli	a5,a5,6
.LVL229:
	.loc 1 1138 16
	andi	a5,a5,3
	.loc 1 1137 14
	andi	a2,a0,255
.LVL230:
	.loc 1 1138 9 is_stmt 1
	.loc 1 1139 9
	.loc 1 1139 11 is_stmt 0
	beq	a5,zero,.L107
	.loc 1 1141 15 is_stmt 1
	.loc 1 1141 17 is_stmt 0
	li	a0,1
	beq	a5,a0,.L108
	.loc 1 1144 13 is_stmt 1
	.loc 1 1144 20 is_stmt 0
	lw	a5,0(a4)
.LVL231:
	.loc 1 1145 13 is_stmt 1
	li	a4,2
	.loc 1 1145 66 is_stmt 0
	srli	a5,a5,4
.LVL232:
	.loc 1 1146 13 is_stmt 1
	.loc 1 1145 20 is_stmt 0
	andi	a5,a5,3
.LVL233:
	addi	a5,a5,-1
.LVL234:
	bgtu	a5,a4,.L109
	lui	a4,%hi(.LANCHOR1)
	slli	a5,a5,2
.LVL235:
	addi	a4,a4,%lo(.LANCHOR1)
	add	a5,a4,a5
	lw	a0,0(a5)
.L105:
.LVL236:
	.loc 1 1164 9 is_stmt 1
	.loc 1 1164 15 is_stmt 0
	divu	a0,a0,a2
.LVL237:
.L104:
	.loc 1 1166 5 is_stmt 1
	.loc 1 1169 5
	.loc 1 1169 12 is_stmt 0
	lw	a5,8(a1)
.LVL238:
	.loc 1 1170 5 is_stmt 1
	.loc 1 1170 59 is_stmt 0
	slli	a5,a5,16
.LVL239:
	srli	a5,a5,16
.LVL240:
	.loc 1 1172 5 is_stmt 1
	.loc 1 1170 12 is_stmt 0
	addi	a5,a5,1
.LVL241:
	.loc 1 1166 11
	divu	a0,a0,a3
.LVL242:
	.loc 1 1173 1
	divu	a0,a0,a5
.LVL243:
	ret
.LVL244:
.L107:
	.loc 1 1140 19
	li	a5,32002048
.LVL245:
	addi	a0,a5,-2048
	j	.L105
.LVL246:
.L108:
	.loc 1 1142 19
	li	a5,40001536
.LVL247:
	addi	a0,a5,-1536
	j	.L105
.LVL248:
.L109:
	.loc 1 1145 20
	li	a5,48001024
.LVL249:
	addi	a0,a5,-1024
	j	.L105
.LVL250:
.L106:
	.loc 1 1134 15
	li	a0,160002048
	addi	a0,a0,-2048
	j	.L104
	.cfi_endproc
.LFE38:
	.size	UART_GetBaudrate, .-UART_GetBaudrate
	.section	.rodata.CSWTCH.47,"a"
	.align	2
	.set	.LANCHOR1,. + 0
	.type	CSWTCH.47, @object
	.size	CSWTCH.47, 12
CSWTCH.47:
	.word	120000000
	.word	160000000
	.word	192000000
	.section	.srodata.uartAddr,"a"
	.align	2
	.set	.LANCHOR0,. + 0
	.type	uartAddr, @object
	.size	uartAddr, 8
uartAddr:
	.word	1073782784
	.word	1073783040
	.text
.Letext0:
	.file 2 "/mnt/d/GitHub/bl_iot_sdk_for_aithinker/toolchain/riscv/Linux/lib/gcc/riscv64-unknown-elf/10.2.0/include/stdint-gcc.h"
	.file 3 "/mnt/d/GitHub/bl_iot_sdk_for_aithinker/components/platform/soc/bl602/bl602_std/bl602_std/Device/Bouffalo/BL602/Peripherals/bl602.h"
	.file 4 "/mnt/d/GitHub/bl_iot_sdk_for_aithinker/components/platform/soc/bl602/bl602_std/bl602_std/StdDriver/Inc/bl602_common.h"
	.file 5 "/mnt/d/GitHub/bl_iot_sdk_for_aithinker/components/platform/soc/bl602/bl602_std/bl602_std/StdDriver/Inc/bl602_uart.h"
	.file 6 "/mnt/d/GitHub/bl_iot_sdk_for_aithinker/components/platform/soc/bl602/bl602_std/bl602_std/StdDriver/Inc/bl602_glb.h"