	.file	"bl602_mfg_efuse.c"
	.option nopic
	.attribute arch, "rv32i2p0_m2p0_f2p0_c2p0"
	.attribute unaligned_access, 0
	.attribute stack_align, 16
	.text
.Ltext0:
	.cfi_sections	.debug_frame
	.section	.text.mfg_efuse_get_rf_cal_slots,"ax",@progbits
	.align	1
	.globl	mfg_efuse_get_rf_cal_slots
	.type	mfg_efuse_get_rf_cal_slots, @function
mfg_efuse_get_rf_cal_slots:
.LFB8:
	.file 1 "/mnt/d/GitHub/bl_iot_sdk_for_aithinker/components/platform/soc/bl602/bl602_std/bl602_std/StdDriver/Src/bl602_mfg_efuse.c"
	.loc 1 16 1
	.cfi_startproc
	.loc 1 24 5
	.loc 1 25 1 is_stmt 0
	lui	a5,%hi(.LANCHOR0)
	lbu	a0,%lo(.LANCHOR0)(a5)
	ret
	.cfi_endproc
.LFE8:
	.size	mfg_efuse_get_rf_cal_slots, .-mfg_efuse_get_rf_cal_slots
	.section	.text.mfg_efuse_set_rf_cal_slots,"ax",@progbits
	.align	1
	.globl	mfg_efuse_set_rf_cal_slots
	.type	mfg_efuse_set_rf_cal_slots, @function
mfg_efuse_set_rf_cal_slots:
.LFB9:
	.loc 1 28 1 is_stmt 1
	.cfi_startproc
.LVL0:
	.loc 1 29 5
	.loc 1 29 17 is_stmt 0
	lui	a5,%hi(.LANCHOR0)
	sb	a0,%lo(.LANCHOR0)(a5)
	.loc 1 30 1
	ret
	.cfi_endproc
.LFE9:
	.size	mfg_efuse_set_rf_cal_slots, .-mfg_efuse_set_rf_cal_slots
	.section	.rodata.mfg_efuse_is_xtal_capcode_slot_empty.str1.4,"aMS",@progbits,1
	.align	2
.LC0:
	.string	"Empty slot:%d\r\n"
	.align	2
.LC1:
	.string	"No empty slot found\r\n"
	.section	.text.mfg_efuse_is_xtal_capcode_slot_empty,"ax",@progbits
	.align	1
	.globl	mfg_efuse_is_xtal_capcode_slot_empty
	.type	mfg_efuse_is_xtal_capcode_slot_empty, @function
mfg_efuse_is_xtal_capcode_slot_empty:
.LFB10:
	.loc 1 33 1 is_stmt 1
	.cfi_startproc
.LVL1:
	.loc 1 34 5
	.loc 1 35 5
	.loc 1 36 5
	.loc 1 33 1 is_stmt 0
	addi	sp,sp,-32
	.cfi_def_cfa_offset 32
	sw	ra,28(sp)
	sw	s0,24(sp)
	sw	s2,16(sp)
	sw	s3,12(sp)
	sw	s4,8(sp)
	sw	s5,4(sp)
	sw	s1,20(sp)
	.cfi_offset 1, -4
	.cfi_offset 8, -8
	.cfi_offset 18, -16
	.cfi_offset 19, -20
	.cfi_offset 20, -24
	.cfi_offset 21, -28
	.cfi_offset 9, -12
	.loc 1 33 1
	mv	s0,a0
	.loc 1 36 29
	call	GLB_Get_Root_CLK_Sel
.LVL2:
	mv	s2,a0
.LVL3:
	.loc 1 38 5 is_stmt 1
	.loc 1 38 10 is_stmt 0
	call	GLB_Get_BCLK_Div
.LVL4:
	mv	s4,a0
.LVL5:
	.loc 1 39 5 is_stmt 1
	.loc 1 39 10 is_stmt 0
	call	GLB_Get_HCLK_Div
.LVL6:
	mv	s3,a0
.LVL7:
	.loc 1 41 5 is_stmt 1
	li	a0,1
	call	HBN_Set_ROOT_CLK_Sel
.LVL8:
	.loc 1 43 5
	.loc 1 43 20 is_stmt 0
	lui	a5,%hi(.LANCHOR0)
	addi	s5,a5,%lo(.LANCHOR0)
	.loc 1 43 7
	lbu	a4,0(s5)
	beq	a4,zero,.L4
	.loc 1 43 25 discriminator 1
	mv	a1,s0
	li	a0,0
	addi	s1,a5,%lo(.LANCHOR0)
	call	EF_Ctrl_Is_CapCode_Slot_Empty
.LVL9:
	.loc 1 44 9 discriminator 1
	li	a1,0
	.loc 1 43 23 discriminator 1
	bne	a0,zero,.L18
	.loc 1 46 11 is_stmt 1
	.loc 1 46 13 is_stmt 0
	lbu	a4,0(s5)
	li	a5,1
	bleu	a4,a5,.L7
	.loc 1 46 31 discriminator 1
	mv	a1,s0
	li	a0,1
	call	EF_Ctrl_Is_CapCode_Slot_Empty
.LVL10:
	.loc 1 46 29 discriminator 1
	beq	a0,zero,.L7
	.loc 1 47 9 is_stmt 1
	li	a1,1
.L18:
	lui	a0,%hi(.LC0)
	addi	a0,a0,%lo(.LC0)
	call	printf
.LVL11:
	.loc 1 48 9
	.loc 1 48 14 is_stmt 0
	li	s0,1
.LVL12:
.L6:
	.loc 1 56 5 is_stmt 1
	mv	a1,s4
	mv	a0,s3
	call	GLB_Set_System_CLK_Div
.LVL13:
	.loc 1 57 5
	mv	a0,s2
	call	HBN_Set_ROOT_CLK_Sel
.LVL14:
	.loc 1 59 5
	.loc 1 60 1 is_stmt 0
	lw	ra,28(sp)
	.cfi_remember_state
	.cfi_restore 1
	mv	a0,s0
	lw	s0,24(sp)
	.cfi_restore 8
.LVL15:
	lw	s1,20(sp)
	.cfi_restore 9
	lw	s2,16(sp)
	.cfi_restore 18
.LVL16:
	lw	s3,12(sp)
	.cfi_restore 19
.LVL17:
	lw	s4,8(sp)
	.cfi_restore 20
.LVL18:
	lw	s5,4(sp)
	.cfi_restore 21
	addi	sp,sp,32
	.cfi_def_cfa_offset 0
	jr	ra
.LVL19:
.L7:
	.cfi_restore_state
	.loc 1 49 11 is_stmt 1
	.loc 1 49 13 is_stmt 0
	lbu	a4,0(s1)
	li	a5,2
	bleu	a4,a5,.L4
	.loc 1 49 31 discriminator 1
	mv	a1,s0
	li	a0,2
	call	EF_Ctrl_Is_CapCode_Slot_Empty
.LVL20:
	.loc 1 50 9 discriminator 1
	li	a1,2
	.loc 1 49 29 discriminator 1
	bne	a0,zero,.L18
.L4:
	.loc 1 53 9 is_stmt 1
	lui	a0,%hi(.LC1)
	addi	a0,a0,%lo(.LC1)
	call	printf
.LVL21:
	.loc 1 34 13 is_stmt 0
	li	s0,0
	j	.L6
	.cfi_endproc
.LFE10:
	.size	mfg_efuse_is_xtal_capcode_slot_empty, .-mfg_efuse_is_xtal_capcode_slot_empty
	.section	.rodata.mfg_efuse_write_xtal_capcode_pre.str1.4,"aMS",@progbits,1
	.align	2
.LC2:
	.string	"Write slot:%d\r\n"
	.section	.text.mfg_efuse_write_xtal_capcode_pre,"ax",@progbits
	.align	1
	.globl	mfg_efuse_write_xtal_capcode_pre
	.type	mfg_efuse_write_xtal_capcode_pre, @function
mfg_efuse_write_xtal_capcode_pre:
.LFB11:
	.loc 1 63 1 is_stmt 1
	.cfi_startproc
.LVL22:
	.loc 1 64 5
	.loc 1 65 5
	.loc 1 66 5
	.loc 1 67 5
	.loc 1 63 1 is_stmt 0
	addi	sp,sp,-32
	.cfi_def_cfa_offset 32
	sw	ra,28(sp)
	sw	s1,20(sp)
	sw	s2,16(sp)
	sw	s3,12(sp)
	sw	s4,8(sp)
	sw	s5,4(sp)
	sw	s6,0(sp)
	sw	s0,24(sp)
	.cfi_offset 1, -4
	.cfi_offset 9, -12
	.cfi_offset 18, -16
	.cfi_offset 19, -20
	.cfi_offset 20, -24
	.cfi_offset 21, -28
	.cfi_offset 22, -32
	.cfi_offset 8, -8
	.loc 1 63 1
	mv	s6,a1
	mv	s5,a0
	.loc 1 67 29
	call	GLB_Get_Root_CLK_Sel
.LVL23:
	mv	s2,a0
.LVL24:
	.loc 1 69 5 is_stmt 1
	.loc 1 69 10 is_stmt 0
	call	GLB_Get_BCLK_Div
.LVL25:
	mv	s4,a0
.LVL26:
	.loc 1 70 5 is_stmt 1
	.loc 1 70 10 is_stmt 0
	call	GLB_Get_HCLK_Div
.LVL27:
	mv	s3,a0
.LVL28:
	.loc 1 72 5 is_stmt 1
	li	a0,1
	call	HBN_Set_ROOT_CLK_Sel
.LVL29:
	.loc 1 74 5
	.loc 1 74 20 is_stmt 0
	lui	a5,%hi(.LANCHOR0)
	addi	s1,a5,%lo(.LANCHOR0)
	.loc 1 74 7
	lbu	a4,0(s1)
	beq	a4,zero,.L21
	.loc 1 74 25 discriminator 1
	li	a1,1
	li	a0,0
	addi	s0,a5,%lo(.LANCHOR0)
	call	EF_Ctrl_Is_CapCode_Slot_Empty
.LVL30:
	.loc 1 74 23 discriminator 1
	bne	a0,zero,.L26
	.loc 1 76 11 is_stmt 1
	.loc 1 76 13 is_stmt 0
	lbu	a4,0(s1)
	li	a5,1
	bleu	a4,a5,.L24
	.loc 1 76 31 discriminator 1
	li	a1,1
	li	a0,1
	call	EF_Ctrl_Is_CapCode_Slot_Empty
.LVL31:
	.loc 1 76 29 discriminator 1
	bne	a0,zero,.L27
.L24:
	.loc 1 78 11 is_stmt 1
	.loc 1 78 13 is_stmt 0
	lbu	a4,0(s0)
	li	a5,2
	bgtu	a4,a5,.L22
.L21:
	.loc 1 81 9 is_stmt 1
	lui	a0,%hi(.LC1)
	addi	a0,a0,%lo(.LC1)
	call	printf
.LVL32:
	.loc 1 84 5
	.loc 1 64 17 is_stmt 0
	li	s0,0
.LVL33:
.L25:
	.loc 1 88 5 is_stmt 1
	mv	a1,s4
	mv	a0,s3
	call	GLB_Set_System_CLK_Div
.LVL34:
	.loc 1 89 5
	mv	a0,s2
	call	HBN_Set_ROOT_CLK_Sel
.LVL35:
	.loc 1 91 5
	.loc 1 96 1 is_stmt 0
	lw	ra,28(sp)
	.cfi_remember_state
	.cfi_restore 1
	.loc 1 91 7
	snez	a0,s0
	.loc 1 96 1
	lw	s0,24(sp)
	.cfi_restore 8
.LVL36:
	lw	s1,20(sp)
	.cfi_restore 9
	lw	s2,16(sp)
	.cfi_restore 18
.LVL37:
	lw	s3,12(sp)
	.cfi_restore 19
.LVL38:
	lw	s4,8(sp)
	.cfi_restore 20
.LVL39:
	lw	s5,4(sp)
	.cfi_restore 21
	lw	s6,0(sp)
	.cfi_restore 22
	neg	a0,a0
	addi	sp,sp,32
	.cfi_def_cfa_offset 0
	jr	ra
.LVL40:
.L22:
	.cfi_restore_state
	.loc 1 78 31 discriminator 1
	li	a1,1
	li	a0,2
	call	EF_Ctrl_Is_CapCode_Slot_Empty
.LVL41:
	.loc 1 79 13 discriminator 1
	li	s1,2
	.loc 1 78 29 discriminator 1
	beq	a0,zero,.L21
.L23:
.LVL42:
	.loc 1 85 9 is_stmt 1
	.loc 1 85 13 is_stmt 0
	mv	a1,s5
	mv	a2,s6
	mv	a0,s1
	call	EF_Ctrl_Write_CapCode_Opt
.LVL43:
	mv	s0,a0
.LVL44:
	.loc 1 86 9 is_stmt 1
	lui	a0,%hi(.LC2)
	mv	a1,s1
	addi	a0,a0,%lo(.LC2)
	call	printf
.LVL45:
	j	.L25
.LVL46:
.L26:
	.loc 1 75 13 is_stmt 0
	li	s1,0
	j	.L23
.L27:
	.loc 1 77 13
	li	s1,1
	j	.L23
	.cfi_endproc
.LFE11:
	.size	mfg_efuse_write_xtal_capcode_pre, .-mfg_efuse_write_xtal_capcode_pre
	.section	.text.mfg_efuse_write_xtal_capcode,"ax",@progbits
	.align	1
	.globl	mfg_efuse_write_xtal_capcode
	.type	mfg_efuse_write_xtal_capcode, @function
mfg_efuse_write_xtal_capcode:
.LFB12:
	.loc 1 99 1 is_stmt 1
	.cfi_startproc
	.loc 1 100 5
.LVL47:
	.loc 1 101 5
	.loc 1 99 1 is_stmt 0
	addi	sp,sp,-32
	.cfi_def_cfa_offset 32
	sw	ra,28(sp)
	sw	s0,24(sp)
	sw	s1,20(sp)
	sw	s2,16(sp)
	sw	s3,12(sp)
	.cfi_offset 1, -4
	.cfi_offset 8, -8
	.cfi_offset 9, -12
	.cfi_offset 18, -16
	.cfi_offset 19, -20
	.loc 1 101 29
	call	GLB_Get_Root_CLK_Sel
.LVL48:
	mv	s0,a0
.LVL49:
	.loc 1 103 5 is_stmt 1
	.loc 1 103 10 is_stmt 0
	call	GLB_Get_BCLK_Div
.LVL50:
	mv	s2,a0
.LVL51:
	.loc 1 104 5 is_stmt 1
	.loc 1 104 10 is_stmt 0
	call	GLB_Get_HCLK_Div
.LVL52:
	mv	s1,a0
.LVL53:
	.loc 1 106 5 is_stmt 1
	li	a0,1
	call	HBN_Set_ROOT_CLK_Sel
.LVL54:
	.loc 1 108 5
	li	a2,0
	li	a1,0
	li	a0,0
	call	EF_Ctrl_Program_Direct_R0
.LVL55:
	.loc 1 109 5
	.loc 1 109 10 is_stmt 0
	li	s3,1
.L33:
	.loc 1 109 31 is_stmt 1 discriminator 1
	.loc 1 109 10 discriminator 1
	.loc 1 109 16 is_stmt 0 discriminator 1
	call	EF_Ctrl_Busy
.LVL56:
	.loc 1 109 10 discriminator 1
	beq	a0,s3,.L33
	.loc 1 111 5 is_stmt 1
	mv	a1,s2
	mv	a0,s1
	call	GLB_Set_System_CLK_Div
.LVL57:
	.loc 1 112 5
	mv	a0,s0
	.loc 1 114 1 is_stmt 0
	lw	s0,24(sp)
	.cfi_restore 8
.LVL58:
	lw	ra,28(sp)
	.cfi_restore 1
	lw	s1,20(sp)
	.cfi_restore 9
.LVL59:
	lw	s2,16(sp)
	.cfi_restore 18
.LVL60:
	lw	s3,12(sp)
	.cfi_restore 19
	addi	sp,sp,32
	.cfi_def_cfa_offset 0
	.loc 1 112 5
	tail	HBN_Set_ROOT_CLK_Sel
.LVL61:
	.cfi_endproc
.LFE12:
	.size	mfg_efuse_write_xtal_capcode, .-mfg_efuse_write_xtal_capcode
	.section	.rodata.mfg_efuse_read_xtal_capcode.str1.4,"aMS",@progbits,1
	.align	2
.LC3:
	.string	"Read slot:%d\r\n"
	.align	2
.LC4:
	.string	"No written slot found\r\n"
	.section	.text.mfg_efuse_read_xtal_capcode,"ax",@progbits
	.align	1
	.globl	mfg_efuse_read_xtal_capcode
	.type	mfg_efuse_read_xtal_capcode, @function
mfg_efuse_read_xtal_capcode:
.LFB13:
	.loc 1 117 1 is_stmt 1
	.cfi_startproc
.LVL62:
	.loc 1 118 5
	.loc 1 119 5
	.loc 1 120 5
	.loc 1 121 5
	.loc 1 117 1 is_stmt 0
	addi	sp,sp,-32
	.cfi_def_cfa_offset 32
	sw	ra,28(sp)
	sw	s0,24(sp)
	sw	s1,20(sp)
	sw	s2,16(sp)
	.cfi_offset 1, -4
	.cfi_offset 8, -8
	.cfi_offset 9, -12
	.cfi_offset 18, -16
	mv	s1,a1
	sw	s3,12(sp)
	sw	s4,8(sp)
	sw	s5,4(sp)
	.cfi_offset 19, -20
	.cfi_offset 20, -24
	.cfi_offset 21, -28
	.loc 1 117 1
	mv	s5,a0
	.loc 1 121 29
	call	GLB_Get_Root_CLK_Sel
.LVL63:
	mv	s2,a0
.LVL64:
	.loc 1 123 5 is_stmt 1
	.loc 1 123 10 is_stmt 0
	call	GLB_Get_BCLK_Div
.LVL65:
	mv	s4,a0
.LVL66:
	.loc 1 124 5 is_stmt 1
	.loc 1 124 10 is_stmt 0
	call	GLB_Get_HCLK_Div
.LVL67:
	mv	s3,a0
.LVL68:
	.loc 1 126 5 is_stmt 1
	li	a0,1
	call	HBN_Set_ROOT_CLK_Sel
.LVL69:
	.loc 1 128 5
	.loc 1 128 20 is_stmt 0
	lui	s0,%hi(.LANCHOR0)
	.loc 1 128 7
	lbu	a4,%lo(.LANCHOR0)(s0)
	li	a5,2
	addi	s0,s0,%lo(.LANCHOR0)
	bgtu	a4,a5,.L37
.L41:
	.loc 1 130 11 is_stmt 1
	.loc 1 130 13 is_stmt 0
	lbu	a4,0(s0)
	li	a5,1
	bleu	a4,a5,.L39
	.loc 1 130 33 discriminator 1
	mv	a1,s1
	li	a0,1
	call	EF_Ctrl_Is_CapCode_Slot_Empty
.LVL70:
	.loc 1 130 29 discriminator 1
	beq	a0,zero,.L46
.L39:
	.loc 1 132 11 is_stmt 1
	.loc 1 132 13 is_stmt 0
	lbu	a5,0(s0)
	bne	a5,zero,.L42
.L43:
.LVL71:
	.loc 1 140 9 is_stmt 1
	lui	a0,%hi(.LC4)
	addi	a0,a0,%lo(.LC4)
	call	printf
.LVL72:
	.loc 1 119 17 is_stmt 0
	li	s0,1
	j	.L44
.LVL73:
.L37:
	.loc 1 128 27 discriminator 1
	mv	a1,s1
	li	a0,2
	call	EF_Ctrl_Is_CapCode_Slot_Empty
.LVL74:
	.loc 1 128 23 discriminator 1
	bne	a0,zero,.L41
	.loc 1 129 13
	li	s0,2
	j	.L40
.L42:
	.loc 1 132 33 discriminator 1
	mv	a1,s1
	li	a0,0
	call	EF_Ctrl_Is_CapCode_Slot_Empty
.LVL75:
	mv	s0,a0
	.loc 1 132 29 discriminator 1
	bne	a0,zero,.L43
.L40:
.LVL76:
	.loc 1 137 9 is_stmt 1
	lui	a0,%hi(.LC3)
	mv	a1,s0
	addi	a0,a0,%lo(.LC3)
	call	printf
.LVL77:
	.loc 1 138 9
	.loc 1 138 13 is_stmt 0
	mv	a0,s0
	mv	a2,s1
	mv	a1,s5
	call	EF_Ctrl_Read_CapCode_Opt
.LVL78:
	mv	s0,a0
.LVL79:
.L44:
	.loc 1 143 5 is_stmt 1
	mv	a1,s4
	mv	a0,s3
	call	GLB_Set_System_CLK_Div
.LVL80:
	.loc 1 144 5
	mv	a0,s2
	call	HBN_Set_ROOT_CLK_Sel
.LVL81:
	.loc 1 146 5
	.loc 1 151 1 is_stmt 0
	lw	ra,28(sp)
	.cfi_remember_state
	.cfi_restore 1
	.loc 1 146 7
	snez	a0,s0
	.loc 1 151 1
	lw	s0,24(sp)
	.cfi_restore 8
.LVL82:
	lw	s1,20(sp)
	.cfi_restore 9
	lw	s2,16(sp)
	.cfi_restore 18
.LVL83:
	lw	s3,12(sp)
	.cfi_restore 19
.LVL84:
	lw	s4,8(sp)
	.cfi_restore 20
.LVL85:
	lw	s5,4(sp)
	.cfi_restore 21
.LVL86:
	neg	a0,a0
	addi	sp,sp,32
	.cfi_def_cfa_offset 0
	jr	ra
.LVL87:
.L46:
	.cfi_restore_state
	.loc 1 131 13
	li	s0,1
	j	.L40
	.cfi_endproc
.LFE13:
	.size	mfg_efuse_read_xtal_capcode, .-mfg_efuse_read_xtal_capcode
	.section	.text.mfg_efuse_is_poweroffset_slot_empty,"ax",@progbits
	.align	1
	.globl	mfg_efuse_is_poweroffset_slot_empty
	.type	mfg_efuse_is_poweroffset_slot_empty, @function
mfg_efuse_is_poweroffset_slot_empty:
.LFB14:
	.loc 1 154 1 is_stmt 1
	.cfi_startproc
.LVL88:
	.loc 1 155 5
	.loc 1 156 5
	.loc 1 157 5
	.loc 1 154 1 is_stmt 0
	addi	sp,sp,-32
	.cfi_def_cfa_offset 32
	sw	ra,28(sp)
	sw	s0,24(sp)
	sw	s2,16(sp)
	sw	s3,12(sp)
	sw	s4,8(sp)
	sw	s5,4(sp)
	sw	s1,20(sp)
	.cfi_offset 1, -4
	.cfi_offset 8, -8
	.cfi_offset 18, -16
	.cfi_offset 19, -20
	.cfi_offset 20, -24
	.cfi_offset 21, -28
	.cfi_offset 9, -12
	.loc 1 154 1
	mv	s0,a0
	.loc 1 157 29
	call	GLB_Get_Root_CLK_Sel
.LVL89:
	mv	s2,a0
.LVL90:
	.loc 1 159 5 is_stmt 1
	.loc 1 159 10 is_stmt 0
	call	GLB_Get_BCLK_Div
.LVL91:
	mv	s4,a0
.LVL92:
	.loc 1 160 5 is_stmt 1
	.loc 1 160 10 is_stmt 0
	call	GLB_Get_HCLK_Div
.LVL93:
	mv	s3,a0
.LVL94:
	.loc 1 162 5 is_stmt 1
	li	a0,1
	call	HBN_Set_ROOT_CLK_Sel
.LVL95:
	.loc 1 164 5
	.loc 1 164 20 is_stmt 0
	lui	a5,%hi(.LANCHOR0)
	addi	s5,a5,%lo(.LANCHOR0)
	.loc 1 164 7
	lbu	a4,0(s5)
	beq	a4,zero,.L49
	.loc 1 164 25 discriminator 1
	mv	a1,s0
	li	a0,0
	addi	s1,a5,%lo(.LANCHOR0)
	call	EF_Ctrl_Is_PowerOffset_Slot_Empty
.LVL96:
	.loc 1 165 9 discriminator 1
	li	a1,0
	.loc 1 164 23 discriminator 1
	bne	a0,zero,.L63
	.loc 1 167 11 is_stmt 1
	.loc 1 167 13 is_stmt 0
	lbu	a4,0(s5)
	li	a5,1
	bleu	a4,a5,.L52
	.loc 1 167 31 discriminator 1
	mv	a1,s0
	li	a0,1
	call	EF_Ctrl_Is_PowerOffset_Slot_Empty
.LVL97:
	.loc 1 167 29 discriminator 1
	beq	a0,zero,.L52
	.loc 1 168 9 is_stmt 1
	li	a1,1
.L63:
	lui	a0,%hi(.LC0)
	addi	a0,a0,%lo(.LC0)
	call	printf
.LVL98:
	.loc 1 169 9
	.loc 1 169 14 is_stmt 0
	li	s0,1
.LVL99:
.L51:
	.loc 1 177 5 is_stmt 1
	mv	a1,s4
	mv	a0,s3
	call	GLB_Set_System_CLK_Div
.LVL100:
	.loc 1 178 5
	mv	a0,s2
	call	HBN_Set_ROOT_CLK_Sel
.LVL101:
	.loc 1 180 5
	.loc 1 181 1 is_stmt 0
	lw	ra,28(sp)
	.cfi_remember_state
	.cfi_restore 1
	mv	a0,s0
	lw	s0,24(sp)
	.cfi_restore 8
.LVL102:
	lw	s1,20(sp)
	.cfi_restore 9
	lw	s2,16(sp)
	.cfi_restore 18
.LVL103:
	lw	s3,12(sp)
	.cfi_restore 19
.LVL104:
	lw	s4,8(sp)
	.cfi_restore 20
.LVL105:
	lw	s5,4(sp)
	.cfi_restore 21
	addi	sp,sp,32
	.cfi_def_cfa_offset 0
	jr	ra
.LVL106:
.L52:
	.cfi_restore_state
	.loc 1 170 11 is_stmt 1
	.loc 1 170 13 is_stmt 0
	lbu	a4,0(s1)
	li	a5,2
	bleu	a4,a5,.L49
	.loc 1 170 31 discriminator 1
	mv	a1,s0
	li	a0,2
	call	EF_Ctrl_Is_PowerOffset_Slot_Empty
.LVL107:
	.loc 1 171 9 discriminator 1
	li	a1,2
	.loc 1 170 29 discriminator 1
	bne	a0,zero,.L63
.L49:
	.loc 1 174 9 is_stmt 1
	lui	a0,%hi(.LC1)
	addi	a0,a0,%lo(.LC1)
	call	printf
.LVL108:
	.loc 1 155 13 is_stmt 0
	li	s0,0
	j	.L51
	.cfi_endproc
.LFE14:
	.size	mfg_efuse_is_poweroffset_slot_empty, .-mfg_efuse_is_poweroffset_slot_empty
	.section	.text.mfg_efuse_write_poweroffset_pre,"ax",@progbits
	.align	1
	.globl	mfg_efuse_write_poweroffset_pre
	.type	mfg_efuse_write_poweroffset_pre, @function
mfg_efuse_write_poweroffset_pre:
.LFB15:
	.loc 1 184 1 is_stmt 1
	.cfi_startproc
.LVL109:
	.loc 1 185 5
	.loc 1 186 5
	.loc 1 187 5
	.loc 1 188 5
	.loc 1 189 5
	.loc 1 184 1 is_stmt 0
	addi	sp,sp,-48
	.cfi_def_cfa_offset 48
	sw	ra,44(sp)
	sw	s0,40(sp)
	sw	s2,32(sp)
	sw	s3,28(sp)
	sw	s4,24(sp)
	sw	s5,20(sp)
	sw	s6,16(sp)
	.cfi_offset 1, -4
	.cfi_offset 8, -8
	.cfi_offset 18, -16
	.cfi_offset 19, -20
	.cfi_offset 20, -24
	.cfi_offset 21, -28
	.cfi_offset 22, -32
	mv	s5,a1
	sw	s1,36(sp)
	.cfi_offset 9, -12
	.loc 1 184 1
	mv	s0,a0
	.loc 1 189 29
	call	GLB_Get_Root_CLK_Sel
.LVL110:
	mv	s2,a0
.LVL111:
	.loc 1 191 5 is_stmt 1
	.loc 1 191 10 is_stmt 0
	call	GLB_Get_BCLK_Div
.LVL112:
	mv	s4,a0
.LVL113:
	.loc 1 192 5 is_stmt 1
	.loc 1 192 10 is_stmt 0
	call	GLB_Get_HCLK_Div
.LVL114:
	mv	s3,a0
.LVL115:
	.loc 1 195 5 is_stmt 1
	li	a0,1
	call	HBN_Set_ROOT_CLK_Sel
.LVL116:
	.loc 1 197 5
	.loc 1 197 20 is_stmt 0
	lui	a5,%hi(.LANCHOR0)
	addi	s6,a5,%lo(.LANCHOR0)
	.loc 1 197 7
	lbu	a4,0(s6)
	beq	a4,zero,.L66
	.loc 1 197 25 discriminator 1
	li	a1,1
	li	a0,0
	addi	s1,a5,%lo(.LANCHOR0)
	call	EF_Ctrl_Is_PowerOffset_Slot_Empty
.LVL117:
	.loc 1 197 23 discriminator 1
	bne	a0,zero,.L71
	.loc 1 199 11 is_stmt 1
	.loc 1 199 13 is_stmt 0
	lbu	a4,0(s6)
	li	a5,1
	bleu	a4,a5,.L69
	.loc 1 199 31 discriminator 1
	li	a1,1
	li	a0,1
	call	EF_Ctrl_Is_PowerOffset_Slot_Empty
.LVL118:
	.loc 1 199 29 discriminator 1
	bne	a0,zero,.L72
.L69:
	.loc 1 201 11 is_stmt 1
	.loc 1 201 13 is_stmt 0
	lbu	a4,0(s1)
	li	a5,2
	bgtu	a4,a5,.L67
.L66:
	.loc 1 204 9 is_stmt 1
	lui	a0,%hi(.LC1)
	addi	a0,a0,%lo(.LC1)
	call	printf
.LVL119:
	.loc 1 207 5
	.loc 1 185 17 is_stmt 0
	li	s0,0
.LVL120:
.L70:
	.loc 1 215 5 is_stmt 1
	mv	a1,s4
	mv	a0,s3
	call	GLB_Set_System_CLK_Div
.LVL121:
	.loc 1 216 5
	mv	a0,s2
	call	HBN_Set_ROOT_CLK_Sel
.LVL122:
	.loc 1 219 5
	.loc 1 224 1 is_stmt 0
	lw	ra,44(sp)
	.cfi_remember_state
	.cfi_restore 1
	.loc 1 219 7
	snez	a0,s0
	.loc 1 224 1
	lw	s0,40(sp)
	.cfi_restore 8
.LVL123:
	lw	s1,36(sp)
	.cfi_restore 9
	lw	s2,32(sp)
	.cfi_restore 18
.LVL124:
	lw	s3,28(sp)
	.cfi_restore 19
.LVL125:
	lw	s4,24(sp)
	.cfi_restore 20
.LVL126:
	lw	s5,20(sp)
	.cfi_restore 21
	lw	s6,16(sp)
	.cfi_restore 22
	neg	a0,a0
	addi	sp,sp,48
	.cfi_def_cfa_offset 0
	jr	ra
.LVL127:
.L67:
	.cfi_restore_state
	.loc 1 201 31 discriminator 1
	li	a1,1
	li	a0,2
	call	EF_Ctrl_Is_PowerOffset_Slot_Empty
.LVL128:
	.loc 1 202 13 discriminator 1
	li	s1,2
	.loc 1 201 29 discriminator 1
	beq	a0,zero,.L66
.L68:
.LVL129:
	.loc 1 208 9 is_stmt 1
	.loc 1 208 24 is_stmt 0
	lbu	a5,0(s0)
	.loc 1 211 13
	addi	a1,sp,12
	mv	a2,s5
	.loc 1 208 24
	sb	a5,12(sp)
	.loc 1 209 9 is_stmt 1
	.loc 1 209 24 is_stmt 0
	lbu	a5,6(s0)
	.loc 1 211 13
	mv	a0,s1
	.loc 1 209 24
	sb	a5,13(sp)
	.loc 1 210 9 is_stmt 1
	.loc 1 210 24 is_stmt 0
	lbu	a5,12(s0)
	sb	a5,14(sp)
	.loc 1 211 9 is_stmt 1
	.loc 1 211 13 is_stmt 0
	call	EF_Ctrl_Write_PowerOffset_Opt
.LVL130:
	mv	s0,a0
.LVL131:
	.loc 1 212 9 is_stmt 1
	lui	a0,%hi(.LC2)
	mv	a1,s1
	addi	a0,a0,%lo(.LC2)
	call	printf
.LVL132:
	j	.L70
.LVL133:
.L71:
	.loc 1 198 13 is_stmt 0
	li	s1,0
	j	.L68
.L72:
	.loc 1 200 13
	li	s1,1
	j	.L68
	.cfi_endproc
.LFE15:
	.size	mfg_efuse_write_poweroffset_pre, .-mfg_efuse_write_poweroffset_pre
	.section	.text.mfg_efuse_write_poweroffset,"ax",@progbits
	.align	1
	.globl	mfg_efuse_write_poweroffset
	.type	mfg_efuse_write_poweroffset, @function
mfg_efuse_write_poweroffset:
.LFB27:
	.cfi_startproc
	tail	mfg_efuse_write_xtal_capcode
	.cfi_endproc
.LFE27:
	.size	mfg_efuse_write_poweroffset, .-mfg_efuse_write_poweroffset
	.section	.text.mfg_efuse_read_poweroffset,"ax",@progbits
	.align	1
	.globl	mfg_efuse_read_poweroffset
	.type	mfg_efuse_read_poweroffset, @function
mfg_efuse_read_poweroffset:
.LFB17:
	.loc 1 245 1 is_stmt 1
	.cfi_startproc
.LVL134:
	.loc 1 246 5
	.loc 1 247 5
	.loc 1 248 5
	.loc 1 250 5
	.loc 1 251 5
	.loc 1 252 5
	.loc 1 245 1 is_stmt 0
	addi	sp,sp,-48
	.cfi_def_cfa_offset 48
	sw	ra,44(sp)
	sw	s0,40(sp)
	sw	s1,36(sp)
	sw	s2,32(sp)
	sw	s3,28(sp)
	sw	s4,24(sp)
	sw	s5,20(sp)
	.cfi_offset 1, -4
	.cfi_offset 8, -8
	.cfi_offset 9, -12
	.cfi_offset 18, -16
	.cfi_offset 19, -20
	.cfi_offset 20, -24
	.cfi_offset 21, -28
	.loc 1 245 1
	mv	s0,a0
	mv	s5,a1
	.loc 1 252 29
	call	GLB_Get_Root_CLK_Sel
.LVL135:
	mv	s2,a0
.LVL136:
	.loc 1 254 5 is_stmt 1
	.loc 1 254 10 is_stmt 0
	call	GLB_Get_BCLK_Div
.LVL137:
	mv	s4,a0
.LVL138:
	.loc 1 255 5 is_stmt 1
	.loc 1 255 10 is_stmt 0
	call	GLB_Get_HCLK_Div
.LVL139:
	mv	s3,a0
.LVL140:
	.loc 1 258 5 is_stmt 1
	li	a0,1
	call	HBN_Set_ROOT_CLK_Sel
.LVL141:
	.loc 1 260 5
	.loc 1 260 20 is_stmt 0
	lui	s1,%hi(.LANCHOR0)
	.loc 1 260 7
	lbu	a4,%lo(.LANCHOR0)(s1)
	li	a5,2
	addi	s1,s1,%lo(.LANCHOR0)
	bgtu	a4,a5,.L79
.L83:
	.loc 1 262 11 is_stmt 1
	.loc 1 262 13 is_stmt 0
	lbu	a4,0(s1)
	li	a5,1
	bleu	a4,a5,.L81
	.loc 1 262 33 discriminator 1
	mv	a1,s5
	li	a0,1
	call	EF_Ctrl_Is_PowerOffset_Slot_Empty
.LVL142:
	.loc 1 262 29 discriminator 1
	beq	a0,zero,.L88
.L81:
	.loc 1 264 11 is_stmt 1
	.loc 1 264 13 is_stmt 0
	lbu	a5,0(s1)
	bne	a5,zero,.L84
.L85:
.LVL143:
	.loc 1 295 9 is_stmt 1
	lui	a0,%hi(.LC4)
	addi	a0,a0,%lo(.LC4)
	call	printf
.LVL144:
	.loc 1 247 17 is_stmt 0
	li	s1,1
	j	.L86
.LVL145:
.L79:
	.loc 1 260 27 discriminator 1
	mv	a1,s5
	li	a0,2
	call	EF_Ctrl_Is_PowerOffset_Slot_Empty
.LVL146:
	.loc 1 260 23 discriminator 1
	bne	a0,zero,.L83
	.loc 1 261 13
	li	s1,2
	j	.L82
.L84:
	.loc 1 264 33 discriminator 1
	mv	a1,s5
	li	a0,0
	call	EF_Ctrl_Is_PowerOffset_Slot_Empty
.LVL147:
	mv	s1,a0
	.loc 1 264 29 discriminator 1
	bne	a0,zero,.L85
.L82:
.LVL148:
	.loc 1 269 9 is_stmt 1
	lui	a0,%hi(.LC3)
	mv	a1,s1
	addi	a0,a0,%lo(.LC3)
	call	printf
.LVL149:
	.loc 1 270 9
	.loc 1 270 13 is_stmt 0
	mv	a2,s5
	addi	a1,sp,12
	mv	a0,s1
	call	EF_Ctrl_Read_PowerOffset_Opt
.LVL150:
	.loc 1 271 9
	li	a2,14
	li	a1,0
	.loc 1 270 13
	mv	s1,a0
.LVL151:
	.loc 1 271 9 is_stmt 1
	mv	a0,s0
	call	memset
.LVL152:
	.loc 1 273 9
	.loc 1 275 27 is_stmt 0
	lb	a0,13(sp)
	.loc 1 273 34
	lb	a2,12(sp)
	.loc 1 275 47
	li	a3,100
	.loc 1 275 13
	li	a6,6
	.loc 1 275 30
	sub	a4,a0,a2
	.loc 1 275 47
	mul	a4,a4,a3
	.loc 1 277 32
	li	a7,50
	.loc 1 273 21
	sb	a2,0(s0)
	.loc 1 275 9 is_stmt 1
	.loc 1 278 27 is_stmt 0
	li	a1,3
	.loc 1 282 21
	sb	a0,6(s0)
	.loc 1 275 13
	div	a4,a4,a6
.LVL153:
	.loc 1 276 9 is_stmt 1
	.loc 1 276 46 is_stmt 0
	mul	t1,a2,a3
	.loc 1 276 27
	addi	a5,a4,50
	.loc 1 276 30
	add	a5,a5,t1
	.loc 1 276 51
	div	a5,a5,a3
	.loc 1 277 32
	mul	a2,a2,a7
	.loc 1 276 21
	sb	a5,1(s0)
	.loc 1 277 9 is_stmt 1
	.loc 1 277 29 is_stmt 0
	addi	a5,a4,25
	.loc 1 277 32
	add	a2,a5,a2
	.loc 1 277 53
	div	a2,a2,a7
	.loc 1 277 21
	sb	a2,2(s0)
	.loc 1 278 9 is_stmt 1
	.loc 1 278 27 is_stmt 0
	mul	a2,a4,a1
	.loc 1 278 29
	addi	a2,a2,50
	.loc 1 278 32
	add	a2,a2,t1
	.loc 1 278 53
	div	a2,a2,a3
	.loc 1 278 21
	sb	a2,3(s0)
	.loc 1 279 9 is_stmt 1
	.loc 1 279 27 is_stmt 0
	slli	a2,a4,2
	.loc 1 279 29
	addi	a2,a2,50
	.loc 1 279 32
	add	a2,a2,t1
	.loc 1 279 53
	div	a2,a2,a3
	.loc 1 279 21
	sb	a2,4(s0)
	.loc 1 280 9 is_stmt 1
	.loc 1 280 27 is_stmt 0
	li	a2,5
	mul	a4,a4,a2
.LVL154:
	.loc 1 280 29
	addi	a4,a4,50
	.loc 1 280 32
	add	a4,a4,t1
	.loc 1 284 27
	lb	t1,14(sp)
	.loc 1 280 53
	div	a4,a4,a3
	.loc 1 284 30
	sub	a5,t1,a0
.LVL155:
	.loc 1 291 22
	sb	t1,12(s0)
	.loc 1 284 47
	mul	a5,a5,a3
	.loc 1 280 21
	sb	a4,5(s0)
	.loc 1 282 9 is_stmt 1
	.loc 1 284 9
	.loc 1 284 13 is_stmt 0
	div	a5,a5,a6
.LVL156:
	.loc 1 285 9 is_stmt 1
	.loc 1 285 46 is_stmt 0
	mul	a6,a0,a3
	.loc 1 285 27
	addi	a4,a5,50
	.loc 1 285 30
	add	a4,a4,a6
	.loc 1 285 51
	div	a4,a4,a3
	.loc 1 286 32
	mul	a0,a0,a7
	.loc 1 285 21
	sb	a4,7(s0)
	.loc 1 286 9 is_stmt 1
	.loc 1 286 29 is_stmt 0
	addi	a4,a5,25
	.loc 1 286 32
	add	a0,a4,a0
	.loc 1 288 28
	slli	a4,a5,2
	.loc 1 288 30
	addi	a4,a4,50
	.loc 1 288 33
	add	a4,a4,a6
	.loc 1 288 54
	div	a4,a4,a3
	.loc 1 288 22
	sb	a4,10(s0)
	.loc 1 293 28
	li	a4,7
	.loc 1 287 27
	mul	a1,a5,a1
	.loc 1 289 28
	mul	a2,a5,a2
	.loc 1 287 29
	addi	a1,a1,50
	.loc 1 287 32
	add	a1,a1,a6
	.loc 1 293 28
	mul	a5,a5,a4
.LVL157:
	.loc 1 289 30
	addi	a2,a2,50
	.loc 1 289 33
	add	a2,a2,a6
	.loc 1 293 30
	addi	a5,a5,50
	.loc 1 293 33
	add	a5,a5,a6
	.loc 1 286 53
	div	a0,a0,a7
	.loc 1 287 53
	div	a1,a1,a3
	.loc 1 286 21
	sb	a0,8(s0)
	.loc 1 287 9 is_stmt 1
	.loc 1 289 54 is_stmt 0
	div	a2,a2,a3
	.loc 1 287 21
	sb	a1,9(s0)
	.loc 1 288 9 is_stmt 1
	.loc 1 289 9
	.loc 1 293 54 is_stmt 0
	div	a5,a5,a3
	.loc 1 289 22
	sb	a2,11(s0)
	.loc 1 291 9 is_stmt 1
	.loc 1 293 9
	.loc 1 293 22 is_stmt 0
	sb	a5,13(s0)
.LVL158:
.L86:
	.loc 1 298 5 is_stmt 1
	mv	a1,s4
	mv	a0,s3
	call	GLB_Set_System_CLK_Div
.LVL159:
	.loc 1 299 5
	mv	a0,s2
	call	HBN_Set_ROOT_CLK_Sel
.LVL160:
	.loc 1 301 5
	.loc 1 306 1 is_stmt 0
	lw	ra,44(sp)
	.cfi_remember_state
	.cfi_restore 1
	lw	s0,40(sp)
	.cfi_restore 8
.LVL161:
	.loc 1 301 7
	snez	a0,s1
	.loc 1 306 1
	lw	s2,32(sp)
	.cfi_restore 18
.LVL162:
	lw	s1,36(sp)
	.cfi_restore 9
.LVL163:
	lw	s3,28(sp)
	.cfi_restore 19
.LVL164:
	lw	s4,24(sp)
	.cfi_restore 20
.LVL165:
	lw	s5,20(sp)
	.cfi_restore 21
	neg	a0,a0
	addi	sp,sp,48
	.cfi_def_cfa_offset 0
	jr	ra
.LVL166:
.L88:
	.cfi_restore_state
	.loc 1 263 13
	li	s1,1
	j	.L82
	.cfi_endproc
.LFE17:
	.size	mfg_efuse_read_poweroffset, .-mfg_efuse_read_poweroffset
	.section	.rodata.mfg_efuse_read_poweroffset_ate.str1.4,"aMS",@progbits,1
	.align	2
.LC5:
	.string	"power ate read err\r\n"
	.align	2
.LC6:
	.string	"power ate slot %d\r\n"
	.section	.text.mfg_efuse_read_poweroffset_ate,"ax",@progbits
	.align	1
	.globl	mfg_efuse_read_poweroffset_ate
	.type	mfg_efuse_read_poweroffset_ate, @function
mfg_efuse_read_poweroffset_ate:
.LFB18:
	.loc 1 309 1 is_stmt 1
	.cfi_startproc
.LVL167:
	.loc 1 310 5
	.loc 1 309 1 is_stmt 0
	addi	sp,sp,-48
	.cfi_def_cfa_offset 48
	sw	ra,44(sp)
	sw	s0,40(sp)
	sw	s1,36(sp)
	sw	s2,32(sp)
	sw	s3,28(sp)
	sw	s4,24(sp)
	.cfi_offset 1, -4
	.cfi_offset 8, -8
	.cfi_offset 9, -12
	.cfi_offset 18, -16
	.cfi_offset 19, -20
	.cfi_offset 20, -24
	.loc 1 309 1
	mv	s3,a0
	.loc 1 310 12
	sb	zero,14(sp)
	.loc 1 311 5 is_stmt 1
.LVL168:
	.loc 1 312 5
	.loc 1 312 13 is_stmt 0
	sb	zero,15(sp)
	.loc 1 314 5 is_stmt 1
.LVL169:
	.loc 1 315 5
	.loc 1 315 29 is_stmt 0
	call	GLB_Get_Root_CLK_Sel
.LVL170:
	mv	s0,a0
.LVL171:
	.loc 1 317 5 is_stmt 1
	.loc 1 317 10 is_stmt 0
	call	GLB_Get_BCLK_Div
.LVL172:
	mv	s2,a0
.LVL173:
	.loc 1 318 5 is_stmt 1
	.loc 1 318 10 is_stmt 0
	call	GLB_Get_HCLK_Div
.LVL174:
	mv	s1,a0
.LVL175:
	.loc 1 320 5 is_stmt 1
	li	a0,1
	call	HBN_Set_ROOT_CLK_Sel
.LVL176:
	.loc 1 322 5
	.loc 1 322 19 is_stmt 0
	addi	a1,sp,15
	addi	a0,sp,14
	call	EF_Ctrl_Read_TxPower_ATE
.LVL177:
	.loc 1 311 12
	li	s4,0
	.loc 1 322 7
	beq	a0,zero,.L91
	.loc 1 323 9 is_stmt 1
	lui	a0,%hi(.LC5)
	addi	a0,a0,%lo(.LC5)
	call	printf
.LVL178:
	.loc 1 324 9
	.loc 1 324 13 is_stmt 0
	li	s4,-1
.LVL179:
.L91:
	.loc 1 326 5 is_stmt 1
	lbu	a1,15(sp)
	lui	a0,%hi(.LC6)
	addi	a0,a0,%lo(.LC6)
	call	printf
.LVL180:
	.loc 1 327 5
	.loc 1 327 16 is_stmt 0
	lbu	a5,14(sp)
	.loc 1 328 5
	mv	a1,s2
	mv	a0,s1
	.loc 1 327 16
	sb	a5,0(s3)
	.loc 1 328 5 is_stmt 1
	call	GLB_Set_System_CLK_Div
.LVL181:
	.loc 1 329 5
	mv	a0,s0
	call	HBN_Set_ROOT_CLK_Sel
.LVL182:
	.loc 1 332 5
	.loc 1 334 1 is_stmt 0
	lw	ra,44(sp)
	.cfi_restore 1
	lw	s0,40(sp)
	.cfi_restore 8
.LVL183:
	lw	s1,36(sp)
	.cfi_restore 9
.LVL184:
	lw	s2,32(sp)
	.cfi_restore 18
.LVL185:
	lw	s3,28(sp)
	.cfi_restore 19
.LVL186:
	mv	a0,s4
	lw	s4,24(sp)
	.cfi_restore 20
.LVL187:
	addi	sp,sp,48
	.cfi_def_cfa_offset 0
	jr	ra
	.cfi_endproc
.LFE18:
	.size	mfg_efuse_read_poweroffset_ate, .-mfg_efuse_read_poweroffset_ate
	.section	.text.mfg_efuse_is_macaddr_slot_empty,"ax",@progbits
	.align	1
	.globl	mfg_efuse_is_macaddr_slot_empty
	.type	mfg_efuse_is_macaddr_slot_empty, @function
mfg_efuse_is_macaddr_slot_empty:
.LFB19:
	.loc 1 337 1 is_stmt 1
	.cfi_startproc
.LVL188:
	.loc 1 338 5
	.loc 1 339 5
	.loc 1 340 5
	.loc 1 337 1 is_stmt 0
	addi	sp,sp,-32
	.cfi_def_cfa_offset 32
	sw	ra,28(sp)
	sw	s0,24(sp)
	sw	s2,16(sp)
	sw	s3,12(sp)
	sw	s4,8(sp)
	sw	s5,4(sp)
	sw	s1,20(sp)
	.cfi_offset 1, -4
	.cfi_offset 8, -8
	.cfi_offset 18, -16
	.cfi_offset 19, -20
	.cfi_offset 20, -24
	.cfi_offset 21, -28
	.cfi_offset 9, -12
	.loc 1 337 1
	mv	s0,a0
	.loc 1 340 29
	call	GLB_Get_Root_CLK_Sel
.LVL189:
	mv	s2,a0
.LVL190:
	.loc 1 342 5 is_stmt 1
	.loc 1 342 10 is_stmt 0
	call	GLB_Get_BCLK_Div
.LVL191:
	mv	s4,a0
.LVL192:
	.loc 1 343 5 is_stmt 1
	.loc 1 343 10 is_stmt 0
	call	GLB_Get_HCLK_Div
.LVL193:
	mv	s3,a0
.LVL194:
	.loc 1 345 5 is_stmt 1
	li	a0,1
	call	HBN_Set_ROOT_CLK_Sel
.LVL195:
	.loc 1 347 5
	.loc 1 347 20 is_stmt 0
	lui	a5,%hi(.LANCHOR0)
	addi	s5,a5,%lo(.LANCHOR0)
	.loc 1 347 7
	lbu	a4,0(s5)
	beq	a4,zero,.L95
	.loc 1 347 25 discriminator 1
	mv	a1,s0
	li	a0,0
	addi	s1,a5,%lo(.LANCHOR0)
	call	EF_Ctrl_Is_MAC_Address_Slot_Empty
.LVL196:
	.loc 1 348 9 discriminator 1
	li	a1,0
	.loc 1 347 23 discriminator 1
	bne	a0,zero,.L109
	.loc 1 350 11 is_stmt 1
	.loc 1 350 13 is_stmt 0
	lbu	a4,0(s5)
	li	a5,1
	bleu	a4,a5,.L98
	.loc 1 350 31 discriminator 1
	mv	a1,s0
	li	a0,1
	call	EF_Ctrl_Is_MAC_Address_Slot_Empty
.LVL197:
	.loc 1 350 29 discriminator 1
	beq	a0,zero,.L98
	.loc 1 351 9 is_stmt 1
	li	a1,1
.L109:
	lui	a0,%hi(.LC0)
	addi	a0,a0,%lo(.LC0)
	call	printf
.LVL198:
	.loc 1 352 9
	.loc 1 352 14 is_stmt 0
	li	s0,1
.LVL199:
.L97:
	.loc 1 360 5 is_stmt 1
	mv	a1,s4
	mv	a0,s3
	call	GLB_Set_System_CLK_Div
.LVL200:
	.loc 1 361 5
	mv	a0,s2
	call	HBN_Set_ROOT_CLK_Sel
.LVL201:
	.loc 1 363 5
	.loc 1 364 1 is_stmt 0
	lw	ra,28(sp)
	.cfi_remember_state
	.cfi_restore 1
	mv	a0,s0
	lw	s0,24(sp)
	.cfi_restore 8
.LVL202:
	lw	s1,20(sp)
	.cfi_restore 9
	lw	s2,16(sp)
	.cfi_restore 18
.LVL203:
	lw	s3,12(sp)
	.cfi_restore 19
.LVL204:
	lw	s4,8(sp)
	.cfi_restore 20
.LVL205:
	lw	s5,4(sp)
	.cfi_restore 21
	addi	sp,sp,32
	.cfi_def_cfa_offset 0
	jr	ra
.LVL206:
.L98:
	.cfi_restore_state
	.loc 1 353 11 is_stmt 1
	.loc 1 353 13 is_stmt 0
	lbu	a4,0(s1)
	li	a5,2
	bleu	a4,a5,.L95
	.loc 1 353 31 discriminator 1
	mv	a1,s0
	li	a0,2
	call	EF_Ctrl_Is_MAC_Address_Slot_Empty
.LVL207:
	.loc 1 354 9 discriminator 1
	li	a1,2
	.loc 1 353 29 discriminator 1
	bne	a0,zero,.L109
.L95:
	.loc 1 357 9 is_stmt 1
	lui	a0,%hi(.LC1)
	addi	a0,a0,%lo(.LC1)
	call	printf
.LVL208:
	.loc 1 338 13 is_stmt 0
	li	s0,0
	j	.L97
	.cfi_endproc
.LFE19:
	.size	mfg_efuse_is_macaddr_slot_empty, .-mfg_efuse_is_macaddr_slot_empty
	.section	.text.mfg_efuse_write_macaddr_pre,"ax",@progbits
	.align	1
	.globl	mfg_efuse_write_macaddr_pre
	.type	mfg_efuse_write_macaddr_pre, @function
mfg_efuse_write_macaddr_pre:
.LFB20:
	.loc 1 367 1 is_stmt 1
	.cfi_startproc
.LVL209:
	.loc 1 368 5
	.loc 1 369 5
	.loc 1 370 5
	.loc 1 371 5
	.loc 1 367 1 is_stmt 0
	addi	sp,sp,-32
	.cfi_def_cfa_offset 32
	sw	ra,28(sp)
	sw	s1,20(sp)
	sw	s2,16(sp)
	sw	s3,12(sp)
	sw	s4,8(sp)
	sw	s5,4(sp)
	sw	s6,0(sp)
	sw	s0,24(sp)
	.cfi_offset 1, -4
	.cfi_offset 9, -12
	.cfi_offset 18, -16
	.cfi_offset 19, -20
	.cfi_offset 20, -24
	.cfi_offset 21, -28
	.cfi_offset 22, -32
	.cfi_offset 8, -8
	.loc 1 367 1
	mv	s6,a1
	mv	s5,a0
	.loc 1 371 29
	call	GLB_Get_Root_CLK_Sel
.LVL210:
	mv	s2,a0
.LVL211:
	.loc 1 373 5 is_stmt 1
	.loc 1 373 10 is_stmt 0
	call	GLB_Get_BCLK_Div
.LVL212:
	mv	s4,a0
.LVL213:
	.loc 1 374 5 is_stmt 1
	.loc 1 374 10 is_stmt 0
	call	GLB_Get_HCLK_Div
.LVL214:
	mv	s3,a0
.LVL215:
	.loc 1 377 5 is_stmt 1
	li	a0,1
	call	HBN_Set_ROOT_CLK_Sel
.LVL216:
	.loc 1 379 5
	.loc 1 379 20 is_stmt 0
	lui	a5,%hi(.LANCHOR0)
	addi	s1,a5,%lo(.LANCHOR0)
	.loc 1 379 7
	lbu	a4,0(s1)
	beq	a4,zero,.L112
	.loc 1 379 25 discriminator 1
	li	a1,1
	li	a0,0
	addi	s0,a5,%lo(.LANCHOR0)
	call	EF_Ctrl_Is_MAC_Address_Slot_Empty
.LVL217:
	.loc 1 379 23 discriminator 1
	bne	a0,zero,.L117
	.loc 1 381 11 is_stmt 1
	.loc 1 381 13 is_stmt 0
	lbu	a4,0(s1)
	li	a5,1
	bleu	a4,a5,.L115
	.loc 1 381 31 discriminator 1
	li	a1,1
	li	a0,1
	call	EF_Ctrl_Is_MAC_Address_Slot_Empty
.LVL218:
	.loc 1 381 29 discriminator 1
	bne	a0,zero,.L118
.L115:
	.loc 1 383 11 is_stmt 1
	.loc 1 383 13 is_stmt 0
	lbu	a4,0(s0)
	li	a5,2
	bgtu	a4,a5,.L113
.L112:
	.loc 1 386 9 is_stmt 1
	lui	a0,%hi(.LC1)
	addi	a0,a0,%lo(.LC1)
	call	printf
.LVL219:
	.loc 1 389 5
	.loc 1 368 17 is_stmt 0
	li	s0,0
.LVL220:
.L116:
	.loc 1 394 5 is_stmt 1
	mv	a1,s4
	mv	a0,s3
	call	GLB_Set_System_CLK_Div
.LVL221:
	.loc 1 395 5
	mv	a0,s2
	call	HBN_Set_ROOT_CLK_Sel
.LVL222:
	.loc 1 398 5
	.loc 1 403 1 is_stmt 0
	lw	ra,28(sp)
	.cfi_remember_state
	.cfi_restore 1
	.loc 1 398 7
	snez	a0,s0
	.loc 1 403 1
	lw	s0,24(sp)
	.cfi_restore 8
.LVL223:
	lw	s1,20(sp)
	.cfi_restore 9
	lw	s2,16(sp)
	.cfi_restore 18
.LVL224:
	lw	s3,12(sp)
	.cfi_restore 19
.LVL225:
	lw	s4,8(sp)
	.cfi_restore 20
.LVL226:
	lw	s5,4(sp)
	.cfi_restore 21
.LVL227:
	lw	s6,0(sp)
	.cfi_restore 22
	neg	a0,a0
	addi	sp,sp,32
	.cfi_def_cfa_offset 0
	jr	ra
.LVL228:
.L113:
	.cfi_restore_state
	.loc 1 383 31 discriminator 1
	li	a1,1
	li	a0,2
	call	EF_Ctrl_Is_MAC_Address_Slot_Empty
.LVL229:
	.loc 1 384 13 discriminator 1
	li	s1,2
	.loc 1 383 29 discriminator 1
	beq	a0,zero,.L112
.L114:
.LVL230:
	.loc 1 390 9 is_stmt 1
	.loc 1 390 13 is_stmt 0
	mv	a1,s5
	mv	a2,s6
	mv	a0,s1
	call	EF_Ctrl_Write_MAC_Address_Opt
.LVL231:
	mv	s0,a0
.LVL232:
	.loc 1 391 9 is_stmt 1
	lui	a0,%hi(.LC2)
	mv	a1,s1
	addi	a0,a0,%lo(.LC2)
	call	printf
.LVL233:
	j	.L116
.LVL234:
.L117:
	.loc 1 380 13 is_stmt 0
	li	s1,0
	j	.L114
.L118:
	.loc 1 382 13
	li	s1,1
	j	.L114
	.cfi_endproc
.LFE20:
	.size	mfg_efuse_write_macaddr_pre, .-mfg_efuse_write_macaddr_pre
	.section	.text.mfg_efuse_write_macaddr,"ax",@progbits
	.align	1
	.globl	mfg_efuse_write_macaddr
	.type	mfg_efuse_write_macaddr, @function
mfg_efuse_write_macaddr:
.LFB29:
	.cfi_startproc
	tail	mfg_efuse_write_xtal_capcode
	.cfi_endproc
.LFE29:
	.size	mfg_efuse_write_macaddr, .-mfg_efuse_write_macaddr
	.section	.text.mfg_efuse_read_macaddr,"ax",@progbits
	.align	1
	.globl	mfg_efuse_read_macaddr
	.type	mfg_efuse_read_macaddr, @function
mfg_efuse_read_macaddr:
.LFB22:
	.loc 1 426 1 is_stmt 1
	.cfi_startproc
.LVL235:
	.loc 1 427 5
	.loc 1 428 5
	.loc 1 429 5
	.loc 1 430 5
	.loc 1 426 1 is_stmt 0
	addi	sp,sp,-32
	.cfi_def_cfa_offset 32
	sw	ra,28(sp)
	sw	s0,24(sp)
	sw	s1,20(sp)
	sw	s2,16(sp)
	.cfi_offset 1, -4
	.cfi_offset 8, -8
	.cfi_offset 9, -12
	.cfi_offset 18, -16
	mv	s1,a1
	sw	s3,12(sp)
	sw	s4,8(sp)
	sw	s5,4(sp)
	.cfi_offset 19, -20
	.cfi_offset 20, -24
	.cfi_offset 21, -28
	.loc 1 426 1
	mv	s5,a0
	.loc 1 430 29
	call	GLB_Get_Root_CLK_Sel
.LVL236:
	mv	s2,a0
.LVL237:
	.loc 1 432 5 is_stmt 1
	.loc 1 432 10 is_stmt 0
	call	GLB_Get_BCLK_Div
.LVL238:
	mv	s4,a0
.LVL239:
	.loc 1 433 5 is_stmt 1
	.loc 1 433 10 is_stmt 0
	call	GLB_Get_HCLK_Div
.LVL240:
	mv	s3,a0
.LVL241:
	.loc 1 436 5 is_stmt 1
	li	a0,1
	call	HBN_Set_ROOT_CLK_Sel
.LVL242:
	.loc 1 438 5
	.loc 1 438 20 is_stmt 0
	lui	s0,%hi(.LANCHOR0)
	.loc 1 438 7
	lbu	a4,%lo(.LANCHOR0)(s0)
	li	a5,2
	addi	s0,s0,%lo(.LANCHOR0)
	bgtu	a4,a5,.L125
.L129:
	.loc 1 440 11 is_stmt 1
	.loc 1 440 13 is_stmt 0
	lbu	a4,0(s0)
	li	a5,1
	bleu	a4,a5,.L127
	.loc 1 440 33 discriminator 1
	mv	a1,s1
	li	a0,1
	call	EF_Ctrl_Is_MAC_Address_Slot_Empty
.LVL243:
	.loc 1 440 29 discriminator 1
	beq	a0,zero,.L134
.L127:
	.loc 1 442 11 is_stmt 1
	.loc 1 442 13 is_stmt 0
	lbu	a5,0(s0)
	bne	a5,zero,.L130
.L131:
.LVL244:
	.loc 1 450 9 is_stmt 1
	lui	a0,%hi(.LC4)
	addi	a0,a0,%lo(.LC4)
	call	printf
.LVL245:
	.loc 1 428 17 is_stmt 0
	li	s0,1
	j	.L132
.LVL246:
.L125:
	.loc 1 438 27 discriminator 1
	mv	a1,s1
	li	a0,2
	call	EF_Ctrl_Is_MAC_Address_Slot_Empty
.LVL247:
	.loc 1 438 23 discriminator 1
	bne	a0,zero,.L129
	.loc 1 439 13
	li	s0,2
	j	.L128
.L130:
	.loc 1 442 33 discriminator 1
	mv	a1,s1
	li	a0,0
	call	EF_Ctrl_Is_MAC_Address_Slot_Empty
.LVL248:
	mv	s0,a0
	.loc 1 442 29 discriminator 1
	bne	a0,zero,.L131
.L128:
.LVL249:
	.loc 1 447 9 is_stmt 1
	lui	a0,%hi(.LC3)
	mv	a1,s0
	addi	a0,a0,%lo(.LC3)
	call	printf
.LVL250:
	.loc 1 448 9
	.loc 1 448 13 is_stmt 0
	mv	a0,s0
	mv	a2,s1
	mv	a1,s5
	call	EF_Ctrl_Read_MAC_Address_Opt
.LVL251:
	mv	s0,a0
.LVL252:
.L132:
	.loc 1 453 5 is_stmt 1
	mv	a1,s4
	mv	a0,s3
	call	GLB_Set_System_CLK_Div
.LVL253:
	.loc 1 454 5
	mv	a0,s2
	call	HBN_Set_ROOT_CLK_Sel
.LVL254:
	.loc 1 456 5
	.loc 1 461 1 is_stmt 0
	lw	ra,28(sp)
	.cfi_remember_state
	.cfi_restore 1
	.loc 1 456 7
	snez	a0,s0
	.loc 1 461 1
	lw	s0,24(sp)
	.cfi_restore 8
.LVL255:
	lw	s1,20(sp)
	.cfi_restore 9
	lw	s2,16(sp)
	.cfi_restore 18
.LVL256:
	lw	s3,12(sp)
	.cfi_restore 19
.LVL257:
	lw	s4,8(sp)
	.cfi_restore 20
.LVL258:
	lw	s5,4(sp)
	.cfi_restore 21
.LVL259:
	neg	a0,a0
	addi	sp,sp,32
	.cfi_def_cfa_offset 0
	jr	ra
.LVL260:
.L134:
	.cfi_restore_state
	.loc 1 441 13
	li	s0,1
	j	.L128
	.cfi_endproc
.LFE22:
	.size	mfg_efuse_read_macaddr, .-mfg_efuse_read_macaddr
	.section	.text.mfg_efuse_write_pre,"ax",@progbits
	.align	1
	.globl	mfg_efuse_write_pre
	.type	mfg_efuse_write_pre, @function
mfg_efuse_write_pre:
.LFB23:
	.loc 1 464 1 is_stmt 1
	.cfi_startproc
.LVL261:
	.loc 1 465 5
	.loc 1 466 5
	.loc 1 467 5
	.loc 1 464 1 is_stmt 0
	addi	sp,sp,-32
	.cfi_def_cfa_offset 32
	sw	s0,24(sp)
	sw	s4,8(sp)
	sw	s5,4(sp)
	sw	ra,28(sp)
	sw	s1,20(sp)
	sw	s2,16(sp)
	sw	s3,12(sp)
	.cfi_offset 8, -8
	.cfi_offset 20, -24
	.cfi_offset 21, -28
	.cfi_offset 1, -4
	.cfi_offset 9, -12
	.cfi_offset 18, -16
	.cfi_offset 19, -20
	.loc 1 464 1
	mv	s0,a0
	mv	s4,a1
	mv	s5,a2
	.loc 1 467 29
	call	GLB_Get_Root_CLK_Sel
.LVL262:
	.loc 1 469 5 is_stmt 1
	.loc 1 469 7 is_stmt 0
	li	a5,128
	bgtu	s0,a5,.L138
	mv	s1,a0
	.loc 1 473 5 is_stmt 1
	.loc 1 473 10 is_stmt 0
	call	GLB_Get_BCLK_Div
.LVL263:
	mv	s3,a0
.LVL264:
	.loc 1 474 5 is_stmt 1
	.loc 1 474 10 is_stmt 0
	call	GLB_Get_HCLK_Div
.LVL265:
	mv	s2,a0
.LVL266:
	.loc 1 476 5 is_stmt 1
	li	a0,1
	call	HBN_Set_ROOT_CLK_Sel
.LVL267:
	.loc 1 478 5
	mv	a2,s5
	mv	a1,s4
	srli	a0,s0,2
	call	EF_Ctrl_Write_R0
.LVL268:
	.loc 1 480 5
	mv	a1,s3
	mv	a0,s2
	call	GLB_Set_System_CLK_Div
.LVL269:
	.loc 1 481 5
	mv	a0,s1
	call	HBN_Set_ROOT_CLK_Sel
.LVL270:
	.loc 1 483 5
	.loc 1 484 9
	.loc 1 484 16 is_stmt 0
	li	a0,0
.LVL271:
.L137:
	.loc 1 488 1
	lw	ra,28(sp)
	.cfi_remember_state
	.cfi_restore 1
	lw	s0,24(sp)
	.cfi_restore 8
.LVL272:
	lw	s1,20(sp)
	.cfi_restore 9
	lw	s2,16(sp)
	.cfi_restore 18
	lw	s3,12(sp)
	.cfi_restore 19
	lw	s4,8(sp)
	.cfi_restore 20
.LVL273:
	lw	s5,4(sp)
	.cfi_restore 21
.LVL274:
	addi	sp,sp,32
	.cfi_def_cfa_offset 0
	jr	ra
.LVL275:
.L138:
	.cfi_restore_state
	.loc 1 470 16
	li	a0,-1
.LVL276:
	j	.L137
	.cfi_endproc
.LFE23:
	.size	mfg_efuse_write_pre, .-mfg_efuse_write_pre
	.section	.text.mfg_efuse_read,"ax",@progbits
	.align	1
	.globl	mfg_efuse_read
	.type	mfg_efuse_read, @function
mfg_efuse_read:
.LFB24:
	.loc 1 491 1 is_stmt 1
	.cfi_startproc
.LVL277:
	.loc 1 492 5
	.loc 1 493 5
	.loc 1 494 5
	.loc 1 491 1 is_stmt 0
	addi	sp,sp,-48
	.cfi_def_cfa_offset 48
	sw	s0,40(sp)
	sw	s4,24(sp)
	sw	ra,44(sp)
	sw	s1,36(sp)
	sw	s2,32(sp)
	sw	s3,28(sp)
	.cfi_offset 8, -8
	.cfi_offset 20, -24
	.cfi_offset 1, -4
	.cfi_offset 9, -12
	.cfi_offset 18, -16
	.cfi_offset 19, -20
	.loc 1 491 1
	mv	s0,a0
	sw	a1,12(sp)
	sw	a2,8(sp)
	mv	s4,a3
	.loc 1 494 29
	call	GLB_Get_Root_CLK_Sel
.LVL278:
	.loc 1 496 5 is_stmt 1
	.loc 1 496 7 is_stmt 0
	li	a5,128
	bgtu	s0,a5,.L144
	mv	s1,a0
	.loc 1 500 5 is_stmt 1
	.loc 1 500 10 is_stmt 0
	call	GLB_Get_BCLK_Div
.LVL279:
	mv	s3,a0
.LVL280:
	.loc 1 501 5 is_stmt 1
	.loc 1 501 10 is_stmt 0
	call	GLB_Get_HCLK_Div
.LVL281:
	mv	s2,a0
.LVL282:
	.loc 1 503 5 is_stmt 1
	li	a0,1
	call	HBN_Set_ROOT_CLK_Sel
.LVL283:
	.loc 1 505 5
	.loc 1 505 7 is_stmt 0
	lw	a2,8(sp)
	lw	a1,12(sp)
	.loc 1 506 9
	srli	a0,s0,2
	.loc 1 505 7
	beq	s4,zero,.L142
	.loc 1 506 9 is_stmt 1
	call	EF_Ctrl_Read_Direct_R0
.LVL284:
.L143:
	.loc 1 511 5
	mv	a1,s3
	mv	a0,s2
	call	GLB_Set_System_CLK_Div
.LVL285:
	.loc 1 512 5
	mv	a0,s1
	call	HBN_Set_ROOT_CLK_Sel
.LVL286:
	.loc 1 514 5
	.loc 1 515 9
	.loc 1 515 16 is_stmt 0
	li	a0,0
.LVL287:
.L141:
	.loc 1 519 1
	lw	ra,44(sp)
	.cfi_remember_state
	.cfi_restore 1
	lw	s0,40(sp)
	.cfi_restore 8
.LVL288:
	lw	s1,36(sp)
	.cfi_restore 9
	lw	s2,32(sp)
	.cfi_restore 18
	lw	s3,28(sp)
	.cfi_restore 19
	lw	s4,24(sp)
	.cfi_restore 20
	addi	sp,sp,48
	.cfi_def_cfa_offset 0
.LVL289:
	jr	ra
.LVL290:
.L142:
	.cfi_restore_state
	.loc 1 508 9 is_stmt 1
	call	EF_Ctrl_Read_R0
.LVL291:
	j	.L143
.LVL292:
.L144:
	.loc 1 497 16 is_stmt 0
	li	a0,-1
.LVL293:
	j	.L141
	.cfi_endproc
.LFE24:
	.size	mfg_efuse_read, .-mfg_efuse_read
	.section	.text.mfg_efuse_program,"ax",@progbits
	.align	1
	.globl	mfg_efuse_program
	.type	mfg_efuse_program, @function
mfg_efuse_program:
.LFB25:
	.loc 1 522 1 is_stmt 1
	.cfi_startproc
	.loc 1 523 5
.LVL294:
	.loc 1 524 5
	.loc 1 525 5
	.loc 1 522 1 is_stmt 0
	addi	sp,sp,-32
	.cfi_def_cfa_offset 32
	sw	ra,28(sp)
	sw	s0,24(sp)
	sw	s1,20(sp)
	sw	s2,16(sp)
	sw	s3,12(sp)
	.cfi_offset 1, -4
	.cfi_offset 8, -8
	.cfi_offset 9, -12
	.cfi_offset 18, -16
	.cfi_offset 19, -20
	.loc 1 525 29
	call	GLB_Get_Root_CLK_Sel
.LVL295:
	mv	s0,a0
.LVL296:
	.loc 1 527 5 is_stmt 1
	.loc 1 527 10 is_stmt 0
	call	GLB_Get_BCLK_Div
.LVL297:
	mv	s2,a0
.LVL298:
	.loc 1 528 5 is_stmt 1
	.loc 1 528 10 is_stmt 0
	call	GLB_Get_HCLK_Div
.LVL299:
	mv	s1,a0
.LVL300:
	.loc 1 530 5 is_stmt 1
	li	a0,1
	call	HBN_Set_ROOT_CLK_Sel
.LVL301:
	.loc 1 532 5
	li	a2,0
	li	a1,0
	li	a0,0
	call	EF_Ctrl_Program_Direct_R0
.LVL302:
	.loc 1 533 5
	.loc 1 533 10 is_stmt 0
	li	s3,1
.L147:
	.loc 1 533 31 is_stmt 1 discriminator 1
	.loc 1 533 10 discriminator 1
	.loc 1 533 16 is_stmt 0 discriminator 1
	call	EF_Ctrl_Busy
.LVL303:
	.loc 1 533 10 discriminator 1
	beq	a0,s3,.L147
	.loc 1 535 5 is_stmt 1
	mv	a1,s2
	mv	a0,s1
	call	GLB_Set_System_CLK_Div
.LVL304:
	.loc 1 536 5
	mv	a0,s0
	call	HBN_Set_ROOT_CLK_Sel
.LVL305:
	.loc 1 538 5
	.loc 1 539 9
	.loc 1 543 1 is_stmt 0
	lw	ra,28(sp)
	.cfi_restore 1
	lw	s0,24(sp)
	.cfi_restore 8
.LVL306:
	lw	s1,20(sp)
	.cfi_restore 9
.LVL307:
	lw	s2,16(sp)
	.cfi_restore 18
.LVL308:
	lw	s3,12(sp)
	.cfi_restore 19
	li	a0,0
	addi	sp,sp,32
	.cfi_def_cfa_offset 0
	jr	ra
	.cfi_endproc
.LFE25:
	.size	mfg_efuse_program, .-mfg_efuse_program
	.section	.sdata.rf_cal_slots,"aw"
	.set	.LANCHOR0,. + 0
	.type	rf_cal_slots, @object
	.size	rf_cal_slots, 1
rf_cal_slots:
	.byte	3
	.text
.Letext0:
	.file 2 "/mnt/d/GitHub/bl_iot_sdk_for_aithinker/toolchain/riscv/Linux/lib/gcc/riscv64-unknown-elf/10.2.0/include/stdint-gcc.h"
	.file 3 "/mnt/d/GitHub/bl_iot_sdk_for_aithinker/components/platform/soc/bl602/bl602_std/bl602_std/StdDriver/Inc/bl602_common.h"
	.file 4 "/mnt/d/GitHub/bl_iot_sdk_for_aithinker/components/platform/soc/bl602/bl602_std/bl602_std/StdDriver/Inc/bl602_hbn.h"
	.file 5 "/mnt/d/GitHub/bl_iot_sdk_for_aithinker/components/platform/soc/bl602/bl602_std/bl602_std/StdDriver/Inc/bl602_glb.h"
	.file 6 "/mnt/d/GitHub/bl_iot_sdk_for_aithinker/components/platform/soc/bl602/bl602_std/bl602_std/StdDriver/Inc/bl602_ef_ctrl.h"
	.file 7 "/mnt/d/GitHub/bl_iot_sdk_for_aithinker/toolchain/riscv/Linux/riscv64-unknown-elf/include/stdio.h"
	.file 8 "/mnt/d/GitHub/bl_iot_sdk_for_aithinker/toolchain/riscv/Linux/riscv64-unknown-elf/include/string.h"