	.file	"bl602_dma.c"
	.option nopic
	.attribute arch, "rv32i2p0_m2p0_f2p0_c2p0"
	.attribute unaligned_access, 0
	.attribute stack_align, 16
	.text
.Ltext0:
	.cfi_sections	.debug_frame
	.section	.text.DMA_Enable,"ax",@progbits
	.align	1
	.globl	DMA_Enable
	.type	DMA_Enable, @function
DMA_Enable:
.LFB8:
	.file 1 "/mnt/d/GitHub/bl_iot_sdk_for_aithinker/components/platform/soc/bl602/bl602_std/bl602_std/StdDriver/Src/bl602_dma.c"
	.loc 1 160 1
	.cfi_startproc
	.loc 1 161 5
	.loc 1 163 5
.LVL0:
	.loc 1 165 5
	.loc 1 165 12 is_stmt 0
	li	a4,1073790976
	lw	a5,48(a4)
.LVL1:
	.loc 1 166 5 is_stmt 1
	.loc 1 166 12 is_stmt 0
	ori	a5,a5,1
.LVL2:
	.loc 1 167 5 is_stmt 1
	.loc 1 167 44 is_stmt 0
	sw	a5,48(a4)
	.loc 1 171 1
	ret
	.cfi_endproc
.LFE8:
	.size	DMA_Enable, .-DMA_Enable
	.section	.text.DMA_Disable,"ax",@progbits
	.align	1
	.globl	DMA_Disable
	.type	DMA_Disable, @function
DMA_Disable:
.LFB9:
	.loc 1 182 1 is_stmt 1
	.cfi_startproc
	.loc 1 183 5
	.loc 1 185 5
.LVL3:
	.loc 1 187 5
	.loc 1 187 12 is_stmt 0
	li	a4,1073790976
	lw	a5,48(a4)
.LVL4:
	.loc 1 188 5 is_stmt 1
	.loc 1 188 12 is_stmt 0
	andi	a5,a5,-2
.LVL5:
	.loc 1 189 5 is_stmt 1
	.loc 1 189 44 is_stmt 0
	sw	a5,48(a4)
	.loc 1 190 1
	ret
	.cfi_endproc
.LFE9:
	.size	DMA_Disable, .-DMA_Disable
	.section	.text.DMA_Channel_Init,"ax",@progbits
	.align	1
	.globl	DMA_Channel_Init
	.type	DMA_Channel_Init, @function
DMA_Channel_Init:
.LFB10:
	.loc 1 201 1 is_stmt 1
	.cfi_startproc
.LVL6:
	.loc 1 202 5
	.loc 1 204 5
	.loc 1 204 53 is_stmt 0
	lw	a5,16(a0)
	li	a4,4194304
	addi	a4,a4,193
	add	a5,a5,a4
	.loc 1 217 50
	lw	a4,0(a0)
	.loc 1 204 14
	slli	a5,a5,8
.LVL7:
	.loc 1 207 5 is_stmt 1
	.loc 1 208 5
	.loc 1 209 5
	.loc 1 210 5
	.loc 1 211 5
	.loc 1 212 5
	.loc 1 213 5
	.loc 1 214 5
	.loc 1 217 5
	.loc 1 221 25 is_stmt 0
	li	a3,-4096
	.loc 1 217 43
	sw	a4,0(a5)
	.loc 1 218 5 is_stmt 1
	.loc 1 218 50 is_stmt 0
	lw	a4,4(a0)
	.loc 1 218 43
	sw	a4,4(a5)
	.loc 1 220 5 is_stmt 1
	.loc 1 220 12 is_stmt 0
	lw	a4,12(a5)
.LVL8:
	.loc 1 221 5 is_stmt 1
	.loc 1 221 25 is_stmt 0
	and	a4,a4,a3
.LVL9:
	.loc 1 222 5 is_stmt 1
	.loc 1 221 12 is_stmt 0
	lw	a3,8(a0)
	or	a4,a4,a3
.LVL10:
	.loc 1 222 25
	li	a3,-1835008
	addi	a3,a3,-1
	and	a3,a4,a3
.LVL11:
	.loc 1 223 5 is_stmt 1
	.loc 1 222 96 is_stmt 0
	lw	a4,20(a0)
	slli	a4,a4,18
	.loc 1 222 12
	or	a4,a4,a3
.LVL12:
	.loc 1 223 25
	li	a3,-14680064
	addi	a3,a3,-1
	and	a4,a4,a3
.LVL13:
	.loc 1 224 5 is_stmt 1
	.loc 1 223 96 is_stmt 0
	lw	a3,24(a0)
	slli	a3,a3,21
	.loc 1 223 12
	or	a3,a3,a4
.LVL14:
	.loc 1 224 25
	li	a4,-28672
	addi	a4,a4,-1
	and	a4,a3,a4
.LVL15:
	.loc 1 225 5 is_stmt 1
	.loc 1 224 94 is_stmt 0
	lw	a3,28(a0)
	slli	a3,a3,12
	.loc 1 224 12
	or	a3,a3,a4
.LVL16:
	.loc 1 225 25
	li	a4,-229376
	addi	a4,a4,-1
	and	a3,a3,a4
.LVL17:
	.loc 1 227 5 is_stmt 1
	.loc 1 228 5
	.loc 1 225 94 is_stmt 0
	lw	a4,32(a0)
	slli	a4,a4,15
	.loc 1 225 12
	or	a4,a4,a3
	.loc 1 228 25
	li	a3,-83886080
.LVL18:
	addi	a3,a3,-1
	and	a3,a4,a3
.LVL19:
	.loc 1 229 5 is_stmt 1
	.loc 1 228 63 is_stmt 0
	lbu	a4,36(a0)
	.loc 1 228 92
	slli	a4,a4,26
	.loc 1 228 12
	or	a4,a4,a3
	.loc 1 229 25
	li	a3,-134217728
.LVL20:
	addi	a3,a3,-1
	and	a4,a4,a3
	.loc 1 229 63
	lbu	a3,37(a0)
	.loc 1 229 93
	slli	a3,a3,27
	.loc 1 229 12
	or	a4,a3,a4
.LVL21:
	.loc 1 230 5 is_stmt 1
	.loc 1 230 43 is_stmt 0
	sw	a4,12(a5)
	.loc 1 232 5 is_stmt 1
	.loc 1 232 12 is_stmt 0
	lw	a4,16(a5)
.LVL22:
	.loc 1 233 5 is_stmt 1
	.loc 1 233 25 is_stmt 0
	li	a3,-16384
	addi	a3,a3,2047
	and	a3,a4,a3
.LVL23:
	.loc 1 234 5 is_stmt 1
	.loc 1 233 85 is_stmt 0
	lw	a4,12(a0)
	slli	a4,a4,11
	.loc 1 233 12
	or	a4,a4,a3
.LVL24:
	.loc 1 235 5 is_stmt 1
	.loc 1 234 90 is_stmt 0
	lw	a3,44(a0)
	.loc 1 234 12
	andi	a4,a4,-2047
.LVL25:
	.loc 1 234 90
	slli	a3,a3,6
	.loc 1 235 25
	or	a4,a4,a3
	.loc 1 235 90
	lw	a3,40(a0)
	slli	a3,a3,1
	.loc 1 235 12
	or	a4,a3,a4
.LVL26:
	.loc 1 236 5 is_stmt 1
	.loc 1 236 44 is_stmt 0
	sw	a4,16(a5)
	.loc 1 237 1
	ret
	.cfi_endproc
.LFE10:
	.size	DMA_Channel_Init, .-DMA_Channel_Init
	.section	.text.DMA_Channel_Update_SrcMemcfg,"ax",@progbits
	.align	1
	.globl	DMA_Channel_Update_SrcMemcfg
	.type	DMA_Channel_Update_SrcMemcfg, @function
DMA_Channel_Update_SrcMemcfg:
.LFB11:
	.loc 1 250 1 is_stmt 1
	.cfi_startproc
.LVL27:
	.loc 1 251 5
	.loc 1 253 5
	.loc 1 253 14 is_stmt 0
	li	a4,1073790976
	.loc 1 253 58
	slli	a0,a0,8
.LVL28:
	.loc 1 256 5 is_stmt 1
	.loc 1 259 5
	.loc 1 253 14 is_stmt 0
	addi	a3,a4,256
	add	a3,a0,a3
	.loc 1 260 44
	addi	a4,a4,268
	add	a0,a0,a4
.LVL29:
	.loc 1 259 43
	sw	a1,0(a3)
	.loc 1 260 5 is_stmt 1
	.loc 1 260 12 is_stmt 0
	lw	a5,0(a0)
.LVL30:
	.loc 1 261 5 is_stmt 1
	.loc 1 261 25 is_stmt 0
	li	a4,-4096
	and	a5,a5,a4
.LVL31:
	.loc 1 261 12
	or	a5,a5,a2
.LVL32:
	.loc 1 262 5 is_stmt 1
	.loc 1 262 43 is_stmt 0
	sw	a5,0(a0)
	.loc 1 263 1
	ret
	.cfi_endproc
.LFE11:
	.size	DMA_Channel_Update_SrcMemcfg, .-DMA_Channel_Update_SrcMemcfg
	.section	.text.DMA_Channel_Update_DstMemcfg,"ax",@progbits
	.align	1
	.globl	DMA_Channel_Update_DstMemcfg
	.type	DMA_Channel_Update_DstMemcfg, @function
DMA_Channel_Update_DstMemcfg:
.LFB12:
	.loc 1 276 1 is_stmt 1
	.cfi_startproc
.LVL33:
	.loc 1 277 5
	.loc 1 279 5
	.loc 1 285 35 is_stmt 0
	li	a4,1073790976
	.loc 1 279 58
	slli	a0,a0,8
.LVL34:
	.loc 1 282 5 is_stmt 1
	.loc 1 285 5
	.loc 1 285 35 is_stmt 0
	addi	a3,a4,260
	add	a3,a0,a3
	.loc 1 286 44
	addi	a4,a4,268
	add	a0,a0,a4
.LVL35:
	.loc 1 285 43
	sw	a1,0(a3)
	.loc 1 286 5 is_stmt 1
	.loc 1 286 12 is_stmt 0
	lw	a5,0(a0)
.LVL36:
	.loc 1 287 5 is_stmt 1
	.loc 1 287 25 is_stmt 0
	li	a4,-4096
	and	a5,a5,a4
.LVL37:
	.loc 1 287 12
	or	a5,a5,a2
.LVL38:
	.loc 1 288 5 is_stmt 1
	.loc 1 288 43 is_stmt 0
	sw	a5,0(a0)
	.loc 1 289 1
	ret
	.cfi_endproc
.LFE12:
	.size	DMA_Channel_Update_DstMemcfg, .-DMA_Channel_Update_DstMemcfg
	.section	.text.DMA_Channel_TranferSize,"ax",@progbits
	.align	1
	.globl	DMA_Channel_TranferSize
	.type	DMA_Channel_TranferSize, @function
DMA_Channel_TranferSize:
.LFB13:
	.loc 1 300 1 is_stmt 1
	.cfi_startproc
.LVL39:
	.loc 1 302 5
	.loc 1 305 5
	.loc 1 307 5
	.loc 1 307 46 is_stmt 0
	li	a5,1073790976
	addi	a5,a5,268
	.loc 1 302 58
	slli	a0,a0,8
.LVL40:
	.loc 1 307 46
	add	a0,a0,a5
	.loc 1 307 90
	lw	a0,0(a0)
	slli	a0,a0,20
	.loc 1 308 1
	srli	a0,a0,20
	ret
	.cfi_endproc
.LFE13:
	.size	DMA_Channel_TranferSize, .-DMA_Channel_TranferSize
	.section	.text.DMA_Channel_Is_Busy,"ax",@progbits
	.align	1
	.globl	DMA_Channel_Is_Busy
	.type	DMA_Channel_Is_Busy, @function
DMA_Channel_Is_Busy:
.LFB14:
	.loc 1 319 1 is_stmt 1
	.cfi_startproc
.LVL41:
	.loc 1 321 5
	.loc 1 324 5
	.loc 1 326 5
	.loc 1 326 46 is_stmt 0
	li	a5,1073790976
	addi	a5,a5,272
	.loc 1 321 58
	slli	a0,a0,8
.LVL42:
	.loc 1 326 46
	add	a0,a0,a5
	.loc 1 326 17
	lw	a0,0(a0)
	.loc 1 327 1
	andi	a0,a0,1
	ret
	.cfi_endproc
.LFE14:
	.size	DMA_Channel_Is_Busy, .-DMA_Channel_Is_Busy
	.section	.text.DMA_Channel_Enable,"ax",@progbits
	.align	1
	.globl	DMA_Channel_Enable
	.type	DMA_Channel_Enable, @function
DMA_Channel_Enable:
.LFB15:
	.loc 1 339 1 is_stmt 1
	.cfi_startproc
.LVL43:
	.loc 1 340 5
	.loc 1 342 5
	.loc 1 345 5
	.loc 1 347 5
	.loc 1 347 44 is_stmt 0
	li	a5,1073790976
	addi	a5,a5,272
	.loc 1 342 58
	slli	a0,a0,8
.LVL44:
	.loc 1 347 44
	add	a0,a0,a5
	.loc 1 347 12
	lw	a5,0(a0)
.LVL45:
	.loc 1 348 5 is_stmt 1
	.loc 1 348 12 is_stmt 0
	ori	a5,a5,1
.LVL46:
	.loc 1 349 5 is_stmt 1
	.loc 1 349 44 is_stmt 0
	sw	a5,0(a0)
	.loc 1 350 1
	ret
	.cfi_endproc
.LFE15:
	.size	DMA_Channel_Enable, .-DMA_Channel_Enable
	.section	.text.DMA_Channel_Disable,"ax",@progbits
	.align	1
	.globl	DMA_Channel_Disable
	.type	DMA_Channel_Disable, @function
DMA_Channel_Disable:
.LFB16:
	.loc 1 361 1 is_stmt 1
	.cfi_startproc
.LVL47:
	.loc 1 362 5
	.loc 1 364 5
	.loc 1 367 5
	.loc 1 369 5
	.loc 1 369 44 is_stmt 0
	li	a5,1073790976
	addi	a5,a5,272
	.loc 1 364 58
	slli	a0,a0,8
.LVL48:
	.loc 1 369 44
	add	a0,a0,a5
	.loc 1 369 12
	lw	a5,0(a0)
.LVL49:
	.loc 1 370 5 is_stmt 1
	.loc 1 370 12 is_stmt 0
	andi	a5,a5,-2
.LVL50:
	.loc 1 371 5 is_stmt 1
	.loc 1 371 44 is_stmt 0
	sw	a5,0(a0)
	.loc 1 372 1
	ret
	.cfi_endproc
.LFE16:
	.size	DMA_Channel_Disable, .-DMA_Channel_Disable
	.section	.text.DMA_LLI_Init,"ax",@progbits
	.align	1
	.globl	DMA_LLI_Init
	.type	DMA_LLI_Init, @function
DMA_LLI_Init:
.LFB17:
	.loc 1 384 1 is_stmt 1
	.cfi_startproc
.LVL51:
	.loc 1 385 5
	.loc 1 387 5
	.loc 1 390 5
	.loc 1 391 5
	.loc 1 392 5
	.loc 1 393 5
	.loc 1 395 5
	.loc 1 395 44 is_stmt 0
	li	a5,1073790976
	addi	a5,a5,272
	.loc 1 387 58
	slli	a0,a0,8
.LVL52:
	.loc 1 395 44
	add	a0,a0,a5
	.loc 1 395 12
	lw	a5,0(a0)
.LVL53:
	.loc 1 396 5 is_stmt 1
	.loc 1 396 25 is_stmt 0
	li	a4,-16384
	addi	a4,a4,2047
	and	a4,a5,a4
.LVL54:
	.loc 1 397 5 is_stmt 1
	.loc 1 396 86 is_stmt 0
	lw	a5,0(a1)
	slli	a5,a5,11
	.loc 1 396 12
	or	a5,a5,a4
.LVL55:
	.loc 1 398 5 is_stmt 1
	.loc 1 397 91 is_stmt 0
	lw	a4,8(a1)
	.loc 1 397 12
	andi	a5,a5,-2047
.LVL56:
	.loc 1 397 91
	slli	a4,a4,6
	.loc 1 398 25
	or	a5,a5,a4
	.loc 1 398 91
	lw	a4,4(a1)
	slli	a4,a4,1
	.loc 1 398 12
	or	a5,a4,a5
.LVL57:
	.loc 1 399 5 is_stmt 1
	.loc 1 399 44 is_stmt 0
	sw	a5,0(a0)
	.loc 1 400 1
	ret
	.cfi_endproc
.LFE17:
	.size	DMA_LLI_Init, .-DMA_LLI_Init
	.section	.text.DMA_LLI_Update,"ax",@progbits
	.align	1
	.globl	DMA_LLI_Update
	.type	DMA_LLI_Update, @function
DMA_LLI_Update:
.LFB18:
	.loc 1 412 1 is_stmt 1
	.cfi_startproc
.LVL58:
	.loc 1 414 5
	.loc 1 417 5
	.loc 1 421 5
	li	a5,1073790976
	.loc 1 414 58 is_stmt 0
	slli	a0,a0,8
.LVL59:
	.loc 1 421 5
	addi	a5,a5,256
	li	a2,4
	add	a0,a0,a5
	tail	BL602_MemCpy4
.LVL60:
	.cfi_endproc
.LFE18:
	.size	DMA_LLI_Update, .-DMA_LLI_Update
	.section	.text.DMA_LLI_PpStruct_Init,"ax",@progbits
	.align	1
	.globl	DMA_LLI_PpStruct_Init
	.type	DMA_LLI_PpStruct_Init, @function
DMA_LLI_PpStruct_Init:
.LFB19:
	.loc 1 433 1 is_stmt 1
	.cfi_startproc
.LVL61:
	.loc 1 435 5
	.loc 1 433 1 is_stmt 0
	addi	sp,sp,-16
	.cfi_def_cfa_offset 16
	sw	s0,8(sp)
	sw	ra,12(sp)
	sw	s1,4(sp)
	.cfi_offset 8, -8
	.cfi_offset 1, -4
	.cfi_offset 9, -12
	.loc 1 435 33
	lw	a5,4(a0)
	li	a4,-2147483648
	.loc 1 436 30
	sb	zero,0(a0)
	.loc 1 435 33
	or	a5,a5,a4
	sw	a5,4(a0)
	.loc 1 436 5 is_stmt 1
	.loc 1 438 5
	.loc 1 438 32 is_stmt 0
	lw	a5,8(a0)
	.loc 1 438 7
	li	a4,1
	.loc 1 433 1
	mv	s0,a0
	.loc 1 438 32
	lw	a5,0(a5)
	.loc 1 438 7
	bne	a5,a4,.L13
	.loc 1 439 9 is_stmt 1
	.loc 1 439 37 is_stmt 0
	lbu	a4,1(a0)
	.loc 1 439 101
	lw	a3,16(a0)
	.loc 1 439 71
	lui	a5,%hi(.LANCHOR0)
	addi	a5,a5,%lo(.LANCHOR0)
	slli	a4,a4,5
	add	a4,a5,a4
	sw	a3,0(a4)
	.loc 1 440 9 is_stmt 1
	.loc 1 440 37 is_stmt 0
	lbu	a4,1(a0)
	.loc 1 440 84
	lw	a3,12(a0)
	.loc 1 440 71
	slli	a4,a4,5
	add	a4,a5,a4
	sw	a3,4(a4)
	.loc 1 442 9 is_stmt 1
	.loc 1 442 37 is_stmt 0
	lbu	a4,1(a0)
	.loc 1 442 101
	lw	a3,20(a0)
	.loc 1 442 71
	slli	a4,a4,5
	add	a4,a5,a4
	sw	a3,16(a4)
	.loc 1 443 9 is_stmt 1
	.loc 1 443 84 is_stmt 0
	lw	a3,12(a0)
.LVL62:
.L20:
	.loc 1 450 37
	lbu	a4,1(s0)
	.loc 1 456 64
	lui	s1,%hi(.LANCHOR0)
	.loc 1 450 72
	slli	a4,a4,5
	add	a5,a5,a4
	sw	a3,20(a5)
	.loc 1 456 5 is_stmt 1
	.loc 1 456 105 is_stmt 0
	lbu	a5,1(s0)
	.loc 1 456 64
	addi	a4,s1,%lo(.LANCHOR0)
	addi	s1,s1,%lo(.LANCHOR0)
	slli	a5,a5,5
	add	a3,a4,a5
	.loc 1 456 76
	addi	a5,a5,16
	add	a5,a4,a5
	.loc 1 456 64
	sw	a5,8(a3)
	.loc 1 457 5 is_stmt 1
	.loc 1 457 33 is_stmt 0
	lbu	a5,1(s0)
	.loc 1 457 64
	slli	a5,a5,5
	add	a4,a4,a5
	lw	a5,4(s0)
	sw	a5,12(a4)
	.loc 1 459 5 is_stmt 1
	lbu	a5,1(s0)
	.loc 1 459 7 is_stmt 0
	lw	a3,24(s0)
	li	a4,1
	.loc 1 464 68
	slli	a5,a5,5
	add	a5,s1,a5
	.loc 1 459 7
	bne	a3,a4,.L16
	.loc 1 464 9 is_stmt 1
	.loc 1 464 68 is_stmt 0
	sw	zero,24(a5)
.L17:
	.loc 1 469 5 is_stmt 1
	.loc 1 469 33 is_stmt 0
	lbu	a5,1(s0)
	.loc 1 469 64
	lw	a4,4(s0)
	slli	a5,a5,5
	add	a5,s1,a5
	sw	a4,28(a5)
	.loc 1 471 5 is_stmt 1
	lw	a1,8(s0)
	lbu	a0,1(s0)
	call	DMA_LLI_Init
.LVL63:
	.loc 1 473 5
	lbu	a0,1(s0)
	.loc 1 473 52 is_stmt 0
	slli	a1,a0,5
	.loc 1 473 5
	add	a1,s1,a1
	call	DMA_LLI_Update
.LVL64:
	.loc 1 475 5 is_stmt 1
	.loc 1 475 12 is_stmt 0
	li	a0,0
.L12:
	.loc 1 476 1
	lw	ra,12(sp)
	.cfi_remember_state
	.cfi_restore 1
	lw	s0,8(sp)
	.cfi_restore 8
.LVL65:
	lw	s1,4(sp)
	.cfi_restore 9
	addi	sp,sp,16
	.cfi_def_cfa_offset 0
	jr	ra
.LVL66:
.L13:
	.cfi_restore_state
	.loc 1 445 10 is_stmt 1
	.loc 1 445 12 is_stmt 0
	li	a4,2
	.loc 1 452 16
	li	a0,1
	.loc 1 445 12
	bne	a5,a4,.L12
	.loc 1 446 9 is_stmt 1
	.loc 1 446 37 is_stmt 0
	lbu	a4,1(s0)
	.loc 1 446 84
	lw	a3,12(s0)
	.loc 1 446 71
	lui	a5,%hi(.LANCHOR0)
	addi	a5,a5,%lo(.LANCHOR0)
	slli	a4,a4,5
	add	a4,a5,a4
	sw	a3,0(a4)
	.loc 1 447 9 is_stmt 1
	.loc 1 447 37 is_stmt 0
	lbu	a4,1(s0)
	.loc 1 447 101
	lw	a3,16(s0)
	.loc 1 447 71
	slli	a4,a4,5
	add	a4,a5,a4
	sw	a3,4(a4)
	.loc 1 449 9 is_stmt 1
	.loc 1 449 37 is_stmt 0
	lbu	a4,1(s0)
	.loc 1 449 84
	lw	a3,12(s0)
	.loc 1 449 71
	slli	a4,a4,5
	add	a4,a5,a4
	sw	a3,16(a4)
	.loc 1 450 9 is_stmt 1
	.loc 1 450 102 is_stmt 0
	lw	a3,20(s0)
	j	.L20
.L16:
	.loc 1 466 9 is_stmt 1
	.loc 1 466 68 is_stmt 0
	sw	a5,24(a5)
	j	.L17
	.cfi_endproc
.LFE19:
	.size	DMA_LLI_PpStruct_Init, .-DMA_LLI_PpStruct_Init
	.section	.text.DMA_LLI_PpStruct_Start,"ax",@progbits
	.align	1
	.globl	DMA_LLI_PpStruct_Start
	.type	DMA_LLI_PpStruct_Start, @function
DMA_LLI_PpStruct_Start:
.LFB20:
	.loc 1 487 60 is_stmt 1
	.cfi_startproc
.LVL67:
	.loc 1 488 5
	.loc 1 487 60 is_stmt 0
	addi	sp,sp,-16
	.cfi_def_cfa_offset 16
	sw	s0,8(sp)
	sw	ra,12(sp)
	.cfi_offset 8, -8
	.cfi_offset 1, -4
	.loc 1 488 7
	lw	a4,24(a0)
	li	a5,1
	.loc 1 487 60
	mv	s0,a0
	.loc 1 488 7
	bne	a4,a5,.L22
	.loc 1 489 9
	lbu	a0,1(a0)
.LVL68:
	.loc 1 489 9 is_stmt 1
	lui	a5,%hi(.LANCHOR0)
	addi	a5,a5,%lo(.LANCHOR0)
	.loc 1 489 56 is_stmt 0
	slli	a1,a0,5
	.loc 1 489 9
	add	a1,a5,a1
	call	DMA_LLI_Update
.LVL69:
.L22:
	.loc 1 492 5 is_stmt 1
	lbu	a0,1(s0)
	.loc 1 493 1 is_stmt 0
	lw	s0,8(sp)
	.cfi_restore 8
.LVL70:
	lw	ra,12(sp)
	.cfi_restore 1
	addi	sp,sp,16
	.cfi_def_cfa_offset 0
	.loc 1 492 5
	tail	DMA_Channel_Enable
.LVL71:
	.cfi_endproc
.LFE20:
	.size	DMA_LLI_PpStruct_Start, .-DMA_LLI_PpStruct_Start
	.section	.text.DMA_LLI_PpStruct_Stop,"ax",@progbits
	.align	1
	.globl	DMA_LLI_PpStruct_Stop
	.type	DMA_LLI_PpStruct_Stop, @function
DMA_LLI_PpStruct_Stop:
.LFB21:
	.loc 1 505 59 is_stmt 1
	.cfi_startproc
.LVL72:
	.loc 1 506 5
	lbu	a0,1(a0)
.LVL73:
	tail	DMA_Channel_Disable
.LVL74:
	.cfi_endproc
.LFE21:
	.size	DMA_LLI_PpStruct_Stop, .-DMA_LLI_PpStruct_Stop
	.section	.text.DMA_LLI_PpStruct_Set_Transfer_Len,"ax",@progbits
	.align	1
	.globl	DMA_LLI_PpStruct_Set_Transfer_Len
	.type	DMA_LLI_PpStruct_Set_Transfer_Len, @function
DMA_LLI_PpStruct_Set_Transfer_Len:
.LFB22:
	.loc 1 519 132
	.cfi_startproc
.LVL75:
	.loc 1 520 5
	.loc 1 522 5
	.loc 1 522 7 is_stmt 0
	li	a4,4096
	bgtu	a1,a4,.L27
	.loc 1 519 132 discriminator 1
	addi	sp,sp,-16
	.cfi_def_cfa_offset 16
	sw	s0,8(sp)
	sw	ra,12(sp)
	sw	s1,4(sp)
	.cfi_offset 8, -8
	.cfi_offset 1, -4
	.cfi_offset 9, -12
	mv	s0,a0
	.loc 1 523 16 discriminator 1
	li	a0,1
.LVL76:
	.loc 1 522 33 discriminator 1
	bgtu	a2,a4,.L25
	.loc 1 526 5 is_stmt 1
	.loc 1 526 54 is_stmt 0
	lbu	a0,1(s0)
	.loc 1 526 24
	lui	s1,%hi(.LANCHOR0)
	addi	s1,s1,%lo(.LANCHOR0)
	slli	a0,a0,5
	add	a0,s1,a0
	lw	a5,12(a0)
.LVL77:
	.loc 1 527 5 is_stmt 1
	.loc 1 528 5
	.loc 1 528 64 is_stmt 0
	addi	a3,a4,-1
	li	a6,-4096
	and	a4,a1,a3
.LVL78:
	and	a1,a5,a6
.LVL79:
	or	a1,a1,a4
	sw	a1,12(a0)
	.loc 1 530 5 is_stmt 1
	.loc 1 530 54 is_stmt 0
	lbu	a4,1(s0)
	.loc 1 532 64
	and	a2,a2,a3
.LVL80:
	.loc 1 530 24
	slli	a4,a4,5
	add	a4,s1,a4
	lw	a5,28(a4)
.LVL81:
	.loc 1 531 5 is_stmt 1
	.loc 1 532 5
	.loc 1 532 64 is_stmt 0
	and	a5,a5,a6
.LVL82:
	or	a5,a5,a2
	sw	a5,28(a4)
	.loc 1 534 5 is_stmt 1
	lw	a1,8(s0)
	lbu	a0,1(s0)
	call	DMA_LLI_Init
.LVL83:
	.loc 1 535 5
	lbu	a0,1(s0)
	.loc 1 535 52 is_stmt 0
	slli	a1,a0,5
	.loc 1 535 5
	add	a1,s1,a1
	call	DMA_LLI_Update
.LVL84:
	.loc 1 537 5 is_stmt 1
	.loc 1 537 12 is_stmt 0
	li	a0,0
.L25:
	.loc 1 539 1
	lw	ra,12(sp)
	.cfi_restore 1
	lw	s0,8(sp)
	.cfi_restore 8
.LVL85:
	lw	s1,4(sp)
	.cfi_restore 9
	addi	sp,sp,16
	.cfi_def_cfa_offset 0
	jr	ra
.LVL86:
.L27:
	.loc 1 523 16
	li	a0,1
.LVL87:
	.loc 1 539 1
	ret
	.cfi_endproc
.LFE22:
	.size	DMA_LLI_PpStruct_Set_Transfer_Len, .-DMA_LLI_PpStruct_Set_Transfer_Len
	.section	.text.DMA_LLI_PpBuf_Start_New_Transmit,"ax",@progbits
	.align	1
	.globl	DMA_LLI_PpBuf_Start_New_Transmit
	.type	DMA_LLI_PpBuf_Start_New_Transmit, @function
DMA_LLI_PpBuf_Start_New_Transmit:
.LFB23:
	.loc 1 553 1 is_stmt 1
	.cfi_startproc
.LVL88:
	.loc 1 554 5
	.loc 1 553 1 is_stmt 0
	addi	sp,sp,-16
	.cfi_def_cfa_offset 16
	sw	s0,8(sp)
	.cfi_offset 8, -8
	mv	s0,a0
	.loc 1 554 5
	li	a0,31
.LVL89:
	.loc 1 553 1
	sw	ra,12(sp)
	.cfi_offset 1, -4
	.loc 1 554 5
	call	clic_disable_interrupt
.LVL90:
	.loc 1 555 5 is_stmt 1
	.loc 1 555 40 is_stmt 0
	lbu	a5,0(s0)
	.loc 1 555 31
	slli	a5,a5,2
	add	a5,s0,a5
	lw	a1,4(a5)
	.loc 1 555 7
	beq	a1,zero,.L34
	.loc 1 556 9 is_stmt 1
	lbu	a0,1(s0)
	call	DMA_LLI_Update
.LVL91:
	.loc 1 557 9
	lbu	a0,1(s0)
	call	DMA_Channel_Enable
.LVL92:
	.loc 1 558 9
	.loc 1 558 57 is_stmt 0
	lbu	a5,0(s0)
	seqz	a5,a5
	sb	a5,0(s0)
.L34:
	.loc 1 560 5 is_stmt 1
	.loc 1 561 1 is_stmt 0
	lw	s0,8(sp)
	.cfi_restore 8
.LVL93:
	lw	ra,12(sp)
	.cfi_restore 1
	.loc 1 560 5
	li	a0,31
	.loc 1 561 1
	addi	sp,sp,16
	.cfi_def_cfa_offset 0
	.loc 1 560 5
	tail	clic_enable_interrupt
.LVL94:
	.cfi_endproc
.LFE23:
	.size	DMA_LLI_PpBuf_Start_New_Transmit, .-DMA_LLI_PpBuf_Start_New_Transmit
	.section	.text.DMA_LLI_PpBuf_Remove_Completed_List,"ax",@progbits
	.align	1
	.globl	DMA_LLI_PpBuf_Remove_Completed_List
	.type	DMA_LLI_PpBuf_Remove_Completed_List, @function
DMA_LLI_PpBuf_Remove_Completed_List:
.LFB24:
	.loc 1 572 1 is_stmt 1
	.cfi_startproc
.LVL95:
	.loc 1 573 5
	.loc 1 572 1 is_stmt 0
	addi	sp,sp,-16
	.cfi_def_cfa_offset 16
	sw	s0,8(sp)
	.cfi_offset 8, -8
	mv	s0,a0
	.loc 1 573 5
	li	a0,31
.LVL96:
	.loc 1 572 1
	sw	ra,12(sp)
	.cfi_offset 1, -4
	.loc 1 573 5
	call	clic_disable_interrupt
.LVL97:
	.loc 1 575 5 is_stmt 1
	.loc 1 575 29 is_stmt 0
	lbu	a5,0(s0)
	.loc 1 576 5
	li	a0,31
	.loc 1 575 29
	seqz	a5,a5
	.loc 1 575 51
	slli	a5,a5,2
	add	a5,s0,a5
	sw	zero,4(a5)
	.loc 1 576 5 is_stmt 1
	call	clic_enable_interrupt
.LVL98:
	.loc 1 577 5
	.loc 1 577 36 is_stmt 0
	lbu	a0,0(s0)
	.loc 1 578 1
	lw	ra,12(sp)
	.cfi_restore 1
	.loc 1 577 36
	seqz	a0,a0
	.loc 1 577 35
	slli	a0,a0,2
	add	s0,s0,a0
.LVL99:
	.loc 1 578 1
	lw	a0,4(s0)
	lw	s0,8(sp)
	.cfi_restore 8
	addi	sp,sp,16
	.cfi_def_cfa_offset 0
	jr	ra
	.cfi_endproc
.LFE24:
	.size	DMA_LLI_PpBuf_Remove_Completed_List, .-DMA_LLI_PpBuf_Remove_Completed_List
	.section	.text.DMA_LLI_PpBuf_Append,"ax",@progbits
	.align	1
	.globl	DMA_LLI_PpBuf_Append
	.type	DMA_LLI_PpBuf_Append, @function
DMA_LLI_PpBuf_Append:
.LFB25:
	.loc 1 590 1 is_stmt 1
	.cfi_startproc
.LVL100:
	.loc 1 591 5
	.loc 1 592 5
	.loc 1 590 1 is_stmt 0
	addi	sp,sp,-16
	.cfi_def_cfa_offset 16
	sw	s0,8(sp)
	.cfi_offset 8, -8
	mv	s0,a0
	.loc 1 592 5
	li	a0,31
.LVL101:
	.loc 1 590 1
	sw	s1,4(sp)
	sw	ra,12(sp)
	.cfi_offset 9, -12
	.cfi_offset 1, -4
	.loc 1 590 1
	mv	s1,a1
	.loc 1 592 5
	call	clic_disable_interrupt
.LVL102:
	.loc 1 594 5 is_stmt 1
	.loc 1 594 48 is_stmt 0
	lbu	a5,0(s0)
	.loc 1 594 14
	slli	a5,a5,2
	add	a5,s0,a5
	lw	a5,4(a5)
.LVL103:
	.loc 1 595 5 is_stmt 1
	.loc 1 595 7 is_stmt 0
	bne	a5,zero,.L42
	.loc 1 596 9 is_stmt 1
	.loc 1 597 31 is_stmt 0
	lw	a5,12(s1)
.LVL104:
	li	a4,-2147483648
	.loc 1 596 29
	sw	zero,8(s1)
.LVL105:
	.loc 1 597 9 is_stmt 1
	.loc 1 597 31 is_stmt 0
	or	a5,a5,a4
	sw	a5,12(s1)
	.loc 1 598 9 is_stmt 1
	.loc 1 598 41 is_stmt 0
	lbu	a5,0(s0)
	.loc 1 598 54
	slli	a5,a5,2
	add	a5,s0,a5
	sw	s1,4(a5)
.L43:
	.loc 1 610 5 is_stmt 1
	.loc 1 610 8 is_stmt 0
	lbu	a0,1(s0)
	call	DMA_Channel_Is_Busy
.LVL106:
	.loc 1 610 7
	bne	a0,zero,.L45
	.loc 1 613 9 is_stmt 1
	.loc 1 613 36 is_stmt 0
	lbu	a5,0(s0)
	seqz	a5,a5
	.loc 1 613 35
	slli	a5,a5,2
	add	a5,s0,a5
	.loc 1 613 11
	lw	a5,4(a5)
	bne	a5,zero,.L45
	.loc 1 615 13 is_stmt 1
	mv	a0,s0
	call	DMA_LLI_PpBuf_Start_New_Transmit
.LVL107:
.L45:
	.loc 1 618 5
	.loc 1 619 1 is_stmt 0
	lw	s0,8(sp)
	.cfi_remember_state
	.cfi_restore 8
.LVL108:
	lw	ra,12(sp)
	.cfi_restore 1
	lw	s1,4(sp)
	.cfi_restore 9
.LVL109:
	.loc 1 618 5
	li	a0,31
	.loc 1 619 1
	addi	sp,sp,16
	.cfi_def_cfa_offset 0
	.loc 1 618 5
	tail	clic_enable_interrupt
.LVL110:
.L44:
	.cfi_restore_state
	.loc 1 602 13 is_stmt 1
	.loc 1 602 22 is_stmt 0
	mv	a5,a4
.LVL111:
.L42:
	.loc 1 601 14 is_stmt 1
	.loc 1 601 23 is_stmt 0
	lw	a4,8(a5)
	.loc 1 601 14
	bne	a4,zero,.L44
	.loc 1 604 9 is_stmt 1
	.loc 1 605 29 is_stmt 0
	lw	a4,12(a5)
	li	a3,-2147483648
	xori	a2,a3,-1
	and	a4,a4,a2
	.loc 1 604 27
	sw	s1,8(a5)
	.loc 1 605 9 is_stmt 1
	.loc 1 605 29 is_stmt 0
	sw	a4,12(a5)
	.loc 1 606 9 is_stmt 1
	.loc 1 607 31 is_stmt 0
	lw	a5,12(s1)
.LVL112:
	.loc 1 606 29
	sw	zero,8(s1)
	.loc 1 607 9 is_stmt 1
	.loc 1 607 31 is_stmt 0
	or	a5,a5,a3
	sw	a5,12(s1)
	j	.L43
	.cfi_endproc
.LFE25:
	.size	DMA_LLI_PpBuf_Append, .-DMA_LLI_PpBuf_Append
	.section	.text.DMA_LLI_PpBuf_Destroy,"ax",@progbits
	.align	1
	.globl	DMA_LLI_PpBuf_Destroy
	.type	DMA_LLI_PpBuf_Destroy, @function
DMA_LLI_PpBuf_Destroy:
.LFB26:
	.loc 1 630 1 is_stmt 1
	.cfi_startproc
.LVL113:
	.loc 1 632 5
	.loc 1 630 1 is_stmt 0
	addi	sp,sp,-16
	.cfi_def_cfa_offset 16
	sw	s0,8(sp)
	sw	ra,12(sp)
	.cfi_offset 8, -8
	.cfi_offset 1, -4
	.loc 1 630 1
	mv	s0,a0
	.loc 1 632 5
	lbu	a0,1(a0)
.LVL114:
	call	DMA_Channel_Disable
.LVL115:
	.loc 1 633 5 is_stmt 1
	.loc 1 633 31 is_stmt 0
	lw	a0,4(s0)
	.loc 1 633 7
	beq	a0,zero,.L49
	.loc 1 633 53 discriminator 1
	lw	a5,12(s0)
	.loc 1 633 42 discriminator 1
	beq	a5,zero,.L49
	.loc 1 634 9 is_stmt 1
	jalr	a5
.LVL116:
.L49:
	.loc 1 636 5
	.loc 1 637 31 is_stmt 0
	lw	a0,8(s0)
	.loc 1 636 32
	sw	zero,4(s0)
	.loc 1 637 5 is_stmt 1
	.loc 1 637 7 is_stmt 0
	beq	a0,zero,.L50
	.loc 1 637 53 discriminator 1
	lw	a5,12(s0)
	.loc 1 637 42 discriminator 1
	beq	a5,zero,.L50
	.loc 1 638 9 is_stmt 1
	jalr	a5
.LVL117:
.L50:
	.loc 1 640 5
	.loc 1 642 1 is_stmt 0
	lw	ra,12(sp)
	.cfi_restore 1
	.loc 1 640 32
	sw	zero,8(s0)
	.loc 1 641 5 is_stmt 1
	.loc 1 641 25 is_stmt 0
	sb	zero,0(s0)
	.loc 1 642 1
	lw	s0,8(sp)
	.cfi_restore 8
.LVL118:
	addi	sp,sp,16
	.cfi_def_cfa_offset 0
	jr	ra
	.cfi_endproc
.LFE26:
	.size	DMA_LLI_PpBuf_Destroy, .-DMA_LLI_PpBuf_Destroy
	.section	.text.DMA_IntMask,"ax",@progbits
	.align	1
	.globl	DMA_IntMask
	.type	DMA_IntMask, @function
DMA_IntMask:
.LFB27:
	.loc 1 656 1 is_stmt 1
	.cfi_startproc
.LVL119:
	.loc 1 657 5
	.loc 1 659 5
	.loc 1 665 5 is_stmt 0
	li	a5,1
	.loc 1 659 58
	slli	a0,a0,8
.LVL120:
	.loc 1 662 5 is_stmt 1
	.loc 1 663 5
	.loc 1 665 5
	beq	a1,a5,.L65
	li	a5,2
	beq	a1,a5,.L66
	bne	a1,zero,.L64
	.loc 1 668 13
	.loc 1 671 59 is_stmt 0
	li	a4,1073790976
	addi	a5,a4,272
	add	a5,a0,a5
	.loc 1 673 59
	addi	a4,a4,268
	add	a0,a0,a4
.LVL121:
	.loc 1 671 30
	lw	a4,0(a5)
	.loc 1 671 24
	li	a3,-32768
	.loc 1 668 15
	beq	a2,zero,.L73
	.loc 1 679 17 is_stmt 1
	.loc 1 679 24 is_stmt 0
	li	a3,32768
.LVL122:
.L72:
	.loc 1 716 24
	or	a4,a4,a3
.LVL123:
	.loc 1 717 17 is_stmt 1
	.loc 1 717 56 is_stmt 0
	sw	a4,0(a5)
	.loc 1 718 17 is_stmt 1
	.loc 1 718 24 is_stmt 0
	lw	a5,0(a0)
.LVL124:
	.loc 1 719 17 is_stmt 1
	.loc 1 719 24 is_stmt 0
	slli	a5,a5,1
.LVL125:
	srli	a5,a5,1
	j	.L71
.LVL126:
.L65:
	.loc 1 686 13 is_stmt 1
	.loc 1 671 59 is_stmt 0
	li	a5,1073790976
	addi	a5,a5,272
	add	a0,a0,a5
.LVL127:
	.loc 1 689 30
	lw	a5,0(a0)
	.loc 1 686 15
	bne	a2,zero,.L69
	.loc 1 689 17 is_stmt 1
	.loc 1 689 24 is_stmt 0
	li	a4,-16384
	addi	a4,a4,-1
	and	a5,a5,a4
.LVL128:
	.loc 1 690 17 is_stmt 1
.L71:
	.loc 1 720 17
	.loc 1 720 55 is_stmt 0
	sw	a5,0(a0)
.LVL129:
.L64:
	.loc 1 727 1
	ret
.LVL130:
.L69:
	.loc 1 695 17 is_stmt 1
	.loc 1 695 24 is_stmt 0
	li	a4,16384
.LVL131:
.L74:
	.loc 1 708 24
	or	a5,a5,a4
.LVL132:
	.loc 1 709 17 is_stmt 1
	j	.L71
.LVL133:
.L66:
	.loc 1 700 13
	.loc 1 671 59 is_stmt 0
	li	a4,1073790976
	addi	a5,a4,272
	add	a5,a0,a5
	.loc 1 673 59
	addi	a4,a4,268
	add	a0,a0,a4
.LVL134:
	.loc 1 703 24
	lw	a4,0(a5)
	.loc 1 700 15
	bne	a2,zero,.L70
	.loc 1 703 17 is_stmt 1
.LVL135:
	.loc 1 704 17
	.loc 1 705 17
	.loc 1 705 24 is_stmt 0
	li	a3,-49152
.LVL136:
.L73:
	addi	a3,a3,-1
	and	a4,a4,a3
.LVL137:
	.loc 1 706 17 is_stmt 1
	.loc 1 706 56 is_stmt 0
	sw	a4,0(a5)
	.loc 1 707 17 is_stmt 1
	.loc 1 707 24 is_stmt 0
	lw	a5,0(a0)
.LVL138:
	.loc 1 708 17 is_stmt 1
	.loc 1 708 24 is_stmt 0
	li	a4,-2147483648
	j	.L74
.LVL139:
.L70:
	.loc 1 714 17 is_stmt 1
	.loc 1 715 17
	.loc 1 716 17
	.loc 1 716 24 is_stmt 0
	li	a3,49152
	j	.L72
	.cfi_endproc
.LFE27:
	.size	DMA_IntMask, .-DMA_IntMask
	.section	.text.DMA_Int_Callback_Install,"ax",@progbits
	.align	1
	.globl	DMA_Int_Callback_Install
	.type	DMA_Int_Callback_Install, @function
DMA_Int_Callback_Install:
.LFB28:
	.loc 1 740 1 is_stmt 1
	.cfi_startproc
.LVL140:
	.loc 1 742 5
	.loc 1 743 5
	.loc 1 745 5
	.loc 1 746 1 is_stmt 0
	ret
	.cfi_endproc
.LFE28:
	.size	DMA_Int_Callback_Install, .-DMA_Int_Callback_Install
	.section	.bss.PingPongListArra,"aw",@nobits
	.align	2
	.set	.LANCHOR0,. + 0
	.type	PingPongListArra, @object
	.size	PingPongListArra, 128
PingPongListArra:
	.zero	128
	.text
.Letext0:
	.file 2 "/mnt/d/GitHub/bl_iot_sdk_for_aithinker/toolchain/riscv/Linux/lib/gcc/riscv64-unknown-elf/10.2.0/include/stdint-gcc.h"
	.file 3 "/mnt/d/GitHub/bl_iot_sdk_for_aithinker/components/platform/soc/bl602/bl602_std/bl602_std/Device/Bouffalo/BL602/Peripherals/dma_reg.h"
	.file 4 "/mnt/d/GitHub/bl_iot_sdk_for_aithinker/components/platform/soc/bl602/bl602_std/bl602_std/Device/Bouffalo/BL602/Peripherals/bl602.h"
	.file 5 "/mnt/d/GitHub/bl_iot_sdk_for_aithinker/components/platform/soc/bl602/bl602_std/bl602_std/StdDriver/Inc/bl602_common.h"
	.file 6 "/mnt/d/GitHub/bl_iot_sdk_for_aithinker/components/platform/soc/bl602/bl602_std/bl602_std/StdDriver/Inc/bl602_dma.h"
	.file 7 "/mnt/d/GitHub/bl_iot_sdk_for_aithinker/components/platform/soc/bl602/bl602_std/bl602_std/RISCV/Core/Include/cmsis_compatible_gcc.h"