	.file	"bl602_ef_ctrl.c"
	.option nopic
	.attribute arch, "rv32i2p0_m2p0_f2p0_c2p0"
	.attribute unaligned_access, 0
	.attribute stack_align, 16
	.text
.Ltext0:
	.cfi_sections	.debug_frame
	.section	.text.EF_Ctrl_Get_Byte_Zero_Cnt,"ax",@progbits
	.align	1
	.type	EF_Ctrl_Get_Byte_Zero_Cnt, @function
EF_Ctrl_Get_Byte_Zero_Cnt:
.LFB35:
	.file 1 "/mnt/d/GitHub/bl_iot_sdk_for_aithinker/components/platform/soc/bl602/bl602_std/bl602_std/StdDriver/Src/bl602_ef_ctrl.c"
	.loc 1 885 1
	.cfi_startproc
.LVL0:
	.loc 1 886 5
	.loc 1 887 5
	.loc 1 888 5
	.loc 1 888 13
	.loc 1 885 1 is_stmt 0
	mv	a4,a0
	.loc 1 888 10
	li	a5,0
	.loc 1 886 14
	li	a0,0
.LVL1:
	.loc 1 888 5
	li	a2,8
.LVL2:
.L3:
	.loc 1 889 9 is_stmt 1
	.loc 1 889 24 is_stmt 0
	sra	a3,a4,a5
	andi	a3,a3,1
	.loc 1 889 11
	bne	a3,zero,.L2
	.loc 1 890 13 is_stmt 1
	.loc 1 890 16 is_stmt 0
	addi	a0,a0,1
.LVL3:
.L2:
	.loc 1 888 17 is_stmt 1 discriminator 2
	.loc 1 888 18 is_stmt 0 discriminator 2
	addi	a5,a5,1
.LVL4:
	.loc 1 888 13 is_stmt 1 discriminator 2
	.loc 1 888 5 is_stmt 0 discriminator 2
	bne	a5,a2,.L3
	.loc 1 893 5 is_stmt 1
	.loc 1 894 1 is_stmt 0
	ret
	.cfi_endproc
.LFE35:
	.size	EF_Ctrl_Get_Byte_Zero_Cnt, .-EF_Ctrl_Get_Byte_Zero_Cnt
	.section	.tcm_code./mnt/d/GitHub/bl_iot_sdk_for_aithinker/components/platform/soc/bl602/bl602_std/bl602_std/StdDriver/Src/bl602_ef_ctrl.c138,"ax",@progbits
	.align	1
	.weak	EF_Ctrl_Program_Efuse_0
	.type	EF_Ctrl_Program_Efuse_0, @function
EF_Ctrl_Program_Efuse_0:
.LFB9:
	.loc 1 139 1 is_stmt 1
	.cfi_startproc
	.loc 1 140 5
	.loc 1 143 5
.LVL5:
	.loc 1 152 5
	.loc 1 139 1 is_stmt 0
	addi	sp,sp,-16
	.cfi_def_cfa_offset 16
	.loc 1 152 61
	li	a5,2408448
	.loc 1 139 1
	sw	s0,8(sp)
	sw	s1,4(sp)
	sw	ra,12(sp)
	.cfi_offset 8, -8
	.cfi_offset 9, -12
	.cfi_offset 1, -4
	.loc 1 152 61
	li	s1,1073774592
	addi	a5,a5,-256
	.loc 1 164 61
	li	s0,2473984
	.loc 1 152 61
	sw	a5,-2048(s1)
	.loc 1 155 5 is_stmt 1
.LVL6:
	.loc 1 164 5
	.loc 1 164 61 is_stmt 0
	addi	a5,s0,-248
	sw	a5,-2048(s1)
	.loc 1 167 5 is_stmt 1
	.loc 1 179 61 is_stmt 0
	addi	s0,s0,-232
	.loc 1 167 5
	li	a0,4
	call	BL602_Delay_US
.LVL7:
	.loc 1 170 5 is_stmt 1
	.loc 1 179 5
	.loc 1 179 61 is_stmt 0
	sw	s0,-2048(s1)
	.loc 1 180 1
	lw	ra,12(sp)
	.cfi_restore 1
	lw	s0,8(sp)
	.cfi_restore 8
	lw	s1,4(sp)
	.cfi_restore 9
	addi	sp,sp,16
	.cfi_def_cfa_offset 0
	jr	ra
	.cfi_endproc
.LFE9:
	.size	EF_Ctrl_Program_Efuse_0, .-EF_Ctrl_Program_Efuse_0
	.section	.tcm_code./mnt/d/GitHub/bl_iot_sdk_for_aithinker/components/platform/soc/bl602/bl602_std/bl602_std/StdDriver/Src/bl602_ef_ctrl.c265,"ax",@progbits
	.align	1
	.weak	EF_Ctrl_Busy
	.type	EF_Ctrl_Busy, @function
EF_Ctrl_Busy:
.LFB11:
	.loc 1 266 1 is_stmt 1
	.cfi_startproc
	.loc 1 267 5
	.loc 1 269 5
	.loc 1 269 11 is_stmt 0
	li	a5,1073774592
	lw	a0,-2048(a5)
.LVL8:
	.loc 1 270 5 is_stmt 1
	.loc 1 270 7 is_stmt 0
	srli	a0,a0,2
.LVL9:
	.loc 1 275 1
	andi	a0,a0,1
	ret
	.cfi_endproc
.LFE11:
	.size	EF_Ctrl_Busy, .-EF_Ctrl_Busy
	.section	.tcm_code./mnt/d/GitHub/bl_iot_sdk_for_aithinker/components/platform/soc/bl602/bl602_std/bl602_std/StdDriver/Src/bl602_ef_ctrl.c102,"ax",@progbits
	.align	1
	.weak	EF_Ctrl_Sw_AHB_Clk_0
	.type	EF_Ctrl_Sw_AHB_Clk_0, @function
EF_Ctrl_Sw_AHB_Clk_0:
.LFB8:
	.loc 1 103 1 is_stmt 1
	.cfi_startproc
	.loc 1 104 5
	.loc 1 105 5
.LVL10:
	.loc 1 107 5
	.loc 1 103 1 is_stmt 0
	addi	sp,sp,-16
	.cfi_def_cfa_offset 16
	sw	s0,8(sp)
	.cfi_offset 8, -8
	.loc 1 107 10
	li	s0,159744
	.loc 1 103 1
	sw	s1,4(sp)
	sw	ra,12(sp)
	.cfi_offset 9, -12
	.cfi_offset 1, -4
	.loc 1 107 10
	addi	s0,s0,256
	li	s1,1
.LVL11:
.L9:
	.loc 1 107 10 is_stmt 1
	.loc 1 107 11 is_stmt 0
	call	EF_Ctrl_Busy
.LVL12:
	.loc 1 107 10
	bne	a0,s1,.L10
	.loc 1 108 9 is_stmt 1
.LVL13:
	.loc 1 109 9
	.loc 1 109 11 is_stmt 0
	addi	s0,s0,-1
.LVL14:
	bne	s0,zero,.L9
.L10:
	.loc 1 114 5 is_stmt 1
.LVL15:
	.loc 1 124 5
	.loc 1 124 61 is_stmt 0
	li	a5,2408448
	li	a4,1073774592
	addi	a5,a5,-128
	sw	a5,-2048(a4)
	.loc 1 125 1
	lw	ra,12(sp)
	.cfi_restore 1
	lw	s0,8(sp)
	.cfi_restore 8
.LVL16:
	lw	s1,4(sp)
	.cfi_restore 9
	addi	sp,sp,16
	.cfi_def_cfa_offset 0
	jr	ra
	.cfi_endproc
.LFE8:
	.size	EF_Ctrl_Sw_AHB_Clk_0, .-EF_Ctrl_Sw_AHB_Clk_0
	.section	.tcm_code./mnt/d/GitHub/bl_iot_sdk_for_aithinker/components/platform/soc/bl602/bl602_std/bl602_std/StdDriver/Src/bl602_ef_ctrl.c288,"ax",@progbits
	.align	1
	.weak	EF_Ctrl_AutoLoad_Done
	.type	EF_Ctrl_AutoLoad_Done, @function
EF_Ctrl_AutoLoad_Done:
.LFB12:
	.loc 1 289 1 is_stmt 1
	.cfi_startproc
	.loc 1 290 5
	.loc 1 292 5
	.loc 1 292 11 is_stmt 0
	li	a5,1073774592
	lw	a0,-2048(a5)
.LVL17:
	.loc 1 294 5 is_stmt 1
	.loc 1 294 7 is_stmt 0
	srli	a0,a0,1
.LVL18:
	.loc 1 299 1
	andi	a0,a0,1
	ret
	.cfi_endproc
.LFE12:
	.size	EF_Ctrl_AutoLoad_Done, .-EF_Ctrl_AutoLoad_Done
	.section	.text.EF_Ctrl_Write_Dbg_Pwd,"ax",@progbits
	.align	1
	.globl	EF_Ctrl_Write_Dbg_Pwd
	.type	EF_Ctrl_Write_Dbg_Pwd, @function
EF_Ctrl_Write_Dbg_Pwd:
.LFB13:
	.loc 1 313 1 is_stmt 1
	.cfi_startproc
.LVL19:
	.loc 1 315 5
	.loc 1 313 1 is_stmt 0
	addi	sp,sp,-16
	.cfi_def_cfa_offset 16
	sw	s0,8(sp)
	sw	s1,4(sp)
	sw	s2,0(sp)
	.cfi_offset 8, -8
	.cfi_offset 9, -12
	.cfi_offset 18, -16
	mv	s1,a1
	mv	s2,a0
	sw	ra,12(sp)
	.cfi_offset 1, -4
	.loc 1 313 1
	mv	s0,a2
	.loc 1 315 5
	call	EF_Ctrl_Sw_AHB_Clk_0
.LVL20:
	.loc 1 317 5 is_stmt 1
	.loc 1 317 59 is_stmt 0
	li	a5,1073770496
	sw	s2,4(a5)
	.loc 1 318 5 is_stmt 1
	.loc 1 318 59 is_stmt 0
	sw	s1,8(a5)
	.loc 1 320 5 is_stmt 1
	.loc 1 320 7 is_stmt 0
	beq	s0,zero,.L17
	.loc 1 321 9 is_stmt 1
	.loc 1 323 1 is_stmt 0
	lw	s0,8(sp)
	.cfi_remember_state
	.cfi_restore 8
	lw	ra,12(sp)
	.cfi_restore 1
	lw	s1,4(sp)
	.cfi_restore 9
.LVL21:
	lw	s2,0(sp)
	.cfi_restore 18
.LVL22:
	addi	sp,sp,16
	.cfi_def_cfa_offset 0
	.loc 1 321 9
	tail	EF_Ctrl_Program_Efuse_0
.LVL23:
.L17:
	.cfi_restore_state
	.loc 1 323 1
	lw	ra,12(sp)
	.cfi_restore 1
	lw	s0,8(sp)
	.cfi_restore 8
	lw	s1,4(sp)
	.cfi_restore 9
.LVL24:
	lw	s2,0(sp)
	.cfi_restore 18
.LVL25:
	addi	sp,sp,16
	.cfi_def_cfa_offset 0
	jr	ra
	.cfi_endproc
.LFE13:
	.size	EF_Ctrl_Write_Dbg_Pwd, .-EF_Ctrl_Write_Dbg_Pwd
	.section	.text.EF_Ctrl_Readlock_Dbg_Pwd,"ax",@progbits
	.align	1
	.globl	EF_Ctrl_Readlock_Dbg_Pwd
	.type	EF_Ctrl_Readlock_Dbg_Pwd, @function
EF_Ctrl_Readlock_Dbg_Pwd:
.LFB15:
	.loc 1 352 1 is_stmt 1
	.cfi_startproc
.LVL26:
	.loc 1 353 5
	.loc 1 356 5
	.loc 1 352 1 is_stmt 0
	addi	sp,sp,-16
	.cfi_def_cfa_offset 16
	sw	s0,8(sp)
	sw	ra,12(sp)
	.cfi_offset 8, -8
	.cfi_offset 1, -4
	.loc 1 352 1
	mv	s0,a0
	.loc 1 356 5
	call	EF_Ctrl_Sw_AHB_Clk_0
.LVL27:
	.loc 1 358 5 is_stmt 1
	.loc 1 358 11 is_stmt 0
	li	a4,1073770496
	lw	a5,124(a4)
.LVL28:
	.loc 1 359 5 is_stmt 1
	.loc 1 359 11 is_stmt 0
	li	a3,33554432
	or	a5,a5,a3
.LVL29:
	.loc 1 360 5 is_stmt 1
	.loc 1 360 60 is_stmt 0
	sw	a5,124(a4)
	.loc 1 362 5 is_stmt 1
	.loc 1 362 7 is_stmt 0
	beq	s0,zero,.L20
	.loc 1 363 9 is_stmt 1
	.loc 1 365 1 is_stmt 0
	lw	s0,8(sp)
	.cfi_remember_state
	.cfi_restore 8
	lw	ra,12(sp)
	.cfi_restore 1
	addi	sp,sp,16
	.cfi_def_cfa_offset 0
	.loc 1 363 9
	tail	EF_Ctrl_Program_Efuse_0
.LVL30:
.L20:
	.cfi_restore_state
	.loc 1 365 1
	lw	ra,12(sp)
	.cfi_restore 1
	lw	s0,8(sp)
	.cfi_restore 8
	addi	sp,sp,16
	.cfi_def_cfa_offset 0
	jr	ra
	.cfi_endproc
.LFE15:
	.size	EF_Ctrl_Readlock_Dbg_Pwd, .-EF_Ctrl_Readlock_Dbg_Pwd
	.section	.text.EF_Ctrl_Writelock_Dbg_Pwd,"ax",@progbits
	.align	1
	.globl	EF_Ctrl_Writelock_Dbg_Pwd
	.type	EF_Ctrl_Writelock_Dbg_Pwd, @function
EF_Ctrl_Writelock_Dbg_Pwd:
.LFB18:
	.loc 1 455 1 is_stmt 1
	.cfi_startproc
.LVL31:
	.loc 1 456 5
	.loc 1 459 5
	.loc 1 455 1 is_stmt 0
	addi	sp,sp,-16
	.cfi_def_cfa_offset 16
	sw	s0,8(sp)
	sw	ra,12(sp)
	.cfi_offset 8, -8
	.cfi_offset 1, -4
	.loc 1 455 1
	mv	s0,a0
	.loc 1 459 5
	call	EF_Ctrl_Sw_AHB_Clk_0
.LVL32:
	.loc 1 461 5 is_stmt 1
	.loc 1 461 11 is_stmt 0
	li	a4,1073770496
	lw	a5,124(a4)
.LVL33:
	.loc 1 462 5 is_stmt 1
	.loc 1 462 11 is_stmt 0
	li	a3,65536
	or	a5,a5,a3
.LVL34:
	.loc 1 463 5 is_stmt 1
	.loc 1 463 60 is_stmt 0
	sw	a5,124(a4)
	.loc 1 465 5 is_stmt 1
	.loc 1 465 7 is_stmt 0
	beq	s0,zero,.L23
	.loc 1 466 9 is_stmt 1
	.loc 1 468 1 is_stmt 0
	lw	s0,8(sp)
	.cfi_remember_state
	.cfi_restore 8
	lw	ra,12(sp)
	.cfi_restore 1
	addi	sp,sp,16
	.cfi_def_cfa_offset 0
	.loc 1 466 9
	tail	EF_Ctrl_Program_Efuse_0
.LVL35:
.L23:
	.cfi_restore_state
	.loc 1 468 1
	lw	ra,12(sp)
	.cfi_restore 1
	lw	s0,8(sp)
	.cfi_restore 8
	addi	sp,sp,16
	.cfi_def_cfa_offset 0
	jr	ra
	.cfi_endproc
.LFE18:
	.size	EF_Ctrl_Writelock_Dbg_Pwd, .-EF_Ctrl_Writelock_Dbg_Pwd
	.section	.text.EF_Ctrl_Write_Secure_Cfg,"ax",@progbits
	.align	1
	.globl	EF_Ctrl_Write_Secure_Cfg
	.type	EF_Ctrl_Write_Secure_Cfg, @function
EF_Ctrl_Write_Secure_Cfg:
.LFB19:
	.loc 1 480 1 is_stmt 1
	.cfi_startproc
.LVL36:
	.loc 1 481 5
	.loc 1 483 5
	.loc 1 483 11 is_stmt 0
	li	a3,1073770496
	lw	a4,0(a3)
.LVL37:
	.loc 1 484 5 is_stmt 1
	.loc 1 484 90 is_stmt 0
	lw	a5,0(a0)
	.loc 1 484 24
	slli	a4,a4,4
.LVL38:
	srli	a4,a4,4
.LVL39:
	.loc 1 485 5 is_stmt 1
	.loc 1 484 90 is_stmt 0
	slli	a5,a5,28
.LVL40:
	.loc 1 484 11
	or	a5,a5,a4
.LVL41:
	.loc 1 485 24
	li	a4,-201326592
	addi	a4,a4,-1
	and	a4,a5,a4
.LVL42:
	.loc 1 486 5 is_stmt 1
	.loc 1 485 62 is_stmt 0
	lbu	a5,4(a0)
	.loc 1 485 96
	slli	a5,a5,26
	.loc 1 485 11
	or	a5,a5,a4
	.loc 1 486 61
	lbu	a4,5(a0)
.LVL43:
	.loc 1 486 24
	andi	a5,a5,-49
	.loc 1 486 89
	slli	a4,a4,4
	.loc 1 486 11
	or	a5,a4,a5
.LVL44:
	.loc 1 487 5 is_stmt 1
	.loc 1 487 59 is_stmt 0
	sw	a5,0(a3)
	.loc 1 489 5 is_stmt 1
	.loc 1 489 7 is_stmt 0
	beq	a1,zero,.L26
	.loc 1 490 9 is_stmt 1
	tail	EF_Ctrl_Program_Efuse_0
.LVL45:
.L26:
	.loc 1 492 1 is_stmt 0
	ret
	.cfi_endproc
.LFE19:
	.size	EF_Ctrl_Write_Secure_Cfg, .-EF_Ctrl_Write_Secure_Cfg
	.section	.text.EF_Ctrl_Write_Secure_Boot,"ax",@progbits
	.align	1
	.globl	EF_Ctrl_Write_Secure_Boot
	.type	EF_Ctrl_Write_Secure_Boot, @function
EF_Ctrl_Write_Secure_Boot:
.LFB21:
	.loc 1 528 1 is_stmt 1
	.cfi_startproc
.LVL46:
	.loc 1 529 5
	.loc 1 532 5
	.loc 1 528 1 is_stmt 0
	addi	sp,sp,-16
	.cfi_def_cfa_offset 16
	sw	s0,8(sp)
	sw	s1,4(sp)
	sw	s2,0(sp)
	.cfi_offset 8, -8
	.cfi_offset 9, -12
	.cfi_offset 18, -16
	mv	s1,a1
	mv	s2,a0
	sw	ra,12(sp)
	.cfi_offset 1, -4
	.loc 1 528 1
	mv	s0,a2
	.loc 1 532 5
	call	EF_Ctrl_Sw_AHB_Clk_0
.LVL47:
	.loc 1 534 5 is_stmt 1
	.loc 1 534 11 is_stmt 0
	li	a5,1073770496
	lw	a5,0(a5)
.LVL48:
	.loc 1 536 5 is_stmt 1
	.loc 1 536 24 is_stmt 0
	andi	a4,a5,-13
	.loc 1 536 80
	lw	a5,0(s2)
.LVL49:
	slli	a5,a5,2
	.loc 1 536 11
	or	a5,a5,a4
.LVL50:
	.loc 1 538 5 is_stmt 1
	.loc 1 538 11 is_stmt 0
	lw	a4,0(s1)
	.loc 1 538 7
	beq	a4,zero,.L29
	.loc 1 539 9 is_stmt 1
	.loc 1 539 28 is_stmt 0
	andi	a5,a5,-4
.LVL51:
	.loc 1 539 15
	or	a5,a4,a5
.LVL52:
	.loc 1 540 9 is_stmt 1
	.loc 1 540 15 is_stmt 0
	ori	a5,a5,128
.LVL53:
.L29:
	.loc 1 543 5 is_stmt 1
	.loc 1 543 59 is_stmt 0
	li	a4,1073770496
	sw	a5,0(a4)
	.loc 1 545 5 is_stmt 1
	.loc 1 545 7 is_stmt 0
	beq	s0,zero,.L28
	.loc 1 546 9 is_stmt 1
	.loc 1 548 1 is_stmt 0
	lw	s0,8(sp)
	.cfi_remember_state
	.cfi_restore 8
	lw	ra,12(sp)
	.cfi_restore 1
	lw	s1,4(sp)
	.cfi_restore 9
.LVL54:
	lw	s2,0(sp)
	.cfi_restore 18
.LVL55:
	addi	sp,sp,16
	.cfi_def_cfa_offset 0
	.loc 1 546 9
	tail	EF_Ctrl_Program_Efuse_0
.LVL56:
.L28:
	.cfi_restore_state
	.loc 1 548 1
	lw	ra,12(sp)
	.cfi_restore 1
	lw	s0,8(sp)
	.cfi_restore 8
	lw	s1,4(sp)
	.cfi_restore 9
.LVL57:
	lw	s2,0(sp)
	.cfi_restore 18
.LVL58:
	addi	sp,sp,16
	.cfi_def_cfa_offset 0
	jr	ra
	.cfi_endproc
.LFE21:
	.size	EF_Ctrl_Write_Secure_Boot, .-EF_Ctrl_Write_Secure_Boot
	.section	.sclock_rlt_code./mnt/d/GitHub/bl_iot_sdk_for_aithinker/components/platform/soc/bl602/bl602_std/bl602_std/StdDriver/Src/bl602_ef_ctrl.c611,"ax",@progbits
	.align	1
	.weak	EF_Ctrl_Get_Trim_Parity
	.type	EF_Ctrl_Get_Trim_Parity, @function
EF_Ctrl_Get_Trim_Parity:
.LFB24:
	.loc 1 612 1 is_stmt 1
	.cfi_startproc
.LVL59:
	.loc 1 613 5
	.loc 1 614 5
	.loc 1 616 5
	li	a4,0
	.loc 1 613 13 is_stmt 0
	li	a5,0
	.loc 1 617 18
	li	a2,1
.LVL60:
.L36:
	.loc 1 616 13 is_stmt 1 discriminator 1
	.loc 1 616 5 is_stmt 0 discriminator 1
	andi	a3,a4,0xff
	bgtu	a1,a3,.L38
	.loc 1 622 5 is_stmt 1
	.loc 1 623 1 is_stmt 0
	andi	a0,a5,1
.LVL61:
	ret
.LVL62:
.L38:
	.loc 1 617 9 is_stmt 1
	.loc 1 617 18 is_stmt 0
	sll	a3,a2,a4
	.loc 1 617 15
	and	a3,a3,a0
	.loc 1 617 11
	beq	a3,zero,.L37
	.loc 1 618 13 is_stmt 1
	.loc 1 618 16 is_stmt 0
	addi	a5,a5,1
.LVL63:
	andi	a5,a5,0xff
.LVL64:
.L37:
	.loc 1 616 19 is_stmt 1 discriminator 2
	addi	a4,a4,1
.LVL65:
	j	.L36
	.cfi_endproc
.LFE24:
	.size	EF_Ctrl_Get_Trim_Parity, .-EF_Ctrl_Get_Trim_Parity
	.section	.text.EF_Ctrl_Write_Ana_Trim,"ax",@progbits
	.align	1
	.globl	EF_Ctrl_Write_Ana_Trim
	.type	EF_Ctrl_Write_Ana_Trim, @function
EF_Ctrl_Write_Ana_Trim:
.LFB25:
	.loc 1 637 1
	.cfi_startproc
.LVL66:
	.loc 1 639 5
	.loc 1 637 1 is_stmt 0
	addi	sp,sp,-16
	.cfi_def_cfa_offset 16
	sw	s2,0(sp)
	.cfi_offset 18, -16
	mv	s2,a0
	sw	s0,8(sp)
	sw	s1,4(sp)
	sw	ra,12(sp)
	.cfi_offset 8, -8
	.cfi_offset 9, -12
	.cfi_offset 1, -4
	.loc 1 637 1
	mv	s1,a1
	mv	s0,a2
	.loc 1 639 5
	call	EF_Ctrl_Sw_AHB_Clk_0
.LVL67:
	.loc 1 641 5 is_stmt 1
	.loc 1 641 7 is_stmt 0
	bne	s2,zero,.L43
	.loc 1 642 9 is_stmt 1
	.loc 1 642 63 is_stmt 0
	li	a5,1073770496
	sw	s1,12(a5)
.L43:
	.loc 1 645 5 is_stmt 1
	.loc 1 645 7 is_stmt 0
	beq	s0,zero,.L42
	.loc 1 646 9 is_stmt 1
	.loc 1 648 1 is_stmt 0
	lw	s0,8(sp)
	.cfi_remember_state
	.cfi_restore 8
	lw	ra,12(sp)
	.cfi_restore 1
	lw	s1,4(sp)
	.cfi_restore 9
.LVL68:
	lw	s2,0(sp)
	.cfi_restore 18
.LVL69:
	addi	sp,sp,16
	.cfi_def_cfa_offset 0
	.loc 1 646 9
	tail	EF_Ctrl_Program_Efuse_0
.LVL70:
.L42:
	.cfi_restore_state
	.loc 1 648 1
	lw	ra,12(sp)
	.cfi_restore 1
	lw	s0,8(sp)
	.cfi_restore 8
	lw	s1,4(sp)
	.cfi_restore 9
.LVL71:
	lw	s2,0(sp)
	.cfi_restore 18
.LVL72:
	addi	sp,sp,16
	.cfi_def_cfa_offset 0
	jr	ra
	.cfi_endproc
.LFE25:
	.size	EF_Ctrl_Write_Ana_Trim, .-EF_Ctrl_Write_Ana_Trim
	.section	.text.EF_Ctrl_Write_Sw_Usage,"ax",@progbits
	.align	1
	.globl	EF_Ctrl_Write_Sw_Usage
	.type	EF_Ctrl_Write_Sw_Usage, @function
EF_Ctrl_Write_Sw_Usage:
.LFB31:
	.loc 1 785 1 is_stmt 1
	.cfi_startproc
.LVL73:
	.loc 1 787 5
	.loc 1 785 1 is_stmt 0
	addi	sp,sp,-16
	.cfi_def_cfa_offset 16
	sw	s2,0(sp)
	.cfi_offset 18, -16
	mv	s2,a0
	sw	s0,8(sp)
	sw	s1,4(sp)
	sw	ra,12(sp)
	.cfi_offset 8, -8
	.cfi_offset 9, -12
	.cfi_offset 1, -4
	.loc 1 785 1
	mv	s1,a1
	mv	s0,a2
	.loc 1 787 5
	call	EF_Ctrl_Sw_AHB_Clk_0
.LVL74:
	.loc 1 789 5 is_stmt 1
	.loc 1 789 7 is_stmt 0
	bne	s2,zero,.L47
	.loc 1 790 9 is_stmt 1
	.loc 1 790 64 is_stmt 0
	li	a5,1073770496
	sw	s1,16(a5)
.L47:
	.loc 1 793 5 is_stmt 1
	.loc 1 793 7 is_stmt 0
	beq	s0,zero,.L46
	.loc 1 794 9 is_stmt 1
	.loc 1 796 1 is_stmt 0
	lw	s0,8(sp)
	.cfi_remember_state
	.cfi_restore 8
	lw	ra,12(sp)
	.cfi_restore 1
	lw	s1,4(sp)
	.cfi_restore 9
.LVL75:
	lw	s2,0(sp)
	.cfi_restore 18
.LVL76:
	addi	sp,sp,16
	.cfi_def_cfa_offset 0
	.loc 1 794 9
	tail	EF_Ctrl_Program_Efuse_0
.LVL77:
.L46:
	.cfi_restore_state
	.loc 1 796 1
	lw	ra,12(sp)
	.cfi_restore 1
	lw	s0,8(sp)
	.cfi_restore 8
	lw	s1,4(sp)
	.cfi_restore 9
.LVL78:
	lw	s2,0(sp)
	.cfi_restore 18
.LVL79:
	addi	sp,sp,16
	.cfi_def_cfa_offset 0
	jr	ra
	.cfi_endproc
.LFE31:
	.size	EF_Ctrl_Write_Sw_Usage, .-EF_Ctrl_Write_Sw_Usage
	.section	.text.EF_Ctrl_Writelock_Sw_Usage,"ax",@progbits
	.align	1
	.globl	EF_Ctrl_Writelock_Sw_Usage
	.type	EF_Ctrl_Writelock_Sw_Usage, @function
EF_Ctrl_Writelock_Sw_Usage:
.LFB33:
	.loc 1 829 1 is_stmt 1
	.cfi_startproc
.LVL80:
	.loc 1 830 5
	.loc 1 833 5
	.loc 1 829 1 is_stmt 0
	addi	sp,sp,-16
	.cfi_def_cfa_offset 16
	sw	s0,8(sp)
	sw	s1,4(sp)
	sw	ra,12(sp)
	.cfi_offset 8, -8
	.cfi_offset 9, -12
	.cfi_offset 1, -4
	.loc 1 829 1
	mv	s1,a0
	mv	s0,a1
	.loc 1 833 5
	call	EF_Ctrl_Sw_AHB_Clk_0
.LVL81:
	.loc 1 835 5 is_stmt 1
	.loc 1 835 11 is_stmt 0
	li	a5,1073770496
	lw	a5,124(a5)
.LVL82:
	.loc 1 837 5 is_stmt 1
	.loc 1 837 7 is_stmt 0
	bne	s1,zero,.L51
	.loc 1 838 9 is_stmt 1
	.loc 1 838 15 is_stmt 0
	li	a4,131072
	or	a5,a5,a4
.LVL83:
.L51:
	.loc 1 840 5 is_stmt 1
	.loc 1 840 60 is_stmt 0
	li	a4,1073770496
	sw	a5,124(a4)
	.loc 1 842 5 is_stmt 1
	.loc 1 842 7 is_stmt 0
	beq	s0,zero,.L50
	.loc 1 843 9 is_stmt 1
	.loc 1 845 1 is_stmt 0
	lw	s0,8(sp)
	.cfi_remember_state
	.cfi_restore 8
	lw	ra,12(sp)
	.cfi_restore 1
	lw	s1,4(sp)
	.cfi_restore 9
.LVL84:
	addi	sp,sp,16
	.cfi_def_cfa_offset 0
	.loc 1 843 9
	tail	EF_Ctrl_Program_Efuse_0
.LVL85:
.L50:
	.cfi_restore_state
	.loc 1 845 1
	lw	ra,12(sp)
	.cfi_restore 1
	lw	s0,8(sp)
	.cfi_restore 8
	lw	s1,4(sp)
	.cfi_restore 9
.LVL86:
	addi	sp,sp,16
	.cfi_def_cfa_offset 0
	jr	ra
	.cfi_endproc
.LFE33:
	.size	EF_Ctrl_Writelock_Sw_Usage, .-EF_Ctrl_Writelock_Sw_Usage
	.section	.text.EF_Ctrl_Write_MAC_Address,"ax",@progbits
	.align	1
	.globl	EF_Ctrl_Write_MAC_Address
	.type	EF_Ctrl_Write_MAC_Address, @function
EF_Ctrl_Write_MAC_Address:
.LFB34:
	.loc 1 857 1 is_stmt 1
	.cfi_startproc
.LVL87:
	.loc 1 858 5
	.loc 1 857 1 is_stmt 0
	addi	sp,sp,-16
	.cfi_def_cfa_offset 16
	sw	s0,8(sp)
	sw	s1,4(sp)
	.cfi_offset 8, -8
	.cfi_offset 9, -12
	mv	s0,a0
.LVL88:
	.loc 1 859 5 is_stmt 1
	.loc 1 860 5
	.loc 1 863 5
	.loc 1 857 1 is_stmt 0
	sw	ra,12(sp)
	.cfi_offset 1, -4
	.loc 1 857 1
	mv	s1,a1
	.loc 1 863 5
	call	EF_Ctrl_Sw_AHB_Clk_0
.LVL89:
	.loc 1 866 5 is_stmt 1
	lbu	a4,1(s0)
	lbu	a5,0(s0)
	slli	a4,a4,8
	or	a4,a4,a5
	lbu	a5,2(s0)
	slli	a5,a5,16
	or	a4,a5,a4
	lbu	a5,3(s0)
	slli	a5,a5,24
	or	a5,a5,a4
	.loc 1 866 60 is_stmt 0
	li	a4,1073770496
	sw	a5,20(a4)
	.loc 1 868 5 is_stmt 1
	.loc 1 868 31 is_stmt 0
	lbu	a5,5(s0)
	.loc 1 868 19
	lbu	a3,4(s0)
	.loc 1 868 34
	slli	a5,a5,8
	.loc 1 868 22
	add	a5,a5,a3
.LVL90:
	.loc 1 869 5 is_stmt 1
	.loc 1 869 60 is_stmt 0
	sw	a5,24(a4)
	.loc 1 871 5 is_stmt 1
	.loc 1 871 7 is_stmt 0
	beq	s1,zero,.L54
	.loc 1 872 9 is_stmt 1
	.loc 1 874 1 is_stmt 0
	lw	s0,8(sp)
	.cfi_remember_state
	.cfi_restore 8
.LVL91:
	lw	ra,12(sp)
	.cfi_restore 1
	lw	s1,4(sp)
	.cfi_restore 9
	addi	sp,sp,16
	.cfi_def_cfa_offset 0
	.loc 1 872 9
	tail	EF_Ctrl_Program_Efuse_0
.LVL92:
.L54:
	.cfi_restore_state
	.loc 1 874 1
	lw	ra,12(sp)
	.cfi_restore 1
	lw	s0,8(sp)
	.cfi_restore 8
.LVL93:
	lw	s1,4(sp)
	.cfi_restore 9
	addi	sp,sp,16
	.cfi_def_cfa_offset 0
	jr	ra
	.cfi_endproc
.LFE34:
	.size	EF_Ctrl_Write_MAC_Address, .-EF_Ctrl_Write_MAC_Address
	.section	.text.EF_Ctrl_Writelock_MAC_Address,"ax",@progbits
	.align	1
	.globl	EF_Ctrl_Writelock_MAC_Address
	.type	EF_Ctrl_Writelock_MAC_Address, @function
EF_Ctrl_Writelock_MAC_Address:
.LFB38:
	.loc 1 976 1 is_stmt 1
	.cfi_startproc
.LVL94:
	.loc 1 977 5
	.loc 1 980 5
	.loc 1 976 1 is_stmt 0
	addi	sp,sp,-16
	.cfi_def_cfa_offset 16
	sw	s0,8(sp)
	sw	ra,12(sp)
	.cfi_offset 8, -8
	.cfi_offset 1, -4
	.loc 1 976 1
	mv	s0,a0
	.loc 1 980 5
	call	EF_Ctrl_Sw_AHB_Clk_0
.LVL95:
	.loc 1 982 5 is_stmt 1
	.loc 1 982 11 is_stmt 0
	li	a4,1073770496
	lw	a5,124(a4)
.LVL96:
	.loc 1 983 5 is_stmt 1
	.loc 1 983 11 is_stmt 0
	li	a3,262144
	or	a5,a5,a3
.LVL97:
	.loc 1 984 5 is_stmt 1
	.loc 1 984 60 is_stmt 0
	sw	a5,124(a4)
	.loc 1 986 5 is_stmt 1
	.loc 1 986 7 is_stmt 0
	beq	s0,zero,.L57
	.loc 1 987 9 is_stmt 1
	.loc 1 989 1 is_stmt 0
	lw	s0,8(sp)
	.cfi_remember_state
	.cfi_restore 8
	lw	ra,12(sp)
	.cfi_restore 1
	addi	sp,sp,16
	.cfi_def_cfa_offset 0
	.loc 1 987 9
	tail	EF_Ctrl_Program_Efuse_0
.LVL98:
.L57:
	.cfi_restore_state
	.loc 1 989 1
	lw	ra,12(sp)
	.cfi_restore 1
	lw	s0,8(sp)
	.cfi_restore 8
	addi	sp,sp,16
	.cfi_def_cfa_offset 0
	jr	ra
	.cfi_endproc
.LFE38:
	.size	EF_Ctrl_Writelock_MAC_Address, .-EF_Ctrl_Writelock_MAC_Address
	.section	.text.EF_Ctrl_Is_All_Bits_Zero,"ax",@progbits
	.align	1
	.globl	EF_Ctrl_Is_All_Bits_Zero
	.type	EF_Ctrl_Is_All_Bits_Zero, @function
EF_Ctrl_Is_All_Bits_Zero:
.LFB39:
	.loc 1 1002 1 is_stmt 1
	.cfi_startproc
.LVL99:
	.loc 1 1003 5
	.loc 1 1005 5
	.loc 1 1006 7 is_stmt 0
	li	a5,31
	.loc 1 1005 8
	srl	a0,a0,a1
.LVL100:
	.loc 1 1006 5 is_stmt 1
	.loc 1 1006 7 is_stmt 0
	bgtu	a2,a5,.L62
	.loc 1 1009 9 is_stmt 1
	.loc 1 1009 16 is_stmt 0
	li	a5,1
	sll	a2,a5,a2
.LVL101:
	.loc 1 1009 22
	addi	a2,a2,-1
.LVL102:
.L61:
	.loc 1 1012 5 is_stmt 1
	.loc 1 1012 12 is_stmt 0
	and	a0,a2,a0
.LVL103:
	.loc 1 1017 1
	seqz	a0,a0
	ret
.LVL104:
.L62:
	.loc 1 1007 13
	li	a2,-1
.LVL105:
	j	.L61
	.cfi_endproc
.LFE39:
	.size	EF_Ctrl_Is_All_Bits_Zero, .-EF_Ctrl_Is_All_Bits_Zero
	.section	.text.EF_Ctrl_Write_MAC_Address_Opt,"ax",@progbits
	.align	1
	.globl	EF_Ctrl_Write_MAC_Address_Opt
	.type	EF_Ctrl_Write_MAC_Address_Opt, @function
EF_Ctrl_Write_MAC_Address_Opt:
.LFB41:
	.loc 1 1079 1 is_stmt 1
	.cfi_startproc
.LVL106:
	.loc 1 1080 5
	.loc 1 1081 5
	.loc 1 1082 5
	.loc 1 1083 5
	.loc 1 1085 5
	.loc 1 1085 7 is_stmt 0
	li	a5,2
	bgtu	a0,a5,.L75
	.loc 1 1079 1
	addi	sp,sp,-32
	.cfi_def_cfa_offset 32
	sw	s0,24(sp)
	sw	s2,16(sp)
	sw	s3,12(sp)
	sw	ra,28(sp)
	sw	s1,20(sp)
	sw	s4,8(sp)
	sw	s5,4(sp)
	sw	s6,0(sp)
	.cfi_offset 8, -8
	.cfi_offset 18, -16
	.cfi_offset 19, -20
	.cfi_offset 1, -4
	.cfi_offset 9, -12
	.cfi_offset 20, -24
	.cfi_offset 21, -28
	.cfi_offset 22, -32
	mv	s3,a0
	mv	s0,a1
	mv	s2,a2
	mv	a4,a1
	addi	a5,a1,5
	addi	a3,a1,2
.LVL107:
.L65:
	.loc 1 1091 9 is_stmt 1 discriminator 3
	.loc 1 1092 19 is_stmt 0 discriminator 3
	lbu	a1,0(a5)
	.loc 1 1091 19 discriminator 3
	lbu	a2,0(a4)
.LVL108:
	.loc 1 1092 9 is_stmt 1 discriminator 3
	.loc 1 1090 5 is_stmt 0 discriminator 3
	addi	a5,a5,-1
	.loc 1 1092 15 discriminator 3
	sb	a1,0(a4)
	.loc 1 1093 9 is_stmt 1 discriminator 3
	.loc 1 1093 17 is_stmt 0 discriminator 3
	sb	a2,1(a5)
	.loc 1 1090 17 is_stmt 1 discriminator 3
.LVL109:
	.loc 1 1090 13 discriminator 3
	.loc 1 1090 5 is_stmt 0 discriminator 3
	addi	a4,a4,1
.LVL110:
	bne	a3,a5,.L65
	.loc 1 1095 5 is_stmt 1
	.loc 1 1095 7 is_stmt 0
	li	a5,2
	bne	s3,a5,.L66
	.loc 1 1097 9 is_stmt 1
	call	EF_Ctrl_Sw_AHB_Clk_0
.LVL111:
	.loc 1 1104 5
	.loc 1 1108 11
	.loc 1 1109 9
	lbu	a4,1(s0)
	lbu	a5,0(s0)
	slli	a4,a4,8
	or	a4,a4,a5
	lbu	a5,2(s0)
	slli	a5,a5,16
	or	a4,a5,a4
	lbu	a5,3(s0)
	slli	a5,a5,24
	or	a5,a5,a4
	.loc 1 1109 63 is_stmt 0
	li	a4,1073770496
	sw	a5,4(a4)
.L67:
	.loc 1 1112 5 is_stmt 1
	.loc 1 1112 31 is_stmt 0
	lbu	s1,5(s0)
	.loc 1 1112 19
	lbu	s4,4(s0)
	.loc 1 1114 10
	li	s5,0
	.loc 1 1112 34
	slli	s1,s1,8
	.loc 1 1112 22
	add	s4,s1,s4
.LVL112:
	.loc 1 1113 5 is_stmt 1
	.loc 1 1114 5
	.loc 1 1114 13
	.loc 1 1114 5 is_stmt 0
	li	s6,6
	.loc 1 1113 8
	li	s1,0
.LVL113:
.L69:
	.loc 1 1115 9 is_stmt 1 discriminator 3
	.loc 1 1115 14 is_stmt 0 discriminator 3
	add	a5,s0,s5
	lbu	a0,0(a5)
	.loc 1 1114 18 discriminator 3
	addi	s5,s5,1
.LVL114:
	.loc 1 1115 14 discriminator 3
	call	EF_Ctrl_Get_Byte_Zero_Cnt
.LVL115:
	.loc 1 1115 12 discriminator 3
	add	s1,s1,a0
.LVL116:
	.loc 1 1114 17 is_stmt 1 discriminator 3
	.loc 1 1114 13 discriminator 3
	.loc 1 1114 5 is_stmt 0 discriminator 3
	bne	s5,s6,.L69
	.loc 1 1117 5 is_stmt 1
	.loc 1 1117 24 is_stmt 0
	slli	s1,s1,16
.LVL117:
	li	a5,4128768
	and	s1,s1,a5
	.loc 1 1117 11
	or	s1,s1,s4
.LVL118:
	.loc 1 1119 5 is_stmt 1
	.loc 1 1119 7 is_stmt 0
	bne	s3,zero,.L70
	.loc 1 1120 9 is_stmt 1
	.loc 1 1120 64 is_stmt 0
	li	a5,1073770496
	sw	s1,24(a5)
.L82:
	.loc 1 1127 5 is_stmt 1
	.loc 1 1127 7 is_stmt 0
	bne	s2,zero,.L73
.L83:
	.loc 1 1135 1
	lw	ra,28(sp)
	.cfi_remember_state
	.cfi_restore 1
	lw	s0,24(sp)
	.cfi_restore 8
.LVL119:
	lw	s1,20(sp)
	.cfi_restore 9
.LVL120:
	lw	s2,16(sp)
	.cfi_restore 18
	lw	s3,12(sp)
	.cfi_restore 19
	lw	s4,8(sp)
	.cfi_restore 20
	lw	s5,4(sp)
	.cfi_restore 21
.LVL121:
	lw	s6,0(sp)
	.cfi_restore 22
	.loc 1 1134 12
	li	a0,0
	.loc 1 1135 1
	addi	sp,sp,32
	.cfi_def_cfa_offset 0
	jr	ra
.LVL122:
.L66:
	.cfi_restore_state
	.loc 1 1100 9 is_stmt 1
	call	EF_Ctrl_Sw_AHB_Clk_0
.LVL123:
	.loc 1 1104 5
	lbu	a3,1(s0)
	lbu	a2,0(s0)
	lbu	a4,2(s0)
	lbu	a5,3(s0)
	slli	a3,a3,8
	or	a3,a3,a2
	slli	a4,a4,16
	or	a4,a4,a3
	slli	a5,a5,24
	or	a5,a5,a4
	.loc 1 1105 64 is_stmt 0
	li	a4,1073770496
	.loc 1 1104 7
	bne	s3,zero,.L68
	.loc 1 1105 9 is_stmt 1
	.loc 1 1105 64 is_stmt 0
	sw	a5,20(a4)
	j	.L67
.L68:
	.loc 1 1106 11 is_stmt 1
	.loc 1 1107 64 is_stmt 0
	sw	a5,108(a4)
	j	.L67
.LVL124:
.L70:
	.loc 1 1121 11 is_stmt 1
	.loc 1 1121 13 is_stmt 0
	li	a5,1
	bne	s3,a5,.L72
	.loc 1 1122 9 is_stmt 1
	.loc 1 1122 64 is_stmt 0
	li	a5,1073770496
	sw	s1,112(a5)
	j	.L82
.L72:
	.loc 1 1123 11 is_stmt 1
	.loc 1 1124 9
	.loc 1 1124 63 is_stmt 0
	li	a5,1073770496
	sw	s1,8(a5)
	j	.L82
.L73:
	.loc 1 1129 13 is_stmt 1
	call	EF_Ctrl_Program_Efuse_0
.LVL125:
	j	.L83
.LVL126:
.L75:
	.cfi_def_cfa_offset 0
	.cfi_restore 1
	.cfi_restore 8
	.cfi_restore 9
	.cfi_restore 18
	.cfi_restore 19
	.cfi_restore 20
	.cfi_restore 21
	.cfi_restore 22
	.loc 1 1086 16 is_stmt 0
	li	a0,1
.LVL127:
	.loc 1 1135 1
	ret
	.cfi_endproc
.LFE41:
	.size	EF_Ctrl_Write_MAC_Address_Opt, .-EF_Ctrl_Write_MAC_Address_Opt
	.globl	__ashldi3
	.section	.text.EF_Ctrl_Write_PowerOffset_Opt,"ax",@progbits
	.align	1
	.globl	EF_Ctrl_Write_PowerOffset_Opt
	.type	EF_Ctrl_Write_PowerOffset_Opt, @function
EF_Ctrl_Write_PowerOffset_Opt:
.LFB49:
	.loc 1 1420 1 is_stmt 1
	.cfi_startproc
.LVL128:
	.loc 1 1421 5
	.loc 1 1422 5
	.loc 1 1423 5
	.loc 1 1424 5
	.loc 1 1426 5
	.loc 1 1426 7 is_stmt 0
	li	a5,2
	bgtu	a0,a5,.L94
	.loc 1 1420 1
	addi	sp,sp,-32
	.cfi_def_cfa_offset 32
	sw	s0,24(sp)
	sw	s1,20(sp)
	sw	s2,16(sp)
	sw	s3,12(sp)
	sw	s4,8(sp)
	sw	s5,4(sp)
	sw	s6,0(sp)
	sw	ra,28(sp)
	.cfi_offset 8, -8
	.cfi_offset 9, -12
	.cfi_offset 18, -16
	.cfi_offset 19, -20
	.cfi_offset 20, -24
	.cfi_offset 21, -28
	.cfi_offset 22, -32
	.cfi_offset 1, -4
	mv	s3,a0
	mv	s2,a1
	mv	s1,a2
	.loc 1 1426 7
	li	s4,0
	.loc 1 1423 14
	li	s0,0
	.loc 1 1432 11
	li	s5,15
	.loc 1 1435 11
	li	s6,-16
.LVL129:
.L88:
	.loc 1 1432 9 is_stmt 1
	.loc 1 1432 21 is_stmt 0
	lb	a5,0(s2)
	.loc 1 1432 11
	ble	a5,s5,.L86
	.loc 1 1433 13 is_stmt 1
	.loc 1 1433 25 is_stmt 0
	sb	s5,0(s2)
	.loc 1 1435 9 is_stmt 1
.L87:
	.loc 1 1438 9 discriminator 2
.LVL130:
	.loc 1 1439 9 discriminator 2
	.loc 1 1438 14 is_stmt 0 discriminator 2
	lbu	a0,0(s2)
	.loc 1 1438 12 discriminator 2
	mv	a2,s4
	li	a1,0
	andi	a0,a0,31
	call	__ashldi3
.LVL131:
	.loc 1 1430 5 discriminator 2
	addi	s4,s4,5
	.loc 1 1439 14 discriminator 2
	add	s0,s0,a0
	.loc 1 1430 17 is_stmt 1 discriminator 2
.LVL132:
	.loc 1 1430 13 discriminator 2
	.loc 1 1430 5 is_stmt 0 discriminator 2
	addi	s2,s2,1
.LVL133:
	bne	s4,s5,.L88
	.loc 1 1441 5 is_stmt 1
	.loc 1 1441 12 is_stmt 0
	li	a1,15
	mv	a0,s0
	call	EF_Ctrl_Get_Trim_Parity
.LVL134:
	.loc 1 1443 5 is_stmt 1
	.loc 1 1443 7 is_stmt 0
	bne	s3,zero,.L89
	.loc 1 1444 9 is_stmt 1
	.loc 1 1444 14 is_stmt 0
	li	a4,1073770496
	lw	a5,120(a4)
.LVL135:
	.loc 1 1445 9 is_stmt 1
	.loc 1 1446 9
	.loc 1 1447 9
	.loc 1 1448 9
	.loc 1 1447 31 is_stmt 0
	slli	a0,a0,31
.LVL136:
	.loc 1 1445 20
	slli	s0,s0,16
	.loc 1 1447 12
	or	a0,a0,a5
	or	a0,a0,s0
	li	a5,32768
	or	a0,a5,a0
	.loc 1 1448 64
	sw	a0,120(a4)
.L90:
	.loc 1 1469 5 is_stmt 1
	.loc 1 1469 7 is_stmt 0
	beq	s1,zero,.L92
	.loc 1 1470 9 is_stmt 1
	call	EF_Ctrl_Program_Efuse_0
.LVL137:
.L92:
	.loc 1 1473 10 is_stmt 0 discriminator 1
	li	s0,1
.L93:
	.loc 1 1473 31 is_stmt 1 discriminator 1
	.loc 1 1473 10 discriminator 1
	.loc 1 1473 16 is_stmt 0 discriminator 1
	call	EF_Ctrl_Busy
.LVL138:
	.loc 1 1473 10 discriminator 1
	beq	a0,s0,.L93
	.loc 1 1476 1
	lw	ra,28(sp)
	.cfi_remember_state
	.cfi_restore 1
	lw	s0,24(sp)
	.cfi_restore 8
	lw	s1,20(sp)
	.cfi_restore 9
	lw	s2,16(sp)
	.cfi_restore 18
.LVL139:
	lw	s3,12(sp)
	.cfi_restore 19
	lw	s4,8(sp)
	.cfi_restore 20
	lw	s5,4(sp)
	.cfi_restore 21
	lw	s6,0(sp)
	.cfi_restore 22
	.loc 1 1475 12
	li	a0,0
	.loc 1 1476 1
	addi	sp,sp,32
	.cfi_def_cfa_offset 0
	jr	ra
.LVL140:
.L86:
	.cfi_restore_state
	.loc 1 1435 9 is_stmt 1
	.loc 1 1435 11 is_stmt 0
	bge	a5,s6,.L87
	.loc 1 1436 13 is_stmt 1
	.loc 1 1436 25 is_stmt 0
	sb	s6,0(s2)
	j	.L87
.LVL141:
.L89:
	.loc 1 1449 11 is_stmt 1
	.loc 1 1449 13 is_stmt 0
	li	a5,1
	bne	s3,a5,.L91
	.loc 1 1450 9 is_stmt 1
	.loc 1 1450 14 is_stmt 0
	li	a5,1073770496
	lw	a4,116(a5)
.LVL142:
	.loc 1 1451 9 is_stmt 1
	.loc 1 1452 31 is_stmt 0
	slli	a0,a0,15
.LVL143:
	.loc 1 1451 12
	or	s0,a4,s0
.LVL144:
	.loc 1 1452 9 is_stmt 1
	.loc 1 1453 9
	.loc 1 1452 12 is_stmt 0
	or	a0,a0,s0
	.loc 1 1453 64
	sw	a0,116(a5)
	.loc 1 1455 9 is_stmt 1
	.loc 1 1455 14 is_stmt 0
	lw	a4,12(a5)
.LVL145:
	.loc 1 1456 9 is_stmt 1
	ori	a4,a4,1
.LVL146:
	.loc 1 1457 9
.L104:
	.loc 1 1466 9
	.loc 1 1466 63 is_stmt 0
	sw	a4,12(a5)
	j	.L90
.LVL147:
.L91:
	.loc 1 1458 11 is_stmt 1
	.loc 1 1459 9
	.loc 1 1459 14 is_stmt 0
	li	a5,1073770496
	lw	a4,116(a5)
.LVL148:
	.loc 1 1460 9 is_stmt 1
	.loc 1 1460 20 is_stmt 0
	slli	s0,s0,16
	.loc 1 1461 31
	slli	a0,a0,31
.LVL149:
	.loc 1 1460 12
	or	s0,s0,a4
.LVL150:
	.loc 1 1461 9 is_stmt 1
	.loc 1 1462 9
	.loc 1 1461 12 is_stmt 0
	or	a0,a0,s0
	.loc 1 1462 64
	sw	a0,116(a5)
	.loc 1 1464 9 is_stmt 1
	.loc 1 1464 14 is_stmt 0
	lw	a4,12(a5)
.LVL151:
	.loc 1 1465 9 is_stmt 1
	ori	a4,a4,2
.LVL152:
	j	.L104
.LVL153:
.L94:
	.cfi_def_cfa_offset 0
	.cfi_restore 1
	.cfi_restore 8
	.cfi_restore 9
	.cfi_restore 18
	.cfi_restore 19
	.cfi_restore 20
	.cfi_restore 21
	.cfi_restore 22
	.loc 1 1427 16 is_stmt 0
	li	a0,1
.LVL154:
	.loc 1 1476 1
	ret
	.cfi_endproc
.LFE49:
	.size	EF_Ctrl_Write_PowerOffset_Opt, .-EF_Ctrl_Write_PowerOffset_Opt
	.section	.text.EF_Ctrl_Write_AES_Key,"ax",@progbits
	.align	1
	.globl	EF_Ctrl_Write_AES_Key
	.type	EF_Ctrl_Write_AES_Key, @function
EF_Ctrl_Write_AES_Key:
.LFB51:
	.loc 1 1551 1 is_stmt 1
	.cfi_startproc
.LVL155:
	.loc 1 1552 5
	.loc 1 1554 5
	.loc 1 1551 1 is_stmt 0
	addi	sp,sp,-32
	.cfi_def_cfa_offset 32
	sw	ra,28(sp)
	sw	s0,24(sp)
	sw	s1,20(sp)
	.cfi_offset 1, -4
	.cfi_offset 8, -8
	.cfi_offset 9, -12
	.loc 1 1551 1
	sw	a1,12(sp)
	sw	a2,8(sp)
	.loc 1 1554 7
	li	a5,5
	bgtu	a0,a5,.L105
	mv	s0,a0
	mv	s1,a3
	.loc 1 1558 5 is_stmt 1
	call	EF_Ctrl_Sw_AHB_Clk_0
.LVL156:
	.loc 1 1561 5
	li	a0,1073770496
	lw	a2,8(sp)
	lw	a1,12(sp)
	.loc 1 1561 32 is_stmt 0
	slli	s0,s0,4
	.loc 1 1561 5
	addi	a0,a0,28
	add	a0,s0,a0
	call	BL602_MemCpy4
.LVL157:
	.loc 1 1563 5 is_stmt 1
	.loc 1 1563 7 is_stmt 0
	beq	s1,zero,.L105
	.loc 1 1564 9 is_stmt 1
	.loc 1 1566 1 is_stmt 0
	lw	s0,24(sp)
	.cfi_remember_state
	.cfi_restore 8
	lw	ra,28(sp)
	.cfi_restore 1
	lw	s1,20(sp)
	.cfi_restore 9
	addi	sp,sp,32
	.cfi_def_cfa_offset 0
.LVL158:
	.loc 1 1564 9
	tail	EF_Ctrl_Program_Efuse_0
.LVL159:
.L105:
	.cfi_restore_state
	.loc 1 1566 1
	lw	ra,28(sp)
	.cfi_restore 1
	lw	s0,24(sp)
	.cfi_restore 8
	lw	s1,20(sp)
	.cfi_restore 9
	addi	sp,sp,32
	.cfi_def_cfa_offset 0
.LVL160:
	jr	ra
	.cfi_endproc
.LFE51:
	.size	EF_Ctrl_Write_AES_Key, .-EF_Ctrl_Write_AES_Key
	.section	.text.EF_Ctrl_Writelock_AES_Key,"ax",@progbits
	.align	1
	.globl	EF_Ctrl_Writelock_AES_Key
	.type	EF_Ctrl_Writelock_AES_Key, @function
EF_Ctrl_Writelock_AES_Key:
.LFB53:
	.loc 1 1602 1 is_stmt 1
	.cfi_startproc
.LVL161:
	.loc 1 1603 5
	.loc 1 1605 5
	.loc 1 1605 7 is_stmt 0
	li	a5,5
	bgtu	a0,a5,.L123
	.loc 1 1602 1
	addi	sp,sp,-16
	.cfi_def_cfa_offset 16
	sw	s0,8(sp)
	sw	s1,4(sp)
	.cfi_offset 8, -8
	.cfi_offset 9, -12
	mv	s0,a0
	sw	ra,12(sp)
	.cfi_offset 1, -4
	mv	s1,a1
	.loc 1 1609 5 is_stmt 1
	call	EF_Ctrl_Sw_AHB_Clk_0
.LVL162:
	.loc 1 1611 5
	.loc 1 1611 11 is_stmt 0
	li	a5,1073770496
	lw	a4,124(a5)
.LVL163:
	.loc 1 1612 5 is_stmt 1
	.loc 1 1612 7 is_stmt 0
	li	a3,3
	addi	a5,s0,19
	bgtu	s0,a3,.L116
	.loc 1 1613 9 is_stmt 1
	.loc 1 1613 19 is_stmt 0
	li	s0,1
	sll	s0,s0,a5
.LVL164:
.L126:
	.loc 1 1616 15
	or	s0,s0,a4
.LVL165:
	.loc 1 1618 5 is_stmt 1
	.loc 1 1618 60 is_stmt 0
	li	a5,1073770496
	sw	s0,124(a5)
	.loc 1 1620 5 is_stmt 1
	.loc 1 1620 7 is_stmt 0
	beq	s1,zero,.L113
	.loc 1 1621 9 is_stmt 1
	.loc 1 1623 1 is_stmt 0
	lw	s0,8(sp)
	.cfi_remember_state
	.cfi_restore 8
.LVL166:
	lw	ra,12(sp)
	.cfi_restore 1
	lw	s1,4(sp)
	.cfi_restore 9
	addi	sp,sp,16
	.cfi_def_cfa_offset 0
	.loc 1 1621 9
	tail	EF_Ctrl_Program_Efuse_0
.LVL167:
.L116:
	.cfi_restore_state
	.loc 1 1615 9 is_stmt 1
	.loc 1 1616 9
	.loc 1 1615 19 is_stmt 0
	li	a3,1
	.loc 1 1616 29
	addi	s0,s0,9
.LVL168:
	.loc 1 1615 19
	sll	a5,a3,a5
.LVL169:
	.loc 1 1616 19
	sll	s0,a3,s0
.LVL170:
	.loc 1 1616 15
	or	s0,a5,s0
	j	.L126
.LVL171:
.L113:
	.loc 1 1623 1
	lw	ra,12(sp)
	.cfi_restore 1
	lw	s0,8(sp)
	.cfi_restore 8
.LVL172:
	lw	s1,4(sp)
	.cfi_restore 9
	addi	sp,sp,16
	.cfi_def_cfa_offset 0
	jr	ra
.LVL173:
.L123:
	ret
	.cfi_endproc
.LFE53:
	.size	EF_Ctrl_Writelock_AES_Key, .-EF_Ctrl_Writelock_AES_Key
	.section	.text.EF_Ctrl_Readlock_AES_Key,"ax",@progbits
	.align	1
	.globl	EF_Ctrl_Readlock_AES_Key
	.type	EF_Ctrl_Readlock_AES_Key, @function
EF_Ctrl_Readlock_AES_Key:
.LFB54:
	.loc 1 1635 1 is_stmt 1
	.cfi_startproc
.LVL174:
	.loc 1 1636 5
	.loc 1 1638 5
	.loc 1 1638 7 is_stmt 0
	li	a5,5
	bgtu	a0,a5,.L135
	.loc 1 1635 1
	addi	sp,sp,-16
	.cfi_def_cfa_offset 16
	sw	s0,8(sp)
	sw	s1,4(sp)
	.cfi_offset 8, -8
	.cfi_offset 9, -12
	mv	s0,a0
	sw	ra,12(sp)
	.cfi_offset 1, -4
	mv	s1,a1
	.loc 1 1642 5 is_stmt 1
	call	EF_Ctrl_Sw_AHB_Clk_0
.LVL175:
	.loc 1 1644 5
	.loc 1 1644 11 is_stmt 0
	li	a5,1073770496
	lw	a4,124(a5)
.LVL176:
	.loc 1 1645 5 is_stmt 1
	.loc 1 1645 23 is_stmt 0
	addi	s0,s0,26
	.loc 1 1645 15
	li	a0,1
	sll	s0,a0,s0
	.loc 1 1645 11
	or	s0,s0,a4
.LVL177:
	.loc 1 1646 5 is_stmt 1
	.loc 1 1646 60 is_stmt 0
	sw	s0,124(a5)
	.loc 1 1648 5 is_stmt 1
	.loc 1 1648 7 is_stmt 0
	beq	s1,zero,.L127
	.loc 1 1649 9 is_stmt 1
	.loc 1 1651 1 is_stmt 0
	lw	s0,8(sp)
	.cfi_remember_state
	.cfi_restore 8
.LVL178:
	lw	ra,12(sp)
	.cfi_restore 1
	lw	s1,4(sp)
	.cfi_restore 9
	addi	sp,sp,16
	.cfi_def_cfa_offset 0
	.loc 1 1649 9
	tail	EF_Ctrl_Program_Efuse_0
.LVL179:
.L127:
	.cfi_restore_state
	.loc 1 1651 1
	lw	ra,12(sp)
	.cfi_restore 1
	lw	s0,8(sp)
	.cfi_restore 8
.LVL180:
	lw	s1,4(sp)
	.cfi_restore 9
	addi	sp,sp,16
	.cfi_def_cfa_offset 0
	jr	ra
.LVL181:
.L135:
	ret
	.cfi_endproc
.LFE54:
	.size	EF_Ctrl_Readlock_AES_Key, .-EF_Ctrl_Readlock_AES_Key
	.section	.text.EF_Ctrl_Program_Direct_R0,"ax",@progbits
	.align	1
	.globl	EF_Ctrl_Program_Direct_R0
	.type	EF_Ctrl_Program_Direct_R0, @function
EF_Ctrl_Program_Direct_R0:
.LFB55:
	.loc 1 1664 1 is_stmt 1
	.cfi_startproc
.LVL182:
	.loc 1 1665 5
	.loc 1 1668 5
	.loc 1 1664 1 is_stmt 0
	addi	sp,sp,-32
	.cfi_def_cfa_offset 32
	sw	ra,28(sp)
	sw	s0,24(sp)
	.cfi_offset 1, -4
	.cfi_offset 8, -8
	.loc 1 1664 1
	sw	a1,12(sp)
	sw	a2,8(sp)
	mv	s0,a0
	.loc 1 1668 5
	call	EF_Ctrl_Sw_AHB_Clk_0
.LVL183:
	.loc 1 1671 5 is_stmt 1
	li	a0,4
	call	BL602_Delay_US
.LVL184:
	.loc 1 1673 5
	lw	a2,8(sp)
	lw	a1,12(sp)
	.loc 1 1673 31 is_stmt 0
	slli	s0,s0,2
.LVL185:
	.loc 1 1673 5
	li	a0,1073770496
	add	a0,a0,s0
	call	BL602_MemCpy4
.LVL186:
	.loc 1 1675 5 is_stmt 1
	.loc 1 1676 1 is_stmt 0
	lw	s0,24(sp)
	.cfi_restore 8
	lw	ra,28(sp)
	.cfi_restore 1
	addi	sp,sp,32
	.cfi_def_cfa_offset 0
.LVL187:
	.loc 1 1675 5
	tail	EF_Ctrl_Program_Efuse_0
.LVL188:
	.cfi_endproc
.LFE55:
	.size	EF_Ctrl_Program_Direct_R0, .-EF_Ctrl_Program_Direct_R0
	.section	.text.EF_Ctrl_Write_R0,"ax",@progbits
	.align	1
	.globl	EF_Ctrl_Write_R0
	.type	EF_Ctrl_Write_R0, @function
EF_Ctrl_Write_R0:
.LFB57:
	.loc 1 1708 1 is_stmt 1
	.cfi_startproc
.LVL189:
	.loc 1 1709 5
	.loc 1 1712 5
	.loc 1 1708 1 is_stmt 0
	addi	sp,sp,-32
	.cfi_def_cfa_offset 32
	sw	ra,28(sp)
	sw	s0,24(sp)
	.cfi_offset 1, -4
	.cfi_offset 8, -8
	.loc 1 1708 1
	sw	a1,12(sp)
	sw	a2,8(sp)
	mv	s0,a0
	.loc 1 1712 5
	call	EF_Ctrl_Sw_AHB_Clk_0
.LVL190:
	.loc 1 1715 5 is_stmt 1
	li	a0,4
	call	BL602_Delay_US
.LVL191:
	.loc 1 1717 5
	.loc 1 1717 31 is_stmt 0
	slli	s0,s0,2
.LVL192:
	.loc 1 1717 5
	li	a0,1073770496
	add	a0,a0,s0
	.loc 1 1718 1
	lw	s0,24(sp)
	.cfi_restore 8
	.loc 1 1717 5
	lw	a2,8(sp)
	lw	a1,12(sp)
	.loc 1 1718 1
	lw	ra,28(sp)
	.cfi_restore 1
	addi	sp,sp,32
	.cfi_def_cfa_offset 0
.LVL193:
	.loc 1 1717 5
	tail	BL602_MemCpy4
.LVL194:
	.cfi_endproc
.LFE57:
	.size	EF_Ctrl_Write_R0, .-EF_Ctrl_Write_R0
	.section	.text.EF_Ctrl_Read_R0,"ax",@progbits
	.align	1
	.globl	EF_Ctrl_Read_R0
	.type	EF_Ctrl_Read_R0, @function
EF_Ctrl_Read_R0:
.LFB58:
	.loc 1 1731 1 is_stmt 1
	.cfi_startproc
.LVL195:
	.loc 1 1732 5
	.loc 1 1734 5
	.loc 1 1731 1 is_stmt 0
	mv	a5,a1
	.loc 1 1734 5
	li	a4,1073770496
	.loc 1 1734 36
	slli	a1,a0,2
.LVL196:
	.loc 1 1734 5
	add	a1,a4,a1
	mv	a0,a5
.LVL197:
	tail	BL602_MemCpy4
.LVL198:
	.cfi_endproc
.LFE58:
	.size	EF_Ctrl_Read_R0, .-EF_Ctrl_Read_R0
	.section	.tcm_code./mnt/d/GitHub/bl_iot_sdk_for_aithinker/components/platform/soc/bl602/bl602_std/bl602_std/StdDriver/Src/bl602_ef_ctrl.c1748,"ax",@progbits
	.align	1
	.weak	EF_Ctrl_Clear
	.type	EF_Ctrl_Clear, @function
EF_Ctrl_Clear:
.LFB59:
	.loc 1 1749 1 is_stmt 1
	.cfi_startproc
.LVL199:
	.loc 1 1750 5
	.loc 1 1751 5
	.loc 1 1754 5
	.loc 1 1749 1 is_stmt 0
	addi	sp,sp,-16
	.cfi_def_cfa_offset 16
	sw	s0,8(sp)
	sw	s1,4(sp)
	.cfi_offset 8, -8
	.cfi_offset 9, -12
	mv	s0,a1
	mv	s1,a0
	sw	ra,12(sp)
	.cfi_offset 1, -4
	.loc 1 1754 5
	call	EF_Ctrl_Sw_AHB_Clk_0
.LVL200:
	.loc 1 1757 5 is_stmt 1
	add	a1,s0,s1
	slli	a5,s1,2
	slli	a1,a1,2
	.loc 1 1758 30 is_stmt 0
	li	a4,1073770496
.LVL201:
.L144:
	.loc 1 1757 13 is_stmt 1 discriminator 1
	.loc 1 1757 5 is_stmt 0 discriminator 1
	bne	a5,a1,.L145
	.loc 1 1760 1
	lw	ra,12(sp)
	.cfi_remember_state
	.cfi_restore 1
	lw	s0,8(sp)
	.cfi_restore 8
.LVL202:
	lw	s1,4(sp)
	.cfi_restore 9
.LVL203:
	addi	sp,sp,16
	.cfi_def_cfa_offset 0
	jr	ra
.LVL204:
.L145:
	.cfi_restore_state
	.loc 1 1758 9 is_stmt 1 discriminator 3
	.loc 1 1758 30 is_stmt 0 discriminator 3
	add	a3,a4,a5
	sw	zero,0(a3)
	.loc 1 1757 19 is_stmt 1 discriminator 3
	addi	a5,a5,4
	j	.L144
	.cfi_endproc
.LFE59:
	.size	EF_Ctrl_Clear, .-EF_Ctrl_Clear
	.section	.tcm_code./mnt/d/GitHub/bl_iot_sdk_for_aithinker/components/platform/soc/bl602/bl602_std/bl602_std/StdDriver/Src/bl602_ef_ctrl.c199,"ax",@progbits
	.align	1
	.weak	EF_Ctrl_Load_Efuse_R0
	.type	EF_Ctrl_Load_Efuse_R0, @function
EF_Ctrl_Load_Efuse_R0:
.LFB10:
	.loc 1 200 1
	.cfi_startproc
	.loc 1 202 5
	.loc 1 203 5
.LVL205:
	.loc 1 205 5
	.loc 1 200 1 is_stmt 0
	addi	sp,sp,-16
	.cfi_def_cfa_offset 16
	.loc 1 205 5
	li	a1,32
	li	a0,0
	.loc 1 200 1
	sw	ra,12(sp)
	.cfi_offset 1, -4
	.loc 1 205 5
	call	EF_Ctrl_Clear
.LVL206:
	.loc 1 208 5 is_stmt 1
	.loc 1 217 5
	.loc 1 217 61 is_stmt 0
	li	a5,2408448
	addi	a3,a5,-256
	li	a4,1073774592
	sw	a3,-2048(a4)
	.loc 1 219 5 is_stmt 1
.LVL207:
	.loc 1 228 5
	.loc 1 228 61 is_stmt 0
	addi	a5,a5,-240
	sw	a5,-2048(a4)
	.loc 1 230 5 is_stmt 1
	li	a0,10
	call	BL602_Delay_US
.LVL208:
	li	a5,159744
	addi	a5,a5,256
	.loc 1 233 15 is_stmt 0
	li	a2,1073774592
	.loc 1 239 12
	li	a3,2
.LVL209:
.L149:
	.loc 1 232 5 is_stmt 1
	.loc 1 233 9
	.loc 1 233 15 is_stmt 0
	lw	a4,-2048(a2)
.LVL210:
	.loc 1 234 9 is_stmt 1
	.loc 1 235 9
	.loc 1 235 11 is_stmt 0
	addi	a5,a5,-1
.LVL211:
	beq	a5,zero,.L148
.LVL212:
	.loc 1 238 11 is_stmt 1
	.loc 1 238 44 is_stmt 0
	andi	a4,a4,6
.LVL213:
	.loc 1 239 12
	bne	a4,a3,.L149
.LVL214:
.L148:
	.loc 1 242 5 is_stmt 1
	.loc 1 251 5
	.loc 1 251 61 is_stmt 0
	li	a5,2408448
	li	a4,1073774592
	addi	a5,a5,-128
	sw	a5,-2048(a4)
	.loc 1 252 1
	lw	ra,12(sp)
	.cfi_restore 1
	addi	sp,sp,16
	.cfi_def_cfa_offset 0
	jr	ra
	.cfi_endproc
.LFE10:
	.size	EF_Ctrl_Load_Efuse_R0, .-EF_Ctrl_Load_Efuse_R0
	.section	.text.EF_Ctrl_Read_Dbg_Pwd,"ax",@progbits
	.align	1
	.globl	EF_Ctrl_Read_Dbg_Pwd
	.type	EF_Ctrl_Read_Dbg_Pwd, @function
EF_Ctrl_Read_Dbg_Pwd:
.LFB14:
	.loc 1 335 1 is_stmt 1
	.cfi_startproc
.LVL215:
	.loc 1 337 5
	.loc 1 335 1 is_stmt 0
	addi	sp,sp,-16
	.cfi_def_cfa_offset 16
	sw	s0,8(sp)
	sw	s1,4(sp)
	sw	ra,12(sp)
	.cfi_offset 8, -8
	.cfi_offset 9, -12
	.cfi_offset 1, -4
	.loc 1 335 1
	mv	s1,a0
	mv	s0,a1
	.loc 1 337 5
	call	EF_Ctrl_Load_Efuse_R0
.LVL216:
	.loc 1 339 5 is_stmt 1
	.loc 1 339 17 is_stmt 0
	li	a5,1073770496
	lw	a4,4(a5)
	.loc 1 341 1
	lw	ra,12(sp)
	.cfi_restore 1
	.loc 1 339 15
	sw	a4,0(s1)
	.loc 1 340 5 is_stmt 1
	.loc 1 340 18 is_stmt 0
	lw	a5,8(a5)
	.loc 1 341 1
	lw	s1,4(sp)
	.cfi_restore 9
.LVL217:
	.loc 1 340 16
	sw	a5,0(s0)
	.loc 1 341 1
	lw	s0,8(sp)
	.cfi_restore 8
.LVL218:
	addi	sp,sp,16
	.cfi_def_cfa_offset 0
	jr	ra
	.cfi_endproc
.LFE14:
	.size	EF_Ctrl_Read_Dbg_Pwd, .-EF_Ctrl_Read_Dbg_Pwd
	.section	.text.EF_Ctrl_Read_Ldo11VoutSel_Opt,"ax",@progbits
	.align	1
	.globl	EF_Ctrl_Read_Ldo11VoutSel_Opt
	.type	EF_Ctrl_Read_Ldo11VoutSel_Opt, @function
EF_Ctrl_Read_Ldo11VoutSel_Opt:
.LFB16:
	.loc 1 377 1 is_stmt 1
	.cfi_startproc
.LVL219:
	.loc 1 378 5
	.loc 1 379 5
	.loc 1 377 1 is_stmt 0
	addi	sp,sp,-32
	.cfi_def_cfa_offset 32
.LVL220:
	.loc 1 382 5 is_stmt 1
	.loc 1 377 1 is_stmt 0
	sw	ra,28(sp)
	sw	s1,20(sp)
	sw	s0,24(sp)
	.cfi_offset 1, -4
	.cfi_offset 9, -12
	.cfi_offset 8, -8
	mv	s1,a0
	sw	s2,16(sp)
	.cfi_offset 18, -16
	.loc 1 382 5
	call	EF_Ctrl_Sw_AHB_Clk_0
.LVL221:
	.loc 1 384 2 is_stmt 1
	call	EF_Ctrl_Load_Efuse_R0
.LVL222:
	.loc 1 386 5
	.loc 1 386 11 is_stmt 0
	li	a4,1073770496
	lw	a5,24(a4)
	.loc 1 386 67
	srli	a5,a5,23
	.loc 1 386 8
	sw	a5,12(sp)
	.loc 1 388 5 is_stmt 1
	.loc 1 388 12 is_stmt 0
	andi	a5,a5,1
	.loc 1 388 7
	beq	a5,zero,.L158
	.loc 1 389 9 is_stmt 1
	.loc 1 389 15 is_stmt 0
	lw	a5,88(a4)
.L164:
	.loc 1 392 71
	srli	a5,a5,7
	sw	a5,12(sp)
	.loc 1 394 5 is_stmt 1
	.loc 1 394 8 is_stmt 0
	andi	a4,a5,32
	.loc 1 394 7
	bne	a4,zero,.L160
.L162:
	.loc 1 400 12
	li	a0,1
.L157:
	.loc 1 401 1
	lw	ra,28(sp)
	.cfi_remember_state
	.cfi_restore 1
	lw	s0,24(sp)
	.cfi_restore 8
	lw	s1,20(sp)
	.cfi_restore 9
.LVL223:
	lw	s2,16(sp)
	.cfi_restore 18
	addi	sp,sp,32
	.cfi_def_cfa_offset 0
.LVL224:
	jr	ra
.LVL225:
.L158:
	.cfi_restore_state
	.loc 1 392 9 is_stmt 1
	.loc 1 392 15 is_stmt 0
	lw	a5,104(a4)
	j	.L164
.L160:
	.loc 1 395 9 is_stmt 1
	.loc 1 395 54 is_stmt 0
	andi	s0,a5,15
	.loc 1 395 16
	srli	s2,a5,4
	.loc 1 395 26
	li	a1,4
	mv	a0,s0
	.loc 1 395 16
	andi	s2,s2,1
	.loc 1 395 26
	call	EF_Ctrl_Get_Trim_Parity
.LVL226:
	.loc 1 395 11
	bne	s2,a0,.L162
	.loc 1 396 13 is_stmt 1
	.loc 1 396 31 is_stmt 0
	sb	s0,0(s1)
	.loc 1 397 13 is_stmt 1
	.loc 1 397 20 is_stmt 0
	li	a0,0
	j	.L157
	.cfi_endproc
.LFE16:
	.size	EF_Ctrl_Read_Ldo11VoutSel_Opt, .-EF_Ctrl_Read_Ldo11VoutSel_Opt
	.section	.text.EF_Ctrl_Read_TxPower_ATE,"ax",@progbits
	.align	1
	.globl	EF_Ctrl_Read_TxPower_ATE
	.type	EF_Ctrl_Read_TxPower_ATE, @function
EF_Ctrl_Read_TxPower_ATE:
.LFB17:
	.loc 1 412 1 is_stmt 1
	.cfi_startproc
.LVL227:
	.loc 1 413 5
	.loc 1 414 5
	.loc 1 412 1 is_stmt 0
	addi	sp,sp,-32
	.cfi_def_cfa_offset 32
.LVL228:
	.loc 1 418 5 is_stmt 1
	.loc 1 412 1 is_stmt 0
	sw	ra,28(sp)
	sw	s0,24(sp)
	sw	s1,20(sp)
	.cfi_offset 1, -4
	.cfi_offset 8, -8
	.cfi_offset 9, -12
	mv	s0,a1
	mv	s1,a0
	sw	s2,16(sp)
	.cfi_offset 18, -16
	.loc 1 418 5
	call	EF_Ctrl_Sw_AHB_Clk_0
.LVL229:
	.loc 1 420 2 is_stmt 1
	call	EF_Ctrl_Load_Efuse_R0
.LVL230:
	.loc 1 422 5
	.loc 1 422 11 is_stmt 0
	li	a4,1073770496
	lw	a5,24(a4)
	.loc 1 422 67
	srli	a5,a5,23
	.loc 1 422 8
	sw	a5,12(sp)
	.loc 1 423 5 is_stmt 1
	.loc 1 423 12 is_stmt 0
	andi	a5,a5,1
	.loc 1 423 7
	beq	a5,zero,.L166
	.loc 1 424 9 is_stmt 1
	.loc 1 424 15 is_stmt 0
	li	a5,3
	sb	a5,0(s0)
	.loc 1 425 9 is_stmt 1
	.loc 1 425 71 is_stmt 0
	lw	a5,88(a4)
.L173:
	.loc 1 428 12
	sw	a5,12(sp)
	.loc 1 431 5 is_stmt 1
	.loc 1 431 13 is_stmt 0
	lw	s0,12(sp)
.LVL231:
	srli	a5,s0,17
	.loc 1 431 20
	andi	a5,a5,1
	.loc 1 431 7
	bne	a5,zero,.L168
.L170:
	.loc 1 443 12
	li	a0,1
.L165:
	.loc 1 444 1
	lw	ra,28(sp)
	.cfi_remember_state
	.cfi_restore 1
	lw	s0,24(sp)
	.cfi_restore 8
	lw	s1,20(sp)
	.cfi_restore 9
.LVL232:
	lw	s2,16(sp)
	.cfi_restore 18
	addi	sp,sp,32
	.cfi_def_cfa_offset 0
.LVL233:
	jr	ra
.LVL234:
.L166:
	.cfi_restore_state
	.loc 1 427 9 is_stmt 1
	.loc 1 427 15 is_stmt 0
	li	a5,4
	sb	a5,0(s0)
	.loc 1 428 9 is_stmt 1
	.loc 1 428 71 is_stmt 0
	lw	a5,104(a4)
	j	.L173
.LVL235:
.L168:
	.loc 1 432 9 is_stmt 1
	.loc 1 432 16 is_stmt 0
	srli	s2,s0,5
	.loc 1 432 54
	andi	s0,s0,31
	.loc 1 432 26
	li	a1,5
	mv	a0,s0
	.loc 1 432 16
	andi	s2,s2,1
	.loc 1 432 26
	call	EF_Ctrl_Get_Trim_Parity
.LVL236:
	.loc 1 432 11
	bne	s2,a0,.L170
	.loc 1 433 13 is_stmt 1
	.loc 1 433 15 is_stmt 0
	li	a5,15
	bleu	s0,a5,.L171
	.loc 1 434 17 is_stmt 1
	.loc 1 434 40 is_stmt 0
	addi	s0,s0,-32
.L171:
	.loc 1 437 17 is_stmt 1
	.loc 1 437 25 is_stmt 0
	sb	s0,0(s1)
	.loc 1 440 20
	li	a0,0
	j	.L165
	.cfi_endproc
.LFE17:
	.size	EF_Ctrl_Read_TxPower_ATE, .-EF_Ctrl_Read_TxPower_ATE
	.section	.text.EF_Ctrl_Read_Secure_Cfg,"ax",@progbits
	.align	1
	.globl	EF_Ctrl_Read_Secure_Cfg
	.type	EF_Ctrl_Read_Secure_Cfg, @function
EF_Ctrl_Read_Secure_Cfg:
.LFB20:
	.loc 1 503 1 is_stmt 1
	.cfi_startproc
.LVL237:
	.loc 1 504 5
	.loc 1 507 5
	.loc 1 503 1 is_stmt 0
	addi	sp,sp,-16
	.cfi_def_cfa_offset 16
	sw	s0,8(sp)
	sw	ra,12(sp)
	.cfi_offset 8, -8
	.cfi_offset 1, -4
	.loc 1 503 1
	mv	s0,a0
	.loc 1 507 5
	call	EF_Ctrl_Load_Efuse_R0
.LVL238:
	.loc 1 509 5 is_stmt 1
	.loc 1 509 11 is_stmt 0
	li	a5,1073770496
	lw	a5,0(a5)
.LVL239:
	.loc 1 511 5 is_stmt 1
	.loc 1 515 1 is_stmt 0
	lw	ra,12(sp)
	.cfi_restore 1
	.loc 1 511 91
	srli	a4,a5,28
	.loc 1 511 22
	sw	a4,0(s0)
	.loc 1 512 5 is_stmt 1
	.loc 1 512 73 is_stmt 0
	srli	a4,a5,26
	andi	a4,a4,3
	.loc 1 512 27
	sb	a4,4(s0)
	.loc 1 513 5 is_stmt 1
	.loc 1 513 67 is_stmt 0
	srli	a4,a5,4
	.loc 1 514 72
	srli	a5,a5,13
.LVL240:
	.loc 1 513 67
	andi	a4,a4,3
	.loc 1 514 72
	andi	a5,a5,1
	.loc 1 513 22
	sb	a4,5(s0)
	.loc 1 514 5 is_stmt 1
	.loc 1 514 26 is_stmt 0
	sb	a5,6(s0)
	.loc 1 515 1
	lw	s0,8(sp)
	.cfi_restore 8
.LVL241:
	addi	sp,sp,16
	.cfi_def_cfa_offset 0
	jr	ra
	.cfi_endproc
.LFE20:
	.size	EF_Ctrl_Read_Secure_Cfg, .-EF_Ctrl_Read_Secure_Cfg
	.section	.text.EF_Ctrl_Read_Secure_Boot,"ax",@progbits
	.align	1
	.globl	EF_Ctrl_Read_Secure_Boot
	.type	EF_Ctrl_Read_Secure_Boot, @function
EF_Ctrl_Read_Secure_Boot:
.LFB22:
	.loc 1 560 1 is_stmt 1
	.cfi_startproc
.LVL242:
	.loc 1 561 5
	.loc 1 562 5
	.loc 1 565 5
	.loc 1 560 1 is_stmt 0
	addi	sp,sp,-16
	.cfi_def_cfa_offset 16
	sw	s0,8(sp)
	sw	s1,4(sp)
	sw	ra,12(sp)
	.cfi_offset 8, -8
	.cfi_offset 9, -12
	.cfi_offset 1, -4
	.loc 1 560 1
	mv	s1,a0
	mv	s0,a1
	.loc 1 565 5
	call	EF_Ctrl_Load_Efuse_R0
.LVL243:
	.loc 1 567 5 is_stmt 1
	.loc 1 567 11 is_stmt 0
	li	a5,1073770496
	lw	a4,0(a5)
.LVL244:
	.loc 1 569 5 is_stmt 1
	.loc 1 570 5
	.loc 1 569 57 is_stmt 0
	srli	a5,a4,2
	.loc 1 570 40
	andi	a5,a5,1
	.loc 1 570 12
	sw	a5,0(s1)
	.loc 1 572 5 is_stmt 1
	.loc 1 572 57 is_stmt 0
	srli	a5,a4,7
	.loc 1 572 12
	andi	a5,a5,1
.LVL245:
	.loc 1 573 5 is_stmt 1
	.loc 1 573 7 is_stmt 0
	beq	a5,zero,.L177
	.loc 1 574 9 is_stmt 1
	.loc 1 574 81 is_stmt 0
	andi	a5,a4,3
.LVL246:
.L177:
	.loc 1 578 1
	lw	ra,12(sp)
	.cfi_restore 1
	sw	a5,0(s0)
	lw	s0,8(sp)
	.cfi_restore 8
.LVL247:
	lw	s1,4(sp)
	.cfi_restore 9
.LVL248:
	addi	sp,sp,16
	.cfi_def_cfa_offset 0
	jr	ra
	.cfi_endproc
.LFE22:
	.size	EF_Ctrl_Read_Secure_Boot, .-EF_Ctrl_Read_Secure_Boot
	.section	.text.EF_Ctrl_Get_Trim_Enable,"ax",@progbits
	.align	1
	.globl	EF_Ctrl_Get_Trim_Enable
	.type	EF_Ctrl_Get_Trim_Enable, @function
EF_Ctrl_Get_Trim_Enable:
.LFB23:
	.loc 1 589 1 is_stmt 1
	.cfi_startproc
	.loc 1 590 5
	.loc 1 593 5
	.loc 1 589 1 is_stmt 0
	addi	sp,sp,-16
	.cfi_def_cfa_offset 16
	sw	ra,12(sp)
	.cfi_offset 1, -4
	.loc 1 593 5
	call	EF_Ctrl_Load_Efuse_R0
.LVL249:
	.loc 1 595 5 is_stmt 1
	.loc 1 595 11 is_stmt 0
	li	a5,1073770496
	lw	a0,0(a5)
.LVL250:
	.loc 1 597 5 is_stmt 1
	.loc 1 598 1 is_stmt 0
	lw	ra,12(sp)
	.cfi_restore 1
	.loc 1 597 57
	srli	a0,a0,12
.LVL251:
	.loc 1 598 1
	andi	a0,a0,1
	addi	sp,sp,16
	.cfi_def_cfa_offset 0
	jr	ra
	.cfi_endproc
.LFE23:
	.size	EF_Ctrl_Get_Trim_Enable, .-EF_Ctrl_Get_Trim_Enable
	.section	.text.EF_Ctrl_Read_Ana_Trim,"ax",@progbits
	.align	1
	.globl	EF_Ctrl_Read_Ana_Trim
	.type	EF_Ctrl_Read_Ana_Trim, @function
EF_Ctrl_Read_Ana_Trim:
.LFB26:
	.loc 1 660 1 is_stmt 1
	.cfi_startproc
.LVL252:
	.loc 1 662 5
	.loc 1 660 1 is_stmt 0
	addi	sp,sp,-16
	.cfi_def_cfa_offset 16
	sw	s1,4(sp)
	.cfi_offset 9, -12
	mv	s1,a0
	sw	ra,12(sp)
	sw	s0,8(sp)
	.cfi_offset 1, -4
	.cfi_offset 8, -8
	.loc 1 660 1
	mv	s0,a1
	.loc 1 662 5
	call	EF_Ctrl_Sw_AHB_Clk_0
.LVL253:
	.loc 1 664 5 is_stmt 1
	call	EF_Ctrl_Load_Efuse_R0
.LVL254:
	.loc 1 666 5
	.loc 1 666 7 is_stmt 0
	bne	s1,zero,.L184
	.loc 1 667 9 is_stmt 1
	.loc 1 667 16 is_stmt 0
	li	a5,1073770496
	lw	a5,12(a5)
	.loc 1 667 14
	sw	a5,0(s0)
.L184:
	.loc 1 669 1
	lw	ra,12(sp)
	.cfi_restore 1
	lw	s0,8(sp)
	.cfi_restore 8
.LVL255:
	lw	s1,4(sp)
	.cfi_restore 9
.LVL256:
	addi	sp,sp,16
	.cfi_def_cfa_offset 0
	jr	ra
	.cfi_endproc
.LFE26:
	.size	EF_Ctrl_Read_Ana_Trim, .-EF_Ctrl_Read_Ana_Trim
	.section	.sclock_rlt_code./mnt/d/GitHub/bl_iot_sdk_for_aithinker/components/platform/soc/bl602/bl602_std/bl602_std/StdDriver/Src/bl602_ef_ctrl.c681,"ax",@progbits
	.align	1
	.weak	EF_Ctrl_Read_RC32M_Trim
	.type	EF_Ctrl_Read_RC32M_Trim, @function
EF_Ctrl_Read_RC32M_Trim:
.LFB27:
	.loc 1 682 1 is_stmt 1
	.cfi_startproc
.LVL257:
	.loc 1 683 5
	.loc 1 685 5
	.loc 1 682 1 is_stmt 0
	addi	sp,sp,-16
	.cfi_def_cfa_offset 16
	sw	ra,12(sp)
	sw	s0,8(sp)
	.cfi_offset 1, -4
	.cfi_offset 8, -8
	.loc 1 682 1
	mv	s0,a0
	.loc 1 685 5
	call	EF_Ctrl_Sw_AHB_Clk_0
.LVL258:
	.loc 1 687 5 is_stmt 1
	call	EF_Ctrl_Load_Efuse_R0
.LVL259:
	.loc 1 689 5
	.loc 1 689 11 is_stmt 0
	li	a5,1073770496
	lw	a4,12(a5)
.LVL260:
	.loc 1 690 5 is_stmt 1
	.loc 1 693 1 is_stmt 0
	lw	ra,12(sp)
	.cfi_restore 1
	.loc 1 690 37
	srli	a5,a4,10
	.loc 1 690 29
	sb	a5,0(s0)
	.loc 1 691 5 is_stmt 1
	.loc 1 692 5
	.loc 1 691 35 is_stmt 0
	srli	a5,a4,18
	.loc 1 691 43
	srli	a4,a4,18
.LVL261:
	.loc 1 691 35
	andi	a4,a4,1
	andi	a5,a5,2
	or	a5,a5,a4
	lbu	a4,1(s0)
	andi	a4,a4,-4
	or	a5,a5,a4
	sb	a5,1(s0)
	.loc 1 693 1
	lw	s0,8(sp)
	.cfi_restore 8
.LVL262:
	addi	sp,sp,16
	.cfi_def_cfa_offset 0
	jr	ra
	.cfi_endproc
.LFE27:
	.size	EF_Ctrl_Read_RC32M_Trim, .-EF_Ctrl_Read_RC32M_Trim
	.section	.sclock_rlt_code./mnt/d/GitHub/bl_iot_sdk_for_aithinker/components/platform/soc/bl602/bl602_std/bl602_std/StdDriver/Src/bl602_ef_ctrl.c706,"ax",@progbits
	.align	1
	.weak	EF_Ctrl_Read_RC32K_Trim
	.type	EF_Ctrl_Read_RC32K_Trim, @function
EF_Ctrl_Read_RC32K_Trim:
.LFB28:
	.loc 1 707 1 is_stmt 1
	.cfi_startproc
.LVL263:
	.loc 1 708 5
	.loc 1 710 5
	.loc 1 707 1 is_stmt 0
	addi	sp,sp,-16
	.cfi_def_cfa_offset 16
	sw	ra,12(sp)
	sw	s0,8(sp)
	.cfi_offset 1, -4
	.cfi_offset 8, -8
	.loc 1 707 1
	mv	s0,a0
	.loc 1 710 5
	call	EF_Ctrl_Sw_AHB_Clk_0
.LVL264:
	.loc 1 712 5 is_stmt 1
	call	EF_Ctrl_Load_Efuse_R0
.LVL265:
	.loc 1 714 5
	.loc 1 714 11 is_stmt 0
	li	a5,1073770496
	lw	a4,12(a5)
.LVL266:
	.loc 1 715 5 is_stmt 1
	.loc 1 716 5
	.loc 1 717 5
	.loc 1 718 1 is_stmt 0
	lw	ra,12(sp)
	.cfi_restore 1
	.loc 1 715 29
	srli	a5,a4,20
	.loc 1 715 37
	srli	a3,a4,20
	.loc 1 715 29
	andi	a3,a3,1023
	andi	a5,a5,1024
	.loc 1 717 37
	srli	a4,a4,31
.LVL267:
	.loc 1 715 29
	or	a5,a5,a3
	slli	a4,a4,11
	or	a5,a5,a4
	lhu	a4,0(s0)
	li	a3,-4096
	and	a4,a4,a3
	or	a5,a5,a4
	sh	a5,0(s0)
	.loc 1 718 1
	lw	s0,8(sp)
	.cfi_restore 8
.LVL268:
	addi	sp,sp,16
	.cfi_def_cfa_offset 0
	jr	ra
	.cfi_endproc
.LFE28:
	.size	EF_Ctrl_Read_RC32K_Trim, .-EF_Ctrl_Read_RC32K_Trim
	.section	.sclock_rlt_code./mnt/d/GitHub/bl_iot_sdk_for_aithinker/components/platform/soc/bl602/bl602_std/bl602_std/StdDriver/Src/bl602_ef_ctrl.c729,"ax",@progbits
	.align	1
	.globl	EF_Ctrl_Read_TSEN_Trim
	.type	EF_Ctrl_Read_TSEN_Trim, @function
EF_Ctrl_Read_TSEN_Trim:
.LFB29:
	.loc 1 730 1 is_stmt 1
	.cfi_startproc
.LVL269:
	.loc 1 731 5
	.loc 1 733 5
	.loc 1 730 1 is_stmt 0
	addi	sp,sp,-16
	.cfi_def_cfa_offset 16
	sw	ra,12(sp)
	sw	s0,8(sp)
	.cfi_offset 1, -4
	.cfi_offset 8, -8
	.loc 1 730 1
	mv	s0,a0
	.loc 1 733 5
	call	EF_Ctrl_Sw_AHB_Clk_0
.LVL270:
	.loc 1 735 5 is_stmt 1
	call	EF_Ctrl_Load_Efuse_R0
.LVL271:
	.loc 1 737 5
	.loc 1 737 11 is_stmt 0
	li	a3,1073770496
	lw	a5,120(a3)
.LVL272:
	.loc 1 738 5 is_stmt 1
	.loc 1 738 30 is_stmt 0
	li	a2,-8192
	addi	a2,a2,-1
	andi	a5,a5,1
.LVL273:
	slli	a4,a5,13
	lw	a5,0(s0)
	.loc 1 747 1
	lw	ra,12(sp)
	.cfi_restore 1
	.loc 1 738 30
	and	a5,a5,a2
	or	a5,a5,a4
	sw	a5,0(s0)
	.loc 1 740 5 is_stmt 1
	.loc 1 740 11 is_stmt 0
	lw	a4,124(a3)
.LVL274:
	.loc 1 741 5 is_stmt 1
	.loc 1 742 5
	.loc 1 741 28 is_stmt 0
	li	a5,4096
	li	a2,-8192
	and	a5,a4,a5
	slli	a4,a4,20
.LVL275:
	srli	a4,a4,20
	or	a5,a5,a4
	lhu	a4,0(s0)
	and	a4,a4,a2
	or	a5,a5,a4
	sh	a5,0(s0)
	.loc 1 744 5 is_stmt 1
	.loc 1 744 11 is_stmt 0
	lw	a5,112(a3)
.LVL276:
	.loc 1 745 5 is_stmt 1
	.loc 1 745 35 is_stmt 0
	lw	a4,0(s0)
	li	a3,-16384
	.loc 1 745 44
	srli	a5,a5,30
.LVL277:
	.loc 1 745 35
	andi	a5,a5,1
	addi	a3,a3,-1
	slli	a5,a5,14
	and	a4,a4,a3
	or	a5,a4,a5
	sw	a5,0(s0)
	.loc 1 747 1
	lw	s0,8(sp)
	.cfi_restore 8
.LVL278:
	addi	sp,sp,16
	.cfi_def_cfa_offset 0
	jr	ra
	.cfi_endproc
.LFE29:
	.size	EF_Ctrl_Read_TSEN_Trim, .-EF_Ctrl_Read_TSEN_Trim
	.section	.sclock_rlt_code./mnt/d/GitHub/bl_iot_sdk_for_aithinker/components/platform/soc/bl602/bl602_std/bl602_std/StdDriver/Src/bl602_ef_ctrl.c758,"ax",@progbits
	.align	1
	.globl	EF_Ctrl_Read_ADC_Gain_Trim
	.type	EF_Ctrl_Read_ADC_Gain_Trim, @function
EF_Ctrl_Read_ADC_Gain_Trim:
.LFB30:
	.loc 1 759 1 is_stmt 1
	.cfi_startproc
.LVL279:
	.loc 1 760 5
	.loc 1 762 5
	.loc 1 759 1 is_stmt 0
	addi	sp,sp,-16
	.cfi_def_cfa_offset 16
	sw	ra,12(sp)
	sw	s0,8(sp)
	.cfi_offset 1, -4
	.cfi_offset 8, -8
	.loc 1 759 1
	mv	s0,a0
	.loc 1 762 5
	call	EF_Ctrl_Sw_AHB_Clk_0
.LVL280:
	.loc 1 764 5 is_stmt 1
	call	EF_Ctrl_Load_Efuse_R0
.LVL281:
	.loc 1 766 5
	.loc 1 766 11 is_stmt 0
	li	a5,1073770496
	lw	a4,120(a5)
.LVL282:
	.loc 1 767 5 is_stmt 1
	.loc 1 768 5
	.loc 1 769 5
	.loc 1 770 1 is_stmt 0
	lw	ra,12(sp)
	.cfi_restore 1
	.loc 1 768 42
	srli	a5,a4,13
	.loc 1 767 26
	slli	a3,a4,19
	andi	a5,a5,1
	.loc 1 769 38
	srli	a4,a4,14
.LVL283:
	.loc 1 767 26
	srli	a3,a3,20
	slli	a5,a5,12
	andi	a4,a4,1
	or	a5,a5,a3
	slli	a4,a4,13
	or	a5,a5,a4
	lhu	a4,0(s0)
	li	a3,-16384
	and	a4,a4,a3
	or	a5,a5,a4
	sh	a5,0(s0)
	.loc 1 770 1
	lw	s0,8(sp)
	.cfi_restore 8
.LVL284:
	addi	sp,sp,16
	.cfi_def_cfa_offset 0
	jr	ra
	.cfi_endproc
.LFE30:
	.size	EF_Ctrl_Read_ADC_Gain_Trim, .-EF_Ctrl_Read_ADC_Gain_Trim
	.section	.text.EF_Ctrl_Read_Sw_Usage,"ax",@progbits
	.align	1
	.globl	EF_Ctrl_Read_Sw_Usage
	.type	EF_Ctrl_Read_Sw_Usage, @function
EF_Ctrl_Read_Sw_Usage:
.LFB32:
	.loc 1 808 1 is_stmt 1
	.cfi_startproc
.LVL285:
	.loc 1 810 5
	.loc 1 808 1 is_stmt 0
	addi	sp,sp,-16
	.cfi_def_cfa_offset 16
	sw	s1,4(sp)
	.cfi_offset 9, -12
	mv	s1,a0
	sw	ra,12(sp)
	sw	s0,8(sp)
	.cfi_offset 1, -4
	.cfi_offset 8, -8
	.loc 1 808 1
	mv	s0,a1
	.loc 1 810 5
	call	EF_Ctrl_Sw_AHB_Clk_0
.LVL286:
	.loc 1 812 5 is_stmt 1
	call	EF_Ctrl_Load_Efuse_R0
.LVL287:
	.loc 1 814 5
	.loc 1 814 7 is_stmt 0
	bne	s1,zero,.L195
	.loc 1 815 9 is_stmt 1
	.loc 1 815 17 is_stmt 0
	li	a5,1073770496
	lw	a5,16(a5)
	.loc 1 815 15
	sw	a5,0(s0)
.L195:
	.loc 1 817 1
	lw	ra,12(sp)
	.cfi_restore 1
	lw	s0,8(sp)
	.cfi_restore 8
.LVL288:
	lw	s1,4(sp)
	.cfi_restore 9
.LVL289:
	addi	sp,sp,16
	.cfi_def_cfa_offset 0
	jr	ra
	.cfi_endproc
.LFE32:
	.size	EF_Ctrl_Read_Sw_Usage, .-EF_Ctrl_Read_Sw_Usage
	.section	.text.EF_Ctrl_Read_MAC_Address,"ax",@progbits
	.align	1
	.globl	EF_Ctrl_Read_MAC_Address
	.type	EF_Ctrl_Read_MAC_Address, @function
EF_Ctrl_Read_MAC_Address:
.LFB36:
	.loc 1 905 1 is_stmt 1
	.cfi_startproc
.LVL290:
	.loc 1 906 5
	.loc 1 907 5
	.loc 1 908 5
	.loc 1 909 5
	.loc 1 910 5
	.loc 1 913 5
	.loc 1 905 1 is_stmt 0
	addi	sp,sp,-32
	.cfi_def_cfa_offset 32
	sw	s0,24(sp)
	sw	s1,20(sp)
	.cfi_offset 8, -8
	.cfi_offset 9, -12
	mv	s0,a0
	sw	s2,16(sp)
	sw	s3,12(sp)
	sw	s4,8(sp)
	sw	ra,28(sp)
	.cfi_offset 18, -16
	.cfi_offset 19, -20
	.cfi_offset 20, -24
	.cfi_offset 1, -4
	.loc 1 913 5
	call	EF_Ctrl_Load_Efuse_R0
.LVL291:
	.loc 1 915 5 is_stmt 1
	.loc 1 915 11 is_stmt 0
	li	a4,1073770496
	lw	a5,20(a4)
.LVL292:
	.loc 1 916 6 is_stmt 1
	.loc 1 910 14 is_stmt 0
	li	s3,0
	.loc 1 923 10
	li	s2,0
	.loc 1 916 45
	srli	a3,a5,8
	.loc 1 916 15
	sb	a5,0(s0)
	.loc 1 916 28 is_stmt 1
	.loc 1 916 37 is_stmt 0
	sb	a3,1(s0)
	.loc 1 916 55 is_stmt 1
	.loc 1 916 72 is_stmt 0
	srli	a3,a5,16
	.loc 1 916 100
	srli	a5,a5,24
.LVL293:
	.loc 1 916 92
	sb	a5,3(s0)
	.loc 1 916 64
	sb	a3,2(s0)
	.loc 1 916 83 is_stmt 1
	.loc 1 916 112
	.loc 1 918 5
	.loc 1 918 11 is_stmt 0
	lw	s1,24(a4)
.LVL294:
	.loc 1 919 5 is_stmt 1
	.loc 1 923 5 is_stmt 0
	li	s4,6
	.loc 1 920 23
	srli	a5,s1,8
	.loc 1 919 15
	sb	s1,4(s0)
	.loc 1 920 5 is_stmt 1
	.loc 1 920 15 is_stmt 0
	sb	a5,5(s0)
	.loc 1 923 5 is_stmt 1
	.loc 1 923 13
.LVL295:
.L199:
	.loc 1 924 9 discriminator 3
	.loc 1 924 14 is_stmt 0 discriminator 3
	add	a5,s0,s2
	lbu	a0,0(a5)
	.loc 1 923 18 discriminator 3
	addi	s2,s2,1
.LVL296:
	.loc 1 924 14 discriminator 3
	call	EF_Ctrl_Get_Byte_Zero_Cnt
.LVL297:
	.loc 1 924 12 discriminator 3
	add	s3,s3,a0
.LVL298:
	.loc 1 923 17 is_stmt 1 discriminator 3
	.loc 1 923 13 discriminator 3
	.loc 1 923 5 is_stmt 0 discriminator 3
	bne	s2,s4,.L199
	.loc 1 926 5 is_stmt 1
	.loc 1 926 28 is_stmt 0
	srli	a0,s1,16
	.loc 1 926 18
	xor	a0,a0,s3
	andi	a0,a0,63
	.loc 1 926 7
	bne	a0,zero,.L202
	addi	a5,s0,5
	addi	a4,s0,2
.LVL299:
.L201:
	.loc 1 929 13 is_stmt 1 discriminator 3
	.loc 1 930 23 is_stmt 0 discriminator 3
	lbu	a2,0(a5)
	.loc 1 929 23 discriminator 3
	lbu	a3,0(s0)
.LVL300:
	.loc 1 930 13 is_stmt 1 discriminator 3
	.loc 1 928 9 is_stmt 0 discriminator 3
	addi	a5,a5,-1
	.loc 1 930 19 discriminator 3
	sb	a2,0(s0)
	.loc 1 931 13 is_stmt 1 discriminator 3
	.loc 1 931 21 is_stmt 0 discriminator 3
	sb	a3,1(a5)
	.loc 1 928 21 is_stmt 1 discriminator 3
.LVL301:
	.loc 1 928 17 discriminator 3
	.loc 1 928 9 is_stmt 0 discriminator 3
	addi	s0,s0,1
.LVL302:
	bne	a5,a4,.L201
.LVL303:
.L198:
	.loc 1 937 1
	lw	ra,28(sp)
	.cfi_remember_state
	.cfi_restore 1
	lw	s0,24(sp)
	.cfi_restore 8
	lw	s1,20(sp)
	.cfi_restore 9
	lw	s2,16(sp)
	.cfi_restore 18
	lw	s3,12(sp)
	.cfi_restore 19
.LVL304:
	lw	s4,8(sp)
	.cfi_restore 20
	addi	sp,sp,32
	.cfi_def_cfa_offset 0
	jr	ra
.LVL305:
.L202:
	.cfi_restore_state
	.loc 1 935 16
	li	a0,1
	j	.L198
	.cfi_endproc
.LFE36:
	.size	EF_Ctrl_Read_MAC_Address, .-EF_Ctrl_Read_MAC_Address
	.section	.text.EF_Ctrl_Read_Chip_ID,"ax",@progbits
	.align	1
	.globl	EF_Ctrl_Read_Chip_ID
	.type	EF_Ctrl_Read_Chip_ID, @function
EF_Ctrl_Read_Chip_ID:
.LFB43:
	.loc 1 1213 1 is_stmt 1
	.cfi_startproc
.LVL306:
	.loc 1 1214 5
	.loc 1 1214 14 is_stmt 0
	sb	zero,6(a0)
	.loc 1 1215 5 is_stmt 1
	.loc 1 1215 14 is_stmt 0
	sb	zero,7(a0)
	.loc 1 1216 5 is_stmt 1
	.loc 1 1216 12 is_stmt 0
	tail	EF_Ctrl_Read_MAC_Address
.LVL307:
	.cfi_endproc
.LFE43:
	.size	EF_Ctrl_Read_Chip_ID, .-EF_Ctrl_Read_Chip_ID
	.section	.text.EF_Ctrl_Read_MAC_Address_Raw,"ax",@progbits
	.align	1
	.globl	EF_Ctrl_Read_MAC_Address_Raw
	.type	EF_Ctrl_Read_MAC_Address_Raw, @function
EF_Ctrl_Read_MAC_Address_Raw:
.LFB37:
	.loc 1 948 1 is_stmt 1
	.cfi_startproc
.LVL308:
	.loc 1 949 5
	.loc 1 948 1 is_stmt 0
	addi	sp,sp,-16
	.cfi_def_cfa_offset 16
	sw	s0,8(sp)
	sw	ra,12(sp)
	.cfi_offset 8, -8
	.cfi_offset 1, -4
	.loc 1 948 1
	mv	s0,a0
.LVL309:
	.loc 1 950 5 is_stmt 1
	.loc 1 951 5
	.loc 1 954 5
	call	EF_Ctrl_Load_Efuse_R0
.LVL310:
	.loc 1 956 5
	.loc 1 956 11 is_stmt 0
	li	a4,1073770496
	lw	a5,20(a4)
.LVL311:
	.loc 1 957 6 is_stmt 1
	.loc 1 965 1 is_stmt 0
	lw	ra,12(sp)
	.cfi_restore 1
	li	a0,0
	.loc 1 957 45
	srli	a3,a5,8
	.loc 1 957 15
	sb	a5,0(s0)
	.loc 1 957 28 is_stmt 1
	.loc 1 957 37 is_stmt 0
	sb	a3,1(s0)
	.loc 1 957 55 is_stmt 1
	.loc 1 957 72 is_stmt 0
	srli	a3,a5,16
	.loc 1 957 100
	srli	a5,a5,24
.LVL312:
	.loc 1 957 64
	sb	a3,2(s0)
	.loc 1 957 83 is_stmt 1
	.loc 1 957 92 is_stmt 0
	sb	a5,3(s0)
	.loc 1 957 112 is_stmt 1
	.loc 1 959 5
	.loc 1 959 11 is_stmt 0
	lw	a5,24(a4)
.LVL313:
	.loc 1 960 5 is_stmt 1
	.loc 1 960 15 is_stmt 0
	sb	a5,4(s0)
	.loc 1 961 5 is_stmt 1
	.loc 1 961 23 is_stmt 0
	srli	a4,a5,8
	.loc 1 962 23
	srli	a5,a5,16
.LVL314:
	.loc 1 961 15
	sb	a4,5(s0)
	.loc 1 962 5 is_stmt 1
	.loc 1 962 15 is_stmt 0
	sb	a5,6(s0)
	.loc 1 964 5 is_stmt 1
	.loc 1 965 1 is_stmt 0
	lw	s0,8(sp)
	.cfi_restore 8
.LVL315:
	addi	sp,sp,16
	.cfi_def_cfa_offset 0
	jr	ra
	.cfi_endproc
.LFE37:
	.size	EF_Ctrl_Read_MAC_Address_Raw, .-EF_Ctrl_Read_MAC_Address_Raw
	.section	.text.EF_Ctrl_Is_MAC_Address_Slot_Empty,"ax",@progbits
	.align	1
	.globl	EF_Ctrl_Is_MAC_Address_Slot_Empty
	.type	EF_Ctrl_Is_MAC_Address_Slot_Empty, @function
EF_Ctrl_Is_MAC_Address_Slot_Empty:
.LFB40:
	.loc 1 1029 1 is_stmt 1
	.cfi_startproc
.LVL316:
	.loc 1 1030 5
	.loc 1 1031 5
	.loc 1 1033 5
	.loc 1 1029 1 is_stmt 0
	addi	sp,sp,-16
	.cfi_def_cfa_offset 16
	sw	s0,8(sp)
	sw	ra,12(sp)
	.cfi_offset 8, -8
	.cfi_offset 1, -4
	.loc 1 1029 1
	mv	s0,a1
	.loc 1 1033 7
	bne	a0,zero,.L210
	.loc 1 1035 9 is_stmt 1
	call	EF_Ctrl_Sw_AHB_Clk_0
.LVL317:
	.loc 1 1037 9
	.loc 1 1037 11 is_stmt 0
	beq	s0,zero,.L211
	.loc 1 1038 13 is_stmt 1
	call	EF_Ctrl_Load_Efuse_R0
.LVL318:
.L211:
	.loc 1 1040 9
	.loc 1 1040 13 is_stmt 0
	li	a5,1073770496
	lw	a4,20(a5)
.LVL319:
	.loc 1 1041 9 is_stmt 1
	.loc 1 1041 13 is_stmt 0
	lw	a5,24(a5)
.LVL320:
.L212:
	.loc 1 1062 5 is_stmt 1
	.loc 1 1003 5
	.loc 1 1005 5
	.loc 1 1006 5
	.loc 1 1012 5
	.loc 1 1063 5
.LBB22:
.LBB23:
	.loc 1 1003 5
	.loc 1 1005 5
	.loc 1 1006 5
	.loc 1 1009 9
	.loc 1 1012 5
	.loc 1 1012 12 is_stmt 0
	slli	a5,a5,10
.LVL321:
	srli	a5,a5,10
	.loc 1 1012 7
	or	a5,a5,a4
.LBE23:
.LBE22:
	.loc 1 1065 23
	li	a0,1
.LBB25:
.LBB24:
	.loc 1 1012 7
	beq	a5,zero,.L217
.LVL322:
.L215:
.LBE24:
.LBE25:
	.loc 1 1065 23 discriminator 4
	li	a0,0
.L217:
	.loc 1 1066 1 discriminator 6
	lw	ra,12(sp)
	.cfi_remember_state
	.cfi_restore 1
	lw	s0,8(sp)
	.cfi_restore 8
	addi	sp,sp,16
	.cfi_def_cfa_offset 0
	jr	ra
.LVL323:
.L210:
	.cfi_restore_state
	.loc 1 1042 11 is_stmt 1
	.loc 1 1042 13 is_stmt 0
	li	a5,1
	bne	a0,a5,.L213
	.loc 1 1044 9 is_stmt 1
	call	EF_Ctrl_Sw_AHB_Clk_0
.LVL324:
	.loc 1 1046 9
	.loc 1 1046 11 is_stmt 0
	beq	s0,zero,.L214
	.loc 1 1047 13 is_stmt 1
	call	EF_Ctrl_Load_Efuse_R0
.LVL325:
.L214:
	.loc 1 1049 9
	.loc 1 1049 13 is_stmt 0
	li	a5,1073770496
	lw	a4,108(a5)
.LVL326:
	.loc 1 1050 9 is_stmt 1
	.loc 1 1050 13 is_stmt 0
	lw	a5,112(a5)
.LVL327:
	j	.L212
.LVL328:
.L213:
	.loc 1 1051 11 is_stmt 1
	.loc 1 1051 13 is_stmt 0
	li	a5,2
	bne	a0,a5,.L215
	.loc 1 1053 9 is_stmt 1
	call	EF_Ctrl_Sw_AHB_Clk_0
.LVL329:
	.loc 1 1055 9
	.loc 1 1055 11 is_stmt 0
	beq	s0,zero,.L216
	.loc 1 1056 13 is_stmt 1
	call	EF_Ctrl_Load_Efuse_R0
.LVL330:
.L216:
	.loc 1 1058 9
	.loc 1 1058 13 is_stmt 0
	li	a5,1073770496
	lw	a4,4(a5)
.LVL331:
	.loc 1 1059 9 is_stmt 1
	.loc 1 1059 13 is_stmt 0
	lw	a5,8(a5)
.LVL332:
	j	.L212
	.cfi_endproc
.LFE40:
	.size	EF_Ctrl_Is_MAC_Address_Slot_Empty, .-EF_Ctrl_Is_MAC_Address_Slot_Empty
	.section	.text.EF_Ctrl_Read_MAC_Address_Opt,"ax",@progbits
	.align	1
	.globl	EF_Ctrl_Read_MAC_Address_Opt
	.type	EF_Ctrl_Read_MAC_Address_Opt, @function
EF_Ctrl_Read_MAC_Address_Opt:
.LFB42:
	.loc 1 1148 1 is_stmt 1
	.cfi_startproc
.LVL333:
	.loc 1 1149 5
	.loc 1 1150 5
	.loc 1 1151 5
	.loc 1 1152 5
	.loc 1 1153 5
	.loc 1 1155 5
	.loc 1 1155 7 is_stmt 0
	li	a5,2
	bgtu	a0,a5,.L249
	.loc 1 1148 1
	addi	sp,sp,-32
	.cfi_def_cfa_offset 32
	sw	s0,24(sp)
	sw	s1,20(sp)
	sw	ra,28(sp)
	sw	s2,16(sp)
	sw	s3,12(sp)
	sw	s4,8(sp)
	.cfi_offset 8, -8
	.cfi_offset 9, -12
	.cfi_offset 1, -4
	.cfi_offset 18, -16
	.cfi_offset 19, -20
	.cfi_offset 20, -24
	mv	s1,a0
	mv	s0,a1
	.loc 1 1160 5 is_stmt 1
	.loc 1 1160 7 is_stmt 0
	beq	a2,zero,.L232
	.loc 1 1161 9 is_stmt 1
	.loc 1 1161 11 is_stmt 0
	bne	a0,a5,.L233
	.loc 1 1162 13 is_stmt 1
	call	EF_Ctrl_Load_Efuse_R0
.LVL334:
	.loc 1 1168 5
.L234:
	.loc 1 1172 11
	.loc 1 1173 9
	.loc 1 1173 15 is_stmt 0
	li	a5,1073770496
	lw	a5,4(a5)
.LVL335:
	j	.L236
.LVL336:
.L233:
	.loc 1 1164 13 is_stmt 1
	call	EF_Ctrl_Load_Efuse_R0
.LVL337:
.L232:
	.loc 1 1168 5
	.loc 1 1168 7 is_stmt 0
	bne	s1,zero,.L235
	.loc 1 1169 9 is_stmt 1
	.loc 1 1169 15 is_stmt 0
	li	a5,1073770496
	lw	a5,20(a5)
.LVL338:
.L236:
	.loc 1 1175 6 is_stmt 1
	.loc 1 1175 45 is_stmt 0
	srli	a4,a5,8
	.loc 1 1175 15
	sb	a5,0(s0)
	.loc 1 1175 28 is_stmt 1
	.loc 1 1175 37 is_stmt 0
	sb	a4,1(s0)
	.loc 1 1175 55 is_stmt 1
	.loc 1 1175 72 is_stmt 0
	srli	a4,a5,16
	.loc 1 1175 100
	srli	a5,a5,24
	.loc 1 1175 64
	sb	a4,2(s0)
	.loc 1 1175 83 is_stmt 1
	.loc 1 1175 92 is_stmt 0
	sb	a5,3(s0)
	.loc 1 1175 112 is_stmt 1
	.loc 1 1177 5
	.loc 1 1177 7 is_stmt 0
	bne	s1,zero,.L237
	.loc 1 1178 9 is_stmt 1
	.loc 1 1178 15 is_stmt 0
	li	a5,1073770496
	lw	s1,24(a5)
.LVL339:
.L238:
	.loc 1 1184 5 is_stmt 1
	.loc 1 1185 23 is_stmt 0
	srli	a5,s1,8
	.loc 1 1184 15
	sb	s1,4(s0)
	.loc 1 1185 5 is_stmt 1
	.loc 1 1185 15 is_stmt 0
	sb	a5,5(s0)
	.loc 1 1188 5 is_stmt 1
	.loc 1 1188 13
	.loc 1 1153 14 is_stmt 0
	li	s3,0
	.loc 1 1188 10
	li	s2,0
	.loc 1 1188 5
	li	s4,6
.LVL340:
.L240:
	.loc 1 1189 9 is_stmt 1 discriminator 3
	.loc 1 1189 14 is_stmt 0 discriminator 3
	add	a5,s0,s2
	lbu	a0,0(a5)
	.loc 1 1188 18 discriminator 3
	addi	s2,s2,1
.LVL341:
	.loc 1 1189 14 discriminator 3
	call	EF_Ctrl_Get_Byte_Zero_Cnt
.LVL342:
	.loc 1 1189 12 discriminator 3
	add	s3,s3,a0
.LVL343:
	.loc 1 1188 17 is_stmt 1 discriminator 3
	.loc 1 1188 13 discriminator 3
	.loc 1 1188 5 is_stmt 0 discriminator 3
	bne	s2,s4,.L240
	.loc 1 1191 5 is_stmt 1
	.loc 1 1191 28 is_stmt 0
	srli	a0,s1,16
	.loc 1 1191 18
	xor	a0,a0,s3
	andi	a0,a0,63
	.loc 1 1191 7
	bne	a0,zero,.L231
	addi	a5,s0,5
	addi	a4,s0,2
.LVL344:
.L241:
	.loc 1 1194 13 is_stmt 1 discriminator 3
	.loc 1 1195 23 is_stmt 0 discriminator 3
	lbu	a2,0(a5)
	.loc 1 1194 23 discriminator 3
	lbu	a3,0(s0)
.LVL345:
	.loc 1 1195 13 is_stmt 1 discriminator 3
	.loc 1 1193 9 is_stmt 0 discriminator 3
	addi	a5,a5,-1
	.loc 1 1195 19 discriminator 3
	sb	a2,0(s0)
	.loc 1 1196 13 is_stmt 1 discriminator 3
	.loc 1 1196 21 is_stmt 0 discriminator 3
	sb	a3,1(a5)
	.loc 1 1193 21 is_stmt 1 discriminator 3
.LVL346:
	.loc 1 1193 17 discriminator 3
	.loc 1 1193 9 is_stmt 0 discriminator 3
	addi	s0,s0,1
.LVL347:
	bne	a4,a5,.L241
.LVL348:
.L230:
	.loc 1 1202 1
	lw	ra,28(sp)
	.cfi_remember_state
	.cfi_restore 1
	lw	s0,24(sp)
	.cfi_restore 8
	lw	s1,20(sp)
	.cfi_restore 9
	lw	s2,16(sp)
	.cfi_restore 18
	lw	s3,12(sp)
	.cfi_restore 19
.LVL349:
	lw	s4,8(sp)
	.cfi_restore 20
	addi	sp,sp,32
	.cfi_def_cfa_offset 0
	jr	ra
.LVL350:
.L235:
	.cfi_restore_state
	.loc 1 1170 11 is_stmt 1
	.loc 1 1170 13 is_stmt 0
	li	a5,1
	bne	s1,a5,.L234
	.loc 1 1171 9 is_stmt 1
	.loc 1 1171 15 is_stmt 0
	li	a5,1073770496
	lw	a5,108(a5)
.LVL351:
	j	.L236
.L237:
	.loc 1 1179 11 is_stmt 1
	.loc 1 1179 13 is_stmt 0
	li	a5,1
	bne	s1,a5,.L239
	.loc 1 1180 9 is_stmt 1
	.loc 1 1180 15 is_stmt 0
	li	a5,1073770496
	lw	s1,112(a5)
.LVL352:
	j	.L238
.LVL353:
.L239:
	.loc 1 1181 11 is_stmt 1
	.loc 1 1182 9
	.loc 1 1182 15 is_stmt 0
	li	a5,1073770496
	lw	s1,8(a5)
.LVL354:
	j	.L238
.LVL355:
.L231:
	.loc 1 1156 16
	li	a0,1
	j	.L230
.LVL356:
.L249:
	.cfi_def_cfa_offset 0
	.cfi_restore 1
	.cfi_restore 8
	.cfi_restore 9
	.cfi_restore 18
	.cfi_restore 19
	.cfi_restore 20
	li	a0,1
.LVL357:
	.loc 1 1202 1
	ret
	.cfi_endproc
.LFE42:
	.size	EF_Ctrl_Read_MAC_Address_Opt, .-EF_Ctrl_Read_MAC_Address_Opt
	.section	.text.EF_Ctrl_Read_Device_Info,"ax",@progbits
	.align	1
	.globl	EF_Ctrl_Read_Device_Info
	.type	EF_Ctrl_Read_Device_Info, @function
EF_Ctrl_Read_Device_Info:
.LFB44:
	.loc 1 1228 1 is_stmt 1
	.cfi_startproc
.LVL358:
	.loc 1 1229 5
	.loc 1 1230 5
	.loc 1 1228 1 is_stmt 0
	addi	sp,sp,-16
	.cfi_def_cfa_offset 16
	sw	s0,8(sp)
	sw	ra,12(sp)
	.cfi_offset 8, -8
	.cfi_offset 1, -4
	.loc 1 1228 1
	mv	s0,a0
.LVL359:
	.loc 1 1233 5 is_stmt 1
	call	EF_Ctrl_Load_Efuse_R0
.LVL360:
	.loc 1 1235 5
	.loc 1 1235 11 is_stmt 0
	li	a5,1073770496
	lw	a5,24(a5)
.LVL361:
	.loc 1 1236 5 is_stmt 1
	.loc 1 1237 1 is_stmt 0
	lw	ra,12(sp)
	.cfi_restore 1
	.loc 1 1236 7
	sw	a5,0(s0)
	.loc 1 1237 1
	lw	s0,8(sp)
	.cfi_restore 8
.LVL362:
	addi	sp,sp,16
	.cfi_def_cfa_offset 0
	jr	ra
	.cfi_endproc
.LFE44:
	.size	EF_Ctrl_Read_Device_Info, .-EF_Ctrl_Read_Device_Info
	.section	.text.EF_Ctrl_Is_CapCode_Slot_Empty,"ax",@progbits
	.align	1
	.globl	EF_Ctrl_Is_CapCode_Slot_Empty
	.type	EF_Ctrl_Is_CapCode_Slot_Empty, @function
EF_Ctrl_Is_CapCode_Slot_Empty:
.LFB45:
	.loc 1 1249 1 is_stmt 1
	.cfi_startproc
.LVL363:
	.loc 1 1250 5
	.loc 1 1253 5
	.loc 1 1249 1 is_stmt 0
	addi	sp,sp,-16
	.cfi_def_cfa_offset 16
	sw	s1,4(sp)
	.cfi_offset 9, -12
	mv	s1,a1
	sw	s0,8(sp)
	sw	ra,12(sp)
	.cfi_offset 8, -8
	.cfi_offset 1, -4
	.loc 1 1249 1
	mv	s0,a0
	.loc 1 1253 5
	call	EF_Ctrl_Sw_AHB_Clk_0
.LVL364:
	.loc 1 1255 5 is_stmt 1
	.loc 1 1255 7 is_stmt 0
	beq	s1,zero,.L256
	.loc 1 1256 9 is_stmt 1
	call	EF_Ctrl_Load_Efuse_R0
.LVL365:
.L256:
	.loc 1 1259 5
	.loc 1 1259 7 is_stmt 0
	bne	s0,zero,.L257
	.loc 1 1260 9 is_stmt 1
	.loc 1 1260 12 is_stmt 0
	li	a5,1073770496
	lw	a0,12(a5)
.LVL366:
	.loc 1 1261 9 is_stmt 1
.LBB26:
.LBB27:
	.loc 1 1003 5
	.loc 1 1005 5
	.loc 1 1006 5
	.loc 1 1009 9
	.loc 1 1012 5
	.loc 1 1005 8 is_stmt 0
	srli	a0,a0,2
.LVL367:
.L265:
.LBE27:
.LBE26:
.LBB29:
.LBB30:
	.loc 1 1012 12
	andi	a0,a0,255
.LBE30:
.LBE29:
.LBB32:
.LBB28:
	.loc 1 1015 16
	seqz	a0,a0
.L258:
.LBE28:
.LBE32:
	.loc 1 1271 1
	lw	ra,12(sp)
	.cfi_remember_state
	.cfi_restore 1
	lw	s0,8(sp)
	.cfi_restore 8
	lw	s1,4(sp)
	.cfi_restore 9
	addi	sp,sp,16
	.cfi_def_cfa_offset 0
	jr	ra
.LVL368:
.L257:
	.cfi_restore_state
	.loc 1 1262 11 is_stmt 1
	.loc 1 1262 13 is_stmt 0
	li	a5,1
	bne	s0,a5,.L259
	.loc 1 1263 9 is_stmt 1
	.loc 1 1263 12 is_stmt 0
	li	a5,1073770496
	lw	a0,112(a5)
.LVL369:
	.loc 1 1264 9 is_stmt 1
.LBB33:
.LBB34:
	.loc 1 1003 5
	.loc 1 1005 5
	.loc 1 1006 5
	.loc 1 1009 9
	.loc 1 1012 5
.L266:
.LBE34:
.LBE33:
	.loc 1 1267 9
.LBB35:
.LBB31:
	.loc 1 1003 5
	.loc 1 1005 5
	.loc 1 1006 5
	.loc 1 1009 9
	.loc 1 1012 5
	.loc 1 1005 8 is_stmt 0
	srli	a0,a0,22
.LVL370:
	j	.L265
.LVL371:
.L259:
.LBE31:
.LBE35:
	.loc 1 1265 11 is_stmt 1
	.loc 1 1265 13 is_stmt 0
	li	a5,2
	.loc 1 1270 12
	li	a0,0
	.loc 1 1265 13
	bne	s0,a5,.L258
	.loc 1 1266 9 is_stmt 1
	.loc 1 1266 12 is_stmt 0
	li	a5,1073770496
	lw	a0,8(a5)
.LVL372:
	j	.L266
	.cfi_endproc
.LFE45:
	.size	EF_Ctrl_Is_CapCode_Slot_Empty, .-EF_Ctrl_Is_CapCode_Slot_Empty
	.section	.text.EF_Ctrl_Write_CapCode_Opt,"ax",@progbits
	.align	1
	.globl	EF_Ctrl_Write_CapCode_Opt
	.type	EF_Ctrl_Write_CapCode_Opt, @function
EF_Ctrl_Write_CapCode_Opt:
.LFB46:
	.loc 1 1284 1 is_stmt 1
	.cfi_startproc
.LVL373:
	.loc 1 1285 5
	.loc 1 1286 5
	.loc 1 1288 5
	.loc 1 1288 7 is_stmt 0
	li	a5,2
	bgtu	a0,a5,.L277
	.loc 1 1284 1
	addi	sp,sp,-32
	.cfi_def_cfa_offset 32
	sw	s0,24(sp)
	.cfi_offset 8, -8
	mv	s0,a0
	sw	ra,28(sp)
	sw	s2,16(sp)
	sw	s3,12(sp)
	sw	s1,20(sp)
	.cfi_offset 1, -4
	.cfi_offset 18, -16
	.cfi_offset 19, -20
	.cfi_offset 9, -12
	mv	s3,a1
	mv	s2,a2
	.loc 1 1293 5 is_stmt 1
	call	EF_Ctrl_Sw_AHB_Clk_0
.LVL374:
	.loc 1 1294 5
	call	EF_Ctrl_Load_Efuse_R0
.LVL375:
	.loc 1 1296 5
	.loc 1 1296 7 is_stmt 0
	bne	s0,zero,.L269
	.loc 1 1297 9 is_stmt 1
	.loc 1 1297 12 is_stmt 0
	li	a5,1073770496
	lw	s1,12(a5)
.LVL376:
.L270:
	.loc 1 1304 5 is_stmt 1
	.loc 1 1305 5
	.loc 1 1305 13 is_stmt 0
	li	a1,6
	mv	a0,s3
	call	EF_Ctrl_Get_Trim_Parity
.LVL377:
	.loc 1 1305 45
	slli	a5,a0,6
	.loc 1 1305 9
	or	a5,a5,s3
.LVL378:
	.loc 1 1306 5 is_stmt 1
	.loc 1 1308 5
	.loc 1 1306 9 is_stmt 0
	ori	a5,a5,-128
.LVL379:
	.loc 1 1309 74
	andi	a5,a5,0xff
	.loc 1 1308 7
	bne	s0,zero,.L272
	.loc 1 1309 9 is_stmt 1
	.loc 1 1309 74 is_stmt 0
	slli	a5,a5,2
	.loc 1 1309 68
	or	a5,a5,s1
	.loc 1 1309 63
	li	a4,1073770496
	sw	a5,12(a4)
.L273:
	.loc 1 1316 5 is_stmt 1
	.loc 1 1316 7 is_stmt 0
	beq	s2,zero,.L275
	.loc 1 1317 9 is_stmt 1
	call	EF_Ctrl_Program_Efuse_0
.LVL380:
.L275:
	.loc 1 1319 10 is_stmt 0 discriminator 1
	li	s0,1
.L276:
	.loc 1 1319 31 is_stmt 1 discriminator 1
	.loc 1 1319 10 discriminator 1
	.loc 1 1319 16 is_stmt 0 discriminator 1
	call	EF_Ctrl_Busy
.LVL381:
	.loc 1 1319 10 discriminator 1
	beq	a0,s0,.L276
	.loc 1 1322 1
	lw	ra,28(sp)
	.cfi_remember_state
	.cfi_restore 1
	lw	s0,24(sp)
	.cfi_restore 8
	lw	s1,20(sp)
	.cfi_restore 9
	lw	s2,16(sp)
	.cfi_restore 18
	lw	s3,12(sp)
	.cfi_restore 19
	.loc 1 1321 12
	li	a0,0
	.loc 1 1322 1
	addi	sp,sp,32
	.cfi_def_cfa_offset 0
	jr	ra
.L269:
	.cfi_restore_state
	.loc 1 1298 11 is_stmt 1
	.loc 1 1298 13 is_stmt 0
	li	a5,1
	bne	s0,a5,.L271
	.loc 1 1299 9 is_stmt 1
	.loc 1 1299 12 is_stmt 0
	li	a5,1073770496
	lw	s1,112(a5)
	j	.L270
.L271:
	.loc 1 1300 11 is_stmt 1
	.loc 1 1301 9
	.loc 1 1301 12 is_stmt 0
	li	a5,1073770496
	lw	s1,8(a5)
	j	.L270
.LVL382:
.L272:
	.loc 1 1310 11 is_stmt 1
	.loc 1 1311 75 is_stmt 0
	slli	a5,a5,22
	.loc 1 1310 13
	li	a4,1
	.loc 1 1311 69
	or	a5,a5,s1
	.loc 1 1310 13
	bne	s0,a4,.L274
	.loc 1 1311 9 is_stmt 1
	.loc 1 1311 64 is_stmt 0
	li	a4,1073770496
	sw	a5,112(a4)
	j	.L273
.L274:
	.loc 1 1312 11 is_stmt 1
	.loc 1 1313 9
	.loc 1 1313 63 is_stmt 0
	li	a4,1073770496
	sw	a5,8(a4)
	j	.L273
.LVL383:
.L277:
	.cfi_def_cfa_offset 0
	.cfi_restore 1
	.cfi_restore 8
	.cfi_restore 9
	.cfi_restore 18
	.cfi_restore 19
	.loc 1 1289 16
	li	a0,1
.LVL384:
	.loc 1 1322 1
	ret
	.cfi_endproc
.LFE46:
	.size	EF_Ctrl_Write_CapCode_Opt, .-EF_Ctrl_Write_CapCode_Opt
	.section	.text.EF_Ctrl_Read_CapCode_Opt,"ax",@progbits
	.align	1
	.globl	EF_Ctrl_Read_CapCode_Opt
	.type	EF_Ctrl_Read_CapCode_Opt, @function
EF_Ctrl_Read_CapCode_Opt:
.LFB47:
	.loc 1 1335 1 is_stmt 1
	.cfi_startproc
.LVL385:
	.loc 1 1336 5
	.loc 1 1337 5
	.loc 1 1339 5
	.loc 1 1339 7 is_stmt 0
	li	a5,2
	bleu	a0,a5,.L287
	.loc 1 1340 16
	li	a0,1
.LVL386:
	.loc 1 1365 1
	ret
.LVL387:
.L293:
	.cfi_def_cfa_offset 32
	.cfi_offset 1, -4
	.cfi_offset 8, -8
	.cfi_offset 9, -12
	.cfi_offset 18, -16
	.loc 1 1340 16
	li	a0,1
.L286:
	.loc 1 1365 1
	lw	ra,28(sp)
	.cfi_restore 1
	lw	s0,24(sp)
	.cfi_restore 8
	lw	s1,20(sp)
	.cfi_restore 9
.LVL388:
	lw	s2,16(sp)
	.cfi_restore 18
	addi	sp,sp,32
	.cfi_def_cfa_offset 0
.LVL389:
	jr	ra
.LVL390:
.L287:
	.loc 1 1335 1
	addi	sp,sp,-32
	.cfi_def_cfa_offset 32
	sw	s2,16(sp)
	.cfi_offset 18, -16
	mv	s2,a2
	.loc 1 1344 5 is_stmt 1
	.loc 1 1335 1 is_stmt 0
	sw	s0,24(sp)
	sw	s1,20(sp)
	sw	ra,28(sp)
	.cfi_offset 8, -8
	.cfi_offset 9, -12
	.cfi_offset 1, -4
	mv	s0,a0
	mv	s1,a1
	.loc 1 1344 5
	call	EF_Ctrl_Sw_AHB_Clk_0
.LVL391:
	.loc 1 1346 5 is_stmt 1
	.loc 1 1346 7 is_stmt 0
	beq	s2,zero,.L289
	.loc 1 1347 9 is_stmt 1
	call	EF_Ctrl_Load_Efuse_R0
.LVL392:
.L289:
	.loc 1 1350 5
	.loc 1 1350 7 is_stmt 0
	bne	s0,zero,.L290
	.loc 1 1351 9 is_stmt 1
	.loc 1 1351 15 is_stmt 0
	li	a5,1073770496
	lw	a5,12(a5)
	.loc 1 1351 70
	srli	a5,a5,2
.L303:
	.loc 1 1355 12
	sw	a5,12(sp)
	.loc 1 1358 5 is_stmt 1
	.loc 1 1358 8 is_stmt 0
	lw	a0,12(sp)
	andi	a5,a0,128
	.loc 1 1358 7
	beq	a5,zero,.L293
	.loc 1 1359 9 is_stmt 1
	.loc 1 1359 54 is_stmt 0
	andi	s0,a0,63
	.loc 1 1359 16
	srli	s2,a0,6
	.loc 1 1359 26
	li	a1,6
	mv	a0,s0
	.loc 1 1359 16
	andi	s2,s2,1
	.loc 1 1359 26
	call	EF_Ctrl_Get_Trim_Parity
.LVL393:
	.loc 1 1359 11
	bne	s2,a0,.L293
	.loc 1 1360 13 is_stmt 1
	.loc 1 1360 18 is_stmt 0
	sb	s0,0(s1)
	.loc 1 1361 13 is_stmt 1
	.loc 1 1361 20 is_stmt 0
	li	a0,0
	j	.L286
.L290:
	.loc 1 1352 11 is_stmt 1
	.loc 1 1352 13 is_stmt 0
	li	a5,1
	bne	s0,a5,.L292
	.loc 1 1353 9 is_stmt 1
	.loc 1 1353 15 is_stmt 0
	li	a5,1073770496
	lw	a5,112(a5)
.L304:
	.loc 1 1355 70
	srli	a5,a5,22
	j	.L303
.L292:
	.loc 1 1354 11 is_stmt 1
	.loc 1 1355 9
	.loc 1 1355 15 is_stmt 0
	li	a5,1073770496
	lw	a5,8(a5)
	j	.L304
	.cfi_endproc
.LFE47:
	.size	EF_Ctrl_Read_CapCode_Opt, .-EF_Ctrl_Read_CapCode_Opt
	.section	.text.EF_Ctrl_Is_PowerOffset_Slot_Empty,"ax",@progbits
	.align	1
	.globl	EF_Ctrl_Is_PowerOffset_Slot_Empty
	.type	EF_Ctrl_Is_PowerOffset_Slot_Empty, @function
EF_Ctrl_Is_PowerOffset_Slot_Empty:
.LFB48:
	.loc 1 1377 1 is_stmt 1
	.cfi_startproc
.LVL394:
	.loc 1 1378 5
	.loc 1 1379 5
	.loc 1 1382 5
	.loc 1 1377 1 is_stmt 0
	addi	sp,sp,-16
	.cfi_def_cfa_offset 16
	sw	s1,4(sp)
	.cfi_offset 9, -12
	mv	s1,a1
	sw	s0,8(sp)
	sw	ra,12(sp)
	.cfi_offset 8, -8
	.cfi_offset 1, -4
	.loc 1 1377 1
	mv	s0,a0
	.loc 1 1382 5
	call	EF_Ctrl_Sw_AHB_Clk_0
.LVL395:
	.loc 1 1384 5 is_stmt 1
	.loc 1 1384 7 is_stmt 0
	beq	s1,zero,.L306
	.loc 1 1385 9 is_stmt 1
	call	EF_Ctrl_Load_Efuse_R0
.LVL396:
.L306:
	.loc 1 1388 5
	.loc 1 1388 7 is_stmt 0
	bne	s0,zero,.L307
	.loc 1 1389 9 is_stmt 1
	.loc 1 1389 13 is_stmt 0
	li	a5,1073770496
	lw	a5,120(a5)
.LVL397:
	.loc 1 1390 9 is_stmt 1
.LBB36:
.LBB37:
	.loc 1 1003 5
	.loc 1 1005 5
	.loc 1 1006 5
	.loc 1 1009 9
	.loc 1 1012 5
.LBE37:
.LBE36:
	.loc 1 1391 9
	.loc 1 1406 5
.LBB39:
.LBB38:
	.loc 1 1005 8 is_stmt 0
	srli	a5,a5,15
.LVL398:
.LBE38:
.LBE39:
	.loc 1 1406 23
	beq	a5,zero,.L311
.LVL399:
.L321:
	li	a0,0
.L309:
	.loc 1 1407 1 discriminator 6
	lw	ra,12(sp)
	.cfi_remember_state
	.cfi_restore 1
	lw	s0,8(sp)
	.cfi_restore 8
	lw	s1,4(sp)
	.cfi_restore 9
	andi	a0,a0,0xff
	addi	sp,sp,16
	.cfi_def_cfa_offset 0
	jr	ra
.LVL400:
.L307:
	.cfi_restore_state
	.loc 1 1392 11 is_stmt 1
	.loc 1 1392 13 is_stmt 0
	li	a5,1
	bne	s0,a5,.L310
	.loc 1 1393 9 is_stmt 1
	.loc 1 1393 13 is_stmt 0
	li	a5,1073770496
	lw	a4,116(a5)
.LVL401:
	.loc 1 1394 9 is_stmt 1
.LBB40:
.LBB41:
	.loc 1 1003 5
	.loc 1 1005 5
	.loc 1 1006 5
	.loc 1 1009 9
	.loc 1 1012 5
.LBE41:
.LBE40:
	.loc 1 1396 9
	.loc 1 1396 13 is_stmt 0
	lw	a5,12(a5)
.LVL402:
	.loc 1 1397 9 is_stmt 1
	.loc 1 1003 5
	.loc 1 1005 5
	.loc 1 1006 5
	.loc 1 1009 9
	.loc 1 1012 5
.LBB43:
.LBB42:
	.loc 1 1012 12 is_stmt 0
	slli	a4,a4,16
.LVL403:
	not	a5,a5
.LVL404:
	srli	a4,a4,16
	andi	a5,a5,1
.LVL405:
.LBE42:
.LBE43:
	.loc 1 1406 5 is_stmt 1
	.loc 1 1406 23 is_stmt 0
	bne	a4,zero,.L321
.LVL406:
.L308:
	.loc 1 1406 23 discriminator 1
	mv	a0,a5
	j	.L309
.LVL407:
.L310:
	.loc 1 1398 11 is_stmt 1
	.loc 1 1398 13 is_stmt 0
	li	a5,2
	.loc 1 1406 23
	li	a0,0
	.loc 1 1398 13
	bne	s0,a5,.L309
	.loc 1 1399 9 is_stmt 1
	.loc 1 1399 13 is_stmt 0
	li	a5,1073770496
	lw	a4,116(a5)
.LVL408:
	.loc 1 1400 9 is_stmt 1
.LBB44:
.LBB45:
	.loc 1 1003 5
	.loc 1 1005 5
	.loc 1 1006 5
	.loc 1 1009 9
	.loc 1 1012 5
.LBE45:
.LBE44:
	.loc 1 1402 9
	.loc 1 1402 13 is_stmt 0
	lw	a5,12(a5)
.LVL409:
	.loc 1 1403 9 is_stmt 1
.LBB47:
.LBB48:
	.loc 1 1003 5
	.loc 1 1005 5
	.loc 1 1006 5
	.loc 1 1009 9
	.loc 1 1012 5
.LBE48:
.LBE47:
.LBB50:
.LBB46:
	.loc 1 1005 8 is_stmt 0
	srli	a4,a4,16
.LVL410:
.LBE46:
.LBE50:
.LBB51:
.LBB49:
	srli	a5,a5,1
.LVL411:
	not	a5,a5
.LVL412:
	andi	a5,a5,1
.LVL413:
.LBE49:
.LBE51:
	.loc 1 1406 5 is_stmt 1
	.loc 1 1406 23 is_stmt 0
	bne	a4,zero,.L309
	j	.L308
.LVL414:
.L311:
	.loc 1 1391 19
	li	a5,1
	j	.L308
	.cfi_endproc
.LFE48:
	.size	EF_Ctrl_Is_PowerOffset_Slot_Empty, .-EF_Ctrl_Is_PowerOffset_Slot_Empty
	.globl	__lshrdi3
	.section	.text.EF_Ctrl_Read_PowerOffset_Opt,"ax",@progbits
	.align	1
	.globl	EF_Ctrl_Read_PowerOffset_Opt
	.type	EF_Ctrl_Read_PowerOffset_Opt, @function
EF_Ctrl_Read_PowerOffset_Opt:
.LFB50:
	.loc 1 1489 1 is_stmt 1
	.cfi_startproc
.LVL415:
	addi	sp,sp,-32
	.cfi_def_cfa_offset 32
	sw	s1,20(sp)
	.cfi_offset 9, -12
	mv	s1,a2
	sw	s0,24(sp)
	sw	s2,16(sp)
	sw	ra,28(sp)
	sw	s3,12(sp)
	.cfi_offset 8, -8
	.cfi_offset 18, -16
	.cfi_offset 1, -4
	.cfi_offset 19, -20
	.loc 1 1489 1 is_stmt 0
	mv	s0,a0
	.loc 1 1490 5 is_stmt 1
.LVL416:
	.loc 1 1492 5
	.loc 1 1493 5
	.loc 1 1496 5
	.loc 1 1489 1 is_stmt 0
	mv	s2,a1
	.loc 1 1496 5
	call	EF_Ctrl_Sw_AHB_Clk_0
.LVL417:
	.loc 1 1498 5 is_stmt 1
	.loc 1 1498 7 is_stmt 0
	beq	s1,zero,.L323
	.loc 1 1499 9 is_stmt 1
	call	EF_Ctrl_Load_Efuse_R0
.LVL418:
.L323:
	.loc 1 1502 5
	.loc 1 1502 7 is_stmt 0
	bne	s0,zero,.L324
	.loc 1 1503 9 is_stmt 1
	.loc 1 1503 12 is_stmt 0
	li	a5,1073770496
	lw	s0,120(a5)
.LVL419:
	.loc 1 1504 9 is_stmt 1
	.loc 1 1504 16 is_stmt 0
	srli	a5,s0,15
	.loc 1 1505 23
	slli	s1,s0,1
	.loc 1 1504 11
	andi	a5,a5,1
.LVL420:
	.loc 1 1505 9 is_stmt 1
	.loc 1 1505 23 is_stmt 0
	srli	s1,s1,17
.LVL421:
	.loc 1 1506 9 is_stmt 1
	.loc 1 1506 15 is_stmt 0
	srli	s0,s0,31
.LVL422:
.L325:
	.loc 1 1523 5 is_stmt 1
	.loc 1 1523 7 is_stmt 0
	beq	a5,zero,.L329
	.loc 1 1524 9 is_stmt 1
	.loc 1 1524 20 is_stmt 0
	li	a1,15
	mv	a0,s1
	call	EF_Ctrl_Get_Trim_Parity
.LVL423:
	.loc 1 1524 11
	bne	a0,s0,.L329
	li	s0,0
.LVL424:
	.loc 1 1525 13
	li	s3,15
.LVL425:
.L332:
	.loc 1 1526 17 is_stmt 1
	.loc 1 1526 36 is_stmt 0
	mv	a2,s0
	mv	a0,s1
	li	a1,0
	call	__lshrdi3
.LVL426:
	.loc 1 1526 20
	andi	a5,a0,31
.LVL427:
	.loc 1 1527 17 is_stmt 1
	.loc 1 1527 19 is_stmt 0
	andi	a0,a0,16
	beq	a0,zero,.L330
	.loc 1 1528 21 is_stmt 1
	.loc 1 1528 37 is_stmt 0
	addi	a5,a5,-32
.LVL428:
.L330:
	.loc 1 1530 21 is_stmt 1
	.loc 1 1530 33 is_stmt 0
	sb	a5,0(s2)
	.loc 1 1525 25 is_stmt 1
.LVL429:
	.loc 1 1525 21
	.loc 1 1525 13 is_stmt 0
	addi	s0,s0,5
	addi	s2,s2,1
.LVL430:
	bne	s0,s3,.L332
	.loc 1 1533 20
	li	a0,0
.LVL431:
	j	.L322
.LVL432:
.L324:
	.loc 1 1507 11 is_stmt 1
	.loc 1 1507 13 is_stmt 0
	li	a5,1
	bne	s0,a5,.L326
	.loc 1 1508 9 is_stmt 1
	.loc 1 1508 12 is_stmt 0
	li	a5,1073770496
	lw	s0,116(a5)
.LVL433:
	.loc 1 1509 9 is_stmt 1
	.loc 1 1512 12 is_stmt 0
	lw	a5,12(a5)
.LVL434:
	.loc 1 1509 23
	slli	s1,s0,17
	.loc 1 1510 20
	srli	s0,s0,15
	.loc 1 1509 23
	srli	s1,s1,17
.LVL435:
	.loc 1 1510 9 is_stmt 1
	.loc 1 1510 15 is_stmt 0
	andi	s0,s0,1
.LVL436:
	.loc 1 1512 9 is_stmt 1
	.loc 1 1513 9
.L341:
	.loc 1 1520 11 is_stmt 0
	andi	a5,a5,1
.LVL437:
	j	.L325
.LVL438:
.L326:
	.loc 1 1514 11 is_stmt 1
	.loc 1 1514 13 is_stmt 0
	li	a5,2
	beq	s0,a5,.L327
.LVL439:
.L329:
	.loc 1 1536 12
	li	a0,1
.LVL440:
.L322:
	.loc 1 1537 1
	lw	ra,28(sp)
	.cfi_remember_state
	.cfi_restore 1
	lw	s0,24(sp)
	.cfi_restore 8
	lw	s1,20(sp)
	.cfi_restore 9
	lw	s2,16(sp)
	.cfi_restore 18
	lw	s3,12(sp)
	.cfi_restore 19
	addi	sp,sp,32
	.cfi_def_cfa_offset 0
	jr	ra
.LVL441:
.L327:
	.cfi_restore_state
	.loc 1 1515 9 is_stmt 1
	.loc 1 1515 12 is_stmt 0
	li	a5,1073770496
	lw	s0,116(a5)
.LVL442:
	.loc 1 1516 9 is_stmt 1
	.loc 1 1519 12 is_stmt 0
	lw	a5,12(a5)
.LVL443:
	.loc 1 1516 23
	slli	s1,s0,1
	srli	s1,s1,17
.LVL444:
	.loc 1 1517 9 is_stmt 1
	.loc 1 1517 15 is_stmt 0
	srli	s0,s0,31
.LVL445:
	.loc 1 1519 9 is_stmt 1
	.loc 1 1520 9
	.loc 1 1520 16 is_stmt 0
	srli	a5,a5,1
.LVL446:
	j	.L341
	.cfi_endproc
.LFE50:
	.size	EF_Ctrl_Read_PowerOffset_Opt, .-EF_Ctrl_Read_PowerOffset_Opt
	.section	.text.EF_Ctrl_Read_AES_Key,"ax",@progbits
	.align	1
	.globl	EF_Ctrl_Read_AES_Key
	.type	EF_Ctrl_Read_AES_Key, @function
EF_Ctrl_Read_AES_Key:
.LFB52:
	.loc 1 1579 1 is_stmt 1
	.cfi_startproc
.LVL447:
	.loc 1 1580 5
	.loc 1 1582 5
	.loc 1 1579 1 is_stmt 0
	addi	sp,sp,-32
	.cfi_def_cfa_offset 32
	sw	s0,24(sp)
	sw	ra,28(sp)
	.cfi_offset 8, -8
	.cfi_offset 1, -4
	.loc 1 1579 1
	sw	a1,12(sp)
	sw	a2,8(sp)
	.loc 1 1582 7
	li	a5,5
	.loc 1 1579 1
	mv	s0,a0
	.loc 1 1582 7
	bgtu	a0,a5,.L342
	.loc 1 1586 5 is_stmt 1
	call	EF_Ctrl_Load_Efuse_R0
.LVL448:
	.loc 1 1589 5
	li	a1,1073770496
	.loc 1 1589 40 is_stmt 0
	slli	s0,s0,4
	.loc 1 1589 5
	addi	a1,a1,28
	add	a1,s0,a1
	.loc 1 1590 1
	lw	s0,24(sp)
	.cfi_remember_state
	.cfi_restore 8
	.loc 1 1589 5
	lw	a2,8(sp)
	lw	a0,12(sp)
	.loc 1 1590 1
	lw	ra,28(sp)
	.cfi_restore 1
	addi	sp,sp,32
	.cfi_def_cfa_offset 0
.LVL449:
	.loc 1 1589 5
	tail	BL602_MemCpy4
.LVL450:
.L342:
	.cfi_restore_state
	.loc 1 1590 1
	lw	ra,28(sp)
	.cfi_restore 1
	lw	s0,24(sp)
	.cfi_restore 8
	addi	sp,sp,32
	.cfi_def_cfa_offset 0
	jr	ra
	.cfi_endproc
.LFE52:
	.size	EF_Ctrl_Read_AES_Key, .-EF_Ctrl_Read_AES_Key
	.section	.text.EF_Ctrl_Read_Direct_R0,"ax",@progbits
	.align	1
	.globl	EF_Ctrl_Read_Direct_R0
	.type	EF_Ctrl_Read_Direct_R0, @function
EF_Ctrl_Read_Direct_R0:
.LFB56:
	.loc 1 1689 1 is_stmt 1
	.cfi_startproc
.LVL451:
	.loc 1 1690 5
	.loc 1 1692 5
	.loc 1 1689 1 is_stmt 0
	addi	sp,sp,-32
	.cfi_def_cfa_offset 32
	sw	s0,24(sp)
	sw	ra,28(sp)
	.cfi_offset 8, -8
	.cfi_offset 1, -4
	.loc 1 1689 1
	mv	s0,a0
	sw	a1,12(sp)
	sw	a2,8(sp)
	.loc 1 1692 5
	call	EF_Ctrl_Load_Efuse_R0
.LVL452:
	.loc 1 1694 5 is_stmt 1
	.loc 1 1694 36 is_stmt 0
	slli	s0,s0,2
.LVL453:
	.loc 1 1694 5
	li	a1,1073770496
	add	a1,a1,s0
	.loc 1 1695 1
	lw	s0,24(sp)
	.cfi_restore 8
	.loc 1 1694 5
	lw	a2,8(sp)
	lw	a0,12(sp)
	.loc 1 1695 1
	lw	ra,28(sp)
	.cfi_restore 1
	addi	sp,sp,32
	.cfi_def_cfa_offset 0
.LVL454:
	.loc 1 1694 5
	tail	BL602_MemCpy4
.LVL455:
	.cfi_endproc
.LFE56:
	.size	EF_Ctrl_Read_Direct_R0, .-EF_Ctrl_Read_Direct_R0
	.section	.text.EF_Ctrl_Crc_Enable,"ax",@progbits
	.align	1
	.globl	EF_Ctrl_Crc_Enable
	.type	EF_Ctrl_Crc_Enable, @function
EF_Ctrl_Crc_Enable:
.LFB60:
	.loc 1 1772 1 is_stmt 1
	.cfi_startproc
	.loc 1 1773 5
	.loc 1 1775 5
	.loc 1 1775 11 is_stmt 0
	li	a5,1073774592
	addi	a5,a5,-1536
	lw	a4,0(a5)
.LVL456:
	.loc 1 1776 5 is_stmt 1
	.loc 1 1777 5
	.loc 1 1778 5
	.loc 1 1779 5
	.loc 1 1780 5
	.loc 1 1781 5
	.loc 1 1782 5
	andi	a4,a4,-1737
.LVL457:
	.loc 1 1782 11 is_stmt 0
	ori	a4,a4,34
.LVL458:
	.loc 1 1783 5 is_stmt 1
	.loc 1 1783 61 is_stmt 0
	sw	a4,0(a5)
	.loc 1 1785 5 is_stmt 1
	.loc 1 1785 11 is_stmt 0
	lw	a4,0(a5)
.LVL459:
	.loc 1 1786 5 is_stmt 1
	.loc 1 1786 11 is_stmt 0
	ori	a4,a4,4
.LVL460:
	.loc 1 1787 5 is_stmt 1
	.loc 1 1787 61 is_stmt 0
	sw	a4,0(a5)
	.loc 1 1788 1
	ret
	.cfi_endproc
.LFE60:
	.size	EF_Ctrl_Crc_Enable, .-EF_Ctrl_Crc_Enable
	.section	.text.EF_Ctrl_Crc_Is_Busy,"ax",@progbits
	.align	1
	.globl	EF_Ctrl_Crc_Is_Busy
	.type	EF_Ctrl_Crc_Is_Busy, @function
EF_Ctrl_Crc_Is_Busy:
.LFB61:
	.loc 1 1799 1 is_stmt 1
	.cfi_startproc
	.loc 1 1800 5
	.loc 1 1802 5
	.loc 1 1802 11 is_stmt 0
	li	a5,1073774592
	lw	a0,-1536(a5)
.LVL461:
	.loc 1 1803 5 is_stmt 1
	.loc 1 1804 1 is_stmt 0
	andi	a0,a0,1
.LVL462:
	ret
	.cfi_endproc
.LFE61:
	.size	EF_Ctrl_Crc_Is_Busy, .-EF_Ctrl_Crc_Is_Busy
	.section	.text.EF_Ctrl_Crc_Set_Golden,"ax",@progbits
	.align	1
	.globl	EF_Ctrl_Crc_Set_Golden
	.type	EF_Ctrl_Crc_Set_Golden, @function
EF_Ctrl_Crc_Set_Golden:
.LFB62:
	.loc 1 1815 1 is_stmt 1
	.cfi_startproc
.LVL463:
	.loc 1 1816 5
	.loc 1 1816 61 is_stmt 0
	li	a5,1073774592
	sw	a0,-1520(a5)
	.loc 1 1817 1
	ret
	.cfi_endproc
.LFE62:
	.size	EF_Ctrl_Crc_Set_Golden, .-EF_Ctrl_Crc_Set_Golden
	.section	.text.EF_Ctrl_Crc_Result,"ax",@progbits
	.align	1
	.globl	EF_Ctrl_Crc_Result
	.type	EF_Ctrl_Crc_Result, @function
EF_Ctrl_Crc_Result:
.LFB63:
	.loc 1 1828 1 is_stmt 1
	.cfi_startproc
	.loc 1 1829 5
	.loc 1 1831 5
	.loc 1 1831 11 is_stmt 0
	li	a5,1073774592
	lw	a0,-1536(a5)
.LVL464:
	.loc 1 1832 5 is_stmt 1
	.loc 1 1832 12 is_stmt 0
	srli	a0,a0,4
.LVL465:
	.loc 1 1833 1
	andi	a0,a0,1
	ret
	.cfi_endproc
.LFE63:
	.size	EF_Ctrl_Crc_Result, .-EF_Ctrl_Crc_Result
	.text
.Letext0:
	.file 2 "/mnt/d/GitHub/bl_iot_sdk_for_aithinker/toolchain/riscv/Linux/lib/gcc/riscv64-unknown-elf/10.2.0/include/stdint-gcc.h"
	.file 3 "/mnt/d/GitHub/bl_iot_sdk_for_aithinker/components/platform/soc/bl602/bl602_std/bl602_std/StdDriver/Inc/bl602_common.h"
	.file 4 "/mnt/d/GitHub/bl_iot_sdk_for_aithinker/components/platform/soc/bl602/bl602_std/bl602_std/StdDriver/Inc/bl602_ef_ctrl.h"