	.file	"net_sockets.c"
	.option nopic
	.attribute arch, "rv32i2p0_m2p0_f2p0_c2p0"
	.attribute unaligned_access, 0
	.attribute stack_align, 16
	.text
.Ltext0:
	.cfi_sections	.debug_frame
	.section	.text.net_would_block.isra.0,"ax",@progbits
	.align	1
	.type	net_would_block.isra.0, @function
net_would_block.isra.0:
.LFB59:
	.file 1 "/mnt/d/GitHub/bl_iot_sdk_for_aithinker/components/security/mbedtls_lts/port/net_sockets.c"
	.loc 1 323 12
	.cfi_startproc
.LVL0:
	.loc 1 325 5
	.loc 1 323 12 is_stmt 0
	addi	sp,sp,-16
	.cfi_def_cfa_offset 16
	sw	s1,4(sp)
	.cfi_offset 9, -12
	.loc 1 325 9
	lui	s1,%hi(errno)
	.loc 1 323 12
	sw	s0,8(sp)
	.cfi_offset 8, -8
	.loc 1 325 9
	lw	s0,%lo(errno)(s1)
.LVL1:
	.loc 1 333 5 is_stmt 1
	.loc 1 333 11 is_stmt 0
	li	a2,0
	li	a1,3
	.loc 1 323 12
	sw	ra,12(sp)
	.cfi_offset 1, -4
	.loc 1 333 11
	call	lwip_fcntl
.LVL2:
	.loc 1 333 35
	andi	a0,a0,1
	.loc 1 336 15
	sw	s0,%lo(errno)(s1)
	.loc 1 333 7
	bne	a0,zero,.L2
.L1:
	.loc 1 351 1
	lw	ra,12(sp)
	.cfi_remember_state
	.cfi_restore 1
	lw	s0,8(sp)
	.cfi_restore 8
.LVL3:
	lw	s1,4(sp)
	.cfi_restore 9
.LVL4:
	addi	sp,sp,16
	.cfi_def_cfa_offset 0
	jr	ra
.LVL5:
.L2:
	.cfi_restore_state
	.loc 1 340 5 is_stmt 1
	addi	a0,s0,-11
	seqz	a0,a0
	j	.L1
	.cfi_endproc
.LFE59:
	.size	net_would_block.isra.0, .-net_would_block.isra.0
	.section	.text.mbedtls_net_init,"ax",@progbits
	.align	1
	.globl	mbedtls_net_init
	.type	mbedtls_net_init, @function
mbedtls_net_init:
.LFB45:
	.loc 1 181 1
	.cfi_startproc
.LVL6:
	.loc 1 182 5
	.loc 1 182 13 is_stmt 0
	li	a5,-1
	sw	a5,0(a0)
	.loc 1 183 1
	ret
	.cfi_endproc
.LFE45:
	.size	mbedtls_net_init, .-mbedtls_net_init
	.section	.text.mbedtls_net_connect,"ax",@progbits
	.align	1
	.globl	mbedtls_net_connect
	.type	mbedtls_net_connect, @function
mbedtls_net_connect:
.LFB46:
	.loc 1 190 1 is_stmt 1
	.cfi_startproc
.LVL7:
	.loc 1 191 5
	.loc 1 192 5
	.loc 1 194 5
	.loc 1 174 5
	.loc 1 198 5
	.loc 1 190 1 is_stmt 0
	addi	sp,sp,-80
	.cfi_def_cfa_offset 80
	sw	s1,68(sp)
	sw	s2,64(sp)
	sw	s3,60(sp)
	.cfi_offset 9, -12
	.cfi_offset 18, -16
	.cfi_offset 19, -20
	mv	s2,a0
	mv	s1,a1
	mv	s3,a2
	.loc 1 198 5
	li	a1,0
.LVL8:
	li	a2,32
.LVL9:
	addi	a0,sp,16
.LVL10:
	.loc 1 190 1
	sw	s0,72(sp)
	sw	ra,76(sp)
	.cfi_offset 8, -8
	.cfi_offset 1, -4
	.loc 1 190 1
	mv	s0,a3
	.loc 1 198 5
	call	memset
.LVL11:
	.loc 1 199 5 is_stmt 1
	.loc 1 200 40 is_stmt 0
	li	a4,1
	.loc 1 199 21
	sw	zero,20(sp)
	.loc 1 200 5 is_stmt 1
	.loc 1 200 40 is_stmt 0
	li	a5,1
	bne	s0,a4,.L7
	li	a5,2
.L7:
	.loc 1 200 23 discriminator 4
	sw	a5,24(sp)
	.loc 1 201 5 is_stmt 1 discriminator 4
	.loc 1 201 41 is_stmt 0 discriminator 4
	li	a4,1
	li	a5,17
	beq	s0,a4,.L8
	.loc 1 201 41
	li	a5,6
.L8:
	.loc 1 203 9 discriminator 4
	addi	a3,sp,12
	addi	a2,sp,16
	mv	a1,s3
	mv	a0,s1
	.loc 1 201 23 discriminator 4
	sw	a5,28(sp)
	.loc 1 203 5 is_stmt 1 discriminator 4
	.loc 1 203 9 is_stmt 0 discriminator 4
	call	lwip_getaddrinfo
.LVL12:
	.loc 1 204 15 discriminator 4
	li	s0,-82
.LVL13:
	.loc 1 203 7 discriminator 4
	bne	a0,zero,.L6
	.loc 1 207 5 is_stmt 1
.LVL14:
	.loc 1 208 5
	.loc 1 208 14 is_stmt 0
	lw	s1,12(sp)
.LVL15:
.L10:
	.loc 1 208 27 is_stmt 1 discriminator 1
	.loc 1 208 5 is_stmt 0 discriminator 1
	bne	s1,zero,.L13
.LVL16:
.L12:
	.loc 1 228 5 is_stmt 1
	lw	a0,12(sp)
	call	lwip_freeaddrinfo
.LVL17:
	.loc 1 230 5
.L6:
	.loc 1 231 1 is_stmt 0
	lw	ra,76(sp)
	.cfi_remember_state
	.cfi_restore 1
	mv	a0,s0
	lw	s0,72(sp)
	.cfi_restore 8
	lw	s1,68(sp)
	.cfi_restore 9
	lw	s2,64(sp)
	.cfi_restore 18
.LVL18:
	lw	s3,60(sp)
	.cfi_restore 19
.LVL19:
	addi	sp,sp,80
	.cfi_def_cfa_offset 0
	jr	ra
.LVL20:
.L13:
	.cfi_restore_state
	.loc 1 210 9 is_stmt 1
	.loc 1 210 19 is_stmt 0
	lw	a2,12(s1)
	lw	a1,8(s1)
	lw	a0,4(s1)
	call	lwip_socket
.LVL21:
	.loc 1 210 17
	sw	a0,0(s2)
	.loc 1 212 9 is_stmt 1
	.loc 1 212 11 is_stmt 0
	blt	a0,zero,.L17
	.loc 1 218 9 is_stmt 1
	.loc 1 218 13 is_stmt 0
	lw	a2,16(s1)
	lw	a1,20(s1)
	call	lwip_connect
.LVL22:
	mv	s0,a0
.LVL23:
	.loc 1 218 11
	beq	a0,zero,.L12
	.loc 1 224 9 is_stmt 1
	lw	a0,0(s2)
	.loc 1 225 13 is_stmt 0
	li	s0,-68
	.loc 1 224 9
	call	lwip_close
.LVL24:
	.loc 1 225 9 is_stmt 1
.L11:
	.loc 1 208 39 discriminator 2
	.loc 1 208 43 is_stmt 0 discriminator 2
	lw	s1,28(s1)
.LVL25:
	j	.L10
.L17:
	.loc 1 214 17
	li	s0,-66
.LVL26:
	j	.L11
	.cfi_endproc
.LFE46:
	.size	mbedtls_net_connect, .-mbedtls_net_connect
	.section	.text.mbedtls_net_bind,"ax",@progbits
	.align	1
	.globl	mbedtls_net_bind
	.type	mbedtls_net_bind, @function
mbedtls_net_bind:
.LFB47:
	.loc 1 237 1 is_stmt 1
	.cfi_startproc
.LVL27:
	.loc 1 238 5
	.loc 1 239 5
	.loc 1 241 5
	.loc 1 174 5
	.loc 1 245 5
	.loc 1 237 1 is_stmt 0
	addi	sp,sp,-80
	.cfi_def_cfa_offset 80
	sw	s0,72(sp)
	sw	s1,68(sp)
	sw	s2,64(sp)
	.cfi_offset 8, -8
	.cfi_offset 9, -12
	.cfi_offset 18, -16
	mv	s0,a1
	mv	s2,a0
	mv	s1,a2
	.loc 1 245 5
	li	a1,0
.LVL28:
	li	a2,32
.LVL29:
	addi	a0,sp,16
.LVL30:
	.loc 1 237 1
	sw	s3,60(sp)
	sw	ra,76(sp)
	sw	s4,56(sp)
	sw	s5,52(sp)
	.cfi_offset 19, -20
	.cfi_offset 1, -4
	.cfi_offset 20, -24
	.cfi_offset 21, -28
	.loc 1 237 1
	mv	s3,a3
	.loc 1 245 5
	call	memset
.LVL31:
	.loc 1 246 5 is_stmt 1
	.loc 1 247 40 is_stmt 0
	li	a4,1
	.loc 1 246 21
	sw	zero,20(sp)
	.loc 1 247 5 is_stmt 1
	.loc 1 247 40 is_stmt 0
	li	a5,1
	bne	s3,a4,.L24
	li	a5,2
.L24:
	.loc 1 247 23 discriminator 4
	sw	a5,24(sp)
	.loc 1 248 5 is_stmt 1 discriminator 4
	.loc 1 248 41 is_stmt 0 discriminator 4
	li	a4,1
	li	a5,17
	beq	s3,a4,.L25
	.loc 1 248 41
	li	a5,6
.L25:
	.loc 1 248 23 discriminator 4
	sw	a5,28(sp)
	.loc 1 249 5 is_stmt 1 discriminator 4
	.loc 1 249 7 is_stmt 0 discriminator 4
	bne	s0,zero,.L26
	.loc 1 250 9 is_stmt 1
	.loc 1 250 24 is_stmt 0
	li	a5,1
	sw	a5,16(sp)
.L26:
	.loc 1 252 5 is_stmt 1
	.loc 1 252 9 is_stmt 0
	mv	a0,s0
	addi	a3,sp,12
	addi	a2,sp,16
	mv	a1,s1
	call	lwip_getaddrinfo
.LVL32:
	.loc 1 253 15
	li	s0,-82
.LVL33:
	.loc 1 252 7
	bne	a0,zero,.L23
	.loc 1 256 5 is_stmt 1
.LVL34:
	.loc 1 257 5
	.loc 1 257 14 is_stmt 0
	lw	s1,12(sp)
.LVL35:
	.loc 1 268 13
	li	s4,4096
	.loc 1 267 11
	li	s5,1
	.loc 1 268 13
	addi	s4,s4,-1
.LVL36:
.L28:
	.loc 1 257 27 is_stmt 1 discriminator 1
	.loc 1 257 5 is_stmt 0 discriminator 1
	bne	s1,zero,.L35
.LVL37:
.L33:
	.loc 1 299 5 is_stmt 1
	lw	a0,12(sp)
	call	lwip_freeaddrinfo
.LVL38:
	.loc 1 301 5
.L23:
	.loc 1 303 1 is_stmt 0
	lw	ra,76(sp)
	.cfi_remember_state
	.cfi_restore 1
	mv	a0,s0
	lw	s0,72(sp)
	.cfi_restore 8
	lw	s1,68(sp)
	.cfi_restore 9
	lw	s2,64(sp)
	.cfi_restore 18
.LVL39:
	lw	s3,60(sp)
	.cfi_restore 19
.LVL40:
	lw	s4,56(sp)
	.cfi_restore 20
	lw	s5,52(sp)
	.cfi_restore 21
	addi	sp,sp,80
	.cfi_def_cfa_offset 0
	jr	ra
.LVL41:
.L35:
	.cfi_restore_state
	.loc 1 259 9 is_stmt 1
	.loc 1 259 19 is_stmt 0
	lw	a2,12(s1)
	lw	a1,8(s1)
	lw	a0,4(s1)
	call	lwip_socket
.LVL42:
	.loc 1 259 17
	sw	a0,0(s2)
	.loc 1 261 9 is_stmt 1
	.loc 1 261 11 is_stmt 0
	blt	a0,zero,.L39
	.loc 1 267 9 is_stmt 1
	.loc 1 268 13 is_stmt 0
	li	a4,4
	addi	a3,sp,8
	li	a2,4
	mv	a1,s4
	.loc 1 267 11
	sw	s5,8(sp)
	.loc 1 268 9 is_stmt 1
	.loc 1 268 13 is_stmt 0
	call	lwip_setsockopt
.LVL43:
	mv	a5,a0
	lw	a0,0(s2)
	.loc 1 268 11
	beq	a5,zero,.L30
	.loc 1 271 13 is_stmt 1
	call	lwip_close
.LVL44:
	.loc 1 272 13
	.loc 1 273 13
.L39:
	.loc 1 263 17 is_stmt 0
	li	s0,-66
	j	.L29
.LVL45:
.L30:
	.loc 1 276 9 is_stmt 1
	.loc 1 276 13 is_stmt 0
	lw	a2,16(s1)
	lw	a1,20(s1)
	call	lwip_bind
.LVL46:
	mv	s0,a0
.LVL47:
	.loc 1 276 11
	beq	a0,zero,.L31
	.loc 1 278 13 is_stmt 1
	lw	a0,0(s2)
	.loc 1 279 17 is_stmt 0
	li	s0,-70
	.loc 1 278 13
	call	lwip_close
.LVL48:
	.loc 1 279 13 is_stmt 1
	.loc 1 280 13
.L29:
	.loc 1 257 39 discriminator 2
	.loc 1 257 43 is_stmt 0 discriminator 2
	lw	s1,28(s1)
.LVL49:
	j	.L28
.LVL50:
.L31:
	.loc 1 284 9 is_stmt 1
	.loc 1 284 11 is_stmt 0
	bne	s3,zero,.L33
	.loc 1 286 13 is_stmt 1
	.loc 1 286 17 is_stmt 0
	lw	a0,0(s2)
	li	a1,10
	call	lwip_listen
.LVL51:
	.loc 1 286 15
	beq	a0,zero,.L33
	.loc 1 288 17 is_stmt 1
	lw	a0,0(s2)
	.loc 1 289 21 is_stmt 0
	li	s0,-72
	.loc 1 288 17
	call	lwip_close
.LVL52:
	.loc 1 289 17 is_stmt 1
	.loc 1 290 17
	j	.L29
	.cfi_endproc
.LFE47:
	.size	mbedtls_net_bind, .-mbedtls_net_bind
	.section	.text.mbedtls_net_accept,"ax",@progbits
	.align	1
	.globl	mbedtls_net_accept
	.type	mbedtls_net_accept, @function
mbedtls_net_accept:
.LFB49:
	.loc 1 360 1
	.cfi_startproc
.LVL53:
	.loc 1 361 5
	.loc 1 362 5
	.loc 1 364 5
	.loc 1 376 5
	.loc 1 360 1 is_stmt 0
	addi	sp,sp,-80
	.cfi_def_cfa_offset 80
	sw	s1,68(sp)
	sw	s2,64(sp)
	sw	s3,60(sp)
	sw	s4,56(sp)
	sw	s5,52(sp)
	sw	ra,76(sp)
	sw	s0,72(sp)
	.cfi_offset 9, -12
	.cfi_offset 18, -16
	.cfi_offset 19, -20
	.cfi_offset 20, -24
	.cfi_offset 21, -28
	.cfi_offset 1, -4
	.cfi_offset 8, -8
	.loc 1 360 1
	mv	s1,a0
	.loc 1 382 9
	lw	a0,0(a0)
.LVL54:
	.loc 1 376 15
	li	a5,16
	.loc 1 360 1
	mv	s2,a1
	.loc 1 382 9
	li	a1,4096
.LVL55:
	.loc 1 360 1
	mv	s3,a2
	mv	s4,a3
	mv	s5,a4
	.loc 1 376 15
	sw	a5,4(sp)
	.loc 1 377 5 is_stmt 1
	.loc 1 382 9 is_stmt 0
	addi	a2,a1,8
.LVL56:
	.loc 1 377 15
	li	a5,4
	.loc 1 382 9
	addi	a4,sp,8
.LVL57:
	mv	a3,sp
.LVL58:
	addi	a1,a1,-1
	.loc 1 377 15
	sw	a5,8(sp)
	.loc 1 382 5 is_stmt 1
	.loc 1 382 9 is_stmt 0
	call	lwip_getsockopt
.LVL59:
	.loc 1 382 7
	beq	a0,zero,.L46
.L57:
.LBB6:
	.loc 1 429 19
	li	s0,-74
	j	.L45
.L46:
.LBE6:
	.loc 1 384 21
	lw	a4,0(sp)
	.loc 1 383 54
	li	a5,1
	.loc 1 384 21
	addi	a3,a4,-1
	.loc 1 383 54
	bgtu	a3,a5,.L57
	mv	s0,a0
	.loc 1 389 5 is_stmt 1
	.loc 1 392 32 is_stmt 0
	lw	a0,0(s1)
	.loc 1 389 7
	bne	a4,a5,.L49
	.loc 1 392 9 is_stmt 1
	.loc 1 392 32 is_stmt 0
	addi	a2,sp,4
	addi	a1,sp,16
	call	lwip_accept
.LVL60:
	.loc 1 392 30
	sw	a0,0(s2)
.LVL61:
.L50:
	.loc 1 413 5 is_stmt 1
	.loc 1 413 7 is_stmt 0
	bge	a0,zero,.L51
	.loc 1 415 9 is_stmt 1
	.loc 1 415 13 is_stmt 0
	lw	a0,0(s1)
.LVL62:
	call	net_would_block.isra.0
.LVL63:
	.loc 1 415 11
	beq	a0,zero,.L57
	.loc 1 416 19
	li	s0,-28672
	addi	s0,s0,1792
	j	.L45
.L49:
.LBB7:
	.loc 1 398 9 is_stmt 1
	.loc 1 400 21 is_stmt 0
	addi	a5,sp,4
	addi	a4,sp,16
	li	a3,1
	li	a2,1
	addi	a1,sp,32
	.loc 1 398 14
	sb	zero,32(sp)
	.loc 1 400 9 is_stmt 1
	.loc 1 400 21 is_stmt 0
	call	lwip_recvfrom
.LVL64:
	j	.L50
.L51:
.LBE7:
	.loc 1 423 5 is_stmt 1
	.loc 1 423 7 is_stmt 0
	lw	a4,0(sp)
	li	a5,1
	beq	a4,a5,.L52
.LBB8:
	.loc 1 425 9 is_stmt 1
	.loc 1 426 9
	.loc 1 428 13 is_stmt 0
	lw	a2,4(sp)
	lw	a0,0(s1)
.LVL65:
	addi	a1,sp,16
	.loc 1 426 13
	sw	a5,12(sp)
	.loc 1 428 9 is_stmt 1
	.loc 1 428 13 is_stmt 0
	call	lwip_connect
.LVL66:
	.loc 1 428 11
	bne	a0,zero,.L57
	.loc 1 431 9 is_stmt 1
	.loc 1 431 34 is_stmt 0
	lw	a5,0(s1)
	.loc 1 435 13
	addi	a2,sp,4
	addi	a1,sp,32
	.loc 1 431 24
	sw	a5,0(s2)
	.loc 1 432 9 is_stmt 1
	.loc 1 432 22 is_stmt 0
	li	a5,-1
	sw	a5,0(s1)
	.loc 1 434 9 is_stmt 1
	.loc 1 435 13 is_stmt 0
	lw	a0,0(s2)
	.loc 1 434 11
	li	a5,16
	sw	a5,4(sp)
	.loc 1 435 9 is_stmt 1
	.loc 1 435 13 is_stmt 0
	call	lwip_getsockname
.LVL67:
	.loc 1 435 11
	beq	a0,zero,.L54
.L55:
	.loc 1 442 19
	li	s0,-66
.L45:
.LBE8:
	.loc 1 478 1
	lw	ra,76(sp)
	.cfi_remember_state
	.cfi_restore 1
	mv	a0,s0
	lw	s0,72(sp)
	.cfi_restore 8
	lw	s1,68(sp)
	.cfi_restore 9
.LVL68:
	lw	s2,64(sp)
	.cfi_restore 18
.LVL69:
	lw	s3,60(sp)
	.cfi_restore 19
.LVL70:
	lw	s4,56(sp)
	.cfi_restore 20
.LVL71:
	lw	s5,52(sp)
	.cfi_restore 21
.LVL72:
	addi	sp,sp,80
	.cfi_def_cfa_offset 0
	jr	ra
.LVL73:
.L54:
	.cfi_restore_state
.LBB9:
	.loc 1 437 30
	lbu	a0,33(sp)
	li	a2,17
	li	a1,2
	call	lwip_socket
.LVL74:
	.loc 1 437 28
	sw	a0,0(s1)
	.loc 1 436 69
	blt	a0,zero,.L55
	.loc 1 439 13
	li	a1,4096
	li	a4,4
	addi	a3,sp,12
	li	a2,4
	addi	a1,a1,-1
	call	lwip_setsockopt
.LVL75:
	.loc 1 438 76
	bne	a0,zero,.L55
	.loc 1 445 9 is_stmt 1
	.loc 1 445 13 is_stmt 0
	lw	a2,4(sp)
	lw	a0,0(s1)
	addi	a1,sp,32
	call	lwip_bind
.LVL76:
	.loc 1 445 11
	beq	a0,zero,.L52
	.loc 1 447 19
	li	s0,-70
	j	.L45
.L52:
.LBE9:
	.loc 1 451 5 is_stmt 1
	.loc 1 451 7 is_stmt 0
	beq	s3,zero,.L45
	.loc 1 453 9 is_stmt 1
	.loc 1 453 11 is_stmt 0
	lbu	a4,17(sp)
	li	a5,2
	bne	a4,a5,.L45
.LBB10:
	.loc 1 455 13 is_stmt 1
.LVL77:
	.loc 1 456 13
	.loc 1 456 21 is_stmt 0
	li	a5,4
	sw	a5,0(s5)
	.loc 1 458 13 is_stmt 1
	.loc 1 458 15 is_stmt 0
	li	a5,3
	bleu	s4,a5,.L59
	.loc 1 461 13 is_stmt 1
	li	a2,4
	addi	a1,sp,20
	mv	a0,s3
	call	memcpy
.LVL78:
	j	.L45
.L59:
	.loc 1 459 23 is_stmt 0
	li	s0,-67
	j	.L45
.LBE10:
	.cfi_endproc
.LFE49:
	.size	mbedtls_net_accept, .-mbedtls_net_accept
	.section	.text.mbedtls_net_set_block,"ax",@progbits
	.align	1
	.globl	mbedtls_net_set_block
	.type	mbedtls_net_set_block, @function
mbedtls_net_set_block:
.LFB50:
	.loc 1 484 1 is_stmt 1
	.cfi_startproc
.LVL79:
	.loc 1 493 5
	.loc 1 484 1 is_stmt 0
	addi	sp,sp,-16
	.cfi_def_cfa_offset 16
	sw	ra,12(sp)
	sw	s0,8(sp)
	.cfi_offset 1, -4
	.cfi_offset 8, -8
	.loc 1 493 13
	lw	s0,0(a0)
	.loc 1 493 34
	li	a2,0
	li	a1,3
	mv	a0,s0
.LVL80:
	call	lwip_fcntl
.LVL81:
	.loc 1 493 13
	andi	a2,a0,-2
	mv	a0,s0
	.loc 1 496 1
	lw	s0,8(sp)
	.cfi_restore 8
	lw	ra,12(sp)
	.cfi_restore 1
	.loc 1 493 13
	li	a1,4
	.loc 1 496 1
	addi	sp,sp,16
	.cfi_def_cfa_offset 0
	.loc 1 493 13
	tail	lwip_fcntl
.LVL82:
	.cfi_endproc
.LFE50:
	.size	mbedtls_net_set_block, .-mbedtls_net_set_block
	.section	.text.mbedtls_net_set_nonblock,"ax",@progbits
	.align	1
	.globl	mbedtls_net_set_nonblock
	.type	mbedtls_net_set_nonblock, @function
mbedtls_net_set_nonblock:
.LFB51:
	.loc 1 499 1 is_stmt 1
	.cfi_startproc
.LVL83:
	.loc 1 508 5
	.loc 1 499 1 is_stmt 0
	addi	sp,sp,-16
	.cfi_def_cfa_offset 16
	sw	ra,12(sp)
	sw	s0,8(sp)
	.cfi_offset 1, -4
	.cfi_offset 8, -8
	.loc 1 508 13
	lw	s0,0(a0)
	.loc 1 508 34
	li	a2,0
	li	a1,3
	mv	a0,s0
.LVL84:
	call	lwip_fcntl
.LVL85:
	.loc 1 508 13
	ori	a2,a0,1
	mv	a0,s0
	.loc 1 511 1
	lw	s0,8(sp)
	.cfi_restore 8
	lw	ra,12(sp)
	.cfi_restore 1
	.loc 1 508 13
	li	a1,4
	.loc 1 511 1
	addi	sp,sp,16
	.cfi_def_cfa_offset 0
	.loc 1 508 13
	tail	lwip_fcntl
.LVL86:
	.cfi_endproc
.LFE51:
	.size	mbedtls_net_set_nonblock, .-mbedtls_net_set_nonblock
	.section	.text.mbedtls_net_poll,"ax",@progbits
	.align	1
	.globl	mbedtls_net_poll
	.type	mbedtls_net_poll, @function
mbedtls_net_poll:
.LFB52:
	.loc 1 518 1 is_stmt 1
	.cfi_startproc
.LVL87:
	.loc 1 519 5
	.loc 1 520 5
	.loc 1 522 5
	.loc 1 523 5
	.loc 1 525 5
	.loc 1 518 1 is_stmt 0
	addi	sp,sp,-64
	.cfi_def_cfa_offset 64
	sw	ra,60(sp)
	sw	s0,56(sp)
	sw	s1,52(sp)
	sw	s2,48(sp)
	sw	s3,44(sp)
	.cfi_offset 1, -4
	.cfi_offset 8, -8
	.cfi_offset 9, -12
	.cfi_offset 18, -16
	.cfi_offset 19, -20
	.loc 1 525 9
	lw	s0,0(a0)
.LVL88:
	.loc 1 527 5 is_stmt 1
	.loc 1 528 15 is_stmt 0
	li	a0,-69
.LVL89:
	.loc 1 527 7
	blt	s0,zero,.L68
	.loc 1 534 5 is_stmt 1
	.loc 1 534 7 is_stmt 0
	li	a5,63
	ble	s0,a5,.L70
.LVL90:
.L76:
	.loc 1 535 15
	li	a0,-71
.LVL91:
.L68:
	.loc 1 584 1
	lw	ra,60(sp)
	.cfi_remember_state
	.cfi_restore 1
	lw	s0,56(sp)
	.cfi_restore 8
	lw	s1,52(sp)
	.cfi_restore 9
	lw	s2,48(sp)
	.cfi_restore 18
	lw	s3,44(sp)
	.cfi_restore 19
	addi	sp,sp,64
	.cfi_def_cfa_offset 0
	jr	ra
.LVL92:
.L70:
	.cfi_restore_state
.LBB11:
	.loc 1 547 100 is_stmt 1
	.loc 1 547 109
	.loc 1 547 130 is_stmt 0
	sw	zero,4(sp)
	.loc 1 547 100 is_stmt 1
	.loc 1 547 109
.LVL93:
	.loc 1 547 130 is_stmt 0
	sw	zero,0(sp)
	.loc 1 547 100 is_stmt 1
.LBE11:
	.loc 1 547 143
	.loc 1 548 5
	.loc 1 548 12 is_stmt 0
	andi	a5,a1,1
	.loc 1 548 7
	beq	a5,zero,.L71
	.loc 1 550 9 is_stmt 1
	.loc 1 551 9 is_stmt 0
	srai	a5,s0,5
	.loc 1 551 40
	addi	a4,sp,32
	slli	a5,a5,2
	add	a5,a4,a5
	lw	a3,-32(a5)
	.loc 1 551 57
	li	a4,1
	sll	a4,a4,s0
	.loc 1 551 40
	or	a4,a4,a3
	.loc 1 550 12
	andi	a1,a1,-2
.LVL94:
	.loc 1 551 8 is_stmt 1
	.loc 1 551 40 is_stmt 0
	sw	a4,-32(a5)
.L71:
	.loc 1 554 4 is_stmt 1
.LBB12:
	.loc 1 554 9
	.loc 1 554 21
	.loc 1 554 34
.LVL95:
	.loc 1 554 7
	.loc 1 554 94
	.loc 1 554 100
	.loc 1 554 109
	.loc 1 554 130 is_stmt 0
	sw	zero,12(sp)
	.loc 1 554 100 is_stmt 1
	.loc 1 554 109
.LVL96:
	.loc 1 554 130 is_stmt 0
	sw	zero,8(sp)
	.loc 1 554 100 is_stmt 1
.LBE12:
	.loc 1 554 143
	.loc 1 555 5
	.loc 1 555 12 is_stmt 0
	andi	a5,a1,2
	.loc 1 555 7
	beq	a5,zero,.L72
	.loc 1 557 9 is_stmt 1
	.loc 1 558 9 is_stmt 0
	srai	a5,s0,5
	.loc 1 558 40
	addi	a4,sp,32
	slli	a5,a5,2
	add	a5,a4,a5
	lw	a3,-24(a5)
	.loc 1 558 57
	li	a4,1
	sll	a4,a4,s0
	.loc 1 558 40
	or	a4,a4,a3
	.loc 1 557 12
	andi	a1,a1,-3
.LVL97:
	.loc 1 558 8 is_stmt 1
	.loc 1 558 40 is_stmt 0
	sw	a4,-24(a5)
.L72:
	.loc 1 561 5 is_stmt 1
	.loc 1 562 15 is_stmt 0
	li	a0,-73
	.loc 1 561 7
	bne	a1,zero,.L68
	.loc 1 564 5 is_stmt 1
	.loc 1 564 25 is_stmt 0
	li	a4,1000
	divu	a5,a2,a4
	sw	zero,20(sp)
	.loc 1 565 5 is_stmt 1
	li	s1,0
	.loc 1 564 25 is_stmt 0
	sw	a5,16(sp)
	.loc 1 565 28
	remu	a5,a2,a4
	.loc 1 565 37
	mul	a5,a5,a4
	.loc 1 565 16
	sw	a5,24(sp)
	li	a5,-1
	beq	a2,a5,.L74
	addi	s1,sp,16
.L74:
	.loc 1 569 15
	addi	s3,s0,1
	.loc 1 572 5
	li	s2,4
.LVL98:
.L75:
	.loc 1 567 5 is_stmt 1
	.loc 1 569 9
	.loc 1 569 15 is_stmt 0
	mv	a4,s1
	li	a3,0
	addi	a2,sp,8
.LVL99:
	mv	a1,sp
	mv	a0,s3
	call	lwip_select
.LVL100:
	.loc 1 572 10 is_stmt 1
	.loc 1 572 5 is_stmt 0
	beq	a0,s2,.L75
	.loc 1 574 5 is_stmt 1
	.loc 1 574 7 is_stmt 0
	blt	a0,zero,.L76
	.loc 1 577 5 is_stmt 1
.LVL101:
	.loc 1 578 5
	.loc 1 578 9 is_stmt 0
	srai	a5,s0,5
	.loc 1 578 21
	slli	a5,a5,2
	addi	a4,sp,32
	add	a5,a4,a5
	.loc 1 578 44
	lw	a0,-32(a5)
	.loc 1 580 44
	lw	a5,-24(a5)
	.loc 1 578 10
	andi	s0,s0,31
.LVL102:
	.loc 1 578 44
	srl	a0,a0,s0
	.loc 1 580 44
	srl	s0,a5,s0
	andi	s0,s0,1
	.loc 1 578 44
	andi	a0,a0,1
.LVL103:
	.loc 1 580 5 is_stmt 1
	.loc 1 580 7 is_stmt 0
	beq	s0,zero,.L68
	.loc 1 581 9 is_stmt 1
	.loc 1 581 13 is_stmt 0
	ori	a0,a0,2
.LVL104:
	j	.L68
	.cfi_endproc
.LFE52:
	.size	mbedtls_net_poll, .-mbedtls_net_poll
	.section	.text.mbedtls_net_usleep,"ax",@progbits
	.align	1
	.globl	mbedtls_net_usleep
	.type	mbedtls_net_usleep, @function
mbedtls_net_usleep:
.LFB53:
	.loc 1 590 1 is_stmt 1
	.cfi_startproc
.LVL105:
	.loc 1 594 5
	.loc 1 595 5
	.loc 1 595 22 is_stmt 0
	li	a5,999424
	addi	a5,a5,576
	divu	a4,a0,a5
	.loc 1 590 1
	addi	sp,sp,-32
	.cfi_def_cfa_offset 32
	.loc 1 602 5
	li	a3,0
	li	a2,0
	li	a1,0
	.loc 1 590 1
	sw	ra,28(sp)
	.cfi_offset 1, -4
	.loc 1 595 22
	sw	zero,4(sp)
	.loc 1 600 5 is_stmt 1
	.loc 1 600 23 is_stmt 0
	remu	a0,a0,a5
.LVL106:
	.loc 1 595 22
	sw	a4,0(sp)
	.loc 1 602 5
	mv	a4,sp
	.loc 1 600 16
	sw	a0,8(sp)
	.loc 1 602 5 is_stmt 1
	li	a0,0
	call	lwip_select
.LVL107:
	.loc 1 604 1 is_stmt 0
	lw	ra,28(sp)
	.cfi_restore 1
	addi	sp,sp,32
	.cfi_def_cfa_offset 0
	jr	ra
	.cfi_endproc
.LFE53:
	.size	mbedtls_net_usleep, .-mbedtls_net_usleep
	.section	.text.mbedtls_net_recv,"ax",@progbits
	.align	1
	.globl	mbedtls_net_recv
	.type	mbedtls_net_recv, @function
mbedtls_net_recv:
.LFB54:
	.loc 1 610 1 is_stmt 1
	.cfi_startproc
.LVL108:
	addi	sp,sp,-16
	.cfi_def_cfa_offset 16
	sw	s0,8(sp)
	sw	ra,12(sp)
	.cfi_offset 8, -8
	.cfi_offset 1, -4
	.loc 1 610 1 is_stmt 0
	mv	s0,a0
	.loc 1 611 5 is_stmt 1
	.loc 1 612 5
	.loc 1 612 9 is_stmt 0
	lw	a0,0(a0)
.LVL109:
	.loc 1 614 5 is_stmt 1
	.loc 1 614 7 is_stmt 0
	blt	a0,zero,.L94
	.loc 1 617 5 is_stmt 1
	.loc 1 617 17 is_stmt 0
	call	lwip_read
.LVL110:
	.loc 1 619 5 is_stmt 1
	.loc 1 619 7 is_stmt 0
	bge	a0,zero,.L92
	.loc 1 621 9 is_stmt 1
	.loc 1 621 13 is_stmt 0
	lw	a0,0(s0)
.LVL111:
	call	net_would_block.isra.0
.LVL112:
	.loc 1 621 11
	bne	a0,zero,.L98
.LVL113:
.LBB15:
.LBB16:
	.loc 1 629 9 is_stmt 1
	.loc 1 629 19 is_stmt 0
	lui	a5,%hi(errno)
	lw	a5,%lo(errno)(a5)
	.loc 1 629 11
	li	a4,32
	.loc 1 630 19
	li	a0,-80
	.loc 1 629 11
	beq	a5,a4,.L92
	.loc 1 629 25
	li	a4,104
	beq	a5,a4,.L92
	.loc 1 632 9 is_stmt 1
	.loc 1 632 11 is_stmt 0
	li	a4,4
	.loc 1 636 15
	li	a0,-76
	.loc 1 632 11
	bne	a5,a4,.L92
.LVL114:
.L98:
.LBE16:
.LBE15:
	.loc 1 622 19
	li	a0,-28672
	addi	a0,a0,1792
	j	.L92
.LVL115:
.L94:
	.loc 1 615 15
	li	a0,-69
.LVL116:
.L92:
	.loc 1 640 1
	lw	ra,12(sp)
	.cfi_restore 1
	lw	s0,8(sp)
	.cfi_restore 8
.LVL117:
	addi	sp,sp,16
	.cfi_def_cfa_offset 0
	jr	ra
	.cfi_endproc
.LFE54:
	.size	mbedtls_net_recv, .-mbedtls_net_recv
	.section	.text.mbedtls_net_recv_timeout,"ax",@progbits
	.align	1
	.globl	mbedtls_net_recv_timeout
	.type	mbedtls_net_recv_timeout, @function
mbedtls_net_recv_timeout:
.LFB55:
	.loc 1 647 1 is_stmt 1
	.cfi_startproc
.LVL118:
	.loc 1 648 5
	.loc 1 649 5
	.loc 1 650 5
	.loc 1 651 5
	.loc 1 651 9 is_stmt 0
	lw	a5,0(a0)
.LVL119:
	.loc 1 653 5 is_stmt 1
	.loc 1 653 7 is_stmt 0
	blt	a5,zero,.L104
	.loc 1 647 1
	addi	sp,sp,-48
	.cfi_def_cfa_offset 48
	sw	s0,40(sp)
	sw	ra,44(sp)
	sw	s1,36(sp)
	sw	s2,32(sp)
	.cfi_offset 8, -8
	.cfi_offset 1, -4
	.cfi_offset 9, -12
	.cfi_offset 18, -16
	.loc 1 660 7
	li	a4,63
	mv	s0,a0
	.loc 1 660 5 is_stmt 1
	.loc 1 661 15 is_stmt 0
	li	a0,-71
.LVL120:
	.loc 1 660 7
	bgt	a5,a4,.L100
	.loc 1 664 5
	srai	a4,a5,5
	mv	s2,a2
.LVL121:
.LBB17:
	.loc 1 663 100 is_stmt 1
	.loc 1 663 109
.LBE17:
	.loc 1 664 36 is_stmt 0
	slli	a4,a4,2
	addi	a2,sp,32
.LVL122:
	add	a4,a2,a4
.LBB18:
	.loc 1 663 130
	sw	zero,12(sp)
	.loc 1 663 100 is_stmt 1
	.loc 1 663 109
.LVL123:
	.loc 1 663 130 is_stmt 0
	sw	zero,8(sp)
	.loc 1 663 100 is_stmt 1
.LBE18:
	.loc 1 663 143
	.loc 1 664 4
	.loc 1 664 36 is_stmt 0
	lw	a2,-24(a4)
	.loc 1 664 53
	li	a6,1
	sll	a6,a6,a5
	.loc 1 664 36
	or	a6,a6,a2
	.loc 1 666 25
	li	a2,1000
	.loc 1 664 36
	sw	a6,-24(a4)
	.loc 1 666 5 is_stmt 1
	.loc 1 666 25 is_stmt 0
	divu	a4,a3,a2
	sw	zero,20(sp)
	.loc 1 667 5 is_stmt 1
	mv	s1,a1
	.loc 1 669 11 is_stmt 0
	addi	a0,a5,1
	.loc 1 666 25
	sw	a4,16(sp)
	.loc 1 667 28
	remu	a4,a3,a2
	.loc 1 667 37
	mul	a4,a4,a2
	.loc 1 667 16
	sw	a4,24(sp)
	.loc 1 669 5 is_stmt 1
	.loc 1 669 11 is_stmt 0
	addi	a4,sp,16
	bne	a3,zero,.L102
	li	a4,0
.L102:
	.loc 1 669 11 discriminator 4
	li	a3,0
.LVL124:
	li	a2,0
	addi	a1,sp,8
.LVL125:
	call	lwip_select
.LVL126:
	.loc 1 672 5 is_stmt 1 discriminator 4
	.loc 1 672 7 is_stmt 0 discriminator 4
	beq	a0,zero,.L107
	.loc 1 675 5 is_stmt 1
	.loc 1 675 7 is_stmt 0
	bge	a0,zero,.L103
	.loc 1 682 9 is_stmt 1
	.loc 1 682 19 is_stmt 0
	lui	a5,%hi(errno)
	.loc 1 682 11
	lw	a4,%lo(errno)(a5)
	li	a5,4
	.loc 1 686 15
	li	a0,-76
.LVL127:
	.loc 1 682 11
	bne	a4,a5,.L100
	.loc 1 683 19
	li	a0,-28672
	addi	a0,a0,1792
	j	.L100
.LVL128:
.L103:
	.loc 1 690 5 is_stmt 1
	.loc 1 690 13 is_stmt 0
	mv	a2,s2
	mv	a1,s1
	mv	a0,s0
.LVL129:
	call	mbedtls_net_recv
.LVL130:
.L100:
	.loc 1 691 1
	lw	ra,44(sp)
	.cfi_restore 1
	lw	s0,40(sp)
	.cfi_restore 8
.LVL131:
	lw	s1,36(sp)
	.cfi_restore 9
	lw	s2,32(sp)
	.cfi_restore 18
	addi	sp,sp,48
	.cfi_def_cfa_offset 0
	jr	ra
.LVL132:
.L104:
	.loc 1 654 15
	li	a0,-69
.LVL133:
	.loc 1 691 1
	ret
.LVL134:
.L107:
	.cfi_def_cfa_offset 48
	.cfi_offset 1, -4
	.cfi_offset 8, -8
	.cfi_offset 9, -12
	.cfi_offset 18, -16
	.loc 1 673 15
	li	a0,-24576
.LVL135:
	addi	a0,a0,-2048
	j	.L100
	.cfi_endproc
.LFE55:
	.size	mbedtls_net_recv_timeout, .-mbedtls_net_recv_timeout
	.section	.text.mbedtls_net_send,"ax",@progbits
	.align	1
	.globl	mbedtls_net_send
	.type	mbedtls_net_send, @function
mbedtls_net_send:
.LFB56:
	.loc 1 697 1 is_stmt 1
	.cfi_startproc
.LVL136:
	.loc 1 698 5
	.loc 1 699 5
	.loc 1 697 1 is_stmt 0
	addi	sp,sp,-16
	.cfi_def_cfa_offset 16
	sw	s0,8(sp)
	sw	ra,12(sp)
	.cfi_offset 8, -8
	.cfi_offset 1, -4
	.loc 1 697 1
	mv	s0,a0
	.loc 1 699 9
	lw	a0,0(a0)
.LVL137:
	.loc 1 701 5 is_stmt 1
	.loc 1 701 7 is_stmt 0
	blt	a0,zero,.L115
	.loc 1 704 5 is_stmt 1
	.loc 1 704 17 is_stmt 0
	call	lwip_write
.LVL138:
	.loc 1 706 5 is_stmt 1
	.loc 1 706 7 is_stmt 0
	bge	a0,zero,.L113
	.loc 1 708 9 is_stmt 1
	.loc 1 708 13 is_stmt 0
	lw	a0,0(s0)
.LVL139:
	call	net_would_block.isra.0
.LVL140:
	.loc 1 708 11
	bne	a0,zero,.L119
	.loc 1 716 9 is_stmt 1
	.loc 1 716 19 is_stmt 0
	lui	a5,%hi(errno)
	lw	a5,%lo(errno)(a5)
	.loc 1 716 11
	li	a4,32
	.loc 1 717 19
	li	a0,-80
	.loc 1 716 11
	beq	a5,a4,.L113
	.loc 1 716 25 discriminator 1
	li	a4,104
	beq	a5,a4,.L113
	.loc 1 719 9 is_stmt 1
	.loc 1 719 11 is_stmt 0
	li	a4,4
	.loc 1 723 15
	li	a0,-78
	.loc 1 719 11
	bne	a5,a4,.L113
.L119:
	.loc 1 709 19
	li	a0,-28672
	addi	a0,a0,1920
	j	.L113
.LVL141:
.L115:
	.loc 1 702 15
	li	a0,-69
.LVL142:
.L113:
	.loc 1 727 1
	lw	ra,12(sp)
	.cfi_restore 1
	lw	s0,8(sp)
	.cfi_restore 8
.LVL143:
	addi	sp,sp,16
	.cfi_def_cfa_offset 0
	jr	ra
	.cfi_endproc
.LFE56:
	.size	mbedtls_net_send, .-mbedtls_net_send
	.section	.text.mbedtls_net_free,"ax",@progbits
	.align	1
	.globl	mbedtls_net_free
	.type	mbedtls_net_free, @function
mbedtls_net_free:
.LFB57:
	.loc 1 733 1 is_stmt 1
	.cfi_startproc
.LVL144:
	.loc 1 734 5
	.loc 1 733 1 is_stmt 0
	addi	sp,sp,-16
	.cfi_def_cfa_offset 16
	sw	s0,8(sp)
	sw	s1,4(sp)
	sw	ra,12(sp)
	.cfi_offset 8, -8
	.cfi_offset 9, -12
	.cfi_offset 1, -4
	.loc 1 733 1
	mv	s0,a0
	.loc 1 734 12
	lw	a0,0(a0)
.LVL145:
	.loc 1 734 7
	li	s1,-1
	beq	a0,s1,.L121
	.loc 1 737 5 is_stmt 1
	li	a1,2
	call	lwip_shutdown
.LVL146:
	.loc 1 738 5
	lw	a0,0(s0)
	call	lwip_close
.LVL147:
	.loc 1 740 5
	.loc 1 740 13 is_stmt 0
	sw	s1,0(s0)
.L121:
	.loc 1 741 1
	lw	ra,12(sp)
	.cfi_restore 1
	lw	s0,8(sp)
	.cfi_restore 8
.LVL148:
	lw	s1,4(sp)
	.cfi_restore 9
	addi	sp,sp,16
	.cfi_def_cfa_offset 0
	jr	ra
	.cfi_endproc
.LFE57:
	.size	mbedtls_net_free, .-mbedtls_net_free
	.text
.Letext0:
	.file 2 "/mnt/d/GitHub/bl_iot_sdk_for_aithinker/toolchain/riscv/Linux/riscv64-unknown-elf/include/machine/_default_types.h"
	.file 3 "/mnt/d/GitHub/bl_iot_sdk_for_aithinker/toolchain/riscv/Linux/lib/gcc/riscv64-unknown-elf/10.2.0/include/stddef.h"
	.file 4 "/mnt/d/GitHub/bl_iot_sdk_for_aithinker/toolchain/riscv/Linux/riscv64-unknown-elf/include/sys/_types.h"
	.file 5 "/mnt/d/GitHub/bl_iot_sdk_for_aithinker/toolchain/riscv/Linux/riscv64-unknown-elf/include/sys/_stdint.h"
	.file 6 "/mnt/d/GitHub/bl_iot_sdk_for_aithinker/toolchain/riscv/Linux/riscv64-unknown-elf/include/sys/_timeval.h"
	.file 7 "/mnt/d/GitHub/bl_iot_sdk_for_aithinker/toolchain/riscv/Linux/riscv64-unknown-elf/include/sys/select.h"
	.file 8 "/mnt/d/GitHub/bl_iot_sdk_for_aithinker/toolchain/riscv/Linux/riscv64-unknown-elf/include/sys/types.h"
	.file 9 "/mnt/d/GitHub/bl_iot_sdk_for_aithinker/components/security/mbedtls_lts/mbedtls/include/mbedtls/net_sockets.h"
	.file 10 "/mnt/d/GitHub/bl_iot_sdk_for_aithinker/components/network/lwip/src/include/lwip/arch.h"
	.file 11 "/mnt/d/GitHub/bl_iot_sdk_for_aithinker/components/network/lwip/src/include/lwip/inet.h"
	.file 12 "/mnt/d/GitHub/bl_iot_sdk_for_aithinker/components/network/lwip/src/include/lwip/sockets.h"
	.file 13 "/mnt/d/GitHub/bl_iot_sdk_for_aithinker/components/network/lwip/src/include/lwip/netdb.h"
	.file 14 "/mnt/d/GitHub/bl_iot_sdk_for_aithinker/toolchain/riscv/Linux/riscv64-unknown-elf/include/string.h"
	.file 15 "/mnt/d/GitHub/bl_iot_sdk_for_aithinker/components/network/lwip/src/include/lwip/errno.h"