	.file	"test_case.c"
	.option nopic
	.attribute arch, "rv32i2p0_m2p0_f2p0_c2p0"
	.attribute unaligned_access, 0
	.attribute stack_align, 16
	.text
.Ltext0:
	.cfi_sections	.debug_frame
	.section	.rodata.mbedtls_tc_ecp_p256_mul.str1.4,"aMS",@progbits,1
	.align	2
.LC0:
	.string	"99A1F7B45827419C35E67F42BC02FE7CFA7629430EBBF32AF55E77E8B5ED88F5"
	.align	2
.LC1:
	.string	"%s: LN %d returned %d\r\n"
	.align	2
.LC2:
	.string	"06B8FBCE1A4909B119808FCDBE45DF209F9B2FFE5C17E12FC04F199B38FA687A"
	.align	2
.LC3:
	.string	"AE9FAFB90A1E91F2C1955C7D83D100C0CB5FC6F253EED2DFFD6C2C60A4F183B8"
	.align	2
.LC4:
	.string	"01"
	.align	2
.LC5:
	.string	"Result mismatch!\r\n"
	.section	.text.mbedtls_tc_ecp_p256_mul,"ax",@progbits
	.align	1
	.globl	mbedtls_tc_ecp_p256_mul
	.type	mbedtls_tc_ecp_p256_mul, @function
mbedtls_tc_ecp_p256_mul:
.LFB4:
	.file 1 "/mnt/d/GitHub/bl_iot_sdk_for_aithinker/components/security/mbedtls_lts/port/test_case.c"
	.loc 1 24 1
	.cfi_startproc
	.loc 1 25 5
	.loc 1 26 4
.LVL0:
	.loc 1 27 5
	.loc 1 28 5
	.loc 1 24 1 is_stmt 0
	addi	sp,sp,-224
	.cfi_def_cfa_offset 224
	.loc 1 28 5
	addi	a0,sp,84
	.loc 1 24 1
	sw	ra,220(sp)
	sw	s0,216(sp)
	sw	s1,212(sp)
	.cfi_offset 1, -4
	.cfi_offset 8, -8
	.cfi_offset 9, -12
	.loc 1 28 5
	call	mbedtls_ecp_group_init
.LVL1:
	.loc 1 29 5 is_stmt 1
	li	a1,3
	addi	a0,sp,84
	call	mbedtls_ecp_group_load
.LVL2:
	.loc 1 31 5
	.loc 1 32 5
	.loc 1 33 5
	addi	a0,sp,12
	call	mbedtls_ecp_point_init
.LVL3:
	.loc 1 34 5
	addi	a0,sp,48
	call	mbedtls_ecp_point_init
.LVL4:
	.loc 1 35 5
	mv	a0,sp
	call	mbedtls_mpi_init
.LVL5:
	.loc 1 37 5
	.loc 1 38 5
	.loc 1 39 5
	.loc 1 40 5
	.loc 1 42 5
	.loc 1 42 10
	.loc 1 42 21 is_stmt 0
	lui	a2,%hi(.LC0)
	addi	a2,a2,%lo(.LC0)
	li	a1,16
	mv	a0,sp
	call	mbedtls_mpi_read_string
.LVL6:
	.loc 1 42 13
	beq	a0,zero,.L2
	mv	s0,a0
	.loc 1 42 67 is_stmt 1 discriminator 1
	mv	a3,a0
	li	a2,42
.LVL7:
.L16:
	.loc 1 47 10 is_stmt 0 discriminator 1
	lui	a1,%hi(.LANCHOR0)
	lui	a0,%hi(.LC1)
	addi	a1,a1,%lo(.LANCHOR0)
	addi	a0,a0,%lo(.LC1)
	call	printf
.LVL8:
	.loc 1 47 66 is_stmt 1 discriminator 1
.L15:
	.loc 1 26 9 is_stmt 0
	li	s1,0
.L3:
.LVL9:
	.loc 1 54 5 is_stmt 1
	addi	a0,sp,84
	call	mbedtls_ecp_group_free
.LVL10:
	.loc 1 55 5
	addi	a0,sp,12
	call	mbedtls_ecp_point_free
.LVL11:
	.loc 1 56 5
	addi	a0,sp,48
	call	mbedtls_ecp_point_free
.LVL12:
	.loc 1 57 5
	mv	a0,sp
	call	mbedtls_mpi_free
.LVL13:
	.loc 1 58 5
	.loc 1 58 8 is_stmt 0
	beq	s0,zero,.L8
	.loc 1 59 16
	li	s1,0
.LVL14:
.L8:
	.loc 1 61 5 is_stmt 1
	.loc 1 62 1 is_stmt 0
	lw	ra,220(sp)
	.cfi_remember_state
	.cfi_restore 1
	lw	s0,216(sp)
	.cfi_restore 8
.LVL15:
	mv	a0,s1
	lw	s1,212(sp)
	.cfi_restore 9
.LVL16:
	addi	sp,sp,224
	.cfi_def_cfa_offset 0
	jr	ra
.LVL17:
.L2:
	.cfi_restore_state
	.loc 1 42 143 is_stmt 1 discriminator 2
	.loc 1 43 5 discriminator 2
	.loc 1 43 10 discriminator 2
	.loc 1 43 21 is_stmt 0 discriminator 2
	lui	a2,%hi(.LC2)
	addi	a2,a2,%lo(.LC2)
	li	a1,16
	addi	a0,sp,48
.LVL18:
	call	mbedtls_mpi_read_string
.LVL19:
	mv	s0,a0
.LVL20:
	.loc 1 43 13 discriminator 2
	beq	a0,zero,.L4
	.loc 1 43 76 is_stmt 1 discriminator 1
	mv	a3,a0
	li	a2,43
	j	.L16
.L4:
	.loc 1 43 152 discriminator 2
	.loc 1 44 5 discriminator 2
	.loc 1 44 10 discriminator 2
	.loc 1 44 21 is_stmt 0 discriminator 2
	lui	a2,%hi(.LC3)
	addi	a2,a2,%lo(.LC3)
	li	a1,16
	addi	a0,sp,60
	call	mbedtls_mpi_read_string
.LVL21:
	mv	s0,a0
.LVL22:
	.loc 1 44 13 discriminator 2
	beq	a0,zero,.L5
	.loc 1 44 76 is_stmt 1 discriminator 1
	mv	a3,a0
	li	a2,44
	j	.L16
.L5:
	.loc 1 44 152 discriminator 2
	.loc 1 45 5 discriminator 2
	.loc 1 45 10 discriminator 2
	.loc 1 45 21 is_stmt 0 discriminator 2
	lui	a2,%hi(.LC4)
	addi	a2,a2,%lo(.LC4)
	li	a1,16
	addi	a0,sp,72
	call	mbedtls_mpi_read_string
.LVL23:
	mv	s0,a0
.LVL24:
	.loc 1 45 13 discriminator 2
	beq	a0,zero,.L6
	.loc 1 45 76 is_stmt 1 discriminator 1
	mv	a3,a0
	li	a2,45
	j	.L16
.L6:
	.loc 1 45 152 discriminator 2
	.loc 1 47 5 discriminator 2
	.loc 1 47 10 discriminator 2
	.loc 1 47 21 is_stmt 0 discriminator 2
	li	a5,0
	li	a4,0
	addi	a3,sp,124
	mv	a2,sp
	addi	a1,sp,12
	addi	a0,sp,84
	call	mbedtls_ecp_mul
.LVL25:
	mv	s0,a0
.LVL26:
	.loc 1 47 13 discriminator 2
	beq	a0,zero,.L7
	.loc 1 47 10 is_stmt 1 discriminator 1
	mv	a3,a0
	li	a2,47
	j	.L16
.L7:
	.loc 1 47 86 discriminator 2
	.loc 1 48 5 discriminator 2
	.loc 1 48 9 is_stmt 0 discriminator 2
	addi	a1,sp,48
	addi	a0,sp,12
	call	mbedtls_ecp_point_cmp
.LVL27:
	.loc 1 49 16 discriminator 2
	li	s1,1
	.loc 1 48 8 discriminator 2
	beq	a0,zero,.L3
	.loc 1 51 9 is_stmt 1
	lui	a0,%hi(.LC5)
	addi	a0,a0,%lo(.LC5)
	call	printf
.LVL28:
	j	.L15
	.cfi_endproc
.LFE4:
	.size	mbedtls_tc_ecp_p256_mul, .-mbedtls_tc_ecp_p256_mul
	.section	.rodata.mbedtls_tc_mpi_exp_mod.str1.4,"aMS",@progbits,1
	.align	2
.LC6:
	.ascii	"AA088D0869CAB1CE4A264DC94CC06FEA69D3B1E0D829D3AC1250332C2429"
	.ascii	"CB8C1B06655D23931AA46D9D4C83BAF05483BD6EF4F61355657B470EB3FD"
	.ascii	"2574FDBC0723A5E3606BBE219480F52276C7D6529C905E060D8708C809ED"
	.ascii	"07A545412681FF443D80AA34875F5BE3BDEB00A0A46899BB8A0CFB5A3CA7"
	.ascii	"E582EE3DF5384B"
	.string	"400D33CA64658D0FFBE502BE2486F9FA2E9A1CFBD27066370A7AE880F25144F45CE019457B77FF444441391588A014F429D65D8478FE4D36350578987379329B310D77AC060272B03D18FA642D989D4FF6C1A0F798C16CEF49F55909F8FF041A7F0984A5616C2C3D7E981523B015003494F07CF37E229415C0FF853D78033909"
	.align	2
.LC7:
	.string	"010001"
	.align	2
.LC8:
	.ascii	"B1B6DBD53B85084FDF88F85CDEE3AEF2844554AC9BE440E78D7CD83B50C6"
	.ascii	"D25CC7B0B5377CF0D1999ED7B94F7BA27B396164B4CCFCA497EB08F41211"
	.ascii	"B0932195C5FD8ABE09855687B6C51F20C514A110F1B6D169B48B545B9930"
	.ascii	"6075E8CCCCBD7ABDF3F59FAB4BCD900F60531EF855A754568A36D70E467B"
	.ascii	"719F22D02B40A505"
	.string	"1854CA59B5B9C3FDED203124CDE3BE427C5973435E040A3E6A45615235FD6F827205E1DD1BAA6658DB94BDF4CF3E9DF98D59C96AC2447C101455C618D8CCC59078708EE9DE3E33A6D88A771904948EFFEEB48611DA98F0A6A3D5C5B2E65C7A3F5D4D9D827FB117A0599970C305C39ADC01EEC70A52C7A2C8D84EFB5C52BA1B4B"
	.align	2
.LC9:
	.ascii	"22BA4261AACA908A6C5FD14A9038744AE64C30B14F56CF94378FEA98537F"
	.ascii	"9CD14C4BB171AA987F6DFD904865D7148746D635BFD0D76290E499A38FA9"
	.ascii	"068D29972BAB7BA8D042E19B6561DD5B1586FFB7560A6EB6834F059EC6F3"
	.ascii	"10C562F6896B4C3432C7FFB8867A86DE1CDB859EAF8C6FC07F5DC2ADD8D0"
	.ascii	"F485F8BD916B10C5"
	.string	"628A2ADE42653F750FC8440083317D78724D9BB25C00A0732518E8810F0F9B97BA89AE0F3677B053974ED2D2839423B6EE34A488AF42E5CA039103C4EBAB6CF0105549B647CBB5C13A52C5773C53040E37434620055993749FB37B9EFC37A5BF0CD6E46B0EBD950D8104B901F82C4D80662C6EF65A3F4CAECD5CE64CE1741EF3"
	.section	.text.mbedtls_tc_mpi_exp_mod,"ax",@progbits
	.align	1
	.globl	mbedtls_tc_mpi_exp_mod
	.type	mbedtls_tc_mpi_exp_mod, @function
mbedtls_tc_mpi_exp_mod:
.LFB5:
	.loc 1 65 1
	.cfi_startproc
	.loc 1 66 5
	.loc 1 67 4
.LVL29:
	.loc 1 68 5
	.loc 1 69 5
	.loc 1 70 5
	.loc 1 71 5
	.loc 1 72 5
	.loc 1 74 5
	.loc 1 65 1 is_stmt 0
	addi	sp,sp,-80
	.cfi_def_cfa_offset 80
	.loc 1 74 5
	addi	a0,sp,4
	.loc 1 65 1
	sw	ra,76(sp)
	sw	s0,72(sp)
	sw	s1,68(sp)
	.cfi_offset 1, -4
	.cfi_offset 8, -8
	.cfi_offset 9, -12
	.loc 1 74 5
	call	mbedtls_mpi_init
.LVL30:
	.loc 1 75 5 is_stmt 1
	addi	a0,sp,16
	call	mbedtls_mpi_init
.LVL31:
	.loc 1 76 5
	addi	a0,sp,28
	call	mbedtls_mpi_init
.LVL32:
	.loc 1 77 5
	addi	a0,sp,40
	call	mbedtls_mpi_init
.LVL33:
	.loc 1 78 5
	addi	a0,sp,52
	call	mbedtls_mpi_init
.LVL34:
	.loc 1 79 5
	.loc 1 79 10
	.loc 1 79 21 is_stmt 0
	lui	a2,%hi(.LC6)
	addi	a2,a2,%lo(.LC6)
	li	a1,16
	addi	a0,sp,4
	call	mbedtls_mpi_read_string
.LVL35:
	.loc 1 79 13
	beq	a0,zero,.L18
	mv	s0,a0
	.loc 1 79 64 is_stmt 1 discriminator 1
	mv	a3,a0
	li	a2,79
.LVL36:
.L32:
	.loc 1 83 10 is_stmt 0 discriminator 1
	lui	a1,%hi(.LANCHOR1)
	lui	a0,%hi(.LC1)
	addi	a1,a1,%lo(.LANCHOR1)
	addi	a0,a0,%lo(.LC1)
	call	printf
.LVL37:
	.loc 1 83 66 is_stmt 1 discriminator 1
.L31:
	.loc 1 67 9 is_stmt 0
	li	s1,0
.L19:
.LVL38:
	.loc 1 90 5 is_stmt 1
	addi	a0,sp,4
	call	mbedtls_mpi_free
.LVL39:
	.loc 1 91 5
	addi	a0,sp,16
	call	mbedtls_mpi_free
.LVL40:
	.loc 1 92 5
	addi	a0,sp,28
	call	mbedtls_mpi_free
.LVL41:
	.loc 1 93 5
	addi	a0,sp,40
	call	mbedtls_mpi_free
.LVL42:
	.loc 1 94 5
	addi	a0,sp,52
	call	mbedtls_mpi_free
.LVL43:
	.loc 1 95 5
	.loc 1 95 8 is_stmt 0
	beq	s0,zero,.L24
	.loc 1 96 16
	li	s1,0
.LVL44:
.L24:
	.loc 1 98 5 is_stmt 1
	.loc 1 99 1 is_stmt 0
	lw	ra,76(sp)
	.cfi_remember_state
	.cfi_restore 1
	lw	s0,72(sp)
	.cfi_restore 8
.LVL45:
	mv	a0,s1
	lw	s1,68(sp)
	.cfi_restore 9
.LVL46:
	addi	sp,sp,80
	.cfi_def_cfa_offset 0
	jr	ra
.LVL47:
.L18:
	.cfi_restore_state
	.loc 1 79 140 is_stmt 1 discriminator 2
	.loc 1 80 5 discriminator 2
	.loc 1 80 10 discriminator 2
	.loc 1 80 21 is_stmt 0 discriminator 2
	lui	a2,%hi(.LC7)
	addi	a2,a2,%lo(.LC7)
	li	a1,16
	addi	a0,sp,16
.LVL48:
	call	mbedtls_mpi_read_string
.LVL49:
	mv	s0,a0
.LVL50:
	.loc 1 80 13 discriminator 2
	beq	a0,zero,.L20
	.loc 1 80 64 is_stmt 1 discriminator 1
	mv	a3,a0
	li	a2,80
	j	.L32
.L20:
	.loc 1 80 140 discriminator 2
	.loc 1 81 5 discriminator 2
	.loc 1 81 10 discriminator 2
	.loc 1 81 21 is_stmt 0 discriminator 2
	lui	a2,%hi(.LC8)
	addi	a2,a2,%lo(.LC8)
	li	a1,16
	addi	a0,sp,28
	call	mbedtls_mpi_read_string
.LVL51:
	mv	s0,a0
.LVL52:
	.loc 1 81 13 discriminator 2
	beq	a0,zero,.L21
	.loc 1 81 64 is_stmt 1 discriminator 1
	mv	a3,a0
	li	a2,81
	j	.L32
.L21:
	.loc 1 81 140 discriminator 2
	.loc 1 82 5 discriminator 2
	.loc 1 82 10 discriminator 2
	.loc 1 82 21 is_stmt 0 discriminator 2
	lui	a2,%hi(.LC9)
	addi	a2,a2,%lo(.LC9)
	li	a1,16
	addi	a0,sp,52
	call	mbedtls_mpi_read_string
.LVL53:
	mv	s0,a0
.LVL54:
	.loc 1 82 13 discriminator 2
	beq	a0,zero,.L22
	.loc 1 82 74 is_stmt 1 discriminator 1
	mv	a3,a0
	li	a2,82
	j	.L32
.L22:
	.loc 1 82 150 discriminator 2
	.loc 1 83 5 discriminator 2
	.loc 1 83 10 discriminator 2
	.loc 1 83 21 is_stmt 0 discriminator 2
	li	a4,0
	addi	a3,sp,28
	addi	a2,sp,16
	addi	a1,sp,4
	addi	a0,sp,40
	call	mbedtls_mpi_exp_mod
.LVL55:
	mv	s0,a0
.LVL56:
	.loc 1 83 13 discriminator 2
	beq	a0,zero,.L23
	.loc 1 83 10 is_stmt 1 discriminator 1
	mv	a3,a0
	li	a2,83
	j	.L32
.L23:
	.loc 1 83 86 discriminator 2
	.loc 1 84 5 discriminator 2
	.loc 1 84 9 is_stmt 0 discriminator 2
	addi	a1,sp,52
	addi	a0,sp,40
	call	mbedtls_mpi_cmp_mpi
.LVL57:
	.loc 1 85 16 discriminator 2
	li	s1,1
	.loc 1 84 8 discriminator 2
	beq	a0,zero,.L19
	.loc 1 87 9 is_stmt 1
	lui	a0,%hi(.LC5)
	addi	a0,a0,%lo(.LC5)
	call	printf
.LVL58:
	j	.L31
	.cfi_endproc
.LFE5:
	.size	mbedtls_tc_mpi_exp_mod, .-mbedtls_tc_mpi_exp_mod
	.section	.rodata.mbedtls_tc_aes_ecb.str1.4,"aMS",@progbits,1
	.align	2
.LC11:
	.string	"FEDCBA9876543210"
	.align	2
.LC12:
	.string	"0123456789ABCDEF"
	.align	2
.LC10:
	.string	"8D6\031\301p\365\226\201\304\246\340\361\030\302I"
	.section	.text.mbedtls_tc_aes_ecb,"ax",@progbits
	.align	1
	.globl	mbedtls_tc_aes_ecb
	.type	mbedtls_tc_aes_ecb, @function
mbedtls_tc_aes_ecb:
.LFB6:
	.loc 1 102 1
	.cfi_startproc
	.loc 1 103 4
.LVL59:
	.loc 1 104 5
	.loc 1 105 5
	.loc 1 106 5
	.loc 1 107 5
	.loc 1 108 5
	.loc 1 102 1 is_stmt 0
	addi	sp,sp,-336
	.cfi_def_cfa_offset 336
	.loc 1 108 19
	lui	a1,%hi(.LC10)
	.loc 1 102 1
	sw	s0,328(sp)
	.loc 1 108 19
	li	a2,16
	addi	a1,a1,%lo(.LC10)
	addi	a0,sp,8
	.cfi_offset 8, -8
	li	s0,98304
	.loc 1 102 1
	sw	s1,324(sp)
	sw	s2,320(sp)
	sw	ra,332(sp)
	.cfi_offset 9, -12
	.cfi_offset 18, -16
	.cfi_offset 1, -4
	.loc 1 108 19
	addi	s0,s0,1696
	call	memcpy
.LVL60:
	.loc 1 109 5 is_stmt 1
	.loc 1 111 5
.LBB2:
	.loc 1 111 10
	.loc 1 111 24
	.loc 1 114 9 is_stmt 0
	lui	s1,%hi(.LC11)
	.loc 1 115 9
	lui	s2,%hi(.LC12)
.LVL61:
.L35:
	.loc 1 112 9 is_stmt 1
	li	a2,16
	li	a1,0
	addi	a0,sp,24
	call	memset
.LVL62:
	.loc 1 113 9
	addi	a0,sp,40
	call	mbedtls_aes_init
.LVL63:
	.loc 1 114 9
	li	a2,128
	addi	a1,s1,%lo(.LC11)
	addi	a0,sp,40
	call	mbedtls_aes_setkey_enc
.LVL64:
	.loc 1 115 9
	addi	a2,s2,%lo(.LC12)
	li	a1,1
	addi	a3,sp,24
	addi	a0,sp,40
	call	mbedtls_aes_crypt_ecb
.LVL65:
	.loc 1 116 9
	addi	a0,sp,40
	call	mbedtls_aes_free
.LVL66:
	.loc 1 117 9
	.loc 1 117 13 is_stmt 0
	li	a2,16
	addi	a1,sp,24
	addi	a0,sp,8
	call	memcmp
.LVL67:
	.loc 1 117 12
	bne	a0,zero,.L36
	.loc 1 111 36 is_stmt 1 discriminator 2
.LVL68:
	.loc 1 111 24 discriminator 2
	.loc 1 111 5 is_stmt 0 discriminator 2
	addi	s0,s0,-1
.LVL69:
	bne	s0,zero,.L35
.LBE2:
	.loc 1 103 9
	li	a0,1
.LVL70:
.L34:
	.loc 1 123 5 is_stmt 1
	.loc 1 124 1 is_stmt 0
	lw	ra,332(sp)
	.cfi_remember_state
	.cfi_restore 1
	lw	s0,328(sp)
	.cfi_restore 8
	lw	s1,324(sp)
	.cfi_restore 9
	lw	s2,320(sp)
	.cfi_restore 18
	addi	sp,sp,336
	.cfi_def_cfa_offset 0
	jr	ra
.LVL71:
.L36:
	.cfi_restore_state
.LBB3:
	.loc 1 118 20
	li	a0,0
	j	.L34
.LBE3:
	.cfi_endproc
.LFE6:
	.size	mbedtls_tc_aes_ecb, .-mbedtls_tc_aes_ecb
	.section	.rodata.mbedtls_test_case_run.str1.4,"aMS",@progbits,1
	.align	2
.LC13:
	.string	"Running test case %s\r\n"
	.align	2
.LC14:
	.string	"\t\tPassed\r\n"
	.align	2
.LC15:
	.string	"\t\tFailed\r\n"
	.section	.text.mbedtls_test_case_run,"ax",@progbits
	.align	1
	.globl	mbedtls_test_case_run
	.type	mbedtls_test_case_run, @function
mbedtls_test_case_run:
.LFB7:
	.loc 1 137 1 is_stmt 1
	.cfi_startproc
	.loc 1 138 5
.LBB4:
	.loc 1 138 10
.LVL72:
	.loc 1 138 21
.LBE4:
	.loc 1 137 1 is_stmt 0
	addi	sp,sp,-32
	.cfi_def_cfa_offset 32
	sw	s0,24(sp)
	.cfi_offset 8, -8
	lui	s0,%hi(.LANCHOR2)
	addi	s0,s0,%lo(.LANCHOR2)
	sw	s1,20(sp)
	sw	s2,16(sp)
	sw	s3,12(sp)
	sw	s4,8(sp)
	sw	ra,28(sp)
	.cfi_offset 9, -12
	.cfi_offset 18, -16
	.cfi_offset 19, -20
	.cfi_offset 20, -24
	.cfi_offset 1, -4
	addi	s1,s0,24
.LBB5:
	.loc 1 139 9
	lui	s2,%hi(.LC13)
	.loc 1 143 13
	lui	s3,%hi(.LC15)
	.loc 1 141 13
	lui	s4,%hi(.LC14)
.LVL73:
.L42:
	.loc 1 139 9 is_stmt 1
	lw	a1,4(s0)
	addi	a0,s2,%lo(.LC13)
	call	printf
.LVL74:
	.loc 1 140 9
	.loc 1 140 13 is_stmt 0
	lw	a5,0(s0)
	jalr	a5
.LVL75:
	.loc 1 140 12
	beq	a0,zero,.L40
	.loc 1 141 13 is_stmt 1
	addi	a0,s4,%lo(.LC14)
.L45:
	.loc 1 138 5 is_stmt 0
	addi	s0,s0,8
	.loc 1 143 13
	call	printf
.LVL76:
	.loc 1 138 53 is_stmt 1
	.loc 1 138 21
	.loc 1 138 5 is_stmt 0
	bne	s0,s1,.L42
.LBE5:
	.loc 1 146 1
	lw	ra,28(sp)
	.cfi_remember_state
	.cfi_restore 1
	lw	s0,24(sp)
	.cfi_restore 8
	lw	s1,20(sp)
	.cfi_restore 9
	lw	s2,16(sp)
	.cfi_restore 18
	lw	s3,12(sp)
	.cfi_restore 19
	lw	s4,8(sp)
	.cfi_restore 20
	addi	sp,sp,32
	.cfi_def_cfa_offset 0
	jr	ra
.L40:
	.cfi_restore_state
.LBB6:
	.loc 1 143 13 is_stmt 1
	addi	a0,s3,%lo(.LC15)
	j	.L45
.LBE6:
	.cfi_endproc
.LFE7:
	.size	mbedtls_test_case_run, .-mbedtls_test_case_run
	.section	.rodata.str1.4,"aMS",@progbits,1
	.align	2
.LC16:
	.string	"mbedtls_tc_ecp_p256_mul"
	.align	2
.LC17:
	.string	"mbedtls_tc_mpi_exp_mod"
	.align	2
.LC18:
	.string	"mbedtls_tc_aes_ecb"
	.section	.rodata.__func__.0,"a"
	.align	2
	.set	.LANCHOR1,. + 0
	.type	__func__.0, @object
	.size	__func__.0, 23
__func__.0:
	.string	"mbedtls_tc_mpi_exp_mod"
	.section	.rodata.__func__.1,"a"
	.align	2
	.set	.LANCHOR0,. + 0
	.type	__func__.1, @object
	.size	__func__.1, 24
__func__.1:
	.string	"mbedtls_tc_ecp_p256_mul"
	.section	.rodata.tc,"a"
	.align	2
	.set	.LANCHOR2,. + 0
	.type	tc, @object
	.size	tc, 24
tc:
	.word	mbedtls_tc_ecp_p256_mul
	.word	.LC16
	.word	mbedtls_tc_mpi_exp_mod
	.word	.LC17
	.word	mbedtls_tc_aes_ecb
	.word	.LC18
	.text
.Letext0:
	.file 2 "/mnt/d/GitHub/bl_iot_sdk_for_aithinker/toolchain/riscv/Linux/lib/gcc/riscv64-unknown-elf/10.2.0/include/stddef.h"
	.file 3 "/mnt/d/GitHub/bl_iot_sdk_for_aithinker/toolchain/riscv/Linux/lib/gcc/riscv64-unknown-elf/10.2.0/include/stdint-gcc.h"
	.file 4 "/mnt/d/GitHub/bl_iot_sdk_for_aithinker/components/security/mbedtls_lts/mbedtls/include/mbedtls/bignum.h"
	.file 5 "/mnt/d/GitHub/bl_iot_sdk_for_aithinker/components/security/mbedtls_lts/mbedtls/include/mbedtls/ecp.h"
	.file 6 "/mnt/d/GitHub/bl_iot_sdk_for_aithinker/components/security/mbedtls_lts/mbedtls/include/mbedtls/aes.h"
	.file 7 "/mnt/d/GitHub/bl_iot_sdk_for_aithinker/toolchain/riscv/Linux/riscv64-unknown-elf/include/stdio.h"
	.file 8 "/mnt/d/GitHub/bl_iot_sdk_for_aithinker/toolchain/riscv/Linux/riscv64-unknown-elf/include/string.h"
	.file 9 "<built-in>"