	.file	"bl_coredump.c"
	.option nopic
	.attribute arch, "rv32i2p0_m2p0_f2p0_c2p0"
	.attribute unaligned_access, 0
	.attribute stack_align, 16
	.text
.Ltext0:
	.cfi_sections	.debug_frame
	.section	.text.dump_base64_word,"ax",@progbits
	.align	1
	.type	dump_base64_word, @function
dump_base64_word:
.LFB12:
	.file 1 "/mnt/d/GitHub/bl_iot_sdk_for_aithinker/components/stage/coredump/bl_coredump.c"
	.loc 1 254 95
	.cfi_startproc
.LVL0:
	.loc 1 255 3
	.loc 1 254 95 is_stmt 0
	addi	sp,sp,-48
	.cfi_def_cfa_offset 48
	sw	ra,44(sp)
	.cfi_offset 1, -4
	.loc 1 257 42
	andi	a5,a0,-4
	.loc 1 257 17
	sw	a5,12(sp)
	.loc 1 259 32
	add	a1,a1,a5
.LVL1:
	.loc 1 260 24
	lw	a5,0(a5)
	.loc 1 258 17
	sw	a0,16(sp)
	.loc 1 259 16
	sw	a1,20(sp)
	.loc 1 263 3
	lui	a0,%hi(read_word_cb)
.LVL2:
	lui	a1,%hi(cd_base64_wirte_block)
	.loc 1 261 15
	sw	a2,28(sp)
	.loc 1 263 3
	addi	a1,a1,%lo(cd_base64_wirte_block)
	addi	a2,sp,8
.LVL3:
	addi	a0,a0,%lo(read_word_cb)
	.loc 1 255 26
	sw	zero,8(sp)
	.loc 1 257 3 is_stmt 1
	.loc 1 258 3
	.loc 1 259 3
	.loc 1 260 3
	.loc 1 260 24 is_stmt 0
	sw	a5,24(sp)
	.loc 1 261 3 is_stmt 1
	.loc 1 263 3
	call	utils_base64_encode_stream
.LVL4:
	.loc 1 264 1 is_stmt 0
	lw	ra,44(sp)
	.cfi_restore 1
	addi	sp,sp,48
	.cfi_def_cfa_offset 0
	jr	ra
	.cfi_endproc
.LFE12:
	.size	dump_base64_word, .-dump_base64_word
	.section	.text.dump_wifi_reg_others,"ax",@progbits
	.align	1
	.type	dump_wifi_reg_others, @function
dump_wifi_reg_others:
.LFB16:
	.loc 1 352 99 is_stmt 1
	.cfi_startproc
.LVL5:
	.loc 1 353 3
	.loc 1 352 99 is_stmt 0
	addi	sp,sp,-80
	.cfi_def_cfa_offset 80
	sw	s0,72(sp)
	.loc 1 353 26
	li	a1,0
.LVL6:
	.cfi_offset 8, -8
	.loc 1 352 99
	mv	s0,a2
	.loc 1 353 26
	addi	a0,sp,8
.LVL7:
	li	a2,24
.LVL8:
	.loc 1 352 99
	sw	ra,76(sp)
	.cfi_offset 1, -4
	.loc 1 353 26
	call	memset
.LVL9:
	.loc 1 354 3 is_stmt 1
	.loc 1 356 3
.LBB151:
.LBB152:
	.loc 1 278 5
	.loc 1 281 5
.LBB153:
.LBB154:
	.loc 1 268 5
	.loc 1 268 12 is_stmt 0
	li	a5,1073745920
	addi	a5,a5,512
	lw	a3,32(a5)
.LVL10:
.LBE154:
.LBE153:
	.loc 1 282 5 is_stmt 1
	.loc 1 282 9 is_stmt 0
	li	a4,268435456
	addi	a2,a4,-1
	and	a3,a3,a2
.LVL11:
	.loc 1 283 5 is_stmt 1
	.loc 1 283 9 is_stmt 0
	or	a3,a3,a4
.LVL12:
	.loc 1 284 5 is_stmt 1
.LBB155:
.LBB156:
	.loc 1 273 5
	.loc 1 273 38 is_stmt 0
	sw	a3,32(a5)
.LVL13:
.LBE156:
.LBE155:
	.loc 1 286 5 is_stmt 1
.LBB157:
.LBB158:
	.loc 1 268 5
	.loc 1 268 12 is_stmt 0
	lw	a4,36(a5)
.LVL14:
.LBE158:
.LBE157:
	.loc 1 288 5 is_stmt 1
.LBB159:
.LBB160:
	.loc 1 268 5
	.loc 1 268 12 is_stmt 0
	lw	a4,32(a5)
.LVL15:
.LBE160:
.LBE159:
	.loc 1 289 5 is_stmt 1
	.loc 1 290 9 is_stmt 0
	li	a3,536870912
.LBE152:
.LBE151:
	.loc 1 363 3
	lui	a0,%hi(read_word_cb)
.LBB242:
.LBB237:
	.loc 1 289 9
	and	a4,a4,a2
.LVL16:
	.loc 1 290 5 is_stmt 1
	.loc 1 290 9 is_stmt 0
	or	a4,a4,a3
.LVL17:
	.loc 1 291 5 is_stmt 1
.LBB161:
.LBB162:
	.loc 1 273 5
	.loc 1 273 38 is_stmt 0
	sw	a4,32(a5)
.LVL18:
.LBE162:
.LBE161:
	.loc 1 293 5 is_stmt 1
.LBB163:
.LBB164:
	.loc 1 268 5
	.loc 1 268 12 is_stmt 0
	lw	a5,36(a5)
.LVL19:
.LBE164:
.LBE163:
	.loc 1 294 5 is_stmt 1
	.loc 1 303 5 is_stmt 0
	li	a2,-65536
	addi	a1,a2,255
	.loc 1 294 46
	srli	a4,a5,28
	.loc 1 295 46
	srli	a5,a5,25
.LVL20:
	.loc 1 295 53
	andi	a5,a5,3
	.loc 1 295 12
	sw	a5,36(sp)
	.loc 1 294 53
	andi	a4,a4,3
.LBB165:
.LBB166:
	.loc 1 268 12
	li	a5,1152385024
.LBE166:
.LBE165:
	.loc 1 294 12
	sw	a4,32(sp)
	.loc 1 295 5 is_stmt 1
	.loc 1 298 5
.LVL21:
.LBB168:
.LBB167:
	.loc 1 268 5
	.loc 1 268 12 is_stmt 0
	addi	a5,a5,1280
	lw	a4,0(a5)
.LVL22:
.LBE167:
.LBE168:
.LBE237:
.LBE242:
	.loc 1 363 3
	addi	a0,a0,%lo(read_word_cb)
.LBB243:
.LBB238:
	.loc 1 298 12
	sw	a4,40(sp)
	.loc 1 299 5 is_stmt 1
.LVL23:
.LBB169:
.LBB170:
	.loc 1 268 5
	.loc 1 268 12 is_stmt 0
	lw	a4,4(a5)
.LVL24:
.LBE170:
.LBE169:
	.loc 1 299 12
	sw	a4,44(sp)
	.loc 1 302 5 is_stmt 1
.LVL25:
.LBB171:
.LBB172:
	.loc 1 268 5
	.loc 1 268 12 is_stmt 0
	lw	a4,16(a5)
.LVL26:
.LBE172:
.LBE171:
	.loc 1 302 49
	andi	a4,a4,-256
	.loc 1 302 5
	ori	a4,a4,49
.LVL27:
.LBB173:
.LBB174:
	.loc 1 273 5 is_stmt 1
	.loc 1 273 38 is_stmt 0
	sw	a4,16(a5)
.LVL28:
.LBE174:
.LBE173:
	.loc 1 303 5 is_stmt 1
.LBB175:
.LBB176:
	.loc 1 268 5
	.loc 1 268 12 is_stmt 0
	lw	a3,16(a5)
.LVL29:
.LBE176:
.LBE175:
	.loc 1 303 5
	and	a3,a3,a1
.LVL30:
.LBB177:
.LBB178:
	.loc 1 273 5 is_stmt 1
	.loc 1 273 38 is_stmt 0
	sw	a3,16(a5)
.LVL31:
.LBE178:
.LBE177:
	.loc 1 304 5 is_stmt 1
.LBB179:
.LBB180:
	.loc 1 268 5
	.loc 1 268 12 is_stmt 0
	lw	a4,12(a5)
.LVL32:
.LBE180:
.LBE179:
	.loc 1 304 12
	sw	a4,48(sp)
	.loc 1 306 5 is_stmt 1
.LVL33:
.LBB181:
.LBB182:
	.loc 1 268 5
	.loc 1 268 12 is_stmt 0
	lw	a3,16(a5)
.LVL34:
.LBE182:
.LBE181:
	.loc 1 306 49
	andi	a3,a3,-256
	.loc 1 306 5
	ori	a3,a3,11
.LVL35:
.LBB183:
.LBB184:
	.loc 1 273 5 is_stmt 1
	.loc 1 273 38 is_stmt 0
	sw	a3,16(a5)
.LVL36:
.LBE184:
.LBE183:
	.loc 1 307 5 is_stmt 1
.LBB185:
.LBB186:
	.loc 1 268 5
	.loc 1 268 12 is_stmt 0
	lw	a4,16(a5)
.LVL37:
.LBE186:
.LBE185:
	.loc 1 307 5
	li	a3,12288
	addi	a3,a3,-256
	.loc 1 307 49
	and	a4,a4,a1
	.loc 1 307 5
	or	a4,a4,a3
.LVL38:
.LBB187:
.LBB188:
	.loc 1 273 5 is_stmt 1
	.loc 1 273 38 is_stmt 0
	sw	a4,16(a5)
.LVL39:
.LBE188:
.LBE187:
	.loc 1 308 5 is_stmt 1
.LBB189:
.LBB190:
	.loc 1 268 5
	.loc 1 268 12 is_stmt 0
	lw	a5,12(a5)
.LVL40:
.LBE190:
.LBE189:
.LBB191:
.LBB192:
	.loc 1 273 38
	li	a4,1150287872
.LBE192:
.LBE191:
.LBB194:
.LBB195:
	.loc 1 268 12
	li	a3,1073741824
.LBE195:
.LBE194:
	.loc 1 308 12
	sw	a5,52(sp)
	.loc 1 311 5 is_stmt 1
.LVL41:
.LBB197:
.LBB193:
	.loc 1 273 5
	.loc 1 273 38 is_stmt 0
	li	a5,826
	sw	a5,116(a4)
.LVL42:
.LBE193:
.LBE197:
	.loc 1 312 5 is_stmt 1
.LBB198:
.LBB199:
	.loc 1 268 5
	.loc 1 268 12 is_stmt 0
	lw	a5,104(a4)
.LVL43:
.LBE199:
.LBE198:
.LBE238:
.LBE243:
	.loc 1 363 3
	lui	a1,%hi(cd_base64_wirte_block)
	addi	a1,a1,%lo(cd_base64_wirte_block)
.LBB244:
.LBB239:
	.loc 1 312 49
	and	a5,a5,a2
	.loc 1 312 5
	ori	a5,a5,20
.LVL44:
.LBB200:
.LBB201:
	.loc 1 273 5 is_stmt 1
	.loc 1 273 38 is_stmt 0
	sw	a5,104(a4)
.LVL45:
.LBE201:
.LBE200:
	.loc 1 314 5 is_stmt 1
.LBB202:
.LBB196:
	.loc 1 268 5
	.loc 1 268 12 is_stmt 0
	addi	a5,a3,128
	lw	a2,80(a5)
.LVL46:
.LBE196:
.LBE202:
	.loc 1 315 5 is_stmt 1
	.loc 1 316 5
	.loc 1 317 5
.LBB203:
.LBB204:
	.loc 1 273 5
.LBE204:
.LBE203:
.LBB206:
.LBB207:
	.loc 1 273 38 is_stmt 0
	addi	a3,a3,4
.LBE207:
.LBE206:
.LBB209:
.LBB205:
	li	a2,4
	sw	a2,80(a5)
.LVL47:
.LBE205:
.LBE209:
	.loc 1 319 5 is_stmt 1
.LBB210:
.LBB211:
	.loc 1 268 5
	.loc 1 268 12 is_stmt 0
	lw	a2,84(a5)
.LVL48:
.LBE211:
.LBE210:
	.loc 1 320 5 is_stmt 1
	.loc 1 321 5
	.loc 1 322 5
.LBB212:
.LBB208:
	.loc 1 273 5
	.loc 1 273 38 is_stmt 0
	sw	a3,84(a5)
.LVL49:
.LBE208:
.LBE212:
	.loc 1 324 5 is_stmt 1
.LBB213:
.LBB214:
	.loc 1 268 5
	.loc 1 268 12 is_stmt 0
	lw	a3,88(a5)
.LVL50:
.LBE214:
.LBE213:
	.loc 1 325 5 is_stmt 1
	.loc 1 326 5
	.loc 1 327 5
.LBB215:
.LBB216:
	.loc 1 273 5
.LBE216:
.LBE215:
.LBE239:
.LBE244:
	.loc 1 363 3 is_stmt 0
	addi	a2,sp,8
.LBB245:
.LBB240:
.LBB218:
.LBB217:
	.loc 1 273 38
	li	a3,-2147483648
	addi	a3,a3,4
	sw	a3,88(a5)
.LVL51:
.LBE217:
.LBE218:
	.loc 1 329 5 is_stmt 1
.LBB219:
.LBB220:
	.loc 1 268 5
	.loc 1 268 12 is_stmt 0
	lw	a3,92(a5)
.LVL52:
.LBE220:
.LBE219:
	.loc 1 330 5 is_stmt 1
	.loc 1 331 5
	.loc 1 332 5
.LBB221:
.LBB222:
	.loc 1 273 5
	.loc 1 273 38 is_stmt 0
	li	a3,-1073741824
	addi	a3,a3,4
	sw	a3,92(a5)
.LVL53:
.LBE222:
.LBE221:
	.loc 1 334 5 is_stmt 1
.LBB223:
.LBB224:
	.loc 1 268 5
	.loc 1 268 12 is_stmt 0
	lw	a3,96(a5)
.LVL54:
.LBE224:
.LBE223:
	.loc 1 335 5 is_stmt 1
	.loc 1 335 9 is_stmt 0
	andi	a3,a3,-2
.LVL55:
	.loc 1 336 5 is_stmt 1
	.loc 1 337 5
.LBB225:
.LBB226:
	.loc 1 273 5
	.loc 1 273 38 is_stmt 0
	sw	a3,96(a5)
.LVL56:
.LBE226:
.LBE225:
	.loc 1 338 5 is_stmt 1
.LBB227:
.LBB228:
	.loc 1 268 5
	.loc 1 268 12 is_stmt 0
	lw	a3,96(a5)
.LVL57:
.LBE228:
.LBE227:
	.loc 1 339 5 is_stmt 1
	.loc 1 339 46 is_stmt 0
	srli	a3,a3,1
.LVL58:
	.loc 1 339 12
	sw	a3,56(sp)
	.loc 1 342 5 is_stmt 1
.LVL59:
.LBB229:
.LBB230:
	.loc 1 273 5
	.loc 1 273 38 is_stmt 0
	li	a3,4096
	addi	a3,a3,-1271
	sw	a3,116(a4)
.LVL60:
.LBE230:
.LBE229:
	.loc 1 343 5 is_stmt 1
.LBB231:
.LBB232:
	.loc 1 268 5
	.loc 1 268 12 is_stmt 0
	lw	a4,96(a5)
.LVL61:
.LBE232:
.LBE231:
	.loc 1 344 5 is_stmt 1
	.loc 1 344 9 is_stmt 0
	andi	a4,a4,-2
.LVL62:
	.loc 1 345 5 is_stmt 1
	.loc 1 346 5
.LBB233:
.LBB234:
	.loc 1 273 5
	.loc 1 273 38 is_stmt 0
	sw	a4,96(a5)
.LVL63:
.LBE234:
.LBE233:
	.loc 1 348 5 is_stmt 1
.LBB235:
.LBB236:
	.loc 1 268 5
	.loc 1 268 12 is_stmt 0
	lw	a5,96(a5)
.LVL64:
.LBE236:
.LBE235:
	.loc 1 349 5 is_stmt 1
.LBE240:
.LBE245:
	.loc 1 361 15 is_stmt 0
	sw	s0,28(sp)
.LBB246:
.LBB241:
	.loc 1 349 46
	srli	a5,a5,1
.LVL65:
	.loc 1 349 12
	sw	a5,60(sp)
.LVL66:
.LBE241:
.LBE246:
	.loc 1 357 3 is_stmt 1
	.loc 1 357 17 is_stmt 0
	addi	a5,sp,32
	sw	a5,12(sp)
	.loc 1 358 3 is_stmt 1
	.loc 1 358 17 is_stmt 0
	sw	a5,16(sp)
	.loc 1 359 3 is_stmt 1
	.loc 1 359 16 is_stmt 0
	addi	a5,sp,64
	sw	a5,20(sp)
	.loc 1 360 3 is_stmt 1
	.loc 1 360 24 is_stmt 0
	lw	a5,32(sp)
	sw	a5,24(sp)
	.loc 1 361 3 is_stmt 1
	.loc 1 363 3
	call	utils_base64_encode_stream
.LVL67:
	.loc 1 364 1 is_stmt 0
	lw	ra,76(sp)
	.cfi_restore 1
	lw	s0,72(sp)
	.cfi_restore 8
.LVL68:
	addi	sp,sp,80
	.cfi_def_cfa_offset 0
	jr	ra
	.cfi_endproc
.LFE16:
	.size	dump_wifi_reg_others, .-dump_wifi_reg_others
	.section	.text.dump_base64_byte,"ax",@progbits
	.align	1
	.type	dump_base64_byte, @function
dump_base64_byte:
.LFB10:
	.loc 1 209 95 is_stmt 1
	.cfi_startproc
.LVL69:
	.loc 1 210 3
	.loc 1 209 95 is_stmt 0
	addi	sp,sp,-32
	.cfi_def_cfa_offset 32
	.loc 1 212 17
	sw	a0,4(sp)
	.loc 1 213 34
	add	a0,a0,a1
.LVL70:
	.loc 1 213 16
	sw	a0,8(sp)
	.loc 1 216 3
	lui	a1,%hi(cd_base64_wirte_block)
.LVL71:
	lui	a0,%hi(read_byte_cb)
	.loc 1 214 15
	sw	a2,12(sp)
	.loc 1 216 3
	addi	a1,a1,%lo(cd_base64_wirte_block)
	mv	a2,sp
.LVL72:
	addi	a0,a0,%lo(read_byte_cb)
	.loc 1 209 95
	sw	ra,28(sp)
	.cfi_offset 1, -4
	.loc 1 210 26
	sw	zero,0(sp)
	.loc 1 212 3 is_stmt 1
	.loc 1 213 3
	.loc 1 214 3
	.loc 1 216 3
	call	utils_base64_encode_stream
.LVL73:
	.loc 1 217 1 is_stmt 0
	lw	ra,28(sp)
	.cfi_restore 1
	addi	sp,sp,32
	.cfi_def_cfa_offset 0
	jr	ra
	.cfi_endproc
.LFE10:
	.size	dump_base64_byte, .-dump_base64_byte
	.section	.text.cd_putchar,"ax",@progbits
	.align	1
	.type	cd_putchar, @function
cd_putchar:
.LFB6:
	.loc 1 161 53 is_stmt 1
	.cfi_startproc
.LVL74:
	.loc 1 162 3
	.loc 1 163 3
	.loc 1 161 53 is_stmt 0
	mv	a2,a1
	.loc 1 163 3
	mv	a1,a0
.LVL75:
	lui	a0,%hi(uart_stdio)
.LVL76:
	addi	a0,a0,%lo(uart_stdio)
	tail	hosal_uart_send
.LVL77:
	.cfi_endproc
.LFE6:
	.size	cd_putchar, .-cd_putchar
	.section	.rodata.bl_coredump_print.str1.4,"aMS",@progbits,1
	.align	2
.LC0:
	.string	"\r\n------ DATA BEGIN "
	.align	2
.LC1:
	.string	"@"
	.align	2
.LC2:
	.string	" ------\r\n"
	.align	2
.LC3:
	.string	"\r\n------ END "
	.section	.text.bl_coredump_print,"ax",@progbits
	.align	1
	.type	bl_coredump_print, @function
bl_coredump_print:
.LFB17:
	.loc 1 371 100 is_stmt 1
	.cfi_startproc
.LVL78:
	.loc 1 372 3
	.loc 1 373 3
	.loc 1 375 3
	.loc 1 376 3
	.loc 1 371 100 is_stmt 0
	addi	sp,sp,-64
	.cfi_def_cfa_offset 64
	.loc 1 380 9
	lui	a5,%hi(_sp_base)
	.loc 1 371 100
	sw	s0,56(sp)
	sw	s1,52(sp)
	sw	s2,48(sp)
	sw	s3,44(sp)
	sw	ra,60(sp)
	sw	s4,40(sp)
	sw	s5,36(sp)
	sw	s6,32(sp)
	.cfi_offset 8, -8
	.cfi_offset 9, -12
	.cfi_offset 18, -16
	.cfi_offset 19, -20
	.cfi_offset 1, -4
	.cfi_offset 20, -24
	.cfi_offset 21, -28
	.cfi_offset 22, -32
	.loc 1 371 100
	mv	s0,a0
	mv	s1,a1
	mv	s3,a2
	mv	s2,a3
	.loc 1 376 8
	sw	zero,24(sp)
	sw	zero,28(sp)
	.loc 1 380 3 is_stmt 1
	.loc 1 380 9 is_stmt 0
	addi	a5,a5,%lo(_sp_base)
.LBB247:
.LBB248:
	.loc 1 140 3
 #APP
# 140 "/mnt/d/GitHub/bl_iot_sdk_for_aithinker/components/stage/coredump/bl_coredump.c" 1
	add a4, x0, sp
# 0 "" 2
 #NO_APP
.L9:
.LBE248:
.LBE247:
	.loc 1 381 5 is_stmt 1 discriminator 1
	.loc 1 380 9 discriminator 1
.LBB250:
.LBB249:
	.loc 1 139 3 discriminator 1
	.loc 1 140 3 discriminator 1
.LVL79:
	.loc 1 142 3 discriminator 1
.LBE249:
.LBE250:
	.loc 1 380 9 is_stmt 0 discriminator 1
	bleu	a4,a5,.L9
	.loc 1 384 3 is_stmt 1
	lui	s4,%hi(.LC0)
	addi	a0,s4,%lo(.LC0)
.LVL80:
	call	strlen
.LVL81:
	mv	a1,a0
	addi	a0,s4,%lo(.LC0)
	call	cd_putchar
.LVL82:
	.loc 1 387 3
	.loc 1 387 100 is_stmt 0
	srli	a6,s0,24
	.loc 1 387 24
	slli	a4,s0,24
	.loc 1 387 78
	or	a4,a4,a6
	.loc 1 387 48
	li	s6,16711680
	slli	a6,s0,8
	and	a6,a6,s6
	.loc 1 387 73
	li	s4,65536
	.loc 1 387 78
	or	a6,a4,a6
	.loc 1 387 73
	addi	s4,s4,-256
	srli	a4,s0,8
	and	a4,a4,s4
	.loc 1 387 78
	or	a4,a6,a4
	.loc 1 388 3
	li	a2,4
	addi	a1,sp,20
	addi	a0,sp,24
	.loc 1 387 7
	sw	a4,20(sp)
	.loc 1 388 3 is_stmt 1
	call	utils_bin2hex
.LVL83:
	.loc 1 389 3
	li	a1,8
	addi	a0,sp,24
	call	cd_putchar
.LVL84:
	.loc 1 391 3
	lui	s5,%hi(.LC1)
	li	a1,1
	addi	a0,s5,%lo(.LC1)
	call	cd_putchar
.LVL85:
	.loc 1 393 3
	.loc 1 393 96 is_stmt 0
	srli	a4,s1,24
	.loc 1 393 23
	slli	a5,s1,24
	.loc 1 393 75
	or	a5,a5,a4
	.loc 1 393 46
	slli	a4,s1,8
	and	a4,a4,s6
	.loc 1 393 75
	or	a5,a5,a4
	.loc 1 393 70
	srli	a4,s1,8
	and	s4,a4,s4
	.loc 1 393 75
	or	a5,a5,s4
	.loc 1 394 3
	addi	a1,sp,20
	li	a2,4
	addi	a0,sp,24
	.loc 1 393 7
	sw	a5,20(sp)
	.loc 1 394 3 is_stmt 1
	call	utils_bin2hex
.LVL86:
	.loc 1 395 3
	li	a1,8
	addi	a0,sp,24
	call	cd_putchar
.LVL87:
	.loc 1 397 3
	.loc 1 397 6 is_stmt 0
	beq	s3,zero,.L10
	.loc 1 398 5 is_stmt 1
	li	a1,1
	addi	a0,s5,%lo(.LC1)
	call	cd_putchar
.LVL88:
	.loc 1 399 5
	mv	a0,s3
	call	strlen
.LVL89:
	mv	a1,a0
	mv	a0,s3
	call	cd_putchar
.LVL90:
.L10:
	.loc 1 402 3
	lui	s3,%hi(.LC2)
.LVL91:
	addi	a0,s3,%lo(.LC2)
	call	strlen
.LVL92:
	mv	a1,a0
	addi	a0,s3,%lo(.LC2)
	call	cd_putchar
.LVL93:
	.loc 1 405 3
	addi	a0,sp,12
	call	utils_crc32_stream_init
.LVL94:
	.loc 1 408 3
	.loc 1 408 20 is_stmt 0
	slli	a3,s2,2
	lui	s2,%hi(.LANCHOR0)
.LVL95:
	addi	s2,s2,%lo(.LANCHOR0)
	add	s2,s2,a3
	.loc 1 408 3
	lw	a5,0(s2)
	addi	a2,sp,12
	mv	a1,s1
	mv	a0,s0
	jalr	a5
.LVL96:
	.loc 1 411 3 is_stmt 1
	lui	s0,%hi(.LC3)
.LVL97:
	addi	a0,s0,%lo(.LC3)
	call	strlen
.LVL98:
	mv	a1,a0
	addi	a0,s0,%lo(.LC3)
	call	cd_putchar
.LVL99:
	.loc 1 413 3
	.loc 1 413 9 is_stmt 0
	addi	a0,sp,12
	call	utils_crc32_stream_results
.LVL100:
	.loc 1 413 7
	sw	a0,16(sp)
	.loc 1 415 3 is_stmt 1
	addi	a2,sp,12
	addi	a0,sp,16
	li	a1,4
	call	dump_base64_word
.LVL101:
	.loc 1 417 3
	addi	a0,s3,%lo(.LC2)
	li	a1,10
	call	cd_putchar
.LVL102:
	.loc 1 418 1 is_stmt 0
	lw	ra,60(sp)
	.cfi_restore 1
	lw	s0,56(sp)
	.cfi_restore 8
	lw	s1,52(sp)
	.cfi_restore 9
.LVL103:
	lw	s2,48(sp)
	.cfi_restore 18
	lw	s3,44(sp)
	.cfi_restore 19
	lw	s4,40(sp)
	.cfi_restore 20
	lw	s5,36(sp)
	.cfi_restore 21
	lw	s6,32(sp)
	.cfi_restore 22
	addi	sp,sp,64
	.cfi_def_cfa_offset 0
	jr	ra
	.cfi_endproc
.LFE17:
	.size	bl_coredump_print, .-bl_coredump_print
	.section	.text.read_word_cb,"ax",@progbits
	.align	1
	.type	read_word_cb, @function
read_word_cb:
.LFB11:
	.loc 1 231 54 is_stmt 1
	.cfi_startproc
.LVL104:
	.loc 1 232 3
	.loc 1 233 3
	.loc 1 235 3
	.loc 1 235 10 is_stmt 0
	lw	a4,8(a1)
	.loc 1 235 6
	lw	a3,12(a1)
	bgeu	a4,a3,.L19
	.loc 1 231 54
	addi	sp,sp,-16
	.cfi_def_cfa_offset 16
	sw	ra,12(sp)
	.cfi_offset 1, -4
	.loc 1 237 8
	lw	a2,4(a1)
	.loc 1 236 10
	andi	a3,a4,-4
	mv	a5,a1
	.loc 1 236 5 is_stmt 1
.LVL105:
	.loc 1 237 5
	.loc 1 237 8 is_stmt 0
	beq	a2,a3,.L18
	.loc 1 238 7 is_stmt 1
	.loc 1 238 22 is_stmt 0
	sw	a3,4(a1)
	.loc 1 239 7 is_stmt 1
	.loc 1 239 31 is_stmt 0
	lw	a3,0(a3)
.LVL106:
	.loc 1 239 29
	sw	a3,16(a1)
.LVL107:
.L18:
	.loc 1 242 5 is_stmt 1
	.loc 1 242 37 is_stmt 0
	andi	a4,a4,3
.LVL108:
	.loc 1 242 21
	add	a4,a5,a4
	lbu	a4,16(a4)
	.loc 1 242 11
	sb	a4,0(a0)
	.loc 1 243 5 is_stmt 1
	.loc 1 243 19 is_stmt 0
	lw	a4,8(a5)
	addi	a4,a4,1
	sw	a4,8(a5)
	.loc 1 246 5 is_stmt 1
	lbu	a1,0(a0)
.LVL109:
	lw	a0,20(a5)
.LVL110:
	call	utils_crc32_stream_feed
.LVL111:
	.loc 1 248 5
	.loc 1 252 1 is_stmt 0
	lw	ra,12(sp)
	.cfi_restore 1
	.loc 1 248 12
	li	a0,0
	.loc 1 252 1
	addi	sp,sp,16
	.cfi_def_cfa_offset 0
	jr	ra
.LVL112:
.L19:
	.loc 1 250 12
	li	a0,1
.LVL113:
	.loc 1 252 1
	ret
	.cfi_endproc
.LFE11:
	.size	read_word_cb, .-read_word_cb
	.section	.text.read_byte_cb,"ax",@progbits
	.align	1
	.type	read_byte_cb, @function
read_byte_cb:
.LFB9:
	.loc 1 195 54 is_stmt 1
	.cfi_startproc
.LVL114:
	.loc 1 196 3
	.loc 1 197 3
	.loc 1 197 10 is_stmt 0
	lw	a4,4(a1)
	.loc 1 197 6
	lw	a3,8(a1)
	bgeu	a4,a3,.L26
	.loc 1 195 54
	addi	sp,sp,-16
	.cfi_def_cfa_offset 16
	sw	ra,12(sp)
	.cfi_offset 1, -4
	.loc 1 198 39
	addi	a3,a4,1
	sw	a3,4(a1)
	mv	a5,a1
	.loc 1 198 5 is_stmt 1
	.loc 1 198 13 is_stmt 0
	lbu	a1,0(a4)
.LVL115:
	.loc 1 198 11
	sb	a1,0(a0)
	.loc 1 201 5 is_stmt 1
	lw	a0,12(a5)
.LVL116:
	call	utils_crc32_stream_feed
.LVL117:
	.loc 1 203 5
	.loc 1 207 1 is_stmt 0
	lw	ra,12(sp)
	.cfi_restore 1
	.loc 1 203 12
	li	a0,0
	.loc 1 207 1
	addi	sp,sp,16
	.cfi_def_cfa_offset 0
	jr	ra
.LVL118:
.L26:
	.loc 1 205 12
	li	a0,1
.LVL119:
	.loc 1 207 1
	ret
	.cfi_endproc
.LFE9:
	.size	read_byte_cb, .-read_byte_cb
	.section	.text.dump_ascii,"ax",@progbits
	.align	1
	.type	dump_ascii, @function
dump_ascii:
.LFB8:
	.loc 1 176 89 is_stmt 1
	.cfi_startproc
.LVL120:
	.loc 1 178 3
	.loc 1 176 89 is_stmt 0
	addi	sp,sp,-16
	.cfi_def_cfa_offset 16
	sw	s0,8(sp)
	sw	s1,4(sp)
	sw	s2,0(sp)
	sw	ra,12(sp)
	.cfi_offset 8, -8
	.cfi_offset 9, -12
	.cfi_offset 18, -16
	.cfi_offset 1, -4
	.loc 1 176 89
	mv	s0,a0
	mv	s2,a2
	.loc 1 178 12
	li	s1,0
.LVL121:
.L32:
	.loc 1 178 17 is_stmt 1 discriminator 1
	.loc 1 178 23 is_stmt 0 discriminator 1
	mv	a0,s0
	call	strlen
.LVL122:
	.loc 1 178 3 discriminator 1
	bgtu	a0,s1,.L33
	.loc 1 182 3 is_stmt 1
	mv	a0,s0
	call	strlen
.LVL123:
	mv	a1,a0
	mv	a0,s0
	.loc 1 183 1 is_stmt 0
	lw	s0,8(sp)
	.cfi_remember_state
	.cfi_restore 8
.LVL124:
	lw	ra,12(sp)
	.cfi_restore 1
	lw	s1,4(sp)
	.cfi_restore 9
.LVL125:
	lw	s2,0(sp)
	.cfi_restore 18
.LVL126:
	addi	sp,sp,16
	.cfi_def_cfa_offset 0
	.loc 1 182 3
	tail	cd_putchar
.LVL127:
.L33:
	.cfi_restore_state
	.loc 1 179 5 is_stmt 1 discriminator 3
	add	a5,s0,s1
	lbu	a1,0(a5)
	mv	a0,s2
	.loc 1 178 54 is_stmt 0 discriminator 3
	addi	s1,s1,1
.LVL128:
	.loc 1 179 5 discriminator 3
	call	utils_crc32_stream_feed
.LVL129:
	.loc 1 178 51 is_stmt 1 discriminator 3
	j	.L32
	.cfi_endproc
.LFE8:
	.size	dump_ascii, .-dump_ascii
	.section	.rodata.cd_base64_wirte_block.str1.4,"aMS",@progbits,1
	.align	2
.LC4:
	.string	"\r\n"
	.section	.text.cd_base64_wirte_block,"ax",@progbits
	.align	1
	.type	cd_base64_wirte_block, @function
cd_base64_wirte_block:
.LFB7:
	.loc 1 166 71
	.cfi_startproc
.LVL130:
	.loc 1 167 3
	.loc 1 168 3
	.loc 1 166 71 is_stmt 0
	addi	sp,sp,-16
	.cfi_def_cfa_offset 16
	sw	s1,4(sp)
	.cfi_offset 9, -12
	.loc 1 169 3
	lui	s1,%hi(uart_stdio)
	.loc 1 166 71
	sw	s0,8(sp)
	.loc 1 169 3
	li	a2,4
	.cfi_offset 8, -8
	.loc 1 166 71
	mv	s0,a1
.LVL131:
	.loc 1 169 3 is_stmt 1
	mv	a1,a0
.LVL132:
	addi	a0,s1,%lo(uart_stdio)
.LVL133:
	.loc 1 166 71 is_stmt 0
	sw	ra,12(sp)
	.cfi_offset 1, -4
	.loc 1 169 3
	call	hosal_uart_send
.LVL134:
	.loc 1 170 3 is_stmt 1
	.loc 1 170 7 is_stmt 0
	lw	a5,0(s0)
	.loc 1 170 6
	li	a4,25
	.loc 1 170 7
	addi	a5,a5,1
	.loc 1 170 6
	sw	a5,0(s0)
	ble	a5,a4,.L35
.LVL135:
.LBB253:
.LBB254:
	.loc 1 171 5 is_stmt 1
	lui	a1,%hi(.LC4)
	li	a2,2
	addi	a1,a1,%lo(.LC4)
	addi	a0,s1,%lo(uart_stdio)
	call	hosal_uart_send
.LVL136:
	.loc 1 172 5
	.loc 1 172 16 is_stmt 0
	sw	zero,0(s0)
.LVL137:
.L35:
.LBE254:
.LBE253:
	.loc 1 174 1
	lw	ra,12(sp)
	.cfi_restore 1
	lw	s0,8(sp)
	.cfi_restore 8
.LVL138:
	lw	s1,4(sp)
	.cfi_restore 9
	addi	sp,sp,16
	.cfi_def_cfa_offset 0
	jr	ra
	.cfi_endproc
.LFE7:
	.size	cd_base64_wirte_block, .-cd_base64_wirte_block
	.section	.text.bl_coredump_parse,"ax",@progbits
	.align	1
	.globl	bl_coredump_parse
	.type	bl_coredump_parse, @function
bl_coredump_parse:
.LFB18:
	.loc 1 425 62 is_stmt 1
	.cfi_startproc
.LVL139:
	.loc 1 426 3
	.loc 1 427 3
	.loc 1 429 3
	.loc 1 425 62 is_stmt 0
	addi	sp,sp,-48
	.cfi_def_cfa_offset 48
	sw	ra,44(sp)
	sw	s0,40(sp)
	sw	s1,36(sp)
	sw	s2,32(sp)
	sw	s3,28(sp)
	sw	s4,24(sp)
	.cfi_offset 1, -4
	.cfi_offset 8, -8
	.cfi_offset 9, -12
	.cfi_offset 18, -16
	.cfi_offset 19, -20
	.cfi_offset 20, -24
	.loc 1 429 11
	lbu	a5,0(a0)
.LVL140:
	.loc 1 431 3 is_stmt 1
	li	a4,100
	beq	a5,a4,.L39
	li	a4,120
	bne	a5,a4,.L38
.LBB258:
.LBB259:
.LBB260:
	.loc 1 434 26 is_stmt 0
	sw	zero,12(sp)
	.loc 1 436 15
	addi	a5,a1,-1
.LVL141:
	.loc 1 436 10
	li	s4,7
	mv	s1,a1
.LVL142:
.LBE260:
	.loc 1 433 5 is_stmt 1
.LBB261:
	.loc 1 434 7
	.loc 1 436 7
	.loc 1 436 10 is_stmt 0
	bleu	a5,s4,.L38
	mv	s0,a0
	.loc 1 437 9 is_stmt 1
	li	a3,4
	addi	a2,sp,8
	li	a1,8
.LVL143:
	addi	a0,a0,1
.LVL144:
	call	utils_hex2bin
.LVL145:
	.loc 1 438 9
	.loc 1 438 31 is_stmt 0
	lw	a5,8(sp)
	.loc 1 438 55
	li	s3,16711680
	.loc 1 438 107
	srli	a3,a5,24
	.loc 1 438 31
	slli	a4,a5,24
	.loc 1 438 85
	or	a4,a4,a3
	.loc 1 438 55
	slli	a3,a5,8
	and	a3,a3,s3
	.loc 1 438 85
	or	a3,a4,a3
	.loc 1 438 80
	srli	a4,a5,8
	li	a5,65536
	addi	s2,a5,-256
	and	a4,a4,s2
	.loc 1 438 85
	or	a4,a3,a4
	.loc 1 438 14
	sw	a4,8(sp)
	.loc 1 439 9 is_stmt 1
.LVL146:
	.loc 1 441 9
	.loc 1 442 9
	.loc 1 442 12 is_stmt 0
	lbu	a4,9(s0)
	li	a5,108
	bne	a4,a5,.L42
	.loc 1 442 36
	addi	s1,s1,-10
.LVL147:
	.loc 1 442 28
	bleu	s1,s4,.L42
	.loc 1 443 11 is_stmt 1
	li	a3,4
	addi	a2,sp,12
	li	a1,8
	addi	a0,s0,10
	call	utils_hex2bin
.LVL148:
	.loc 1 444 11
	.loc 1 444 37 is_stmt 0
	lw	a5,12(sp)
	.loc 1 444 119
	srli	a3,a5,24
	.loc 1 444 37
	slli	a4,a5,24
	.loc 1 444 95
	or	a4,a4,a3
	.loc 1 444 63
	slli	a3,a5,8
	and	a3,a3,s3
	.loc 1 444 90
	srli	a5,a5,8
	.loc 1 444 95
	or	a4,a4,a3
	.loc 1 444 90
	and	a5,a5,s2
	.loc 1 444 95
	or	a5,a4,a5
.LVL149:
.L47:
	.loc 1 446 18
	sw	a5,12(sp)
	.loc 1 448 9 is_stmt 1
	lw	a1,12(sp)
	lw	a0,8(sp)
	li	a3,2
	li	a2,0
	call	bl_coredump_print
.LVL150:
.LBE261:
	.loc 1 450 13
	.loc 1 451 5
.L38:
.LBE259:
.LBE258:
	.loc 1 464 1 is_stmt 0
	lw	ra,44(sp)
	.cfi_remember_state
	.cfi_restore 1
	lw	s0,40(sp)
	.cfi_restore 8
	lw	s1,36(sp)
	.cfi_restore 9
	lw	s2,32(sp)
	.cfi_restore 18
	lw	s3,28(sp)
	.cfi_restore 19
	lw	s4,24(sp)
	.cfi_restore 20
	addi	sp,sp,48
	.cfi_def_cfa_offset 0
	jr	ra
.LVL151:
.L42:
	.cfi_restore_state
.LBB264:
.LBB263:
.LBB262:
	.loc 1 446 11 is_stmt 1
	.loc 1 446 18 is_stmt 0
	li	a5,4096
	j	.L47
.LVL152:
.L39:
	lui	s0,%hi(.LANCHOR1)
	addi	s0,s0,%lo(.LANCHOR1)
	addi	s1,s0,192
.LVL153:
.L44:
.LBE262:
.LBE263:
.LBE264:
	.loc 1 456 9 is_stmt 1 discriminator 3
	lw	a3,8(s0)
	lw	a2,12(s0)
	lw	a1,4(s0)
	lw	a0,0(s0)
	.loc 1 455 7 is_stmt 0 discriminator 3
	addi	s0,s0,16
	.loc 1 456 9 discriminator 3
	call	bl_coredump_print
.LVL154:
	.loc 1 455 63 is_stmt 1 discriminator 3
	.loc 1 455 19 discriminator 3
	.loc 1 455 7 is_stmt 0 discriminator 3
	bne	s0,s1,.L44
	j	.L38
	.cfi_endproc
.LFE18:
	.size	bl_coredump_parse, .-bl_coredump_parse
	.section	.rodata.bl_coredump_run.str1.4,"aMS",@progbits,1
	.align	2
.LC5:
	.string	"\r\n-+-+-+- BFLB COREDUMP v0.0.1 +-+-+-+\r\n"
	.section	.text.bl_coredump_run,"ax",@progbits
	.align	1
	.globl	bl_coredump_run
	.type	bl_coredump_run, @function
bl_coredump_run:
.LFB19:
	.loc 1 471 24 is_stmt 1
	.cfi_startproc
	.loc 1 472 3
	.loc 1 473 3
	.loc 1 471 24 is_stmt 0
	addi	sp,sp,-176
	.cfi_def_cfa_offset 176
	.loc 1 473 11
	li	a2,125
	li	a1,0
	addi	a0,sp,16
	.loc 1 471 24
	sw	ra,172(sp)
	sw	s0,168(sp)
	sw	s1,164(sp)
	.cfi_offset 1, -4
	.cfi_offset 8, -8
	.cfi_offset 9, -12
	.loc 1 477 3
	lui	s0,%hi(.LC5)
	.loc 1 471 24
	sw	s2,160(sp)
	sw	s3,156(sp)
	sw	s4,152(sp)
	.cfi_offset 18, -16
	.cfi_offset 19, -20
	.cfi_offset 20, -24
	.loc 1 473 11
	sw	zero,12(sp)
	call	memset
.LVL155:
	.loc 1 474 3 is_stmt 1
	.loc 1 475 3
	.loc 1 477 3
	addi	a0,s0,%lo(.LC5)
	call	strlen
.LVL156:
	mv	a1,a0
	addi	a0,s0,%lo(.LC5)
	lui	s0,%hi(.LANCHOR1)
	addi	s0,s0,%lo(.LANCHOR1)
	call	cd_putchar
.LVL157:
	.loc 1 480 3
	.loc 1 480 21
	addi	s1,s0,192
.LVL158:
.L49:
	.loc 1 481 5 discriminator 3
	lw	a3,8(s0)
	lw	a2,12(s0)
	lw	a1,4(s0)
	lw	a0,0(s0)
	.loc 1 480 3 is_stmt 0 discriminator 3
	addi	s0,s0,16
.LVL159:
	.loc 1 481 5 discriminator 3
	call	bl_coredump_print
.LVL160:
	.loc 1 480 71 is_stmt 1 discriminator 3
	.loc 1 480 21 discriminator 3
	.loc 1 480 3 is_stmt 0 discriminator 3
	bne	s0,s1,.L49
	li	s0,12
	.loc 1 474 24
	li	s1,0
.LBB267:
.LBB268:
	.loc 1 153 10
	lui	s2,%hi(uart_stdio)
.LBE268:
.LBE267:
	.loc 1 499 10
	li	s3,35
	.loc 1 492 10
	li	s4,38
.LVL161:
.L50:
	.loc 1 484 3 is_stmt 1
	.loc 1 485 5
.LBB270:
.LBB269:
	.loc 1 151 3
	.loc 1 153 3
	.loc 1 153 10 is_stmt 0
	li	a2,1
	addi	a1,sp,11
.LVL162:
	addi	a0,s2,%lo(uart_stdio)
	call	hosal_uart_receive
.LVL163:
.LBE269:
.LBE270:
	.loc 1 485 8
	beq	a0,zero,.L50
.L52:
	.loc 1 490 5 is_stmt 1
	.loc 1 492 13 is_stmt 0
	lbu	a4,11(sp)
	.loc 1 490 5
	bne	s1,zero,.L53
.LVL164:
	.loc 1 492 7 is_stmt 1
	.loc 1 492 10 is_stmt 0
	bne	a4,s4,.L50
	.loc 1 494 17
	li	s0,0
.LVL165:
	.loc 1 493 16
	li	s1,1
	j	.L50
.LVL166:
.L53:
	.loc 1 499 7 is_stmt 1
	.loc 1 501 16 is_stmt 0
	mv	a5,s0
	.loc 1 499 10
	bne	a4,s3,.L54
	.loc 1 500 9 is_stmt 1
.LVL167:
	.loc 1 501 9
	.loc 1 501 26 is_stmt 0
	addi	a5,sp,144
	add	a5,a5,s0
	sb	zero,-132(a5)
	.loc 1 502 9 is_stmt 1
	.loc 1 490 5
	.loc 1 512 7
.LVL168:
	.loc 1 513 7
	mv	a1,s0
	addi	a0,sp,12
	call	bl_coredump_parse
.LVL169:
	.loc 1 514 7
	.loc 1 512 14 is_stmt 0
	li	s1,0
	.loc 1 514 7
	j	.L50
.LVL170:
.L54:
	.loc 1 505 7 is_stmt 1
	.loc 1 505 22 is_stmt 0
	addi	s0,s0,1
.LVL171:
	.loc 1 505 26
	addi	a3,sp,144
	.loc 1 505 22
	andi	s0,s0,0xff
.LVL172:
	.loc 1 505 26
	add	a5,a3,a5
	sb	a4,-132(a5)
	.loc 1 506 7 is_stmt 1
	.loc 1 506 10 is_stmt 0
	sltiu	s1,s0,129
.LVL173:
	j	.L50
	.cfi_endproc
.LFE19:
	.size	bl_coredump_run, .-bl_coredump_run
	.section	.rodata.str1.4,"aMS",@progbits,1
	.align	2
.LC6:
	.string	"ram"
	.align	2
.LC7:
	.string	"wifi_ram"
	.align	2
.LC8:
	.string	"dump 0x24B00000-0x24B0055C"
	.align	2
.LC9:
	.string	"dump 0x24B08000-0x24B08560"
	.align	2
.LC10:
	.string	"dump 0x24C00000-0x24C0003C"
	.align	2
.LC11:
	.string	"dump 0x24C00800-0x24C008BC"
	.align	2
.LC12:
	.string	"dump others reg"
	.align	2
.LC13:
	.string	"dump GLB reg"
	.align	2
.LC14:
	.string	"dump uart1 reg"
	.align	2
.LC15:
	.string	"dump pwm reg"
	.align	2
.LC16:
	.string	"dump PDS reg"
	.align	2
.LC17:
	.string	"dump HBN reg"
	.globl	_$coredump_binary_id$_
	.section	.coredump_binary_id,"aw"
	.align	2
	.type	_$coredump_binary_id$_, @object
	.size	_$coredump_binary_id$_, 4
_$coredump_binary_id$_:
	.word	1667195533
	.section	.rodata.dump_handler_list,"a"
	.align	2
	.set	.LANCHOR0,. + 0
	.type	dump_handler_list, @object
	.size	dump_handler_list, 16
dump_handler_list:
	.word	dump_ascii
	.word	dump_base64_byte
	.word	dump_base64_word
	.word	dump_wifi_reg_others
	.section	.rodata.mem_hdr,"a"
	.align	2
	.set	.LANCHOR1,. + 0
	.type	mem_hdr, @object
	.size	mem_hdr, 192
mem_hdr:
	.word	_ld_ram_addr1
	.word	_ld_ram_size1
	.word	1
	.word	.LC6
	.word	_ld_ram_addr2
	.word	_ld_ram_size2
	.word	1
	.word	.LC7
	.word	615514112
	.word	1372
	.word	2
	.word	.LC8
	.word	615546880
	.word	1376
	.word	2
	.word	.LC9
	.word	616562688
	.word	60
	.word	2
	.word	.LC10
	.word	616564736
	.word	188
	.word	2
	.word	.LC11
	.word	-268435456
	.word	32
	.word	3
	.word	.LC12
	.word	1073741824
	.word	792
	.word	2
	.word	.LC13
	.word	1073783040
	.word	143
	.word	2
	.word	.LC14
	.word	1073783840
	.word	152
	.word	2
	.word	.LC15
	.word	1073800196
	.word	4
	.word	2
	.word	.LC16
	.word	1073803312
	.word	4
	.word	2
	.word	.LC17
	.text
.Letext0:
	.file 2 "/mnt/d/GitHub/bl_iot_sdk_for_aithinker/toolchain/riscv/Linux/lib/gcc/riscv64-unknown-elf/10.2.0/include/stddef.h"
	.file 3 "/mnt/d/GitHub/bl_iot_sdk_for_aithinker/toolchain/riscv/Linux/riscv64-unknown-elf/include/machine/_default_types.h"
	.file 4 "/mnt/d/GitHub/bl_iot_sdk_for_aithinker/toolchain/riscv/Linux/riscv64-unknown-elf/include/sys/_types.h"
	.file 5 "/mnt/d/GitHub/bl_iot_sdk_for_aithinker/toolchain/riscv/Linux/riscv64-unknown-elf/include/sys/_stdint.h"
	.file 6 "/mnt/d/GitHub/bl_iot_sdk_for_aithinker/toolchain/riscv/Linux/riscv64-unknown-elf/include/sys/types.h"
	.file 7 "/mnt/d/GitHub/bl_iot_sdk_for_aithinker/components/platform/hosal/include/hosal_dma.h"
	.file 8 "/mnt/d/GitHub/bl_iot_sdk_for_aithinker/components/platform/hosal/include/hosal_uart.h"
	.file 9 "/mnt/d/GitHub/bl_iot_sdk_for_aithinker/components/utils/include/utils_crc.h"
	.file 10 "/mnt/d/GitHub/bl_iot_sdk_for_aithinker/toolchain/riscv/Linux/riscv64-unknown-elf/include/string.h"
	.file 11 "/mnt/d/GitHub/bl_iot_sdk_for_aithinker/components/utils/include/utils_hex.h"
	.file 12 "/mnt/d/GitHub/bl_iot_sdk_for_aithinker/components/utils/include/utils_base64.h"
	.file 13 "<built-in>"