	.file	"dhcp_server_raw.c"
	.option nopic
	.attribute arch, "rv32i2p0_m2p0_f2p0_c2p0"
	.attribute unaligned_access, 0
	.attribute stack_align, 16
	.text
.Ltext0:
	.cfi_sections	.debug_frame
	.section	.text.dhcp_server_option_find,"ax",@progbits
	.align	1
	.type	dhcp_server_option_find, @function
dhcp_server_option_find:
.LFB9:
	.file 1 "/mnt/d/GitHub/bl_iot_sdk_for_aithinker/components/network/lwip_dhcpd/dhcp_server_raw.c"
	.loc 1 262 1
	.cfi_startproc
.LVL0:
	.loc 1 263 5
	.loc 1 263 11 is_stmt 0
	add	a1,a0,a1
.LVL1:
	.loc 1 264 5 is_stmt 1
	.loc 1 264 24 is_stmt 0
	li	a4,255
.L2:
	.loc 1 264 11 is_stmt 1
	bgeu	a0,a1,.L5
	.loc 1 264 28 is_stmt 0 discriminator 1
	lbu	a5,0(a0)
	.loc 1 264 24 discriminator 1
	bne	a5,a4,.L4
.L5:
	.loc 1 272 11
	li	a0,0
.LVL2:
.L3:
	.loc 1 273 1
	ret
.LVL3:
.L4:
	.loc 1 266 9 is_stmt 1
	.loc 1 266 12 is_stmt 0
	beq	a5,a2,.L3
	.loc 1 270 9 is_stmt 1
	.loc 1 270 20 is_stmt 0
	lbu	a5,1(a0)
	.loc 1 270 13
	addi	a5,a5,2
	add	a0,a0,a5
.LVL4:
	j	.L2
	.cfi_endproc
.LFE9:
	.size	dhcp_server_option_find, .-dhcp_server_option_find
	.section	.text.dhcp_client_find_by_ip,"ax",@progbits
	.align	1
	.type	dhcp_client_find_by_ip, @function
dhcp_client_find_by_ip:
.LFB6:
	.loc 1 136 1 is_stmt 1
	.cfi_startproc
.LVL5:
	.loc 1 137 5
	.loc 1 138 5
	.loc 1 139 5
	.loc 1 142 5
	.loc 1 136 1 is_stmt 0
	addi	sp,sp,-32
	.cfi_def_cfa_offset 32
	sw	s0,24(sp)
	.loc 1 142 5
	li	a2,4
	.cfi_offset 8, -8
	.loc 1 136 1
	mv	s0,a0
	.loc 1 142 5
	addi	a0,sp,12
.LVL6:
	.loc 1 136 1
	sw	ra,28(sp)
	.cfi_offset 1, -4
	.loc 1 142 5
	call	memcpy
.LVL7:
	.loc 1 143 5 is_stmt 1
	.loc 1 143 22 is_stmt 0
	lw	a5,12(sp)
.LVL8:
	.loc 1 144 5 is_stmt 1
	.loc 1 144 15 is_stmt 0
	lw	a0,12(s0)
.LVL9:
.L7:
	.loc 1 144 40 is_stmt 1 discriminator 1
	.loc 1 144 5 is_stmt 0 discriminator 1
	bne	a0,zero,.L9
.L6:
	.loc 1 153 1
	lw	ra,28(sp)
	.cfi_remember_state
	.cfi_restore 1
	lw	s0,24(sp)
	.cfi_restore 8
.LVL10:
	addi	sp,sp,32
	.cfi_def_cfa_offset 0
	jr	ra
.LVL11:
.L9:
	.cfi_restore_state
	.loc 1 146 9 is_stmt 1
	.loc 1 146 12 is_stmt 0
	lw	a4,12(a0)
	beq	a5,a4,.L6
	.loc 1 144 53 is_stmt 1 discriminator 2
	.loc 1 144 58 is_stmt 0 discriminator 2
	lw	a0,0(a0)
.LVL12:
	j	.L7
	.cfi_endproc
.LFE6:
	.size	dhcp_client_find_by_ip, .-dhcp_client_find_by_ip
	.section	.rodata.dhcp_server_recv.str1.4,"aMS",@progbits,1
	.align	2
.LC0:
	.string	"IP Found, but MAC address is NOT the same\r\n"
	.section	.text.dhcp_server_recv,"ax",@progbits
	.align	1
	.type	dhcp_server_recv, @function
dhcp_server_recv:
.LFB10:
	.loc 1 280 1 is_stmt 1
	.cfi_startproc
.LVL13:
	.loc 1 281 5
	.loc 1 282 5
	.loc 1 283 5
	.loc 1 284 5
	.loc 1 285 5
	.loc 1 286 5
	.loc 1 287 5
	.loc 1 288 5
	.loc 1 289 5
	.loc 1 280 1 is_stmt 0
	addi	sp,sp,-64
	.cfi_def_cfa_offset 64
	sw	s0,56(sp)
	sw	s6,32(sp)
	sw	ra,60(sp)
	sw	s1,52(sp)
	sw	s2,48(sp)
	sw	s3,44(sp)
	sw	s4,40(sp)
	sw	s5,36(sp)
	sw	s7,28(sp)
	sw	s8,24(sp)
	sw	s9,20(sp)
	.cfi_offset 8, -8
	.cfi_offset 22, -32
	.cfi_offset 1, -4
	.cfi_offset 9, -12
	.cfi_offset 18, -16
	.cfi_offset 19, -20
	.cfi_offset 20, -24
	.cfi_offset 21, -28
	.cfi_offset 23, -36
	.cfi_offset 24, -40
	.cfi_offset 25, -44
	.loc 1 289 15
	lw	a5,0(a3)
	.loc 1 280 1
	mv	s6,a4
	.loc 1 298 8
	lhu	a4,10(a2)
.LVL14:
	.loc 1 289 15
	sw	a5,8(sp)
	.loc 1 290 5 is_stmt 1
	.loc 1 292 5
	.loc 1 294 5
	.loc 1 295 5
	.loc 1 296 5
	.loc 1 298 5
	.loc 1 298 8 is_stmt 0
	li	a5,43
	.loc 1 280 1
	mv	s0,a2
	.loc 1 298 8
	bgtu	a4,a5,.L12
.LVL15:
.L14:
	.loc 1 300 9 is_stmt 1
	.loc 1 301 9
	mv	a0,s0
.LVL16:
.L70:
	.loc 1 588 5 is_stmt 0 discriminator 1
	call	pbuf_free
.LVL17:
	.loc 1 589 1 discriminator 1
	lw	ra,60(sp)
	.cfi_remember_state
	.cfi_restore 1
	lw	s0,56(sp)
	.cfi_restore 8
	lw	s1,52(sp)
	.cfi_restore 9
	lw	s2,48(sp)
	.cfi_restore 18
	lw	s3,44(sp)
	.cfi_restore 19
	lw	s4,40(sp)
	.cfi_restore 20
	lw	s5,36(sp)
	.cfi_restore 21
	lw	s6,32(sp)
	.cfi_restore 22
	lw	s7,28(sp)
	.cfi_restore 23
	lw	s8,24(sp)
	.cfi_restore 24
	lw	s9,20(sp)
	.cfi_restore 25
	addi	sp,sp,64
	.cfi_def_cfa_offset 0
	jr	ra
.LVL18:
.L12:
	.cfi_restore_state
	mv	s1,a0
	mv	s5,a1
	.loc 1 305 5 is_stmt 1
	.loc 1 305 9 is_stmt 0
	li	a2,640
	li	a1,1500
.LVL19:
	li	a0,182
.LVL20:
	call	pbuf_alloc
.LVL21:
	mv	s3,a0
.LVL22:
	.loc 1 306 5 is_stmt 1
	.loc 1 306 8 is_stmt 0
	beq	a0,zero,.L14
	.loc 1 312 5 is_stmt 1
	.loc 1 312 8 is_stmt 0
	lhu	a4,8(a0)
	lhu	a5,8(s0)
	bltu	a4,a5,.L14
	.loc 1 319 5 is_stmt 1
	mv	a1,s0
	call	pbuf_copy
.LVL23:
	.loc 1 320 5
	mv	a0,s0
	call	pbuf_free
.LVL24:
	.loc 1 322 5
	.loc 1 322 9 is_stmt 0
	lw	s0,4(s3)
.LVL25:
	.loc 1 323 5 is_stmt 1
	.loc 1 323 8 is_stmt 0
	li	a5,1
	lbu	s2,0(s0)
	bne	s2,a5,.L16
	.loc 1 329 5 is_stmt 1
	.loc 1 329 12 is_stmt 0
	lbu	a4,237(s0)
	lbu	a5,236(s0)
	slli	a4,a4,8
	or	a4,a4,a5
	lbu	a5,238(s0)
	slli	a5,a5,16
	or	a4,a5,a4
	lbu	a5,239(s0)
	slli	a5,a5,24
	or	a5,a5,a4
	.loc 1 329 8
	li	a4,1666416640
	addi	a4,a4,611
	bne	a5,a4,.L16
	.loc 1 335 5 is_stmt 1
	.loc 1 335 12 is_stmt 0
	lbu	s9,2(s0)
	.loc 1 335 8
	li	a5,6
	bgtu	s9,a5,.L16
	.loc 1 340 5 is_stmt 1
	.loc 1 341 12 is_stmt 0
	lhu	s4,8(s3)
	.loc 1 340 13
	addi	s8,s0,240
.LVL26:
	.loc 1 341 5 is_stmt 1
	.loc 1 342 11 is_stmt 0
	li	a2,53
	.loc 1 341 12
	addi	s4,s4,-240
	slli	s4,s4,16
	srli	s4,s4,16
.LVL27:
	.loc 1 342 5 is_stmt 1
	.loc 1 342 11 is_stmt 0
	mv	a1,s4
	mv	a0,s8
	call	dhcp_server_option_find
.LVL28:
	.loc 1 343 5 is_stmt 1
	.loc 1 343 8 is_stmt 0
	beq	a0,zero,.L16
	.loc 1 345 9 is_stmt 1
	.loc 1 345 18 is_stmt 0
	lbu	a5,2(a0)
.LVL29:
	.loc 1 346 9 is_stmt 1
	.loc 1 346 12 is_stmt 0
	bne	a5,s2,.L18
	.loc 1 348 13 is_stmt 1
.LVL30:
.LBB11:
.LBB12:
	.loc 1 206 5
	.loc 1 207 5
	.loc 1 208 5
	.loc 1 210 5
	lw	s2,12(s1)
	.loc 1 210 51 is_stmt 0
	addi	s7,s0,28
.LVL31:
.LBB13:
.LBB14:
	.loc 1 113 5 is_stmt 1
	.loc 1 115 5
.L19:
	.loc 1 115 40
	.loc 1 115 5 is_stmt 0
	bne	s2,zero,.L21
.LVL32:
.LBE14:
.LBE13:
	.loc 1 211 5 is_stmt 1
	.loc 1 216 5
	.loc 1 216 11 is_stmt 0
	li	a2,50
	mv	a1,s4
	mv	a0,s8
	call	dhcp_server_option_find
.LVL33:
	.loc 1 217 5 is_stmt 1
	.loc 1 217 8 is_stmt 0
	beq	a0,zero,.L42
	.loc 1 219 9 is_stmt 1
	.loc 1 219 16 is_stmt 0
	addi	a1,a0,2
	mv	a0,s1
.LVL34:
	call	dhcp_client_find_by_ip
.LVL35:
	mv	s2,a0
.LVL36:
	.loc 1 220 9 is_stmt 1
	.loc 1 220 12 is_stmt 0
	bne	a0,zero,.L20
.LVL37:
.L42:
	.loc 1 227 57
	addi	s4,s1,24
.LVL38:
.L25:
	.loc 1 227 5 is_stmt 1
	.loc 1 227 12 is_stmt 0
	mv	a1,s4
	mv	a0,s1
	call	dhcp_client_find_by_ip
.LVL39:
	.loc 1 228 5 is_stmt 1
	.loc 1 228 8 is_stmt 0
	beq	a0,zero,.L23
	.loc 1 230 9 is_stmt 1
	.loc 1 230 19 is_stmt 0
	lw	a0,24(s1)
.LVL40:
	call	lwip_htonl
.LVL41:
	.loc 1 230 16
	addi	s2,a0,1
.LVL42:
	.loc 1 231 9 is_stmt 1
	.loc 1 231 22 is_stmt 0
	lw	a0,20(s1)
	call	lwip_htonl
.LVL43:
	.loc 1 231 12
	bleu	s2,a0,.L24
	.loc 1 233 13 is_stmt 1
	.loc 1 233 22 is_stmt 0
	lw	a0,16(s1)
	call	lwip_htonl
.LVL44:
	mv	s2,a0
.LVL45:
.L24:
	.loc 1 235 9 is_stmt 1
	.loc 1 235 36 is_stmt 0
	mv	a0,s2
	call	lwip_htonl
.LVL46:
	.loc 1 235 34
	sw	a0,24(s1)
	.loc 1 236 9 is_stmt 1
	j	.L25
.LVL47:
.L21:
.LBB16:
.LBB15:
	.loc 1 117 9
	.loc 1 117 13 is_stmt 0
	mv	a2,s9
	mv	a1,s7
	addi	a0,s2,4
	call	memcmp
.LVL48:
	.loc 1 117 12
	beq	a0,zero,.L20
	.loc 1 115 53 is_stmt 1
	.loc 1 115 58 is_stmt 0
	lw	s2,0(s2)
.LVL49:
	j	.L19
.LVL50:
.L23:
.LBE15:
.LBE16:
	.loc 1 238 5 is_stmt 1
	.loc 1 238 39 is_stmt 0
	li	a0,20
.LVL51:
	call	mem_malloc
.LVL52:
	mv	s2,a0
.LVL53:
	.loc 1 239 5 is_stmt 1
	.loc 1 239 8 is_stmt 0
	beq	a0,zero,.L16
	.loc 1 243 5 is_stmt 1
	lbu	a2,2(s0)
	mv	a1,s7
	addi	a0,a0,4
.LVL54:
	call	memcpy
.LVL55:
	.loc 1 244 5
	.loc 1 244 18 is_stmt 0
	lw	a5,24(s1)
	sw	a5,12(s2)
	.loc 1 246 5 is_stmt 1
	.loc 1 246 28 is_stmt 0
	lw	a5,12(s1)
	.loc 1 246 16
	sw	a5,0(s2)
	.loc 1 247 5 is_stmt 1
	.loc 1 247 27 is_stmt 0
	sw	s2,12(s1)
	.loc 1 249 5 is_stmt 1
.LVL56:
.L20:
.LBE12:
.LBE11:
	.loc 1 349 13
	.loc 1 353 13
	.loc 1 353 29 is_stmt 0
	li	a5,-2142175232
	addi	a5,a5,256
	sw	a5,16(s2)
	.loc 1 355 13 is_stmt 1
	.loc 1 355 21 is_stmt 0
	li	s7,2
	sb	s7,0(s0)
	.loc 1 356 13 is_stmt 1
	.loc 1 356 23 is_stmt 0
	sb	zero,3(s0)
	.loc 1 357 13 is_stmt 1
	.loc 1 357 23 is_stmt 0
	sb	zero,8(s0)
	sb	zero,9(s0)
	.loc 1 359 13 is_stmt 1
	.loc 1 359 33 is_stmt 0
	lw	a1,4(s1)
	.loc 1 359 13
	li	a2,4
	addi	a0,s0,20
	addi	a1,a1,4
	call	memcpy
.LVL57:
	.loc 1 360 13 is_stmt 1
	.loc 1 362 25 is_stmt 0
	li	a4,-126
	li	a5,99
	sb	a4,237(s0)
	li	a4,83
	sb	a4,238(s0)
	.loc 1 363 13
	addi	a1,s2,12
	.loc 1 362 25
	sb	a5,236(s0)
	sb	a5,239(s0)
	.loc 1 363 13
	li	a2,4
	.loc 1 360 27
	sb	zero,44(s0)
	.loc 1 361 13 is_stmt 1
	.loc 1 361 26 is_stmt 0
	sb	zero,108(s0)
	.loc 1 362 13 is_stmt 1
	.loc 1 363 13
	addi	a0,s0,16
	call	memcpy
.LVL58:
	.loc 1 365 13
	.loc 1 367 13
	.loc 1 367 24 is_stmt 0
	li	a5,53
	.loc 1 373 24
	li	s2,4
.LVL59:
	.loc 1 367 24
	sb	a5,240(s0)
	.loc 1 368 13 is_stmt 1
.LVL60:
	.loc 1 368 24 is_stmt 0
	li	s4,1
	.loc 1 372 24
	li	a5,54
	sb	a5,243(s0)
	.loc 1 368 24
	sb	s4,241(s0)
	.loc 1 369 13 is_stmt 1
.LVL61:
	.loc 1 369 24 is_stmt 0
	sb	s7,242(s0)
	.loc 1 372 13 is_stmt 1
.LVL62:
	.loc 1 373 13
	.loc 1 373 24 is_stmt 0
	sb	s2,244(s0)
	.loc 1 375 13 is_stmt 1
	.loc 1 375 28 is_stmt 0
	lw	a1,4(s1)
	.loc 1 375 13
	li	a2,4
	addi	a0,s0,245
.LVL63:
	addi	a1,a1,4
	call	memcpy
.LVL64:
	.loc 1 376 13 is_stmt 1
	.loc 1 379 13
	.loc 1 379 24 is_stmt 0
	li	a5,51
	sb	a5,249(s0)
	.loc 1 380 13 is_stmt 1
.LVL65:
	.loc 1 381 17 is_stmt 0
	li	a5,86016
	addi	a5,a5,384
	.loc 1 382 13
	li	a2,4
	addi	a1,sp,12
	.loc 1 380 24
	sb	s2,250(s0)
	.loc 1 381 13 is_stmt 1
	.loc 1 382 13 is_stmt 0
	addi	a0,s0,251
.LVL66:
	.loc 1 381 17
	sw	a5,12(sp)
	.loc 1 382 13 is_stmt 1
	call	memcpy
.LVL67:
	.loc 1 383 13
	.loc 1 386 13
	.loc 1 386 24 is_stmt 0
	sb	s4,255(s0)
	.loc 1 387 13 is_stmt 1
.LVL68:
	.loc 1 387 24 is_stmt 0
	sb	s2,256(s0)
	.loc 1 389 13 is_stmt 1
	.loc 1 389 28 is_stmt 0
	lw	a1,4(s1)
	.loc 1 389 13
	li	a2,4
	addi	a0,s0,257
.LVL69:
	addi	a1,a1,8
	call	memcpy
.LVL70:
	.loc 1 390 13 is_stmt 1
	.loc 1 392 13
	.loc 1 392 24 is_stmt 0
	li	a5,6
	sb	a5,261(s0)
	.loc 1 393 13 is_stmt 1
.LVL71:
	.loc 1 393 24 is_stmt 0
	sb	s2,262(s0)
	.loc 1 403 13 is_stmt 1
	.loc 1 403 28 is_stmt 0
	lw	a1,4(s1)
	.loc 1 403 13
	li	a2,4
	addi	a0,s0,263
.LVL72:
	addi	a1,a1,4
	call	memcpy
.LVL73:
	.loc 1 405 13 is_stmt 1
	.loc 1 407 13
	.loc 1 407 24 is_stmt 0
	li	a5,3
	sb	a5,267(s0)
	.loc 1 408 13 is_stmt 1
.LVL74:
	.loc 1 408 24 is_stmt 0
	sb	s2,268(s0)
	.loc 1 410 13 is_stmt 1
	.loc 1 410 28 is_stmt 0
	lw	a1,4(s1)
	.loc 1 410 13
	li	a2,4
	addi	a0,s0,269
.LVL75:
	addi	a1,a1,4
	call	memcpy
.LVL76:
	.loc 1 411 13 is_stmt 1
	.loc 1 414 13
	.loc 1 414 24 is_stmt 0
	li	a5,-1
	sb	a5,273(s0)
	.loc 1 416 13 is_stmt 1
	.loc 1 417 16 is_stmt 0
	lhu	a4,8(s3)
	.loc 1 416 20
	li	a5,274
.LVL77:
	.loc 1 417 13 is_stmt 1
	.loc 1 417 16 is_stmt 0
	bleu	a4,a5,.L33
	.loc 1 419 17 is_stmt 1
	li	a1,274
.LVL78:
.L71:
	.loc 1 541 29 is_stmt 0
	mv	a0,s3
	call	pbuf_realloc
.LVL79:
.L33:
	.loc 1 544 25 is_stmt 1
	.loc 1 545 25 is_stmt 0
	lw	a4,4(s1)
	.loc 1 544 39
	li	a5,-1
	.loc 1 545 25
	mv	a3,s6
	addi	a2,sp,8
	mv	a1,s3
	mv	a0,s5
	.loc 1 544 39
	sw	a5,8(sp)
	.loc 1 545 25 is_stmt 1
	call	udp_sendto_if
.LVL80:
	j	.L16
.LVL81:
.L18:
	.loc 1 427 13
	.loc 1 429 17
	.loc 1 429 20 is_stmt 0
	li	a4,3
	bne	a5,a4,.L26
	.loc 1 431 21 is_stmt 1
.LVL82:
.LBB17:
.LBB18:
	.loc 1 167 5
	.loc 1 169 5
	.loc 1 171 5
	lw	s2,12(s1)
	.loc 1 171 51 is_stmt 0
	addi	s7,s0,28
.LVL83:
.LBB19:
.LBB20:
	.loc 1 113 5 is_stmt 1
	.loc 1 115 5
.L27:
	.loc 1 115 40
	.loc 1 115 5 is_stmt 0
	bne	s2,zero,.L29
.LVL84:
.LBE20:
.LBE19:
	.loc 1 172 5 is_stmt 1
	.loc 1 177 5
	.loc 1 177 11 is_stmt 0
	li	a2,50
	mv	a1,s4
	mv	a0,s8
	call	dhcp_server_option_find
.LVL85:
	.loc 1 178 5 is_stmt 1
	.loc 1 178 8 is_stmt 0
	beq	a0,zero,.L32
	.loc 1 180 9 is_stmt 1
	.loc 1 180 16 is_stmt 0
	addi	a1,a0,2
	mv	a0,s1
.LVL86:
	call	dhcp_client_find_by_ip
.LVL87:
	mv	s2,a0
.LVL88:
	.loc 1 181 9 is_stmt 1
	.loc 1 181 12 is_stmt 0
	beq	a0,zero,.L32
	.loc 1 183 13 is_stmt 1
	.loc 1 183 22 is_stmt 0
	lbu	a2,2(s0)
	mv	a1,s7
	addi	a0,a0,4
.LVL89:
	call	memcmp
.LVL90:
	.loc 1 183 16
	beq	a0,zero,.L28
	.loc 1 186 17 is_stmt 1
	lui	a0,%hi(.LC0)
	addi	a0,a0,%lo(.LC0)
	call	puts
.LVL91:
.LBE18:
.LBE17:
	.loc 1 432 21
.L32:
	.loc 1 513 25
	.loc 1 513 33 is_stmt 0
	li	a5,2
	sb	a5,0(s0)
	.loc 1 514 25 is_stmt 1
	.loc 1 514 35 is_stmt 0
	sb	zero,3(s0)
	.loc 1 515 25 is_stmt 1
	.loc 1 515 35 is_stmt 0
	sb	zero,8(s0)
	sb	zero,9(s0)
	.loc 1 517 25 is_stmt 1
	.loc 1 517 45 is_stmt 0
	lw	a1,4(s1)
	.loc 1 517 25
	li	a2,4
	addi	a0,s0,20
	addi	a1,a1,4
	call	memcpy
.LVL92:
	.loc 1 518 25 is_stmt 1
	.loc 1 520 37 is_stmt 0
	li	a4,-126
	li	a5,99
	sb	a4,237(s0)
	li	a4,83
	sb	a4,238(s0)
	sb	a5,236(s0)
	sb	a5,239(s0)
	.loc 1 521 25
	li	a2,4
	li	a1,0
	.loc 1 518 39
	sb	zero,44(s0)
	.loc 1 519 25 is_stmt 1
	.loc 1 519 38 is_stmt 0
	sb	zero,108(s0)
	.loc 1 520 25 is_stmt 1
	.loc 1 521 25
	addi	a0,s0,16
	call	memset
.LVL93:
	.loc 1 522 25
	.loc 1 525 25
	.loc 1 525 36 is_stmt 0
	li	a5,53
	sb	a5,240(s0)
	.loc 1 526 25 is_stmt 1
.LVL94:
	.loc 1 526 36 is_stmt 0
	li	a5,1
	sb	a5,241(s0)
	.loc 1 527 25 is_stmt 1
.LVL95:
	.loc 1 527 36 is_stmt 0
	li	a5,6
	sb	a5,242(s0)
	.loc 1 530 25 is_stmt 1
.LVL96:
	.loc 1 530 36 is_stmt 0
	li	a5,54
	sb	a5,243(s0)
	.loc 1 531 25 is_stmt 1
.LVL97:
	.loc 1 531 36 is_stmt 0
	li	a5,4
	sb	a5,244(s0)
	.loc 1 533 25 is_stmt 1
	.loc 1 533 40 is_stmt 0
	lw	a1,4(s1)
	.loc 1 533 25
	li	a2,4
	addi	a0,s0,245
.LVL98:
	addi	a1,a1,4
	call	memcpy
.LVL99:
	.loc 1 534 25 is_stmt 1
	.loc 1 537 25
	.loc 1 537 36 is_stmt 0
	li	a5,-1
	sb	a5,249(s0)
	.loc 1 538 25 is_stmt 1
	.loc 1 539 28 is_stmt 0
	lhu	a4,8(s3)
	.loc 1 538 32
	li	a5,250
.LVL100:
	.loc 1 539 25 is_stmt 1
	.loc 1 539 28 is_stmt 0
	bleu	a4,a5,.L33
	.loc 1 541 29 is_stmt 1
	li	a1,250
	j	.L71
.LVL101:
.L29:
.LBB24:
.LBB23:
.LBB22:
.LBB21:
	.loc 1 117 9
	.loc 1 117 13 is_stmt 0
	mv	a2,s9
	mv	a1,s7
	addi	a0,s2,4
	call	memcmp
.LVL102:
	.loc 1 117 12
	beq	a0,zero,.L28
	.loc 1 115 53 is_stmt 1
	.loc 1 115 58 is_stmt 0
	lw	s2,0(s2)
.LVL103:
	j	.L27
.LVL104:
.L26:
.LBE21:
.LBE22:
.LBE23:
.LBE24:
	.loc 1 548 22 is_stmt 1
	.loc 1 548 25 is_stmt 0
	li	a4,7
	bne	a5,a4,.L16
.LBB25:
	.loc 1 550 21 is_stmt 1
.LVL105:
	.loc 1 552 21
	.loc 1 552 31 is_stmt 0
	lw	s2,12(s1)
.LVL106:
	.loc 1 550 46
	li	s4,0
.LVL107:
	.loc 1 554 53
	addi	s5,s0,28
.LVL108:
.L34:
	.loc 1 552 57 is_stmt 1 discriminator 1
	.loc 1 552 21 is_stmt 0 discriminator 1
	beq	s2,zero,.L16
	.loc 1 554 25 is_stmt 1
	.loc 1 554 29 is_stmt 0
	lbu	a2,2(s0)
	mv	a1,s5
	addi	a0,s2,4
	call	memcmp
.LVL109:
	lw	a5,0(s2)
	.loc 1 554 28
	bne	a0,zero,.L35
	.loc 1 556 29 is_stmt 1
	.loc 1 556 32 is_stmt 0
	lw	a4,12(s1)
	bne	a4,s2,.L36
	.loc 1 558 33 is_stmt 1
	.loc 1 558 56 is_stmt 0
	sw	a5,12(s1)
.L37:
	.loc 1 570 21 is_stmt 1
	.loc 1 572 25
	mv	a0,s2
	call	mem_free
.LVL110:
	j	.L16
.L36:
	.loc 1 562 33
	.loc 1 562 49 is_stmt 0
	sw	a5,0(s4)
	j	.L37
.L35:
	.loc 1 566 25 is_stmt 1 discriminator 2
.LVL111:
	.loc 1 567 25 discriminator 2
	.loc 1 552 70 discriminator 2
	.loc 1 552 75 is_stmt 0 discriminator 2
	mv	s4,s2
	lw	s2,0(a5)
.LVL112:
	j	.L34
.LVL113:
.L28:
.LBE25:
	.loc 1 432 21 is_stmt 1
	.loc 1 435 25
	.loc 1 435 41 is_stmt 0
	li	a5,-2142175232
	addi	a5,a5,256
	sw	a5,16(s2)
	.loc 1 437 25 is_stmt 1
	.loc 1 437 33 is_stmt 0
	li	a5,2
	sb	a5,0(s0)
	.loc 1 438 25 is_stmt 1
	.loc 1 438 35 is_stmt 0
	sb	zero,3(s0)
	.loc 1 439 25 is_stmt 1
	.loc 1 439 35 is_stmt 0
	sb	zero,8(s0)
	sb	zero,9(s0)
	.loc 1 441 25 is_stmt 1
	.loc 1 441 45 is_stmt 0
	lw	a1,4(s1)
	.loc 1 441 25
	li	a2,4
	addi	a0,s0,20
	addi	a1,a1,4
	call	memcpy
.LVL114:
	.loc 1 442 25 is_stmt 1
	.loc 1 444 37 is_stmt 0
	li	a4,-126
	li	a5,99
	sb	a4,237(s0)
	li	a4,83
	sb	a4,238(s0)
	sb	a5,236(s0)
	sb	a5,239(s0)
	.loc 1 445 25
	li	a2,4
	addi	a1,s2,12
	.loc 1 442 39
	sb	zero,44(s0)
	.loc 1 443 25 is_stmt 1
	.loc 1 443 38 is_stmt 0
	sb	zero,108(s0)
	.loc 1 444 25 is_stmt 1
	.loc 1 445 25
	addi	a0,s0,16
	call	memcpy
.LVL115:
	.loc 1 446 25
	.loc 1 449 25
	.loc 1 449 36 is_stmt 0
	li	a5,53
	sb	a5,240(s0)
	.loc 1 450 25 is_stmt 1
.LVL116:
	.loc 1 451 36 is_stmt 0
	li	a5,5
	.loc 1 455 36
	li	s4,4
.LVL117:
	.loc 1 451 36
	sb	a5,242(s0)
	.loc 1 450 36
	li	s7,1
	.loc 1 454 36
	li	a5,54
	sb	a5,243(s0)
	.loc 1 450 36
	sb	s7,241(s0)
	.loc 1 451 25 is_stmt 1
.LVL118:
	.loc 1 454 25
	.loc 1 455 25
	.loc 1 455 36 is_stmt 0
	sb	s4,244(s0)
	.loc 1 457 25 is_stmt 1
	.loc 1 457 40 is_stmt 0
	lw	a1,4(s1)
	.loc 1 457 25
	li	a2,4
	addi	a0,s0,245
.LVL119:
	addi	a1,a1,4
	call	memcpy
.LVL120:
	.loc 1 458 25 is_stmt 1
	.loc 1 461 25
	.loc 1 461 36 is_stmt 0
	li	a5,51
	sb	a5,249(s0)
	.loc 1 462 25 is_stmt 1
.LVL121:
	.loc 1 463 29 is_stmt 0
	li	a5,86016
	addi	a5,a5,384
	.loc 1 464 25
	li	a2,4
	addi	a1,sp,12
	.loc 1 462 36
	sb	s4,250(s0)
	.loc 1 463 25 is_stmt 1
	.loc 1 464 25 is_stmt 0
	addi	a0,s0,251
.LVL122:
	.loc 1 463 29
	sw	a5,12(sp)
	.loc 1 464 25 is_stmt 1
	call	memcpy
.LVL123:
	.loc 1 465 25
	.loc 1 468 25
	.loc 1 468 36 is_stmt 0
	sb	s7,255(s0)
	.loc 1 469 25 is_stmt 1
.LVL124:
	.loc 1 469 36 is_stmt 0
	sb	s4,256(s0)
	.loc 1 471 25 is_stmt 1
	.loc 1 471 40 is_stmt 0
	lw	a1,4(s1)
	.loc 1 471 25
	li	a2,4
	addi	a0,s0,257
.LVL125:
	addi	a1,a1,8
	call	memcpy
.LVL126:
	.loc 1 472 25 is_stmt 1
	.loc 1 474 25
	.loc 1 474 36 is_stmt 0
	li	a5,6
	sb	a5,261(s0)
	.loc 1 475 25 is_stmt 1
.LVL127:
	.loc 1 475 36 is_stmt 0
	sb	s4,262(s0)
	.loc 1 485 25 is_stmt 1
	.loc 1 485 40 is_stmt 0
	lw	a1,4(s1)
	.loc 1 485 25
	li	a2,4
	addi	a0,s0,263
.LVL128:
	addi	a1,a1,4
	call	memcpy
.LVL129:
	.loc 1 487 25 is_stmt 1
	.loc 1 489 25
	.loc 1 489 36 is_stmt 0
	li	a5,3
	sb	a5,267(s0)
	.loc 1 490 25 is_stmt 1
.LVL130:
	.loc 1 490 36 is_stmt 0
	sb	s4,268(s0)
	.loc 1 492 25 is_stmt 1
	.loc 1 492 40 is_stmt 0
	lw	a1,4(s1)
	.loc 1 492 25
	li	a2,4
	addi	a0,s0,269
.LVL131:
	addi	a1,a1,4
	call	memcpy
.LVL132:
	.loc 1 493 25 is_stmt 1
	.loc 1 496 25
	.loc 1 496 36 is_stmt 0
	li	a5,-1
	sb	a5,273(s0)
	.loc 1 498 25 is_stmt 1
	.loc 1 499 28 is_stmt 0
	lhu	a4,8(s3)
	.loc 1 498 32
	li	a5,274
.LVL133:
	.loc 1 499 25 is_stmt 1
	.loc 1 499 28 is_stmt 0
	bleu	a4,a5,.L44
	.loc 1 501 29 is_stmt 1
	li	a1,274
	mv	a0,s3
	call	pbuf_realloc
.LVL134:
.L44:
	.loc 1 504 25
	.loc 1 505 25 is_stmt 0
	lw	a4,4(s1)
	.loc 1 504 39
	li	a5,-1
	.loc 1 505 25
	addi	a2,sp,8
	mv	a1,s3
	mv	a3,s6
	mv	a0,s5
	.loc 1 504 39
	sw	a5,8(sp)
	.loc 1 505 25 is_stmt 1
	call	udp_sendto_if
.LVL135:
	.loc 1 507 25
	mv	a2,s2
	li	a1,24
	li	a0,2
	call	aos_post_event
.LVL136:
.L16:
	.loc 1 581 21 discriminator 1
	.loc 1 588 5 discriminator 1
	mv	a0,s3
	j	.L70
	.cfi_endproc
.LFE10:
	.size	dhcp_server_recv, .-dhcp_server_recv
	.section	.text.dhcp_server_start,"ax",@progbits
	.align	1
	.globl	dhcp_server_start
	.type	dhcp_server_start, @function
dhcp_server_start:
.LFB11:
	.loc 1 603 1
	.cfi_startproc
.LVL137:
	.loc 1 604 5
	.loc 1 607 5
	.loc 1 603 1 is_stmt 0
	addi	sp,sp,-32
	.cfi_def_cfa_offset 32
	sw	s3,12(sp)
	.cfi_offset 19, -20
	.loc 1 607 22
	lui	s3,%hi(.LANCHOR0)
	lw	a5,%lo(.LANCHOR0)(s3)
.LVL138:
	.loc 1 603 1
	sw	s1,20(sp)
	sw	s2,16(sp)
	sw	s4,8(sp)
	sw	ra,28(sp)
	sw	s0,24(sp)
	.cfi_offset 9, -12
	.cfi_offset 18, -16
	.cfi_offset 20, -24
	.cfi_offset 1, -4
	.cfi_offset 8, -8
	.loc 1 603 1
	mv	s2,a0
	mv	s1,a1
	mv	s4,a2
	addi	s3,s3,%lo(.LANCHOR0)
.L73:
	.loc 1 607 40 is_stmt 1 discriminator 1
	.loc 1 607 5 is_stmt 0 discriminator 1
	bne	a5,zero,.L76
.LVL139:
.LBB28:
.LBB29:
	.loc 1 618 5 is_stmt 1
	.loc 1 619 5
	.loc 1 620 5
	.loc 1 620 41 is_stmt 0
	li	a0,28
.LVL140:
	call	mem_malloc
.LVL141:
	mv	s0,a0
.LVL142:
	.loc 1 621 5 is_stmt 1
	.loc 1 621 8 is_stmt 0
	bne	a0,zero,.L77
.L78:
	.loc 1 624 16
	li	a0,-1
.LVL143:
.L75:
.LBE29:
.LBE28:
	.loc 1 656 1
	lw	ra,28(sp)
	.cfi_remember_state
	.cfi_restore 1
	lw	s0,24(sp)
	.cfi_restore 8
	lw	s1,20(sp)
	.cfi_restore 9
.LVL144:
	lw	s2,16(sp)
	.cfi_restore 18
.LVL145:
	lw	s3,12(sp)
	.cfi_restore 19
	lw	s4,8(sp)
	.cfi_restore 20
.LVL146:
	addi	sp,sp,32
	.cfi_def_cfa_offset 0
	jr	ra
.LVL147:
.L76:
	.cfi_restore_state
	.loc 1 609 9 is_stmt 1
	.loc 1 609 12 is_stmt 0
	lw	a4,4(a5)
	bne	a4,s2,.L74
	.loc 1 611 13 is_stmt 1
	.loc 1 611 32 is_stmt 0
	lw	a4,0(s1)
	sw	a4,16(a5)
	.loc 1 612 13 is_stmt 1
	.loc 1 612 30 is_stmt 0
	lw	a4,0(s4)
	sw	a4,20(a5)
	.loc 1 613 13 is_stmt 1
	.loc 1 613 34 is_stmt 0
	lw	a4,0(s1)
	sw	a4,24(a5)
	.loc 1 614 13 is_stmt 1
.LVL148:
.L83:
.LBB32:
.LBB30:
	.loc 1 653 5
	.loc 1 655 5
	.loc 1 655 12 is_stmt 0
	li	a0,0
	j	.L75
.LVL149:
.L74:
.LBE30:
.LBE32:
	.loc 1 607 60 is_stmt 1 discriminator 2
	.loc 1 607 72 is_stmt 0 discriminator 2
	lw	a5,0(a5)
.LVL150:
	j	.L73
.LVL151:
.L77:
.LBB33:
.LBB31:
	.loc 1 628 5 is_stmt 1
	li	a2,28
	li	a1,0
	call	memset
.LVL152:
	.loc 1 631 5
	.loc 1 631 23 is_stmt 0
	lw	a5,0(s3)
	.loc 1 633 24
	sw	s2,4(s0)
	.loc 1 634 28
	sw	zero,12(s0)
	.loc 1 631 23
	sw	a5,0(s0)
	.loc 1 632 5 is_stmt 1
	.loc 1 635 24 is_stmt 0
	lw	a5,0(s1)
	.loc 1 632 20
	sw	s0,0(s3)
	.loc 1 633 5 is_stmt 1
	.loc 1 634 5
	.loc 1 635 5
	.loc 1 635 24 is_stmt 0
	sw	a5,16(s0)
	.loc 1 636 5 is_stmt 1
	.loc 1 636 22 is_stmt 0
	lw	a5,0(s4)
	sw	a5,20(s0)
	.loc 1 637 5 is_stmt 1
	.loc 1 637 26 is_stmt 0
	lw	a5,0(s1)
	sw	a5,24(s0)
	.loc 1 640 5 is_stmt 1
	.loc 1 640 24 is_stmt 0
	call	udp_new
.LVL153:
	.loc 1 640 22
	sw	a0,8(s0)
	.loc 1 641 5 is_stmt 1
	.loc 1 641 8 is_stmt 0
	beq	a0,zero,.L78
	.loc 1 647 5 is_stmt 1
	.loc 1 647 39 is_stmt 0
	lbu	a5,9(a0)
	.loc 1 649 5
	addi	a1,s2,4
	li	a2,67
	.loc 1 647 39
	ori	a5,a5,32
	.loc 1 647 37
	sb	a5,9(a0)
	.loc 1 649 5 is_stmt 1
	lw	a0,8(s0)
	call	udp_bind
.LVL154:
	.loc 1 652 5
	lw	a0,8(s0)
	lui	a1,%hi(dhcp_server_recv)
	mv	a2,s0
	addi	a1,a1,%lo(dhcp_server_recv)
	call	udp_recv
.LVL155:
	j	.L83
.LBE31:
.LBE33:
	.cfi_endproc
.LFE11:
	.size	dhcp_server_start, .-dhcp_server_start
	.section	.rodata.dhcp_server_stop.str1.4,"aMS",@progbits,1
	.align	2
.LC1:
	.string	"[DHCP] [DHCPD] CRITICAL: no dhcp_server instance found\r\n"
	.section	.text.dhcp_server_stop,"ax",@progbits
	.align	1
	.globl	dhcp_server_stop
	.type	dhcp_server_stop, @function
dhcp_server_stop:
.LFB12:
	.loc 1 660 1
	.cfi_startproc
.LVL156:
	.loc 1 661 5
	.loc 1 664 5
	.loc 1 660 1 is_stmt 0
	addi	sp,sp,-16
	.cfi_def_cfa_offset 16
	.loc 1 664 22
	lui	a5,%hi(.LANCHOR0)
	.loc 1 660 1
	sw	s0,8(sp)
	.cfi_offset 8, -8
	.loc 1 664 22
	lw	s0,%lo(.LANCHOR0)(a5)
.LVL157:
	.loc 1 660 1
	sw	s1,4(sp)
	sw	ra,12(sp)
	.cfi_offset 9, -12
	.cfi_offset 1, -4
	addi	s1,a5,%lo(.LANCHOR0)
.L85:
	.loc 1 664 40 is_stmt 1 discriminator 1
	.loc 1 664 5 is_stmt 0 discriminator 1
	bne	s0,zero,.L87
	.loc 1 670 5 is_stmt 1
	.loc 1 671 9
	lui	a0,%hi(.LC1)
.LVL158:
	addi	a0,a0,%lo(.LC1)
	call	printf
.LVL159:
	.loc 1 672 9
	.loc 1 672 16 is_stmt 0
	li	a0,-6
	j	.L93
.LVL160:
.L87:
	.loc 1 665 9 is_stmt 1
	.loc 1 665 12 is_stmt 0
	lw	a5,4(s0)
	beq	a5,a0,.L86
	.loc 1 664 60 is_stmt 1 discriminator 2
	.loc 1 664 72 is_stmt 0 discriminator 2
	lw	s0,0(s0)
.LVL161:
	j	.L85
.L86:
	.loc 1 670 5 is_stmt 1
	.loc 1 676 5
	.loc 1 676 20 is_stmt 0
	lw	a0,8(s0)
.LVL162:
	.loc 1 676 8
	beq	a0,zero,.L91
	.loc 1 677 9 is_stmt 1
	call	udp_remove
.LVL163:
.L91:
	.loc 1 681 5
	.loc 1 682 5 is_stmt 0
	mv	a0,s0
	.loc 1 681 20
	sw	zero,0(s1)
	.loc 1 682 5 is_stmt 1
	call	mem_free
.LVL164:
	.loc 1 684 5
	.loc 1 684 12 is_stmt 0
	li	a0,0
.L93:
	.loc 1 685 1
	lw	ra,12(sp)
	.cfi_restore 1
	lw	s0,8(sp)
	.cfi_restore 8
.LVL165:
	lw	s1,4(sp)
	.cfi_restore 9
	addi	sp,sp,16
	.cfi_def_cfa_offset 0
	jr	ra
	.cfi_endproc
.LFE12:
	.size	dhcp_server_stop, .-dhcp_server_stop
	.section	.rodata.dhcpd_start.str1.4,"aMS",@progbits,1
	.align	2
.LC2:
	.string	"192.168.169.1"
	.align	2
.LC3:
	.string	"255.255.255.0"
	.align	2
.LC4:
	.string	"0.0.0.0"
	.align	2
.LC5:
	.string	"[DHCP] DHCPD_SERVER_IP: %s error!\r\n"
	.align	2
.LC6:
	.string	"%d"
	.align	2
.LC7:
	.string	"[DHCP] ip_start: [%s]\r\n"
	.align	2
.LC8:
	.string	"[DHCP] dhcp_server_start res: %d.\r\n"
	.section	.text.dhcpd_start,"ax",@progbits
	.align	1
	.globl	dhcpd_start
	.type	dhcpd_start, @function
dhcpd_start:
.LFB13:
	.loc 1 689 1 is_stmt 1
	.cfi_startproc
.LVL166:
	.loc 1 690 5
	.loc 1 691 5
	.loc 1 692 5
	.loc 1 693 5
	.loc 1 694 5
	.loc 1 695 5
	.loc 1 697 5
	.loc 1 698 5
	.loc 1 689 1 is_stmt 0
	addi	sp,sp,-112
	.cfi_def_cfa_offset 112
	sw	s1,100(sp)
	.loc 1 698 9
	addi	a3,sp,16
	.cfi_offset 9, -12
	.loc 1 689 1
	mv	s1,a0
	.loc 1 698 9
	addi	a2,sp,12
	addi	a1,sp,8
	addi	a0,sp,4
.LVL167:
	.loc 1 689 1
	sw	ra,108(sp)
	sw	s0,104(sp)
	sw	s2,96(sp)
	sw	s3,92(sp)
	.cfi_offset 1, -4
	.cfi_offset 8, -8
	.cfi_offset 18, -16
	.cfi_offset 19, -20
	.loc 1 698 9
	call	wifi_mgmr_ap_dhcp_range_get
.LVL168:
	.loc 1 698 8
	bne	a0,zero,.L96
	.loc 1 699 9 is_stmt 1
	.loc 1 699 25 is_stmt 0
	addi	a0,sp,4
	call	ip4addr_ntoa
.LVL169:
	mv	a1,a0
	.loc 1 699 9
	addi	a0,sp,28
	call	strcpy
.LVL170:
	.loc 1 700 9 is_stmt 1
	.loc 1 700 27 is_stmt 0
	addi	a0,sp,8
	call	ip4addr_ntoa
.LVL171:
	mv	a1,a0
	.loc 1 700 9
	addi	a0,sp,44
	call	strcpy
.LVL172:
.L97:
	.loc 1 710 5 is_stmt 1
.LBB34:
	.loc 1 712 9
	.loc 1 714 9
	mv	a0,s1
	call	dhcp_stop
.LVL173:
	.loc 1 716 9
	lui	a2,%hi(.LC4)
	addi	a3,sp,44
	addi	a2,a2,%lo(.LC4)
	addi	a1,sp,28
	mv	a0,s1
	call	set_if
.LVL174:
	.loc 1 718 9
	mv	a0,s1
	call	netif_set_up
.LVL175:
.LBE34:
.LBB35:
	.loc 1 722 9
	.loc 1 723 9
	.loc 1 724 9
	.loc 1 726 9
	addi	a1,sp,28
	addi	a0,sp,60
.LVL176:
	call	strcpy
.LVL177:
	.loc 1 727 9
	.loc 1 727 13 is_stmt 0
	li	a1,46
	addi	a0,sp,60
.LVL178:
	call	strchr
.LVL179:
	.loc 1 728 9 is_stmt 1
	.loc 1 728 12 is_stmt 0
	bne	a0,zero,.L98
.L100:
.LVL180:
	.loc 1 738 13 is_stmt 1
	lui	a0,%hi(.LC5)
	addi	a1,sp,60
	addi	a0,a0,%lo(.LC5)
.L112:
	.loc 1 753 13 is_stmt 0
	call	printf
.LVL181:
.LBE35:
	.loc 1 758 5 is_stmt 1
	.loc 1 759 5
.L99:
.L95:
	.loc 1 760 1 is_stmt 0
	lw	ra,108(sp)
	.cfi_remember_state
	.cfi_restore 1
	lw	s0,104(sp)
	.cfi_restore 8
	lw	s1,100(sp)
	.cfi_restore 9
.LVL182:
	lw	s2,96(sp)
	.cfi_restore 18
	lw	s3,92(sp)
	.cfi_restore 19
	addi	sp,sp,112
	.cfi_def_cfa_offset 0
	jr	ra
.LVL183:
.L96:
	.cfi_restore_state
	.loc 1 703 9 is_stmt 1
	lui	a1,%hi(.LC2)
	addi	a1,a1,%lo(.LC2)
	addi	a0,sp,28
	call	strcpy
.LVL184:
	.loc 1 704 9
	lui	a1,%hi(.LC3)
	addi	a1,a1,%lo(.LC3)
	addi	a0,sp,44
	call	strcpy
.LVL185:
	.loc 1 705 9
	.loc 1 705 23 is_stmt 0
	li	a5,2
	sw	a5,12(sp)
	.loc 1 706 9 is_stmt 1
	.loc 1 706 23 is_stmt 0
	li	a5,254
	sw	a5,16(sp)
	j	.L97
.LVL186:
.L98:
.LBB36:
	.loc 1 730 13 is_stmt 1
	.loc 1 730 17 is_stmt 0
	li	a1,46
	addi	a0,a0,1
.LVL187:
	call	strchr
.LVL188:
	.loc 1 731 13 is_stmt 1
	.loc 1 731 16 is_stmt 0
	beq	a0,zero,.L100
	.loc 1 733 17 is_stmt 1
	.loc 1 733 21 is_stmt 0
	li	a1,46
	addi	a0,a0,1
.LVL189:
	call	strchr
.LVL190:
	.loc 1 736 9 is_stmt 1
	.loc 1 736 12 is_stmt 0
	beq	a0,zero,.L100
	.loc 1 741 9 is_stmt 1
	.loc 1 743 9 is_stmt 0
	lw	a2,12(sp)
	.loc 1 741 11
	addi	s0,a0,1
.LVL191:
	.loc 1 743 9 is_stmt 1
	lui	s3,%hi(.LC6)
	addi	a1,s3,%lo(.LC6)
	mv	a0,s0
	call	sprintf
.LVL192:
	.loc 1 744 9
	addi	a1,sp,20
	addi	a0,sp,60
	call	ip4addr_aton
.LVL193:
	.loc 1 745 9
	lui	s2,%hi(.LC7)
	addi	a1,sp,60
	addi	a0,s2,%lo(.LC7)
	call	printf
.LVL194:
	.loc 1 746 9
	lw	a2,16(sp)
	addi	a1,s3,%lo(.LC6)
	mv	a0,s0
	call	sprintf
.LVL195:
	.loc 1 747 9
	addi	a1,sp,24
	addi	a0,sp,60
	call	ip4addr_aton
.LVL196:
	.loc 1 748 9
	addi	a1,sp,60
	addi	a0,s2,%lo(.LC7)
	call	printf
.LVL197:
	.loc 1 750 9
	.loc 1 750 15 is_stmt 0
	addi	a1,sp,20
	addi	a2,sp,24
	mv	a0,s1
	call	dhcp_server_start
.LVL198:
	mv	a1,a0
.LVL199:
	.loc 1 751 9 is_stmt 1
	.loc 1 751 12 is_stmt 0
	beq	a0,zero,.L95
	.loc 1 753 13 is_stmt 1
	lui	a0,%hi(.LC8)
.LVL200:
	addi	a0,a0,%lo(.LC8)
	j	.L112
.LBE36:
	.cfi_endproc
.LFE13:
	.size	dhcpd_start, .-dhcpd_start
	.section	.rodata.dhcpd_stop.str1.4,"aMS",@progbits,1
	.align	2
.LC9:
	.string	"[DHCP] %s: %s\r\n"
	.align	2
.LC10:
	.string	"[DHCP] network interface name too long!\r\n"
	.align	2
.LC11:
	.string	"[DHCP] network interface: %s not found!\r\n"
	.section	.text.dhcpd_stop,"ax",@progbits
	.align	1
	.globl	dhcpd_stop
	.type	dhcpd_stop, @function
dhcpd_stop:
.LFB14:
	.loc 1 763 1
	.cfi_startproc
.LVL201:
	.loc 1 764 5
	.loc 1 763 1 is_stmt 0
	addi	sp,sp,-16
	.cfi_def_cfa_offset 16
	.loc 1 766 5
	mv	a2,a0
	.loc 1 763 1
	sw	s1,4(sp)
	.loc 1 766 5
	lui	a1,%hi(.LANCHOR1)
	.cfi_offset 9, -12
	.loc 1 763 1
	mv	s1,a0
	.loc 1 766 5
	lui	a0,%hi(.LC9)
.LVL202:
	.loc 1 764 19
	lui	a5,%hi(netif_list)
	.loc 1 766 5
	addi	a1,a1,%lo(.LANCHOR1)
	addi	a0,a0,%lo(.LC9)
	.loc 1 763 1
	sw	ra,12(sp)
	sw	s0,8(sp)
	.cfi_offset 1, -4
	.cfi_offset 8, -8
	.loc 1 764 19
	lw	s0,%lo(netif_list)(a5)
.LVL203:
	.loc 1 766 5 is_stmt 1
	call	printf
.LVL204:
	.loc 1 768 5
	.loc 1 769 5
	.loc 1 769 9 is_stmt 0
	mv	a0,s1
	call	strlen
.LVL205:
	.loc 1 769 8
	li	a5,2
	bleu	a0,a5,.L114
	.loc 1 770 9 is_stmt 1
	.loc 1 795 1 is_stmt 0
	lw	s0,8(sp)
	.cfi_remember_state
	.cfi_restore 8
.LVL206:
	lw	ra,12(sp)
	.cfi_restore 1
	lw	s1,4(sp)
	.cfi_restore 9
.LVL207:
	.loc 1 770 9
	lui	a0,%hi(.LC10)
	.loc 1 795 1
	.loc 1 770 9
	addi	a0,a0,%lo(.LC10)
	.loc 1 795 1
	addi	sp,sp,16
	.cfi_def_cfa_offset 0
	.loc 1 770 9
	tail	printf
.LVL208:
.L116:
	.cfi_restore_state
	.loc 1 775 9 is_stmt 1
	.loc 1 775 13 is_stmt 0
	li	a2,2
	addi	a1,s0,66
	mv	a0,s1
	call	strncmp
.LVL209:
	.loc 1 775 12
	beq	a0,zero,.L115
	.loc 1 778 9 is_stmt 1
	.loc 1 778 15 is_stmt 0
	lw	s0,0(s0)
.LVL210:
	.loc 1 779 9 is_stmt 1
	.loc 1 779 12 is_stmt 0
	bne	s0,zero,.L116
	.loc 1 781 13 is_stmt 1
	.loc 1 795 1 is_stmt 0
	lw	s0,8(sp)
	.cfi_remember_state
	.cfi_restore 8
.LVL211:
	lw	ra,12(sp)
	.cfi_restore 1
	.loc 1 781 13
	mv	a1,s1
	.loc 1 795 1
	lw	s1,4(sp)
	.cfi_restore 9
.LVL212:
	.loc 1 781 13
	lui	a0,%hi(.LC11)
	.loc 1 795 1
	.loc 1 781 13
	addi	a0,a0,%lo(.LC11)
	.loc 1 795 1
	addi	sp,sp,16
	.cfi_def_cfa_offset 0
	.loc 1 781 13
	tail	printf
.LVL213:
.L114:
	.cfi_restore_state
	.loc 1 774 11 is_stmt 1
	bne	s0,zero,.L116
	.loc 1 795 1 is_stmt 0
	lw	ra,12(sp)
	.cfi_remember_state
	.cfi_restore 1
	lw	s0,8(sp)
	.cfi_restore 8
.LVL214:
	lw	s1,4(sp)
	.cfi_restore 9
.LVL215:
	addi	sp,sp,16
	.cfi_def_cfa_offset 0
	jr	ra
.L117:
.LVL216:
.L115:
	.cfi_restore_state
	.loc 1 786 5 is_stmt 1
	.loc 1 790 5
	mv	a0,s0
	.loc 1 795 1 is_stmt 0
	lw	s0,8(sp)
	.cfi_restore 8
.LVL217:
	lw	ra,12(sp)
	.cfi_restore 1
	lw	s1,4(sp)
	.cfi_restore 9
.LVL218:
	addi	sp,sp,16
	.cfi_def_cfa_offset 0
	.loc 1 790 5
	tail	dhcp_server_stop
.LVL219:
	.cfi_endproc
.LFE14:
	.size	dhcpd_stop, .-dhcpd_stop
	.section	.rodata.__func__.0,"a"
	.align	2
	.set	.LANCHOR1,. + 0
	.type	__func__.0, @object
	.size	__func__.0, 11
__func__.0:
	.string	"dhcpd_stop"
	.section	.sbss.lw_dhcp_server,"aw",@nobits
	.align	2
	.set	.LANCHOR0,. + 0
	.type	lw_dhcp_server, @object
	.size	lw_dhcp_server, 4
lw_dhcp_server:
	.zero	4
	.text
.Letext0:
	.file 2 "/mnt/d/GitHub/bl_iot_sdk_for_aithinker/toolchain/riscv/Linux/riscv64-unknown-elf/include/machine/_default_types.h"
	.file 3 "/mnt/d/GitHub/bl_iot_sdk_for_aithinker/toolchain/riscv/Linux/riscv64-unknown-elf/include/sys/_stdint.h"
	.file 4 "/mnt/d/GitHub/bl_iot_sdk_for_aithinker/components/network/lwip/src/include/lwip/arch.h"
	.file 5 "/mnt/d/GitHub/bl_iot_sdk_for_aithinker/components/network/lwip/src/include/lwip/ip4_addr.h"
	.file 6 "/mnt/d/GitHub/bl_iot_sdk_for_aithinker/components/network/lwip/src/include/lwip/ip_addr.h"
	.file 7 "/mnt/d/GitHub/bl_iot_sdk_for_aithinker/components/network/lwip/src/include/lwip/err.h"
	.file 8 "/mnt/d/GitHub/bl_iot_sdk_for_aithinker/components/network/lwip/src/include/lwip/pbuf.h"
	.file 9 "/mnt/d/GitHub/bl_iot_sdk_for_aithinker/components/network/lwip/src/include/lwip/memp.h"
	.file 10 "/mnt/d/GitHub/bl_iot_sdk_for_aithinker/components/network/lwip/src/include/lwip/netif.h"
	.file 11 "/mnt/d/GitHub/bl_iot_sdk_for_aithinker/components/network/lwip/src/include/lwip/prot/ip4.h"
	.file 12 "/mnt/d/GitHub/bl_iot_sdk_for_aithinker/components/network/lwip/src/include/lwip/prot/dhcp.h"
	.file 13 "/mnt/d/GitHub/bl_iot_sdk_for_aithinker/components/network/lwip/src/include/lwip/udp.h"
	.file 14 "/mnt/d/GitHub/bl_iot_sdk_for_aithinker/toolchain/riscv/Linux/riscv64-unknown-elf/include/stdio.h"
	.file 15 "/mnt/d/GitHub/bl_iot_sdk_for_aithinker/toolchain/riscv/Linux/riscv64-unknown-elf/include/string.h"
	.file 16 "/mnt/d/GitHub/bl_iot_sdk_for_aithinker/components/network/lwip/src/include/lwip/dhcp.h"
	.file 17 "/mnt/d/GitHub/bl_iot_sdk_for_aithinker/components/network/lwip/src/include/lwip/mem.h"
	.file 18 "/mnt/d/GitHub/bl_iot_sdk_for_aithinker/components/network/lwip/src/include/lwip/def.h"
	.file 19 "/mnt/d/GitHub/bl_iot_sdk_for_aithinker/components/stage/yloop/include/aos/yloop.h"