	.file	"eap_common.c"
	.option nopic
	.attribute arch, "rv32i2p0_m2p0_f2p0_c2p0"
	.attribute unaligned_access, 0
	.attribute stack_align, 16
	.text
.Ltext0:
	.cfi_sections	.debug_frame
	.section	.text.eap_hdr_len_valid,"ax",@progbits
	.align	1
	.globl	eap_hdr_len_valid
	.type	eap_hdr_len_valid, @function
eap_hdr_len_valid:
.LFB69:
	.file 1 "/mnt/d/GitHub/bl_iot_sdk_for_aithinker/components/security/wpa_supplicant/src/eap_peer/eap_common.c"
	.loc 1 26 1
	.cfi_startproc
.LVL0:
	.loc 1 27 2
	.loc 1 28 2
	.loc 1 30 2
	.loc 1 30 5 is_stmt 0
	beq	a0,zero,.L4
	.loc 1 33 2 is_stmt 1
.LVL1:
.LBB18:
.LBB19:
	.file 2 "/mnt/d/GitHub/bl_iot_sdk_for_aithinker/components/security/wpa_supplicant/include/utils/wpabuf.h"
	.loc 2 81 2
	.loc 2 81 9 is_stmt 0
	lw	a3,8(a0)
	.loc 2 81 5
	bne	a3,zero,.L3
	.loc 2 83 2 is_stmt 1
	.loc 2 83 13 is_stmt 0
	addi	a3,a0,12
.L3:
.LVL2:
.LBE19:
.LBE18:
	.loc 1 35 2 is_stmt 1
.LBB20:
.LBB21:
	.loc 2 61 2
	.loc 2 61 12 is_stmt 0
	lw	a2,4(a0)
.LVL3:
.LBE21:
.LBE20:
	.loc 1 35 5
	li	a5,3
	.loc 1 43 10
	li	a0,0
.LVL4:
	.loc 1 35 5
	bleu	a2,a5,.L1
	.loc 1 40 2 is_stmt 1
	.loc 1 40 44 is_stmt 0
	lbu	a4,3(a3)
	lbu	a5,2(a3)
	.loc 1 41 25
	addi	a1,a1,4
.LVL5:
	.loc 1 40 44
	slli	a4,a4,8
	or	a4,a4,a5
	.loc 1 40 8
	slli	a5,a4,8
	srli	a4,a4,8
	or	a5,a5,a4
	slli	a5,a5,16
	srli	a5,a5,16
.LVL6:
	.loc 1 41 2 is_stmt 1
	.loc 1 41 5 is_stmt 0
	bgtu	a1,a5,.L1
.LVL7:
	.loc 2 61 2 is_stmt 1
	.loc 1 41 39 is_stmt 0
	sgtu	a5,a5,a2
.LVL8:
	xori	a0,a5,1
	ret
.LVL9:
.L4:
	.loc 1 43 10
	li	a0,0
.LVL10:
.L1:
	.loc 1 47 1
	ret
	.cfi_endproc
.LFE69:
	.size	eap_hdr_len_valid, .-eap_hdr_len_valid
	.section	.text.eap_hdr_validate,"ax",@progbits
	.align	1
	.globl	eap_hdr_validate
	.type	eap_hdr_validate, @function
eap_hdr_validate:
.LFB70:
	.loc 1 68 1 is_stmt 1
	.cfi_startproc
.LVL11:
	.loc 1 69 2
	.loc 1 70 2
	.loc 1 71 2
	.loc 1 73 2
	.loc 1 68 1 is_stmt 0
	addi	sp,sp,-32
	.cfi_def_cfa_offset 32
	sw	s2,16(sp)
	sw	s3,12(sp)
	.cfi_offset 18, -16
	.cfi_offset 19, -20
	mv	s2,a1
	mv	s3,a0
	.loc 1 73 7
	li	a1,1
.LVL12:
	mv	a0,a2
.LVL13:
	.loc 1 68 1
	sw	s0,24(sp)
	sw	s1,20(sp)
	sw	ra,28(sp)
	.cfi_offset 8, -8
	.cfi_offset 9, -12
	.cfi_offset 1, -4
	.loc 1 68 1
	mv	s0,a2
	mv	s1,a3
	.loc 1 73 7
	call	eap_hdr_len_valid
.LVL14:
	.loc 1 73 5
	beq	a0,zero,.L11
	.loc 1 76 2 is_stmt 1
.LVL15:
.LBB29:
.LBB30:
	.loc 2 81 2
	.loc 2 81 9 is_stmt 0
	lw	a5,8(s0)
	.loc 2 81 5
	bne	a5,zero,.L9
	.loc 2 83 2 is_stmt 1
	.loc 2 83 13 is_stmt 0
	addi	a5,s0,12
.L9:
.LVL16:
.LBE30:
.LBE29:
	.loc 1 77 2 is_stmt 1
	.loc 1 77 44 is_stmt 0
	lbu	a2,3(a5)
	lbu	a4,2(a5)
	.loc 1 80 6
	lbu	a3,4(a5)
	.loc 1 77 44
	slli	a2,a2,8
	or	a2,a2,a4
	.loc 1 77 8
	slli	a4,a2,8
	srli	a2,a2,8
	or	a4,a4,a2
	slli	a4,a4,16
	.loc 1 80 5
	li	a2,254
	.loc 1 77 8
	srli	a4,a4,16
.LVL17:
	.loc 1 78 2 is_stmt 1
	.loc 1 80 2
	.loc 1 80 5 is_stmt 0
	bne	a3,a2,.L10
.LBB31:
	.loc 1 81 3 is_stmt 1
	.loc 1 82 3
	.loc 1 83 3
	.loc 1 83 6 is_stmt 0
	li	a3,11
.LBE31:
	.loc 1 74 9
	li	a0,0
.LBB40:
	.loc 1 83 6
	bleu	a4,a3,.L7
	.loc 1 88 3 is_stmt 1
.LVL18:
	.loc 1 89 3
.LBB32:
.LBB33:
	.file 3 "/mnt/d/GitHub/bl_iot_sdk_for_aithinker/components/security/wpa_supplicant/src/utils/common.h"
	.loc 3 149 2
.LBE33:
.LBE32:
	.loc 1 90 3
	.loc 1 91 3
.LBB35:
.LBB36:
	.loc 3 161 2
.LBE36:
.LBE35:
	.loc 1 92 3
	.loc 1 93 3
.LBB38:
.LBB34:
	.loc 3 149 11 is_stmt 0
	lbu	a2,5(a5)
	.loc 3 149 26
	lbu	a3,6(a5)
	.loc 3 149 15
	slli	a2,a2,16
	.loc 3 149 30
	slli	a3,a3,8
	.loc 3 149 22
	or	a2,a2,a3
	.loc 3 149 39
	lbu	a3,7(a5)
	.loc 3 149 36
	or	a2,a2,a3
.LBE34:
.LBE38:
	.loc 1 93 6
	bne	s3,a2,.L7
.LBB39:
.LBB37:
	.loc 3 161 10 discriminator 1
	lbu	a2,8(a5)
	.loc 3 161 60 discriminator 1
	lbu	a3,11(a5)
	.loc 3 161 21 discriminator 1
	slli	a2,a2,24
	.loc 3 161 57 discriminator 1
	or	a2,a2,a3
	.loc 3 161 32 discriminator 1
	lbu	a3,9(a5)
	.loc 3 161 36 discriminator 1
	slli	a3,a3,16
	.loc 3 161 57 discriminator 1
	or	a2,a2,a3
	.loc 3 161 47 discriminator 1
	lbu	a3,10(a5)
	.loc 3 161 51 discriminator 1
	slli	a3,a3,8
	.loc 3 161 57 discriminator 1
	or	a2,a2,a3
.LBE37:
.LBE39:
	.loc 1 93 28 discriminator 1
	bne	s2,a2,.L7
	.loc 1 99 30
	addi	a4,a4,-12
.LVL19:
	.loc 1 92 7
	addi	a0,a5,12
.LVL20:
	.loc 1 99 3 is_stmt 1
	.loc 1 99 9 is_stmt 0
	sw	a4,0(s1)
.LVL21:
	.loc 1 100 3 is_stmt 1
.L7:
.LBE40:
	.loc 1 109 1 is_stmt 0
	lw	ra,28(sp)
	.cfi_remember_state
	.cfi_restore 1
	lw	s0,24(sp)
	.cfi_restore 8
.LVL22:
	lw	s1,20(sp)
	.cfi_restore 9
.LVL23:
	lw	s2,16(sp)
	.cfi_restore 18
.LVL24:
	lw	s3,12(sp)
	.cfi_restore 19
.LVL25:
	addi	sp,sp,32
	.cfi_def_cfa_offset 0
	jr	ra
.LVL26:
.L10:
	.cfi_restore_state
	.loc 1 102 3 is_stmt 1
	.loc 1 74 9 is_stmt 0
	li	a0,0
	.loc 1 102 6
	bne	s3,zero,.L7
	.loc 1 102 33 discriminator 1
	bne	a3,s2,.L7
	.loc 1 106 3 is_stmt 1
	.loc 1 106 30 is_stmt 0
	addi	a4,a4,-5
.LVL27:
	.loc 1 106 9
	sw	a4,0(s1)
	.loc 1 107 3 is_stmt 1
	.loc 1 107 14 is_stmt 0
	addi	a0,a5,5
	j	.L7
.LVL28:
.L11:
	.loc 1 74 9
	li	a0,0
	j	.L7
	.cfi_endproc
.LFE70:
	.size	eap_hdr_validate, .-eap_hdr_validate
	.section	.text.eap_msg_alloc,"ax",@progbits
	.align	1
	.globl	eap_msg_alloc
	.type	eap_msg_alloc, @function
eap_msg_alloc:
.LFB71:
	.loc 1 130 1 is_stmt 1
	.cfi_startproc
.LVL29:
	addi	sp,sp,-32
	.cfi_def_cfa_offset 32
	sw	s0,24(sp)
	sw	s2,16(sp)
	sw	s3,12(sp)
	sw	s4,8(sp)
	sw	s5,4(sp)
	sw	ra,28(sp)
	sw	s1,20(sp)
	.cfi_offset 8, -8
	.cfi_offset 18, -16
	.cfi_offset 19, -20
	.cfi_offset 20, -24
	.cfi_offset 21, -28
	.cfi_offset 1, -4
	.cfi_offset 9, -12
	.loc 1 130 1 is_stmt 0
	mv	s3,a0
	.loc 1 131 2 is_stmt 1
	.loc 1 132 2
	.loc 1 133 2
	.loc 1 135 2
	.loc 1 130 1 is_stmt 0
	mv	s2,a1
	mv	s5,a3
	mv	s4,a4
	.loc 1 135 31
	li	s0,12
	bne	a0,zero,.L19
	li	s0,5
.L19:
	.loc 1 135 6 discriminator 4
	add	s0,s0,a2
.LVL30:
	.loc 1 137 2 is_stmt 1 discriminator 4
	.loc 1 137 8 is_stmt 0 discriminator 4
	mv	a0,s0
.LVL31:
	call	wpabuf_alloc
.LVL32:
	mv	s1,a0
.LVL33:
	.loc 1 138 2 is_stmt 1 discriminator 4
	.loc 1 138 5 is_stmt 0 discriminator 4
	beq	a0,zero,.L18
	.loc 1 141 2 is_stmt 1
	.loc 1 141 8 is_stmt 0
	li	a1,4
	call	wpabuf_put
.LVL34:
	.loc 1 142 2 is_stmt 1
	.loc 1 144 17 is_stmt 0
	slli	a5,s0,8
	slli	s0,s0,16
.LVL35:
	srli	s0,s0,16
	srli	s0,s0,8
	or	s0,a5,s0
	slli	a5,s0,16
	srli	a5,a5,16
	.loc 1 144 14
	srli	a5,a5,8
	sb	s0,2(a0)
	.loc 1 142 12
	sb	s5,0(a0)
	.loc 1 143 2 is_stmt 1
	.loc 1 143 18 is_stmt 0
	sb	s4,1(a0)
	.loc 1 144 2 is_stmt 1
	.loc 1 144 14 is_stmt 0
	sb	a5,3(a0)
	.loc 1 146 2 is_stmt 1
	.loc 1 147 3 is_stmt 0
	andi	s0,s2,0xff
.LBB53:
.LBB54:
	.loc 2 110 12
	li	a1,1
	mv	a0,s1
.LVL36:
.LBE54:
.LBE53:
	.loc 1 146 5
	bne	s3,zero,.L21
	.loc 1 147 3 is_stmt 1
.LVL37:
.LBB56:
.LBB55:
	.loc 2 110 2
	.loc 2 110 12 is_stmt 0
	call	wpabuf_put
.LVL38:
	.loc 2 111 2 is_stmt 1
	.loc 2 111 7 is_stmt 0
	sb	s0,0(a0)
.LVL39:
.L18:
.LBE55:
.LBE56:
	.loc 1 155 1
	lw	ra,28(sp)
	.cfi_remember_state
	.cfi_restore 1
	lw	s0,24(sp)
	.cfi_restore 8
	lw	s2,16(sp)
	.cfi_restore 18
	lw	s3,12(sp)
	.cfi_restore 19
.LVL40:
	lw	s4,8(sp)
	.cfi_restore 20
	lw	s5,4(sp)
	.cfi_restore 21
	mv	a0,s1
	lw	s1,20(sp)
	.cfi_restore 9
.LVL41:
	addi	sp,sp,32
	.cfi_def_cfa_offset 0
	jr	ra
.LVL42:
.L21:
	.cfi_restore_state
	.loc 1 149 3 is_stmt 1
.LBB57:
.LBB58:
	.loc 2 110 2
	.loc 2 110 12 is_stmt 0
	call	wpabuf_put
.LVL43:
	.loc 2 111 2 is_stmt 1
	.loc 2 111 7 is_stmt 0
	li	a5,-2
	sb	a5,0(a0)
.LVL44:
.LBE58:
.LBE57:
	.loc 1 150 3 is_stmt 1
.LBB59:
.LBB60:
	.loc 2 134 2
	.loc 2 134 12 is_stmt 0
	li	a1,3
	mv	a0,s1
	call	wpabuf_put
.LVL45:
	.loc 2 135 2 is_stmt 1
.LBB61:
.LBB62:
	.loc 3 154 2
	.loc 3 154 14 is_stmt 0
	srli	a5,s3,16
	.loc 3 154 7
	sb	a5,0(a0)
	.loc 3 155 2 is_stmt 1
	.loc 3 155 14 is_stmt 0
	srli	a5,s3,8
	.loc 3 155 7
	sb	a5,1(a0)
	.loc 3 156 2 is_stmt 1
	.loc 3 156 7 is_stmt 0
	sb	s3,2(a0)
.LVL46:
.LBE62:
.LBE61:
.LBE60:
.LBE59:
	.loc 1 151 3 is_stmt 1
.LBB63:
.LBB64:
	.loc 2 140 2
	.loc 2 140 12 is_stmt 0
	li	a1,4
	mv	a0,s1
	call	wpabuf_put
.LVL47:
	.loc 2 141 2 is_stmt 1
.LBB65:
.LBB66:
	.loc 3 166 2
	.loc 3 166 14 is_stmt 0
	srli	a5,s2,24
	.loc 3 166 7
	sb	a5,0(a0)
	.loc 3 167 2 is_stmt 1
	.loc 3 167 14 is_stmt 0
	srli	a5,s2,16
	.loc 3 168 14
	srli	s2,s2,8
.LVL48:
	.loc 3 167 7
	sb	a5,1(a0)
	.loc 3 168 2 is_stmt 1
	.loc 3 168 7 is_stmt 0
	sb	s2,2(a0)
	.loc 3 169 2 is_stmt 1
	.loc 3 169 7 is_stmt 0
	sb	s0,3(a0)
.LVL49:
	.loc 3 170 1
	j	.L18
.LBE66:
.LBE65:
.LBE64:
.LBE63:
	.cfi_endproc
.LFE71:
	.size	eap_msg_alloc, .-eap_msg_alloc
	.section	.text.eap_update_len,"ax",@progbits
	.align	1
	.globl	eap_update_len
	.type	eap_update_len, @function
eap_update_len:
.LFB72:
	.loc 1 168 1 is_stmt 1
	.cfi_startproc
.LVL50:
	.loc 1 169 2
	.loc 1 170 2
.LBB71:
.LBB72:
	.loc 2 81 2
	.loc 2 81 9 is_stmt 0
	lw	a4,8(a0)
	.loc 2 81 5
	bne	a4,zero,.L30
	.loc 2 83 2 is_stmt 1
	.loc 2 83 13 is_stmt 0
	addi	a4,a0,12
.L30:
.LVL51:
.LBE72:
.LBE71:
	.loc 1 171 2 is_stmt 1
.LBB73:
.LBB74:
	.loc 2 61 2
	.loc 2 61 12 is_stmt 0
	lw	a5,4(a0)
.LVL52:
.LBE74:
.LBE73:
	.loc 1 171 5
	li	a3,3
	bleu	a5,a3,.L29
	.loc 1 173 2 is_stmt 1
.LVL53:
	.loc 2 61 2
	.loc 1 173 17 is_stmt 0
	slli	a3,a5,8
	slli	a5,a5,16
	srli	a5,a5,16
	srli	a5,a5,8
	or	a5,a3,a5
	slli	a3,a5,16
	srli	a3,a3,16
	.loc 1 173 14
	sb	a5,2(a4)
	srli	a5,a3,8
	sb	a5,3(a4)
.L29:
	.loc 1 174 1
	ret
	.cfi_endproc
.LFE72:
	.size	eap_update_len, .-eap_update_len
	.section	.text.eap_get_id,"ax",@progbits
	.align	1
	.globl	eap_get_id
	.type	eap_get_id, @function
eap_get_id:
.LFB73:
	.loc 1 183 1 is_stmt 1
	.cfi_startproc
.LVL54:
	.loc 1 184 2
	.loc 1 186 2
.LBB79:
.LBB80:
	.loc 2 61 2
.LBE80:
.LBE79:
	.loc 1 186 5 is_stmt 0
	lw	a4,4(a0)
	li	a5,3
	bleu	a4,a5,.L35
	.loc 1 189 2 is_stmt 1
.LVL55:
.LBB81:
.LBB82:
	.loc 2 81 2
	.loc 2 81 9 is_stmt 0
	lw	a5,8(a0)
	.loc 2 81 5
	bne	a5,zero,.L34
	.loc 2 83 2 is_stmt 1
	.loc 2 83 13 is_stmt 0
	addi	a5,a0,12
.L34:
.LVL56:
.LBE82:
.LBE81:
	.loc 1 190 2 is_stmt 1
	.loc 1 190 12 is_stmt 0
	lbu	a0,1(a5)
.LVL57:
	ret
.LVL58:
.L35:
	.loc 1 187 10
	li	a0,0
.LVL59:
	.loc 1 191 1
	ret
	.cfi_endproc
.LFE73:
	.size	eap_get_id, .-eap_get_id
	.section	.text.eap_get_type,"ax",@progbits
	.align	1
	.globl	eap_get_type
	.type	eap_get_type, @function
eap_get_type:
.LFB74:
	.loc 1 200 1 is_stmt 1
	.cfi_startproc
.LVL60:
	.loc 1 201 2
.LBB87:
.LBB88:
	.loc 2 61 2
.LBE88:
.LBE87:
	.loc 1 201 5 is_stmt 0
	lw	a4,4(a0)
	li	a5,4
	bleu	a4,a5,.L39
	.loc 1 204 2 is_stmt 1
.LVL61:
.LBB89:
.LBB90:
	.loc 2 81 2
	.loc 2 81 9 is_stmt 0
	lw	a5,8(a0)
	.loc 2 81 5
	bne	a5,zero,.L38
	.loc 2 83 2 is_stmt 1
	.loc 2 83 13 is_stmt 0
	addi	a5,a0,12
.L38:
.LVL62:
.LBE90:
.LBE89:
	.loc 1 204 40
	lbu	a0,4(a5)
.LVL63:
	ret
.LVL64:
.L39:
	.loc 1 202 10
	li	a0,0
.LVL65:
	.loc 1 205 1
	ret
	.cfi_endproc
.LFE74:
	.size	eap_get_type, .-eap_get_type
	.text
.Letext0:
	.file 4 "/mnt/d/GitHub/bl_iot_sdk_for_aithinker/toolchain/riscv/Linux/lib/gcc/riscv64-unknown-elf/10.2.0/include/stddef.h"
	.file 5 "/mnt/d/GitHub/bl_iot_sdk_for_aithinker/toolchain/riscv/Linux/riscv64-unknown-elf/include/machine/_default_types.h"
	.file 6 "/mnt/d/GitHub/bl_iot_sdk_for_aithinker/toolchain/riscv/Linux/riscv64-unknown-elf/include/sys/_stdint.h"
	.file 7 "/mnt/d/GitHub/bl_iot_sdk_for_aithinker/components/security/wpa_supplicant/src/eap_peer/eap_defs.h"