	.file	"sntp.c"
	.option nopic
	.attribute arch, "rv32i2p0_m2p0_f2p0_c2p0"
	.attribute unaligned_access, 0
	.attribute stack_align, 16
	.text
.Ltext0:
	.cfi_sections	.debug_frame
	.section	.text.sntp_send_request,"ax",@progbits
	.align	1
	.type	sntp_send_request, @function
sntp_send_request:
.LFB14:
	.file 1 "/mnt/d/GitHub/bl_iot_sdk_for_aithinker/components/network/sntp/sntp.c"
	.loc 1 563 1
	.cfi_startproc
.LVL0:
	.loc 1 564 3
	.loc 1 566 3
	.loc 1 566 8
	.loc 1 566 7
	.loc 1 566 17
	.loc 1 568 3
	.loc 1 563 1 is_stmt 0
	addi	sp,sp,-16
	.cfi_def_cfa_offset 16
	sw	s1,4(sp)
	.loc 1 568 7
	li	a2,640
	.cfi_offset 9, -12
	.loc 1 563 1
	mv	s1,a0
	.loc 1 568 7
	li	a1,48
	li	a0,182
.LVL1:
	.loc 1 563 1
	sw	ra,12(sp)
	sw	s0,8(sp)
	sw	s2,0(sp)
	.cfi_offset 1, -4
	.cfi_offset 8, -8
	.cfi_offset 18, -16
	.loc 1 568 7
	call	pbuf_alloc
.LVL2:
	.loc 1 569 3 is_stmt 1
	.loc 1 569 6 is_stmt 0
	beq	a0,zero,.L2
.LBB6:
	.loc 1 570 22
	lw	s2,4(a0)
	mv	s0,a0
	.loc 1 570 5 is_stmt 1
.LVL3:
	.loc 1 571 5
	.loc 1 573 5
.LBB7:
.LBB8:
	.loc 1 356 3
	li	a2,48
	li	a1,0
	mv	a0,s2
.LVL4:
	call	memset
.LVL5:
	.loc 1 357 3
	.loc 1 357 19 is_stmt 0
	li	a5,35
	sb	a5,0(s2)
.LVL6:
.LBE8:
.LBE7:
	.loc 1 575 5 is_stmt 1
	lui	a5,%hi(.LANCHOR0)
	lw	a0,%lo(.LANCHOR0)(a5)
	mv	a2,s1
	mv	a1,s0
	li	a3,123
	call	udp_sendto
.LVL7:
	.loc 1 577 5
	mv	a0,s0
	call	pbuf_free
.LVL8:
	.loc 1 580 5
	.loc 1 580 52 is_stmt 0
	lui	a5,%hi(.LANCHOR1)
	lbu	a5,%lo(.LANCHOR1)(a5)
	li	a4,12
	.loc 1 583 5
	lui	a1,%hi(sntp_try_next_server)
	.loc 1 580 52
	mul	a4,a5,a4
	lui	a5,%hi(.LANCHOR2)
	addi	a5,a5,%lo(.LANCHOR2)
	.loc 1 583 5
	li	a2,0
	addi	a1,a1,%lo(sntp_try_next_server)
	.loc 1 580 52
	add	a5,a5,a4
	lbu	a4,8(a5)
	slli	a4,a4,1
	sb	a4,8(a5)
	.loc 1 583 5 is_stmt 1
.LVL9:
.L4:
.LBE6:
	.loc 1 594 1 is_stmt 0
	lw	s0,8(sp)
	.cfi_remember_state
	.cfi_restore 8
	lw	ra,12(sp)
	.cfi_restore 1
	lw	s1,4(sp)
	.cfi_restore 9
.LVL10:
	lw	s2,0(sp)
	.cfi_restore 18
	.loc 1 592 5
	li	a0,16384
	.loc 1 594 1
	.loc 1 592 5
	addi	a0,a0,-1384
	.loc 1 594 1
	addi	sp,sp,16
	.cfi_def_cfa_offset 0
	.loc 1 592 5
	tail	sys_timeout
.LVL11:
.L2:
	.cfi_restore_state
	.loc 1 590 65 is_stmt 1
	.loc 1 592 5
	lui	a1,%hi(sntp_request)
	li	a2,0
	addi	a1,a1,%lo(sntp_request)
	j	.L4
	.cfi_endproc
.LFE14:
	.size	sntp_send_request, .-sntp_send_request
	.section	.text.sntp_request,"ax",@progbits
	.align	1
	.type	sntp_request, @function
sntp_request:
.LFB16:
	.loc 1 626 1
	.cfi_startproc
.LVL12:
	.loc 1 627 3
	.loc 1 628 3
	.loc 1 630 3
	.loc 1 634 3
	.loc 1 626 1 is_stmt 0
	addi	sp,sp,-32
	.cfi_def_cfa_offset 32
	sw	s1,20(sp)
	.cfi_offset 9, -12
	.loc 1 634 40
	lui	s1,%hi(.LANCHOR1)
	addi	s1,s1,%lo(.LANCHOR1)
	lbu	a5,0(s1)
	.loc 1 626 1
	sw	s2,16(sp)
	.cfi_offset 18, -16
	.loc 1 634 40
	li	s2,12
	mul	a5,a5,s2
	.loc 1 626 1
	sw	s0,24(sp)
	.cfi_offset 8, -8
	.loc 1 634 40
	lui	s0,%hi(.LANCHOR2)
	addi	s0,s0,%lo(.LANCHOR2)
	.loc 1 626 1
	sw	ra,28(sp)
	.cfi_offset 1, -4
	.loc 1 634 40
	add	a5,s0,a5
	lw	a0,0(a5)
.LVL13:
	.loc 1 634 6
	beq	a0,zero,.L6
	.loc 1 636 5 is_stmt 1
	.loc 1 637 11 is_stmt 0
	lui	a2,%hi(sntp_dns_found)
	.loc 1 636 54
	sw	zero,4(a5)
	.loc 1 637 5 is_stmt 1
	.loc 1 637 11 is_stmt 0
	li	a3,0
	addi	a2,a2,%lo(sntp_dns_found)
	addi	a1,sp,12
	call	dns_gethostbyname
.LVL14:
	.loc 1 639 5 is_stmt 1
	.loc 1 639 8 is_stmt 0
	li	a5,-5
	beq	a0,a5,.L5
	.loc 1 643 12 is_stmt 1
	.loc 1 643 15 is_stmt 0
	bne	a0,zero,.L8
	.loc 1 644 7 is_stmt 1
	.loc 1 644 40 is_stmt 0
	lbu	a5,0(s1)
	.loc 1 644 46
	mul	a5,a5,s2
	add	s0,s0,a5
	lw	a5,12(sp)
	sw	a5,4(s0)
.LVL15:
	.loc 1 653 3 is_stmt 1
.L9:
	.loc 1 655 71
	.loc 1 656 5
	addi	a0,sp,12
	call	sntp_send_request
.LVL16:
.L5:
	.loc 1 662 1 is_stmt 0
	lw	ra,28(sp)
	.cfi_remember_state
	.cfi_restore 1
	lw	s0,24(sp)
	.cfi_restore 8
	lw	s1,20(sp)
	.cfi_restore 9
	lw	s2,16(sp)
	.cfi_restore 18
	addi	sp,sp,32
	.cfi_def_cfa_offset 0
	jr	ra
.L6:
	.cfi_restore_state
	.loc 1 649 5 is_stmt 1
	.loc 1 649 25 is_stmt 0
	lw	a5,4(a5)
	sw	a5,12(sp)
	.loc 1 650 5 is_stmt 1
	.loc 1 650 9 is_stmt 0
	bne	a5,zero,.L9
.L8:
	.loc 1 659 5 is_stmt 1
	.loc 1 660 5
	lui	a1,%hi(sntp_try_next_server)
	li	a0,16384
	li	a2,0
	addi	a1,a1,%lo(sntp_try_next_server)
	addi	a0,a0,-1384
	call	sys_timeout
.LVL17:
	j	.L5
	.cfi_endproc
.LFE16:
	.size	sntp_request, .-sntp_request
	.section	.text.sntp_try_next_server,"ax",@progbits
	.align	1
	.type	sntp_try_next_server, @function
sntp_try_next_server:
.LFB12:
	.loc 1 419 1
	.cfi_startproc
.LVL18:
	.loc 1 420 3
	.loc 1 421 3
	.loc 1 423 3
	.loc 1 423 14 is_stmt 0
	lui	a3,%hi(.LANCHOR1)
	lbu	a0,%lo(.LANCHOR1)(a3)
.LVL19:
	.loc 1 424 3 is_stmt 1
	.loc 1 424 15
	.loc 1 425 5
	.loc 1 419 1 is_stmt 0
	addi	sp,sp,-16
	.cfi_def_cfa_offset 16
	sw	ra,12(sp)
	.loc 1 425 24
	addi	a5,a0,1
	.loc 1 419 1
	sw	s0,8(sp)
	.cfi_offset 1, -4
	.cfi_offset 8, -8
	.loc 1 425 24
	andi	a5,a5,0xff
	.loc 1 426 5 is_stmt 1
	.loc 1 426 8 is_stmt 0
	li	a4,2
	addi	a3,a3,%lo(.LANCHOR1)
	bleu	a5,a4,.L16
	.loc 1 427 27
	li	a5,0
.L16:
	.loc 1 429 5 is_stmt 1
	.loc 1 429 57 is_stmt 0
	li	a1,12
	mul	a1,a5,a1
	lui	a4,%hi(.LANCHOR2)
	addi	a2,a4,%lo(.LANCHOR2)
	lui	s0,%hi(.LANCHOR3)
	addi	a4,a4,%lo(.LANCHOR2)
	addi	s0,s0,%lo(.LANCHOR3)
	add	a2,a2,a1
	.loc 1 429 8
	lw	a1,4(a2)
	bne	a1,zero,.L18
	.loc 1 431 9
	lw	a2,0(a2)
	bne	a2,zero,.L18
	.loc 1 424 26 is_stmt 1
.LVL20:
	.loc 1 424 15
	.loc 1 425 5
	.loc 1 425 24 is_stmt 0
	addi	a5,a5,1
	andi	a5,a5,0xff
	.loc 1 426 5 is_stmt 1
	.loc 1 426 8 is_stmt 0
	li	a2,3
	bne	a5,a2,.L19
	.loc 1 427 27
	li	a5,0
.L19:
	.loc 1 429 5 is_stmt 1
	.loc 1 429 57 is_stmt 0
	li	a2,12
	mul	a2,a5,a2
	add	a4,a4,a2
	.loc 1 429 8
	lw	a2,4(a4)
	beq	a2,zero,.L20
.LVL21:
.L18:
	sb	a5,0(a3)
.LVL22:
.LBB14:
.LBB15:
	.loc 1 435 66 is_stmt 1
	.loc 1 437 7
	.loc 1 437 26 is_stmt 0
	li	a5,16384
	addi	a5,a5,-1384
	sw	a5,0(s0)
	.loc 1 439 7 is_stmt 1
.LBE15:
.LBE14:
	.loc 1 446 1 is_stmt 0
	lw	s0,8(sp)
	.cfi_remember_state
	.cfi_restore 8
	lw	ra,12(sp)
	.cfi_restore 1
.LBB18:
.LBB16:
	.loc 1 439 7
	li	a0,0
.LVL23:
.LBE16:
.LBE18:
	.loc 1 446 1
	addi	sp,sp,16
	.cfi_def_cfa_offset 0
.LBB19:
.LBB17:
	.loc 1 439 7
	tail	sntp_request
.LVL24:
.L20:
	.cfi_restore_state
.LBE17:
.LBE19:
	.loc 1 431 9
	lw	a4,0(a4)
	bne	a4,zero,.L18
	.loc 1 424 26 is_stmt 1 discriminator 2
.LVL25:
	.loc 1 424 15 discriminator 2
	.loc 1 444 3 discriminator 2
	.loc 1 444 23 is_stmt 0 discriminator 2
	sb	a0,0(a3)
	.loc 1 445 3 is_stmt 1 discriminator 2
.LVL26:
.LBB20:
.LBB21:
	.loc 1 386 3 discriminator 2
	.loc 1 389 54 discriminator 2
	.loc 1 392 3 discriminator 2
	lw	a0,0(s0)
.LVL27:
	lui	a1,%hi(sntp_request)
	li	a2,0
	addi	a1,a1,%lo(sntp_request)
	call	sys_timeout
.LVL28:
.LBB22:
	.loc 1 396 5 discriminator 2
	.loc 1 398 5 discriminator 2
	.loc 1 398 44 is_stmt 0 discriminator 2
	lw	a3,0(s0)
	.loc 1 400 8 discriminator 2
	li	a4,151552
	addi	a4,a4,-1552
	.loc 1 398 23 discriminator 2
	slli	a5,a3,1
.LVL29:
	.loc 1 400 5 is_stmt 1 discriminator 2
	.loc 1 400 8 is_stmt 0 discriminator 2
	bgtu	a5,a4,.L15
	.loc 1 400 45
	bgeu	a3,a5,.L15
	.loc 1 402 7 is_stmt 1
	.loc 1 402 26 is_stmt 0
	sw	a5,0(s0)
.LVL30:
.L15:
.LBE22:
.LBE21:
.LBE20:
	.loc 1 446 1
	lw	ra,12(sp)
	.cfi_restore 1
	lw	s0,8(sp)
	.cfi_restore 8
	addi	sp,sp,16
	.cfi_def_cfa_offset 0
	jr	ra
	.cfi_endproc
.LFE12:
	.size	sntp_try_next_server, .-sntp_try_next_server
	.section	.text.sntp_dns_found,"ax",@progbits
	.align	1
	.type	sntp_dns_found, @function
sntp_dns_found:
.LFB15:
	.loc 1 602 1 is_stmt 1
	.cfi_startproc
.LVL31:
	.loc 1 603 3
	.loc 1 604 3
	.loc 1 606 3
	.loc 1 602 1 is_stmt 0
	mv	a0,a1
.LVL32:
	.loc 1 606 6
	beq	a1,zero,.L28
	.loc 1 608 5 is_stmt 1
	.loc 1 609 5
	.loc 1 609 38 is_stmt 0
	lui	a5,%hi(.LANCHOR1)
	lbu	a5,%lo(.LANCHOR1)(a5)
	.loc 1 609 44
	li	a4,12
	mul	a4,a5,a4
	lui	a5,%hi(.LANCHOR2)
	addi	a5,a5,%lo(.LANCHOR2)
	add	a5,a5,a4
	lw	a4,0(a1)
	sw	a4,4(a5)
	.loc 1 610 5 is_stmt 1
	tail	sntp_send_request
.LVL33:
.L28:
	.loc 1 613 5
	.loc 1 614 5
	li	a0,0
.LVL34:
	tail	sntp_try_next_server
.LVL35:
	.cfi_endproc
.LFE15:
	.size	sntp_dns_found, .-sntp_dns_found
	.section	.rodata.sntp_recv.str1.4,"aMS",@progbits,1
	.align	2
.LC0:
	.string	"SNTP time now\r\n"
	.align	2
.LC1:
	.string	"sntp_recv: Received Kiss-of-Death\r\n"
	.align	2
.LC2:
	.string	"Try process\r\n"
	.align	2
.LC3:
	.string	"Processing...\r\n"
	.align	2
.LC4:
	.string	"sntp_process: %ld, %lu us\r\n"
	.section	.text.sntp_recv,"ax",@progbits
	.align	1
	.type	sntp_recv, @function
sntp_recv:
.LFB13:
	.loc 1 455 1
	.cfi_startproc
.LVL36:
	.loc 1 456 3
	.loc 1 457 3
	.loc 1 458 3
	.loc 1 459 3
	.loc 1 461 3
	lui	a0,%hi(.LC0)
.LVL37:
	.loc 1 455 1 is_stmt 0
	addi	sp,sp,-48
	.cfi_def_cfa_offset 48
	.loc 1 461 3
	addi	a0,a0,%lo(.LC0)
	.loc 1 455 1
	sw	s0,40(sp)
	sw	s1,36(sp)
	.cfi_offset 8, -8
	.cfi_offset 9, -12
	mv	s0,a2
	sw	ra,44(sp)
	sw	s2,32(sp)
	sw	s3,28(sp)
	.cfi_offset 1, -4
	.cfi_offset 18, -16
	.cfi_offset 19, -20
	.loc 1 461 3
	call	printf
.LVL38:
	.loc 1 463 3 is_stmt 1
	.loc 1 464 3
	.loc 1 466 3
	.loc 1 472 3
	.loc 1 473 3
	.loc 1 477 5
	.loc 1 477 8 is_stmt 0
	lhu	a4,8(s0)
	li	a5,48
	.loc 1 466 7
	li	s1,-16
	.loc 1 477 8
	bne	a4,a5,.L30
	.loc 1 478 7 is_stmt 1
	.loc 1 478 14 is_stmt 0
	li	a1,0
	mv	a0,s0
	call	pbuf_get_at
.LVL39:
	.loc 1 480 25
	lui	a5,%hi(.LANCHOR4)
	lbu	a5,%lo(.LANCHOR4)(a5)
	.loc 1 478 12
	andi	a0,a0,7
.LVL40:
	.loc 1 480 7 is_stmt 1
	.loc 1 480 10 is_stmt 0
	bne	a5,zero,.L31
	.loc 1 480 31 discriminator 1
	li	a5,4
	.loc 1 507 13 discriminator 1
	li	s1,-3
	.loc 1 480 31 discriminator 1
	bne	a0,a5,.L30
.L32:
	.loc 1 482 9 is_stmt 1
	.loc 1 482 19 is_stmt 0
	li	a1,1
	mv	a0,s0
.LVL41:
	call	pbuf_get_at
.LVL42:
	.loc 1 484 9 is_stmt 1
	.loc 1 484 12 is_stmt 0
	bne	a0,zero,.L33
	.loc 1 486 11 is_stmt 1
.LVL43:
	.loc 1 487 11
	lui	a0,%hi(.LC1)
.LVL44:
	addi	a0,a0,%lo(.LC1)
	call	printf
.LVL45:
	.loc 1 486 15 is_stmt 0
	li	s1,1
	j	.L30
.LVL46:
.L31:
	.loc 1 480 50 discriminator 3
	li	a4,1
	.loc 1 507 13 discriminator 3
	li	s1,-3
	.loc 1 480 50 discriminator 3
	bne	a5,a4,.L30
	.loc 1 481 31
	li	a5,5
	beq	a0,a5,.L32
.LVL47:
.L30:
	.loc 1 510 7 is_stmt 1
	.loc 1 520 3
	mv	a0,s0
	call	pbuf_free
.LVL48:
	.loc 1 522 3
	lui	a0,%hi(.LC2)
	addi	a0,a0,%lo(.LC2)
	call	printf
.LVL49:
	.loc 1 523 3
	.loc 1 523 6 is_stmt 0
	bne	s1,zero,.L34
.LVL50:
	.loc 1 525 5 is_stmt 1
.LBB26:
.LBB27:
	.loc 1 296 3
	.loc 1 297 3
	.loc 1 299 3
	.loc 1 299 16 is_stmt 0
	lw	a0,8(sp)
	.loc 1 338 11
	lui	s3,%hi(.LANCHOR5)
	.loc 1 339 12
	lui	s2,%hi(.LANCHOR6)
	.loc 1 299 16
	call	lwip_htonl
.LVL51:
	mv	s0,a0
.LVL52:
	.loc 1 300 3 is_stmt 1
	.loc 1 300 10 is_stmt 0
	lw	a0,12(sp)
	call	lwip_htonl
.LVL53:
	mv	s1,a0
.LVL54:
	.loc 1 302 3 is_stmt 1
	lui	a0,%hi(.LC3)
	addi	a0,a0,%lo(.LC3)
	call	printf
.LVL55:
	.loc 1 335 3
	.loc 1 337 3
	call	vTaskEnterCritical
.LVL56:
	.loc 1 338 3
	.loc 1 338 17 is_stmt 0
	li	a5,2085978112
	addi	a5,a5,384
	add	s0,s0,a5
.LVL57:
	.loc 1 338 11
	sw	s0,%lo(.LANCHOR5)(s3)
	.loc 1 339 3 is_stmt 1
	.loc 1 339 12 is_stmt 0
	sw	s1,%lo(.LANCHOR6)(s2)
	.loc 1 340 3 is_stmt 1
	.loc 1 340 19 is_stmt 0
	call	xTaskGetTickCount
.LVL58:
	.loc 1 340 17
	lui	a5,%hi(.LANCHOR7)
	sw	a0,%lo(.LANCHOR7)(a5)
	.loc 1 341 3 is_stmt 1
	.loc 1 341 7 is_stmt 0
	lui	a5,%hi(.LANCHOR8)
	lw	a5,%lo(.LANCHOR8)(a5)
	addi	s3,s3,%lo(.LANCHOR5)
	addi	s2,s2,%lo(.LANCHOR6)
	.loc 1 341 6
	beq	a5,zero,.L35
	.loc 1 342 5 is_stmt 1
	jalr	a5
.LVL59:
.L35:
	.loc 1 343 3
	.loc 1 343 60 is_stmt 0
	lw	a0,0(s2)
	.loc 1 343 42
	li	a4,1000
	lw	a1,0(s3)
	.loc 1 343 60
	divu	a0,a0,a4
	.loc 1 343 42
	mul	a5,a4,a1
	mulhu	a1,a4,a1
	.loc 1 343 3
	add	a0,a5,a0
	sltu	a5,a0,a5
	add	a1,a5,a1
	call	bl_sys_time_update
.LVL60:
	.loc 1 344 3 is_stmt 1
	call	vTaskExitCritical
.LVL61:
	.loc 1 346 3
	.loc 1 347 3
	.loc 1 347 99 is_stmt 0
	li	a2,999424
	addi	a2,a2,576
	mulhu	a2,s1,a2
	.loc 1 347 3
	lui	a0,%hi(.LC4)
	mv	a1,s0
	addi	a0,a0,%lo(.LC4)
	call	printf
.LVL62:
.LBE27:
.LBE26:
	.loc 1 529 5 is_stmt 1
	.loc 1 529 52 is_stmt 0
	lui	a5,%hi(.LANCHOR1)
	lbu	a5,%lo(.LANCHOR1)(a5)
	li	a4,12
	mul	a4,a5,a4
	lui	a5,%hi(.LANCHOR2)
	addi	a5,a5,%lo(.LANCHOR2)
	add	a5,a5,a4
	lbu	a4,8(a5)
	ori	a4,a4,1
	sb	a4,8(a5)
	.loc 1 532 5 is_stmt 1
	.loc 1 532 8 is_stmt 0
	lui	a5,%hi(.LANCHOR4)
	lbu	a5,%lo(.LANCHOR4)(a5)
	bne	a5,zero,.L29
.LBB28:
	.loc 1 533 7 is_stmt 1
	.loc 1 534 7
	lui	a0,%hi(sntp_try_next_server)
	li	a1,0
	addi	a0,a0,%lo(sntp_try_next_server)
	call	sys_untimeout
.LVL63:
	.loc 1 535 7
	lui	s0,%hi(sntp_request)
.LVL64:
	li	a1,0
	addi	a0,s0,%lo(sntp_request)
	call	sys_untimeout
.LVL65:
	.loc 1 538 7
	.loc 1 538 26 is_stmt 0
	li	a5,16384
	addi	a5,a5,-1384
	lui	a4,%hi(.LANCHOR3)
	sw	a5,%lo(.LANCHOR3)(a4)
	.loc 1 541 7 is_stmt 1
.LVL66:
	.loc 1 542 7
	lui	a5,%hi(.LANCHOR9)
	lw	a0,%lo(.LANCHOR9)(a5)
	li	a2,0
	addi	a1,s0,%lo(sntp_request)
	call	sys_timeout
.LVL67:
.L29:
.LBE28:
	.loc 1 555 1 is_stmt 0
	lw	ra,44(sp)
	.cfi_remember_state
	.cfi_restore 1
	lw	s0,40(sp)
	.cfi_restore 8
	lw	s1,36(sp)
	.cfi_restore 9
	lw	s2,32(sp)
	.cfi_restore 18
	lw	s3,28(sp)
	.cfi_restore 19
	addi	sp,sp,48
	.cfi_def_cfa_offset 0
	jr	ra
.LVL68:
.L33:
	.cfi_restore_state
	.loc 1 489 11 is_stmt 1
	li	a3,40
	li	a2,8
	addi	a1,sp,8
	mv	a0,s0
.LVL69:
	call	pbuf_copy_partial
.LVL70:
	.loc 1 501 13
	.loc 1 501 17 is_stmt 0
	li	s1,0
	j	.L30
.LVL71:
.L34:
	.loc 1 546 10 is_stmt 1
	.loc 1 546 13 is_stmt 0
	li	a5,1
	bne	s1,a5,.L29
.LVL72:
	.loc 1 548 5 is_stmt 1
	.loc 1 548 8 is_stmt 0
	lui	a5,%hi(.LANCHOR4)
	lbu	a5,%lo(.LANCHOR4)(a5)
	bne	a5,zero,.L29
	.loc 1 550 7 is_stmt 1
	li	a0,0
	call	sntp_try_next_server
.LVL73:
	.loc 1 554 3
	.loc 1 555 1 is_stmt 0
	j	.L29
	.cfi_endproc
.LFE13:
	.size	sntp_recv, .-sntp_recv
	.section	.rodata.sntp_init.str1.4,"aMS",@progbits,1
	.align	2
.LC5:
	.string	"[SNTP] pcb isready, %p\r\n"
	.section	.text.sntp_init,"ax",@progbits
	.align	1
	.globl	sntp_init
	.type	sntp_init, @function
sntp_init:
.LFB17:
	.loc 1 671 1 is_stmt 1
	.cfi_startproc
	.loc 1 682 3
	.loc 1 671 1 is_stmt 0
	addi	sp,sp,-16
	.cfi_def_cfa_offset 16
	sw	s0,8(sp)
	.cfi_offset 8, -8
	.loc 1 682 16
	lui	s0,%hi(.LANCHOR0)
	addi	s0,s0,%lo(.LANCHOR0)
	.loc 1 682 6
	lw	a5,0(s0)
	.loc 1 671 1
	sw	ra,12(sp)
	.cfi_offset 1, -4
	.loc 1 682 6
	bne	a5,zero,.L46
	.loc 1 683 5 is_stmt 1
	.loc 1 683 16 is_stmt 0
	li	a0,46
	call	udp_new_ip_type
.LVL74:
	mv	a1,a0
	.loc 1 683 14
	sw	a0,0(s0)
	.loc 1 684 5 is_stmt 1
	lui	a0,%hi(.LC5)
	addi	a0,a0,%lo(.LC5)
	call	printf
.LVL75:
	.loc 1 685 5
	.loc 1 685 10
	.loc 1 685 14 is_stmt 0
	lw	a0,0(s0)
	.loc 1 685 9 is_stmt 1
	.loc 1 685 19
	.loc 1 686 5
	.loc 1 686 8 is_stmt 0
	beq	a0,zero,.L46
	.loc 1 687 7 is_stmt 1
	lui	a1,%hi(sntp_recv)
	li	a2,0
	addi	a1,a1,%lo(sntp_recv)
	call	udp_recv
.LVL76:
	.loc 1 689 7
	.loc 1 689 23 is_stmt 0
	lui	a5,%hi(.LANCHOR4)
	lbu	a5,%lo(.LANCHOR4)(a5)
	.loc 1 689 10
	bne	a5,zero,.L50
	.loc 1 690 9 is_stmt 1
	.loc 1 690 28 is_stmt 0
	li	a5,16384
	addi	a5,a5,-1384
	lui	a4,%hi(.LANCHOR3)
	sw	a5,%lo(.LANCHOR3)(a4)
	.loc 1 692 9 is_stmt 1
	.loc 1 692 37 is_stmt 0
	call	bl_rand
.LVL77:
	.loc 1 692 9
	li	a5,4096
	addi	a5,a5,904
	remu	a0,a0,a5
	.loc 1 702 1
	lw	s0,8(sp)
	.cfi_remember_state
	.cfi_restore 8
	lw	ra,12(sp)
	.cfi_restore 1
	.loc 1 692 9
	lui	a1,%hi(sntp_request)
	.loc 1 702 1
	.loc 1 692 9
	li	a2,0
	addi	a1,a1,%lo(sntp_request)
	.loc 1 702 1
	addi	sp,sp,16
	.cfi_def_cfa_offset 0
	.loc 1 692 9
	tail	sys_timeout
.LVL78:
.L50:
	.cfi_restore_state
	.loc 1 696 14 is_stmt 1
	.loc 1 696 17 is_stmt 0
	li	a4,1
	bne	a5,a4,.L46
	.loc 1 697 9 is_stmt 1
	.loc 1 697 52 is_stmt 0
	lw	a0,0(s0)
	.loc 1 698 9
	lui	a1,%hi(ip_addr_any)
	li	a2,123
	.loc 1 697 35
	lbu	a5,9(a0)
	.loc 1 698 9
	addi	a1,a1,%lo(ip_addr_any)
	.loc 1 697 35
	ori	a5,a5,32
	.loc 1 697 33
	sb	a5,9(a0)
	.loc 1 698 9 is_stmt 1
	.loc 1 702 1 is_stmt 0
	lw	s0,8(sp)
	.cfi_remember_state
	.cfi_restore 8
	lw	ra,12(sp)
	.cfi_restore 1
	addi	sp,sp,16
	.cfi_def_cfa_offset 0
	.loc 1 698 9
	tail	udp_bind
.LVL79:
.L46:
	.cfi_restore_state
	.loc 1 702 1
	lw	ra,12(sp)
	.cfi_restore 1
	lw	s0,8(sp)
	.cfi_restore 8
	addi	sp,sp,16
	.cfi_def_cfa_offset 0
	jr	ra
	.cfi_endproc
.LFE17:
	.size	sntp_init, .-sntp_init
	.section	.text.sntp_stop,"ax",@progbits
	.align	1
	.globl	sntp_stop
	.type	sntp_stop, @function
sntp_stop:
.LFB18:
	.loc 1 710 1 is_stmt 1
	.cfi_startproc
	.loc 1 711 3
	.loc 1 712 3
	.loc 1 710 1 is_stmt 0
	addi	sp,sp,-16
	.cfi_def_cfa_offset 16
	sw	s0,8(sp)
	.cfi_offset 8, -8
	.loc 1 712 16
	lui	s0,%hi(.LANCHOR0)
	addi	s0,s0,%lo(.LANCHOR0)
	.loc 1 712 6
	lw	a5,0(s0)
	.loc 1 710 1
	sw	ra,12(sp)
	.cfi_offset 1, -4
	.loc 1 712 6
	beq	a5,zero,.L55
.LVL80:
.LBB29:
	.loc 1 715 17 is_stmt 1
	.loc 1 716 7
	.loc 1 716 36 is_stmt 0
	lui	a5,%hi(.LANCHOR2)
	addi	a5,a5,%lo(.LANCHOR2)
	.loc 1 719 5
	lui	a0,%hi(sntp_request)
	.loc 1 716 36
	sb	zero,8(a5)
	.loc 1 715 24 is_stmt 1
.LVL81:
	.loc 1 715 17
	.loc 1 716 7
	.loc 1 716 36 is_stmt 0
	sb	zero,20(a5)
	.loc 1 715 24 is_stmt 1
.LVL82:
	.loc 1 715 17
	.loc 1 716 7
	.loc 1 716 36 is_stmt 0
	sb	zero,32(a5)
	.loc 1 715 24 is_stmt 1
.LVL83:
	.loc 1 715 17
	.loc 1 719 5
	li	a1,0
	addi	a0,a0,%lo(sntp_request)
	call	sys_untimeout
.LVL84:
	.loc 1 720 5
	lui	a0,%hi(sntp_try_next_server)
	li	a1,0
	addi	a0,a0,%lo(sntp_try_next_server)
	call	sys_untimeout
.LVL85:
	.loc 1 721 5
	lw	a0,0(s0)
	call	udp_remove
.LVL86:
	.loc 1 722 5
	.loc 1 722 14 is_stmt 0
	sw	zero,0(s0)
.LVL87:
.L55:
.LBE29:
	.loc 1 724 1
	lw	ra,12(sp)
	.cfi_restore 1
	lw	s0,8(sp)
	.cfi_restore 8
	addi	sp,sp,16
	.cfi_def_cfa_offset 0
	jr	ra
	.cfi_endproc
.LFE18:
	.size	sntp_stop, .-sntp_stop
	.section	.text.sntp_enabled,"ax",@progbits
	.align	1
	.globl	sntp_enabled
	.type	sntp_enabled, @function
sntp_enabled:
.LFB19:
	.loc 1 731 1 is_stmt 1
	.cfi_startproc
	.loc 1 732 3
	.loc 1 732 32 is_stmt 0
	lui	a5,%hi(.LANCHOR0)
	lw	a0,%lo(.LANCHOR0)(a5)
	.loc 1 733 1
	snez	a0,a0
	ret
	.cfi_endproc
.LFE19:
	.size	sntp_enabled, .-sntp_enabled
	.section	.text.sntp_setoperatingmode,"ax",@progbits
	.align	1
	.globl	sntp_setoperatingmode
	.type	sntp_setoperatingmode, @function
sntp_setoperatingmode:
.LFB20:
	.loc 1 742 1 is_stmt 1
	.cfi_startproc
.LVL88:
	.loc 1 743 3
	.loc 1 744 3
	.loc 1 744 8
	.loc 1 744 38
	.loc 1 744 48
	.loc 1 745 3
	.loc 1 745 8
	.loc 1 745 7
	.loc 1 745 17
	.loc 1 746 3
	.loc 1 746 15 is_stmt 0
	lui	a5,%hi(.LANCHOR4)
	sb	a0,%lo(.LANCHOR4)(a5)
	.loc 1 747 1
	ret
	.cfi_endproc
.LFE20:
	.size	sntp_setoperatingmode, .-sntp_setoperatingmode
	.section	.text.sntp_getoperatingmode,"ax",@progbits
	.align	1
	.globl	sntp_getoperatingmode
	.type	sntp_getoperatingmode, @function
sntp_getoperatingmode:
.LFB21:
	.loc 1 755 1 is_stmt 1
	.cfi_startproc
	.loc 1 756 3
	.loc 1 757 1 is_stmt 0
	lui	a5,%hi(.LANCHOR4)
	lbu	a0,%lo(.LANCHOR4)(a5)
	ret
	.cfi_endproc
.LFE21:
	.size	sntp_getoperatingmode, .-sntp_getoperatingmode
	.section	.text.sntp_getreachability,"ax",@progbits
	.align	1
	.globl	sntp_getreachability
	.type	sntp_getreachability, @function
sntp_getreachability:
.LFB22:
	.loc 1 768 1 is_stmt 1
	.cfi_startproc
.LVL89:
	.loc 1 769 3
	.loc 1 769 6 is_stmt 0
	li	a5,2
	bgtu	a0,a5,.L66
	.loc 1 770 5 is_stmt 1
	.loc 1 770 29 is_stmt 0
	li	a5,12
	mul	a0,a0,a5
.LVL90:
	lui	a5,%hi(.LANCHOR2)
	addi	a5,a5,%lo(.LANCHOR2)
	add	a0,a5,a0
	lbu	a0,8(a0)
	ret
.LVL91:
.L66:
	.loc 1 772 10
	li	a0,0
.LVL92:
	.loc 1 773 1
	ret
	.cfi_endproc
.LFE22:
	.size	sntp_getreachability, .-sntp_getreachability
	.section	.text.sntp_setserver,"ax",@progbits
	.align	1
	.globl	sntp_setserver
	.type	sntp_setserver, @function
sntp_setserver:
.LFB23:
	.loc 1 801 1 is_stmt 1
	.cfi_startproc
.LVL93:
	.loc 1 802 3
	.loc 1 803 3
	.loc 1 803 6 is_stmt 0
	li	a5,2
	bgtu	a0,a5,.L67
	.loc 1 804 5 is_stmt 1
	.loc 1 805 30 is_stmt 0
	li	a4,12
	mul	a4,a0,a4
	lui	a5,%hi(.LANCHOR2)
	addi	a5,a5,%lo(.LANCHOR2)
	add	a4,a5,a4
	.loc 1 804 8
	beq	a1,zero,.L69
	.loc 1 805 7 is_stmt 1
	.loc 1 805 30 is_stmt 0
	lw	a3,0(a1)
	sw	a3,4(a4)
.L70:
	.loc 1 810 5 is_stmt 1
	.loc 1 810 28 is_stmt 0
	li	a4,12
	mul	a0,a0,a4
.LVL94:
	add	a0,a5,a0
	sw	zero,0(a0)
.L67:
	.loc 1 813 1
	ret
.LVL95:
.L69:
	.loc 1 807 7 is_stmt 1
	.loc 1 807 40 is_stmt 0
	sw	zero,4(a4)
	j	.L70
	.cfi_endproc
.LFE23:
	.size	sntp_setserver, .-sntp_setserver
	.section	.text.sntp_getserver,"ax",@progbits
	.align	1
	.globl	sntp_getserver
	.type	sntp_getserver, @function
sntp_getserver:
.LFB24:
	.loc 1 852 1 is_stmt 1
	.cfi_startproc
.LVL96:
	.loc 1 853 3
	.loc 1 853 6 is_stmt 0
	li	a5,2
	bgtu	a0,a5,.L73
	.loc 1 854 5 is_stmt 1
	.loc 1 854 12 is_stmt 0
	li	a5,12
	mul	a0,a0,a5
.LVL97:
	addi	a5,a0,4
	lui	a0,%hi(.LANCHOR2)
	addi	a0,a0,%lo(.LANCHOR2)
	add	a0,a0,a5
	ret
.LVL98:
.L73:
	.loc 1 856 11
	lui	a0,%hi(ip_addr_any)
.LVL99:
	addi	a0,a0,%lo(ip_addr_any)
	.loc 1 857 1
	ret
	.cfi_endproc
.LFE24:
	.size	sntp_getserver, .-sntp_getserver
	.section	.text.sntp_get_time,"ax",@progbits
	.align	1
	.globl	sntp_get_time
	.type	sntp_get_time, @function
sntp_get_time:
.LFB25:
	.loc 1 860 1 is_stmt 1
	.cfi_startproc
.LVL100:
	.loc 1 861 5
	.loc 1 862 5
	.loc 1 864 5
	.loc 1 860 1 is_stmt 0
	addi	sp,sp,-16
	.cfi_def_cfa_offset 16
	sw	s2,0(sp)
	.cfi_offset 18, -16
	.loc 1 866 11
	lui	s2,%hi(.LANCHOR5)
	.loc 1 860 1
	sw	s0,8(sp)
	sw	s1,4(sp)
	sw	ra,12(sp)
	.cfi_offset 8, -8
	.cfi_offset 9, -12
	.cfi_offset 1, -4
	.loc 1 860 1
	mv	s1,a0
	mv	s0,a1
	.loc 1 866 11
	addi	s2,s2,%lo(.LANCHOR5)
	.loc 1 864 5
	call	vTaskEnterCritical
.LVL101:
	.loc 1 866 5 is_stmt 1
	.loc 1 866 8 is_stmt 0
	lw	a5,0(s2)
	bne	a5,zero,.L75
	.loc 1 867 9 is_stmt 1
	.loc 1 867 18 is_stmt 0
	sw	zero,0(s1)
	.loc 1 868 9 is_stmt 1
	.loc 1 868 16 is_stmt 0
	sw	zero,0(s0)
.L76:
	.loc 1 882 5 is_stmt 1
	call	vTaskExitCritical
.LVL102:
	.loc 1 883 5
	.loc 1 884 1 is_stmt 0
	lw	ra,12(sp)
	.cfi_remember_state
	.cfi_restore 1
	lw	s0,8(sp)
	.cfi_restore 8
.LVL103:
	lw	s1,4(sp)
	.cfi_restore 9
.LVL104:
	lw	s2,0(sp)
	.cfi_restore 18
	li	a0,0
	addi	sp,sp,16
	.cfi_def_cfa_offset 0
	jr	ra
.LVL105:
.L75:
	.cfi_restore_state
	.loc 1 870 9 is_stmt 1
	.loc 1 870 29 is_stmt 0
	call	xTaskGetTickCount
.LVL106:
	.loc 1 870 17
	lui	a5,%hi(.LANCHOR7)
	lw	a5,%lo(.LANCHOR7)(a5)
	.loc 1 873 19
	lui	a4,%hi(.LANCHOR6)
	lw	a4,%lo(.LANCHOR6)(a4)
	.loc 1 870 17
	sub	a5,a0,a5
.LVL107:
	.loc 1 872 9 is_stmt 1
	.loc 1 873 19 is_stmt 0
	li	a0,1000
	.loc 1 875 33
	div	a3,a5,a0
	.loc 1 872 21
	lw	a2,0(s2)
.LVL108:
	.loc 1 873 9 is_stmt 1
	.loc 1 873 19 is_stmt 0
	divu	a4,a4,a0
.LVL109:
	.loc 1 875 9 is_stmt 1
	.loc 1 876 9
	.loc 1 878 9
	.loc 1 875 21 is_stmt 0
	add	a3,a3,a2
.LVL110:
	.loc 1 878 18
	sw	a3,0(s1)
	.loc 1 879 9 is_stmt 1
	.loc 1 876 31 is_stmt 0
	rem	a5,a5,a0
.LVL111:
	.loc 1 876 19
	add	a5,a5,a4
.LVL112:
	.loc 1 879 16
	sw	a5,0(s0)
	j	.L76
	.cfi_endproc
.LFE25:
	.size	sntp_get_time, .-sntp_get_time
	.section	.text.sntp_setservername,"ax",@progbits
	.align	1
	.globl	sntp_setservername
	.type	sntp_setservername, @function
sntp_setservername:
.LFB26:
	.loc 1 895 1 is_stmt 1
	.cfi_startproc
.LVL113:
	.loc 1 896 3
	.loc 1 897 3
	.loc 1 897 6 is_stmt 0
	li	a5,2
	bgtu	a0,a5,.L78
	.loc 1 898 5 is_stmt 1
	.loc 1 898 28 is_stmt 0
	li	a5,12
	mul	a0,a0,a5
.LVL114:
	lui	a5,%hi(.LANCHOR2)
	addi	a5,a5,%lo(.LANCHOR2)
	add	a0,a5,a0
	sw	a1,0(a0)
.L78:
	.loc 1 900 1
	ret
	.cfi_endproc
.LFE26:
	.size	sntp_setservername, .-sntp_setservername
	.section	.text.sntp_getservername,"ax",@progbits
	.align	1
	.globl	sntp_getservername
	.type	sntp_getservername, @function
sntp_getservername:
.LFB27:
	.loc 1 911 1 is_stmt 1
	.cfi_startproc
.LVL115:
	.loc 1 912 3
	.loc 1 912 6 is_stmt 0
	li	a5,2
	bgtu	a0,a5,.L82
	.loc 1 913 5 is_stmt 1
	.loc 1 913 29 is_stmt 0
	li	a5,12
	mul	a0,a0,a5
.LVL116:
	lui	a5,%hi(.LANCHOR2)
	addi	a5,a5,%lo(.LANCHOR2)
	add	a0,a5,a0
	lw	a0,0(a0)
	ret
.LVL117:
.L82:
	.loc 1 915 9
	li	a0,0
.LVL118:
	.loc 1 916 1
	ret
	.cfi_endproc
.LFE27:
	.size	sntp_getservername, .-sntp_getservername
	.section	.text.sntp_settimesynccb,"ax",@progbits
	.align	1
	.globl	sntp_settimesynccb
	.type	sntp_settimesynccb, @function
sntp_settimesynccb:
.LFB28:
	.loc 1 920 1 is_stmt 1
	.cfi_startproc
.LVL119:
	.loc 1 921 5
	.loc 1 921 22 is_stmt 0
	lui	a5,%hi(.LANCHOR8)
	sw	a0,%lo(.LANCHOR8)(a5)
	.loc 1 922 1
	ret
	.cfi_endproc
.LFE28:
	.size	sntp_settimesynccb, .-sntp_settimesynccb
	.section	.text.sntp_setupdatedelay,"ax",@progbits
	.align	1
	.globl	sntp_setupdatedelay
	.type	sntp_setupdatedelay, @function
sntp_setupdatedelay:
.LFB29:
	.loc 1 925 1 is_stmt 1
	.cfi_startproc
.LVL120:
	.loc 1 926 5
	.loc 1 926 29 is_stmt 0
	li	a5,1000
	mul	a0,a0,a5
.LVL121:
	.loc 1 926 22
	lui	a5,%hi(.LANCHOR9)
	sw	a0,%lo(.LANCHOR9)(a5)
	.loc 1 927 1
	ret
	.cfi_endproc
.LFE29:
	.size	sntp_setupdatedelay, .-sntp_setupdatedelay
	.section	.bss.sntp_servers,"aw",@nobits
	.align	2
	.set	.LANCHOR2,. + 0
	.type	sntp_servers, @object
	.size	sntp_servers, 36
sntp_servers:
	.zero	36
	.section	.sbss.ntp_frag,"aw",@nobits
	.align	2
	.set	.LANCHOR6,. + 0
	.type	ntp_frag, @object
	.size	ntp_frag, 4
ntp_frag:
	.zero	4
	.section	.sbss.ntp_sec,"aw",@nobits
	.align	2
	.set	.LANCHOR5,. + 0
	.type	ntp_sec, @object
	.size	ntp_sec, 4
ntp_sec:
	.zero	4
	.section	.sbss.ntp_time_sync_cb,"aw",@nobits
	.align	2
	.set	.LANCHOR8,. + 0
	.type	ntp_time_sync_cb, @object
	.size	ntp_time_sync_cb, 4
ntp_time_sync_cb:
	.zero	4
	.section	.sbss.sntp_current_server,"aw",@nobits
	.set	.LANCHOR1,. + 0
	.type	sntp_current_server, @object
	.size	sntp_current_server, 1
sntp_current_server:
	.zero	1
	.section	.sbss.sntp_opmode,"aw",@nobits
	.set	.LANCHOR4,. + 0
	.type	sntp_opmode, @object
	.size	sntp_opmode, 1
sntp_opmode:
	.zero	1
	.section	.sbss.sntp_pcb,"aw",@nobits
	.align	2
	.set	.LANCHOR0,. + 0
	.type	sntp_pcb, @object
	.size	sntp_pcb, 4
sntp_pcb:
	.zero	4
	.section	.sbss.sntp_retry_timeout,"aw",@nobits
	.align	2
	.set	.LANCHOR3,. + 0
	.type	sntp_retry_timeout, @object
	.size	sntp_retry_timeout, 4
sntp_retry_timeout:
	.zero	4
	.section	.sbss.time_obtained,"aw",@nobits
	.align	2
	.set	.LANCHOR7,. + 0
	.type	time_obtained, @object
	.size	time_obtained, 4
time_obtained:
	.zero	4
	.section	.sdata.ntp_update_delay,"aw"
	.align	2
	.set	.LANCHOR9,. + 0
	.type	ntp_update_delay, @object
	.size	ntp_update_delay, 4
ntp_update_delay:
	.word	3600000
	.text
.Letext0:
	.file 2 "/mnt/d/GitHub/bl_iot_sdk_for_aithinker/toolchain/riscv/Linux/lib/gcc/riscv64-unknown-elf/10.2.0/include/stdint-gcc.h"
	.file 3 "/mnt/d/GitHub/bl_iot_sdk_for_aithinker/components/network/lwip/src/include/lwip/arch.h"
	.file 4 "/mnt/d/GitHub/bl_iot_sdk_for_aithinker/components/network/lwip/src/include/lwip/ip4_addr.h"
	.file 5 "/mnt/d/GitHub/bl_iot_sdk_for_aithinker/components/network/lwip/src/include/lwip/prot/iana.h"
	.file 6 "/mnt/d/GitHub/bl_iot_sdk_for_aithinker/components/network/lwip/src/include/lwip/ip_addr.h"
	.file 7 "/mnt/d/GitHub/bl_iot_sdk_for_aithinker/components/network/lwip/src/include/lwip/err.h"
	.file 8 "/mnt/d/GitHub/bl_iot_sdk_for_aithinker/components/network/lwip/src/include/lwip/pbuf.h"
	.file 9 "/mnt/d/GitHub/bl_iot_sdk_for_aithinker/components/network/lwip/src/include/lwip/memp.h"
	.file 10 "/mnt/d/GitHub/bl_iot_sdk_for_aithinker/components/network/lwip/src/include/lwip/netif.h"
	.file 11 "/mnt/d/GitHub/bl_iot_sdk_for_aithinker/components/network/lwip/src/include/lwip/udp.h"
	.file 12 "/mnt/d/GitHub/bl_iot_sdk_for_aithinker/components/platform/soc/bl602/freertos_riscv_ram/portable/GCC/RISC-V/portmacro.h"
	.file 13 "/mnt/d/GitHub/bl_iot_sdk_for_aithinker/components/platform/soc/bl602/freertos_riscv_ram/config/task.h"
	.file 14 "/mnt/d/GitHub/bl_iot_sdk_for_aithinker/components/network/lwip/src/include/lwip/timeouts.h"
	.file 15 "/mnt/d/GitHub/bl_iot_sdk_for_aithinker/toolchain/riscv/Linux/riscv64-unknown-elf/include/stdio.h"
	.file 16 "/mnt/d/GitHub/bl_iot_sdk_for_aithinker/components/network/lwip/lwip-port/config/lwipopts.h"
	.file 17 "/mnt/d/GitHub/bl_iot_sdk_for_aithinker/components/network/lwip/src/include/lwip/dns.h"
	.file 18 "/mnt/d/GitHub/bl_iot_sdk_for_aithinker/toolchain/riscv/Linux/riscv64-unknown-elf/include/string.h"
	.file 19 "/mnt/d/GitHub/bl_iot_sdk_for_aithinker/components/network/lwip/src/include/lwip/def.h"
	.file 20 "/mnt/d/GitHub/bl_iot_sdk_for_aithinker/components/sys/bltime/include/bl_sys_time.h"