	.file	"bloop_handler_sys.c"
	.option nopic
	.attribute arch, "rv32i2p0_m2p0_f2p0_c2p0"
	.attribute unaligned_access, 0
	.attribute stack_align, 16
	.text
.Ltext0:
	.cfi_sections	.debug_frame
	.section	.rodata.loop_evt_entity_sys_handler.str1.4,"aMS",@progbits,1
	.align	2
.LC0:
	.string	"[SYS] [MSG] called with msg info\r\n    priority %u\r\n    dst %u\r\n    msgid %u\r\n    src %u\r\n    arg1 %p\r\n    arg2 %p\r\n"
	.section	.text.loop_evt_entity_sys_handler,"ax",@progbits
	.align	1
	.type	loop_evt_entity_sys_handler, @function
loop_evt_entity_sys_handler:
.LFB26:
	.file 1 "/mnt/d/GitHub/bl_iot_sdk_for_aithinker/components/sys/bloop/bloop/src/bloop_handler_sys.c"
	.loc 1 29 1
	.cfi_startproc
.LVL0:
	.loc 1 30 5
	.loc 1 29 1 is_stmt 0
	addi	sp,sp,-16
	.cfi_def_cfa_offset 16
	sw	ra,12(sp)
	.cfi_offset 1, -4
	.loc 1 29 1
	mv	a1,a2
.LVL1:
	.loc 1 30 5
	lw	a6,12(a2)
	lw	a5,8(a2)
	lbu	a4,7(a2)
	lbu	a3,6(a2)
	lbu	a1,4(a1)
	lbu	a2,5(a2)
.LVL2:
	lui	a0,%hi(.LC0)
.LVL3:
	addi	a0,a0,%lo(.LC0)
	call	printf
.LVL4:
	.loc 1 44 5 is_stmt 1
	.loc 1 45 1 is_stmt 0
	lw	ra,12(sp)
	.cfi_restore 1
	li	a0,0
	addi	sp,sp,16
	.cfi_def_cfa_offset 0
	jr	ra
	.cfi_endproc
.LFE26:
	.size	loop_evt_entity_sys_handler, .-loop_evt_entity_sys_handler
	.section	.rodata.loop_evt_entity_sys_evt.str1.4,"aMS",@progbits,1
	.align	2
.LC1:
	.string	"[SYS] [EVT] called with bitmap_evt %08lx, bitmap_task %08lx\r\n"
	.align	2
.LC2:
	.string	"bloop_handler_sys.c"
	.align	2
.LC3:
	.string	"[ASSERT] [ERR] %s:%d\r\n"
	.section	.text.loop_evt_entity_sys_evt,"ax",@progbits
	.align	1
	.type	loop_evt_entity_sys_evt, @function
loop_evt_entity_sys_evt:
.LFB25:
	.loc 1 7 1 is_stmt 1
	.cfi_startproc
.LVL5:
	addi	sp,sp,-16
	.cfi_def_cfa_offset 16
	sw	s0,8(sp)
	sw	s1,4(sp)
	sw	s2,0(sp)
	mv	a5,a2
	.cfi_offset 8, -8
	.cfi_offset 9, -12
	.cfi_offset 18, -16
	.loc 1 8 14 is_stmt 0
	lw	s0,0(a3)
	.loc 1 7 1
	sw	ra,12(sp)
	.cfi_offset 1, -4
	.loc 1 10 5
	lw	a1,0(a5)
.LVL6:
	.loc 1 7 1
	mv	s2,a0
	.loc 1 8 5 is_stmt 1
.LVL7:
	.loc 1 10 5
	lui	a0,%hi(.LC1)
.LVL8:
	mv	a2,s0
.LVL9:
	addi	a0,a0,%lo(.LC1)
	.loc 1 7 1 is_stmt 0
	mv	s1,a3
	.loc 1 10 5
	call	printf
.LVL10:
.L4:
	.loc 1 13 5 is_stmt 1
	.loc 1 13 13 is_stmt 0
	andi	a5,s0,1
	.loc 1 13 8
	beq	a5,zero,.L5
	.loc 1 14 9 is_stmt 1
	mv	a0,s2
	.loc 1 15 13 is_stmt 0
	andi	s0,s0,-2
.LVL11:
	.loc 1 14 9
	call	bloop_status_dump
.LVL12:
	.loc 1 15 9 is_stmt 1
	.loc 1 17 120
	.loc 1 19 5
	.loc 1 19 8 is_stmt 0
	bne	s0,zero,.L4
.L6:
.LVL13:
	.loc 1 23 5 is_stmt 1
	.loc 1 26 1 is_stmt 0
	lw	ra,12(sp)
	.cfi_remember_state
	.cfi_restore 1
	lw	s0,8(sp)
	.cfi_restore 8
	.loc 1 23 19
	sw	zero,0(s1)
	.loc 1 25 5 is_stmt 1
	.loc 1 26 1 is_stmt 0
	lw	s2,0(sp)
	.cfi_restore 18
.LVL14:
	lw	s1,4(sp)
	.cfi_restore 9
.LVL15:
	li	a0,0
	addi	sp,sp,16
	.cfi_def_cfa_offset 0
	jr	ra
.LVL16:
.L5:
	.cfi_restore_state
	.loc 1 17 9 is_stmt 1
	.loc 1 17 14
	.loc 1 17 17 is_stmt 0
	beq	s0,zero,.L6
.LVL17:
.LBB4:
.LBB5:
	.loc 1 17 33 is_stmt 1
	lui	a1,%hi(.LC2)
	lui	a0,%hi(.LC3)
	li	a2,17
	addi	a1,a1,%lo(.LC2)
	addi	a0,a0,%lo(.LC3)
	call	printf
.LVL18:
.L7:
	.loc 1 17 96
	.loc 1 17 108
	.loc 1 17 102
	j	.L7
.LBE5:
.LBE4:
	.cfi_endproc
.LFE25:
	.size	loop_evt_entity_sys_evt, .-loop_evt_entity_sys_evt
	.globl	bloop_handler_sys
	.section	.rodata.str1.4,"aMS",@progbits,1
	.align	2
.LC4:
	.string	"SYS [built-in]"
	.section	.data.bloop_handler_sys,"aw"
	.align	2
	.type	bloop_handler_sys, @object
	.size	bloop_handler_sys, 12
bloop_handler_sys:
	.word	.LC4
	.word	loop_evt_entity_sys_evt
	.word	loop_evt_entity_sys_handler
	.text
.Letext0:
	.file 2 "/mnt/d/GitHub/bl_iot_sdk_for_aithinker/toolchain/riscv/Linux/riscv64-unknown-elf/include/machine/_default_types.h"
	.file 3 "/mnt/d/GitHub/bl_iot_sdk_for_aithinker/toolchain/riscv/Linux/riscv64-unknown-elf/include/sys/_stdint.h"
	.file 4 "/mnt/d/GitHub/bl_iot_sdk_for_aithinker/components/platform/soc/bl602/freertos_riscv_ram/config/task.h"
	.file 5 "/mnt/d/GitHub/bl_iot_sdk_for_aithinker/components/utils/include/utils_list.h"
	.file 6 "/mnt/d/GitHub/bl_iot_sdk_for_aithinker/components/sys/bloop/bloop/include/bloop.h"
	.file 7 "/mnt/d/GitHub/bl_iot_sdk_for_aithinker/toolchain/riscv/Linux/riscv64-unknown-elf/include/stdio.h"