	.file	"bl_sys_time_cli.c"
	.option nopic
	.attribute arch, "rv32i2p0_m2p0_f2p0_c2p0"
	.attribute unaligned_access, 0
	.attribute stack_align, 16
	.text
.Ltext0:
	.cfi_sections	.debug_frame
	.section	.rodata.cmd_sys_time_now.str1.4,"aMS",@progbits,1
	.align	2
.LC0:
	.string	"BL SYS TIME time is\r\n"
	.globl	__udivdi3
	.align	2
.LC1:
	.string	"Date & time is: %u-%02u-%02u %02u:%02u:%02u (Day %u of week, Day %u of Year)\r\n"
	.section	.text.cmd_sys_time_now,"ax",@progbits
	.align	1
	.type	cmd_sys_time_now, @function
cmd_sys_time_now:
.LFB8:
	.file 1 "/mnt/d/GitHub/bl_iot_sdk_for_aithinker/components/sys/bltime/bl_sys_time_cli.c"
	.loc 1 10 1
	.cfi_startproc
.LVL0:
	.loc 1 11 5
	.loc 1 15 5 is_stmt 0
	lui	a0,%hi(.LC0)
.LVL1:
	.loc 1 10 1
	addi	sp,sp,-64
	.cfi_def_cfa_offset 64
	.loc 1 11 14
	li	a5,0
	li	a6,0
	.loc 1 15 5
	addi	a0,a0,%lo(.LC0)
	.loc 1 10 1
	sw	ra,60(sp)
	.cfi_offset 1, -4
	.loc 1 11 14
	sw	a5,16(sp)
	sw	a6,20(sp)
	.loc 1 12 5 is_stmt 1
	.loc 1 13 5
	.loc 1 15 5
	call	puts
.LVL2:
	.loc 1 16 5
	addi	a0,sp,16
	call	bl_sys_time_get
.LVL3:
	.loc 1 17 5
	.loc 1 18 5
	.loc 1 17 24 is_stmt 0
	lw	a0,16(sp)
	lw	a1,20(sp)
	li	a2,1000
	li	a3,0
	call	__udivdi3
.LVL4:
	.loc 1 18 5
	addi	a1,sp,28
	call	utils_time_date_from_epoch
.LVL5:
	.loc 1 19 5 is_stmt 1
	lw	a5,44(sp)
	lbu	a7,31(sp)
	lbu	a6,30(sp)
	sw	a5,0(sp)
	lbu	a4,28(sp)
	lbu	a5,29(sp)
	lbu	a3,32(sp)
	lbu	a2,33(sp)
	lw	a1,36(sp)
	lui	a0,%hi(.LC1)
	addi	a0,a0,%lo(.LC1)
	call	printf
.LVL6:
	.loc 1 29 1 is_stmt 0
	lw	ra,60(sp)
	.cfi_restore 1
	addi	sp,sp,64
	.cfi_def_cfa_offset 0
	jr	ra
	.cfi_endproc
.LFE8:
	.size	cmd_sys_time_now, .-cmd_sys_time_now
	.section	.rodata.cmd_sys_time_date.str1.4,"aMS",@progbits,1
	.align	2
.LC2:
	.string	"Epoch is %lu\r\n"
	.align	2
.LC3:
	.string	"Date & time is: %u-%02u-%02u %02u:%02u:%02u (Day %u of week, Day %u of Year, leap days %u, leap year status %u)\r\n"
	.section	.text.cmd_sys_time_date,"ax",@progbits
	.align	1
	.type	cmd_sys_time_date, @function
cmd_sys_time_date:
.LFB9:
	.loc 1 32 1 is_stmt 1
	.cfi_startproc
.LVL7:
	.loc 1 33 5
	.loc 1 34 5
	.loc 1 36 5
	.loc 1 36 8 is_stmt 0
	li	a5,2
	bne	a2,a5,.L6
.LVL8:
.LBB4:
.LBB5:
	.loc 1 40 5 is_stmt 1
.LBE5:
.LBE4:
	.loc 1 32 1 is_stmt 0
	addi	sp,sp,-64
	.cfi_def_cfa_offset 64
	sw	ra,60(sp)
	sw	s0,56(sp)
	.cfi_offset 1, -4
	.cfi_offset 8, -8
.LBB7:
.LBB6:
	.loc 1 40 15
	lw	a0,4(a3)
.LVL9:
	call	atoi
.LVL10:
	mv	s0,a0
.LVL11:
	.loc 1 41 5 is_stmt 1
	mv	a1,a0
	lui	a0,%hi(.LC2)
	addi	a0,a0,%lo(.LC2)
	call	printf
.LVL12:
	.loc 1 42 5
	addi	a1,sp,28
	mv	a0,s0
	call	utils_time_date_from_epoch
.LVL13:
	.loc 1 43 5
	lbu	a5,35(sp)
	lbu	a7,31(sp)
	lbu	a6,30(sp)
	sw	a5,8(sp)
	lbu	a5,34(sp)
	lbu	a4,28(sp)
	lbu	a3,32(sp)
	sw	a5,4(sp)
	lw	a5,44(sp)
	lbu	a2,33(sp)
	lw	a1,36(sp)
	sw	a5,0(sp)
	lbu	a5,29(sp)
	lui	a0,%hi(.LC3)
	addi	a0,a0,%lo(.LC3)
	call	printf
.LVL14:
.LBE6:
.LBE7:
	.loc 1 55 1 is_stmt 0
	lw	ra,60(sp)
	.cfi_restore 1
	lw	s0,56(sp)
	.cfi_restore 8
	addi	sp,sp,64
	.cfi_def_cfa_offset 0
	jr	ra
.LVL15:
.L6:
	ret
	.cfi_endproc
.LFE9:
	.size	cmd_sys_time_date, .-cmd_sys_time_date
	.section	.text.bl_sys_time_cli_init,"ax",@progbits
	.align	1
	.globl	bl_sys_time_cli_init
	.type	bl_sys_time_cli_init, @function
bl_sys_time_cli_init:
.LFB10:
	.loc 1 64 1 is_stmt 1
	.cfi_startproc
	.loc 1 69 5
	.loc 1 70 1 is_stmt 0
	li	a0,0
	ret
	.cfi_endproc
.LFE10:
	.size	bl_sys_time_cli_init, .-bl_sys_time_cli_init
	.section	.rodata.str1.4,"aMS",@progbits,1
	.align	2
.LC4:
	.string	"bl_sys_time_now"
	.align	2
.LC5:
	.string	"sys time now"
	.align	2
.LC6:
	.string	"bl_sys_time_date"
	.section	.static_cli_cmds,"a"
	.align	2
	.type	cmds_user, @object
	.size	cmds_user, 24
cmds_user:
	.word	.LC4
	.word	.LC5
	.word	cmd_sys_time_now
	.word	.LC6
	.word	.LC5
	.word	cmd_sys_time_date
	.text
.Letext0:
	.file 2 "/mnt/d/GitHub/bl_iot_sdk_for_aithinker/toolchain/riscv/Linux/riscv64-unknown-elf/include/machine/_default_types.h"
	.file 3 "/mnt/d/GitHub/bl_iot_sdk_for_aithinker/toolchain/riscv/Linux/riscv64-unknown-elf/include/sys/_stdint.h"
	.file 4 "/mnt/d/GitHub/bl_iot_sdk_for_aithinker/components/stage/cli/cli/include/cli.h"
	.file 5 "/mnt/d/GitHub/bl_iot_sdk_for_aithinker/components/utils/include/utils_time.h"
	.file 6 "/mnt/d/GitHub/bl_iot_sdk_for_aithinker/toolchain/riscv/Linux/riscv64-unknown-elf/include/stdio.h"
	.file 7 "/mnt/d/GitHub/bl_iot_sdk_for_aithinker/components/sys/bltime/include/bl_sys_time.h"
	.file 8 "/mnt/d/GitHub/bl_iot_sdk_for_aithinker/toolchain/riscv/Linux/riscv64-unknown-elf/include/stdlib.h"