	.file	"wpa_ie.c"
	.option nopic
	.attribute arch, "rv32i2p0_m2p0_f2p0_c2p0"
	.attribute unaligned_access, 0
	.attribute stack_align, 16
	.text
.Ltext0:
	.cfi_sections	.debug_frame
	.section	.text.wpa_parse_wpa_ie,"ax",@progbits
	.align	1
	.globl	wpa_parse_wpa_ie
	.type	wpa_parse_wpa_ie, @function
wpa_parse_wpa_ie:
.LFB88:
	.file 1 "/mnt/d/GitHub/bl_iot_sdk_for_aithinker/components/security/wpa_supplicant/src/rsn_supp/wpa_ie.c"
	.loc 1 34 1
	.cfi_startproc
.LVL0:
	.loc 1 35 5
	.loc 1 35 34 is_stmt 0
	lbu	a6,0(a0)
	.loc 1 34 1
	mv	a5,a0
	mv	a4,a1
	mv	a3,a2
	.loc 1 35 8
	beq	a1,zero,.L2
	.loc 1 35 25 discriminator 1
	li	a7,48
	bne	a6,a7,.L2
	.loc 1 36 9 is_stmt 1
	.loc 1 36 16 is_stmt 0
	tail	wpa_parse_wpa_ie_rsn
.LVL1:
.L2:
	.loc 1 37 12 is_stmt 1
	.loc 1 37 15 is_stmt 0
	li	a2,68
.LVL2:
	beq	a6,a2,.L3
	.loc 1 41 5 is_stmt 1
	.loc 1 41 12 is_stmt 0
	mv	a2,a3
	mv	a1,a4
.LVL3:
	mv	a0,a5
.LVL4:
	tail	wpa_parse_wpa_ie_wpa
.LVL5:
.L3:
	.loc 1 42 1
	li	a0,0
.LVL6:
	ret
	.cfi_endproc
.LFE88:
	.size	wpa_parse_wpa_ie, .-wpa_parse_wpa_ie
	.section	.rodata.wpa_gen_wpa_ie.str1.4,"aMS",@progbits,1
	.align	2
.LC0:
	.string	"(size_t) (pos - rsn_ie) <= rsn_ie_len"
	.align	2
.LC1:
	.string	"/mnt/d/GitHub/bl_iot_sdk_for_aithinker/components/security/wpa_supplicant/src/rsn_supp/wpa_ie.c"
	.align	2
.LC2:
	.string	"(size_t) (pos - wpa_ie) <= wpa_ie_len"
	.section	.text.wpa_gen_wpa_ie,"ax",@progbits
	.align	1
	.globl	wpa_gen_wpa_ie
	.type	wpa_gen_wpa_ie, @function
wpa_gen_wpa_ie:
.LFB91:
	.loc 1 300 1 is_stmt 1
	.cfi_startproc
.LVL7:
	.loc 1 301 5
	.loc 1 300 1 is_stmt 0
	addi	sp,sp,-16
	.cfi_def_cfa_offset 16
	sw	ra,12(sp)
	.cfi_offset 1, -4
	.loc 1 301 11
	lbu	a6,245(a0)
	.loc 1 301 8
	li	t1,2
	bne	a6,t1,.L8
	.loc 1 302 9 is_stmt 1
.LBB118:
.LBB119:
	.loc 1 137 8 is_stmt 0
	li	a7,21
.LBE119:
.LBE118:
	.loc 1 303 25
	lhu	a3,246(a0)
	.loc 1 302 16
	lhu	a5,248(a0)
	lhu	a4,250(a0)
	.loc 1 305 39
	lhu	t1,252(a0)
.LVL8:
.LBB162:
.LBB158:
	.loc 1 123 5 is_stmt 1
	.loc 1 124 5
	.loc 1 125 5
	.loc 1 126 5
	.loc 1 137 5
	.loc 1 137 8 is_stmt 0
	bleu	a2,a7,.L9
	.loc 1 150 5 is_stmt 1
.LVL9:
	.loc 1 156 5
	.loc 1 157 9
	.loc 1 157 13
	.loc 1 157 20
	.loc 1 160 5
	.loc 1 161 5
	.loc 1 161 18 is_stmt 0
	li	a7,48
	sb	a7,0(a1)
	.loc 1 162 5 is_stmt 1
.LVL10:
.LBB120:
.LBB121:
	.file 2 "/mnt/d/GitHub/bl_iot_sdk_for_aithinker/components/security/wpa_supplicant/src/utils/common.h"
	.loc 2 143 2
	.loc 2 144 7 is_stmt 0
	li	a7,1
	.loc 2 143 7
	sb	zero,3(a1)
	.loc 2 144 2 is_stmt 1
	.loc 2 144 7 is_stmt 0
	sb	a7,2(a1)
.LVL11:
.LBE121:
.LBE120:
	.loc 1 163 5 is_stmt 1
	.loc 1 165 5
	.loc 1 165 8 is_stmt 0
	li	t3,8
	bne	a5,t3,.L10
	.loc 1 166 9 is_stmt 1
.LVL12:
.LBB122:
.LBB123:
	.loc 2 166 2
	.loc 2 167 7 is_stmt 0
	li	a5,15
.LVL13:
	sb	a5,5(a1)
	.loc 2 168 7
	li	a5,-84
	sb	a5,6(a1)
	.loc 2 166 7
	sb	zero,4(a1)
	.loc 2 167 2 is_stmt 1
	.loc 2 168 2
	.loc 2 169 2
	.loc 2 169 7 is_stmt 0
	li	a5,4
.LVL14:
.L51:
.LBE123:
.LBE122:
.LBB124:
.LBB125:
	.loc 2 169 2 is_stmt 1
	.loc 2 169 7 is_stmt 0
	sb	a5,7(a1)
.L11:
.LBE125:
.LBE124:
	.loc 1 178 5 is_stmt 1
.LVL15:
	.loc 1 180 5
	.loc 1 180 8 is_stmt 0
	lbu	a5,372(a0)
	bne	a5,zero,.L14
	.loc 1 180 49
	li	a5,1
	beq	a4,a5,.L14
	.loc 1 181 9 is_stmt 1
	.loc 1 181 35 is_stmt 0
	li	a5,6
	.loc 1 181 25
	li	a0,8
.LVL16:
	.loc 1 181 18
	sb	a5,1(a1)
	.loc 1 182 9 is_stmt 1
.LVL17:
.L7:
.LBE158:
.LBE162:
	.loc 1 315 1 is_stmt 0
	lw	ra,12(sp)
	.cfi_remember_state
	.cfi_restore 1
	addi	sp,sp,16
	.cfi_def_cfa_offset 0
	jr	ra
.LVL18:
.L10:
	.cfi_restore_state
.LBB163:
.LBB159:
	.loc 1 167 12 is_stmt 1
	.loc 1 167 15 is_stmt 0
	bne	a5,a6,.L12
	.loc 1 168 9 is_stmt 1
.LVL19:
.LBB127:
.LBB126:
	.loc 2 166 2
	.loc 2 167 7 is_stmt 0
	li	a6,15
	sb	a6,5(a1)
	.loc 2 168 7
	li	a6,-84
	.loc 2 166 7
	sb	zero,4(a1)
	.loc 2 167 2 is_stmt 1
	.loc 2 168 2
	.loc 2 168 7 is_stmt 0
	sb	a6,6(a1)
	j	.L51
.LVL20:
.L12:
.LBE126:
.LBE127:
	.loc 1 169 12 is_stmt 1
	.loc 1 169 15 is_stmt 0
	li	a6,256
	bne	a5,a6,.L13
	.loc 1 170 9 is_stmt 1
.LVL21:
.LBB128:
.LBB129:
	.loc 2 166 2
	.loc 2 167 7 is_stmt 0
	li	a5,15
.LVL22:
	sb	a5,5(a1)
	.loc 2 168 7
	li	a5,-84
	sb	a5,6(a1)
	.loc 2 166 7
	sb	zero,4(a1)
	.loc 2 167 2 is_stmt 1
	.loc 2 168 2
	.loc 2 169 2
	.loc 2 169 7 is_stmt 0
	li	a5,5
	j	.L51
.LVL23:
.L13:
.LBE129:
.LBE128:
	.loc 1 171 12 is_stmt 1
	.loc 1 171 15 is_stmt 0
	li	a6,128
	bne	a5,a6,.L9
	.loc 1 172 9 is_stmt 1
.LVL24:
.LBB130:
.LBB131:
	.loc 2 166 2
	.loc 2 167 7 is_stmt 0
	li	a5,15
.LVL25:
	sb	a5,5(a1)
	.loc 2 168 7
	li	a5,-84
	.loc 2 166 7
	sb	zero,4(a1)
	.loc 2 167 2 is_stmt 1
	.loc 2 168 2
	.loc 2 168 7 is_stmt 0
	sb	a5,6(a1)
	.loc 2 169 2 is_stmt 1
	.loc 2 169 7 is_stmt 0
	sb	a7,7(a1)
	.loc 2 170 1
	j	.L11
.LVL26:
.L14:
.LBE131:
.LBE130:
	.loc 1 185 5 is_stmt 1
	.loc 1 185 12 is_stmt 0
	li	a5,1
	sb	a5,8(a1)
	.loc 1 186 5 is_stmt 1
.LVL27:
	.loc 1 186 12 is_stmt 0
	sb	zero,9(a1)
	.loc 1 187 5 is_stmt 1
	.loc 1 187 8 is_stmt 0
	li	a6,8
	bne	a3,a6,.L16
	.loc 1 188 9 is_stmt 1
.LVL28:
.LBB132:
.LBB133:
	.loc 2 166 2
	.loc 2 167 7 is_stmt 0
	li	a5,15
	sb	a5,11(a1)
	.loc 2 168 7
	li	a5,-84
	sb	a5,12(a1)
	.loc 2 169 7
	li	a5,4
	.loc 2 166 7
	sb	zero,10(a1)
	.loc 2 167 2 is_stmt 1
	.loc 2 168 2
	.loc 2 169 2
	.loc 2 169 7 is_stmt 0
	sb	a5,13(a1)
.LVL29:
.L17:
.LBE133:
.LBE132:
	.loc 1 198 5 is_stmt 1
	.loc 1 200 5
	.loc 1 200 12 is_stmt 0
	li	a5,1
	sb	a5,14(a1)
	.loc 1 201 5 is_stmt 1
.LVL30:
	.loc 1 201 12 is_stmt 0
	sb	zero,15(a1)
	.loc 1 202 5 is_stmt 1
	.loc 1 202 8 is_stmt 0
	bne	a4,a5,.L19
.L52:
	.loc 1 205 9 is_stmt 1
.LVL31:
.LBB134:
.LBB135:
	.loc 2 166 2
	.loc 2 167 7 is_stmt 0
	li	a5,15
	sb	a5,17(a1)
	.loc 2 168 7
	li	a5,-84
	.loc 2 166 7
	sb	zero,16(a1)
	.loc 2 167 2 is_stmt 1
	.loc 2 168 2
	.loc 2 168 7 is_stmt 0
	sb	a5,18(a1)
	.loc 2 169 2 is_stmt 1
	.loc 2 169 7 is_stmt 0
	sb	a4,19(a1)
.LVL32:
.L20:
.LBE135:
.LBE134:
	.loc 1 227 5 is_stmt 1
	.loc 1 230 5
	.loc 1 232 5
	.loc 1 232 8 is_stmt 0
	lbu	a3,373(a0)
.LVL33:
	.loc 1 230 11
	li	a5,0
	.loc 1 232 8
	beq	a3,zero,.L24
	.loc 1 233 9 is_stmt 1
.LVL34:
	.loc 1 234 9
	.loc 1 234 12 is_stmt 0
	lbu	a3,374(a0)
	.loc 1 235 19
	li	a5,192
	.loc 1 234 12
	bne	a3,zero,.L24
	.loc 1 234 34
	li	a3,1024
	beq	a4,a3,.L24
	.loc 1 233 15
	li	a5,128
.LVL35:
.L24:
	.loc 1 240 5 is_stmt 1
	.loc 1 240 8 is_stmt 0
	lbu	a4,375(a0)
.LVL36:
	beq	a4,zero,.L25
	.loc 1 241 9 is_stmt 1
	.loc 1 241 15 is_stmt 0
	ori	a5,a5,1024
.LVL37:
.L25:
	.loc 1 244 5 is_stmt 1
	.loc 1 244 8 is_stmt 0
	lbu	a4,376(a0)
	beq	a4,zero,.L26
	.loc 1 245 9 is_stmt 1
	.loc 1 245 15 is_stmt 0
	li	a4,4096
	addi	a4,a4,-2048
	or	a5,a5,a4
.LVL38:
	slli	a5,a5,16
	srli	a5,a5,16
.LVL39:
.L26:
	.loc 1 248 5 is_stmt 1
.LBB136:
.LBB137:
	.loc 2 143 2
	.loc 2 143 7 is_stmt 0
	srli	a4,a5,8
	.loc 2 144 7
	sb	a5,20(a1)
	.loc 2 143 7
	sb	a4,21(a1)
	.loc 2 144 2 is_stmt 1
.LVL40:
.LBE137:
.LBE136:
	.loc 1 249 5
	.loc 1 263 5
	.loc 1 263 8 is_stmt 0
	li	a5,32
.LVL41:
	.loc 1 249 9
	addi	a0,a1,22
.LVL42:
	.loc 1 263 8
	bne	t1,a5,.L28
	.loc 1 271 9 is_stmt 1
.LVL43:
.LBB138:
.LBB139:
	.loc 2 143 2
.LBE139:
.LBE138:
.LBB141:
.LBB142:
	.loc 2 167 7 is_stmt 0
	li	a5,15
	sb	a5,25(a1)
	.loc 2 168 7
	li	a5,-84
	sb	a5,26(a1)
	.loc 2 169 7
	li	a5,6
.LBE142:
.LBE141:
.LBB144:
.LBB140:
	.loc 2 143 7
	sb	zero,23(a1)
	.loc 2 144 2 is_stmt 1
	.loc 2 144 7 is_stmt 0
	sb	zero,22(a1)
.LVL44:
.LBE140:
.LBE144:
	.loc 1 272 9 is_stmt 1
	.loc 1 276 9
.LBB145:
.LBB143:
	.loc 2 166 2
	.loc 2 166 7 is_stmt 0
	sb	zero,24(a1)
	.loc 2 167 2 is_stmt 1
	.loc 2 168 2
	.loc 2 169 2
	.loc 2 169 7 is_stmt 0
	sb	a5,27(a1)
.LVL45:
.LBE143:
.LBE145:
	.loc 1 277 9 is_stmt 1
	.loc 1 277 13 is_stmt 0
	addi	a0,a1,28
.LVL46:
.L28:
	.loc 1 281 5 is_stmt 1
	.loc 1 281 21 is_stmt 0
	sub	a0,a0,a1
.LVL47:
	.loc 1 281 31
	addi	a5,a0,-2
	.loc 1 281 14
	sb	a5,1(a1)
	.loc 1 283 4 is_stmt 1
	.loc 1 283 16 is_stmt 0
	bgeu	a2,a0,.L7
	.loc 1 283 18
	lui	a3,%hi(.LC0)
	lui	a2,%hi(.LANCHOR0)
.LVL48:
	addi	a3,a3,%lo(.LC0)
	addi	a2,a2,%lo(.LANCHOR0)
	li	a1,283
.LVL49:
.L55:
.LBE159:
.LBE163:
.LBB164:
.LBB165:
	.loc 1 111 18
	lui	a0,%hi(.LC1)
	addi	a0,a0,%lo(.LC1)
	call	__assert_func
.LVL50:
.L16:
.LBE165:
.LBE164:
.LBB192:
.LBB160:
	.loc 1 189 12 is_stmt 1
	.loc 1 189 15 is_stmt 0
	li	a6,2
	bne	a3,a6,.L18
	.loc 1 190 9 is_stmt 1
.LVL51:
.LBB146:
.LBB147:
	.loc 2 166 2
	.loc 2 167 7 is_stmt 0
	li	a5,15
	sb	a5,11(a1)
	.loc 2 168 7
	li	a5,-84
	.loc 2 166 7
	sb	zero,10(a1)
	.loc 2 167 2 is_stmt 1
	.loc 2 168 2
	.loc 2 168 7 is_stmt 0
	sb	a5,12(a1)
	.loc 2 169 2 is_stmt 1
	.loc 2 169 7 is_stmt 0
	sb	a3,13(a1)
	.loc 2 170 1
	j	.L17
.LVL52:
.L18:
.LBE147:
.LBE146:
	.loc 1 191 12 is_stmt 1
	.loc 1 191 15 is_stmt 0
	bne	a3,a5,.L9
	.loc 1 192 9 is_stmt 1
.LVL53:
.LBB148:
.LBB149:
	.loc 2 166 2
	.loc 2 167 7 is_stmt 0
	li	a5,15
	sb	a5,11(a1)
	.loc 2 168 7
	li	a5,-84
	.loc 2 166 7
	sb	zero,10(a1)
	.loc 2 167 2 is_stmt 1
	.loc 2 168 2
	.loc 2 168 7 is_stmt 0
	sb	a5,12(a1)
	.loc 2 169 2 is_stmt 1
	.loc 2 169 7 is_stmt 0
	sb	zero,13(a1)
	.loc 2 170 1
	j	.L17
.LVL54:
.L19:
.LBE149:
.LBE148:
	.loc 1 204 12 is_stmt 1
	.loc 1 204 15 is_stmt 0
	li	a5,2
	beq	a4,a5,.L52
	.loc 1 213 12 is_stmt 1
	.loc 1 213 15 is_stmt 0
	li	a5,128
	bne	a4,a5,.L22
	.loc 1 214 9 is_stmt 1
.LVL55:
.LBB150:
.LBB151:
	.loc 2 166 2
	.loc 2 167 7 is_stmt 0
	li	a5,15
	sb	a5,17(a1)
	.loc 2 168 7
	li	a5,-84
	sb	a5,18(a1)
	.loc 2 166 7
	sb	zero,16(a1)
	.loc 2 167 2 is_stmt 1
	.loc 2 168 2
	.loc 2 169 2
	.loc 2 169 7 is_stmt 0
	li	a5,5
.LVL56:
.L53:
.LBE151:
.LBE150:
.LBB152:
.LBB153:
	sb	a5,19(a1)
	.loc 2 170 1
	j	.L20
.L22:
.LBE153:
.LBE152:
	.loc 1 215 12 is_stmt 1
	.loc 1 215 15 is_stmt 0
	li	a5,256
	bne	a4,a5,.L23
	.loc 1 216 9 is_stmt 1
.LVL57:
.LBB155:
.LBB156:
	.loc 2 166 2
	.loc 2 167 7 is_stmt 0
	li	a5,15
	sb	a5,17(a1)
	.loc 2 168 7
	li	a5,-84
	sb	a5,18(a1)
	.loc 2 166 7
	sb	zero,16(a1)
	.loc 2 167 2 is_stmt 1
	.loc 2 168 2
	.loc 2 169 2
	.loc 2 169 7 is_stmt 0
	li	a5,6
	j	.L53
.LVL58:
.L23:
.LBE156:
.LBE155:
	.loc 1 218 12 is_stmt 1
	.loc 1 218 15 is_stmt 0
	li	a5,1024
	bne	a4,a5,.L9
	.loc 1 219 9 is_stmt 1
.LVL59:
.LBB157:
.LBB154:
	.loc 2 166 2
	.loc 2 167 7 is_stmt 0
	li	a5,15
	sb	a5,17(a1)
	.loc 2 168 7
	li	a5,-84
	sb	a5,18(a1)
	.loc 2 166 7
	sb	zero,16(a1)
	.loc 2 167 2 is_stmt 1
	.loc 2 168 2
	.loc 2 169 2
	.loc 2 169 7 is_stmt 0
	li	a5,8
	j	.L53
.LVL60:
.L8:
.LBE154:
.LBE157:
.LBE160:
.LBE192:
	.loc 1 307 12 is_stmt 1
	.loc 1 307 15 is_stmt 0
	li	t3,4
	beq	a6,t3,.L42
	.loc 1 311 5 is_stmt 1
.LBB193:
.LBB190:
	.loc 1 52 8 is_stmt 0
	li	a4,23
.LBE190:
.LBE193:
	.loc 1 311 12
	lhu	a7,246(a0)
	lhu	a6,248(a0)
	lhu	a5,250(a0)
.LVL61:
.LBB194:
.LBB191:
	.loc 1 49 5 is_stmt 1
	.loc 1 50 5
	.loc 1 52 5
	.loc 1 52 8 is_stmt 0
	bleu	a2,a4,.L9
	.loc 1 56 5 is_stmt 1
.LVL62:
	.loc 1 57 5
	.loc 1 57 18 is_stmt 0
	li	a4,-35
.LBB166:
.LBB167:
	.loc 2 169 7
	li	a0,1
.LVL63:
.LBE167:
.LBE166:
	.loc 1 57 18
	sb	a4,0(a1)
	.loc 1 58 5 is_stmt 1
.LVL64:
.LBB169:
.LBB168:
	.loc 2 166 2
	.loc 2 167 7 is_stmt 0
	li	a3,80
	.loc 2 168 7
	li	a4,-14
	.loc 2 166 7
	sb	zero,2(a1)
	.loc 2 167 2 is_stmt 1
	.loc 2 167 7 is_stmt 0
	sb	a3,3(a1)
	.loc 2 168 2 is_stmt 1
	.loc 2 168 7 is_stmt 0
	sb	a4,4(a1)
	.loc 2 169 2 is_stmt 1
	.loc 2 169 7 is_stmt 0
	sb	a0,5(a1)
.LVL65:
.LBE168:
.LBE169:
	.loc 1 59 5 is_stmt 1
.LBB170:
.LBB171:
	.loc 2 143 2
	.loc 2 143 7 is_stmt 0
	sb	zero,7(a1)
	.loc 2 144 2 is_stmt 1
	.loc 2 144 7 is_stmt 0
	sb	a0,6(a1)
.LVL66:
.LBE171:
.LBE170:
	.loc 1 60 5 is_stmt 1
	.loc 1 62 5
	.loc 1 62 8 is_stmt 0
	li	t4,8
	bne	a6,t4,.L29
	.loc 1 63 9 is_stmt 1
.LVL67:
.LBB172:
.LBB173:
	.loc 2 166 2
	.loc 2 166 7 is_stmt 0
	sb	zero,8(a1)
	.loc 2 167 2 is_stmt 1
	.loc 2 167 7 is_stmt 0
	sb	a3,9(a1)
	.loc 2 168 2 is_stmt 1
	.loc 2 168 7 is_stmt 0
	sb	a4,10(a1)
	.loc 2 169 2 is_stmt 1
	.loc 2 169 7 is_stmt 0
	sb	t3,11(a1)
.LVL68:
.L30:
.LBE173:
.LBE172:
	.loc 1 75 5 is_stmt 1
	.loc 1 77 5
	.loc 1 77 12 is_stmt 0
	li	a4,1
	sb	a4,12(a1)
	.loc 1 78 5 is_stmt 1
.LVL69:
	.loc 1 78 12 is_stmt 0
	sb	zero,13(a1)
	.loc 1 79 5 is_stmt 1
	.loc 1 79 8 is_stmt 0
	li	a3,8
	bne	a7,a3,.L33
	.loc 1 80 9 is_stmt 1
.LVL70:
.LBB174:
.LBB175:
	.loc 2 166 2
	.loc 2 167 7 is_stmt 0
	li	a4,80
	sb	a4,15(a1)
	.loc 2 168 7
	li	a4,-14
	sb	a4,16(a1)
	.loc 2 169 7
	li	a4,4
	.loc 2 166 7
	sb	zero,14(a1)
	.loc 2 167 2 is_stmt 1
	.loc 2 168 2
	.loc 2 169 2
	.loc 2 169 7 is_stmt 0
	sb	a4,17(a1)
.LVL71:
.L34:
.LBE175:
.LBE174:
	.loc 1 90 5 is_stmt 1
	.loc 1 92 5
	.loc 1 92 12 is_stmt 0
	li	a4,1
	sb	a4,18(a1)
	.loc 1 93 5 is_stmt 1
.LVL72:
	.loc 1 93 12 is_stmt 0
	sb	zero,19(a1)
	.loc 1 94 5 is_stmt 1
	.loc 1 94 8 is_stmt 0
	bne	a5,a4,.L36
.L54:
	.loc 1 97 9 is_stmt 1
.LVL73:
.LBB176:
.LBB177:
	.loc 2 166 2
	.loc 2 167 7 is_stmt 0
	li	a4,80
	sb	a4,21(a1)
	.loc 2 168 7
	li	a4,-14
	.loc 2 166 7
	sb	zero,20(a1)
	.loc 2 167 2 is_stmt 1
	.loc 2 168 2
	.loc 2 168 7 is_stmt 0
	sb	a4,22(a1)
	.loc 2 169 2 is_stmt 1
	.loc 2 169 7 is_stmt 0
	sb	a5,23(a1)
.LVL74:
.L37:
.LBE177:
.LBE176:
	.loc 1 105 5 is_stmt 1
	.loc 1 109 5
	.loc 1 109 31 is_stmt 0
	li	a5,22
	.loc 1 109 21
	li	a0,24
	.loc 1 109 14
	sb	a5,1(a1)
	.loc 1 111 4 is_stmt 1
	.loc 1 111 16 is_stmt 0
	bgeu	a2,a0,.L7
	.loc 1 111 18
	lui	a3,%hi(.LC2)
	lui	a2,%hi(.LANCHOR1)
.LVL75:
	addi	a3,a3,%lo(.LC2)
	addi	a2,a2,%lo(.LANCHOR1)
	li	a1,111
.LVL76:
	j	.L55
.LVL77:
.L29:
	.loc 1 64 12 is_stmt 1
	.loc 1 64 15 is_stmt 0
	bne	a6,t1,.L31
	.loc 1 65 9 is_stmt 1
.LVL78:
.LBB178:
.LBB179:
	.loc 2 166 2
	.loc 2 166 7 is_stmt 0
	sb	zero,8(a1)
	.loc 2 167 2 is_stmt 1
	.loc 2 167 7 is_stmt 0
	sb	a3,9(a1)
	.loc 2 168 2 is_stmt 1
	.loc 2 168 7 is_stmt 0
	sb	a4,10(a1)
	.loc 2 169 2 is_stmt 1
	.loc 2 169 7 is_stmt 0
	sb	a6,11(a1)
	.loc 2 170 1
	j	.L30
.LVL79:
.L31:
.LBE179:
.LBE178:
	.loc 1 66 12 is_stmt 1
	.loc 1 66 15 is_stmt 0
	li	t1,256
	bne	a6,t1,.L32
	.loc 1 67 9 is_stmt 1
.LVL80:
.LBB180:
.LBB181:
	.loc 2 166 2
	.loc 2 168 7 is_stmt 0
	sb	a4,10(a1)
	.loc 2 169 7
	li	a4,5
	.loc 2 166 7
	sb	zero,8(a1)
	.loc 2 167 2 is_stmt 1
	.loc 2 167 7 is_stmt 0
	sb	a3,9(a1)
	.loc 2 168 2 is_stmt 1
	.loc 2 169 2
	.loc 2 169 7 is_stmt 0
	sb	a4,11(a1)
	.loc 2 170 1
	j	.L30
.LVL81:
.L32:
.LBE181:
.LBE180:
	.loc 1 68 12 is_stmt 1
	.loc 1 68 15 is_stmt 0
	li	t1,128
	bne	a6,t1,.L9
	.loc 1 69 9 is_stmt 1
.LVL82:
.LBB182:
.LBB183:
	.loc 2 166 2
	.loc 2 166 7 is_stmt 0
	sb	zero,8(a1)
	.loc 2 167 2 is_stmt 1
	.loc 2 167 7 is_stmt 0
	sb	a3,9(a1)
	.loc 2 168 2 is_stmt 1
	.loc 2 168 7 is_stmt 0
	sb	a4,10(a1)
	.loc 2 169 2 is_stmt 1
	.loc 2 169 7 is_stmt 0
	sb	a0,11(a1)
	.loc 2 170 1
	j	.L30
.LVL83:
.L33:
.LBE183:
.LBE182:
	.loc 1 81 12 is_stmt 1
	.loc 1 81 15 is_stmt 0
	li	a3,2
	bne	a7,a3,.L35
	.loc 1 82 9 is_stmt 1
.LVL84:
.LBB184:
.LBB185:
	.loc 2 166 2
	.loc 2 167 7 is_stmt 0
	li	a4,80
	sb	a4,15(a1)
	.loc 2 168 7
	li	a4,-14
	.loc 2 166 7
	sb	zero,14(a1)
	.loc 2 167 2 is_stmt 1
	.loc 2 168 2
	.loc 2 168 7 is_stmt 0
	sb	a4,16(a1)
	.loc 2 169 2 is_stmt 1
	.loc 2 169 7 is_stmt 0
	sb	a7,17(a1)
	.loc 2 170 1
	j	.L34
.LVL85:
.L35:
.LBE185:
.LBE184:
	.loc 1 83 12 is_stmt 1
	.loc 1 83 15 is_stmt 0
	bne	a7,a4,.L9
	.loc 1 84 9 is_stmt 1
.LVL86:
.LBB186:
.LBB187:
	.loc 2 166 2
	.loc 2 167 7 is_stmt 0
	li	a4,80
	sb	a4,15(a1)
	.loc 2 168 7
	li	a4,-14
	.loc 2 166 7
	sb	zero,14(a1)
	.loc 2 167 2 is_stmt 1
	.loc 2 168 2
	.loc 2 168 7 is_stmt 0
	sb	a4,16(a1)
	.loc 2 169 2 is_stmt 1
	.loc 2 169 7 is_stmt 0
	sb	zero,17(a1)
	.loc 2 170 1
	j	.L34
.LVL87:
.L36:
.LBE187:
.LBE186:
	.loc 1 96 12 is_stmt 1
	.loc 1 96 15 is_stmt 0
	li	a4,2
	beq	a5,a4,.L54
	.loc 1 98 12 is_stmt 1
	.loc 1 98 15 is_stmt 0
	li	a4,16
	bne	a5,a4,.L9
	.loc 1 99 9 is_stmt 1
.LVL88:
.LBB188:
.LBB189:
	.loc 2 166 2
	.loc 2 167 7 is_stmt 0
	li	a5,80
.LVL89:
	sb	a5,21(a1)
	.loc 2 168 7
	li	a5,-14
	.loc 2 166 7
	sb	zero,20(a1)
	.loc 2 167 2 is_stmt 1
	.loc 2 168 2
	.loc 2 168 7 is_stmt 0
	sb	a5,22(a1)
	.loc 2 169 2 is_stmt 1
	.loc 2 169 7 is_stmt 0
	sb	zero,23(a1)
	.loc 2 170 1
	j	.L37
.LVL90:
.L9:
.LBE189:
.LBE188:
.LBE191:
.LBE194:
.LBB195:
.LBB161:
	.loc 1 141 16
	li	a0,-1
	j	.L7
.LVL91:
.L42:
.LBE161:
.LBE195:
	.loc 1 308 16
	li	a0,0
.LVL92:
	j	.L7
	.cfi_endproc
.LFE91:
	.size	wpa_gen_wpa_ie, .-wpa_gen_wpa_ie
	.section	.rodata.__func__.0,"a"
	.align	2
	.set	.LANCHOR1,. + 0
	.type	__func__.0, @object
	.size	__func__.0, 19
__func__.0:
	.string	"wpa_gen_wpa_ie_wpa"
	.section	.rodata.__func__.1,"a"
	.align	2
	.set	.LANCHOR0,. + 0
	.type	__func__.1, @object
	.size	__func__.1, 19
__func__.1:
	.string	"wpa_gen_wpa_ie_rsn"
	.text
.Letext0:
	.file 3 "/mnt/d/GitHub/bl_iot_sdk_for_aithinker/toolchain/riscv/Linux/lib/gcc/riscv64-unknown-elf/10.2.0/include/stddef.h"
	.file 4 "/mnt/d/GitHub/bl_iot_sdk_for_aithinker/toolchain/riscv/Linux/riscv64-unknown-elf/include/machine/_default_types.h"
	.file 5 "/mnt/d/GitHub/bl_iot_sdk_for_aithinker/toolchain/riscv/Linux/riscv64-unknown-elf/include/sys/_stdint.h"
	.file 6 "/mnt/d/GitHub/bl_iot_sdk_for_aithinker/components/network/wifi/include/supplicant_api.h"
	.file 7 "/mnt/d/GitHub/bl_iot_sdk_for_aithinker/components/security/wpa_supplicant/src/common/defs.h"
	.file 8 "/mnt/d/GitHub/bl_iot_sdk_for_aithinker/components/security/wpa_supplicant/src/common/wpa_common.h"
	.file 9 "/mnt/d/GitHub/bl_iot_sdk_for_aithinker/components/security/wpa_supplicant/src/rsn_supp/wpa_i.h"
	.file 10 "/mnt/d/GitHub/bl_iot_sdk_for_aithinker/toolchain/riscv/Linux/riscv64-unknown-elf/include/assert.h"