	.file	"demo.c"
	.option nopic
	.attribute arch, "rv32i2p0_m2p0_f2p0_c2p0"
	.attribute unaligned_access, 0
	.attribute stack_align, 16
	.text
.Ltext0:
	.cfi_sections	.debug_frame
	.section	.rodata.https_get_task.str1.4,"aMS",@progbits,1
	.align	2
.LC0:
	.string	"demo.c"
	.align	2
.LC1:
	.string	"\033[32mINFO\033[0m"
	.align	2
.LC2:
	.string	"%s (%d)[%s:%4d] Seeding the random number generator\r\n"
	.align	2
.LC3:
	.string	"\033[31mERROR\033[0m"
	.align	2
.LC4:
	.string	"%s (%d)[%s:%4d] mbedtls_ctr_drbg_seed returned %d\r\n"
	.align	2
.LC5:
	.string	"%s (%d)[%s:%4d] Loading the CA root certificate...\r\n"
	.align	2
.LC6:
	.string	"%s (%d)[%s:%4d] mbedtls_x509_crt_parse returned -0x%x\n\n\r\n"
	.align	2
.LC7:
	.string	"%s (%d)[%s:%4d] Setting hostname for TLS session...\r\n"
	.align	2
.LC8:
	.string	"www.howsmyssl.com"
	.align	2
.LC9:
	.string	"%s (%d)[%s:%4d] mbedtls_ssl_set_hostname returned -0x%x\r\n"
	.align	2
.LC10:
	.string	"%s (%d)[%s:%4d] Setting up the SSL/TLS structure...\r\n"
	.align	2
.LC11:
	.string	"%s (%d)[%s:%4d] mbedtls_ssl_config_defaults returned %d\r\n"
	.align	2
.LC12:
	.string	"%s (%d)[%s:%4d] mbedtls_ssl_setup returned -0x%x\n\n\r\n"
	.align	2
.LC13:
	.string	"443"
	.align	2
.LC14:
	.string	"%s (%d)[%s:%4d] Connecting to %s:%s...\r\n"
	.align	2
.LC15:
	.string	"%s (%d)[%s:%4d] mbedtls_net_connect returned -%x\r\n"
	.align	2
.LC16:
	.string	"%s (%d)[%s:%4d] Connected.\r\n"
	.align	2
.LC17:
	.string	"%s (%d)[%s:%4d] Performing the SSL/TLS handshake...\r\n"
	.align	2
.LC18:
	.string	"%s (%d)[%s:%4d] mbedtls_ssl_handshake returned -0x%x\r\n"
	.align	2
.LC19:
	.string	"%s (%d)[%s:%4d] Verifying peer X.509 certificate...\r\n"
	.align	2
.LC20:
	.string	"\033[33mWARN\033[0m"
	.align	2
.LC21:
	.string	"%s (%d)[%s:%4d] Failed to verify peer certificate!\r\n"
	.align	2
.LC22:
	.string	"  ! "
	.align	2
.LC23:
	.string	"%s (%d)[%s:%4d] verification info: %s\r\n"
	.align	2
.LC24:
	.string	"%s (%d)[%s:%4d] Certificate verified.\r\n"
	.align	2
.LC25:
	.string	"%s (%d)[%s:%4d] Cipher suite is %s\r\n"
	.align	2
.LC26:
	.string	"%s (%d)[%s:%4d] Writing HTTP request...\r\n"
	.align	2
.LC27:
	.string	"GET https://www.howsmyssl.com/a/check HTTP/1.0\r\nHost: www.howsmyssl.com\r\nUser-Agent: aithinker wb2 \r\n\r\n"
	.align	2
.LC28:
	.string	"%s (%d)[%s:%4d] %d bytes written\r\n"
	.align	2
.LC29:
	.string	"%s (%d)[%s:%4d] mbedtls_ssl_write returned -0x%x\r\n"
	.align	2
.LC30:
	.string	"%s (%d)[%s:%4d] Reading HTTP response...\r\n"
	.align	2
.LC31:
	.string	"%s (%d)[%s:%4d] mbedtls_ssl_read returned -0x%x\r\n"
	.align	2
.LC32:
	.string	"%s (%d)[%s:%4d] connection closed\r\n"
	.align	2
.LC33:
	.string	"%d bytes read\n\r"
	.align	2
.LC34:
	.string	"%s (%d)[%s:%4d] Last error was: -0x%x - %s\r\n"
	.align	2
.LC35:
	.string	"%s (%d)[%s:%4d] Completed %d requests\r\n"
	.align	2
.LC36:
	.string	"%s (%d)[%s:%4d] %d...\r\n"
	.align	2
.LC37:
	.string	"%s (%d)[%s:%4d] Starting again!\r\n"
	.section	.text.https_get_task,"ax",@progbits
	.align	1
	.globl	https_get_task
	.type	https_get_task, @function
https_get_task:
.LFB22:
	.file 1 "/mnt/d/GitHub/bl_iot_sdk_for_aithinker/applications/protocols/https_mbedtls/https_mbedtls/demo.c"
	.loc 1 60 1
	.cfi_startproc
.LVL0:
	.loc 1 61 5
	.loc 1 62 5
	.loc 1 64 5
	.loc 1 65 5
	.loc 1 66 5
	.loc 1 67 5
	.loc 1 68 5
	.loc 1 69 5
	.loc 1 71 5
	.loc 1 60 1 is_stmt 0
	addi	sp,sp,-176
	.cfi_def_cfa_offset 176
	sw	ra,172(sp)
	sw	s1,164(sp)
	sw	s0,168(sp)
	sw	s2,160(sp)
	sw	s3,156(sp)
	sw	s4,152(sp)
	sw	s5,148(sp)
	sw	s6,144(sp)
	sw	s7,140(sp)
	sw	s8,136(sp)
	sw	s9,132(sp)
	sw	s10,128(sp)
	addi	sp,sp,-2032
	.cfi_def_cfa_offset 2208
	.cfi_offset 1, -4
	.cfi_offset 9, -12
	.cfi_offset 8, -8
	.cfi_offset 18, -16
	.cfi_offset 19, -20
	.cfi_offset 20, -24
	.cfi_offset 21, -28
	.cfi_offset 22, -32
	.cfi_offset 23, -36
	.cfi_offset 24, -40
	.cfi_offset 25, -44
	.cfi_offset 26, -48
	.loc 1 71 5
	addi	a0,sp,192
.LVL1:
	call	mbedtls_ssl_init
.LVL2:
	.loc 1 72 5 is_stmt 1
	addi	a0,sp,384
	call	mbedtls_x509_crt_init
.LVL3:
	.loc 1 73 5
	addi	a0,sp,696
	call	mbedtls_ctr_drbg_init
.LVL4:
	.loc 1 74 5
	.loc 1 74 43
	.loc 1 74 48
	.loc 1 74 69 is_stmt 0
	lui	s1,%hi(_fsymc_level_https_mbedtls)
	.loc 1 74 51
	lw	a4,%lo(_fsymc_level_https_mbedtls)(s1)
	li	a5,2
	bgtu	a4,a5,.L2
	.loc 1 74 120 discriminator 3
	lui	a4,%hi(_fsymf_level_https_mbedtlsdemo)
	.loc 1 74 100 discriminator 3
	lw	a4,%lo(_fsymf_level_https_mbedtlsdemo)(a4)
	bgtu	a4,a5,.L2
	.loc 1 74 158 is_stmt 1 discriminator 5
	.loc 1 74 257 is_stmt 0 discriminator 5
	call	xPortIsInsideInterrupt
.LVL5:
	.loc 1 74 158 discriminator 5
	beq	a0,zero,.L3
	.loc 1 74 286 discriminator 7
	call	xTaskGetTickCountFromISR
.LVL6:
.L120:
	.loc 1 74 317 discriminator 8
	mv	a2,a0
	.loc 1 74 158 discriminator 8
	lui	a3,%hi(.LC0)
	lui	a1,%hi(.LC1)
	lui	a0,%hi(.LC2)
	li	a4,74
	addi	a3,a3,%lo(.LC0)
	addi	a1,a1,%lo(.LC1)
	addi	a0,a0,%lo(.LC2)
	call	bl_printk
.LVL7:
.L2:
	.loc 1 74 364 is_stmt 1 discriminator 11
	.loc 1 74 375 discriminator 11
	.loc 1 76 5 discriminator 11
	li	a5,4096
	addi	a4,sp,16
	li	a0,-4096
	addi	a5,a5,-1952
	add	a5,a5,a4
	addi	a0,a0,1964
	add	a0,a5,a0
	call	mbedtls_ssl_config_init
.LVL8:
	.loc 1 78 5 discriminator 11
	addi	a0,sp,1528
	call	mbedtls_entropy_init
.LVL9:
	.loc 1 79 5 discriminator 11
	.loc 1 79 16 is_stmt 0 discriminator 11
	lui	a1,%hi(mbedtls_entropy_func)
	li	a4,0
	li	a3,0
	addi	a2,sp,1528
	addi	a1,a1,%lo(mbedtls_entropy_func)
	addi	a0,sp,696
	call	mbedtls_ctr_drbg_seed
.LVL10:
	.loc 1 82 55 discriminator 11
	lw	a4,%lo(_fsymc_level_https_mbedtls)(s1)
	.loc 1 79 16 discriminator 11
	mv	s0,a0
.LVL11:
	.loc 1 79 8 discriminator 11
	beq	a0,zero,.L5
	.loc 1 82 9 is_stmt 1 discriminator 1
	.loc 1 82 47 discriminator 1
	.loc 1 82 52 discriminator 1
	.loc 1 82 55 is_stmt 0 discriminator 1
	li	a5,4
	bgtu	a4,a5,.L7
	.loc 1 82 126 discriminator 3
	lui	a4,%hi(_fsymf_level_https_mbedtlsdemo)
	.loc 1 82 105 discriminator 3
	lw	a4,%lo(_fsymf_level_https_mbedtlsdemo)(a4)
	bgtu	a4,a5,.L7
	.loc 1 82 164 is_stmt 1 discriminator 5
	.loc 1 82 262 is_stmt 0 discriminator 5
	call	xPortIsInsideInterrupt
.LVL12:
	.loc 1 82 164 discriminator 5
	beq	a0,zero,.L9
	.loc 1 82 291 discriminator 7
	call	xTaskGetTickCountFromISR
.LVL13:
.L121:
	.loc 1 82 322 discriminator 8
	mv	a2,a0
	.loc 1 82 164 discriminator 8
	lui	a3,%hi(.LC0)
	lui	a1,%hi(.LC3)
	lui	a0,%hi(.LC4)
	mv	a5,s0
	li	a4,82
	addi	a3,a3,%lo(.LC0)
	addi	a1,a1,%lo(.LC3)
	addi	a0,a0,%lo(.LC4)
.L122:
	.loc 1 82 164 discriminator 10
	call	bl_printk
.LVL14:
.L7:
	.loc 1 82 374 is_stmt 1 discriminator 11
	.loc 1 82 385 discriminator 11
	.loc 1 83 9 discriminator 11
	call	abort
.LVL15:
.L3:
	.loc 1 74 317 is_stmt 0 discriminator 8
	call	xTaskGetTickCount
.LVL16:
	j	.L120
.LVL17:
.L9:
	.loc 1 82 322 discriminator 8
	call	xTaskGetTickCount
.LVL18:
	j	.L121
.L5:
	.loc 1 86 5 is_stmt 1 discriminator 1
	.loc 1 86 43 discriminator 1
	.loc 1 86 48 discriminator 1
	.loc 1 86 51 is_stmt 0 discriminator 1
	li	a5,2
	bgtu	a4,a5,.L11
	.loc 1 86 120 discriminator 3
	lui	a4,%hi(_fsymf_level_https_mbedtlsdemo)
	.loc 1 86 100 discriminator 3
	lw	a4,%lo(_fsymf_level_https_mbedtlsdemo)(a4)
	bgtu	a4,a5,.L11
	.loc 1 86 158 is_stmt 1 discriminator 5
	.loc 1 86 256 is_stmt 0 discriminator 5
	call	xPortIsInsideInterrupt
.LVL19:
	.loc 1 86 158 discriminator 5
	beq	a0,zero,.L12
	.loc 1 86 285 discriminator 7
	call	xTaskGetTickCountFromISR
.LVL20:
.L123:
	.loc 1 86 316 discriminator 8
	mv	a2,a0
	.loc 1 86 158 discriminator 8
	lui	a3,%hi(.LC0)
	lui	a1,%hi(.LC1)
	lui	a0,%hi(.LC5)
	li	a4,86
	addi	a3,a3,%lo(.LC0)
	addi	a1,a1,%lo(.LC1)
	addi	a0,a0,%lo(.LC5)
	call	bl_printk
.LVL21:
.L11:
	.loc 1 86 363 is_stmt 1 discriminator 11
	.loc 1 86 374 discriminator 11
	.loc 1 88 5 discriminator 11
	.loc 1 90 34 is_stmt 0 discriminator 11
	lui	s0,%hi(.LANCHOR0)
.LVL22:
	addi	a0,s0,%lo(.LANCHOR0)
	call	strlen
.LVL23:
	.loc 1 88 11 discriminator 11
	addi	a2,a0,1
	addi	a1,s0,%lo(.LANCHOR0)
	addi	a0,sp,384
	call	mbedtls_x509_crt_parse
.LVL24:
	.loc 1 94 55 discriminator 11
	lw	a4,%lo(_fsymc_level_https_mbedtls)(s1)
	.loc 1 88 11 discriminator 11
	mv	s0,a0
.LVL25:
	.loc 1 92 5 is_stmt 1 discriminator 11
	.loc 1 92 8 is_stmt 0 discriminator 11
	bge	a0,zero,.L14
	.loc 1 94 9 is_stmt 1 discriminator 1
	.loc 1 94 47 discriminator 1
	.loc 1 94 52 discriminator 1
	.loc 1 94 55 is_stmt 0 discriminator 1
	li	a5,4
	bgtu	a4,a5,.L7
	.loc 1 94 126 discriminator 3
	lui	a4,%hi(_fsymf_level_https_mbedtlsdemo)
	.loc 1 94 105 discriminator 3
	lw	a4,%lo(_fsymf_level_https_mbedtlsdemo)(a4)
	bgtu	a4,a5,.L7
	.loc 1 94 164 is_stmt 1 discriminator 5
	.loc 1 94 270 is_stmt 0 discriminator 5
	call	xPortIsInsideInterrupt
.LVL26:
	.loc 1 94 164 discriminator 5
	beq	a0,zero,.L15
	.loc 1 94 299 discriminator 7
	call	xTaskGetTickCountFromISR
.LVL27:
.L124:
	.loc 1 94 330 discriminator 8
	mv	a2,a0
	.loc 1 94 164 discriminator 8
	lui	a3,%hi(.LC0)
	lui	a1,%hi(.LC3)
	lui	a0,%hi(.LC6)
	neg	a5,s0
	li	a4,94
	addi	a3,a3,%lo(.LC0)
	addi	a1,a1,%lo(.LC3)
	addi	a0,a0,%lo(.LC6)
	j	.L122
.L12:
	.loc 1 86 316 discriminator 8
	call	xTaskGetTickCount
.LVL28:
	j	.L123
.L15:
	.loc 1 94 330 discriminator 8
	call	xTaskGetTickCount
.LVL29:
	j	.L124
.L14:
	.loc 1 98 5 is_stmt 1 discriminator 1
	.loc 1 98 43 discriminator 1
	.loc 1 98 48 discriminator 1
	.loc 1 98 51 is_stmt 0 discriminator 1
	li	a5,2
	bgtu	a4,a5,.L17
	.loc 1 98 120 discriminator 3
	lui	a4,%hi(_fsymf_level_https_mbedtlsdemo)
	.loc 1 98 100 discriminator 3
	lw	a4,%lo(_fsymf_level_https_mbedtlsdemo)(a4)
	bgtu	a4,a5,.L17
	.loc 1 98 158 is_stmt 1 discriminator 5
	.loc 1 98 257 is_stmt 0 discriminator 5
	call	xPortIsInsideInterrupt
.LVL30:
	.loc 1 98 158 discriminator 5
	beq	a0,zero,.L18
	.loc 1 98 286 discriminator 7
	call	xTaskGetTickCountFromISR
.LVL31:
.L125:
	.loc 1 98 317 discriminator 8
	mv	a2,a0
	.loc 1 98 158 discriminator 8
	lui	a3,%hi(.LC0)
	lui	a1,%hi(.LC1)
	lui	a0,%hi(.LC7)
	li	a4,98
	addi	a3,a3,%lo(.LC0)
	addi	a1,a1,%lo(.LC1)
	addi	a0,a0,%lo(.LC7)
	call	bl_printk
.LVL32:
.L17:
	.loc 1 98 364 is_stmt 1 discriminator 11
	.loc 1 98 375 discriminator 11
	.loc 1 101 5 discriminator 11
	.loc 1 101 16 is_stmt 0 discriminator 11
	lui	s3,%hi(.LC8)
	addi	a1,s3,%lo(.LC8)
	addi	a0,sp,192
	call	mbedtls_ssl_set_hostname
.LVL33:
	.loc 1 103 55 discriminator 11
	lw	a4,%lo(_fsymc_level_https_mbedtls)(s1)
	.loc 1 101 16 discriminator 11
	mv	s0,a0
.LVL34:
	.loc 1 101 8 discriminator 11
	beq	a0,zero,.L20
	.loc 1 103 9 is_stmt 1 discriminator 1
	.loc 1 103 47 discriminator 1
	.loc 1 103 52 discriminator 1
	.loc 1 103 55 is_stmt 0 discriminator 1
	li	a5,4
	bgtu	a4,a5,.L7
	.loc 1 103 126 discriminator 3
	lui	a4,%hi(_fsymf_level_https_mbedtlsdemo)
	.loc 1 103 105 discriminator 3
	lw	a4,%lo(_fsymf_level_https_mbedtlsdemo)(a4)
	bgtu	a4,a5,.L7
	.loc 1 103 164 is_stmt 1 discriminator 5
	.loc 1 103 268 is_stmt 0 discriminator 5
	call	xPortIsInsideInterrupt
.LVL35:
	.loc 1 103 164 discriminator 5
	beq	a0,zero,.L21
	.loc 1 103 297 discriminator 7
	call	xTaskGetTickCountFromISR
.LVL36:
.L126:
	.loc 1 103 328 discriminator 8
	mv	a2,a0
	.loc 1 103 164 discriminator 8
	lui	a3,%hi(.LC0)
	lui	a1,%hi(.LC3)
	lui	a0,%hi(.LC9)
	neg	a5,s0
	li	a4,103
	addi	a3,a3,%lo(.LC0)
	addi	a1,a1,%lo(.LC3)
	addi	a0,a0,%lo(.LC9)
	j	.L122
.L18:
	.loc 1 98 317 discriminator 8
	call	xTaskGetTickCount
.LVL37:
	j	.L125
.L21:
	.loc 1 103 328 discriminator 8
	call	xTaskGetTickCount
.LVL38:
	j	.L126
.L20:
	.loc 1 107 5 is_stmt 1 discriminator 1
	.loc 1 107 43 discriminator 1
	.loc 1 107 48 discriminator 1
	.loc 1 107 51 is_stmt 0 discriminator 1
	li	a5,2
	bgtu	a4,a5,.L23
	.loc 1 107 120 discriminator 3
	lui	a4,%hi(_fsymf_level_https_mbedtlsdemo)
	.loc 1 107 100 discriminator 3
	lw	a4,%lo(_fsymf_level_https_mbedtlsdemo)(a4)
	bgtu	a4,a5,.L23
	.loc 1 107 158 is_stmt 1 discriminator 5
	.loc 1 107 257 is_stmt 0 discriminator 5
	call	xPortIsInsideInterrupt
.LVL39:
	.loc 1 107 158 discriminator 5
	beq	a0,zero,.L24
	.loc 1 107 286 discriminator 7
	call	xTaskGetTickCountFromISR
.LVL40:
.L127:
	.loc 1 107 317 discriminator 8
	mv	a2,a0
	.loc 1 107 158 discriminator 8
	lui	a3,%hi(.LC0)
	lui	a1,%hi(.LC1)
	lui	a0,%hi(.LC10)
	li	a4,107
	addi	a3,a3,%lo(.LC0)
	addi	a1,a1,%lo(.LC1)
	addi	a0,a0,%lo(.LC10)
	call	bl_printk
.LVL41:
.L23:
	.loc 1 107 365 is_stmt 1 discriminator 11
	.loc 1 107 376 discriminator 11
	.loc 1 109 5 discriminator 11
	.loc 1 109 16 is_stmt 0 discriminator 11
	li	a5,4096
	addi	a4,sp,16
	li	s2,-4096
	addi	a5,a5,-1952
	add	a5,a5,a4
	addi	s2,s2,1964
	add	s2,a5,s2
	li	a3,0
	li	a2,0
	li	a1,0
	mv	a0,s2
	call	mbedtls_ssl_config_defaults
.LVL42:
	mv	s0,a0
.LVL43:
	.loc 1 109 8 discriminator 11
	beq	a0,zero,.L26
	.loc 1 114 9 is_stmt 1 discriminator 1
	.loc 1 114 47 discriminator 1
	.loc 1 114 52 discriminator 1
	.loc 1 114 55 is_stmt 0 discriminator 1
	lw	a4,%lo(_fsymc_level_https_mbedtls)(s1)
	li	a5,4
	bgtu	a4,a5,.L27
	.loc 1 114 126 discriminator 3
	lui	a4,%hi(_fsymf_level_https_mbedtlsdemo)
	.loc 1 114 105 discriminator 3
	lw	a4,%lo(_fsymf_level_https_mbedtlsdemo)(a4)
	bgtu	a4,a5,.L27
	.loc 1 114 164 is_stmt 1 discriminator 5
	.loc 1 114 268 is_stmt 0 discriminator 5
	call	xPortIsInsideInterrupt
.LVL44:
	.loc 1 114 164 discriminator 5
	beq	a0,zero,.L28
	.loc 1 114 297 discriminator 7
	call	xTaskGetTickCountFromISR
.LVL45:
.L128:
	.loc 1 114 328 discriminator 8
	mv	a2,a0
	.loc 1 114 164 discriminator 8
	lui	a3,%hi(.LC0)
	lui	a1,%hi(.LC3)
	lui	a0,%hi(.LC11)
	mv	a5,s0
	li	a4,114
	addi	a3,a3,%lo(.LC0)
	addi	a1,a1,%lo(.LC3)
	addi	a0,a0,%lo(.LC11)
.L146:
.LBB2:
	.loc 1 193 172 discriminator 10
	call	bl_printk
.LVL46:
	j	.L27
.L24:
.LBE2:
	.loc 1 107 317 discriminator 8
	call	xTaskGetTickCount
.LVL47:
	j	.L127
.L28:
	.loc 1 114 328 discriminator 8
	call	xTaskGetTickCount
.LVL48:
	j	.L128
.L26:
	.loc 1 123 5 is_stmt 1
	li	a1,1
	mv	a0,s2
	call	mbedtls_ssl_conf_authmode
.LVL49:
	.loc 1 124 5
	li	a2,0
	addi	a1,sp,384
	mv	a0,s2
	call	mbedtls_ssl_conf_ca_chain
.LVL50:
	.loc 1 125 5
	lui	a1,%hi(mbedtls_ctr_drbg_random)
	addi	a2,sp,696
	addi	a1,a1,%lo(mbedtls_ctr_drbg_random)
	mv	a0,s2
	call	mbedtls_ssl_conf_rng
.LVL51:
	.loc 1 127 5
	.loc 1 127 16 is_stmt 0
	mv	a1,s2
	addi	a0,sp,192
	call	mbedtls_ssl_setup
.LVL52:
	mv	s0,a0
.LVL53:
	.loc 1 127 8
	beq	a0,zero,.L30
	.loc 1 129 9 is_stmt 1 discriminator 1
	.loc 1 129 47 discriminator 1
	.loc 1 129 52 discriminator 1
	.loc 1 129 55 is_stmt 0 discriminator 1
	lw	a4,%lo(_fsymc_level_https_mbedtls)(s1)
	li	a5,4
	bgtu	a4,a5,.L27
	.loc 1 129 126 discriminator 3
	lui	a4,%hi(_fsymf_level_https_mbedtlsdemo)
	.loc 1 129 105 discriminator 3
	lw	a4,%lo(_fsymf_level_https_mbedtlsdemo)(a4)
	bgtu	a4,a5,.L27
	.loc 1 129 164 is_stmt 1 discriminator 5
	.loc 1 129 265 is_stmt 0 discriminator 5
	call	xPortIsInsideInterrupt
.LVL54:
	.loc 1 129 164 discriminator 5
	beq	a0,zero,.L31
	.loc 1 129 294 discriminator 7
	call	xTaskGetTickCountFromISR
.LVL55:
.L129:
	.loc 1 129 325 discriminator 8
	mv	a2,a0
	.loc 1 129 164 discriminator 8
	lui	a3,%hi(.LC0)
	lui	a1,%hi(.LC3)
	lui	a0,%hi(.LC12)
	neg	a5,s0
	li	a4,129
	addi	a3,a3,%lo(.LC0)
	addi	a1,a1,%lo(.LC3)
	addi	a0,a0,%lo(.LC12)
	j	.L146
.L31:
	.loc 1 129 325 discriminator 8
	call	xTaskGetTickCount
.LVL56:
	j	.L129
.LVL57:
.L34:
.LBB6:
	.loc 1 137 308 discriminator 8
	call	xTaskGetTickCount
.LVL58:
	j	.L130
.LVL59:
.L37:
	.loc 1 142 325 discriminator 8
	call	xTaskGetTickCount
.LVL60:
	j	.L131
.L36:
	.loc 1 146 9 is_stmt 1 discriminator 1
	.loc 1 146 47 discriminator 1
	.loc 1 146 52 discriminator 1
	.loc 1 146 55 is_stmt 0 discriminator 1
	li	a5,2
	bgtu	a4,a5,.L39
	.loc 1 146 124 discriminator 3
	lui	a4,%hi(_fsymf_level_https_mbedtlsdemo)
	.loc 1 146 104 discriminator 3
	lw	a4,%lo(_fsymf_level_https_mbedtlsdemo)(a4)
	bgtu	a4,a5,.L39
	.loc 1 146 162 is_stmt 1 discriminator 5
	.loc 1 146 236 is_stmt 0 discriminator 5
	call	xPortIsInsideInterrupt
.LVL61:
	.loc 1 146 162 discriminator 5
	beq	a0,zero,.L40
	.loc 1 146 265 discriminator 7
	call	xTaskGetTickCountFromISR
.LVL62:
.L132:
	.loc 1 146 296 discriminator 8
	mv	a2,a0
	.loc 1 146 162 discriminator 8
	lui	a3,%hi(.LC0)
	lui	a1,%hi(.LC1)
	lui	a0,%hi(.LC16)
	li	a4,146
	addi	a3,a3,%lo(.LC0)
	addi	a1,a1,%lo(.LC1)
	addi	a0,a0,%lo(.LC16)
	call	bl_printk
.LVL63:
.L39:
	.loc 1 146 344 is_stmt 1 discriminator 11
	.loc 1 146 355 discriminator 11
	.loc 1 148 9 discriminator 11
	li	a5,4096
	addi	a0,sp,16
	li	a1,-4096
	addi	a5,a5,-1952
	add	a5,a5,a0
	lui	a3,%hi(mbedtls_net_recv)
	lui	a2,%hi(mbedtls_net_send)
	addi	a1,a1,1960
	li	a4,0
	add	a1,a5,a1
	addi	a3,a3,%lo(mbedtls_net_recv)
	addi	a2,a2,%lo(mbedtls_net_send)
	addi	a0,sp,192
	call	mbedtls_ssl_set_bio
.LVL64:
	.loc 1 150 9 discriminator 11
	.loc 1 150 47 discriminator 11
	.loc 1 150 52 discriminator 11
	.loc 1 150 55 is_stmt 0 discriminator 11
	lw	a4,%lo(_fsymc_level_https_mbedtls)(s1)
	li	a5,2
	bgtu	a4,a5,.L42
	.loc 1 150 124 discriminator 3
	lui	a4,%hi(_fsymf_level_https_mbedtlsdemo)
	.loc 1 150 104 discriminator 3
	lw	a4,%lo(_fsymf_level_https_mbedtlsdemo)(a4)
	bgtu	a4,a5,.L42
	.loc 1 150 162 is_stmt 1 discriminator 5
	.loc 1 150 261 is_stmt 0 discriminator 5
	call	xPortIsInsideInterrupt
.LVL65:
	.loc 1 150 162 discriminator 5
	beq	a0,zero,.L43
	.loc 1 150 290 discriminator 7
	call	xTaskGetTickCountFromISR
.LVL66:
.L133:
	.loc 1 150 321 discriminator 8
	mv	a2,a0
	.loc 1 150 162 discriminator 8
	lui	a3,%hi(.LC0)
	lui	a1,%hi(.LC1)
	lui	a0,%hi(.LC17)
	li	a4,150
	addi	a3,a3,%lo(.LC0)
	addi	a1,a1,%lo(.LC1)
	addi	a0,a0,%lo(.LC17)
	call	bl_printk
.LVL67:
.L42:
	.loc 1 154 16
	li	s0,-28672
.LVL68:
	addi	s0,s0,1792
.L45:
	.loc 1 152 15 is_stmt 1
	.loc 1 152 23 is_stmt 0
	addi	a0,sp,192
	call	mbedtls_ssl_handshake
.LVL69:
	mv	s2,a0
.LVL70:
	.loc 1 152 15
	bne	a0,zero,.L48
	.loc 1 161 9 is_stmt 1 discriminator 1
	.loc 1 161 47 discriminator 1
	.loc 1 161 52 discriminator 1
	.loc 1 161 55 is_stmt 0 discriminator 1
	lw	a4,%lo(_fsymc_level_https_mbedtls)(s1)
	li	a5,2
	bgtu	a4,a5,.L49
	.loc 1 161 124 discriminator 3
	lui	a4,%hi(_fsymf_level_https_mbedtlsdemo)
	.loc 1 161 104 discriminator 3
	lw	a4,%lo(_fsymf_level_https_mbedtlsdemo)(a4)
	bgtu	a4,a5,.L49
	.loc 1 161 162 is_stmt 1 discriminator 5
	.loc 1 161 261 is_stmt 0 discriminator 5
	call	xPortIsInsideInterrupt
.LVL71:
	.loc 1 161 162 discriminator 5
	beq	a0,zero,.L50
	.loc 1 161 290 discriminator 7
	call	xTaskGetTickCountFromISR
.LVL72:
.L135:
	.loc 1 161 321 discriminator 8
	mv	a2,a0
	.loc 1 161 162 discriminator 8
	lui	a3,%hi(.LC0)
	lui	a1,%hi(.LC1)
	lui	a0,%hi(.LC19)
	li	a4,161
	addi	a3,a3,%lo(.LC0)
	addi	a1,a1,%lo(.LC1)
	addi	a0,a0,%lo(.LC19)
	call	bl_printk
.LVL73:
.L49:
	.loc 1 161 369 is_stmt 1 discriminator 11
	.loc 1 161 380 discriminator 11
	.loc 1 163 9 discriminator 11
	.loc 1 163 22 is_stmt 0 discriminator 11
	addi	a0,sp,192
	call	mbedtls_ssl_get_verify_result
.LVL74:
	.loc 1 166 59 discriminator 11
	lw	a4,%lo(_fsymc_level_https_mbedtls)(s1)
	.loc 1 163 22 discriminator 11
	mv	s0,a0
.LVL75:
	.loc 1 163 12 discriminator 11
	beq	a0,zero,.L52
	.loc 1 166 13 is_stmt 1 discriminator 1
	.loc 1 166 51 discriminator 1
	.loc 1 166 56 discriminator 1
	.loc 1 166 59 is_stmt 0 discriminator 1
	li	a5,3
	bgtu	a4,a5,.L53
	.loc 1 166 128 discriminator 3
	lui	a4,%hi(_fsymf_level_https_mbedtlsdemo)
	.loc 1 166 108 discriminator 3
	lw	a4,%lo(_fsymf_level_https_mbedtlsdemo)(a4)
	bgtu	a4,a5,.L53
	.loc 1 166 166 is_stmt 1 discriminator 5
	.loc 1 166 264 is_stmt 0 discriminator 5
	call	xPortIsInsideInterrupt
.LVL76:
	.loc 1 166 166 discriminator 5
	beq	a0,zero,.L54
	.loc 1 166 293 discriminator 7
	call	xTaskGetTickCountFromISR
.LVL77:
.L136:
	.loc 1 166 324 discriminator 8
	mv	a2,a0
	.loc 1 166 166 discriminator 8
	lui	a3,%hi(.LC0)
	lui	a1,%hi(.LC20)
	lui	a0,%hi(.LC21)
	li	a4,166
	addi	a3,a3,%lo(.LC0)
	addi	a1,a1,%lo(.LC20)
	addi	a0,a0,%lo(.LC21)
	call	bl_printk
.LVL78:
.L53:
	.loc 1 166 372 is_stmt 1 discriminator 11
	.loc 1 166 383 discriminator 11
	.loc 1 167 13 discriminator 11
	li	a1,512
	addi	a0,sp,1016
	call	bzero
.LVL79:
	.loc 1 168 13 discriminator 11
	lui	a2,%hi(.LC22)
	mv	a3,s0
	addi	a2,a2,%lo(.LC22)
	li	a1,512
	addi	a0,sp,1016
	call	mbedtls_x509_crt_verify_info
.LVL80:
	.loc 1 169 13 discriminator 11
	.loc 1 169 51 discriminator 11
	.loc 1 169 56 discriminator 11
	.loc 1 169 59 is_stmt 0 discriminator 11
	lw	a4,%lo(_fsymc_level_https_mbedtls)(s1)
	li	a5,3
	bgtu	a4,a5,.L56
	.loc 1 169 128 discriminator 3
	lui	a4,%hi(_fsymf_level_https_mbedtlsdemo)
	.loc 1 169 108 discriminator 3
	lw	a4,%lo(_fsymf_level_https_mbedtlsdemo)(a4)
	bgtu	a4,a5,.L56
	.loc 1 169 166 is_stmt 1 discriminator 5
	.loc 1 169 251 is_stmt 0 discriminator 5
	call	xPortIsInsideInterrupt
.LVL81:
	.loc 1 169 166 discriminator 5
	beq	a0,zero,.L57
	.loc 1 169 280 discriminator 7
	call	xTaskGetTickCountFromISR
.LVL82:
.L137:
	.loc 1 169 311 discriminator 8
	mv	a2,a0
	.loc 1 169 166 discriminator 8
	lui	a3,%hi(.LC0)
	lui	a1,%hi(.LC20)
	lui	a0,%hi(.LC23)
	addi	a5,sp,1016
	li	a4,169
	addi	a3,a3,%lo(.LC0)
	addi	a1,a1,%lo(.LC20)
	addi	a0,a0,%lo(.LC23)
	call	bl_printk
.LVL83:
.L56:
	.loc 1 173 359 is_stmt 1 discriminator 1
	.loc 1 173 370 discriminator 1
	.loc 1 176 9 discriminator 1
	.loc 1 176 47 discriminator 1
	.loc 1 176 52 discriminator 1
	.loc 1 176 55 is_stmt 0 discriminator 1
	lw	a4,%lo(_fsymc_level_https_mbedtls)(s1)
	li	a5,2
	bleu	a4,a5,.L65
.LVL84:
.L108:
	.loc 1 185 37
	lui	s4,%hi(.LC27)
	.loc 1 191 37
	li	s5,-28672
.LBE6:
	.loc 1 60 1
	li	s2,0
	mv	s6,s4
.LBB7:
	.loc 1 191 37
	addi	s5,s5,1792
	.loc 1 188 132
	lui	s7,%hi(_fsymf_level_https_mbedtlsdemo)
	.loc 1 188 170
	lui	s8,%hi(.LC0)
	lui	s9,%hi(.LC1)
	lui	s10,%hi(.LC28)
.L80:
.LVL85:
	.loc 1 181 9 is_stmt 1
	.loc 1 183 13
	.loc 1 185 37 is_stmt 0
	addi	a0,s4,%lo(.LC27)
	call	strlen
.LVL86:
	.loc 1 183 19
	addi	a1,s4,%lo(.LC27)
	sub	a2,a0,s2
	add	a1,a1,s2
	addi	a0,sp,192
	call	mbedtls_ssl_write
.LVL87:
	mv	s0,a0
.LVL88:
	.loc 1 186 13 is_stmt 1
	.loc 1 186 16 is_stmt 0
	blt	a0,zero,.L73
	.loc 1 188 17 is_stmt 1 discriminator 1
	.loc 1 188 55 discriminator 1
	.loc 1 188 60 discriminator 1
	.loc 1 188 63 is_stmt 0 discriminator 1
	lw	a4,%lo(_fsymc_level_https_mbedtls)(s1)
	li	a5,2
	bgtu	a4,a5,.L74
	.loc 1 188 112 discriminator 3
	lw	a4,%lo(_fsymf_level_https_mbedtlsdemo)(s7)
	bgtu	a4,a5,.L74
	.loc 1 188 170 is_stmt 1 discriminator 5
	.loc 1 188 250 is_stmt 0 discriminator 5
	call	xPortIsInsideInterrupt
.LVL89:
	.loc 1 188 170 discriminator 5
	beq	a0,zero,.L75
	.loc 1 188 279 discriminator 7
	call	xTaskGetTickCountFromISR
.LVL90:
.L141:
	.loc 1 188 310 discriminator 8
	mv	a2,a0
	.loc 1 188 170 discriminator 8
	mv	a5,s0
	li	a4,188
	addi	a3,s8,%lo(.LC0)
	addi	a1,s9,%lo(.LC1)
	addi	a0,s10,%lo(.LC28)
	call	bl_printk
.LVL91:
.L74:
	.loc 1 188 363 is_stmt 1 discriminator 11
	.loc 1 188 374 discriminator 11
	.loc 1 189 17 discriminator 11
	.loc 1 189 31 is_stmt 0 discriminator 11
	add	s2,s2,s0
.LVL92:
.L77:
	.loc 1 196 17 is_stmt 1
	.loc 1 196 34 is_stmt 0
	addi	a0,s6,%lo(.LC27)
	call	strlen
.LVL93:
	.loc 1 196 9
	bgtu	a0,s2,.L80
	.loc 1 198 9 is_stmt 1 discriminator 1
	.loc 1 198 47 discriminator 1
	.loc 1 198 52 discriminator 1
	.loc 1 198 55 is_stmt 0 discriminator 1
	lw	a4,%lo(_fsymc_level_https_mbedtls)(s1)
	li	a5,2
	bgtu	a4,a5,.L81
	.loc 1 198 124 discriminator 3
	lui	a4,%hi(_fsymf_level_https_mbedtlsdemo)
	.loc 1 198 104 discriminator 3
	lw	a4,%lo(_fsymf_level_https_mbedtlsdemo)(a4)
	bgtu	a4,a5,.L81
	.loc 1 198 162 is_stmt 1 discriminator 5
	.loc 1 198 250 is_stmt 0 discriminator 5
	call	xPortIsInsideInterrupt
.LVL94:
	.loc 1 198 162 discriminator 5
	beq	a0,zero,.L82
	.loc 1 198 279 discriminator 7
	call	xTaskGetTickCountFromISR
.LVL95:
.L143:
	.loc 1 198 310 discriminator 8
	mv	a2,a0
	.loc 1 198 162 discriminator 8
	lui	a3,%hi(.LC0)
	lui	a1,%hi(.LC1)
	lui	a0,%hi(.LC30)
	li	a4,198
	addi	a3,a3,%lo(.LC0)
	addi	a1,a1,%lo(.LC1)
	addi	a0,a0,%lo(.LC30)
	call	bl_printk
.LVL96:
.L81:
	.loc 1 206 16 discriminator 11
	li	s4,-28672
	.loc 1 209 16 discriminator 11
	li	s5,-32768
	.loc 1 206 16 discriminator 11
	addi	s4,s4,1792
	.loc 1 209 16 discriminator 11
	addi	s5,s5,1920
	.loc 1 228 13 discriminator 11
	lui	s6,%hi(.LC33)
.LVL97:
.L84:
	.loc 1 198 358 is_stmt 1 discriminator 11
	.loc 1 198 369 discriminator 11
	.loc 1 200 9 discriminator 11
	.loc 1 202 13 discriminator 11
	.loc 1 203 13 discriminator 11
	li	a1,512
	addi	a0,sp,1016
	call	bzero
.LVL98:
	.loc 1 204 13 discriminator 11
	.loc 1 204 19 is_stmt 0 discriminator 11
	li	a2,511
	addi	a1,sp,1016
	addi	a0,sp,192
	call	mbedtls_ssl_read
.LVL99:
	.loc 1 206 16 discriminator 11
	andi	a5,a0,-129
	.loc 1 204 19 discriminator 11
	mv	s0,a0
.LVL100:
	.loc 1 206 13 is_stmt 1 discriminator 11
	.loc 1 206 16 is_stmt 0 discriminator 11
	beq	a5,s4,.L84
	.loc 1 209 13 is_stmt 1
	.loc 1 209 16 is_stmt 0
	beq	a0,s5,.L111
	.loc 1 215 13 is_stmt 1
	.loc 1 215 16 is_stmt 0
	bge	a0,zero,.L87
	.loc 1 217 17 is_stmt 1 discriminator 1
	.loc 1 217 55 discriminator 1
	.loc 1 217 60 discriminator 1
	.loc 1 217 63 is_stmt 0 discriminator 1
	lw	a4,%lo(_fsymc_level_https_mbedtls)(s1)
	li	a5,4
	bgtu	a4,a5,.L86
	.loc 1 217 134 discriminator 3
	lui	a4,%hi(_fsymf_level_https_mbedtlsdemo)
	.loc 1 217 113 discriminator 3
	lw	a4,%lo(_fsymf_level_https_mbedtlsdemo)(a4)
	bgtu	a4,a5,.L86
	.loc 1 217 172 is_stmt 1 discriminator 5
	.loc 1 217 268 is_stmt 0 discriminator 5
	call	xPortIsInsideInterrupt
.LVL101:
	.loc 1 217 172 discriminator 5
	beq	a0,zero,.L88
	.loc 1 217 297 discriminator 7
	call	xTaskGetTickCountFromISR
.LVL102:
.L144:
	.loc 1 217 328 discriminator 8
	mv	a2,a0
	.loc 1 217 172 discriminator 8
	lui	a3,%hi(.LC0)
	lui	a1,%hi(.LC3)
	lui	a0,%hi(.LC31)
	neg	a5,s0
	li	a4,217
	addi	a3,a3,%lo(.LC0)
	addi	a1,a1,%lo(.LC3)
	addi	a0,a0,%lo(.LC31)
	call	bl_printk
.LVL103:
.L86:
	.loc 1 236 9 is_stmt 1
	addi	a0,sp,192
	call	mbedtls_ssl_close_notify
.LVL104:
	j	.L27
.LVL105:
.L40:
	.loc 1 146 296 is_stmt 0 discriminator 8
	call	xTaskGetTickCount
.LVL106:
	j	.L132
.L43:
	.loc 1 150 321 discriminator 8
	call	xTaskGetTickCount
.LVL107:
	j	.L133
.LVL108:
.L48:
	.loc 1 154 13 is_stmt 1
	.loc 1 154 16 is_stmt 0
	andi	a5,s2,-129
	beq	a5,s0,.L45
	.loc 1 156 17 is_stmt 1 discriminator 1
	.loc 1 156 55 discriminator 1
	.loc 1 156 60 discriminator 1
	.loc 1 156 63 is_stmt 0 discriminator 1
	lw	a4,%lo(_fsymc_level_https_mbedtls)(s1)
	li	a5,4
	.loc 1 152 23 discriminator 1
	mv	s0,s2
	.loc 1 156 63 discriminator 1
	bgtu	a4,a5,.L27
.LVL109:
	.loc 1 156 134 discriminator 3
	lui	a4,%hi(_fsymf_level_https_mbedtlsdemo)
	.loc 1 156 113 discriminator 3
	lw	a4,%lo(_fsymf_level_https_mbedtlsdemo)(a4)
	bgtu	a4,a5,.L27
	.loc 1 156 172 is_stmt 1 discriminator 5
	.loc 1 156 273 is_stmt 0 discriminator 5
	call	xPortIsInsideInterrupt
.LVL110:
	.loc 1 156 172 discriminator 5
	beq	a0,zero,.L46
	.loc 1 156 302 discriminator 7
	call	xTaskGetTickCountFromISR
.LVL111:
.L134:
	.loc 1 156 333 discriminator 8
	mv	a2,a0
	.loc 1 156 172 discriminator 8
	lui	a3,%hi(.LC0)
	lui	a1,%hi(.LC3)
	lui	a0,%hi(.LC18)
	neg	a5,s2
	li	a4,156
	addi	a3,a3,%lo(.LC0)
	addi	a1,a1,%lo(.LC3)
	addi	a0,a0,%lo(.LC18)
	call	bl_printk
.LVL112:
	.loc 1 152 23 discriminator 8
	mv	s0,s2
.LVL113:
.L27:
	.loc 1 239 9 is_stmt 1
	addi	a0,sp,192
	call	mbedtls_ssl_session_reset
.LVL114:
	.loc 1 240 9
	li	a5,4096
	li	a0,-4096
	addi	a5,a5,-1952
	addi	a4,sp,16
	addi	a0,a0,1960
	add	a5,a5,a4
	add	a0,a5,a0
	call	mbedtls_net_free
.LVL115:
	.loc 1 242 9
	.loc 1 242 12 is_stmt 0
	beq	s0,zero,.L95
	.loc 1 244 13 is_stmt 1
	li	a2,100
	addi	a1,sp,1016
	mv	a0,s0
	call	mbedtls_strerror
.LVL116:
	.loc 1 245 13
	.loc 1 245 51
	.loc 1 245 56
	.loc 1 245 59 is_stmt 0
	lw	a4,%lo(_fsymc_level_https_mbedtls)(s1)
	li	a5,4
	bgtu	a4,a5,.L95
	.loc 1 245 130 discriminator 3
	lui	a4,%hi(_fsymf_level_https_mbedtlsdemo)
	.loc 1 245 109 discriminator 3
	lw	a4,%lo(_fsymf_level_https_mbedtlsdemo)(a4)
	bgtu	a4,a5,.L95
	.loc 1 245 168 is_stmt 1 discriminator 5
	.loc 1 245 259 is_stmt 0 discriminator 5
	call	xPortIsInsideInterrupt
.LVL117:
	.loc 1 245 168 discriminator 5
	beq	a0,zero,.L97
	.loc 1 245 288 discriminator 7
	call	xTaskGetTickCountFromISR
.LVL118:
.L147:
	.loc 1 245 319 discriminator 8
	mv	a2,a0
	.loc 1 245 168 discriminator 8
	lui	a3,%hi(.LC0)
	lui	a1,%hi(.LC3)
	lui	a0,%hi(.LC34)
	addi	a6,sp,1016
	neg	a5,s0
	li	a4,245
	addi	a3,a3,%lo(.LC0)
	addi	a1,a1,%lo(.LC3)
	addi	a0,a0,%lo(.LC34)
	call	bl_printk
.LVL119:
.L95:
	.loc 1 245 378 is_stmt 1 discriminator 11
	.loc 1 245 389 discriminator 11
	.loc 1 248 9 discriminator 11
	li	a0,10
	call	putchar
.LVL120:
	.loc 1 250 9 discriminator 11
	.loc 1 251 9 discriminator 11
	.loc 1 251 47 discriminator 11
	.loc 1 251 52 discriminator 11
	.loc 1 251 55 is_stmt 0 discriminator 11
	lw	a4,%lo(_fsymc_level_https_mbedtls)(s1)
	li	a5,2
	bgtu	a4,a5,.L99
	.loc 1 251 124 discriminator 3
	lui	a4,%hi(_fsymf_level_https_mbedtlsdemo)
	.loc 1 251 104 discriminator 3
	lw	a4,%lo(_fsymf_level_https_mbedtlsdemo)(a4)
	bgtu	a4,a5,.L99
	.loc 1 251 162 is_stmt 1 discriminator 5
	.loc 1 251 247 is_stmt 0 discriminator 5
	call	xPortIsInsideInterrupt
.LVL121:
	.loc 1 251 162 discriminator 5
	beq	a0,zero,.L100
	.loc 1 251 276 discriminator 7
	call	xTaskGetTickCountFromISR
.LVL122:
.L148:
	.loc 1 251 162 discriminator 8
	lui	a4,%hi(.LANCHOR1)
	addi	a4,a4,%lo(.LANCHOR1)
	lw	a5,0(a4)
	.loc 1 251 307 discriminator 8
	mv	a2,a0
	.loc 1 251 162 discriminator 8
	lui	a3,%hi(.LC0)
	addi	a5,a5,1
	lui	a1,%hi(.LC1)
	lui	a0,%hi(.LC35)
	sw	a5,0(a4)
	addi	a3,a3,%lo(.LC0)
	li	a4,251
	addi	a1,a1,%lo(.LC1)
	addi	a0,a0,%lo(.LC35)
	call	bl_printk
.LVL123:
.L99:
	.loc 1 152 23 discriminator 1
	li	s0,10
.LVL124:
.LBB3:
	.loc 1 255 59 discriminator 1
	li	s2,2
	.loc 1 255 128 discriminator 1
	lui	s5,%hi(_fsymf_level_https_mbedtlsdemo)
	.loc 1 255 166 discriminator 1
	lui	s6,%hi(.LC0)
	lui	s7,%hi(.LC1)
	lui	s8,%hi(.LC36)
	.loc 1 253 9 discriminator 1
	li	s4,-1
.L105:
.LVL125:
	.loc 1 255 13 is_stmt 1 discriminator 1
	.loc 1 255 51 discriminator 1
	.loc 1 255 56 discriminator 1
	.loc 1 255 59 is_stmt 0 discriminator 1
	lw	a5,%lo(_fsymc_level_https_mbedtls)(s1)
	bgtu	a5,s2,.L102
	.loc 1 255 108 discriminator 3
	lw	a5,%lo(_fsymf_level_https_mbedtlsdemo)(s5)
	bgtu	a5,s2,.L102
	.loc 1 255 166 is_stmt 1 discriminator 5
	.loc 1 255 235 is_stmt 0 discriminator 5
	call	xPortIsInsideInterrupt
.LVL126:
	.loc 1 255 166 discriminator 5
	beq	a0,zero,.L103
	.loc 1 255 264 discriminator 7
	call	xTaskGetTickCountFromISR
.LVL127:
.L149:
	.loc 1 255 295 discriminator 8
	mv	a2,a0
	.loc 1 255 166 discriminator 8
	mv	a5,s0
	li	a4,255
	addi	a3,s6,%lo(.LC0)
	addi	a1,s7,%lo(.LC1)
	addi	a0,s8,%lo(.LC36)
	call	bl_printk
.LVL128:
.L102:
	.loc 1 255 354 is_stmt 1 discriminator 11
	.loc 1 255 365 discriminator 11
	.loc 1 256 13 discriminator 11
	li	a0,1000
	.loc 1 253 59 is_stmt 0 discriminator 11
	addi	s0,s0,-1
.LVL129:
	.loc 1 256 13 discriminator 11
	call	vTaskDelay
.LVL130:
	.loc 1 253 50 is_stmt 1 discriminator 11
	.loc 1 253 34 discriminator 11
	.loc 1 253 9 is_stmt 0 discriminator 11
	bne	s0,s4,.L105
.LBE3:
	.loc 1 258 9 is_stmt 1 discriminator 1
	.loc 1 258 47 discriminator 1
	.loc 1 258 52 discriminator 1
	.loc 1 258 55 is_stmt 0 discriminator 1
	lw	a4,%lo(_fsymc_level_https_mbedtls)(s1)
	li	a5,2
	bgtu	a4,a5,.L30
	.loc 1 258 124 discriminator 3
	lui	a4,%hi(_fsymf_level_https_mbedtlsdemo)
	.loc 1 258 104 discriminator 3
	lw	a4,%lo(_fsymf_level_https_mbedtlsdemo)(a4)
	bgtu	a4,a5,.L30
	.loc 1 258 162 is_stmt 1 discriminator 5
	.loc 1 258 241 is_stmt 0 discriminator 5
	call	xPortIsInsideInterrupt
.LVL131:
	.loc 1 258 162 discriminator 5
	beq	a0,zero,.L106
	.loc 1 258 270 discriminator 7
	call	xTaskGetTickCountFromISR
.LVL132:
.L150:
	.loc 1 258 301 discriminator 8
	mv	a2,a0
	.loc 1 258 162 discriminator 8
	lui	a3,%hi(.LC0)
	lui	a1,%hi(.LC1)
	lui	a0,%hi(.LC37)
	li	a4,258
	addi	a3,a3,%lo(.LC0)
	addi	a1,a1,%lo(.LC1)
	addi	a0,a0,%lo(.LC37)
	call	bl_printk
.LVL133:
.L30:
.LBE7:
	.loc 1 133 5 is_stmt 1
.LBB8:
	.loc 1 135 9
	li	a5,4096
	addi	a4,sp,16
	li	a0,-4096
	addi	a5,a5,-1952
	add	a5,a5,a4
	addi	a0,a0,1960
	add	a0,a5,a0
	call	mbedtls_net_init
.LVL134:
	.loc 1 137 9
	.loc 1 137 47
	.loc 1 137 52
	.loc 1 137 55 is_stmt 0
	lw	a4,%lo(_fsymc_level_https_mbedtls)(s1)
	li	a5,2
	lui	s0,%hi(.LC13)
	bgtu	a4,a5,.L33
	.loc 1 137 124 discriminator 3
	lui	a4,%hi(_fsymf_level_https_mbedtlsdemo)
	.loc 1 137 104 discriminator 3
	lw	a4,%lo(_fsymf_level_https_mbedtlsdemo)(a4)
	bgtu	a4,a5,.L33
	.loc 1 137 162 is_stmt 1 discriminator 5
	.loc 1 137 248 is_stmt 0 discriminator 5
	call	xPortIsInsideInterrupt
.LVL135:
	.loc 1 137 162 discriminator 5
	beq	a0,zero,.L34
	.loc 1 137 277 discriminator 7
	call	xTaskGetTickCountFromISR
.LVL136:
.L130:
	.loc 1 137 308 discriminator 8
	mv	a2,a0
	.loc 1 137 162 discriminator 8
	lui	a3,%hi(.LC0)
	lui	a1,%hi(.LC1)
	lui	a0,%hi(.LC14)
	addi	a6,s0,%lo(.LC13)
	addi	a5,s3,%lo(.LC8)
	li	a4,137
	addi	a3,a3,%lo(.LC0)
	addi	a1,a1,%lo(.LC1)
	addi	a0,a0,%lo(.LC14)
	call	bl_printk
.LVL137:
.L33:
	.loc 1 137 384 is_stmt 1 discriminator 11
	.loc 1 137 395 discriminator 11
	.loc 1 139 9 discriminator 11
	.loc 1 139 20 is_stmt 0 discriminator 11
	li	a5,4096
	addi	a4,sp,16
	li	a0,-4096
	addi	a5,a5,-1952
	add	a5,a5,a4
	addi	a0,a0,1960
	addi	a2,s0,%lo(.LC13)
	li	a3,0
	addi	a1,s3,%lo(.LC8)
	add	a0,a5,a0
	call	mbedtls_net_connect
.LVL138:
	.loc 1 142 59 discriminator 11
	lw	a4,%lo(_fsymc_level_https_mbedtls)(s1)
	.loc 1 139 20 discriminator 11
	mv	s0,a0
.LVL139:
	.loc 1 139 12 discriminator 11
	beq	a0,zero,.L36
	.loc 1 142 13 is_stmt 1 discriminator 1
	.loc 1 142 51 discriminator 1
	.loc 1 142 56 discriminator 1
	.loc 1 142 59 is_stmt 0 discriminator 1
	li	a5,4
	bgtu	a4,a5,.L27
	.loc 1 142 130 discriminator 3
	lui	a4,%hi(_fsymf_level_https_mbedtlsdemo)
	.loc 1 142 109 discriminator 3
	lw	a4,%lo(_fsymf_level_https_mbedtlsdemo)(a4)
	bgtu	a4,a5,.L27
	.loc 1 142 168 is_stmt 1 discriminator 5
	.loc 1 142 265 is_stmt 0 discriminator 5
	call	xPortIsInsideInterrupt
.LVL140:
	.loc 1 142 168 discriminator 5
	beq	a0,zero,.L37
	.loc 1 142 294 discriminator 7
	call	xTaskGetTickCountFromISR
.LVL141:
.L131:
	.loc 1 142 325 discriminator 8
	mv	a2,a0
	.loc 1 142 168 discriminator 8
	lui	a3,%hi(.LC0)
	lui	a1,%hi(.LC3)
	lui	a0,%hi(.LC15)
	neg	a5,s0
	li	a4,142
	addi	a3,a3,%lo(.LC0)
	addi	a1,a1,%lo(.LC3)
	addi	a0,a0,%lo(.LC15)
	j	.L146
.L46:
	.loc 1 156 333 discriminator 8
	call	xTaskGetTickCount
.LVL142:
	j	.L134
.LVL143:
.L50:
	.loc 1 161 321 discriminator 8
	call	xTaskGetTickCount
.LVL144:
	j	.L135
.LVL145:
.L54:
	.loc 1 166 324 discriminator 8
	call	xTaskGetTickCount
.LVL146:
	j	.L136
.L57:
	.loc 1 169 311 discriminator 8
	call	xTaskGetTickCount
.LVL147:
	j	.L137
.L52:
	.loc 1 173 13 is_stmt 1 discriminator 1
	.loc 1 173 51 discriminator 1
	.loc 1 173 56 discriminator 1
	.loc 1 173 59 is_stmt 0 discriminator 1
	li	a5,2
	bgtu	a4,a5,.L108
	.loc 1 173 128 discriminator 3
	lui	a4,%hi(_fsymf_level_https_mbedtlsdemo)
	.loc 1 173 108 discriminator 3
	lw	a4,%lo(_fsymf_level_https_mbedtlsdemo)(a4)
	bgtu	a4,a5,.L108
	.loc 1 173 166 is_stmt 1 discriminator 5
	.loc 1 173 251 is_stmt 0 discriminator 5
	call	xPortIsInsideInterrupt
.LVL148:
	.loc 1 173 166 discriminator 5
	beq	a0,zero,.L63
	.loc 1 173 280 discriminator 7
	call	xTaskGetTickCountFromISR
.LVL149:
.L138:
	.loc 1 173 311 discriminator 8
	mv	a2,a0
	.loc 1 173 166 discriminator 8
	lui	a3,%hi(.LC0)
	lui	a1,%hi(.LC1)
	lui	a0,%hi(.LC24)
	li	a4,173
	addi	a3,a3,%lo(.LC0)
	addi	a1,a1,%lo(.LC1)
	addi	a0,a0,%lo(.LC24)
	call	bl_printk
.LVL150:
	j	.L56
.L65:
	.loc 1 176 124
	lui	a4,%hi(_fsymf_level_https_mbedtlsdemo)
	.loc 1 176 104
	lw	a3,%lo(_fsymf_level_https_mbedtlsdemo)(a4)
	mv	s4,a4
	bgtu	a3,a5,.L108
	.loc 1 176 162 is_stmt 1 discriminator 5
	.loc 1 176 244 is_stmt 0 discriminator 5
	call	xPortIsInsideInterrupt
.LVL151:
	.loc 1 176 162 discriminator 5
	beq	a0,zero,.L68
	.loc 1 176 273 discriminator 7
	call	xTaskGetTickCountFromISR
.LVL152:
.L139:
	sw	a0,12(sp)
	.loc 1 176 162 discriminator 8
	addi	a0,sp,192
	call	mbedtls_ssl_get_ciphersuite
.LVL153:
	lw	a2,12(sp)
	mv	a5,a0
	lui	s2,%hi(.LC0)
.LVL154:
	lui	s0,%hi(.LC1)
.LVL155:
	lui	a0,%hi(.LC25)
	li	a4,176
	addi	a3,s2,%lo(.LC0)
	addi	a1,s0,%lo(.LC1)
	addi	a0,a0,%lo(.LC25)
	call	bl_printk
.LVL156:
	.loc 1 176 387 is_stmt 1 discriminator 8
	.loc 1 176 398 discriminator 8
	.loc 1 178 9 discriminator 8
	.loc 1 178 47 discriminator 8
	.loc 1 178 52 discriminator 8
	.loc 1 178 55 is_stmt 0 discriminator 8
	lw	a4,%lo(_fsymc_level_https_mbedtls)(s1)
	li	a5,2
	bgtu	a4,a5,.L108
	.loc 1 178 104
	lw	a4,%lo(_fsymf_level_https_mbedtlsdemo)(s4)
	bgtu	a4,a5,.L108
	.loc 1 178 162 is_stmt 1 discriminator 5
	.loc 1 178 249 is_stmt 0 discriminator 5
	call	xPortIsInsideInterrupt
.LVL157:
	.loc 1 178 162 discriminator 5
	beq	a0,zero,.L71
	.loc 1 178 278 discriminator 7
	call	xTaskGetTickCountFromISR
.LVL158:
.L140:
	.loc 1 178 309 discriminator 8
	mv	a2,a0
	.loc 1 178 162 discriminator 8
	lui	a0,%hi(.LC26)
	li	a4,178
	addi	a3,s2,%lo(.LC0)
	addi	a1,s0,%lo(.LC1)
	addi	a0,a0,%lo(.LC26)
	call	bl_printk
.LVL159:
	j	.L108
.LVL160:
.L63:
	.loc 1 173 311 discriminator 8
	call	xTaskGetTickCount
.LVL161:
	j	.L138
.L68:
	.loc 1 176 304 discriminator 8
	call	xTaskGetTickCount
.LVL162:
	j	.L139
.LVL163:
.L71:
	.loc 1 178 309 discriminator 8
	call	xTaskGetTickCount
.LVL164:
	j	.L140
.LVL165:
.L75:
	.loc 1 188 310 discriminator 8
	call	xTaskGetTickCount
.LVL166:
	j	.L141
.L73:
	.loc 1 191 18 is_stmt 1 discriminator 1
	.loc 1 191 37 is_stmt 0 discriminator 1
	andi	a5,a0,-129
	beq	a5,s5,.L77
	.loc 1 193 17 is_stmt 1 discriminator 1
	.loc 1 193 55 discriminator 1
	.loc 1 193 60 discriminator 1
	.loc 1 193 63 is_stmt 0 discriminator 1
	lw	a4,%lo(_fsymc_level_https_mbedtls)(s1)
	li	a5,4
	bgtu	a4,a5,.L27
	.loc 1 193 134 discriminator 3
	lui	a4,%hi(_fsymf_level_https_mbedtlsdemo)
	.loc 1 193 113 discriminator 3
	lw	a4,%lo(_fsymf_level_https_mbedtlsdemo)(a4)
	bgtu	a4,a5,.L27
	.loc 1 193 172 is_stmt 1 discriminator 5
	.loc 1 193 269 is_stmt 0 discriminator 5
	call	xPortIsInsideInterrupt
.LVL167:
	.loc 1 193 172 discriminator 5
	beq	a0,zero,.L78
	.loc 1 193 298 discriminator 7
	call	xTaskGetTickCountFromISR
.LVL168:
.L142:
	.loc 1 193 329 discriminator 8
	mv	a2,a0
	.loc 1 193 172 discriminator 8
	lui	a3,%hi(.LC0)
	lui	a1,%hi(.LC3)
	lui	a0,%hi(.LC29)
	neg	a5,s0
	li	a4,193
	addi	a3,a3,%lo(.LC0)
	addi	a1,a1,%lo(.LC3)
	addi	a0,a0,%lo(.LC29)
	j	.L146
.L78:
	.loc 1 193 329 discriminator 8
	call	xTaskGetTickCount
.LVL169:
	j	.L142
.L82:
	.loc 1 198 310 discriminator 8
	call	xTaskGetTickCount
.LVL170:
	j	.L143
.LVL171:
.L88:
	.loc 1 217 328 discriminator 8
	call	xTaskGetTickCount
.LVL172:
	j	.L144
.L87:
	.loc 1 221 13 is_stmt 1
	.loc 1 221 16 is_stmt 0
	bne	a0,zero,.L90
	.loc 1 223 17 is_stmt 1 discriminator 1
	.loc 1 223 55 discriminator 1
	.loc 1 223 60 discriminator 1
	.loc 1 223 63 is_stmt 0 discriminator 1
	lw	a4,%lo(_fsymc_level_https_mbedtls)(s1)
	li	a5,2
	bgtu	a4,a5,.L86
	.loc 1 223 132 discriminator 3
	lui	a4,%hi(_fsymf_level_https_mbedtlsdemo)
	.loc 1 223 112 discriminator 3
	lw	a4,%lo(_fsymf_level_https_mbedtlsdemo)(a4)
	bgtu	a4,a5,.L86
	.loc 1 223 170 is_stmt 1 discriminator 5
	.loc 1 223 251 is_stmt 0 discriminator 5
	call	xPortIsInsideInterrupt
.LVL173:
	.loc 1 223 170 discriminator 5
	beq	a0,zero,.L91
	.loc 1 223 280 discriminator 7
	call	xTaskGetTickCountFromISR
.LVL174:
.L145:
	.loc 1 223 311 discriminator 8
	mv	a2,a0
	.loc 1 223 170 discriminator 8
	lui	a3,%hi(.LC0)
	lui	a1,%hi(.LC1)
	lui	a0,%hi(.LC32)
	li	a4,223
	addi	a3,a3,%lo(.LC0)
	addi	a1,a1,%lo(.LC1)
	addi	a0,a0,%lo(.LC32)
	call	bl_printk
.LVL175:
	j	.L86
.L91:
	.loc 1 223 311 discriminator 8
	call	xTaskGetTickCount
.LVL176:
	j	.L145
.L90:
	.loc 1 227 13 is_stmt 1
.LVL177:
	.loc 1 228 13
	mv	a1,a0
	addi	a0,s6,%lo(.LC33)
	call	printf
.LVL178:
	.loc 1 230 13
.LBB4:
	.loc 1 230 18
	.loc 1 230 29
	.loc 1 230 22 is_stmt 0
	li	s2,0
.LVL179:
.L93:
	.loc 1 232 17 is_stmt 1 discriminator 3
	.loc 1 232 28 is_stmt 0 discriminator 3
	addi	a5,sp,1016
	add	a5,a5,s2
	.loc 1 232 17 discriminator 3
	lbu	a0,0(a5)
	.loc 1 230 39 discriminator 3
	addi	s2,s2,1
.LVL180:
	.loc 1 232 17 discriminator 3
	call	putchar
.LVL181:
	.loc 1 230 38 is_stmt 1 discriminator 3
	.loc 1 230 29 discriminator 3
	.loc 1 230 13 is_stmt 0 discriminator 3
	bgt	s0,s2,.L93
	j	.L84
.LVL182:
.L111:
.LBE4:
	.loc 1 211 21
	li	s0,0
.LVL183:
	j	.L86
.LVL184:
.L97:
	.loc 1 245 319 discriminator 8
	call	xTaskGetTickCount
.LVL185:
	j	.L147
.L100:
	.loc 1 251 307 discriminator 8
	call	xTaskGetTickCount
.LVL186:
	j	.L148
.LVL187:
.L103:
.LBB5:
	.loc 1 255 295 discriminator 8
	call	xTaskGetTickCount
.LVL188:
	j	.L149
.L106:
.LBE5:
	.loc 1 258 301 discriminator 8
	call	xTaskGetTickCount
.LVL189:
	j	.L150
.LBE8:
	.cfi_endproc
.LFE22:
	.size	https_get_task, .-https_get_task
	.globl	_fsymf_info_https_mbedtlsdemo
	.section	.rodata.str1.4,"aMS",@progbits,1
	.align	2
.LC38:
	.string	"https_mbedtls.demo"
	.comm	_fsymf_level_https_mbedtlsdemo,4,4
	.align	2
.LC39:
	.string	"https_mbedtls"
	.weak	_fsymc_level_https_mbedtls
	.section	.rodata.TEST_CERTIFICATE_FILENAME,"a"
	.align	2
	.set	.LANCHOR0,. + 0
	.type	TEST_CERTIFICATE_FILENAME, @object
	.size	TEST_CERTIFICATE_FILENAME, 1675
TEST_CERTIFICATE_FILENAME:
	.ascii	"-----BEGIN CERTIFICATE-----\r\nMIIEkjCCA3qgAwIBAgIQCgFBQgAAA"
	.ascii	"VOFc2oLheynCDANBgkqhkiG9w0BAQsFADA/\r\nMSQwIgYDVQQKExtEaWdpd"
	.ascii	"GFsIFNpZ25hdHVyZSBUcnVzdCBDby4xFzAVBgNVBAMT\r\nDkRTVCBSb290I"
	.ascii	"ENBIFgzMB4XDTE2MDMxNzE2NDA0NloXDTIxMDMxNzE2NDA0Nlow\r\nSjELM"
	.ascii	"AkGA1UEBhMCVVMxFjAUBgNVBAoTDUxldCdzIEVuY3J5cHQxIzAhBgNVBAMT\r"
	.ascii	"\nGkxldCdzIEVuY3J5cHQgQXV0aG9yaXR5IFgzMIIBIjANBgkqhkiG9w0BAQ"
	.ascii	"EFAAOC\r\nAQ8AMIIBCgKCAQEAnNMM8FrlLke3cl03g7NoYzDq1zUmGSXhvb"
	.ascii	"418XCSL7e4S0EF\r\nq6meNQhY7LEqxGiHC6PjdeTm86dicbp5gWAf15Gan/"
	.ascii	"PQeGdxyGkOlZHP/uaZ6WA8\r\nSMx+yk13EiSdRxta67nsHjcAHJyse6cF6s"
	.ascii	"5K671B5TaYucv9bTyWaN8jKkKQDIZ0\r\nZ8h/pZq4UmEUEz9l6YKHy9v6Dl"
	.ascii	"b2honzhT+Xhq+w3Brvaw2VFn3EK6BlspkENnWA\r\na6xK8xuQSXgvopZPKi"
	.ascii	"AlKQTGdMDQMc2PMTiVFrqoM7hD8bEfwzB/onkxEz0tNvjj\r\n/PIzark5Mc"
	.ascii	"WvxI0NHWQWM6r6hCm21AvA2H3DkwIDAQABo4IBfTCCAXkwEgYDVR0T\r\nAQ"
	.ascii	"H/BAgwBgEB/wIBADAOBgNVHQ8BAf8EBAMCAYYwfwYIKwYBBQUHAQEEczBxMD"
	.ascii	"IG\r\nCCsGAQUFBzABhiZodHRwOi8vaXNyZy50cnVzdGlkLm9jc3AuaWRlbn"
	.ascii	"RydXN0LmNv\r\nbTA7BggrBgEFBQcwAoYvaHR0cDovL2FwcHMuaWRlbnRydX"
	.ascii	"N0LmNvbS9yb290cy9k\r\nc3Ryb290Y2F4My5wN2MwHwYDVR0jBBgwFoAUxK"
	.ascii	"expHsscfrb4UuQdf/EFWCFiRAw\r\nVAYDVR0gBE0wSzAIBgZngQwBAgEwPw"
	.ascii	"YLKwYBBAGC3xMBAQEwMDAuBggrBgEFBQcC\r\nARYiaHR0cDovL2Nwcy5yb2"
	.ascii	"90LXgxLmxldHNlbmNyeXB0Lm9yZzA8BgNVHR8ENTAz\r\nMDGgL6AthitodH"
	.ascii	"RwOi8vY3JsLmlkZW50cnVzdC5jb20vRFNUUk9PVENBWDNDUkwu\r\nY3JsMB"
	.ascii	"0GA1UdDgQWBBSoSmpjBH3duubRObemRWXv86jsoTANBgkqhkiG9w0BAQsF\r"
	.ascii	"\nAAOCAQEA3TPXEfNjWDjdGBX7CVW+dla5cEilaUcne8IkCJLxWh9KEik3JH"
	.ascii	"RRHGJo\r\nuM2VcGfl96S8TihRzZvoroed6ti6WqEBmtzw3Wodatg+VyOeph"
	.ascii	"4EYpr/1wXKtx8/\r\nwAp"
	.string	"IvJSwtmVi4MFU5aMqrSDE6ea73Mj2tcMyo5jMd6jmeWUHK8so/joWUoHOUgwu\r\nX4Po1QYz+3dszkDqMp4fklxBwXRsW10KXzPMTZ+sOPAveyxindmjkW8lGy+QsRlG\r\nPfZ+G6Z6h7mjem0Y+iWlkYcV4PIWL1iwBi8saCbGS5jN2p8M+X+Q7UNKEkROb3N6\r\nKOqkqm57TH2H3eDJAkSnh6/DNFu0Qg==\r\n-----END CERTIFICATE-----\r\n"
	.section	.sbss._fsymc_level_https_mbedtls,"aw",@nobits
	.align	2
	.type	_fsymc_level_https_mbedtls, @object
	.size	_fsymc_level_https_mbedtls, 4
_fsymc_level_https_mbedtls:
	.zero	4
	.section	.sbss.request_count.0,"aw",@nobits
	.align	2
	.set	.LANCHOR1,. + 0
	.type	request_count.0, @object
	.size	request_count.0, 4
request_count.0:
	.zero	4
	.section	.srodata.BLOG_HARD_DECLARE_DISABLE,"a"
	.align	2
	.type	BLOG_HARD_DECLARE_DISABLE, @object
	.size	BLOG_HARD_DECLARE_DISABLE, 4
BLOG_HARD_DECLARE_DISABLE:
	.zero	4
	.section	.static_blogcomponent_code.https_mbedtls,"a"
	.align	2
	.type	_fsymc_info_https_mbedtls, @object
	.size	_fsymc_info_https_mbedtls, 8
_fsymc_info_https_mbedtls:
	.word	_fsymc_level_https_mbedtls
	.word	.LC39
	.section	.static_blogfile_code.https_mbedtlsdemo,"a"
	.align	2
	.type	_fsymf_info_https_mbedtlsdemo, @object
	.size	_fsymf_info_https_mbedtlsdemo, 8
_fsymf_info_https_mbedtlsdemo:
	.word	_fsymf_level_https_mbedtlsdemo
	.word	.LC38
	.text
.Letext0:
	.file 2 "/mnt/d/GitHub/bl_iot_sdk_for_aithinker/toolchain/riscv/Linux/riscv64-unknown-elf/include/machine/_default_types.h"
	.file 3 "/mnt/d/GitHub/bl_iot_sdk_for_aithinker/toolchain/riscv/Linux/lib/gcc/riscv64-unknown-elf/10.2.0/include/stddef.h"
	.file 4 "/mnt/d/GitHub/bl_iot_sdk_for_aithinker/toolchain/riscv/Linux/riscv64-unknown-elf/include/sys/_stdint.h"
	.file 5 "/mnt/d/GitHub/bl_iot_sdk_for_aithinker/components/platform/soc/bl602/freertos_riscv_ram/portable/GCC/RISC-V/portmacro.h"
	.file 6 "/mnt/d/GitHub/bl_iot_sdk_for_aithinker/components/network/lwip/src/include/lwip/netif.h"
	.file 7 "/mnt/d/GitHub/bl_iot_sdk_for_aithinker/components/stage/blog/blog_type.h"
	.file 8 "/mnt/d/GitHub/bl_iot_sdk_for_aithinker/components/stage/blog/blog.h"
	.file 9 "/mnt/d/GitHub/bl_iot_sdk_for_aithinker/components/security/mbedtls_lts/mbedtls/include/mbedtls/bignum.h"
	.file 10 "/mnt/d/GitHub/bl_iot_sdk_for_aithinker/components/network/lwip/src/include/lwip/memp.h"
	.file 11 "/mnt/d/GitHub/bl_iot_sdk_for_aithinker/components/security/mbedtls_lts/mbedtls/include/mbedtls/ecp.h"
	.file 12 "/mnt/d/GitHub/bl_iot_sdk_for_aithinker/components/security/mbedtls_lts/mbedtls/include/mbedtls/md.h"
	.file 13 "/mnt/d/GitHub/bl_iot_sdk_for_aithinker/components/security/mbedtls_lts/mbedtls/include/mbedtls/pk.h"
	.file 14 "/mnt/d/GitHub/bl_iot_sdk_for_aithinker/components/security/mbedtls_lts/mbedtls/include/mbedtls/asn1.h"
	.file 15 "/mnt/d/GitHub/bl_iot_sdk_for_aithinker/components/security/mbedtls_lts/mbedtls/include/mbedtls/x509.h"
	.file 16 "/mnt/d/GitHub/bl_iot_sdk_for_aithinker/components/security/mbedtls_lts/mbedtls/include/mbedtls/x509_crl.h"
	.file 17 "/mnt/d/GitHub/bl_iot_sdk_for_aithinker/components/security/mbedtls_lts/mbedtls/include/mbedtls/x509_crt.h"
	.file 18 "/mnt/d/GitHub/bl_iot_sdk_for_aithinker/components/security/mbedtls_lts/mbedtls/include/mbedtls/ssl.h"
	.file 19 "/mnt/d/GitHub/bl_iot_sdk_for_aithinker/components/security/mbedtls_lts/mbedtls/include/mbedtls/net_sockets.h"
	.file 20 "/mnt/d/GitHub/bl_iot_sdk_for_aithinker/components/security/mbedtls_lts/mbedtls/include/mbedtls/sha512.h"
	.file 21 "/mnt/d/GitHub/bl_iot_sdk_for_aithinker/components/security/mbedtls_lts/mbedtls/include/mbedtls/entropy.h"
	.file 22 "/mnt/d/GitHub/bl_iot_sdk_for_aithinker/components/security/mbedtls_lts/mbedtls/include/mbedtls/aes.h"
	.file 23 "/mnt/d/GitHub/bl_iot_sdk_for_aithinker/components/security/mbedtls_lts/mbedtls/include/mbedtls/ctr_drbg.h"
	.file 24 "/mnt/d/GitHub/bl_iot_sdk_for_aithinker/toolchain/riscv/Linux/riscv64-unknown-elf/include/stdio.h"
	.file 25 "/mnt/d/GitHub/bl_iot_sdk_for_aithinker/components/platform/soc/bl602/freertos_riscv_ram/config/task.h"
	.file 26 "/mnt/d/GitHub/bl_iot_sdk_for_aithinker/components/utils/include/utils_log.h"
	.file 27 "/mnt/d/GitHub/bl_iot_sdk_for_aithinker/toolchain/riscv/Linux/riscv64-unknown-elf/include/strings.h"
	.file 28 "/mnt/d/GitHub/bl_iot_sdk_for_aithinker/toolchain/riscv/Linux/riscv64-unknown-elf/include/string.h"
	.file 29 "/mnt/d/GitHub/bl_iot_sdk_for_aithinker/components/security/mbedtls_lts/mbedtls/include/mbedtls/error.h"
	.file 30 "/mnt/d/GitHub/bl_iot_sdk_for_aithinker/toolchain/riscv/Linux/riscv64-unknown-elf/include/stdlib.h"