	.file	"looprt_test_cli.c"
	.option nopic
	.attribute arch, "rv32i2p0_m2p0_f2p0_c2p0"
	.attribute unaligned_access, 0
	.attribute stack_align, 16
	.text
.Ltext0:
	.cfi_sections	.debug_frame
	.section	.rodata.cmd_looprt_test.str1.4,"aMS",@progbits,1
	.align	2
.LC0:
	.string	"====== looprt test ======\r\n"
	.align	2
.LC1:
	.string	"struct loop_ctx size is %d\r\n"
	.align	2
.LC2:
	.string	"MSG size is %d\r\n"
	.section	.text.cmd_looprt_test,"ax",@progbits
	.align	1
	.globl	cmd_looprt_test
	.type	cmd_looprt_test, @function
cmd_looprt_test:
.LFB26:
	.file 1 "/mnt/d/GitHub/bl_iot_sdk_for_aithinker/components/sys/bloop/looprt/src/looprt_test_cli.c"
	.loc 1 14 1
	.cfi_startproc
.LVL0:
	.loc 1 15 5
	lui	a0,%hi(.LC0)
.LVL1:
	.loc 1 14 1 is_stmt 0
	addi	sp,sp,-16
	.cfi_def_cfa_offset 16
	.loc 1 15 5
	addi	a0,a0,%lo(.LC0)
	.loc 1 14 1
	sw	ra,12(sp)
	.cfi_offset 1, -4
	.loc 1 15 5
	call	puts
.LVL2:
	.loc 1 16 5 is_stmt 1
.LBB4:
.LBB5:
	.loc 1 9 5
	lui	a0,%hi(.LC1)
	li	a1,1184
	addi	a0,a0,%lo(.LC1)
	call	printf
.LVL3:
	.loc 1 10 5
	lui	a0,%hi(.LC2)
	li	a1,24
	addi	a0,a0,%lo(.LC2)
	call	printf
.LVL4:
.LBE5:
.LBE4:
	.loc 1 18 5
	.loc 1 19 1 is_stmt 0
	lw	ra,12(sp)
	.cfi_restore 1
	addi	sp,sp,16
	.cfi_def_cfa_offset 0
	.loc 1 18 5
	tail	looprt_start_auto
.LVL5:
	.cfi_endproc
.LFE26:
	.size	cmd_looprt_test, .-cmd_looprt_test
	.section	.rodata.cmd_looprt_test_status.str1.4,"aMS",@progbits,1
	.align	2
.LC3:
	.string	"====== looprt test status ======\r\n"
	.section	.text.cmd_looprt_test_status,"ax",@progbits
	.align	1
	.globl	cmd_looprt_test_status
	.type	cmd_looprt_test_status, @function
cmd_looprt_test_status:
.LFB27:
	.loc 1 22 1 is_stmt 1
	.cfi_startproc
.LVL6:
	.loc 1 23 5
	lui	a0,%hi(.LC3)
.LVL7:
	.loc 1 22 1 is_stmt 0
	addi	sp,sp,-16
	.cfi_def_cfa_offset 16
	.loc 1 23 5
	addi	a0,a0,%lo(.LC3)
	.loc 1 22 1
	sw	ra,12(sp)
	.cfi_offset 1, -4
	.loc 1 23 5
	call	puts
.LVL8:
	.loc 1 24 5 is_stmt 1
	.loc 1 25 1 is_stmt 0
	lw	ra,12(sp)
	.cfi_restore 1
	addi	sp,sp,16
	.cfi_def_cfa_offset 0
	.loc 1 24 5
	tail	looprt_evt_status_dump
.LVL9:
	.cfi_endproc
.LFE27:
	.size	cmd_looprt_test_status, .-cmd_looprt_test_status
	.section	.rodata.cmd_looprt_test_evt.str1.4,"aMS",@progbits,1
	.align	2
.LC4:
	.string	"====== looprt EVT ======\r\n"
	.section	.text.cmd_looprt_test_evt,"ax",@progbits
	.align	1
	.globl	cmd_looprt_test_evt
	.type	cmd_looprt_test_evt, @function
cmd_looprt_test_evt:
.LFB28:
	.loc 1 28 1 is_stmt 1
	.cfi_startproc
.LVL10:
	.loc 1 29 5
	lui	a0,%hi(.LC4)
.LVL11:
	.loc 1 28 1 is_stmt 0
	addi	sp,sp,-16
	.cfi_def_cfa_offset 16
	.loc 1 29 5
	addi	a0,a0,%lo(.LC4)
	.loc 1 28 1
	sw	ra,12(sp)
	.cfi_offset 1, -4
	.loc 1 29 5
	call	puts
.LVL12:
	.loc 1 30 5 is_stmt 1
	.loc 1 31 1 is_stmt 0
	lw	ra,12(sp)
	.cfi_restore 1
	.loc 1 30 5
	li	a1,0
	.loc 1 31 1
	.loc 1 30 5
	li	a0,31
	.loc 1 31 1
	addi	sp,sp,16
	.cfi_def_cfa_offset 0
	.loc 1 30 5
	tail	looprt_evt_notify_async
.LVL13:
	.cfi_endproc
.LFE28:
	.size	cmd_looprt_test_evt, .-cmd_looprt_test_evt
	.section	.rodata.cmd_looprt_test_evt_dump.str1.4,"aMS",@progbits,1
	.align	2
.LC5:
	.string	"====== looprt EVT status ======\r\n"
	.section	.text.cmd_looprt_test_evt_dump,"ax",@progbits
	.align	1
	.globl	cmd_looprt_test_evt_dump
	.type	cmd_looprt_test_evt_dump, @function
cmd_looprt_test_evt_dump:
.LFB29:
	.loc 1 34 1 is_stmt 1
	.cfi_startproc
.LVL14:
	.loc 1 35 5
	lui	a0,%hi(.LC5)
.LVL15:
	.loc 1 34 1 is_stmt 0
	addi	sp,sp,-16
	.cfi_def_cfa_offset 16
	.loc 1 35 5
	addi	a0,a0,%lo(.LC5)
	.loc 1 34 1
	sw	ra,12(sp)
	.cfi_offset 1, -4
	.loc 1 35 5
	call	puts
.LVL16:
	.loc 1 36 5 is_stmt 1
	.loc 1 37 1 is_stmt 0
	lw	ra,12(sp)
	.cfi_restore 1
	.loc 1 36 5
	li	a1,1
	.loc 1 37 1
	.loc 1 36 5
	li	a0,31
	.loc 1 37 1
	addi	sp,sp,16
	.cfi_def_cfa_offset 0
	.loc 1 36 5
	tail	looprt_evt_notify_async
.LVL17:
	.cfi_endproc
.LFE29:
	.size	cmd_looprt_test_evt_dump, .-cmd_looprt_test_evt_dump
	.section	.rodata.cmd_looprt_test_schedule_evt1.str1.4,"aMS",@progbits,1
	.align	2
.LC6:
	.string	"====== looprt Schedule EVT1 ======\r\n"
	.section	.text.cmd_looprt_test_schedule_evt1,"ax",@progbits
	.align	1
	.globl	cmd_looprt_test_schedule_evt1
	.type	cmd_looprt_test_schedule_evt1, @function
cmd_looprt_test_schedule_evt1:
.LFB30:
	.loc 1 40 1 is_stmt 1
	.cfi_startproc
.LVL18:
	.loc 1 41 5
	lui	a0,%hi(.LC6)
.LVL19:
	.loc 1 40 1 is_stmt 0
	addi	sp,sp,-16
	.cfi_def_cfa_offset 16
	.loc 1 41 5
	addi	a0,a0,%lo(.LC6)
	.loc 1 40 1
	sw	ra,12(sp)
	.cfi_offset 1, -4
	.loc 1 41 5
	call	puts
.LVL20:
	.loc 1 42 5 is_stmt 1
	.loc 1 43 1 is_stmt 0
	lw	ra,12(sp)
	.cfi_restore 1
	.loc 1 42 5
	li	a2,20480
	.loc 1 43 1
	.loc 1 42 5
	addi	a2,a2,-480
	li	a1,1
	li	a0,31
	.loc 1 43 1
	addi	sp,sp,16
	.cfi_def_cfa_offset 0
	.loc 1 42 5
	tail	looprt_evt_schedule
.LVL21:
	.cfi_endproc
.LFE30:
	.size	cmd_looprt_test_schedule_evt1, .-cmd_looprt_test_schedule_evt1
	.section	.rodata.cmd_looprt_test_schedule_evt2.str1.4,"aMS",@progbits,1
	.align	2
.LC7:
	.string	"====== looprt Schedule EVT2 ======\r\n"
	.section	.text.cmd_looprt_test_schedule_evt2,"ax",@progbits
	.align	1
	.globl	cmd_looprt_test_schedule_evt2
	.type	cmd_looprt_test_schedule_evt2, @function
cmd_looprt_test_schedule_evt2:
.LFB31:
	.loc 1 46 1 is_stmt 1
	.cfi_startproc
.LVL22:
	.loc 1 47 5
	lui	a0,%hi(.LC7)
.LVL23:
	.loc 1 46 1 is_stmt 0
	addi	sp,sp,-16
	.cfi_def_cfa_offset 16
	.loc 1 47 5
	addi	a0,a0,%lo(.LC7)
	.loc 1 46 1
	sw	ra,12(sp)
	.cfi_offset 1, -4
	.loc 1 47 5
	call	puts
.LVL24:
	.loc 1 48 5 is_stmt 1
	.loc 1 49 1 is_stmt 0
	lw	ra,12(sp)
	.cfi_restore 1
	.loc 1 48 5
	li	a2,8192
	.loc 1 49 1
	.loc 1 48 5
	addi	a2,a2,1808
	li	a1,1
	li	a0,31
	.loc 1 49 1
	addi	sp,sp,16
	.cfi_def_cfa_offset 0
	.loc 1 48 5
	tail	looprt_evt_schedule
.LVL25:
	.cfi_endproc
.LFE31:
	.size	cmd_looprt_test_schedule_evt2, .-cmd_looprt_test_schedule_evt2
	.section	.text.looprt_test_cli_init,"ax",@progbits
	.align	1
	.globl	looprt_test_cli_init
	.type	looprt_test_cli_init, @function
looprt_test_cli_init:
.LFB32:
	.loc 1 62 1 is_stmt 1
	.cfi_startproc
	.loc 1 67 5
	.loc 1 68 1 is_stmt 0
	li	a0,0
	ret
	.cfi_endproc
.LFE32:
	.size	looprt_test_cli_init, .-looprt_test_cli_init
	.section	.rodata.str1.4,"aMS",@progbits,1
	.align	2
.LC8:
	.string	"looprt"
	.align	2
.LC9:
	.string	"looprt based on bloop"
	.align	2
.LC10:
	.string	"looprt_status"
	.align	2
.LC11:
	.string	"looprt_evt"
	.align	2
.LC12:
	.string	"looprt notify event"
	.align	2
.LC13:
	.string	"looprt_evt_status"
	.align	2
.LC14:
	.string	"looprt evt to dump"
	.align	2
.LC15:
	.string	"looprt_schedule1"
	.align	2
.LC16:
	.string	"looprt schedule evt 20s"
	.align	2
.LC17:
	.string	"looprt_schedule2"
	.align	2
.LC18:
	.string	"looprt schedule evt 10s"
	.section	.static_cli_cmds,"a"
	.align	2
	.type	cmds_user, @object
	.size	cmds_user, 72
cmds_user:
	.word	.LC8
	.word	.LC9
	.word	cmd_looprt_test
	.word	.LC10
	.word	.LC9
	.word	cmd_looprt_test_status
	.word	.LC11
	.word	.LC12
	.word	cmd_looprt_test_evt
	.word	.LC13
	.word	.LC14
	.word	cmd_looprt_test_evt_dump
	.word	.LC15
	.word	.LC16
	.word	cmd_looprt_test_schedule_evt1
	.word	.LC17
	.word	.LC18
	.word	cmd_looprt_test_schedule_evt2
	.text
.Letext0:
	.file 2 "/mnt/d/GitHub/bl_iot_sdk_for_aithinker/components/stage/cli/cli/include/cli.h"
	.file 3 "/mnt/d/GitHub/bl_iot_sdk_for_aithinker/toolchain/riscv/Linux/riscv64-unknown-elf/include/stdio.h"
	.file 4 "/mnt/d/GitHub/bl_iot_sdk_for_aithinker/components/sys/bloop/looprt/include/looprt.h"