	.file	"fdt_wip.c"
	.option nopic
	.attribute arch, "rv32i2p0_m2p0_f2p0_c2p0"
	.attribute unaligned_access, 0
	.attribute stack_align, 16
	.text
.Ltext0:
	.cfi_sections	.debug_frame
	.section	.text.fdt_setprop_inplace_namelen_partial,"ax",@progbits
	.align	1
	.globl	fdt_setprop_inplace_namelen_partial
	.type	fdt_setprop_inplace_namelen_partial, @function
fdt_setprop_inplace_namelen_partial:
.LFB40:
	.file 1 "/mnt/d/GitHub/bl_iot_sdk_for_aithinker/components/stage/blfdt/src/fdt_wip.c"
	.loc 1 62 1
	.cfi_startproc
.LVL0:
	.loc 1 63 5
	.loc 1 64 5
	.loc 1 66 5
	.loc 1 62 1 is_stmt 0
	addi	sp,sp,-32
	.cfi_def_cfa_offset 32
.LVL1:
.LBB10:
.LBB11:
	.file 2 "/mnt/d/GitHub/bl_iot_sdk_for_aithinker/components/stage/blfdt/inc/libfdt.h"
	.loc 2 723 5 is_stmt 1
.LBE11:
.LBE10:
	.loc 1 62 1 is_stmt 0
	sw	s0,24(sp)
	.cfi_offset 8, -8
	mv	s0,a4
.LBB14:
.LBB12:
	.loc 2 723 31
	addi	a4,sp,12
.LVL2:
.LBE12:
.LBE14:
	.loc 1 62 1
	sw	s1,20(sp)
	sw	s2,16(sp)
	sw	ra,28(sp)
	.cfi_offset 9, -12
	.cfi_offset 18, -16
	.cfi_offset 1, -4
	.loc 1 62 1
	mv	s2,a5
	mv	s1,a6
.LBB15:
.LBB13:
	.loc 2 723 31
	call	fdt_getprop_namelen
.LVL3:
.LBE13:
.LBE15:
	.loc 1 68 5 is_stmt 1
	lw	a3,12(sp)
	.loc 1 68 8 is_stmt 0
	bne	a0,zero,.L2
	.loc 1 69 9 is_stmt 1
	.loc 1 69 16 is_stmt 0
	mv	a0,a3
.LVL4:
.L1:
	.loc 1 76 1
	lw	ra,28(sp)
	.cfi_remember_state
	.cfi_restore 1
	lw	s0,24(sp)
	.cfi_restore 8
.LVL5:
	lw	s1,20(sp)
	.cfi_restore 9
.LVL6:
	lw	s2,16(sp)
	.cfi_restore 18
.LVL7:
	addi	sp,sp,32
	.cfi_def_cfa_offset 0
	jr	ra
.LVL8:
.L2:
	.cfi_restore_state
	.loc 1 71 24
	add	a5,s1,s0
	mv	a4,a0
	.loc 1 71 5 is_stmt 1
	.loc 1 72 16 is_stmt 0
	li	a0,-3
.LVL9:
	.loc 1 71 8
	bgtu	a5,a3,.L1
	.loc 1 74 5 is_stmt 1
	mv	a2,s1
	mv	a1,s2
	add	a0,a4,s0
	call	memcpy
.LVL10:
	.loc 1 75 5
	.loc 1 75 12 is_stmt 0
	li	a0,0
	j	.L1
	.cfi_endproc
.LFE40:
	.size	fdt_setprop_inplace_namelen_partial, .-fdt_setprop_inplace_namelen_partial
	.section	.text.fdt_setprop_inplace,"ax",@progbits
	.align	1
	.globl	fdt_setprop_inplace
	.type	fdt_setprop_inplace, @function
fdt_setprop_inplace:
.LFB41:
	.loc 1 80 1 is_stmt 1
	.cfi_startproc
.LVL11:
	.loc 1 81 5
	.loc 1 82 5
	.loc 1 84 5
	.loc 1 80 1 is_stmt 0
	addi	sp,sp,-64
	.cfi_def_cfa_offset 64
	sw	s3,44(sp)
	.cfi_offset 19, -20
	mv	s3,a3
	.loc 1 84 15
	addi	a3,sp,28
.LVL12:
	.loc 1 80 1
	sw	s0,56(sp)
	sw	s1,52(sp)
	sw	s2,48(sp)
	sw	s4,40(sp)
	sw	ra,60(sp)
	.cfi_offset 8, -8
	.cfi_offset 9, -12
	.cfi_offset 18, -16
	.cfi_offset 20, -24
	.cfi_offset 1, -4
	.loc 1 80 1
	mv	s1,a0
	mv	s2,a1
	mv	s0,a2
	mv	s4,a4
	.loc 1 84 15
	call	fdt_getprop
.LVL13:
	.loc 1 85 5 is_stmt 1
	lw	a6,28(sp)
	.loc 1 85 8 is_stmt 0
	bne	a0,zero,.L7
	.loc 1 86 9 is_stmt 1
	.loc 1 86 16 is_stmt 0
	mv	a0,a6
.LVL14:
.L6:
	.loc 1 94 1
	lw	ra,60(sp)
	.cfi_remember_state
	.cfi_restore 1
	lw	s0,56(sp)
	.cfi_restore 8
.LVL15:
	lw	s1,52(sp)
	.cfi_restore 9
.LVL16:
	lw	s2,48(sp)
	.cfi_restore 18
.LVL17:
	lw	s3,44(sp)
	.cfi_restore 19
.LVL18:
	lw	s4,40(sp)
	.cfi_restore 20
.LVL19:
	addi	sp,sp,64
	.cfi_def_cfa_offset 0
	jr	ra
.LVL20:
.L7:
	.cfi_restore_state
	.loc 1 88 5 is_stmt 1
	.loc 1 88 8 is_stmt 0
	sw	a6,12(sp)
	.loc 1 89 16
	li	a0,-3
.LVL21:
	.loc 1 88 8
	bne	a6,s4,.L6
	.loc 1 91 5 is_stmt 1
	.loc 1 92 28 is_stmt 0
	mv	a0,s0
	call	strlen
.LVL22:
	.loc 1 91 12
	lw	a6,12(sp)
	.loc 1 92 28
	mv	a3,a0
	.loc 1 91 12
	mv	a5,s3
	li	a4,0
	mv	a2,s0
	mv	a1,s2
	mv	a0,s1
	call	fdt_setprop_inplace_namelen_partial
.LVL23:
	j	.L6
	.cfi_endproc
.LFE41:
	.size	fdt_setprop_inplace, .-fdt_setprop_inplace
	.section	.text.fdt_nop_property,"ax",@progbits
	.align	1
	.globl	fdt_nop_property
	.type	fdt_nop_property, @function
fdt_nop_property:
.LFB43:
	.loc 1 105 1 is_stmt 1
	.cfi_startproc
.LVL24:
	.loc 1 106 5
	.loc 1 107 5
	.loc 1 109 5
	.loc 1 105 1 is_stmt 0
	addi	sp,sp,-32
	.cfi_def_cfa_offset 32
.LVL25:
.LBB20:
.LBB21:
	.loc 2 665 5 is_stmt 1
	.loc 2 666 9 is_stmt 0
	addi	a3,sp,12
.LVL26:
.LBE21:
.LBE20:
	.loc 1 105 1
	sw	ra,28(sp)
	.cfi_offset 1, -4
.LBB23:
.LBB22:
	.loc 2 666 9
	call	fdt_get_property
.LVL27:
.LBE22:
.LBE23:
	.loc 1 110 5 is_stmt 1
	lw	a5,12(sp)
	.loc 1 110 8 is_stmt 0
	bne	a0,zero,.L12
	.loc 1 111 9 is_stmt 1
	.loc 1 111 16 is_stmt 0
	mv	a0,a5
.LVL28:
.L11:
	.loc 1 116 1
	lw	ra,28(sp)
	.cfi_remember_state
	.cfi_restore 1
	addi	sp,sp,32
	.cfi_def_cfa_offset 0
	jr	ra
.LVL29:
.L12:
	.cfi_restore_state
	.loc 1 113 5 is_stmt 1
	.loc 1 113 31 is_stmt 0
	addi	a5,a5,12
.LVL30:
.LBB24:
.LBB25:
	.loc 1 98 5 is_stmt 1
	.loc 1 100 5
	.loc 1 100 48 is_stmt 0
	add	a5,a0,a5
.LVL31:
	.loc 1 101 12
	li	a4,67108864
.LVL32:
.L14:
	.loc 1 100 21 is_stmt 1
	.loc 1 100 5 is_stmt 0
	bltu	a0,a5,.L15
.LBE25:
.LBE24:
	.loc 1 115 12
	li	a0,0
.LVL33:
	j	.L11
.LVL34:
.L15:
.LBB28:
.LBB26:
	.loc 1 101 9 is_stmt 1
.LBE26:
.LBE28:
	.file 3 "/mnt/d/GitHub/bl_iot_sdk_for_aithinker/components/stage/blfdt/inc/libfdt_env.h"
	.loc 3 97 5
.LBB29:
.LBB27:
	.loc 1 101 12 is_stmt 0
	sw	a4,0(a0)
	.loc 1 100 56 is_stmt 1
	.loc 1 100 57 is_stmt 0
	addi	a0,a0,4
.LVL35:
	j	.L14
.LBE27:
.LBE29:
	.cfi_endproc
.LFE43:
	.size	fdt_nop_property, .-fdt_nop_property
	.section	.text.fdt_node_end_offset_,"ax",@progbits
	.align	1
	.globl	fdt_node_end_offset_
	.type	fdt_node_end_offset_, @function
fdt_node_end_offset_:
.LFB44:
	.loc 1 119 1 is_stmt 1
	.cfi_startproc
.LVL36:
	.loc 1 120 5
	.loc 1 119 1 is_stmt 0
	addi	sp,sp,-32
	.cfi_def_cfa_offset 32
	sw	s0,24(sp)
	sw	ra,28(sp)
	.cfi_offset 8, -8
	.cfi_offset 1, -4
	.loc 1 119 1
	mv	s0,a0
	.loc 1 120 9
	sw	zero,12(sp)
	.loc 1 122 5 is_stmt 1
.LVL37:
.L18:
	.loc 1 122 11
	blt	a1,zero,.L17
	.loc 1 122 26 is_stmt 0 discriminator 1
	lw	a5,12(sp)
	bge	a5,zero,.L20
.L17:
	.loc 1 126 1
	lw	ra,28(sp)
	.cfi_remember_state
	.cfi_restore 1
	lw	s0,24(sp)
	.cfi_restore 8
.LVL38:
	mv	a0,a1
	addi	sp,sp,32
	.cfi_def_cfa_offset 0
	jr	ra
.LVL39:
.L20:
	.cfi_restore_state
	.loc 1 123 9 is_stmt 1
	.loc 1 123 18 is_stmt 0
	addi	a2,sp,12
	mv	a0,s0
	call	fdt_next_node
.LVL40:
	mv	a1,a0
.LVL41:
	j	.L18
	.cfi_endproc
.LFE44:
	.size	fdt_node_end_offset_, .-fdt_node_end_offset_
	.section	.text.fdt_nop_node,"ax",@progbits
	.align	1
	.globl	fdt_nop_node
	.type	fdt_nop_node, @function
fdt_nop_node:
.LFB45:
	.loc 1 129 1 is_stmt 1
	.cfi_startproc
.LVL42:
	.loc 1 130 5
	.loc 1 132 5
	.loc 1 129 1 is_stmt 0
	addi	sp,sp,-16
	.cfi_def_cfa_offset 16
	sw	s0,8(sp)
	sw	s1,4(sp)
	sw	s2,0(sp)
	sw	ra,12(sp)
	.cfi_offset 8, -8
	.cfi_offset 9, -12
	.cfi_offset 18, -16
	.cfi_offset 1, -4
	.loc 1 129 1
	mv	s2,a0
	mv	s1,a1
	.loc 1 132 17
	call	fdt_node_end_offset_
.LVL43:
	mv	s0,a0
.LVL44:
	.loc 1 133 5 is_stmt 1
	.loc 1 133 8 is_stmt 0
	blt	a0,zero,.L23
	.loc 1 136 5 is_stmt 1
.LVL45:
.LBB34:
.LBB35:
	.loc 2 152 5
	.loc 2 152 31 is_stmt 0
	li	a2,0
	mv	a1,s1
	mv	a0,s2
	call	fdt_offset_ptr
.LVL46:
.LBE35:
.LBE34:
	.loc 1 136 5
	sub	s0,s0,s1
.LVL47:
.LBB36:
.LBB37:
	.loc 1 98 5 is_stmt 1
	.loc 1 100 5
	.loc 1 100 48 is_stmt 0
	add	s0,a0,s0
.LVL48:
	.loc 1 101 12
	li	a5,67108864
.LVL49:
.L25:
	.loc 1 100 21 is_stmt 1
	.loc 1 100 5 is_stmt 0
	bltu	a0,s0,.L26
.LBE37:
.LBE36:
	.loc 1 138 12
	li	s0,0
.LVL50:
.L23:
	.loc 1 139 1
	lw	ra,12(sp)
	.cfi_remember_state
	.cfi_restore 1
	mv	a0,s0
	lw	s0,8(sp)
	.cfi_restore 8
	lw	s1,4(sp)
	.cfi_restore 9
.LVL51:
	lw	s2,0(sp)
	.cfi_restore 18
.LVL52:
	addi	sp,sp,16
	.cfi_def_cfa_offset 0
	jr	ra
.LVL53:
.L26:
	.cfi_restore_state
.LBB40:
.LBB38:
	.loc 1 101 9 is_stmt 1
.LBE38:
.LBE40:
	.loc 3 97 5
.LBB41:
.LBB39:
	.loc 1 101 12 is_stmt 0
	sw	a5,0(a0)
	.loc 1 100 56 is_stmt 1
	.loc 1 100 57 is_stmt 0
	addi	a0,a0,4
.LVL54:
	j	.L25
.LBE39:
.LBE41:
	.cfi_endproc
.LFE45:
	.size	fdt_nop_node, .-fdt_nop_node
	.text
.Letext0:
	.file 4 "/mnt/d/GitHub/bl_iot_sdk_for_aithinker/toolchain/riscv/Linux/lib/gcc/riscv64-unknown-elf/10.2.0/include/stdint-gcc.h"
	.file 5 "/mnt/d/GitHub/bl_iot_sdk_for_aithinker/components/stage/blfdt/inc/fdt.h"
	.file 6 "/mnt/d/GitHub/bl_iot_sdk_for_aithinker/toolchain/riscv/Linux/riscv64-unknown-elf/include/string.h"