	.file	"fdt_rw.c"
	.option nopic
	.attribute arch, "rv32i2p0_m2p0_f2p0_c2p0"
	.attribute unaligned_access, 0
	.attribute stack_align, 16
	.text
.Ltext0:
	.cfi_sections	.debug_frame
	.section	.text.cpu_to_fdt32,"ax",@progbits
	.align	1
	.type	cpu_to_fdt32, @function
cpu_to_fdt32:
.LFB4:
	.file 1 "/mnt/d/GitHub/bl_iot_sdk_for_aithinker/components/stage/blfdt/inc/libfdt_env.h"
	.loc 1 96 1
	.cfi_startproc
.LVL0:
	.loc 1 97 5
	.loc 1 97 211 is_stmt 0
	srli	a4,a0,24
	.loc 1 97 12
	slli	a5,a0,24
	or	a5,a5,a4
	.loc 1 97 111
	srli	a4,a0,8
	andi	a4,a4,0xff
	.loc 1 97 162
	srli	a0,a0,16
.LVL1:
	.loc 1 97 116
	slli	a4,a4,16
	.loc 1 97 162
	andi	a0,a0,0xff
	.loc 1 97 12
	or	a5,a5,a4
	.loc 1 97 167
	slli	a0,a0,8
	.loc 1 98 1
	or	a0,a5,a0
	ret
	.cfi_endproc
.LFE4:
	.size	cpu_to_fdt32, .-cpu_to_fdt32
	.section	.text.cpu_to_fdt64,"ax",@progbits
	.align	1
	.type	cpu_to_fdt64, @function
cpu_to_fdt64:
.LFB6:
	.loc 1 105 1 is_stmt 1
	.cfi_startproc
.LVL2:
	.loc 1 106 5
	.loc 1 106 111 is_stmt 0
	srli	a4,a0,8
	.loc 1 106 76
	andi	a4,a4,0xff
	.loc 1 106 12
	slli	a3,a0,24
	.loc 1 106 116
	slli	a4,a4,16
	.loc 1 106 12
	or	a3,a3,a4
	.loc 1 106 162
	srli	a4,a0,16
	.loc 1 106 127
	andi	a4,a4,0xff
	.loc 1 106 167
	slli	a4,a4,8
	.loc 1 106 380
	srli	a5,a1,24
	.loc 1 106 12
	or	a3,a3,a4
	.loc 1 106 178
	srli	a4,a0,24
	.loc 1 106 269
	slli	a0,a1,24
.LVL3:
	.loc 1 106 12
	or	a0,a5,a0
	.loc 1 106 315
	srli	a5,a1,8
	.loc 1 106 280
	andi	a5,a5,0xff
	.loc 1 106 320
	slli	a5,a5,16
	.loc 1 106 12
	or	a0,a0,a5
	.loc 1 106 366
	srli	a5,a1,16
	.loc 1 106 331
	andi	a5,a5,0xff
	.loc 1 106 371
	slli	a5,a5,8
	.loc 1 107 1
	or	a0,a0,a5
	or	a1,a3,a4
	ret
	.cfi_endproc
.LFE6:
	.size	cpu_to_fdt64, .-cpu_to_fdt64
	.section	.text.fdt32_ld,"ax",@progbits
	.align	1
	.type	fdt32_ld, @function
fdt32_ld:
.LFB8:
	.file 2 "/mnt/d/GitHub/bl_iot_sdk_for_aithinker/components/stage/blfdt/inc/libfdt.h"
	.loc 2 165 1 is_stmt 1
	.cfi_startproc
.LVL4:
	.loc 2 166 5
	.loc 2 168 5
	.loc 2 168 13 is_stmt 0
	lbu	a5,0(a0)
	.loc 2 169 12
	lbu	a4,1(a0)
	.loc 2 168 29
	slli	a5,a5,24
	.loc 2 169 28
	slli	a4,a4,16
	.loc 2 169 9
	or	a5,a5,a4
	.loc 2 171 13
	lbu	a4,3(a0)
	.loc 2 170 12
	lbu	a0,2(a0)
.LVL5:
	.loc 2 171 9
	or	a5,a5,a4
	.loc 2 170 28
	slli	a0,a0,8
	.loc 2 172 1
	or	a0,a5,a0
	ret
	.cfi_endproc
.LFE8:
	.size	fdt32_ld, .-fdt32_ld
	.section	.text.fdt_blocks_misordered_,"ax",@progbits
	.align	1
	.type	fdt_blocks_misordered_, @function
fdt_blocks_misordered_:
.LFB40:
	.file 3 "/mnt/d/GitHub/bl_iot_sdk_for_aithinker/components/stage/blfdt/src/fdt_rw.c"
	.loc 3 60 1 is_stmt 1
	.cfi_startproc
.LVL6:
	.loc 3 61 5
	.loc 3 60 1 is_stmt 0
	addi	sp,sp,-32
	.cfi_def_cfa_offset 32
	sw	s1,20(sp)
	.cfi_offset 9, -12
	mv	s1,a0
	.loc 3 61 15
	addi	a0,a0,16
.LVL7:
	.loc 3 60 1
	sw	s0,24(sp)
	sw	s3,12(sp)
	sw	ra,28(sp)
	sw	s2,16(sp)
	sw	s4,8(sp)
	.cfi_offset 8, -8
	.cfi_offset 19, -20
	.cfi_offset 1, -4
	.cfi_offset 18, -16
	.cfi_offset 20, -24
	.loc 3 60 1
	mv	s0,a1
	mv	s3,a2
	.loc 3 61 15
	call	fdt32_ld
.LVL8:
	.loc 3 66 9
	li	a5,39
	bleu	a0,a5,.L6
	mv	s2,a0
	.loc 3 62 15
	addi	a0,s1,8
	call	fdt32_ld
.LVL9:
	.loc 3 63 80
	add	a1,s0,s2
	.loc 3 62 15
	mv	s4,a0
	.loc 3 66 9
	li	s0,1
.LVL10:
	.loc 3 62 9
	bltu	a0,a1,.L4
	.loc 3 64 15
	addi	a0,s1,12
	call	fdt32_ld
.LVL11:
	.loc 3 65 79
	add	s3,s3,s4
.LVL12:
	.loc 3 64 15
	mv	s2,a0
	.loc 3 64 9
	bltu	a0,s3,.L4
	.loc 3 66 15 discriminator 2
	addi	a0,s1,4
	call	fdt32_ld
.LVL13:
	mv	s0,a0
	.loc 3 67 84 discriminator 2
	addi	a0,s1,32
	call	fdt32_ld
.LVL14:
	.loc 3 67 80 discriminator 2
	add	s2,s2,a0
	.loc 3 66 9 discriminator 2
	sltu	s0,s0,s2
.L4:
	.loc 3 68 1
	lw	ra,28(sp)
	.cfi_remember_state
	.cfi_restore 1
	mv	a0,s0
	lw	s0,24(sp)
	.cfi_restore 8
	lw	s1,20(sp)
	.cfi_restore 9
.LVL15:
	lw	s2,16(sp)
	.cfi_restore 18
	lw	s3,12(sp)
	.cfi_restore 19
	lw	s4,8(sp)
	.cfi_restore 20
	addi	sp,sp,32
	.cfi_def_cfa_offset 0
	jr	ra
.LVL16:
.L6:
	.cfi_restore_state
	.loc 3 66 9
	li	s0,1
.LVL17:
	j	.L4
	.cfi_endproc
.LFE40:
	.size	fdt_blocks_misordered_, .-fdt_blocks_misordered_
	.section	.text.fdt_splice_,"ax",@progbits
	.align	1
	.type	fdt_splice_, @function
fdt_splice_:
.LFB43:
	.loc 3 98 1 is_stmt 1
	.cfi_startproc
.LVL18:
	.loc 3 99 5
	.loc 3 98 1 is_stmt 0
	addi	sp,sp,-48
	.cfi_def_cfa_offset 48
	sw	s1,36(sp)
	.cfi_offset 9, -12
	mv	s1,a0
.LBB41:
.LBB42:
	.loc 3 94 14
	addi	a0,a0,12
.LVL19:
.LBE42:
.LBE41:
	.loc 3 98 1
	sw	ra,44(sp)
	sw	s0,40(sp)
	sw	s2,32(sp)
	sw	s3,28(sp)
	sw	s4,24(sp)
	.cfi_offset 1, -4
	.cfi_offset 8, -8
	.cfi_offset 18, -16
	.cfi_offset 19, -20
	.cfi_offset 20, -24
	mv	s2,a1
.LVL20:
	.loc 3 100 5 is_stmt 1
.LBB45:
.LBB43:
	.loc 3 94 5
.LBE43:
.LBE45:
	.loc 3 98 1 is_stmt 0
	mv	s3,a2
	mv	s4,a3
	sw	s5,20(sp)
	.cfi_offset 21, -28
.LBB46:
.LBB44:
	.loc 3 94 14
	call	fdt32_ld
.LVL21:
	mv	s0,a0
	.loc 3 94 82
	addi	a0,s1,32
	call	fdt32_ld
.LVL22:
	.loc 3 94 78
	add	s0,s0,a0
.LBE44:
.LBE46:
	.loc 3 100 11
	add	s0,s1,s0
.LVL23:
	.loc 3 102 5 is_stmt 1
	.loc 3 103 16 is_stmt 0
	li	a0,-4
	.loc 3 102 8
	blt	s3,zero,.L10
	.loc 3 102 35 discriminator 1
	add	a1,s2,s3
	.loc 3 102 28 discriminator 1
	sw	a1,12(sp)
	.loc 3 103 16 discriminator 1
	li	a0,-4
	.loc 3 102 28 discriminator 1
	bgtu	a1,s0,.L10
	.loc 3 104 5 is_stmt 1
	.loc 3 104 8 is_stmt 0
	bltu	s2,s1,.L10
	.loc 3 104 45 discriminator 1
	sub	s5,s4,s3
	add	s5,s0,s5
	.loc 3 104 27 discriminator 1
	bltu	s5,s1,.L10
	.loc 3 106 5 is_stmt 1
	.loc 3 106 52 is_stmt 0
	addi	a0,s1,4
	call	fdt32_ld
.LVL24:
	.loc 3 106 48
	add	s1,s1,a0
.LVL25:
	.loc 3 107 16
	li	a0,-3
	.loc 3 106 8
	bgtu	s5,s1,.L10
	.loc 3 108 5 is_stmt 1
	lw	a1,12(sp)
	.loc 3 108 41 is_stmt 0
	sub	s0,s0,s2
.LVL26:
	.loc 3 108 5
	sub	a2,s0,s3
	add	a0,s2,s4
	call	memmove
.LVL27:
	.loc 3 109 5 is_stmt 1
	.loc 3 109 12 is_stmt 0
	li	a0,0
.L10:
	.loc 3 110 1
	lw	ra,44(sp)
	.cfi_restore 1
	lw	s0,40(sp)
	.cfi_restore 8
	lw	s1,36(sp)
	.cfi_restore 9
	lw	s2,32(sp)
	.cfi_restore 18
.LVL28:
	lw	s3,28(sp)
	.cfi_restore 19
.LVL29:
	lw	s4,24(sp)
	.cfi_restore 20
.LVL30:
	lw	s5,20(sp)
	.cfi_restore 21
	addi	sp,sp,48
	.cfi_def_cfa_offset 0
	jr	ra
	.cfi_endproc
.LFE43:
	.size	fdt_splice_, .-fdt_splice_
	.section	.text.fdt_splice_mem_rsv_,"ax",@progbits
	.align	1
	.type	fdt_splice_mem_rsv_, @function
fdt_splice_mem_rsv_:
.LFB44:
	.loc 3 114 1 is_stmt 1
	.cfi_startproc
.LVL31:
	.loc 3 115 5
	.loc 3 116 5
	.loc 3 117 5
	.loc 3 114 1 is_stmt 0
	addi	sp,sp,-32
	.cfi_def_cfa_offset 32
	sw	s0,24(sp)
	sw	s3,12(sp)
	.cfi_offset 8, -8
	.cfi_offset 19, -20
	mv	s0,a3
	mv	s3,a2
	.loc 3 117 11
	slli	a3,a3,4
.LVL32:
	slli	a2,a2,4
.LVL33:
	.loc 3 114 1
	sw	s1,20(sp)
	sw	s2,16(sp)
	sw	ra,28(sp)
	.cfi_offset 9, -12
	.cfi_offset 18, -16
	.cfi_offset 1, -4
	.loc 3 114 1
	mv	s1,a0
	.loc 3 117 11
	call	fdt_splice_
.LVL34:
	mv	s2,a0
.LVL35:
	.loc 3 118 5 is_stmt 1
	.loc 3 118 8 is_stmt 0
	bne	a0,zero,.L18
	.loc 3 115 23
	sub	s0,s0,s3
.LVL36:
	.loc 3 120 34
	addi	a0,s1,8
.LVL37:
	call	fdt32_ld
.LVL38:
	.loc 3 115 31
	slli	s0,s0,4
.LVL39:
	.loc 3 120 5 is_stmt 1
.LBB51:
.LBB52:
	.loc 2 268 69
	.loc 2 268 121
	.loc 2 268 143 is_stmt 0
	add	a0,s0,a0
.LVL40:
	call	cpu_to_fdt32
.LVL41:
	.loc 2 268 141
	sw	a0,8(s1)
.LVL42:
.LBE52:
.LBE51:
	.loc 3 121 5 is_stmt 1
	.loc 3 121 35 is_stmt 0
	addi	a0,s1,12
	call	fdt32_ld
.LVL43:
.LBB53:
.LBB54:
	.loc 2 269 70 is_stmt 1
	.loc 2 269 122
	.loc 2 269 145 is_stmt 0
	add	a0,s0,a0
.LVL44:
	call	cpu_to_fdt32
.LVL45:
	.loc 2 269 143
	sw	a0,12(s1)
.LVL46:
.L18:
.LBE54:
.LBE53:
	.loc 3 123 1
	lw	ra,28(sp)
	.cfi_restore 1
	lw	s0,24(sp)
	.cfi_restore 8
	lw	s1,20(sp)
	.cfi_restore 9
.LVL47:
	lw	s3,12(sp)
	.cfi_restore 19
.LVL48:
	mv	a0,s2
	lw	s2,16(sp)
	.cfi_restore 18
.LVL49:
	addi	sp,sp,32
	.cfi_def_cfa_offset 0
	jr	ra
	.cfi_endproc
.LFE44:
	.size	fdt_splice_mem_rsv_, .-fdt_splice_mem_rsv_
	.section	.text.fdt_rw_probe_,"ax",@progbits
	.align	1
	.type	fdt_rw_probe_, @function
fdt_rw_probe_:
.LFB41:
	.loc 3 71 1 is_stmt 1
	.cfi_startproc
.LVL50:
.LBB63:
	.loc 3 72 7
	.loc 3 72 17
.LBE63:
	.loc 3 71 1 is_stmt 0
	addi	sp,sp,-16
	.cfi_def_cfa_offset 16
	sw	s0,8(sp)
	sw	ra,12(sp)
	sw	s1,4(sp)
	.cfi_offset 8, -8
	.cfi_offset 1, -4
	.cfi_offset 9, -12
	.loc 3 71 1
	mv	s0,a0
.LBB64:
	.loc 3 72 29
	call	fdt_ro_probe_
.LVL51:
	.loc 3 72 20
	bne	a0,zero,.L21
.LVL52:
.LBE64:
.LBB65:
.LBB66:
	.loc 3 72 69 is_stmt 1
	.loc 3 74 5
	.loc 3 74 11 is_stmt 0
	addi	a0,s0,20
.LVL53:
	call	fdt32_ld
.LVL54:
	mv	s1,a0
	.loc 3 74 8
	li	a5,16
	.loc 3 75 16
	li	a0,-10
	.loc 3 74 8
	bleu	s1,a5,.L21
	.loc 3 76 5 is_stmt 1
	.loc 3 77 22 is_stmt 0
	addi	a0,s0,36
	call	fdt32_ld
.LVL55:
	mv	a2,a0
	.loc 3 76 9
	li	a1,16
	mv	a0,s0
	call	fdt_blocks_misordered_
.LVL56:
	.loc 3 76 8
	bne	a0,zero,.L24
	.loc 3 79 5 is_stmt 1
	.loc 3 79 8 is_stmt 0
	li	a5,17
	beq	s1,a5,.L21
	.loc 3 80 9 is_stmt 1
.LVL57:
.LBB67:
.LBB68:
	.loc 2 271 63
	.loc 2 271 115
.LBE68:
.LBE67:
.LBE66:
.LBE65:
	.loc 1 97 5
.LBB73:
.LBB71:
.LBB70:
.LBB69:
	.loc 2 271 129 is_stmt 0
	li	a5,285212672
	sw	a5,20(s0)
.LVL58:
.L21:
.LBE69:
.LBE70:
.LBE71:
.LBE73:
	.loc 3 83 1
	lw	ra,12(sp)
	.cfi_remember_state
	.cfi_restore 1
	lw	s0,8(sp)
	.cfi_restore 8
.LVL59:
	lw	s1,4(sp)
	.cfi_restore 9
	addi	sp,sp,16
	.cfi_def_cfa_offset 0
	jr	ra
.LVL60:
.L24:
	.cfi_restore_state
.LBB74:
.LBB72:
	.loc 3 78 16
	li	a0,-12
.LVL61:
	j	.L21
.LBE72:
.LBE74:
	.cfi_endproc
.LFE41:
	.size	fdt_rw_probe_, .-fdt_rw_probe_
	.section	.text.fdt_packblocks_,"ax",@progbits
	.align	1
	.type	fdt_packblocks_, @function
fdt_packblocks_:
.LFB60:
	.loc 3 409 1 is_stmt 1
	.cfi_startproc
.LVL62:
	.loc 3 410 5
	.loc 3 412 5
	.loc 3 413 5
	.loc 3 409 1 is_stmt 0
	addi	sp,sp,-48
	.cfi_def_cfa_offset 48
	sw	s0,40(sp)
	sw	s3,28(sp)
	.cfi_offset 8, -8
	.cfi_offset 19, -20
	mv	s0,a0
	.loc 3 413 16
	addi	s3,a2,40
	.loc 3 416 40
	addi	a0,a0,16
.LVL63:
	.loc 3 409 1
	sw	ra,44(sp)
	sw	s1,36(sp)
	sw	s2,32(sp)
	sw	s4,24(sp)
	.cfi_offset 1, -4
	.cfi_offset 9, -12
	.cfi_offset 18, -16
	.cfi_offset 20, -24
	mv	s2,a3
	.loc 3 414 17
	add	s4,s3,a3
	.loc 3 409 1
	sw	s5,20(sp)
	.cfi_offset 21, -28
	.loc 3 409 1
	mv	s1,a1
	.loc 3 413 16
	sw	a2,12(sp)
.LVL64:
	.loc 3 414 5 is_stmt 1
	.loc 3 416 5
	.loc 3 416 40 is_stmt 0
	call	fdt32_ld
.LVL65:
	.loc 3 416 5
	lw	a2,12(sp)
	add	a1,s0,a0
	addi	a0,s1,40
	call	memmove
.LVL66:
	.loc 3 417 5 is_stmt 1
.LBB87:
.LBB88:
	.loc 2 270 70
	.loc 2 270 122
.LBE88:
.LBE87:
	.loc 1 97 5
.LBB90:
.LBB89:
	.loc 2 270 143 is_stmt 0
	li	a5,671088640
	sw	a5,16(s1)
.LVL67:
.LBE89:
.LBE90:
	.loc 3 419 5 is_stmt 1
	.loc 3 419 39 is_stmt 0
	addi	a0,s0,8
	call	fdt32_ld
.LVL68:
	.loc 3 419 17
	add	s5,s1,s3
	.loc 3 419 5
	mv	a2,s2
	add	a1,s0,a0
	mv	a0,s5
	call	memmove
.LVL69:
	.loc 3 420 5 is_stmt 1
.LBB91:
.LBB92:
	.loc 2 268 69
	.loc 2 268 121
	.loc 2 268 143 is_stmt 0
	mv	a0,s3
	call	cpu_to_fdt32
.LVL70:
	.loc 2 268 141
	sw	a0,8(s1)
.LVL71:
.LBE92:
.LBE91:
	.loc 3 421 5 is_stmt 1
.LBB93:
.LBB94:
	.loc 2 275 70
	.loc 2 275 122
	.loc 2 275 145 is_stmt 0
	mv	a0,s2
	call	cpu_to_fdt32
.LVL72:
	.loc 2 275 143
	sw	a0,36(s1)
.LVL73:
.LBE94:
.LBE93:
	.loc 3 423 5 is_stmt 1
	.loc 3 423 40 is_stmt 0
	addi	a0,s0,12
	call	fdt32_ld
.LVL74:
	.loc 3 423 36
	add	a1,s0,a0
	.loc 3 424 11
	addi	s0,s0,32
.LVL75:
	mv	a0,s0
	.loc 3 423 36
	sw	a1,12(sp)
.LVL76:
	.loc 3 424 11
	call	fdt32_ld
.LVL77:
	.loc 3 423 5
	lw	a1,12(sp)
	.loc 3 423 17
	add	s2,s1,s4
.LVL78:
	.loc 3 424 11
	mv	a2,a0
	.loc 3 423 5
	mv	a0,s2
	call	memmove
.LVL79:
	.loc 3 425 5 is_stmt 1
.LBB95:
.LBB96:
	.loc 2 269 70
	.loc 2 269 122
	.loc 2 269 145 is_stmt 0
	mv	a0,s4
	call	cpu_to_fdt32
.LVL80:
	.loc 2 269 143
	sw	a0,12(s1)
.LVL81:
.LBE96:
.LBE95:
	.loc 3 426 5 is_stmt 1
	mv	a0,s0
	call	fdt32_ld
.LVL82:
.LBB97:
.LBB98:
	.loc 2 274 71
	.loc 2 274 123
	.loc 2 274 147 is_stmt 0
	call	cpu_to_fdt32
.LVL83:
.LBE98:
.LBE97:
	.loc 3 427 1
	lw	ra,44(sp)
	.cfi_restore 1
	lw	s0,40(sp)
	.cfi_restore 8
.LVL84:
.LBB100:
.LBB99:
	.loc 2 274 145
	sw	a0,32(s1)
.LVL85:
.LBE99:
.LBE100:
	.loc 3 427 1
	lw	s2,32(sp)
	.cfi_restore 18
	lw	s1,36(sp)
	.cfi_restore 9
.LVL86:
	lw	s3,28(sp)
	.cfi_restore 19
.LVL87:
	lw	s4,24(sp)
	.cfi_restore 20
.LVL88:
	lw	s5,20(sp)
	.cfi_restore 21
	addi	sp,sp,48
	.cfi_def_cfa_offset 0
	jr	ra
	.cfi_endproc
.LFE60:
	.size	fdt_packblocks_, .-fdt_packblocks_
	.section	.text.fdt_splice_struct_,"ax",@progbits
	.align	1
	.type	fdt_splice_struct_, @function
fdt_splice_struct_:
.LFB45:
	.loc 3 127 1 is_stmt 1
	.cfi_startproc
.LVL89:
	.loc 3 128 5
	.loc 3 127 1 is_stmt 0
	addi	sp,sp,-32
	.cfi_def_cfa_offset 32
	sw	s0,24(sp)
	sw	s1,20(sp)
	sw	s2,16(sp)
	sw	s3,12(sp)
	sw	ra,28(sp)
	.cfi_offset 8, -8
	.cfi_offset 9, -12
	.cfi_offset 18, -16
	.cfi_offset 19, -20
	.cfi_offset 1, -4
	.loc 3 127 1
	mv	s0,a0
	mv	s3,a2
	mv	s1,a3
.LVL90:
	.loc 3 129 5 is_stmt 1
	.loc 3 131 5
	.loc 3 131 16 is_stmt 0
	call	fdt_splice_
.LVL91:
	mv	s2,a0
.LVL92:
	.loc 3 131 8
	bne	a0,zero,.L28
	.loc 3 134 5 is_stmt 1
	.loc 3 134 35 is_stmt 0
	addi	a0,s0,36
.LVL93:
	call	fdt32_ld
.LVL94:
	.loc 3 128 9
	sub	s1,s1,s3
.LVL95:
.LBB105:
.LBB106:
	.loc 2 275 70 is_stmt 1
	.loc 2 275 122
	.loc 2 275 145 is_stmt 0
	add	a0,a0,s1
.LVL96:
	call	cpu_to_fdt32
.LVL97:
	.loc 2 275 143
	sw	a0,36(s0)
.LVL98:
.LBE106:
.LBE105:
	.loc 3 135 5 is_stmt 1
	.loc 3 135 35 is_stmt 0
	addi	a0,s0,12
	call	fdt32_ld
.LVL99:
.LBB107:
.LBB108:
	.loc 2 269 70 is_stmt 1
	.loc 2 269 122
	.loc 2 269 145 is_stmt 0
	add	a0,s1,a0
.LVL100:
	call	cpu_to_fdt32
.LVL101:
	.loc 2 269 143
	sw	a0,12(s0)
.LVL102:
.L28:
.LBE108:
.LBE107:
	.loc 3 137 1
	lw	ra,28(sp)
	.cfi_restore 1
	lw	s0,24(sp)
	.cfi_restore 8
.LVL103:
	lw	s1,20(sp)
	.cfi_restore 9
	lw	s3,12(sp)
	.cfi_restore 19
.LVL104:
	mv	a0,s2
	lw	s2,16(sp)
	.cfi_restore 18
.LVL105:
	addi	sp,sp,32
	.cfi_def_cfa_offset 0
	jr	ra
	.cfi_endproc
.LFE45:
	.size	fdt_splice_struct_, .-fdt_splice_struct_
	.section	.text.fdt_add_property_,"ax",@progbits
	.align	1
	.type	fdt_add_property_, @function
fdt_add_property_:
.LFB51:
	.loc 3 223 1 is_stmt 1
	.cfi_startproc
.LVL106:
	.loc 3 224 5
	.loc 3 225 5
	.loc 3 226 5
	.loc 3 227 5
	.loc 3 229 5
	.loc 3 223 1 is_stmt 0
	addi	sp,sp,-48
	.cfi_def_cfa_offset 48
	sw	s1,36(sp)
	sw	s2,32(sp)
	sw	s4,24(sp)
	sw	s5,20(sp)
	sw	s8,8(sp)
	sw	ra,44(sp)
	sw	s0,40(sp)
	sw	s3,28(sp)
	sw	s6,16(sp)
	sw	s7,12(sp)
	sw	s9,4(sp)
	sw	s10,0(sp)
	.cfi_offset 9, -12
	.cfi_offset 18, -16
	.cfi_offset 20, -24
	.cfi_offset 21, -28
	.cfi_offset 24, -40
	.cfi_offset 1, -4
	.cfi_offset 8, -8
	.cfi_offset 19, -20
	.cfi_offset 22, -32
	.cfi_offset 23, -36
	.cfi_offset 25, -44
	.cfi_offset 26, -48
	.loc 3 223 1
	mv	s1,a0
	mv	s8,a2
	mv	s5,a3
	mv	s4,a4
	.loc 3 229 23
	call	fdt_check_node_offset_
.LVL107:
	mv	s2,a0
.LVL108:
	.loc 3 229 8
	blt	a0,zero,.L31
	.loc 3 232 5 is_stmt 1
.LVL109:
.LBB119:
.LBB120:
	.loc 3 154 5
	.loc 3 154 36 is_stmt 0
	addi	s10,s1,12
	mv	a0,s10
.LVL110:
	call	fdt32_ld
.LVL111:
	.loc 3 154 11
	add	s7,s1,a0
.LVL112:
	.loc 3 155 5 is_stmt 1
	.loc 3 156 5
	.loc 3 157 5
	.loc 3 157 15 is_stmt 0
	mv	a0,s8
	call	strlen
.LVL113:
	.loc 3 160 36
	addi	s9,s1,32
	.loc 3 157 15
	mv	s3,a0
.LVL114:
	.loc 3 158 5 is_stmt 1
	.loc 3 160 5
	.loc 3 160 36 is_stmt 0
	mv	a0,s9
.LVL115:
	call	fdt32_ld
.LVL116:
	mv	a1,a0
	.loc 3 160 9
	mv	a2,s8
	mv	a0,s7
	call	fdt_find_string_
.LVL117:
	.loc 3 161 5 is_stmt 1
	.loc 3 161 8 is_stmt 0
	beq	a0,zero,.L33
	.loc 3 163 9 is_stmt 1
	.loc 3 163 19 is_stmt 0
	sub	s0,a0,s7
.LVL118:
.L34:
.LBE120:
.LBE119:
	.loc 3 233 5 is_stmt 1
	.loc 3 233 8 is_stmt 0
	blt	s0,zero,.L35
	.loc 3 236 5 is_stmt 1
.LVL119:
	.file 4 "/mnt/d/GitHub/bl_iot_sdk_for_aithinker/components/stage/blfdt/inc/libfdt_internal.h"
	.loc 4 78 5
.LBB128:
.LBB129:
.LBB130:
	.loc 4 73 5
	.loc 4 73 34 is_stmt 0
	addi	a0,s1,8
	call	fdt32_ld
.LVL120:
	.loc 4 73 97
	add	a1,s2,a0
.LBE130:
.LBE129:
.LBE128:
	.loc 3 237 63
	addi	a3,s5,3
.LBB133:
.LBB132:
.LBB131:
	.loc 4 73 97
	add	a1,s1,a1
.LVL121:
.LBE131:
.LBE132:
.LBE133:
	.loc 3 237 68
	andi	a3,a3,-4
	.loc 3 236 11
	sw	a1,0(s4)
	.loc 3 237 5 is_stmt 1
.LVL122:
	.loc 3 239 5
	.loc 3 239 11 is_stmt 0
	addi	a3,a3,12
.LVL123:
	li	a2,0
	mv	a0,s1
	call	fdt_splice_struct_
.LVL124:
	mv	s2,a0
.LVL125:
	.loc 3 240 5 is_stmt 1
	.loc 3 240 8 is_stmt 0
	bne	a0,zero,.L31
	.loc 3 243 5 is_stmt 1
	.loc 3 243 6 is_stmt 0
	lw	a5,0(s4)
.LVL126:
	.loc 1 97 5 is_stmt 1
	.loc 3 243 18 is_stmt 0
	li	a4,50331648
	.loc 3 244 24
	mv	a0,s0
.LVL127:
	.loc 3 243 18
	sw	a4,0(a5)
	.loc 3 244 5 is_stmt 1
	.loc 3 244 6 is_stmt 0
	lw	s1,0(s4)
.LVL128:
	.loc 3 244 24
	call	cpu_to_fdt32
.LVL129:
	.loc 3 244 22
	sw	a0,8(s1)
	.loc 3 245 5 is_stmt 1
	.loc 3 245 6 is_stmt 0
	lw	s0,0(s4)
.LVL130:
	.loc 3 245 20
	mv	a0,s5
	call	cpu_to_fdt32
.LVL131:
	.loc 3 245 18
	sw	a0,4(s0)
	.loc 3 246 5 is_stmt 1
.LVL132:
.L31:
	.loc 3 247 1 is_stmt 0
	lw	ra,44(sp)
	.cfi_remember_state
	.cfi_restore 1
	lw	s0,40(sp)
	.cfi_restore 8
	lw	s1,36(sp)
	.cfi_restore 9
	lw	s3,28(sp)
	.cfi_restore 19
	lw	s4,24(sp)
	.cfi_restore 20
.LVL133:
	lw	s5,20(sp)
	.cfi_restore 21
.LVL134:
	lw	s6,16(sp)
	.cfi_restore 22
	lw	s7,12(sp)
	.cfi_restore 23
	lw	s8,8(sp)
	.cfi_restore 24
.LVL135:
	lw	s9,4(sp)
	.cfi_restore 25
	lw	s10,0(sp)
	.cfi_restore 26
	mv	a0,s2
	lw	s2,32(sp)
	.cfi_restore 18
	addi	sp,sp,48
	.cfi_def_cfa_offset 0
	jr	ra
.LVL136:
.L33:
	.cfi_restore_state
.LBB134:
.LBB127:
	.loc 3 165 22
	mv	a0,s9
.LVL137:
	call	fdt32_ld
.LVL138:
	mv	s6,a0
.LBB121:
.LBB122:
	.loc 3 142 13
	mv	a0,s10
	call	fdt32_ld
.LVL139:
	.loc 3 142 77
	add	a1,s6,a0
.LBE122:
.LBE121:
	.loc 3 157 25
	addi	s3,s3,1
.LVL140:
	.loc 3 165 5 is_stmt 1
	.loc 3 166 5
.LBB126:
.LBB125:
	.loc 3 141 5
	.loc 3 143 5
	.loc 3 145 5
	.loc 3 145 16 is_stmt 0
	mv	a3,s3
	li	a2,0
	add	a1,s1,a1
	mv	a0,s1
.LVL141:
	call	fdt_splice_
.LVL142:
	mv	s0,a0
.LVL143:
	.loc 3 145 8
	bne	a0,zero,.L34
	.loc 3 148 5 is_stmt 1
	.loc 3 148 36 is_stmt 0
	mv	a0,s9
	call	fdt32_ld
.LVL144:
.LBB123:
.LBB124:
	.loc 2 274 71 is_stmt 1
	.loc 2 274 123
	.loc 2 274 147 is_stmt 0
	add	a0,s3,a0
.LVL145:
	call	cpu_to_fdt32
.LVL146:
	.loc 2 274 145
	sw	a0,32(s1)
.LVL147:
.LBE124:
.LBE123:
.LBE125:
.LBE126:
	.loc 3 167 5 is_stmt 1
	.loc 3 170 5
	mv	a2,s3
	mv	a1,s8
	add	a0,s7,s6
.LVL148:
	call	memcpy
.LVL149:
	.loc 3 171 5
	mv	s0,s6
	.loc 3 171 17 is_stmt 0
	j	.L34
.LVL150:
.L35:
.LBE127:
.LBE134:
	mv	s2,s0
.LVL151:
	j	.L31
	.cfi_endproc
.LFE51:
	.size	fdt_add_property_, .-fdt_add_property_
	.section	.text.fdt_add_mem_rsv,"ax",@progbits
	.align	1
	.globl	fdt_add_mem_rsv
	.type	fdt_add_mem_rsv, @function
fdt_add_mem_rsv:
.LFB48:
	.loc 3 175 1 is_stmt 1
	.cfi_startproc
.LVL152:
	.loc 3 176 5
	.loc 3 177 5
.LBB140:
	.loc 3 179 7
	.loc 3 179 17
.LBE140:
	.loc 3 175 1 is_stmt 0
	addi	sp,sp,-32
	.cfi_def_cfa_offset 32
	sw	s1,20(sp)
	sw	s2,16(sp)
	sw	s3,12(sp)
	sw	s4,8(sp)
	sw	s5,4(sp)
	sw	s6,0(sp)
	sw	ra,28(sp)
	sw	s0,24(sp)
	.cfi_offset 9, -12
	.cfi_offset 18, -16
	.cfi_offset 19, -20
	.cfi_offset 20, -24
	.cfi_offset 21, -28
	.cfi_offset 22, -32
	.cfi_offset 1, -4
	.cfi_offset 8, -8
	.loc 3 175 1
	mv	s6,a0
	mv	s5,a1
	mv	s4,a2
	mv	s3,a3
	mv	s2,a4
.LBB141:
	.loc 3 179 29
	call	fdt_rw_probe_
.LVL153:
	mv	s1,a0
.LVL154:
	.loc 3 179 20
	bne	a0,zero,.L37
.LBE141:
	.loc 3 179 69 is_stmt 1 discriminator 2
	.loc 3 181 5 discriminator 2
	.loc 3 181 10 is_stmt 0 discriminator 2
	mv	a0,s6
	call	fdt_num_mem_rsv
.LVL155:
	mv	s0,a0
.LVL156:
	.loc 4 91 5 is_stmt 1 discriminator 2
.LBB142:
.LBB143:
.LBB144:
	.loc 4 83 5 discriminator 2
	.loc 4 85 32 is_stmt 0 discriminator 2
	addi	a0,s6,16
	call	fdt32_ld
.LVL157:
	.loc 4 87 5 is_stmt 1 discriminator 2
	.loc 4 87 22 is_stmt 0 discriminator 2
	slli	s0,s0,4
.LVL158:
	add	s0,s0,a0
	add	s0,s6,s0
.LVL159:
.LBE144:
.LBE143:
.LBE142:
	.loc 3 182 5 is_stmt 1 discriminator 2
	.loc 3 182 11 is_stmt 0 discriminator 2
	li	a3,1
	li	a2,0
	mv	a1,s0
	mv	a0,s6
.LVL160:
	call	fdt_splice_mem_rsv_
.LVL161:
	mv	s1,a0
.LVL162:
	.loc 3 183 5 is_stmt 1 discriminator 2
	.loc 3 183 8 is_stmt 0 discriminator 2
	bne	a0,zero,.L37
	.loc 3 186 5 is_stmt 1
	.loc 3 186 19 is_stmt 0
	mv	a0,s5
	mv	a1,s4
	call	cpu_to_fdt64
.LVL163:
	.loc 3 186 17
	sw	a0,0(s0)
	sw	a1,4(s0)
	.loc 3 187 5 is_stmt 1
	.loc 3 187 16 is_stmt 0
	mv	a0,s3
	mv	a1,s2
	call	cpu_to_fdt64
.LVL164:
	.loc 3 187 14
	sw	a0,8(s0)
	sw	a1,12(s0)
	.loc 3 188 5 is_stmt 1
.LVL165:
.L37:
	.loc 3 189 1 is_stmt 0
	lw	ra,28(sp)
	.cfi_restore 1
	lw	s0,24(sp)
	.cfi_restore 8
	lw	s2,16(sp)
	.cfi_restore 18
	lw	s3,12(sp)
	.cfi_restore 19
	lw	s4,8(sp)
	.cfi_restore 20
	lw	s5,4(sp)
	.cfi_restore 21
	lw	s6,0(sp)
	.cfi_restore 22
.LVL166:
	mv	a0,s1
	lw	s1,20(sp)
	.cfi_restore 9
	addi	sp,sp,32
	.cfi_def_cfa_offset 0
	jr	ra
	.cfi_endproc
.LFE48:
	.size	fdt_add_mem_rsv, .-fdt_add_mem_rsv
	.section	.text.fdt_del_mem_rsv,"ax",@progbits
	.align	1
	.globl	fdt_del_mem_rsv
	.type	fdt_del_mem_rsv, @function
fdt_del_mem_rsv:
.LFB49:
	.loc 3 192 1 is_stmt 1
	.cfi_startproc
.LVL167:
	.loc 3 193 5
	.loc 3 192 1 is_stmt 0
	addi	sp,sp,-16
	.cfi_def_cfa_offset 16
	sw	s1,4(sp)
	.cfi_offset 9, -12
	mv	s1,a0
.LBB150:
.LBB151:
.LBB152:
	.loc 4 85 32
	addi	a0,a0,16
.LVL168:
.LBE152:
.LBE151:
.LBE150:
	.loc 3 192 1
	sw	s0,8(sp)
	sw	s2,0(sp)
	sw	ra,12(sp)
	.cfi_offset 8, -8
	.cfi_offset 18, -16
	.cfi_offset 1, -4
	.loc 3 192 1
	mv	s0,a1
.LVL169:
	.loc 4 91 5 is_stmt 1
.LBB157:
.LBB155:
.LBB153:
	.loc 4 83 5
	.loc 4 85 32 is_stmt 0
	call	fdt32_ld
.LVL170:
	mv	s2,a0
.LVL171:
	.loc 4 87 5 is_stmt 1
.LBE153:
.LBE155:
.LBE157:
.LBB158:
	.loc 3 195 7
	.loc 3 195 17
	.loc 3 195 29 is_stmt 0
	mv	a0,s1
.LVL172:
	call	fdt_rw_probe_
.LVL173:
	.loc 3 195 20
	bne	a0,zero,.L40
.LBE158:
	.loc 3 195 69 is_stmt 1 discriminator 2
	.loc 3 197 5 discriminator 2
	.loc 3 197 14 is_stmt 0 discriminator 2
	mv	a0,s1
.LVL174:
	call	fdt_num_mem_rsv
.LVL175:
	.loc 3 197 8 discriminator 2
	ble	a0,s0,.L42
	.loc 3 200 5 is_stmt 1
.LBB159:
.LBB156:
.LBB154:
	.loc 4 87 22 is_stmt 0
	slli	a1,s0,4
	add	a1,a1,s2
.LBE154:
.LBE156:
.LBE159:
	.loc 3 201 1
	lw	s0,8(sp)
	.cfi_remember_state
	.cfi_restore 8
.LVL176:
	lw	ra,12(sp)
	.cfi_restore 1
	lw	s2,0(sp)
	.cfi_restore 18
.LVL177:
	.loc 3 200 12
	add	a1,s1,a1
	mv	a0,s1
	.loc 3 201 1
	lw	s1,4(sp)
	.cfi_restore 9
.LVL178:
	.loc 3 200 12
	li	a3,0
	.loc 3 201 1
	.loc 3 200 12
	li	a2,1
	.loc 3 201 1
	addi	sp,sp,16
	.cfi_def_cfa_offset 0
	.loc 3 200 12
	tail	fdt_splice_mem_rsv_
.LVL179:
.L42:
	.cfi_restore_state
	.loc 3 198 16
	li	a0,-1
.L40:
	.loc 3 201 1
	lw	ra,12(sp)
	.cfi_restore 1
	lw	s0,8(sp)
	.cfi_restore 8
.LVL180:
	lw	s1,4(sp)
	.cfi_restore 9
.LVL181:
	lw	s2,0(sp)
	.cfi_restore 18
.LVL182:
	addi	sp,sp,16
	.cfi_def_cfa_offset 0
	jr	ra
	.cfi_endproc
.LFE49:
	.size	fdt_del_mem_rsv, .-fdt_del_mem_rsv
	.section	.text.fdt_set_name,"ax",@progbits
	.align	1
	.globl	fdt_set_name
	.type	fdt_set_name, @function
fdt_set_name:
.LFB52:
	.loc 3 250 1 is_stmt 1
	.cfi_startproc
.LVL183:
	.loc 3 251 5
	.loc 3 252 5
	.loc 3 253 5
.LBB160:
	.loc 3 255 7
	.loc 3 255 17
.LBE160:
	.loc 3 250 1 is_stmt 0
	addi	sp,sp,-64
	.cfi_def_cfa_offset 64
	sw	s0,56(sp)
	sw	s2,48(sp)
	sw	s4,40(sp)
	sw	ra,60(sp)
	sw	s1,52(sp)
	sw	s3,44(sp)
	.cfi_offset 8, -8
	.cfi_offset 18, -16
	.cfi_offset 20, -24
	.cfi_offset 1, -4
	.cfi_offset 9, -12
	.cfi_offset 19, -20
	.loc 3 250 1
	mv	s4,a0
	sw	a1,12(sp)
	mv	s2,a2
.LBB161:
	.loc 3 255 29
	call	fdt_rw_probe_
.LVL184:
	mv	s0,a0
.LVL185:
	.loc 3 255 20
	bne	a0,zero,.L44
.LBE161:
	.loc 3 255 69 is_stmt 1 discriminator 2
	.loc 3 257 5 discriminator 2
	.loc 3 257 32 is_stmt 0 discriminator 2
	lw	a1,12(sp)
	addi	a2,sp,28
	mv	a0,s4
	call	fdt_get_name
.LVL186:
	mv	s1,a0
.LVL187:
	.loc 3 258 5 is_stmt 1 discriminator 2
	.loc 3 258 8 is_stmt 0 discriminator 2
	bne	a0,zero,.L46
	.loc 3 259 9 is_stmt 1
	.loc 3 259 16 is_stmt 0
	lw	s0,28(sp)
.LVL188:
.L44:
	.loc 3 270 1
	lw	ra,60(sp)
	.cfi_remember_state
	.cfi_restore 1
	mv	a0,s0
	lw	s0,56(sp)
	.cfi_restore 8
	lw	s1,52(sp)
	.cfi_restore 9
	lw	s2,48(sp)
	.cfi_restore 18
.LVL189:
	lw	s3,44(sp)
	.cfi_restore 19
	lw	s4,40(sp)
	.cfi_restore 20
.LVL190:
	addi	sp,sp,64
	.cfi_def_cfa_offset 0
.LVL191:
	jr	ra
.LVL192:
.L46:
	.cfi_restore_state
	.loc 3 261 5 is_stmt 1
	.loc 3 261 14 is_stmt 0
	mv	a0,s2
	call	strlen
.LVL193:
	.loc 3 263 78
	lw	a2,28(sp)
	.loc 3 264 54
	addi	a3,a0,4
	.loc 3 261 14
	mv	s3,a0
.LVL194:
	.loc 3 263 5 is_stmt 1
	.loc 3 263 78 is_stmt 0
	addi	a2,a2,4
	.loc 3 263 11
	andi	a3,a3,-4
	andi	a2,a2,-4
	mv	a1,s1
	mv	a0,s4
.LVL195:
	call	fdt_splice_struct_
.LVL196:
	mv	s0,a0
.LVL197:
	.loc 3 265 5 is_stmt 1
	.loc 3 265 8 is_stmt 0
	bne	a0,zero,.L44
	.loc 3 268 5 is_stmt 1
	addi	a2,s3,1
	mv	a1,s2
	mv	a0,s1
	call	memcpy
.LVL198:
	.loc 3 269 5
	.loc 3 269 12 is_stmt 0
	j	.L44
	.cfi_endproc
.LFE52:
	.size	fdt_set_name, .-fdt_set_name
	.section	.text.fdt_setprop_placeholder,"ax",@progbits
	.align	1
	.globl	fdt_setprop_placeholder
	.type	fdt_setprop_placeholder, @function
fdt_setprop_placeholder:
.LFB53:
	.loc 3 274 1 is_stmt 1
	.cfi_startproc
.LVL199:
	.loc 3 275 5
	.loc 3 276 5
.LBB170:
	.loc 3 278 7
	.loc 3 278 17
.LBE170:
	.loc 3 274 1 is_stmt 0
	addi	sp,sp,-48
	.cfi_def_cfa_offset 48
	sw	s0,40(sp)
	sw	s1,36(sp)
	sw	s2,32(sp)
	sw	s3,28(sp)
	sw	s4,24(sp)
	sw	ra,44(sp)
	.cfi_offset 8, -8
	.cfi_offset 9, -12
	.cfi_offset 18, -16
	.cfi_offset 19, -20
	.cfi_offset 20, -24
	.cfi_offset 1, -4
	.loc 3 274 1
	mv	s0,a0
	mv	s2,a1
	mv	s4,a2
	mv	s1,a3
	mv	s3,a4
.LBB171:
	.loc 3 278 29
	call	fdt_rw_probe_
.LVL200:
	.loc 3 278 20
	bne	a0,zero,.L48
.LVL201:
.LBE171:
.LBB172:
.LBB173:
	.loc 3 278 69 is_stmt 1
	.loc 3 280 5
.LBB174:
.LBB175:
	.loc 3 206 5
	.loc 3 207 5
	.loc 3 209 5
.LBB176:
.LBB177:
	.loc 2 665 5
	.loc 2 666 9 is_stmt 0
	mv	a1,s2
	addi	a3,sp,12
.LVL202:
	mv	a2,s4
	mv	a0,s0
.LVL203:
	call	fdt_get_property
.LVL204:
	mv	a1,a0
.LVL205:
.LBE177:
.LBE176:
	.loc 3 209 11
	sw	a0,8(sp)
	.loc 3 210 5 is_stmt 1
	lw	a0,12(sp)
	.loc 3 210 8 is_stmt 0
	bne	a1,zero,.L50
	.loc 3 211 9 is_stmt 1
.LVL206:
.LBE175:
.LBE174:
	.loc 3 281 5
	.loc 3 281 8 is_stmt 0
	li	a5,-1
	beq	a0,a5,.L51
.L52:
	.loc 3 283 5 is_stmt 1
	.loc 3 283 8 is_stmt 0
	beq	a0,zero,.L54
.LVL207:
.L48:
.LBE173:
.LBE172:
	.loc 3 288 1
	lw	ra,44(sp)
	.cfi_remember_state
	.cfi_restore 1
	lw	s0,40(sp)
	.cfi_restore 8
.LVL208:
	lw	s1,36(sp)
	.cfi_restore 9
.LVL209:
	lw	s2,32(sp)
	.cfi_restore 18
.LVL210:
	lw	s3,28(sp)
	.cfi_restore 19
.LVL211:
	lw	s4,24(sp)
	.cfi_restore 20
.LVL212:
	addi	sp,sp,48
	.cfi_def_cfa_offset 0
	jr	ra
.LVL213:
.L50:
	.cfi_restore_state
.LBB181:
.LBB180:
.LBB179:
.LBB178:
	.loc 3 213 5 is_stmt 1
	.loc 3 213 89 is_stmt 0
	addi	a2,a0,3
	.loc 3 214 54
	addi	a3,s1,3
	.loc 3 213 16
	andi	a3,a3,-4
	andi	a2,a2,-4
	addi	a1,a1,12
	mv	a0,s0
	call	fdt_splice_struct_
.LVL214:
	.loc 3 213 8
	bne	a0,zero,.L53
	.loc 3 217 5 is_stmt 1
	.loc 3 217 20 is_stmt 0
	mv	a0,s1
.LVL215:
	call	cpu_to_fdt32
.LVL216:
	.loc 3 217 18
	lw	a5,8(sp)
	sw	a0,4(a5)
	.loc 3 218 5 is_stmt 1
.LVL217:
.LBE178:
.LBE179:
	.loc 3 281 5
	.loc 3 283 5
.L54:
	.loc 3 286 5
	.loc 3 286 18 is_stmt 0
	lw	a5,8(sp)
	.loc 3 287 12
	li	a0,0
	.loc 3 286 18
	addi	a5,a5,12
	.loc 3 286 16
	sw	a5,0(s3)
	.loc 3 287 5 is_stmt 1
.LVL218:
	.loc 3 287 12 is_stmt 0
	j	.L48
.LVL219:
.L53:
	.loc 3 281 5 is_stmt 1
	.loc 3 281 8 is_stmt 0
	li	a5,-1
	bne	a0,a5,.L48
.L51:
	.loc 3 282 9 is_stmt 1
	.loc 3 282 15 is_stmt 0
	addi	a4,sp,8
	mv	a3,s1
	mv	a2,s4
	mv	a1,s2
	mv	a0,s0
.LVL220:
	call	fdt_add_property_
.LVL221:
	j	.L52
.LBE180:
.LBE181:
	.cfi_endproc
.LFE53:
	.size	fdt_setprop_placeholder, .-fdt_setprop_placeholder
	.section	.text.fdt_setprop,"ax",@progbits
	.align	1
	.globl	fdt_setprop
	.type	fdt_setprop, @function
fdt_setprop:
.LFB54:
	.loc 3 292 1 is_stmt 1
	.cfi_startproc
.LVL222:
	.loc 3 293 5
	.loc 3 294 5
	.loc 3 296 5
	.loc 3 292 1 is_stmt 0
	addi	sp,sp,-32
	.cfi_def_cfa_offset 32
	sw	s0,24(sp)
	.cfi_offset 8, -8
	mv	s0,a4
	sw	s2,16(sp)
	.loc 3 296 11
	addi	a4,sp,12
.LVL223:
	.cfi_offset 18, -16
	.loc 3 292 1
	mv	s2,a3
	.loc 3 296 11
	mv	a3,s0
.LVL224:
	.loc 3 292 1
	sw	s1,20(sp)
	sw	ra,28(sp)
	.cfi_offset 9, -12
	.cfi_offset 1, -4
	.loc 3 296 11
	call	fdt_setprop_placeholder
.LVL225:
	mv	s1,a0
.LVL226:
	.loc 3 297 5 is_stmt 1
	.loc 3 297 8 is_stmt 0
	bne	a0,zero,.L57
	.loc 3 300 5 is_stmt 1
	.loc 3 300 8 is_stmt 0
	beq	s0,zero,.L57
	.loc 3 301 9 is_stmt 1
	lw	a0,12(sp)
	mv	a2,s0
	mv	a1,s2
	call	memcpy
.LVL227:
.L57:
	.loc 3 303 1 is_stmt 0
	lw	ra,28(sp)
	.cfi_restore 1
	lw	s0,24(sp)
	.cfi_restore 8
.LVL228:
	lw	s2,16(sp)
	.cfi_restore 18
.LVL229:
	mv	a0,s1
	lw	s1,20(sp)
	.cfi_restore 9
.LVL230:
	addi	sp,sp,32
	.cfi_def_cfa_offset 0
	jr	ra
	.cfi_endproc
.LFE54:
	.size	fdt_setprop, .-fdt_setprop
	.section	.text.fdt_appendprop,"ax",@progbits
	.align	1
	.globl	fdt_appendprop
	.type	fdt_appendprop, @function
fdt_appendprop:
.LFB55:
	.loc 3 307 1 is_stmt 1
	.cfi_startproc
.LVL231:
	.loc 3 308 5
	.loc 3 309 5
.LBB182:
	.loc 3 311 7
	.loc 3 311 17
.LBE182:
	.loc 3 307 1 is_stmt 0
	addi	sp,sp,-48
	.cfi_def_cfa_offset 48
	sw	s0,40(sp)
	sw	s1,36(sp)
	sw	s2,32(sp)
	sw	s3,28(sp)
	sw	s4,24(sp)
	sw	s5,20(sp)
	sw	ra,44(sp)
	.cfi_offset 8, -8
	.cfi_offset 9, -12
	.cfi_offset 18, -16
	.cfi_offset 19, -20
	.cfi_offset 20, -24
	.cfi_offset 21, -28
	.cfi_offset 1, -4
	.loc 3 307 1
	mv	s2,a0
	mv	s4,a1
	mv	s5,a2
	mv	s3,a3
	mv	s1,a4
.LBB183:
	.loc 3 311 29
	call	fdt_rw_probe_
.LVL232:
	mv	s0,a0
.LVL233:
	.loc 3 311 20
	bne	a0,zero,.L64
.LBE183:
	.loc 3 311 69 is_stmt 1
	.loc 3 313 5
.LVL234:
.LBB184:
.LBB185:
	.loc 2 665 5
	.loc 2 666 9 is_stmt 0
	addi	a3,sp,12
.LVL235:
	mv	a2,s5
	mv	a1,s4
	mv	a0,s2
	call	fdt_get_property
.LVL236:
.LBE185:
.LBE184:
	.loc 3 313 10
	sw	a0,8(sp)
	.loc 3 314 5 is_stmt 1
	.loc 3 314 8 is_stmt 0
	beq	a0,zero,.L66
	.loc 3 315 9 is_stmt 1
	.loc 3 315 22 is_stmt 0
	lw	a2,12(sp)
.LVL237:
	.loc 3 316 9 is_stmt 1
	.loc 3 316 15 is_stmt 0
	addi	a1,a0,12
	mv	a0,s2
	.loc 3 315 16
	add	s4,a2,s1
.LVL238:
	.loc 3 318 56
	addi	a3,s4,3
	.loc 3 317 56
	addi	a2,a2,3
	.loc 3 316 15
	andi	a3,a3,-4
	andi	a2,a2,-4
	call	fdt_splice_struct_
.LVL239:
	mv	s0,a0
.LVL240:
	.loc 3 319 9 is_stmt 1
	.loc 3 319 12 is_stmt 0
	bne	a0,zero,.L64
	.loc 3 321 9 is_stmt 1
	.loc 3 321 13 is_stmt 0
	lw	s2,8(sp)
.LVL241:
	.loc 3 321 21
	mv	a0,s4
	call	cpu_to_fdt32
.LVL242:
	.loc 3 321 19
	sw	a0,4(s2)
	.loc 3 322 9 is_stmt 1
	lw	a0,12(sp)
	.loc 3 322 16 is_stmt 0
	addi	s2,s2,12
	.loc 3 322 9
	mv	a2,s1
	mv	a1,s3
	add	a0,s2,a0
.LVL243:
.L68:
	.loc 3 327 9
	call	memcpy
.LVL244:
.L64:
	.loc 3 330 1
	lw	ra,44(sp)
	.cfi_remember_state
	.cfi_restore 1
	mv	a0,s0
	lw	s0,40(sp)
	.cfi_restore 8
	lw	s1,36(sp)
	.cfi_restore 9
.LVL245:
	lw	s2,32(sp)
	.cfi_restore 18
	lw	s3,28(sp)
	.cfi_restore 19
.LVL246:
	lw	s4,24(sp)
	.cfi_restore 20
	lw	s5,20(sp)
	.cfi_restore 21
.LVL247:
	addi	sp,sp,48
	.cfi_def_cfa_offset 0
	jr	ra
.LVL248:
.L66:
	.cfi_restore_state
	.loc 3 324 9 is_stmt 1
	.loc 3 324 15 is_stmt 0
	addi	a4,sp,8
	mv	a3,s1
	mv	a2,s5
	mv	a1,s4
	mv	a0,s2
	call	fdt_add_property_
.LVL249:
	mv	s0,a0
.LVL250:
	.loc 3 325 9 is_stmt 1
	.loc 3 325 12 is_stmt 0
	bne	a0,zero,.L64
	.loc 3 327 9 is_stmt 1
	lw	a0,8(sp)
	mv	a2,s1
	mv	a1,s3
	addi	a0,a0,12
	j	.L68
	.cfi_endproc
.LFE55:
	.size	fdt_appendprop, .-fdt_appendprop
	.section	.text.fdt_delprop,"ax",@progbits
	.align	1
	.globl	fdt_delprop
	.type	fdt_delprop, @function
fdt_delprop:
.LFB56:
	.loc 3 333 1
	.cfi_startproc
.LVL251:
	.loc 3 334 5
	.loc 3 335 5
.LBB186:
	.loc 3 337 7
	.loc 3 337 17
.LBE186:
	.loc 3 333 1 is_stmt 0
	addi	sp,sp,-48
	.cfi_def_cfa_offset 48
	sw	s0,40(sp)
	sw	ra,44(sp)
	.cfi_offset 8, -8
	.cfi_offset 1, -4
	.loc 3 333 1
	mv	s0,a0
	sw	a1,12(sp)
	sw	a2,8(sp)
.LBB187:
	.loc 3 337 29
	call	fdt_rw_probe_
.LVL252:
	.loc 3 337 20
	bne	a0,zero,.L69
.LBE187:
	.loc 3 337 69 is_stmt 1
	.loc 3 339 5
.LVL253:
.LBB188:
.LBB189:
	.loc 2 665 5
	.loc 2 666 9 is_stmt 0
	lw	a1,12(sp)
	lw	a2,8(sp)
	addi	a3,sp,28
.LVL254:
	mv	a0,s0
.LVL255:
	call	fdt_get_property
.LVL256:
	mv	a1,a0
.LVL257:
.LBE189:
.LBE188:
	.loc 3 340 5 is_stmt 1
	lw	a0,28(sp)
.LVL258:
	.loc 3 340 8 is_stmt 0
	beq	a1,zero,.L69
	.loc 3 343 5 is_stmt 1
.LVL259:
	.loc 3 344 5
	.loc 3 343 62 is_stmt 0
	addi	a2,a0,3
	.loc 3 343 67
	andi	a2,a2,-4
	.loc 3 344 12
	li	a3,0
	addi	a2,a2,12
	mv	a0,s0
	call	fdt_splice_struct_
.LVL260:
.L69:
	.loc 3 345 1
	lw	ra,44(sp)
	.cfi_restore 1
	lw	s0,40(sp)
	.cfi_restore 8
.LVL261:
	addi	sp,sp,48
	.cfi_def_cfa_offset 0
.LVL262:
	jr	ra
	.cfi_endproc
.LFE56:
	.size	fdt_delprop, .-fdt_delprop
	.section	.text.fdt_add_subnode_namelen,"ax",@progbits
	.align	1
	.globl	fdt_add_subnode_namelen
	.type	fdt_add_subnode_namelen, @function
fdt_add_subnode_namelen:
.LFB57:
	.loc 3 349 1 is_stmt 1
	.cfi_startproc
.LVL263:
	.loc 3 350 5
	.loc 3 351 5
	.loc 3 352 5
	.loc 3 353 5
	.loc 3 354 5
	.loc 3 355 5
.LBB202:
	.loc 3 357 7
	.loc 3 357 17
.LBE202:
	.loc 3 349 1 is_stmt 0
	addi	sp,sp,-48
	.cfi_def_cfa_offset 48
	sw	s0,40(sp)
	sw	s1,36(sp)
	sw	s3,28(sp)
	sw	s4,24(sp)
	sw	ra,44(sp)
	sw	s2,32(sp)
	sw	s5,20(sp)
	.cfi_offset 8, -8
	.cfi_offset 9, -12
	.cfi_offset 19, -20
	.cfi_offset 20, -24
	.cfi_offset 1, -4
	.cfi_offset 18, -16
	.cfi_offset 21, -28
	.loc 3 349 1
	mv	s1,a0
	mv	s0,a1
	mv	s4,a2
	mv	s3,a3
.LBB203:
	.loc 3 357 29
	call	fdt_rw_probe_
.LVL264:
	.loc 3 357 20
	bne	a0,zero,.L73
.LBE203:
	.loc 3 357 69 is_stmt 1 discriminator 2
	.loc 3 359 5 discriminator 2
	.loc 3 359 14 is_stmt 0 discriminator 2
	mv	a3,s3
	mv	a2,s4
	mv	a1,s0
	mv	a0,s1
.LVL265:
	call	fdt_subnode_offset_namelen
.LVL266:
	.loc 3 360 5 is_stmt 1 discriminator 2
	.loc 3 360 8 is_stmt 0 discriminator 2
	bge	a0,zero,.L77
	.loc 3 362 10 is_stmt 1
	.loc 3 362 13 is_stmt 0
	li	a5,-1
	bne	a0,a5,.L73
.LVL267:
.LBB204:
.LBB205:
	.loc 3 366 5 is_stmt 1
	mv	a1,s0
	addi	a2,sp,12
	mv	a0,s1
.LVL268:
	call	fdt_next_tag
.LVL269:
	.loc 3 370 5 is_stmt 0
	li	s0,1
.LVL270:
.L75:
	.loc 3 367 5 is_stmt 1
	.loc 3 368 9
	.loc 3 368 16 is_stmt 0
	lw	s5,12(sp)
.LVL271:
	.loc 3 369 9 is_stmt 1
	.loc 3 369 15 is_stmt 0
	addi	a2,sp,12
	mv	a0,s1
	mv	a1,s5
	call	fdt_next_tag
.LVL272:
	.loc 3 370 13 is_stmt 1
	.loc 3 370 27 is_stmt 0
	addi	a0,a0,-3
.LVL273:
	.loc 3 370 5
	bleu	a0,s0,.L75
	.loc 3 372 5 is_stmt 1
.LVL274:
.LBE205:
.LBE204:
	.loc 4 78 5
.LBB215:
.LBB212:
.LBB206:
.LBB207:
.LBB208:
	.loc 4 73 5
	.loc 4 73 34 is_stmt 0
	addi	a0,s1,8
.LVL275:
	call	fdt32_ld
.LVL276:
	.loc 4 73 97
	add	s0,s5,a0
.LBE208:
.LBE207:
.LBE206:
	.loc 3 373 66
	addi	s2,s3,4
.LBB211:
.LBB210:
.LBB209:
	.loc 4 73 97
	add	s0,s1,s0
.LVL277:
.LBE209:
.LBE210:
.LBE211:
	.loc 3 373 5 is_stmt 1
	.loc 3 373 71 is_stmt 0
	andi	s2,s2,-4
.LVL278:
	.loc 3 375 5 is_stmt 1
	.loc 3 375 11 is_stmt 0
	addi	a3,s2,8
.LVL279:
	li	a2,0
	mv	a1,s0
	mv	a0,s1
	call	fdt_splice_struct_
.LVL280:
	.loc 3 376 5 is_stmt 1
	.loc 3 376 8 is_stmt 0
	bne	a0,zero,.L73
	.loc 3 379 5 is_stmt 1
.LVL281:
.LBE212:
.LBE215:
	.loc 1 97 5
.LBB216:
.LBB213:
	.loc 3 379 13 is_stmt 0
	li	a5,16777216
	.loc 3 380 14
	addi	s1,s0,4
.LVL282:
	.loc 3 379 13
	sw	a5,0(s0)
	.loc 3 380 5 is_stmt 1
	mv	a2,s2
	li	a1,0
	mv	a0,s1
.LVL283:
	call	memset
.LVL284:
	.loc 3 381 5
	mv	a2,s3
	mv	a1,s4
	mv	a0,s1
	call	memcpy
.LVL285:
	.loc 3 382 5
	.loc 3 383 5
.LBE213:
.LBE216:
	.loc 1 97 5
.LBB217:
.LBB214:
	.loc 3 383 13 is_stmt 0
	add	s0,s0,s2
.LVL286:
	li	a5,33554432
	sw	a5,4(s0)
	.loc 3 385 5 is_stmt 1
	.loc 3 368 16 is_stmt 0
	mv	a0,s5
.LVL287:
.L73:
.LBE214:
.LBE217:
	.loc 3 386 1
	lw	ra,44(sp)
	.cfi_remember_state
	.cfi_restore 1
	lw	s0,40(sp)
	.cfi_restore 8
	lw	s1,36(sp)
	.cfi_restore 9
	lw	s2,32(sp)
	.cfi_restore 18
	lw	s3,28(sp)
	.cfi_restore 19
.LVL288:
	lw	s4,24(sp)
	.cfi_restore 20
.LVL289:
	lw	s5,20(sp)
	.cfi_restore 21
	addi	sp,sp,48
	.cfi_def_cfa_offset 0
	jr	ra
.LVL290:
.L77:
	.cfi_restore_state
	.loc 3 361 16
	li	a0,-2
.LVL291:
	j	.L73
	.cfi_endproc
.LFE57:
	.size	fdt_add_subnode_namelen, .-fdt_add_subnode_namelen
	.section	.text.fdt_add_subnode,"ax",@progbits
	.align	1
	.globl	fdt_add_subnode
	.type	fdt_add_subnode, @function
fdt_add_subnode:
.LFB58:
	.loc 3 389 1 is_stmt 1
	.cfi_startproc
.LVL292:
	.loc 3 390 5
	.loc 3 389 1 is_stmt 0
	addi	sp,sp,-32
	.cfi_def_cfa_offset 32
	sw	s0,24(sp)
	.cfi_offset 8, -8
	mv	s0,a0
	.loc 3 390 61
	mv	a0,a2
.LVL293:
	.loc 3 389 1
	sw	ra,28(sp)
	.cfi_offset 1, -4
	.loc 3 389 1
	sw	a1,12(sp)
	.loc 3 390 61
	sw	a2,8(sp)
	call	strlen
.LVL294:
	mv	a3,a0
	.loc 3 390 12
	mv	a0,s0
	.loc 3 391 1
	lw	s0,24(sp)
	.cfi_restore 8
.LVL295:
	.loc 3 390 12
	lw	a2,8(sp)
	lw	a1,12(sp)
	.loc 3 391 1
	lw	ra,28(sp)
	.cfi_restore 1
	addi	sp,sp,32
	.cfi_def_cfa_offset 0
.LVL296:
	.loc 3 390 12
	tail	fdt_add_subnode_namelen
.LVL297:
	.cfi_endproc
.LFE58:
	.size	fdt_add_subnode, .-fdt_add_subnode
	.section	.text.fdt_del_node,"ax",@progbits
	.align	1
	.globl	fdt_del_node
	.type	fdt_del_node, @function
fdt_del_node:
.LFB59:
	.loc 3 394 1 is_stmt 1
	.cfi_startproc
.LVL298:
	.loc 3 395 5
.LBB223:
	.loc 3 397 7
	.loc 3 397 17
.LBE223:
	.loc 3 394 1 is_stmt 0
	addi	sp,sp,-16
	.cfi_def_cfa_offset 16
	sw	s0,8(sp)
	sw	s1,4(sp)
	sw	s2,0(sp)
	sw	ra,12(sp)
	.cfi_offset 8, -8
	.cfi_offset 9, -12
	.cfi_offset 18, -16
	.cfi_offset 1, -4
	.loc 3 394 1
	mv	s1,a0
	mv	s2,a1
.LBB224:
	.loc 3 397 29
	call	fdt_rw_probe_
.LVL299:
	mv	s0,a0
	.loc 3 397 20
	bne	a0,zero,.L82
.LBE224:
	.loc 3 397 69 is_stmt 1 discriminator 2
	.loc 3 399 5 discriminator 2
	.loc 3 399 17 is_stmt 0 discriminator 2
	mv	a1,s2
	mv	a0,s1
.LVL300:
	call	fdt_node_end_offset_
.LVL301:
	mv	s0,a0
.LVL302:
	.loc 3 400 5 is_stmt 1 discriminator 2
	.loc 3 400 8 is_stmt 0 discriminator 2
	blt	a0,zero,.L82
	.loc 3 403 5 is_stmt 1
.LVL303:
	.loc 4 78 5
.LBB225:
.LBB226:
.LBB227:
	.loc 4 73 5
	.loc 4 73 34 is_stmt 0
	addi	a0,s1,8
	call	fdt32_ld
.LVL304:
	.loc 4 73 97
	add	a1,s2,a0
.LBE227:
.LBE226:
.LBE225:
	.loc 3 403 12
	sub	a2,s0,s2
	.loc 3 405 1
	lw	s0,8(sp)
	.cfi_remember_state
	.cfi_restore 8
.LVL305:
	lw	ra,12(sp)
	.cfi_restore 1
	lw	s2,0(sp)
	.cfi_restore 18
.LVL306:
	.loc 3 403 12
	add	a1,s1,a1
	mv	a0,s1
	.loc 3 405 1
	lw	s1,4(sp)
	.cfi_restore 9
.LVL307:
	.loc 3 403 12
	li	a3,0
	.loc 3 405 1
	addi	sp,sp,16
	.cfi_def_cfa_offset 0
	.loc 3 403 12
	tail	fdt_splice_struct_
.LVL308:
.L82:
	.cfi_restore_state
	.loc 3 405 1
	lw	ra,12(sp)
	.cfi_restore 1
	mv	a0,s0
	lw	s0,8(sp)
	.cfi_restore 8
	lw	s1,4(sp)
	.cfi_restore 9
.LVL309:
	lw	s2,0(sp)
	.cfi_restore 18
.LVL310:
	addi	sp,sp,16
	.cfi_def_cfa_offset 0
	jr	ra
	.cfi_endproc
.LFE59:
	.size	fdt_del_node, .-fdt_del_node
	.section	.text.fdt_open_into,"ax",@progbits
	.align	1
	.globl	fdt_open_into
	.type	fdt_open_into, @function
fdt_open_into:
.LFB61:
	.loc 3 430 1 is_stmt 1
	.cfi_startproc
.LVL311:
	addi	sp,sp,-80
	.cfi_def_cfa_offset 80
	sw	s1,68(sp)
	.cfi_offset 9, -12
	mv	s1,a0
	.loc 3 435 39 is_stmt 0
	addi	a0,a0,4
.LVL312:
	.loc 3 430 1
	sw	ra,76(sp)
	sw	s0,72(sp)
	sw	s2,64(sp)
	sw	s3,60(sp)
	sw	s5,52(sp)
	.cfi_offset 1, -4
	.cfi_offset 8, -8
	.cfi_offset 18, -16
	.cfi_offset 19, -20
	.cfi_offset 21, -28
	mv	s0,a1
	.loc 3 431 5 is_stmt 1
	.loc 3 432 5
	.loc 3 433 5
	.loc 3 434 5
	.loc 3 435 5
	.loc 3 430 1 is_stmt 0
	mv	s5,a2
	sw	s4,56(sp)
	sw	s6,48(sp)
	sw	s7,44(sp)
	.cfi_offset 20, -24
	.cfi_offset 22, -32
	.cfi_offset 23, -36
	.loc 3 435 39
	call	fdt32_ld
.LVL313:
	mv	s3,a0
.LVL314:
	.loc 3 436 5 is_stmt 1
.LBB253:
	.loc 3 438 7
	.loc 3 438 17
	.loc 3 438 29 is_stmt 0
	mv	a0,s1
.LVL315:
	call	fdt_ro_probe_
.LVL316:
	mv	s2,a0
.LVL317:
	.loc 3 438 20
	bne	a0,zero,.L86
.LBE253:
	.loc 3 438 69 is_stmt 1 discriminator 2
	.loc 3 440 5 discriminator 2
	.loc 3 440 21 is_stmt 0 discriminator 2
	mv	a0,s1
.LVL318:
	call	fdt_num_mem_rsv
.LVL319:
	.loc 3 440 41 discriminator 2
	addi	s6,a0,1
	.loc 3 443 11 discriminator 2
	addi	a0,s1,20
	call	fdt32_ld
.LVL320:
	.loc 3 443 8 discriminator 2
	li	a5,16
	.loc 3 441 9 discriminator 2
	slli	s6,s6,4
.LVL321:
	.loc 3 443 5 is_stmt 1 discriminator 2
	.loc 3 443 8 is_stmt 0 discriminator 2
	bleu	a0,a5,.L88
	.loc 3 444 9 is_stmt 1
	.loc 3 444 25 is_stmt 0
	addi	a0,s1,36
	call	fdt32_ld
.LVL322:
	.loc 3 444 21
	sw	a0,28(sp)
.L89:
	.loc 3 453 5 is_stmt 1
	.loc 3 453 10 is_stmt 0
	lw	s7,28(sp)
	mv	a1,s6
	mv	a0,s1
	mv	a2,s7
	call	fdt_blocks_misordered_
.LVL323:
	.loc 3 453 8
	bne	a0,zero,.L91
	.loc 3 455 9 is_stmt 1
	.loc 3 455 15 is_stmt 0
	mv	a2,s5
	mv	a1,s0
	mv	a0,s1
	call	fdt_move
.LVL324:
	mv	s2,a0
.LVL325:
	.loc 3 456 9 is_stmt 1
	.loc 3 456 12 is_stmt 0
	bne	a0,zero,.L86
	.loc 3 458 9 is_stmt 1
.LVL326:
.LBB254:
.LBB255:
	.loc 2 271 63
	.loc 2 271 115
.LBE255:
.LBE254:
	.loc 1 97 5
.LBB257:
.LBB258:
	.loc 2 275 145 is_stmt 0
	lw	a0,28(sp)
.LVL327:
.LBE258:
.LBE257:
.LBB260:
.LBB256:
	.loc 2 271 129
	li	a5,285212672
	sw	a5,20(s0)
.LVL328:
.LBE256:
.LBE260:
	.loc 3 459 9 is_stmt 1
.LBB261:
.LBB259:
	.loc 2 275 70
	.loc 2 275 122
	.loc 2 275 145 is_stmt 0
	call	cpu_to_fdt32
.LVL329:
	.loc 2 275 143
	sw	a0,36(s0)
.LVL330:
.LBE259:
.LBE261:
	.loc 3 460 9 is_stmt 1
.LBB262:
.LBB263:
	.loc 2 267 65
	.loc 2 267 117
	.loc 2 267 135 is_stmt 0
	mv	a0,s5
	call	cpu_to_fdt32
.LVL331:
	.loc 2 267 133
	sw	a0,4(s0)
.LVL332:
.L86:
.LBE263:
.LBE262:
	.loc 3 491 1
	lw	ra,76(sp)
	.cfi_remember_state
	.cfi_restore 1
	lw	s0,72(sp)
	.cfi_restore 8
.LVL333:
	lw	s1,68(sp)
	.cfi_restore 9
.LVL334:
	lw	s3,60(sp)
	.cfi_restore 19
.LVL335:
	lw	s4,56(sp)
	.cfi_restore 20
	lw	s5,52(sp)
	.cfi_restore 21
.LVL336:
	lw	s6,48(sp)
	.cfi_restore 22
	lw	s7,44(sp)
	.cfi_restore 23
	mv	a0,s2
	lw	s2,64(sp)
	.cfi_restore 18
	addi	sp,sp,80
	.cfi_def_cfa_offset 0
	jr	ra
.LVL337:
.L88:
	.cfi_restore_state
	.loc 3 446 9 is_stmt 1
	.loc 3 446 21 is_stmt 0
	sw	zero,28(sp)
	.loc 3 447 9 is_stmt 1
	.loc 3 447 15 is_stmt 0
	li	s4,9
.L90:
	.loc 3 448 13 is_stmt 1 discriminator 1
	.loc 3 447 15 discriminator 1
	.loc 3 447 16 is_stmt 0 discriminator 1
	lw	a1,28(sp)
	addi	a2,sp,28
	mv	a0,s1
	call	fdt_next_tag
.LVL338:
	.loc 3 447 15 discriminator 1
	bne	a0,s4,.L90
	.loc 3 449 9 is_stmt 1
	.loc 3 449 25 is_stmt 0
	lw	a5,28(sp)
	.loc 3 449 12
	bge	a5,zero,.L89
	mv	s2,a5
.LVL339:
	j	.L86
.LVL340:
.L91:
	.loc 3 465 5 is_stmt 1
	.loc 3 466 27 is_stmt 0
	addi	a0,s1,32
	.loc 3 466 23
	addi	s4,s7,40
	.loc 3 466 27
	call	fdt32_ld
.LVL341:
	.loc 3 466 23
	add	s4,s4,s6
	add	s4,s4,a0
.LVL342:
	.loc 3 468 5 is_stmt 1
	.loc 3 468 8 is_stmt 0
	bgt	s4,s5,.L97
	.loc 3 472 5 is_stmt 1
.LVL343:
	.loc 3 474 5
	.loc 3 474 15 is_stmt 0
	add	a5,s0,s4
	.loc 3 474 8
	bgeu	s1,a5,.L96
	.loc 3 435 17 discriminator 1
	add	a1,s1,s3
	.loc 3 474 38 discriminator 1
	bleu	a1,s0,.L96
	.loc 3 476 9 is_stmt 1
.LVL344:
	.loc 3 477 9
	.loc 3 477 18 is_stmt 0
	add	a5,a1,s4
	.loc 3 477 44
	add	a4,s0,s5
	.loc 3 477 12
	bleu	a5,a4,.L92
.LVL345:
.L97:
	.loc 3 469 16
	li	s2,-3
.LVL346:
	j	.L86
.LVL347:
.L96:
	mv	a1,s0
.LVL348:
.L92:
	.loc 3 481 5 is_stmt 1
	mv	a3,s7
	mv	a2,s6
	mv	a0,s1
	sw	a1,12(sp)
	call	fdt_packblocks_
.LVL349:
	.loc 3 482 5
	lw	a1,12(sp)
	mv	a2,s4
	mv	a0,s0
	call	memmove
.LVL350:
	.loc 3 484 5
.LBB264:
.LBB265:
	.loc 2 266 61
	.loc 2 266 113
.LBE265:
.LBE264:
	.loc 1 97 5
.LBB267:
.LBB266:
	.loc 2 266 125 is_stmt 0
	li	a5,-302116864
	addi	a5,a5,-560
	sw	a5,0(s0)
.LVL351:
.LBE266:
.LBE267:
	.loc 3 485 5 is_stmt 1
.LBB268:
.LBB269:
	.loc 2 267 65
	.loc 2 267 117
	.loc 2 267 135 is_stmt 0
	mv	a0,s5
	call	cpu_to_fdt32
.LVL352:
.LBE269:
.LBE268:
.LBB271:
.LBB272:
	.loc 2 271 129
	li	a5,285212672
	sw	a5,20(s0)
.LBE272:
.LBE271:
.LBB274:
.LBB275:
	.loc 2 272 149
	li	a5,268435456
.LBE275:
.LBE274:
.LBB278:
.LBB270:
	.loc 2 267 133
	sw	a0,4(s0)
.LVL353:
.LBE270:
.LBE278:
	.loc 3 486 5 is_stmt 1
.LBB279:
.LBB273:
	.loc 2 271 63
	.loc 2 271 115
.LBE273:
.LBE279:
	.loc 1 97 5
	.loc 3 487 5
.LBB280:
.LBB276:
	.loc 2 272 73
	.loc 2 272 125
.LBE276:
.LBE280:
	.loc 1 97 5
.LBB281:
.LBB277:
	.loc 2 272 149 is_stmt 0
	sw	a5,24(s0)
.LVL354:
.LBE277:
.LBE281:
	.loc 3 488 5 is_stmt 1
	addi	a0,s1,28
	call	fdt32_ld
.LVL355:
.LBB282:
.LBB283:
	.loc 2 273 71
	.loc 2 273 123
	.loc 2 273 147 is_stmt 0
	call	cpu_to_fdt32
.LVL356:
	.loc 2 273 145
	sw	a0,28(s0)
	.loc 2 273 166
	j	.L86
.LBE283:
.LBE282:
	.cfi_endproc
.LFE61:
	.size	fdt_open_into, .-fdt_open_into
	.section	.text.fdt_pack,"ax",@progbits
	.align	1
	.globl	fdt_pack
	.type	fdt_pack, @function
fdt_pack:
.LFB62:
	.loc 3 494 1 is_stmt 1
	.cfi_startproc
.LVL357:
	.loc 3 495 5
.LBB289:
	.loc 3 497 7
	.loc 3 497 17
.LBE289:
	.loc 3 494 1 is_stmt 0
	addi	sp,sp,-16
	.cfi_def_cfa_offset 16
	sw	s0,8(sp)
	sw	s2,0(sp)
	sw	ra,12(sp)
	sw	s1,4(sp)
	.cfi_offset 8, -8
	.cfi_offset 18, -16
	.cfi_offset 1, -4
	.cfi_offset 9, -12
	.loc 3 494 1
	mv	s0,a0
.LBB290:
	.loc 3 497 29
	call	fdt_rw_probe_
.LVL358:
	mv	s2,a0
.LVL359:
	.loc 3 497 20
	bne	a0,zero,.L100
.LBE290:
	.loc 3 497 69 is_stmt 1 discriminator 2
	.loc 3 499 5 discriminator 2
	.loc 3 499 21 is_stmt 0 discriminator 2
	mv	a0,s0
.LVL360:
	call	fdt_num_mem_rsv
.LVL361:
	mv	s1,a0
.LVL362:
	.loc 3 501 5 is_stmt 1 discriminator 2
	.loc 3 501 47 is_stmt 0 discriminator 2
	addi	a0,s0,36
	call	fdt32_ld
.LVL363:
	.loc 3 499 41 discriminator 2
	addi	a2,s1,1
	.loc 3 501 47 discriminator 2
	mv	a3,a0
	.loc 3 501 5 discriminator 2
	slli	a2,a2,4
.LVL364:
	mv	a1,s0
	mv	a0,s0
	call	fdt_packblocks_
.LVL365:
	.loc 3 502 5 is_stmt 1 discriminator 2
.LBB291:
.LBB292:
	.loc 3 94 5 discriminator 2
	.loc 3 94 14 is_stmt 0 discriminator 2
	addi	a0,s0,12
	call	fdt32_ld
.LVL366:
	mv	s1,a0
.LVL367:
	.loc 3 94 82 discriminator 2
	addi	a0,s0,32
	call	fdt32_ld
.LVL368:
.LBE292:
.LBE291:
.LBB293:
.LBB294:
	.loc 2 267 65 is_stmt 1 discriminator 2
	.loc 2 267 117 discriminator 2
	.loc 2 267 135 is_stmt 0 discriminator 2
	add	a0,s1,a0
.LVL369:
	call	cpu_to_fdt32
.LVL370:
	.loc 2 267 133 discriminator 2
	sw	a0,4(s0)
.LVL371:
.L100:
.LBE294:
.LBE293:
	.loc 3 505 1
	lw	ra,12(sp)
	.cfi_restore 1
	lw	s0,8(sp)
	.cfi_restore 8
.LVL372:
	lw	s1,4(sp)
	.cfi_restore 9
	mv	a0,s2
	lw	s2,0(sp)
	.cfi_restore 18
.LVL373:
	addi	sp,sp,16
	.cfi_def_cfa_offset 0
	jr	ra
	.cfi_endproc
.LFE62:
	.size	fdt_pack, .-fdt_pack
	.text
.Letext0:
	.file 5 "/mnt/d/GitHub/bl_iot_sdk_for_aithinker/toolchain/riscv/Linux/lib/gcc/riscv64-unknown-elf/10.2.0/include/stdint-gcc.h"
	.file 6 "/mnt/d/GitHub/bl_iot_sdk_for_aithinker/components/stage/blfdt/inc/fdt.h"
	.file 7 "/mnt/d/GitHub/bl_iot_sdk_for_aithinker/toolchain/riscv/Linux/riscv64-unknown-elf/include/string.h"