	.file	"fdt_addresses.c"
	.option nopic
	.attribute arch, "rv32i2p0_m2p0_f2p0_c2p0"
	.attribute unaligned_access, 0
	.attribute stack_align, 16
	.text
.Ltext0:
	.cfi_sections	.debug_frame
	.section	.text.fdt_cells,"ax",@progbits
	.align	1
	.type	fdt_cells, @function
fdt_cells:
.LFB40:
	.file 1 "/mnt/d/GitHub/bl_iot_sdk_for_aithinker/components/stage/blfdt/src/fdt_addresses.c"
	.loc 1 60 1
	.cfi_startproc
.LVL0:
	.loc 1 61 5
	.loc 1 62 5
	.loc 1 63 5
	.loc 1 65 5
	.loc 1 60 1 is_stmt 0
	addi	sp,sp,-32
	.cfi_def_cfa_offset 32
	.loc 1 65 9
	addi	a3,sp,12
	.loc 1 60 1
	sw	ra,28(sp)
	.cfi_offset 1, -4
	.loc 1 65 9
	call	fdt_getprop
.LVL1:
	.loc 1 66 5 is_stmt 1
	lw	a4,12(sp)
	.loc 1 66 8 is_stmt 0
	bne	a0,zero,.L2
	.loc 1 67 9 is_stmt 1
	.loc 1 67 16 is_stmt 0
	mv	a0,a4
.LVL2:
.L1:
	.loc 1 77 1
	lw	ra,28(sp)
	.cfi_remember_state
	.cfi_restore 1
	addi	sp,sp,32
	.cfi_def_cfa_offset 0
	jr	ra
.LVL3:
.L2:
	.cfi_restore_state
	.loc 1 69 8
	li	a3,4
	mv	a5,a0
	.loc 1 69 5 is_stmt 1
	.loc 1 74 16 is_stmt 0
	li	a0,-14
.LVL4:
	.loc 1 69 8
	bne	a4,a3,.L1
	.loc 1 72 5 is_stmt 1
	.loc 1 72 11 is_stmt 0
	lw	a5,0(a5)
.LVL5:
.LBB4:
.LBB5:
	.file 2 "/mnt/d/GitHub/bl_iot_sdk_for_aithinker/components/stage/blfdt/inc/libfdt_env.h"
	.loc 2 93 5 is_stmt 1
	.loc 2 93 212 is_stmt 0
	srli	a4,a5,24
	.loc 2 93 12
	slli	a0,a5,24
	or	a0,a0,a4
	.loc 2 93 112
	srli	a4,a5,8
	andi	a4,a4,0xff
	.loc 2 93 163
	srli	a5,a5,16
.LVL6:
	.loc 2 93 117
	slli	a4,a4,16
	.loc 2 93 163
	andi	a5,a5,0xff
	.loc 2 93 12
	or	a0,a0,a4
	.loc 2 93 168
	slli	a5,a5,8
	.loc 2 93 12
	or	a0,a0,a5
.LVL7:
.LBE5:
.LBE4:
	.loc 1 73 5 is_stmt 1
	.loc 1 73 20 is_stmt 0
	addi	a4,a0,-1
	.loc 1 73 8
	li	a5,3
	bleu	a4,a5,.L1
	.loc 1 74 16
	li	a0,-14
.LVL8:
	j	.L1
	.cfi_endproc
.LFE40:
	.size	fdt_cells, .-fdt_cells
	.section	.rodata.fdt_address_cells.str1.4,"aMS",@progbits,1
	.align	2
.LC0:
	.string	"#address-cells"
	.section	.text.fdt_address_cells,"ax",@progbits
	.align	1
	.globl	fdt_address_cells
	.type	fdt_address_cells, @function
fdt_address_cells:
.LFB41:
	.loc 1 80 1 is_stmt 1
	.cfi_startproc
.LVL9:
	.loc 1 81 5
	.loc 1 83 5
	.loc 1 83 11 is_stmt 0
	lui	a2,%hi(.LC0)
	.loc 1 80 1
	addi	sp,sp,-16
	.cfi_def_cfa_offset 16
	.loc 1 83 11
	addi	a2,a2,%lo(.LC0)
	.loc 1 80 1
	sw	ra,12(sp)
	.cfi_offset 1, -4
	.loc 1 83 11
	call	fdt_cells
.LVL10:
	.loc 1 84 5 is_stmt 1
	.loc 1 84 8 is_stmt 0
	li	a5,-1
	bne	a0,a5,.L7
	.loc 1 85 16
	li	a0,2
.LVL11:
.L7:
	.loc 1 87 1
	lw	ra,12(sp)
	.cfi_restore 1
	addi	sp,sp,16
	.cfi_def_cfa_offset 0
	jr	ra
	.cfi_endproc
.LFE41:
	.size	fdt_address_cells, .-fdt_address_cells
	.section	.rodata.fdt_size_cells.str1.4,"aMS",@progbits,1
	.align	2
.LC1:
	.string	"#size-cells"
	.section	.text.fdt_size_cells,"ax",@progbits
	.align	1
	.globl	fdt_size_cells
	.type	fdt_size_cells, @function
fdt_size_cells:
.LFB42:
	.loc 1 90 1 is_stmt 1
	.cfi_startproc
.LVL12:
	.loc 1 91 5
	.loc 1 93 5
	.loc 1 93 11 is_stmt 0
	lui	a2,%hi(.LC1)
	.loc 1 90 1
	addi	sp,sp,-16
	.cfi_def_cfa_offset 16
	.loc 1 93 11
	addi	a2,a2,%lo(.LC1)
	.loc 1 90 1
	sw	ra,12(sp)
	.cfi_offset 1, -4
	.loc 1 93 11
	call	fdt_cells
.LVL13:
	.loc 1 94 5 is_stmt 1
	.loc 1 94 8 is_stmt 0
	li	a5,-1
	bne	a0,a5,.L10
	.loc 1 95 16
	li	a0,1
.LVL14:
.L10:
	.loc 1 97 1
	lw	ra,12(sp)
	.cfi_restore 1
	addi	sp,sp,16
	.cfi_def_cfa_offset 0
	jr	ra
	.cfi_endproc
.LFE42:
	.size	fdt_size_cells, .-fdt_size_cells
	.text
.Letext0:
	.file 3 "/mnt/d/GitHub/bl_iot_sdk_for_aithinker/toolchain/riscv/Linux/lib/gcc/riscv64-unknown-elf/10.2.0/include/stdint-gcc.h"
	.file 4 "/mnt/d/GitHub/bl_iot_sdk_for_aithinker/components/stage/blfdt/inc/libfdt.h"