	.file	"fdt_overlay.c"
	.option nopic
	.attribute arch, "rv32i2p0_m2p0_f2p0_c2p0"
	.attribute unaligned_access, 0
	.attribute stack_align, 16
	.text
.Ltext0:
	.cfi_sections	.debug_frame
	.section	.text.fdt32_to_cpu,"ax",@progbits
	.align	1
	.type	fdt32_to_cpu, @function
fdt32_to_cpu:
.LFB3:
	.file 1 "/mnt/d/GitHub/bl_iot_sdk_for_aithinker/components/stage/blfdt/inc/libfdt_env.h"
	.loc 1 92 1
	.cfi_startproc
.LVL0:
	.loc 1 93 5
	.loc 1 93 212 is_stmt 0
	srli	a4,a0,24
	.loc 1 93 12
	slli	a5,a0,24
	or	a5,a5,a4
	.loc 1 93 112
	srli	a4,a0,8
	andi	a4,a4,0xff
	.loc 1 93 163
	srli	a0,a0,16
.LVL1:
	.loc 1 93 117
	slli	a4,a4,16
	.loc 1 93 163
	andi	a0,a0,0xff
	.loc 1 93 12
	or	a5,a5,a4
	.loc 1 93 168
	slli	a0,a0,8
	.loc 1 94 1
	or	a0,a5,a0
	ret
	.cfi_endproc
.LFE3:
	.size	fdt32_to_cpu, .-fdt32_to_cpu
	.set	cpu_to_fdt32,fdt32_to_cpu
	.section	.text.overlay_phandle_add_offset,"ax",@progbits
	.align	1
	.type	overlay_phandle_add_offset, @function
overlay_phandle_add_offset:
.LFB42:
	.file 2 "/mnt/d/GitHub/bl_iot_sdk_for_aithinker/components/stage/blfdt/src/fdt_overlay.c"
	.loc 2 163 1 is_stmt 1
	.cfi_startproc
.LVL2:
	.loc 2 164 5
	.loc 2 165 5
	.loc 2 166 5
	.loc 2 168 5
	.loc 2 163 1 is_stmt 0
	addi	sp,sp,-48
	.cfi_def_cfa_offset 48
	sw	s0,40(sp)
	.cfi_offset 8, -8
	mv	s0,a3
	.loc 2 168 11
	addi	a3,sp,8
.LVL3:
	.loc 2 163 1
	sw	s1,36(sp)
	sw	s2,32(sp)
	sw	s3,28(sp)
	sw	ra,44(sp)
	.cfi_offset 9, -12
	.cfi_offset 18, -16
	.cfi_offset 19, -20
	.cfi_offset 1, -4
	.loc 2 163 1
	mv	s1,a0
	mv	s2,a1
	mv	s3,a2
	.loc 2 168 11
	call	fdt_getprop
.LVL4:
	.loc 2 169 5 is_stmt 1
	lw	a4,8(sp)
	.loc 2 170 16 is_stmt 0
	mv	a5,a4
	.loc 2 169 8
	beq	a0,zero,.L2
	.loc 2 172 5 is_stmt 1
	.loc 2 172 8 is_stmt 0
	li	a3,4
	.loc 2 173 16
	li	a5,-6
	.loc 2 172 8
	bne	a4,a3,.L2
	.loc 2 175 5 is_stmt 1
	.loc 2 175 15 is_stmt 0
	lw	a0,0(a0)
.LVL5:
	call	fdt32_to_cpu
.LVL6:
	mv	a4,a0
.LVL7:
	.loc 2 176 5 is_stmt 1
	.loc 2 176 18 is_stmt 0
	add	a0,a0,s0
.LVL8:
	.loc 2 177 16
	li	a5,-17
	.loc 2 176 8
	bltu	a0,a4,.L2
	.loc 2 179 5 is_stmt 1
.LVL9:
	.loc 2 180 5
	.loc 2 180 8 is_stmt 0
	li	a4,-1
	beq	a0,a4,.L2
	.loc 2 183 5 is_stmt 1
.LVL10:
.LBB4:
.LBB5:
	.file 3 "/mnt/d/GitHub/bl_iot_sdk_for_aithinker/components/stage/blfdt/inc/libfdt.h"
	.loc 3 1259 5
	.loc 3 1259 19 is_stmt 0
	call	cpu_to_fdt32
.LVL11:
	.loc 3 1259 13
	sw	a0,12(sp)
	.loc 3 1260 5 is_stmt 1
	.loc 3 1260 12 is_stmt 0
	li	a4,4
	addi	a3,sp,12
	mv	a2,s3
	mv	a1,s2
	mv	a0,s1
	call	fdt_setprop_inplace
.LVL12:
	mv	a5,a0
.LVL13:
.L2:
.LBE5:
.LBE4:
	.loc 2 184 1
	lw	ra,44(sp)
	.cfi_restore 1
	lw	s0,40(sp)
	.cfi_restore 8
.LVL14:
	lw	s1,36(sp)
	.cfi_restore 9
.LVL15:
	lw	s2,32(sp)
	.cfi_restore 18
.LVL16:
	lw	s3,28(sp)
	.cfi_restore 19
.LVL17:
	mv	a0,a5
	addi	sp,sp,48
	.cfi_def_cfa_offset 0
	jr	ra
	.cfi_endproc
.LFE42:
	.size	overlay_phandle_add_offset, .-overlay_phandle_add_offset
	.section	.rodata.overlay_adjust_node_phandles.str1.4,"aMS",@progbits,1
	.align	2
.LC0:
	.string	"phandle"
	.align	2
.LC1:
	.string	"linux,phandle"
	.section	.text.overlay_adjust_node_phandles,"ax",@progbits
	.align	1
	.type	overlay_adjust_node_phandles, @function
overlay_adjust_node_phandles:
.LFB43:
	.loc 2 203 1 is_stmt 1
	.cfi_startproc
.LVL18:
	.loc 2 204 5
	.loc 2 205 5
	.loc 2 207 5
	.loc 2 203 1 is_stmt 0
	addi	sp,sp,-48
	.cfi_def_cfa_offset 48
	sw	s1,36(sp)
	.loc 2 207 11
	mv	a3,a2
	.cfi_offset 9, -12
	.loc 2 203 1
	mv	s1,a2
	.loc 2 207 11
	lui	a2,%hi(.LC0)
.LVL19:
	addi	a2,a2,%lo(.LC0)
	.loc 2 203 1
	sw	s0,40(sp)
	sw	s2,32(sp)
	sw	s3,28(sp)
	sw	ra,44(sp)
	.cfi_offset 8, -8
	.cfi_offset 18, -16
	.cfi_offset 19, -20
	.cfi_offset 1, -4
	.loc 2 203 1
	mv	s0,a0
	mv	s2,a1
	.loc 2 207 11
	call	overlay_phandle_add_offset
.LVL20:
	.loc 2 208 5 is_stmt 1
	.loc 2 208 13 is_stmt 0
	addi	a5,a0,1
	.loc 2 208 8
	li	s3,1
	bgtu	a5,s3,.L9
	.loc 2 211 5 is_stmt 1
	.loc 2 211 11 is_stmt 0
	lui	a2,%hi(.LC1)
	mv	a3,s1
	addi	a2,a2,%lo(.LC1)
	mv	a1,s2
	mv	a0,s0
.LVL21:
	call	overlay_phandle_add_offset
.LVL22:
	.loc 2 212 5 is_stmt 1
	.loc 2 212 13 is_stmt 0
	addi	a5,a0,1
	.loc 2 212 8
	bgtu	a5,s3,.L9
	.loc 2 215 5 is_stmt 1
	.loc 2 215 18 is_stmt 0
	mv	a1,s2
	mv	a0,s0
.LVL23:
	call	fdt_first_subnode
.LVL24:
.L14:
	.loc 2 215 69 discriminator 2
	mv	a1,a0
.LVL25:
	.loc 2 215 49 is_stmt 1 discriminator 2
	.loc 2 215 5 is_stmt 0 discriminator 2
	bge	a0,zero,.L12
	.loc 2 221 12
	li	a0,0
.LVL26:
.L9:
	.loc 2 222 1
	lw	ra,44(sp)
	.cfi_remember_state
	.cfi_restore 1
	lw	s0,40(sp)
	.cfi_restore 8
.LVL27:
	lw	s1,36(sp)
	.cfi_restore 9
.LVL28:
	lw	s2,32(sp)
	.cfi_restore 18
.LVL29:
	lw	s3,28(sp)
	.cfi_restore 19
	addi	sp,sp,48
	.cfi_def_cfa_offset 0
	jr	ra
.LVL30:
.L12:
	.cfi_restore_state
	.loc 2 216 9 is_stmt 1
	.loc 2 216 15 is_stmt 0
	mv	a2,s1
	mv	a0,s0
.LVL31:
	sw	a1,12(sp)
	call	overlay_adjust_node_phandles
.LVL32:
	.loc 2 217 9 is_stmt 1
	.loc 2 217 12 is_stmt 0
	bne	a0,zero,.L9
	.loc 2 215 61 is_stmt 1 discriminator 2
	.loc 2 215 69 is_stmt 0 discriminator 2
	lw	a1,12(sp)
	mv	a0,s0
.LVL33:
	call	fdt_next_subnode
.LVL34:
	j	.L14
	.cfi_endproc
.LFE43:
	.size	overlay_adjust_node_phandles, .-overlay_adjust_node_phandles
	.section	.text.overlay_update_local_node_references,"ax",@progbits
	.align	1
	.type	overlay_update_local_node_references, @function
overlay_update_local_node_references:
.LFB45:
	.loc 2 269 1 is_stmt 1
	.cfi_startproc
.LVL35:
	.loc 2 270 5
	.loc 2 271 5
	.loc 2 272 5
	.loc 2 274 5
	.loc 2 269 1 is_stmt 0
	addi	sp,sp,-80
	.cfi_def_cfa_offset 80
	sw	s2,64(sp)
	.cfi_offset 18, -16
	mv	s2,a1
	.loc 2 274 23
	mv	a1,a2
.LVL36:
	.loc 2 269 1
	sw	s0,72(sp)
	sw	s1,68(sp)
	sw	s3,60(sp)
	sw	s4,56(sp)
	sw	s7,44(sp)
	sw	ra,76(sp)
	sw	s5,52(sp)
	sw	s6,48(sp)
	sw	s8,40(sp)
	.cfi_offset 8, -8
	.cfi_offset 9, -12
	.cfi_offset 19, -20
	.cfi_offset 20, -24
	.cfi_offset 23, -36
	.cfi_offset 1, -4
	.cfi_offset 21, -28
	.cfi_offset 22, -32
	.cfi_offset 24, -40
	.loc 2 269 1
	mv	s0,a0
	mv	s4,a2
	mv	s3,a3
	.loc 2 274 23
	call	fdt_first_property_offset
.LVL37:
	mv	s1,a0
.LVL38:
.LBB6:
.LBB7:
	.loc 2 321 16
	li	s7,-3
.L16:
.LBE7:
.LBE6:
	.loc 2 274 68 is_stmt 1 discriminator 1
	.loc 2 274 5 is_stmt 0 discriminator 1
	bge	s1,zero,.L24
	.loc 2 329 5 is_stmt 1
	.loc 2 329 24 is_stmt 0
	mv	a1,s4
	mv	a0,s0
	call	fdt_first_subnode
.LVL39:
	mv	s1,a0
.LVL40:
.LBB9:
	.loc 2 336 12
	li	s4,-1
.LVL41:
.L25:
.LBE9:
	.loc 2 329 61 is_stmt 1 discriminator 1
	.loc 2 329 5 is_stmt 0 discriminator 1
	bge	s1,zero,.L26
	.loc 2 349 12
	li	a0,0
.LVL42:
.L15:
	.loc 2 350 1
	lw	ra,76(sp)
	.cfi_remember_state
	.cfi_restore 1
	lw	s0,72(sp)
	.cfi_restore 8
.LVL43:
	lw	s1,68(sp)
	.cfi_restore 9
	lw	s2,64(sp)
	.cfi_restore 18
.LVL44:
	lw	s3,60(sp)
	.cfi_restore 19
.LVL45:
	lw	s4,56(sp)
	.cfi_restore 20
	lw	s5,52(sp)
	.cfi_restore 21
	lw	s6,48(sp)
	.cfi_restore 22
	lw	s7,44(sp)
	.cfi_restore 23
	lw	s8,40(sp)
	.cfi_restore 24
	addi	sp,sp,80
	.cfi_def_cfa_offset 0
	jr	ra
.LVL46:
.L24:
	.cfi_restore_state
.LBB10:
	.loc 2 275 9 is_stmt 1
	.loc 2 276 9
	.loc 2 277 9
	.loc 2 278 9
	.loc 2 279 9
	.loc 2 280 9
	.loc 2 282 9
	.loc 2 282 21 is_stmt 0
	addi	a3,sp,20
	addi	a2,sp,16
	mv	a1,s1
	mv	a0,s0
	call	fdt_getprop_by_offset
.LVL47:
	mv	s6,a0
.LVL48:
	.loc 2 284 9 is_stmt 1
	lw	a0,20(sp)
.LVL49:
	.loc 2 284 12 is_stmt 0
	beq	s6,zero,.L15
	.loc 2 287 9 is_stmt 1
	.loc 2 287 23 is_stmt 0
	andi	a5,a0,3
	.loc 2 287 12
	bne	a5,zero,.L29
	.loc 2 290 9 is_stmt 1
	.loc 2 290 20 is_stmt 0
	lw	a2,16(sp)
	addi	a3,sp,24
	mv	a1,s2
	mv	a0,s0
	call	fdt_getprop
.LVL50:
	mv	s8,a0
.LVL51:
	.loc 2 291 9 is_stmt 1
	.loc 2 291 12 is_stmt 0
	bne	a0,zero,.L27
	.loc 2 292 13 is_stmt 1
	.loc 2 292 26 is_stmt 0
	lw	a0,24(sp)
.LVL52:
	.loc 2 292 16
	li	a5,-1
	bne	a0,a5,.L15
.LVL53:
.L29:
.LBE10:
.LBB11:
	.loc 2 337 20
	li	a0,-16
	j	.L15
.LVL54:
.L22:
.LBE11:
.LBB12:
.LBB8:
	.loc 2 299 13 is_stmt 1
	.loc 2 300 13
	.loc 2 302 13
	.loc 2 302 23 is_stmt 0
	slli	a5,s5,2
	add	a5,s6,a5
	lw	a0,0(a5)
	call	fdt32_to_cpu
.LVL55:
	.loc 2 310 13 is_stmt 1
	add	a1,s8,a0
	li	a2,4
	sw	a0,12(sp)
	addi	a0,sp,28
.LVL56:
	call	memcpy
.LVL57:
	.loc 2 312 13
	.loc 2 312 36 is_stmt 0
	lw	a0,28(sp)
	call	fdt32_to_cpu
.LVL58:
	.loc 2 312 23
	add	a0,a0,s3
	call	cpu_to_fdt32
.LVL59:
	.loc 2 314 19
	lw	a2,16(sp)
	.loc 2 312 21
	sw	a0,28(sp)
	.loc 2 314 13 is_stmt 1
	.loc 2 317 35 is_stmt 0
	mv	a0,a2
	sw	a2,8(sp)
	call	strlen
.LVL60:
	.loc 2 314 19
	lw	a4,12(sp)
	lw	a2,8(sp)
	.loc 2 317 35
	mv	a3,a0
	.loc 2 314 19
	li	a6,4
	addi	a5,sp,28
	mv	a1,s2
	mv	a0,s0
	call	fdt_setprop_inplace_namelen_partial
.LVL61:
	.loc 2 321 13 is_stmt 1
	.loc 2 321 16 is_stmt 0
	beq	a0,s7,.L29
	.loc 2 324 13 is_stmt 1
	.loc 2 324 16 is_stmt 0
	bne	a0,zero,.L15
.LBE8:
	.loc 2 298 57 is_stmt 1
	.loc 2 298 58 is_stmt 0
	addi	s5,s5,1
.LVL62:
.L20:
	.loc 2 298 21 is_stmt 1 discriminator 1
	.loc 2 298 36 is_stmt 0 discriminator 1
	lw	a5,20(sp)
	srli	a5,a5,2
	.loc 2 298 9 discriminator 1
	bgtu	a5,s5,.L22
.LBE12:
	.loc 2 274 85 is_stmt 1
	.loc 2 274 98 is_stmt 0
	mv	a1,s1
	mv	a0,s0
	call	fdt_next_property_offset
.LVL63:
	mv	s1,a0
.LVL64:
	j	.L16
.LVL65:
.L27:
.LBB13:
	.loc 2 298 16
	li	s5,0
	j	.L20
.LVL66:
.L26:
.LBE13:
.LBB14:
	.loc 2 330 9 is_stmt 1
	.loc 2 330 40 is_stmt 0
	li	a2,0
	mv	a1,s1
	mv	a0,s0
	call	fdt_get_name
.LVL67:
	mv	a2,a0
.LVL68:
	.loc 2 332 9 is_stmt 1
	.loc 2 334 9
	.loc 2 334 22 is_stmt 0
	mv	a1,s2
	mv	a0,s0
.LVL69:
	call	fdt_subnode_offset
.LVL70:
	.loc 2 336 9 is_stmt 1
	.loc 2 336 12 is_stmt 0
	beq	a0,s4,.L29
	.loc 2 338 9 is_stmt 1
	.loc 2 338 12 is_stmt 0
	blt	a0,zero,.L15
	.loc 2 341 9 is_stmt 1
	.loc 2 341 15 is_stmt 0
	mv	a1,a0
	mv	a3,s3
	mv	a2,s1
	mv	a0,s0
.LVL71:
	call	overlay_update_local_node_references
.LVL72:
	.loc 2 345 9 is_stmt 1
	.loc 2 345 12 is_stmt 0
	bne	a0,zero,.L15
.LBE14:
	.loc 2 329 79 is_stmt 1 discriminator 2
	.loc 2 329 93 is_stmt 0 discriminator 2
	mv	a1,s1
	mv	a0,s0
.LVL73:
	call	fdt_next_subnode
.LVL74:
	mv	s1,a0
.LVL75:
	j	.L25
	.cfi_endproc
.LFE45:
	.size	overlay_update_local_node_references, .-overlay_update_local_node_references
	.section	.rodata.overlay_get_target.str1.4,"aMS",@progbits,1
	.align	2
.LC2:
	.string	"target"
	.align	2
.LC3:
	.string	"target-path"
	.section	.text.overlay_get_target,"ax",@progbits
	.align	1
	.type	overlay_get_target, @function
overlay_get_target:
.LFB41:
	.loc 2 105 1 is_stmt 1
	.cfi_startproc
.LVL76:
	.loc 2 106 5
	.loc 2 107 5
	.loc 2 108 5
	.loc 2 105 1 is_stmt 0
	addi	sp,sp,-48
	.cfi_def_cfa_offset 48
	sw	s0,40(sp)
	sw	s3,28(sp)
	.cfi_offset 8, -8
	.cfi_offset 19, -20
	mv	s0,a1
	mv	s3,a2
.LBB17:
.LBB18:
	.loc 2 78 11
	lui	a2,%hi(.LC2)
.LVL77:
.LBE18:
.LBE17:
	.loc 2 105 1
	sw	s1,36(sp)
	sw	s2,32(sp)
	.cfi_offset 9, -12
	.cfi_offset 18, -16
	mv	s1,a3
	mv	s2,a0
.LBB21:
.LBB19:
	.loc 2 78 11
	addi	a3,sp,12
.LVL78:
	addi	a2,a2,%lo(.LC2)
	mv	a1,s3
.LVL79:
	mv	a0,s0
.LVL80:
.LBE19:
.LBE21:
	.loc 2 105 1
	sw	ra,44(sp)
	.cfi_offset 1, -4
	.loc 2 108 9
	sw	zero,8(sp)
	.loc 2 111 5 is_stmt 1
.LVL81:
.LBB22:
.LBB20:
	.loc 2 75 5
	.loc 2 76 5
	.loc 2 78 5
	.loc 2 78 11 is_stmt 0
	call	fdt_getprop
.LVL82:
	.loc 2 79 5 is_stmt 1
	.loc 2 79 8 is_stmt 0
	beq	a0,zero,.L33
	.loc 2 82 5 is_stmt 1
	.loc 2 82 8 is_stmt 0
	lw	a4,12(sp)
	li	a5,4
	bne	a4,a5,.L34
	.loc 2 82 35
	lw	a0,0(a0)
.LVL83:
	call	fdt32_to_cpu
.LVL84:
	.loc 2 82 31
	li	a5,-1
	.loc 2 82 35
	mv	a1,a0
	.loc 2 82 31
	bne	a0,a5,.L35
.L34:
	.loc 2 83 9 is_stmt 1
.LVL85:
.LBE20:
.LBE22:
	.loc 2 112 5
	.loc 2 113 16 is_stmt 0
	li	a0,-6
.LVL86:
.L31:
	.loc 2 145 1
	lw	ra,44(sp)
	.cfi_remember_state
	.cfi_restore 1
	lw	s0,40(sp)
	.cfi_restore 8
	lw	s1,36(sp)
	.cfi_restore 9
.LVL87:
	lw	s2,32(sp)
	.cfi_restore 18
.LVL88:
	lw	s3,28(sp)
	.cfi_restore 19
.LVL89:
	addi	sp,sp,48
	.cfi_def_cfa_offset 0
	jr	ra
.LVL90:
.L35:
	.cfi_restore_state
	.loc 2 112 5 is_stmt 1
	.loc 2 116 5
	.loc 2 116 8 is_stmt 0
	bne	a0,zero,.L37
.LVL91:
.L33:
	.loc 2 118 9 is_stmt 1
	.loc 2 118 16 is_stmt 0
	lui	a2,%hi(.LC3)
	mv	a0,s0
	addi	a3,sp,8
	addi	a2,a2,%lo(.LC3)
	mv	a1,s3
	call	fdt_getprop
.LVL92:
	mv	s0,a0
.LVL93:
	.loc 2 119 9 is_stmt 1
	.loc 2 119 12 is_stmt 0
	beq	a0,zero,.L38
	.loc 2 120 13 is_stmt 1
	.loc 2 120 19 is_stmt 0
	mv	a1,a0
	mv	a0,s2
	call	fdt_path_offset
.LVL94:
.L39:
	.loc 2 133 5 is_stmt 1
	.loc 2 133 8 is_stmt 0
	bge	a0,zero,.L40
	.loc 2 133 17 discriminator 1
	lw	a4,8(sp)
	li	a5,-1
	bne	a4,a5,.L31
	.loc 2 134 13
	li	a0,-16
.LVL95:
	j	.L31
.L38:
	.loc 2 122 13 is_stmt 1
	.loc 2 122 17 is_stmt 0
	lw	a0,8(sp)
.LVL96:
	j	.L39
.LVL97:
.L37:
	.loc 2 124 9 is_stmt 1
	.loc 2 124 15 is_stmt 0
	mv	a0,s2
.LVL98:
	call	fdt_node_offset_by_phandle
.LVL99:
	.loc 2 107 17
	li	s0,0
.LVL100:
	j	.L39
.LVL101:
.L40:
	.loc 2 137 5 is_stmt 1
	.loc 2 141 5
	.loc 2 141 8 is_stmt 0
	beq	s1,zero,.L31
	.loc 2 142 9 is_stmt 1
	.loc 2 142 16 is_stmt 0
	sw	s0,0(s1)
	j	.L31
	.cfi_endproc
.LFE41:
	.size	overlay_get_target, .-overlay_get_target
	.section	.text.overlay_apply_node,"ax",@progbits
	.align	1
	.type	overlay_apply_node, @function
overlay_apply_node:
.LFB50:
	.loc 2 603 1 is_stmt 1
	.cfi_startproc
.LVL102:
	.loc 2 604 5
	.loc 2 605 5
	.loc 2 607 5
	.loc 2 603 1 is_stmt 0
	addi	sp,sp,-64
	.cfi_def_cfa_offset 64
	sw	s2,48(sp)
	sw	s3,44(sp)
	.cfi_offset 18, -16
	.cfi_offset 19, -20
	mv	s2,a0
	mv	s3,a1
	.loc 2 607 21
	mv	a0,a2
.LVL103:
	mv	a1,a3
.LVL104:
	.loc 2 603 1
	sw	s0,56(sp)
	sw	s1,52(sp)
	sw	s4,40(sp)
	sw	s5,36(sp)
	sw	ra,60(sp)
	.cfi_offset 8, -8
	.cfi_offset 9, -12
	.cfi_offset 20, -24
	.cfi_offset 21, -28
	.cfi_offset 1, -4
	.loc 2 603 1
	mv	s1,a2
	mv	s4,a3
	.loc 2 607 21
	call	fdt_first_property_offset
.LVL105:
	mv	s0,a0
.LVL106:
.LBB23:
	.loc 2 615 12
	li	s5,-1
.L47:
.LBE23:
	.loc 2 607 60 is_stmt 1 discriminator 1
	.loc 2 607 5 is_stmt 0 discriminator 1
	bge	s0,zero,.L50
	.loc 2 625 5 is_stmt 1
	.loc 2 625 20 is_stmt 0
	mv	a1,s4
	mv	a0,s1
	call	fdt_first_subnode
.LVL107:
	mv	s0,a0
.LVL108:
.LBB24:
	.loc 2 631 12
	li	s4,-2
.LVL109:
	.loc 2 633 16
	li	s5,-1
.L51:
.LBE24:
	.loc 2 625 51 is_stmt 1 discriminator 1
	.loc 2 625 5 is_stmt 0 discriminator 1
	bge	s0,zero,.L53
	.loc 2 645 12
	li	a0,0
.LVL110:
.L46:
	.loc 2 646 1
	lw	ra,60(sp)
	.cfi_remember_state
	.cfi_restore 1
	lw	s0,56(sp)
	.cfi_restore 8
	lw	s1,52(sp)
	.cfi_restore 9
.LVL111:
	lw	s2,48(sp)
	.cfi_restore 18
.LVL112:
	lw	s3,44(sp)
	.cfi_restore 19
.LVL113:
	lw	s4,40(sp)
	.cfi_restore 20
	lw	s5,36(sp)
	.cfi_restore 21
	addi	sp,sp,64
	.cfi_def_cfa_offset 0
	jr	ra
.LVL114:
.L50:
	.cfi_restore_state
.LBB25:
	.loc 2 608 9 is_stmt 1
	.loc 2 609 9
	.loc 2 610 9
	.loc 2 611 9
	.loc 2 613 9
	.loc 2 613 16 is_stmt 0
	addi	a3,sp,28
	addi	a2,sp,24
	mv	a1,s0
	mv	a0,s1
	call	fdt_getprop_by_offset
.LVL115:
	mv	a3,a0
.LVL116:
	.loc 2 615 9 is_stmt 1
	.loc 2 615 22 is_stmt 0
	lw	a0,28(sp)
.LVL117:
	.loc 2 615 12
	beq	a0,s5,.L55
	.loc 2 617 9 is_stmt 1
	.loc 2 617 12 is_stmt 0
	blt	a0,zero,.L46
	.loc 2 620 9 is_stmt 1
	.loc 2 620 15 is_stmt 0
	lw	a2,24(sp)
	mv	a4,a0
	mv	a1,s3
	mv	a0,s2
	call	fdt_setprop
.LVL118:
	.loc 2 621 9 is_stmt 1
	.loc 2 621 12 is_stmt 0
	bne	a0,zero,.L46
.LBE25:
	.loc 2 607 75 is_stmt 1
	.loc 2 607 86 is_stmt 0
	mv	a1,s0
	mv	a0,s1
.LVL119:
	call	fdt_next_property_offset
.LVL120:
	mv	s0,a0
.LVL121:
	j	.L47
.LVL122:
.L53:
.LBB26:
	.loc 2 626 9 is_stmt 1
	.loc 2 626 28 is_stmt 0
	li	a2,0
	mv	a1,s0
	mv	a0,s1
	call	fdt_get_name
.LVL123:
	mv	a2,a0
.LVL124:
	.loc 2 627 9 is_stmt 1
	.loc 2 628 9
	.loc 2 630 9
	.loc 2 630 17 is_stmt 0
	sw	a0,12(sp)
	mv	a1,s3
	mv	a0,s2
.LVL125:
	call	fdt_add_subnode
.LVL126:
	.loc 2 631 9 is_stmt 1
	.loc 2 631 12 is_stmt 0
	lw	a2,12(sp)
	bne	a0,s4,.L52
	.loc 2 632 13 is_stmt 1
	.loc 2 632 21 is_stmt 0
	mv	a1,s3
	mv	a0,s2
.LVL127:
	call	fdt_subnode_offset
.LVL128:
	.loc 2 633 13 is_stmt 1
	.loc 2 633 16 is_stmt 0
	beq	a0,s5,.L55
.L52:
	.loc 2 637 9 is_stmt 1
	.loc 2 637 12 is_stmt 0
	blt	a0,zero,.L46
	.loc 2 640 9 is_stmt 1
	.loc 2 640 15 is_stmt 0
	mv	a1,a0
	mv	a3,s0
	mv	a2,s1
	mv	a0,s2
.LVL129:
	call	overlay_apply_node
.LVL130:
	.loc 2 641 9 is_stmt 1
	.loc 2 641 12 is_stmt 0
	bne	a0,zero,.L46
.LBE26:
	.loc 2 625 65 is_stmt 1 discriminator 2
	.loc 2 625 75 is_stmt 0 discriminator 2
	mv	a1,s0
	mv	a0,s1
.LVL131:
	call	fdt_next_subnode
.LVL132:
	mv	s0,a0
.LVL133:
	j	.L51
.LVL134:
.L55:
.LBB27:
	.loc 2 634 24
	li	a0,-13
	j	.L46
.LBE27:
	.cfi_endproc
.LFE50:
	.size	overlay_apply_node, .-overlay_apply_node
	.section	.rodata.fdt_overlay_apply.str1.4,"aMS",@progbits,1
	.align	2
.LC4:
	.string	"/__local_fixups__"
	.align	2
.LC5:
	.string	"/__fixups__"
	.align	2
.LC6:
	.string	"/__symbols__"
	.align	2
.LC7:
	.string	"__overlay__"
	.align	2
.LC8:
	.string	"__symbols__"
	.align	2
.LC9:
	.string	"/__overlay__/"
	.section	.text.fdt_overlay_apply,"ax",@progbits
	.align	1
	.globl	fdt_overlay_apply
	.type	fdt_overlay_apply, @function
fdt_overlay_apply:
.LFB54:
	.loc 2 865 1 is_stmt 1
	.cfi_startproc
.LVL135:
	.loc 2 866 5
	.loc 2 865 1 is_stmt 0
	addi	sp,sp,-112
	.cfi_def_cfa_offset 112
	sw	ra,108(sp)
	sw	s0,104(sp)
	sw	s1,100(sp)
	sw	s2,96(sp)
	sw	s3,92(sp)
	.cfi_offset 1, -4
	.cfi_offset 8, -8
	.cfi_offset 9, -12
	.cfi_offset 18, -16
	.cfi_offset 19, -20
	mv	s1,a0
	mv	s0,a1
	sw	s4,88(sp)
	sw	s5,84(sp)
	sw	s6,80(sp)
	sw	s7,76(sp)
	sw	s8,72(sp)
	sw	s9,68(sp)
	sw	s10,64(sp)
	sw	s11,60(sp)
	.cfi_offset 20, -24
	.cfi_offset 21, -28
	.cfi_offset 22, -32
	.cfi_offset 23, -36
	.cfi_offset 24, -40
	.cfi_offset 25, -44
	.cfi_offset 26, -48
	.cfi_offset 27, -52
	.loc 2 866 22
	call	fdt_get_max_phandle
.LVL136:
	mv	s3,a0
.LVL137:
	.loc 2 867 5 is_stmt 1
.LBB62:
	.loc 2 869 7
	.loc 2 869 17
	.loc 2 869 29 is_stmt 0
	mv	a0,s1
.LVL138:
	call	fdt_ro_probe_
.LVL139:
	mv	s2,a0
.LVL140:
	.loc 2 869 20
	bne	a0,zero,.L57
.LBE62:
	.loc 2 869 69 is_stmt 1 discriminator 2
.LBB63:
	.loc 2 870 7 discriminator 2
	.loc 2 870 17 discriminator 2
	.loc 2 870 29 is_stmt 0 discriminator 2
	mv	a0,s0
.LVL141:
	call	fdt_ro_probe_
.LVL142:
	mv	s2,a0
.LVL143:
	.loc 2 870 20 discriminator 2
	bne	a0,zero,.L57
.LBE63:
	.loc 2 870 70 is_stmt 1
	.loc 2 872 5
.LVL144:
.LBB64:
.LBB65:
	.loc 2 243 5
	.loc 2 243 12 is_stmt 0
	mv	a2,s3
	li	a1,0
	mv	a0,s0
.LVL145:
	call	overlay_adjust_node_phandles
.LVL146:
	mv	s2,a0
.LVL147:
.LBE65:
.LBE64:
	.loc 2 873 5 is_stmt 1
	mv	s11,a0
	.loc 2 873 8 is_stmt 0
	bne	a0,zero,.L59
	.loc 2 876 5 is_stmt 1
.LVL148:
.LBB66:
.LBB67:
	.loc 2 371 5
	.loc 2 373 5
	.loc 2 373 14 is_stmt 0
	lui	a1,%hi(.LC4)
	addi	a1,a1,%lo(.LC4)
	mv	a0,s0
.LVL149:
	call	fdt_path_offset
.LVL150:
	mv	s11,a0
.LVL151:
	.loc 2 374 5 is_stmt 1
	.loc 2 374 8 is_stmt 0
	bge	a0,zero,.L60
	.loc 2 376 9 is_stmt 1
	.loc 2 376 12 is_stmt 0
	li	a5,-1
	bne	a0,a5,.L59
.LVL152:
.L63:
.LBE67:
.LBE66:
	.loc 2 880 5 is_stmt 1
.LBB69:
.LBB70:
	.loc 2 556 5
	.loc 2 557 5
	.loc 2 560 5
	.loc 2 560 18 is_stmt 0
	lui	a1,%hi(.LC5)
	addi	a1,a1,%lo(.LC5)
	mv	a0,s0
	call	fdt_path_offset
.LVL153:
	.loc 2 561 8
	li	s3,-1
.LVL154:
	.loc 2 560 18
	mv	s11,a0
.LVL155:
	.loc 2 561 5 is_stmt 1
	.loc 2 561 8 is_stmt 0
	bne	a0,s3,.L126
.LVL156:
.L61:
.LBE70:
.LBE69:
	.loc 2 884 5 is_stmt 1
.LBB106:
.LBB107:
	.loc 2 665 5
	.loc 2 667 5
	.loc 2 667 21 is_stmt 0
	li	a1,0
	mv	a0,s0
	call	fdt_first_subnode
.LVL157:
	mv	s3,a0
.LVL158:
.LBB108:
	.loc 2 676 19
	lui	s4,%hi(.LC7)
	.loc 2 677 12
	li	s5,-1
.L64:
.LBE108:
	.loc 2 667 49 is_stmt 1
	.loc 2 667 5 is_stmt 0
	bge	s3,zero,.L80
.LVL159:
.LBE107:
.LBE106:
	.loc 2 888 5 is_stmt 1
.LBB114:
.LBB115:
	.loc 2 741 5
	.loc 2 742 5
	.loc 2 743 5
	.loc 2 744 5
	.loc 2 745 5
	.loc 2 746 5
	.loc 2 747 5
	.loc 2 748 5
	.loc 2 749 5
	.loc 2 750 5
	.loc 2 752 5
	.loc 2 752 14 is_stmt 0
	lui	s5,%hi(.LC8)
	addi	a2,s5,%lo(.LC8)
	li	a1,0
	mv	a0,s0
	call	fdt_subnode_offset
.LVL160:
	mv	s4,a0
.LVL161:
	.loc 2 755 5 is_stmt 1
	.loc 2 755 8 is_stmt 0
	blt	a0,zero,.L82
	.loc 2 758 5 is_stmt 1
	.loc 2 758 16 is_stmt 0
	addi	a2,s5,%lo(.LC8)
	li	a1,0
	mv	a0,s1
.LVL162:
	call	fdt_subnode_offset
.LVL163:
	.loc 2 761 8
	li	a5,-1
	.loc 2 758 16
	mv	s3,a0
.LVL164:
	.loc 2 761 5 is_stmt 1
	.loc 2 761 8 is_stmt 0
	bne	a0,a5,.L83
	.loc 2 762 9 is_stmt 1
	.loc 2 762 20 is_stmt 0
	addi	a2,s5,%lo(.LC8)
	li	a1,0
	mv	a0,s1
.LVL165:
	call	fdt_add_subnode
.LVL166:
	mv	s3,a0
.LVL167:
.L83:
	.loc 2 765 5 is_stmt 1
	.loc 2 765 8 is_stmt 0
	blt	s3,zero,.L110
	.loc 2 769 5 is_stmt 1
	.loc 2 769 17 is_stmt 0
	mv	a1,s4
	mv	a0,s0
.LVL168:
	call	fdt_first_property_offset
.LVL169:
	mv	s6,a0
.LVL170:
	.loc 2 783 12
	li	s9,47
.LVL171:
.L85:
	.loc 2 769 58 is_stmt 1
	.loc 2 769 5 is_stmt 0
	blt	s6,zero,.L82
	.loc 2 770 9 is_stmt 1
	.loc 2 770 16 is_stmt 0
	addi	a2,sp,32
	addi	a3,sp,28
	mv	a1,s6
	mv	a0,s0
.LVL172:
	call	fdt_getprop_by_offset
.LVL173:
	lw	a2,28(sp)
	mv	s7,a0
.LVL174:
	.loc 2 771 9 is_stmt 1
	.loc 2 771 12 is_stmt 0
	bne	a0,zero,.L86
	.loc 2 772 13 is_stmt 1
	.loc 2 772 20 is_stmt 0
	mv	s11,a2
.LVL175:
.LBE115:
.LBE114:
	.loc 2 889 5 is_stmt 1
	.loc 2 889 8 is_stmt 0
	bne	a2,zero,.L59
.LVL176:
.L82:
	.loc 2 895 5 is_stmt 1
.LBB124:
.LBB125:
	.loc 3 266 61
	.loc 3 266 113
.LBE125:
.LBE124:
	.loc 1 93 5
.LBB127:
.LBB126:
	.loc 3 266 125 is_stmt 0
	li	a5,-1
	sw	a5,0(s0)
.LVL177:
.L57:
.LBE126:
.LBE127:
	.loc 2 912 1
	lw	ra,108(sp)
	.cfi_remember_state
	.cfi_restore 1
	lw	s0,104(sp)
	.cfi_restore 8
.LVL178:
	lw	s1,100(sp)
	.cfi_restore 9
.LVL179:
	lw	s3,92(sp)
	.cfi_restore 19
	lw	s4,88(sp)
	.cfi_restore 20
	lw	s5,84(sp)
	.cfi_restore 21
	lw	s6,80(sp)
	.cfi_restore 22
	lw	s7,76(sp)
	.cfi_restore 23
	lw	s8,72(sp)
	.cfi_restore 24
	lw	s9,68(sp)
	.cfi_restore 25
	lw	s10,64(sp)
	.cfi_restore 26
	lw	s11,60(sp)
	.cfi_restore 27
	mv	a0,s2
	lw	s2,96(sp)
	.cfi_restore 18
	addi	sp,sp,112
	.cfi_def_cfa_offset 0
	jr	ra
.LVL180:
.L60:
	.cfi_restore_state
.LBB128:
.LBB68:
	.loc 2 385 5 is_stmt 1
	.loc 2 385 12 is_stmt 0
	mv	a2,a0
	mv	a3,s3
	li	a1,0
	mv	a0,s0
.LVL181:
	call	overlay_update_local_node_references
.LVL182:
	mv	s11,a0
.LVL183:
.LBE68:
.LBE128:
	.loc 2 877 5 is_stmt 1
	.loc 2 877 8 is_stmt 0
	beq	a0,zero,.L63
.LVL184:
.L59:
	.loc 2 903 5 is_stmt 1
.LBB129:
.LBB130:
	.loc 3 266 61
	.loc 3 266 113
.LBE130:
.LBE129:
	.loc 1 93 5
.LBB132:
.LBB131:
	.loc 3 266 125 is_stmt 0
	li	a5,-1
	sw	a5,0(s0)
.LVL185:
.LBE131:
.LBE132:
	.loc 2 909 5 is_stmt 1
.LBB133:
.LBB134:
	.loc 3 266 61
	.loc 3 266 113
.LBE134:
.LBE133:
	.loc 1 93 5
.LBB137:
.LBB135:
	.loc 3 266 125 is_stmt 0
	sw	a5,0(s1)
.LBE135:
.LBE137:
	.loc 2 911 12
	mv	s2,s11
.LVL186:
.LBB138:
.LBB136:
	.loc 3 266 146
	j	.L57
.LVL187:
.L126:
.LBE136:
.LBE138:
.LBB139:
.LBB103:
	.loc 2 563 5 is_stmt 1
	.loc 2 563 8 is_stmt 0
	blt	a0,zero,.L59
	.loc 2 567 5 is_stmt 1
	.loc 2 567 19 is_stmt 0
	lui	a1,%hi(.LC6)
	addi	a1,a1,%lo(.LC6)
	mv	a0,s1
.LVL188:
	call	fdt_path_offset
.LVL189:
	mv	s6,a0
.LVL190:
	.loc 2 568 5 is_stmt 1
	.loc 2 568 8 is_stmt 0
	blt	a0,s3,.L107
	.loc 2 571 5 is_stmt 1
	.loc 2 571 21 is_stmt 0
	mv	a1,s11
	mv	a0,s0
.LVL191:
	call	fdt_first_property_offset
.LVL192:
.L128:
	.loc 2 571 92
	mv	s5,a0
.LVL193:
	.loc 2 571 66 is_stmt 1
	.loc 2 571 5 is_stmt 0
	blt	a0,zero,.L61
.LBB71:
	.loc 2 572 9 is_stmt 1
	.loc 2 574 9
.LVL194:
.LBB72:
.LBB73:
	.loc 2 475 5
	.loc 2 476 5
	.loc 2 477 5
	.loc 2 479 5
	.loc 2 479 13 is_stmt 0
	addi	a3,sp,32
	addi	a2,sp,28
	mv	a1,s5
	mv	a0,s0
.LVL195:
	call	fdt_getprop_by_offset
.LVL196:
	mv	s4,a0
.LVL197:
	.loc 2 481 5 is_stmt 1
.LBB74:
.LBB75:
.LBB76:
	.loc 2 424 8 is_stmt 0
	li	s10,-1
.LBE76:
.LBE75:
.LBE74:
	.loc 2 481 8
	bne	a0,zero,.L66
	.loc 2 482 9 is_stmt 1
	.loc 2 482 17 is_stmt 0
	lw	s11,32(sp)
	.loc 2 482 12
	li	a5,-1
	bne	s11,a5,.L67
.LVL198:
.LBE73:
.LBE72:
	.loc 2 575 9 is_stmt 1
.LBB96:
.LBB92:
	.loc 2 483 20 is_stmt 0
	li	s11,-13
	j	.L59
.LVL199:
.L108:
.LBB87:
	.loc 2 502 15
	mv	s4,s7
.LVL200:
.L66:
.LBE87:
	.loc 2 488 5 is_stmt 1
.LBB88:
	.loc 2 489 9
	.loc 2 490 9
	.loc 2 491 9
	.loc 2 492 9
	.loc 2 493 9
	.loc 2 494 9
	.loc 2 496 9
	.loc 2 496 21 is_stmt 0
	lw	a2,32(sp)
	li	a1,0
	mv	a0,s4
	call	memchr
.LVL201:
	.loc 2 497 9 is_stmt 1
	.loc 2 497 12 is_stmt 0
	beq	a0,zero,.L90
	.loc 2 499 9 is_stmt 1
	.loc 2 501 13 is_stmt 0
	lw	a5,32(sp)
	.loc 2 499 31
	sub	s8,a0,s4
.LVL202:
	.loc 2 501 9 is_stmt 1
	.loc 2 502 15 is_stmt 0
	addi	s7,s8,1
	.loc 2 501 13
	addi	a5,a5,-1
	sub	a5,a5,s8
	.loc 2 505 15
	mv	a2,s8
	li	a1,58
	mv	a0,s4
.LVL203:
	.loc 2 501 13
	sw	a5,32(sp)
	.loc 2 502 9 is_stmt 1
	.loc 2 502 15 is_stmt 0
	add	s7,s4,s7
.LVL204:
	.loc 2 504 9 is_stmt 1
	.loc 2 505 9
	.loc 2 505 15 is_stmt 0
	call	memchr
.LVL205:
	.loc 2 506 9 is_stmt 1
	.loc 2 506 12 is_stmt 0
	beq	a0,zero,.L90
	.loc 2 506 18
	lbu	s11,0(a0)
	li	a5,58
	bne	s11,a5,.L90
	.loc 2 509 9 is_stmt 1
	.loc 2 509 24 is_stmt 0
	sub	s9,a0,s4
.LVL206:
	.loc 2 510 9 is_stmt 1
	.loc 2 510 36 is_stmt 0
	addi	a2,s8,-1
	.loc 2 510 12
	beq	s9,a2,.L90
	.loc 2 513 9 is_stmt 1
.LVL207:
	.loc 2 514 9
	.loc 2 514 14 is_stmt 0
	addi	s3,a0,1
.LVL208:
	.loc 2 515 9 is_stmt 1
	.loc 2 515 15 is_stmt 0
	sub	a2,a2,s9
.LVL209:
	li	a1,58
	mv	a0,s3
.LVL210:
	call	memchr
.LVL211:
	.loc 2 516 9 is_stmt 1
	.loc 2 516 12 is_stmt 0
	beq	a0,zero,.L90
	.loc 2 516 18
	lbu	a5,0(a0)
	bne	a5,s11,.L90
	.loc 2 519 9 is_stmt 1
	.loc 2 519 24 is_stmt 0
	sub	a5,a0,s3
	sw	a5,8(sp)
.LVL212:
	.loc 2 520 9 is_stmt 1
	.loc 2 520 12 is_stmt 0
	beq	a0,s3,.L90
	.loc 2 523 9 is_stmt 1
	.loc 2 523 31 is_stmt 0
	addi	s11,a0,1
	.loc 2 523 19
	li	a2,10
	addi	a1,sp,36
	mv	a0,s11
.LVL213:
	call	strtoul
.LVL214:
	.loc 2 524 14
	lw	a4,36(sp)
	.loc 2 523 19
	mv	s8,a0
.LVL215:
	.loc 2 524 9 is_stmt 1
	.loc 2 524 12 is_stmt 0
	lbu	a3,0(a4)
	bne	a3,zero,.L90
	.loc 2 524 31
	bgeu	s11,a4,.L90
	.loc 2 527 9 is_stmt 1
.LVL216:
.LBB82:
.LBB77:
	.loc 2 418 5
	.loc 2 419 5
	.loc 2 420 5
	.loc 2 421 5
	.loc 2 422 5
	.loc 2 424 5
	.loc 2 424 8 is_stmt 0
	beq	s6,s10,.L107
	.loc 2 427 5 is_stmt 1
	.loc 2 427 19 is_stmt 0
	lw	a2,28(sp)
	mv	a1,s6
	addi	a3,sp,44
	mv	a0,s1
.LVL217:
	call	fdt_getprop
.LVL218:
	mv	a1,a0
.LVL219:
	.loc 2 429 5 is_stmt 1
	.loc 2 429 8 is_stmt 0
	bne	a0,zero,.L70
	.loc 2 430 9 is_stmt 1
	.loc 2 430 16 is_stmt 0
	lw	s11,44(sp)
.LVL220:
.L71:
.LBE77:
.LBE82:
	.loc 2 530 9 is_stmt 1
	.loc 2 530 12 is_stmt 0
	bne	s11,zero,.L59
.LBE88:
	.loc 2 532 13 is_stmt 1
	.loc 2 532 5 is_stmt 0
	lw	a5,32(sp)
	bgt	a5,zero,.L108
.LVL221:
.L104:
.LBE92:
.LBE96:
.LBE71:
	.loc 2 571 81 is_stmt 1
	.loc 2 571 92 is_stmt 0
	mv	a1,s5
	mv	a0,s0
	call	fdt_next_property_offset
.LVL222:
	j	.L128
.LVL223:
.L70:
.LBB100:
.LBB97:
.LBB93:
.LBB89:
.LBB83:
.LBB78:
	.loc 2 432 5 is_stmt 1
	.loc 2 432 18 is_stmt 0
	mv	a0,s1
.LVL224:
	call	fdt_path_offset
.LVL225:
	mv	s11,a0
.LVL226:
	.loc 2 433 5 is_stmt 1
	.loc 2 433 8 is_stmt 0
	blt	a0,zero,.L59
	.loc 2 436 5 is_stmt 1
	.loc 2 436 15 is_stmt 0
	mv	a1,a0
	mv	a0,s1
.LVL227:
	call	fdt_get_phandle
.LVL228:
	.loc 2 437 5 is_stmt 1
	.loc 2 437 8 is_stmt 0
	bne	a0,zero,.L72
.LVL229:
.LBE78:
.LBE83:
	.loc 2 530 9 is_stmt 1
.LBB84:
.LBB79:
	.loc 2 438 16 is_stmt 0
	li	s11,-1
	j	.L59
.LVL230:
.L72:
	sw	a0,12(sp)
	.loc 2 440 5 is_stmt 1
	.loc 2 440 17 is_stmt 0
	mv	a2,s9
	mv	a1,s4
	mv	a0,s0
.LVL231:
	call	fdt_path_offset_namelen
.LVL232:
	.loc 2 441 8
	lw	a5,12(sp)
	.loc 2 440 17
	mv	s11,a0
.LVL233:
	.loc 2 441 5 is_stmt 1
	.loc 2 441 8 is_stmt 0
	bne	a0,s10,.L74
.LVL234:
.L90:
.LBE79:
.LBE84:
.LBE89:
.LBE93:
.LBE97:
.LBE100:
.LBE103:
.LBE139:
.LBB140:
.LBB121:
	.loc 2 789 20
	li	s11,-16
	j	.L59
.LVL235:
.L74:
.LBE121:
.LBE140:
.LBB141:
.LBB104:
.LBB101:
.LBB98:
.LBB94:
.LBB90:
.LBB85:
.LBB80:
	.loc 2 443 5 is_stmt 1
	.loc 2 443 8 is_stmt 0
	blt	a0,zero,.L59
	.loc 2 446 5 is_stmt 1
	.loc 2 446 20 is_stmt 0
	mv	a0,a5
.LVL236:
	call	cpu_to_fdt32
.LVL237:
	.loc 2 447 12
	lw	a3,8(sp)
	.loc 2 446 18
	sw	a0,40(sp)
	.loc 2 447 5 is_stmt 1
	.loc 2 447 12 is_stmt 0
	mv	a1,s11
	li	a6,4
	addi	a5,sp,40
	mv	a4,s8
	mv	a2,s3
	mv	a0,s0
	call	fdt_setprop_inplace_namelen_partial
.LVL238:
	mv	s11,a0
.LVL239:
	j	.L71
.LVL240:
.L67:
.LBE80:
.LBE85:
.LBE90:
.LBE94:
.LBE98:
	.loc 2 575 9 is_stmt 1
	.loc 2 575 12 is_stmt 0
	beq	s11,zero,.L104
	j	.L59
.LVL241:
.L80:
.LBE101:
.LBE104:
.LBE141:
.LBB142:
.LBB112:
.LBB109:
	.loc 2 668 9 is_stmt 1
	.loc 2 669 9
	.loc 2 670 9
	.loc 2 676 9
	.loc 2 676 19 is_stmt 0
	addi	a2,s4,%lo(.LC7)
	mv	a1,s3
	mv	a0,s0
.LVL242:
	call	fdt_subnode_offset
.LVL243:
	mv	s11,a0
.LVL244:
	.loc 2 677 9 is_stmt 1
	.loc 2 677 12 is_stmt 0
	bne	a0,s5,.L78
.LVL245:
.L79:
.LBE109:
	.loc 2 667 64 is_stmt 1
	.loc 2 667 75 is_stmt 0
	mv	a1,s3
	mv	a0,s0
	call	fdt_next_subnode
.LVL246:
	mv	s3,a0
.LVL247:
	j	.L64
.LVL248:
.L78:
.LBB110:
	.loc 2 680 9 is_stmt 1
	.loc 2 680 12 is_stmt 0
	blt	a0,zero,.L59
	.loc 2 683 9 is_stmt 1
	.loc 2 683 18 is_stmt 0
	mv	a1,s0
	li	a3,0
	mv	a2,s3
	mv	a0,s1
.LVL249:
	call	overlay_get_target
.LVL250:
	mv	a1,a0
.LVL251:
	.loc 2 684 9 is_stmt 1
	.loc 2 684 12 is_stmt 0
	blt	a0,zero,.L109
	.loc 2 687 9 is_stmt 1
	.loc 2 687 15 is_stmt 0
	mv	a3,s11
	mv	a2,s0
	mv	a0,s1
.LVL252:
	call	overlay_apply_node
.LVL253:
	mv	s11,a0
.LVL254:
	.loc 2 688 9 is_stmt 1
	.loc 2 688 12 is_stmt 0
	beq	a0,zero,.L79
	j	.L59
.LVL255:
.L86:
.LBE110:
.LBE112:
.LBE142:
.LBB143:
.LBB122:
	.loc 2 775 9 is_stmt 1
	.loc 2 775 12 is_stmt 0
	bgt	a2,zero,.L87
.LVL256:
.L88:
	.loc 2 776 20
	li	s11,-15
	j	.L59
.LVL257:
.L87:
	.loc 2 775 29
	li	a1,0
	call	memchr
.LVL258:
	.loc 2 775 66
	lw	s4,28(sp)
	addi	a5,s4,-1
	.loc 2 775 61
	add	a5,s7,a5
	.loc 2 775 26
	bne	a0,a5,.L88
	.loc 2 779 9 is_stmt 1
	.loc 2 783 12 is_stmt 0
	lbu	a5,0(s7)
	.loc 2 779 11
	add	s4,s7,s4
.LVL259:
	.loc 2 783 9 is_stmt 1
	.loc 2 783 12 is_stmt 0
	bne	a5,s9,.L88
	.loc 2 787 9 is_stmt 1
	.loc 2 787 13 is_stmt 0
	addi	s8,s7,1
	li	a1,47
	mv	a0,s8
	call	strchr
.LVL260:
	mv	s5,a0
.LVL261:
	.loc 2 788 9 is_stmt 1
	.loc 2 788 12 is_stmt 0
	beq	a0,zero,.L90
	.loc 2 791 9 is_stmt 1
.LVL262:
	.loc 2 792 9
	.loc 2 792 27 is_stmt 0
	sub	s7,a0,s7
.LVL263:
	.loc 2 796 16
	sub	a5,s4,a0
	.loc 2 796 12
	li	a4,12
	.loc 2 792 23
	addi	s7,s7,-1
.LVL264:
	.loc 2 795 9 is_stmt 1
	.loc 2 796 9
	.loc 2 796 12 is_stmt 0
	ble	a5,a4,.L90
	.loc 2 796 30
	lui	a5,%hi(.LC9)
	li	a2,13
	addi	a1,a5,%lo(.LC9)
	call	memcmp
.LVL265:
	.loc 2 796 27
	bne	a0,zero,.L90
	.loc 2 799 9 is_stmt 1
	.loc 2 803 15 is_stmt 0
	mv	a2,s8
	mv	a3,s7
	li	a1,0
	mv	a0,s0
	.loc 2 799 18
	addi	s5,s5,13
.LVL266:
	.loc 2 800 9 is_stmt 1
	.loc 2 803 15 is_stmt 0
	call	fdt_subnode_offset_namelen
.LVL267:
	.loc 2 800 22
	sub	s4,s4,s5
.LVL268:
	.loc 2 803 9 is_stmt 1
	.loc 2 803 15 is_stmt 0
	mv	s8,a0
.LVL269:
	.loc 2 806 9 is_stmt 1
	.loc 2 806 12 is_stmt 0
	blt	a0,zero,.L90
	.loc 2 808 9 is_stmt 1
.LVL270:
	.loc 2 811 9
	.loc 2 811 15 is_stmt 0
	lui	a5,%hi(.LC7)
	mv	a1,a0
	addi	a2,a5,%lo(.LC7)
	mv	a0,s0
.LVL271:
	call	fdt_subnode_offset
.LVL272:
	.loc 2 812 9 is_stmt 1
	.loc 2 812 12 is_stmt 0
	blt	a0,zero,.L90
	.loc 2 816 9 is_stmt 1
	.loc 2 816 15 is_stmt 0
	addi	a3,sp,36
	mv	a2,s8
	mv	a1,s0
	mv	a0,s1
.LVL273:
	call	overlay_get_target
.LVL274:
	mv	s7,a0
.LVL275:
	.loc 2 817 9 is_stmt 1
	.loc 2 817 12 is_stmt 0
	blt	a0,zero,.L111
	.loc 2 819 9 is_stmt 1
.LVL276:
	.loc 2 822 9
	.loc 2 822 13 is_stmt 0
	lw	a0,36(sp)
.LVL277:
	.loc 2 822 12
	bne	a0,zero,.L91
	.loc 2 823 13 is_stmt 1
.LVL278:
.LBB116:
.LBB117:
	.loc 2 697 5
	.loc 2 698 5
.LBB118:
	.loc 2 700 7
	.loc 2 700 17
	.loc 2 700 29 is_stmt 0
	mv	a0,s1
	call	fdt_ro_probe_
.LVL279:
	mv	s11,a0
.LVL280:
	.loc 2 700 20
	bne	a0,zero,.L92
	mv	a1,s7
.LVL281:
.L96:
.LBE118:
	.loc 2 700 69 is_stmt 1
	.loc 2 702 5
	.loc 2 703 9
	.loc 2 703 16 is_stmt 0
	addi	a2,sp,44
	mv	a0,s1
	sw	a1,8(sp)
	call	fdt_get_name
.LVL282:
	.loc 2 704 9 is_stmt 1
	lw	a5,44(sp)
	.loc 2 704 12 is_stmt 0
	lw	a1,8(sp)
	bne	a0,zero,.L93
	.loc 2 705 13 is_stmt 1
	.loc 2 705 20 is_stmt 0
	mv	s11,a5
.LVL283:
.L92:
.LBE117:
.LBE116:
	.loc 2 824 13 is_stmt 1
	.loc 2 824 16 is_stmt 0
	blt	s11,zero,.L59
	mv	s10,s11
	j	.L97
.LVL284:
.L93:
.LBB120:
.LBB119:
	.loc 2 708 9 is_stmt 1
	.loc 2 708 12 is_stmt 0
	beq	a5,zero,.L94
	.loc 2 711 9 is_stmt 1
	.loc 2 711 22 is_stmt 0
	mv	a0,s1
.LVL285:
	call	fdt_parent_offset
.LVL286:
	mv	a1,a0
.LVL287:
	.loc 2 712 9 is_stmt 1
	.loc 2 712 12 is_stmt 0
	blt	a0,zero,.L109
	.loc 2 714 9 is_stmt 1
	.loc 2 714 24 is_stmt 0
	lw	a5,44(sp)
	addi	a5,a5,1
	.loc 2 714 13
	add	s11,s11,a5
.LVL288:
	.loc 2 702 11 is_stmt 1
	.loc 2 703 14 is_stmt 0
	j	.L96
.LVL289:
.L94:
	.loc 2 718 5 is_stmt 1
	.loc 2 719 12 is_stmt 0
	li	s10,1
	.loc 2 718 8
	bne	s11,zero,.L92
.LVL290:
.L97:
.LBE119:
.LBE120:
	.loc 2 831 9 is_stmt 1
	.loc 2 832 28 is_stmt 0
	slti	a3,s10,2
	xori	a3,a3,1
	.loc 2 831 15
	lw	a2,32(sp)
	.loc 2 832 21
	add	a3,a3,s10
	.loc 2 832 33
	add	a3,a3,s4
	.loc 2 831 15
	addi	a4,sp,40
	addi	a3,a3,1
	mv	a1,s3
	mv	a0,s1
	call	fdt_setprop_placeholder
.LVL291:
	mv	s11,a0
.LVL292:
	.loc 2 833 9 is_stmt 1
	.loc 2 833 12 is_stmt 0
	blt	a0,zero,.L59
	.loc 2 836 9 is_stmt 1
	.loc 2 836 12 is_stmt 0
	lw	a4,36(sp)
	mv	s11,s7
	bne	a4,zero,.L98
	.loc 2 838 13 is_stmt 1
	.loc 2 838 19 is_stmt 0
	addi	a3,sp,36
	mv	a2,s8
	mv	a1,s0
	mv	a0,s1
.LVL293:
	call	overlay_get_target
.LVL294:
	mv	s11,a0
.LVL295:
	.loc 2 839 13 is_stmt 1
	.loc 2 839 16 is_stmt 0
	blt	a0,zero,.L59
.L98:
.LVL296:
	.loc 2 844 9 is_stmt 1
	.loc 2 845 12 is_stmt 0
	li	a4,1
	.loc 2 844 13
	lw	s7,40(sp)
.LVL297:
	.loc 2 845 9 is_stmt 1
	.loc 2 845 12 is_stmt 0
	ble	s10,a4,.L99
	.loc 2 846 13 is_stmt 1
	.loc 2 846 17 is_stmt 0
	lw	a1,36(sp)
	.loc 2 847 23
	addi	a3,s10,1
	.loc 2 846 16
	bne	a1,zero,.L100
	.loc 2 847 17 is_stmt 1
	.loc 2 847 23 is_stmt 0
	mv	a1,s11
	mv	a2,s7
	mv	a0,s1
.LVL298:
	call	fdt_get_path
.LVL299:
	mv	s11,a0
.LVL300:
	.loc 2 848 17 is_stmt 1
	.loc 2 848 20 is_stmt 0
	blt	a0,zero,.L59
.LVL301:
.L101:
	.loc 2 856 9 is_stmt 1
	.loc 2 856 18 is_stmt 0
	add	a4,s7,s10
	.loc 2 857 26
	addi	a0,s10,1
	.loc 2 857 9
	mv	a2,s4
	.loc 2 856 18
	sb	s9,0(a4)
	.loc 2 857 9 is_stmt 1
	mv	a1,s5
	add	a0,s7,a0
	call	memcpy
.LVL302:
	.loc 2 858 9
	.loc 2 858 37 is_stmt 0
	add	s4,s7,s4
.LVL303:
	add	a5,s4,s10
	.loc 2 769 76
	mv	a1,s6
	.loc 2 858 37
	sb	zero,1(a5)
	.loc 2 769 69 is_stmt 1
	.loc 2 769 76 is_stmt 0
	mv	a0,s0
	call	fdt_next_property_offset
.LVL304:
	mv	s6,a0
.LVL305:
	j	.L85
.LVL306:
.L91:
	.loc 2 828 13 is_stmt 1
	.loc 2 828 19 is_stmt 0
	call	strlen
.LVL307:
	mv	s10,a0
.LVL308:
	j	.L97
.LVL309:
.L100:
	.loc 2 851 17 is_stmt 1
	mv	a2,a3
	mv	a0,s7
.LVL310:
	call	memcpy
.LVL311:
	j	.L101
.LVL312:
.L99:
	.loc 2 854 13
	.loc 2 854 16 is_stmt 0
	addi	s10,s10,-1
.LVL313:
	j	.L101
.LVL314:
.L109:
.LBE122:
.LBE143:
.LBB144:
.LBB113:
.LBB111:
	mv	s11,a1
	j	.L59
.LVL315:
.L110:
.LBE111:
.LBE113:
.LBE144:
.LBB145:
.LBB123:
	mv	s11,s3
	j	.L59
.LVL316:
.L111:
	mv	s11,a0
.LVL317:
.LBE123:
.LBE145:
	.loc 2 889 5 is_stmt 1
	j	.L59
.LVL318:
.L107:
.LBB146:
.LBB105:
.LBB102:
.LBB99:
.LBB95:
.LBB91:
.LBB86:
.LBB81:
	mv	s11,s6
.LVL319:
.LBE81:
.LBE86:
	.loc 2 530 9
	j	.L59
.LBE91:
.LBE95:
.LBE99:
.LBE102:
.LBE105:
.LBE146:
	.cfi_endproc
.LFE54:
	.size	fdt_overlay_apply, .-fdt_overlay_apply
	.text
.Letext0:
	.file 4 "/mnt/d/GitHub/bl_iot_sdk_for_aithinker/toolchain/riscv/Linux/lib/gcc/riscv64-unknown-elf/10.2.0/include/stdint-gcc.h"
	.file 5 "/mnt/d/GitHub/bl_iot_sdk_for_aithinker/components/stage/blfdt/inc/fdt.h"
	.file 6 "/mnt/d/GitHub/bl_iot_sdk_for_aithinker/components/stage/blfdt/inc/libfdt_internal.h"
	.file 7 "/mnt/d/GitHub/bl_iot_sdk_for_aithinker/toolchain/riscv/Linux/riscv64-unknown-elf/include/string.h"
	.file 8 "/mnt/d/GitHub/bl_iot_sdk_for_aithinker/toolchain/riscv/Linux/riscv64-unknown-elf/include/stdlib.h"