	.file	"fdt_empty_tree.c"
	.option nopic
	.attribute arch, "rv32i2p0_m2p0_f2p0_c2p0"
	.attribute unaligned_access, 0
	.attribute stack_align, 16
	.text
.Ltext0:
	.cfi_sections	.debug_frame
	.section	.rodata.fdt_create_empty_tree.str1.4,"aMS",@progbits,1
	.align	2
.LC0:
	.string	""
	.section	.text.fdt_create_empty_tree,"ax",@progbits
	.align	1
	.globl	fdt_create_empty_tree
	.type	fdt_create_empty_tree, @function
fdt_create_empty_tree:
.LFB40:
	.file 1 "/mnt/d/GitHub/bl_iot_sdk_for_aithinker/components/stage/blfdt/src/fdt_empty_tree.c"
	.loc 1 59 1
	.cfi_startproc
.LVL0:
	.loc 1 60 5
	.loc 1 62 5
	.loc 1 59 1 is_stmt 0
	addi	sp,sp,-16
	.cfi_def_cfa_offset 16
	sw	s0,8(sp)
	sw	s1,4(sp)
	sw	ra,12(sp)
	.cfi_offset 8, -8
	.cfi_offset 9, -12
	.cfi_offset 1, -4
	.loc 1 59 1
	mv	s0,a0
	mv	s1,a1
	.loc 1 62 11
	call	fdt_create
.LVL1:
	.loc 1 63 5 is_stmt 1
	.loc 1 63 8 is_stmt 0
	bne	a0,zero,.L1
	.loc 1 66 5 is_stmt 1
	.loc 1 66 11 is_stmt 0
	mv	a0,s0
.LVL2:
	call	fdt_finish_reservemap
.LVL3:
	.loc 1 67 5 is_stmt 1
	.loc 1 67 8 is_stmt 0
	bne	a0,zero,.L1
	.loc 1 70 5 is_stmt 1
	.loc 1 70 11 is_stmt 0
	lui	a1,%hi(.LC0)
	addi	a1,a1,%lo(.LC0)
	mv	a0,s0
.LVL4:
	call	fdt_begin_node
.LVL5:
	.loc 1 71 5 is_stmt 1
	.loc 1 71 8 is_stmt 0
	bne	a0,zero,.L1
	.loc 1 74 5 is_stmt 1
	.loc 1 74 11 is_stmt 0
	mv	a0,s0
.LVL6:
	call	fdt_end_node
.LVL7:
	.loc 1 75 5 is_stmt 1
	.loc 1 75 8 is_stmt 0
	bne	a0,zero,.L1
	.loc 1 78 5 is_stmt 1
	.loc 1 78 11 is_stmt 0
	mv	a0,s0
.LVL8:
	call	fdt_finish
.LVL9:
	.loc 1 79 5 is_stmt 1
	.loc 1 79 8 is_stmt 0
	bne	a0,zero,.L1
	.loc 1 82 5 is_stmt 1
	.loc 1 82 12 is_stmt 0
	mv	a1,s0
	mv	a0,s0
.LVL10:
	.loc 1 83 1
	lw	s0,8(sp)
	.cfi_remember_state
	.cfi_restore 8
.LVL11:
	lw	ra,12(sp)
	.cfi_restore 1
	.loc 1 82 12
	mv	a2,s1
	.loc 1 83 1
	lw	s1,4(sp)
	.cfi_restore 9
.LVL12:
	addi	sp,sp,16
	.cfi_def_cfa_offset 0
	.loc 1 82 12
	tail	fdt_open_into
.LVL13:
.L1:
	.cfi_restore_state
	.loc 1 83 1
	lw	ra,12(sp)
	.cfi_restore 1
	lw	s0,8(sp)
	.cfi_restore 8
.LVL14:
	lw	s1,4(sp)
	.cfi_restore 9
.LVL15:
	addi	sp,sp,16
	.cfi_def_cfa_offset 0
	jr	ra
	.cfi_endproc
.LFE40:
	.size	fdt_create_empty_tree, .-fdt_create_empty_tree
	.text
.Letext0:
	.file 2 "/mnt/d/GitHub/bl_iot_sdk_for_aithinker/components/stage/blfdt/inc/libfdt.h"