	.file	"fdt_sw.c"
	.option nopic
	.attribute arch, "rv32i2p0_m2p0_f2p0_c2p0"
	.attribute unaligned_access, 0
	.attribute stack_align, 16
	.text
.Ltext0:
	.cfi_sections	.debug_frame
	.section	.text.fdt32_to_cpu,"ax",@progbits
	.align	1
	.type	fdt32_to_cpu, @function
fdt32_to_cpu:
.LFB3:
	.file 1 "/mnt/d/GitHub/bl_iot_sdk_for_aithinker/components/stage/blfdt/inc/libfdt_env.h"
	.loc 1 92 1
	.cfi_startproc
.LVL0:
	.loc 1 93 5
	.loc 1 93 212 is_stmt 0
	srli	a4,a0,24
	.loc 1 93 12
	slli	a5,a0,24
	or	a5,a5,a4
	.loc 1 93 112
	srli	a4,a0,8
	andi	a4,a4,0xff
	.loc 1 93 163
	srli	a0,a0,16
.LVL1:
	.loc 1 93 117
	slli	a4,a4,16
	.loc 1 93 163
	andi	a0,a0,0xff
	.loc 1 93 12
	or	a5,a5,a4
	.loc 1 93 168
	slli	a0,a0,8
	.loc 1 94 1
	or	a0,a5,a0
	ret
	.cfi_endproc
.LFE3:
	.size	fdt32_to_cpu, .-fdt32_to_cpu
	.set	cpu_to_fdt32,fdt32_to_cpu
	.section	.text.cpu_to_fdt64,"ax",@progbits
	.align	1
	.type	cpu_to_fdt64, @function
cpu_to_fdt64:
.LFB6:
	.loc 1 105 1 is_stmt 1
	.cfi_startproc
.LVL2:
	.loc 1 106 5
	.loc 1 106 111 is_stmt 0
	srli	a4,a0,8
	.loc 1 106 76
	andi	a4,a4,0xff
	.loc 1 106 12
	slli	a3,a0,24
	.loc 1 106 116
	slli	a4,a4,16
	.loc 1 106 12
	or	a3,a3,a4
	.loc 1 106 162
	srli	a4,a0,16
	.loc 1 106 127
	andi	a4,a4,0xff
	.loc 1 106 167
	slli	a4,a4,8
	.loc 1 106 380
	srli	a5,a1,24
	.loc 1 106 12
	or	a3,a3,a4
	.loc 1 106 178
	srli	a4,a0,24
	.loc 1 106 269
	slli	a0,a1,24
.LVL3:
	.loc 1 106 12
	or	a0,a5,a0
	.loc 1 106 315
	srli	a5,a1,8
	.loc 1 106 280
	andi	a5,a5,0xff
	.loc 1 106 320
	slli	a5,a5,16
	.loc 1 106 12
	or	a0,a0,a5
	.loc 1 106 366
	srli	a5,a1,16
	.loc 1 106 331
	andi	a5,a5,0xff
	.loc 1 106 371
	slli	a5,a5,8
	.loc 1 107 1
	or	a0,a0,a5
	or	a1,a3,a4
	ret
	.cfi_endproc
.LFE6:
	.size	cpu_to_fdt64, .-cpu_to_fdt64
	.section	.text.fdt32_ld,"ax",@progbits
	.align	1
	.type	fdt32_ld, @function
fdt32_ld:
.LFB8:
	.file 2 "/mnt/d/GitHub/bl_iot_sdk_for_aithinker/components/stage/blfdt/inc/libfdt.h"
	.loc 2 165 1 is_stmt 1
	.cfi_startproc
.LVL4:
	.loc 2 166 5
	.loc 2 168 5
	.loc 2 168 13 is_stmt 0
	lbu	a5,0(a0)
	.loc 2 169 12
	lbu	a4,1(a0)
	.loc 2 168 29
	slli	a5,a5,24
	.loc 2 169 28
	slli	a4,a4,16
	.loc 2 169 9
	or	a5,a5,a4
	.loc 2 171 13
	lbu	a4,3(a0)
	.loc 2 170 12
	lbu	a0,2(a0)
.LVL5:
	.loc 2 171 9
	or	a5,a5,a4
	.loc 2 170 28
	slli	a0,a0,8
	.loc 2 172 1
	or	a0,a5,a0
	ret
	.cfi_endproc
.LFE8:
	.size	fdt32_ld, .-fdt32_ld
	.section	.text.fdt_sw_probe_,"ax",@progbits
	.align	1
	.type	fdt_sw_probe_, @function
fdt_sw_probe_:
.LFB40:
	.file 3 "/mnt/d/GitHub/bl_iot_sdk_for_aithinker/components/stage/blfdt/src/fdt_sw.c"
	.loc 3 59 1 is_stmt 1
	.cfi_startproc
.LVL6:
	.loc 3 60 5
	.loc 3 59 1 is_stmt 0
	addi	sp,sp,-16
	.cfi_def_cfa_offset 16
	sw	ra,12(sp)
	.cfi_offset 1, -4
	.loc 3 60 11
	call	fdt32_ld
.LVL7:
	.loc 3 60 8
	li	a4,-804388864
	addi	a4,a4,-275
	beq	a0,a4,.L6
	.loc 3 62 13
	li	a4,804388864
	mv	a5,a0
	.loc 3 62 10 is_stmt 1
	.loc 3 62 13 is_stmt 0
	addi	a4,a4,274
	.loc 3 64 12
	li	a0,0
	.loc 3 62 13
	beq	a5,a4,.L4
	.loc 3 63 16
	li	a0,-9
.L4:
	.loc 3 65 1
	lw	ra,12(sp)
	.cfi_remember_state
	.cfi_restore 1
	addi	sp,sp,16
	.cfi_def_cfa_offset 0
	jr	ra
.L6:
	.cfi_restore_state
	.loc 3 61 16
	li	a0,-7
	j	.L4
	.cfi_endproc
.LFE40:
	.size	fdt_sw_probe_, .-fdt_sw_probe_
	.section	.text.fdt_sw_probe_struct_,"ax",@progbits
	.align	1
	.type	fdt_sw_probe_struct_, @function
fdt_sw_probe_struct_:
.LFB42:
	.loc 3 107 1 is_stmt 1
	.cfi_startproc
.LVL8:
	.loc 3 108 5
	.loc 3 107 1 is_stmt 0
	addi	sp,sp,-16
	.cfi_def_cfa_offset 16
	sw	s0,8(sp)
	sw	s1,4(sp)
	sw	ra,12(sp)
	sw	s2,0(sp)
	.cfi_offset 8, -8
	.cfi_offset 9, -12
	.cfi_offset 1, -4
	.cfi_offset 18, -16
	.loc 3 107 1
	mv	s1,a0
	.loc 3 108 15
	call	fdt_sw_probe_
.LVL9:
	mv	s0,a0
.LVL10:
	.loc 3 109 5 is_stmt 1
	.loc 3 109 8 is_stmt 0
	bne	a0,zero,.L9
.LVL11:
.LBB25:
.LBB26:
	.loc 3 112 5 is_stmt 1
	.loc 3 112 11 is_stmt 0
	addi	a0,s1,12
	call	fdt32_ld
.LVL12:
	mv	s2,a0
	.loc 3 112 80
	addi	a0,s1,4
	call	fdt32_ld
.LVL13:
	.loc 3 112 8
	beq	s2,a0,.L9
	.loc 3 113 16
	li	s0,-7
.LVL14:
.L9:
.LBE26:
.LBE25:
	.loc 3 115 1
	lw	ra,12(sp)
	.cfi_restore 1
	mv	a0,s0
	lw	s0,8(sp)
	.cfi_restore 8
	lw	s1,4(sp)
	.cfi_restore 9
.LVL15:
	lw	s2,0(sp)
	.cfi_restore 18
	addi	sp,sp,16
	.cfi_def_cfa_offset 0
	jr	ra
	.cfi_endproc
.LFE42:
	.size	fdt_sw_probe_struct_, .-fdt_sw_probe_struct_
	.section	.text.fdt_grab_space_,"ax",@progbits
	.align	1
	.type	fdt_grab_space_, @function
fdt_grab_space_:
.LFB43:
	.loc 3 130 1 is_stmt 1
	.cfi_startproc
.LVL16:
	.loc 3 131 5
	.loc 3 130 1 is_stmt 0
	addi	sp,sp,-32
	.cfi_def_cfa_offset 32
	sw	s0,24(sp)
	.cfi_offset 8, -8
	mv	s0,a0
	.loc 3 131 20
	addi	a0,a0,36
.LVL17:
	.loc 3 130 1
	sw	ra,28(sp)
	sw	s1,20(sp)
	sw	s2,16(sp)
	sw	s3,12(sp)
	.cfi_offset 1, -4
	.cfi_offset 9, -12
	.cfi_offset 18, -16
	.cfi_offset 19, -20
	mv	s2,a1
	sw	s4,8(sp)
	sw	s5,4(sp)
	.cfi_offset 20, -24
	.cfi_offset 21, -28
	.loc 3 131 20
	call	fdt32_ld
.LVL18:
	mv	s1,a0
.LVL19:
	.loc 3 132 5 is_stmt 1
	.loc 3 134 5
	.loc 3 134 19 is_stmt 0
	addi	a0,s0,4
	call	fdt32_ld
.LVL20:
	.loc 3 134 82
	addi	s5,s0,8
	.loc 3 134 19
	mv	s3,a0
	.loc 3 134 82
	mv	a0,s5
	call	fdt32_ld
.LVL21:
	mv	s4,a0
	.loc 3 135 13
	addi	a0,s0,32
	call	fdt32_ld
.LVL22:
	.loc 3 135 9
	add	s4,s4,a0
	.loc 3 137 17
	add	s2,s1,s2
.LVL23:
	.loc 3 135 9
	sub	s3,s3,s4
.LVL24:
	.loc 3 137 5 is_stmt 1
	.loc 3 138 15 is_stmt 0
	li	a0,0
	.loc 3 137 8
	bgtu	s1,s2,.L12
	.loc 3 137 33 discriminator 1
	bltu	s3,s2,.L12
	.loc 3 140 5 is_stmt 1
.LVL25:
.LBB33:
.LBB34:
	.loc 2 275 70
	.loc 2 275 122
	.loc 2 275 145 is_stmt 0
	mv	a0,s2
	call	cpu_to_fdt32
.LVL26:
	.loc 2 275 143
	sw	a0,36(s0)
.LVL27:
.LBE34:
.LBE33:
	.loc 3 141 5 is_stmt 1
	.file 4 "/mnt/d/GitHub/bl_iot_sdk_for_aithinker/components/stage/blfdt/inc/libfdt_internal.h"
	.loc 4 78 5
.LBB35:
.LBB36:
.LBB37:
	.loc 4 73 5
	.loc 4 73 34 is_stmt 0
	mv	a0,s5
	call	fdt32_ld
.LVL28:
	.loc 4 73 97
	add	a0,s1,a0
	add	a0,s0,a0
.LVL29:
.L12:
.LBE37:
.LBE36:
.LBE35:
	.loc 3 142 1
	lw	ra,28(sp)
	.cfi_restore 1
	lw	s0,24(sp)
	.cfi_restore 8
.LVL30:
	lw	s1,20(sp)
	.cfi_restore 9
.LVL31:
	lw	s2,16(sp)
	.cfi_restore 18
	lw	s3,12(sp)
	.cfi_restore 19
.LVL32:
	lw	s4,8(sp)
	.cfi_restore 20
	lw	s5,4(sp)
	.cfi_restore 21
.LVL33:
	addi	sp,sp,32
	.cfi_def_cfa_offset 0
	jr	ra
	.cfi_endproc
.LFE43:
	.size	fdt_grab_space_, .-fdt_grab_space_
	.section	.text.fdt_create,"ax",@progbits
	.align	1
	.globl	fdt_create
	.type	fdt_create, @function
fdt_create:
.LFB44:
	.loc 3 145 1 is_stmt 1
	.cfi_startproc
.LVL34:
	.loc 3 146 5
	.loc 3 148 5
	.loc 3 150 5
	.loc 3 150 8 is_stmt 0
	li	a5,47
	bleu	a1,a5,.L19
	.loc 3 145 1
	addi	sp,sp,-16
	.cfi_def_cfa_offset 16
	sw	s1,4(sp)
	.loc 3 153 5
	mv	a2,a1
	.cfi_offset 9, -12
	mv	s1,a1
	.loc 3 153 5 is_stmt 1
	li	a1,0
.LVL35:
	.loc 3 145 1 is_stmt 0
	sw	ra,12(sp)
	sw	s0,8(sp)
	.cfi_offset 1, -4
	.cfi_offset 8, -8
	mv	s0,a0
	.loc 3 153 5
	call	memset
.LVL36:
	.loc 3 155 5 is_stmt 1
.LBB60:
.LBB61:
	.loc 2 266 61
	.loc 2 266 113
.LBE61:
.LBE60:
	.loc 1 93 5
.LBB63:
.LBB62:
	.loc 2 266 125 is_stmt 0
	li	a5,302116864
	addi	a5,a5,559
	sw	a5,0(s0)
.LVL37:
.LBE62:
.LBE63:
	.loc 3 156 5 is_stmt 1
.LBB64:
.LBB65:
	.loc 2 271 63
	.loc 2 271 115
.LBE65:
.LBE64:
	.loc 1 93 5
.LBB67:
.LBB66:
	.loc 2 271 129 is_stmt 0
	li	a5,285212672
	sw	a5,20(s0)
.LVL38:
.LBE66:
.LBE67:
	.loc 3 157 5 is_stmt 1
.LBB68:
.LBB69:
	.loc 2 272 73
	.loc 2 272 125
.LBE69:
.LBE68:
	.loc 1 93 5
.LBB71:
.LBB70:
	.loc 2 272 149 is_stmt 0
	li	a5,33554432
	sw	a5,24(s0)
.LVL39:
.LBE70:
.LBE71:
	.loc 3 158 5 is_stmt 1
.LBB72:
.LBB73:
	.loc 2 267 65
	.loc 2 267 117
	.loc 2 267 135 is_stmt 0
	mv	a0,s1
	call	cpu_to_fdt32
.LVL40:
.LBE73:
.LBE72:
.LBB75:
.LBB76:
	.loc 2 270 143
	li	a5,805306368
	sw	a5,16(s0)
.LBE76:
.LBE75:
.LBB78:
.LBB74:
	.loc 2 267 133
	sw	a0,4(s0)
.LVL41:
.LBE74:
.LBE78:
	.loc 3 160 5 is_stmt 1
.LBB79:
.LBB77:
	.loc 2 270 70
	.loc 2 270 122
.LBE77:
.LBE79:
	.loc 1 93 5
	.loc 3 161 5
	addi	a0,s0,16
	call	fdt32_ld
.LVL42:
.LBB80:
.LBB81:
	.loc 2 268 69
	.loc 2 268 121
	.loc 2 268 143 is_stmt 0
	call	cpu_to_fdt32
.LVL43:
	.loc 2 268 141
	sw	a0,8(s0)
.LVL44:
.LBE81:
.LBE80:
	.loc 3 162 5 is_stmt 1
.LBB82:
.LBB83:
	.loc 2 269 70
	.loc 2 269 122
	.loc 2 269 145 is_stmt 0
	li	a0,0
	call	cpu_to_fdt32
.LVL45:
	.loc 2 269 143
	sw	a0,12(s0)
.LBE83:
.LBE82:
	.loc 3 165 1
	lw	ra,12(sp)
	.cfi_restore 1
	lw	s0,8(sp)
	.cfi_restore 8
.LVL46:
	lw	s1,4(sp)
	.cfi_restore 9
.LVL47:
	.loc 3 164 12
	li	a0,0
	.loc 3 165 1
	addi	sp,sp,16
	.cfi_def_cfa_offset 0
	jr	ra
.LVL48:
.L19:
	.loc 3 151 16
	li	a0,-3
.LVL49:
	.loc 3 165 1
	ret
	.cfi_endproc
.LFE44:
	.size	fdt_create, .-fdt_create
	.section	.text.fdt_resize,"ax",@progbits
	.align	1
	.globl	fdt_resize
	.type	fdt_resize, @function
fdt_resize:
.LFB45:
	.loc 3 168 1 is_stmt 1
	.cfi_startproc
.LVL50:
	.loc 3 169 5
	.loc 3 170 5
.LBB89:
	.loc 3 172 7
	.loc 3 172 16
.LBE89:
	.loc 3 168 1 is_stmt 0
	addi	sp,sp,-48
	.cfi_def_cfa_offset 48
	sw	s0,40(sp)
	sw	s1,36(sp)
	sw	s5,20(sp)
	sw	s6,16(sp)
	sw	ra,44(sp)
	sw	s2,32(sp)
	sw	s3,28(sp)
	sw	s4,24(sp)
	sw	s7,12(sp)
	.cfi_offset 8, -8
	.cfi_offset 9, -12
	.cfi_offset 21, -28
	.cfi_offset 22, -32
	.cfi_offset 1, -4
	.cfi_offset 18, -16
	.cfi_offset 19, -20
	.cfi_offset 20, -24
	.cfi_offset 23, -36
	.loc 3 168 1
	mv	s0,a0
	mv	s1,a1
	mv	s6,a2
.LBB90:
	.loc 3 172 27
	call	fdt_sw_probe_
.LVL51:
	mv	s5,a0
.LVL52:
	.loc 3 172 19
	bne	a0,zero,.L24
.LBE90:
	.loc 3 172 66 is_stmt 1 discriminator 2
	.loc 3 174 5 discriminator 2
	.loc 3 174 18 is_stmt 0 discriminator 2
	addi	a0,s0,8
.LVL53:
	call	fdt32_ld
.LVL54:
	mv	s3,a0
	.loc 3 174 85 discriminator 2
	addi	a0,s0,36
	call	fdt32_ld
.LVL55:
	.loc 3 174 14 discriminator 2
	add	s3,s3,a0
.LVL56:
	.loc 3 175 5 is_stmt 1 discriminator 2
	.loc 3 175 18 is_stmt 0 discriminator 2
	addi	a0,s0,32
	call	fdt32_ld
.LVL57:
	.loc 3 177 19 discriminator 2
	add	s7,s3,a0
	.loc 3 175 18 discriminator 2
	mv	s4,a0
.LVL58:
	.loc 3 177 5 is_stmt 1 discriminator 2
	.loc 3 177 35 is_stmt 0 discriminator 2
	addi	a0,s0,4
.LVL59:
	call	fdt32_ld
.LVL60:
	.loc 3 177 8 discriminator 2
	bgtu	s7,a0,.L28
	.loc 3 180 5 is_stmt 1
	.loc 3 180 8 is_stmt 0
	bgtu	s7,s6,.L29
	.loc 3 183 5 is_stmt 1
	.loc 3 183 90 is_stmt 0
	sub	s2,a0,s4
	.loc 3 184 37
	sub	s7,s6,s4
	.loc 3 183 13
	add	s2,s0,s2
.LVL61:
	.loc 3 184 5 is_stmt 1
	.loc 3 184 13 is_stmt 0
	add	s7,s1,s7
.LVL62:
	.loc 3 188 5 is_stmt 1
	.loc 3 188 8 is_stmt 0
	bltu	s0,s1,.L26
	.loc 3 189 9 is_stmt 1
	mv	a2,s3
	mv	a1,s0
	mv	a0,s1
	call	memmove
.LVL63:
	.loc 3 190 9
	mv	a2,s4
	mv	a1,s2
	mv	a0,s7
.L34:
	.loc 3 193 9 is_stmt 0
	call	memmove
.LVL64:
	.loc 3 196 5 is_stmt 1
.LBB91:
.LBB92:
	.loc 2 267 65
	.loc 2 267 117
	.loc 2 267 135 is_stmt 0
	mv	a0,s6
	call	cpu_to_fdt32
.LVL65:
	mv	s0,a0
.LVL66:
	.loc 2 267 133
	sw	a0,4(s1)
.LVL67:
.LBE92:
.LBE91:
	.loc 3 197 5 is_stmt 1
	.loc 3 197 11 is_stmt 0
	addi	a0,s1,12
	call	fdt32_ld
.LVL68:
	.loc 3 197 8
	beq	a0,zero,.L24
	.loc 3 198 9 is_stmt 1
.LVL69:
.LBB93:
.LBB94:
	.loc 2 269 70
	.loc 2 269 122
	.loc 2 269 143 is_stmt 0
	sw	s0,12(s1)
.LVL70:
.L24:
.LBE94:
.LBE93:
	.loc 3 201 1
	lw	ra,44(sp)
	.cfi_remember_state
	.cfi_restore 1
	lw	s0,40(sp)
	.cfi_restore 8
	lw	s1,36(sp)
	.cfi_restore 9
.LVL71:
	lw	s2,32(sp)
	.cfi_restore 18
	lw	s3,28(sp)
	.cfi_restore 19
	lw	s4,24(sp)
	.cfi_restore 20
	lw	s6,16(sp)
	.cfi_restore 22
.LVL72:
	lw	s7,12(sp)
	.cfi_restore 23
	mv	a0,s5
	lw	s5,20(sp)
	.cfi_restore 21
	addi	sp,sp,48
	.cfi_def_cfa_offset 0
	jr	ra
.LVL73:
.L26:
	.cfi_restore_state
	.loc 3 192 9 is_stmt 1
	mv	a2,s4
	mv	a1,s2
	mv	a0,s7
	call	memmove
.LVL74:
	.loc 3 193 9
	mv	a2,s3
	mv	a1,s0
	mv	a0,s1
	j	.L34
.LVL75:
.L28:
	.loc 3 178 16 is_stmt 0
	li	s5,-13
.LVL76:
	j	.L24
.LVL77:
.L29:
	.loc 3 181 16
	li	s5,-3
.LVL78:
	j	.L24
	.cfi_endproc
.LFE45:
	.size	fdt_resize, .-fdt_resize
	.section	.text.fdt_add_reservemap_entry,"ax",@progbits
	.align	1
	.globl	fdt_add_reservemap_entry
	.type	fdt_add_reservemap_entry, @function
fdt_add_reservemap_entry:
.LFB46:
	.loc 3 204 1 is_stmt 1
	.cfi_startproc
.LVL79:
	.loc 3 205 5
	.loc 3 206 5
.LBB103:
	.loc 3 208 7
	.loc 3 208 16
.LBE103:
	.loc 3 204 1 is_stmt 0
	addi	sp,sp,-48
	.cfi_def_cfa_offset 48
	sw	s0,40(sp)
	sw	s2,32(sp)
	sw	s3,28(sp)
	sw	s4,24(sp)
	sw	s5,20(sp)
	sw	s6,16(sp)
	sw	ra,44(sp)
	sw	s1,36(sp)
	sw	s7,12(sp)
	.cfi_offset 8, -8
	.cfi_offset 18, -16
	.cfi_offset 19, -20
	.cfi_offset 20, -24
	.cfi_offset 21, -28
	.cfi_offset 22, -32
	.cfi_offset 1, -4
	.cfi_offset 9, -12
	.cfi_offset 23, -36
	.loc 3 204 1
	mv	s0,a0
.LVL80:
.LBB110:
.LBB104:
.LBB105:
	.loc 3 82 5 is_stmt 1
.LBE105:
.LBE104:
.LBE110:
	.loc 3 204 1 is_stmt 0
	mv	s6,a1
	mv	s5,a2
	mv	s4,a3
	mv	s3,a4
.LBB111:
.LBB108:
.LBB106:
	.loc 3 82 15
	call	fdt_sw_probe_
.LVL81:
	mv	s2,a0
.LVL82:
	.loc 3 83 5 is_stmt 1
	.loc 3 83 8 is_stmt 0
	bne	a0,zero,.L35
	.loc 3 86 5 is_stmt 1
	.loc 3 86 11 is_stmt 0
	addi	a0,s0,12
.LVL83:
	call	fdt32_ld
.LVL84:
	.loc 3 86 8
	bne	a0,zero,.L37
.LVL85:
.LBE106:
.LBE108:
.LBE111:
.LBB112:
.LBB113:
	.loc 3 208 73 is_stmt 1
	.loc 3 210 5
	.loc 3 210 16 is_stmt 0
	addi	a0,s0,8
	call	fdt32_ld
.LVL86:
	.loc 3 211 17
	addi	s7,a0,16
	.loc 3 210 16
	mv	s1,a0
.LVL87:
	.loc 3 211 5 is_stmt 1
	.loc 3 211 36 is_stmt 0
	addi	a0,s0,4
	call	fdt32_ld
.LVL88:
	.loc 3 211 8
	bgtu	s7,a0,.L38
	.loc 3 214 5 is_stmt 1
	.loc 3 215 19 is_stmt 0
	mv	a0,s6
	mv	a1,s5
	call	cpu_to_fdt64
.LVL89:
	.loc 3 214 8
	add	s1,s0,s1
.LVL90:
	.loc 3 215 5 is_stmt 1
	.loc 3 215 17 is_stmt 0
	sw	a0,0(s1)
	sw	a1,4(s1)
	.loc 3 216 5 is_stmt 1
	.loc 3 216 16 is_stmt 0
	mv	a0,s4
	mv	a1,s3
	call	cpu_to_fdt64
.LVL91:
	.loc 3 216 14
	sw	a0,8(s1)
	sw	a1,12(s1)
	.loc 3 218 5 is_stmt 1
.LVL92:
.LBB114:
.LBB115:
	.loc 2 268 69
	.loc 2 268 121
	.loc 2 268 143 is_stmt 0
	mv	a0,s7
	call	cpu_to_fdt32
.LVL93:
	.loc 2 268 141
	sw	a0,8(s0)
.LVL94:
.L35:
.LBE115:
.LBE114:
.LBE113:
.LBE112:
	.loc 3 221 1
	lw	ra,44(sp)
	.cfi_remember_state
	.cfi_restore 1
	lw	s0,40(sp)
	.cfi_restore 8
.LVL95:
	lw	s1,36(sp)
	.cfi_restore 9
	lw	s3,28(sp)
	.cfi_restore 19
	lw	s4,24(sp)
	.cfi_restore 20
	lw	s5,20(sp)
	.cfi_restore 21
	lw	s6,16(sp)
	.cfi_restore 22
	lw	s7,12(sp)
	.cfi_restore 23
	mv	a0,s2
	lw	s2,32(sp)
	.cfi_restore 18
	addi	sp,sp,48
	.cfi_def_cfa_offset 0
	jr	ra
.LVL96:
.L37:
	.cfi_restore_state
.LBB117:
.LBB109:
.LBB107:
	.loc 3 87 16
	li	s2,-7
.LVL97:
	j	.L35
.LVL98:
.L38:
.LBE107:
.LBE109:
.LBE117:
.LBB118:
.LBB116:
	.loc 3 212 16
	li	s2,-3
.LVL99:
	j	.L35
.LBE116:
.LBE118:
	.cfi_endproc
.LFE46:
	.size	fdt_add_reservemap_entry, .-fdt_add_reservemap_entry
	.section	.text.fdt_finish_reservemap,"ax",@progbits
	.align	1
	.globl	fdt_finish_reservemap
	.type	fdt_finish_reservemap, @function
fdt_finish_reservemap:
.LFB47:
	.loc 3 224 1 is_stmt 1
	.cfi_startproc
.LVL100:
	.loc 3 225 5
	.loc 3 224 1 is_stmt 0
	addi	sp,sp,-16
	.cfi_def_cfa_offset 16
	.loc 3 225 15
	li	a3,0
	li	a4,0
	li	a1,0
	li	a2,0
	.loc 3 224 1
	sw	s0,8(sp)
	sw	s1,4(sp)
	sw	ra,12(sp)
	.cfi_offset 8, -8
	.cfi_offset 9, -12
	.cfi_offset 1, -4
	.loc 3 224 1
	mv	s1,a0
	.loc 3 225 15
	call	fdt_add_reservemap_entry
.LVL101:
	mv	s0,a0
.LVL102:
	.loc 3 227 5 is_stmt 1
	.loc 3 227 8 is_stmt 0
	bne	a0,zero,.L40
	.loc 3 230 5 is_stmt 1
	addi	a0,s1,4
	call	fdt32_ld
.LVL103:
.LBB121:
.LBB122:
	.loc 2 269 70
	.loc 2 269 122
	.loc 2 269 145 is_stmt 0
	call	cpu_to_fdt32
.LVL104:
	.loc 2 269 143
	sw	a0,12(s1)
.LVL105:
.L40:
.LBE122:
.LBE121:
	.loc 3 232 1
	lw	ra,12(sp)
	.cfi_restore 1
	mv	a0,s0
	lw	s0,8(sp)
	.cfi_restore 8
.LVL106:
	lw	s1,4(sp)
	.cfi_restore 9
.LVL107:
	addi	sp,sp,16
	.cfi_def_cfa_offset 0
	jr	ra
	.cfi_endproc
.LFE47:
	.size	fdt_finish_reservemap, .-fdt_finish_reservemap
	.section	.text.fdt_begin_node,"ax",@progbits
	.align	1
	.globl	fdt_begin_node
	.type	fdt_begin_node, @function
fdt_begin_node:
.LFB48:
	.loc 3 235 1 is_stmt 1
	.cfi_startproc
.LVL108:
	.loc 3 236 5
	.loc 3 237 5
.LBB123:
	.loc 3 239 7
	.loc 3 239 16
.LBE123:
	.loc 3 235 1 is_stmt 0
	addi	sp,sp,-32
	.cfi_def_cfa_offset 32
	sw	s0,24(sp)
	sw	s1,20(sp)
	sw	s2,16(sp)
	sw	ra,28(sp)
	.cfi_offset 8, -8
	.cfi_offset 9, -12
	.cfi_offset 18, -16
	.cfi_offset 1, -4
	.loc 3 235 1
	mv	s2,a0
	mv	s1,a1
.LBB124:
	.loc 3 239 27
	call	fdt_sw_probe_struct_
.LVL109:
	mv	s0,a0
.LVL110:
	.loc 3 239 19
	bne	a0,zero,.L43
.LBE124:
	.loc 3 239 73 is_stmt 1 discriminator 2
	.loc 3 241 5 discriminator 2
	.loc 3 241 15 is_stmt 0 discriminator 2
	mv	a0,s1
	call	strlen
.LVL111:
	.loc 3 242 80 discriminator 2
	addi	a5,a0,4
	.loc 3 242 85 discriminator 2
	andi	a5,a5,-4
	.loc 3 241 28 discriminator 2
	addi	a2,a0,1
	.loc 3 242 10 discriminator 2
	addi	a1,a5,4
	mv	a0,s2
	.loc 3 241 28 discriminator 2
	sw	a2,12(sp)
.LVL112:
	.loc 3 242 5 is_stmt 1 discriminator 2
	.loc 3 242 10 is_stmt 0 discriminator 2
	call	fdt_grab_space_
.LVL113:
	.loc 3 243 5 is_stmt 1 discriminator 2
	.loc 3 243 8 is_stmt 0 discriminator 2
	beq	a0,zero,.L45
	.loc 3 246 5 is_stmt 1
.LVL114:
	.loc 1 97 5
	.loc 3 247 5 is_stmt 0
	lw	a2,12(sp)
	.loc 3 246 13
	li	a5,16777216
	sw	a5,0(a0)
	.loc 3 247 5 is_stmt 1
	mv	a1,s1
	addi	a0,a0,4
.LVL115:
	call	memcpy
.LVL116:
	.loc 3 248 5
.L43:
	.loc 3 249 1 is_stmt 0
	lw	ra,28(sp)
	.cfi_remember_state
	.cfi_restore 1
	mv	a0,s0
	lw	s0,24(sp)
	.cfi_restore 8
	lw	s1,20(sp)
	.cfi_restore 9
.LVL117:
	lw	s2,16(sp)
	.cfi_restore 18
.LVL118:
	addi	sp,sp,32
	.cfi_def_cfa_offset 0
	jr	ra
.LVL119:
.L45:
	.cfi_restore_state
	.loc 3 244 16
	li	s0,-3
.LVL120:
	j	.L43
	.cfi_endproc
.LFE48:
	.size	fdt_begin_node, .-fdt_begin_node
	.section	.text.fdt_end_node,"ax",@progbits
	.align	1
	.globl	fdt_end_node
	.type	fdt_end_node, @function
fdt_end_node:
.LFB49:
	.loc 3 252 1 is_stmt 1
	.cfi_startproc
.LVL121:
	.loc 3 253 5
.LBB125:
	.loc 3 255 7
	.loc 3 255 16
.LBE125:
	.loc 3 252 1 is_stmt 0
	addi	sp,sp,-16
	.cfi_def_cfa_offset 16
	sw	s0,8(sp)
	sw	s1,4(sp)
	sw	ra,12(sp)
	.cfi_offset 8, -8
	.cfi_offset 9, -12
	.cfi_offset 1, -4
	.loc 3 252 1
	mv	s1,a0
.LBB126:
	.loc 3 255 27
	call	fdt_sw_probe_struct_
.LVL122:
	mv	s0,a0
.LVL123:
	.loc 3 255 19
	bne	a0,zero,.L47
.LBE126:
	.loc 3 255 73 is_stmt 1 discriminator 2
	.loc 3 257 5 discriminator 2
	.loc 3 257 10 is_stmt 0 discriminator 2
	li	a1,4
	mv	a0,s1
	call	fdt_grab_space_
.LVL124:
	.loc 3 258 5 is_stmt 1 discriminator 2
	.loc 3 258 8 is_stmt 0 discriminator 2
	beq	a0,zero,.L49
	.loc 3 261 5 is_stmt 1
.LVL125:
	.loc 1 97 5
	.loc 3 261 9 is_stmt 0
	li	a5,33554432
	sw	a5,0(a0)
	.loc 3 262 5 is_stmt 1
.LVL126:
.L47:
	.loc 3 263 1 is_stmt 0
	lw	ra,12(sp)
	.cfi_remember_state
	.cfi_restore 1
	mv	a0,s0
	lw	s0,8(sp)
	.cfi_restore 8
	lw	s1,4(sp)
	.cfi_restore 9
.LVL127:
	addi	sp,sp,16
	.cfi_def_cfa_offset 0
	jr	ra
.LVL128:
.L49:
	.cfi_restore_state
	.loc 3 259 16
	li	s0,-3
.LVL129:
	j	.L47
	.cfi_endproc
.LFE49:
	.size	fdt_end_node, .-fdt_end_node
	.section	.text.fdt_property_placeholder,"ax",@progbits
	.align	1
	.globl	fdt_property_placeholder
	.type	fdt_property_placeholder, @function
fdt_property_placeholder:
.LFB51:
	.loc 3 289 1 is_stmt 1
	.cfi_startproc
.LVL130:
	.loc 3 290 5
	.loc 3 291 5
.LBB137:
	.loc 3 293 7
	.loc 3 293 16
.LBE137:
	.loc 3 289 1 is_stmt 0
	addi	sp,sp,-48
	.cfi_def_cfa_offset 48
	sw	s1,36(sp)
	sw	s3,28(sp)
	sw	s5,20(sp)
	sw	s6,16(sp)
	sw	s7,12(sp)
	sw	ra,44(sp)
	sw	s0,40(sp)
	sw	s2,32(sp)
	sw	s4,24(sp)
	sw	s8,8(sp)
	sw	s9,4(sp)
	sw	s10,0(sp)
	.cfi_offset 9, -12
	.cfi_offset 19, -20
	.cfi_offset 21, -28
	.cfi_offset 22, -32
	.cfi_offset 23, -36
	.cfi_offset 1, -4
	.cfi_offset 8, -8
	.cfi_offset 18, -16
	.cfi_offset 20, -24
	.cfi_offset 24, -40
	.cfi_offset 25, -44
	.cfi_offset 26, -48
	.loc 3 289 1
	mv	s1,a0
	mv	s7,a1
	mv	s6,a2
	mv	s5,a3
.LBB138:
	.loc 3 293 27
	call	fdt_sw_probe_struct_
.LVL131:
	mv	s3,a0
.LVL132:
	.loc 3 293 19
	bne	a0,zero,.L51
.LVL133:
.LBE138:
.LBB139:
.LBB140:
	.loc 3 293 73 is_stmt 1
	.loc 3 295 5
.LBB141:
.LBB142:
	.loc 3 267 5
	.loc 3 267 36 is_stmt 0
	addi	s8,s1,4
	mv	a0,s8
.LVL134:
	call	fdt32_ld
.LVL135:
	.loc 3 267 11
	add	s4,s1,a0
.LVL136:
	.loc 3 268 5 is_stmt 1
	.loc 3 269 5
	.loc 3 269 24 is_stmt 0
	addi	a0,s1,32
	call	fdt32_ld
.LVL137:
	mv	s2,a0
.LVL138:
	.loc 3 270 5 is_stmt 1
	.loc 3 270 15 is_stmt 0
	mv	a0,s7
.LVL139:
	call	strlen
.LVL140:
	mv	s9,a0
.LVL141:
	.loc 3 271 5 is_stmt 1
	.loc 3 273 5
	.loc 3 273 9 is_stmt 0
	mv	a2,s7
	mv	a1,s2
	sub	a0,s4,s2
.LVL142:
	call	fdt_find_string_
.LVL143:
	.loc 3 274 5 is_stmt 1
	.loc 3 274 8 is_stmt 0
	beq	a0,zero,.L53
	.loc 3 275 9 is_stmt 1
	.loc 3 275 18 is_stmt 0
	sub	s0,a0,s4
.LVL144:
.L54:
.LBE142:
.LBE141:
	.loc 3 296 5 is_stmt 1
	.loc 3 296 8 is_stmt 0
	beq	s0,zero,.L56
	.loc 3 299 5 is_stmt 1
	.loc 3 299 80 is_stmt 0
	addi	a1,s6,3
	.loc 3 299 85
	andi	a1,a1,-4
	.loc 3 299 12
	mv	a0,s1
	addi	a1,a1,12
	call	fdt_grab_space_
.LVL145:
	mv	s1,a0
.LVL146:
	.loc 3 300 5 is_stmt 1
	.loc 3 300 8 is_stmt 0
	beq	a0,zero,.L56
	.loc 3 303 5 is_stmt 1
.LVL147:
.LBE140:
.LBE139:
	.loc 1 97 5
.LBB151:
.LBB149:
	.loc 3 303 15 is_stmt 0
	li	a5,50331648
	sw	a5,0(a0)
	.loc 3 304 5 is_stmt 1
	.loc 3 304 21 is_stmt 0
	mv	a0,s0
	call	cpu_to_fdt32
.LVL148:
	.loc 3 304 19
	sw	a0,8(s1)
	.loc 3 305 5 is_stmt 1
	.loc 3 305 17 is_stmt 0
	mv	a0,s6
	call	cpu_to_fdt32
.LVL149:
	.loc 3 305 15
	sw	a0,4(s1)
	.loc 3 306 5 is_stmt 1
	.loc 3 306 13 is_stmt 0
	addi	s1,s1,12
.LVL150:
	.loc 3 306 11
	sw	s1,0(s5)
	.loc 3 307 5 is_stmt 1
.LVL151:
	.loc 3 307 12 is_stmt 0
	j	.L51
.LVL152:
.L53:
.LBB147:
.LBB145:
	.loc 3 279 20
	addi	a0,s1,8
.LVL153:
	call	fdt32_ld
.LVL154:
	mv	s10,a0
	.loc 3 279 87
	addi	a0,s1,36
	call	fdt32_ld
.LVL155:
	.loc 3 270 25
	addi	s9,s9,1
.LVL156:
	.loc 3 278 5 is_stmt 1
	.loc 3 278 14 is_stmt 0
	neg	s0,s2
	.loc 3 279 83
	add	s10,s10,a0
	.loc 3 280 11
	mv	a0,s8
	.loc 3 278 12
	sub	s0,s0,s9
.LVL157:
	.loc 3 279 5 is_stmt 1
	.loc 3 280 5
	.loc 3 280 11 is_stmt 0
	call	fdt32_ld
.LVL158:
	.loc 3 280 70
	add	a0,a0,s0
	.loc 3 280 8
	bleu	s10,a0,.L55
.LVL159:
.L56:
.LBE145:
.LBE147:
	.loc 3 297 16
	li	s3,-3
.LVL160:
.L51:
.LBE149:
.LBE151:
	.loc 3 308 1
	lw	ra,44(sp)
	.cfi_remember_state
	.cfi_restore 1
	lw	s0,40(sp)
	.cfi_restore 8
	lw	s1,36(sp)
	.cfi_restore 9
	lw	s2,32(sp)
	.cfi_restore 18
	lw	s4,24(sp)
	.cfi_restore 20
	lw	s5,20(sp)
	.cfi_restore 21
.LVL161:
	lw	s6,16(sp)
	.cfi_restore 22
.LVL162:
	lw	s7,12(sp)
	.cfi_restore 23
.LVL163:
	lw	s8,8(sp)
	.cfi_restore 24
	lw	s9,4(sp)
	.cfi_restore 25
	lw	s10,0(sp)
	.cfi_restore 26
	mv	a0,s3
	lw	s3,28(sp)
	.cfi_restore 19
	addi	sp,sp,48
	.cfi_def_cfa_offset 0
	jr	ra
.LVL164:
.L55:
	.cfi_restore_state
.LBB152:
.LBB150:
.LBB148:
.LBB146:
	.loc 3 283 5 is_stmt 1
	mv	a2,s9
	mv	a1,s7
	add	a0,s4,s0
	call	memcpy
.LVL165:
	.loc 3 284 5
.LBB143:
.LBB144:
	.loc 2 274 71
	.loc 2 274 123
	.loc 2 274 147 is_stmt 0
	add	a0,s2,s9
.LVL166:
	call	cpu_to_fdt32
.LVL167:
	.loc 2 274 145
	sw	a0,32(s1)
	.loc 2 274 166
	j	.L54
.LBE144:
.LBE143:
.LBE146:
.LBE148:
.LBE150:
.LBE152:
	.cfi_endproc
.LFE51:
	.size	fdt_property_placeholder, .-fdt_property_placeholder
	.section	.text.fdt_property,"ax",@progbits
	.align	1
	.globl	fdt_property
	.type	fdt_property, @function
fdt_property:
.LFB52:
	.loc 3 311 1 is_stmt 1
	.cfi_startproc
.LVL168:
	.loc 3 312 5
	.loc 3 313 5
	.loc 3 315 5
	.loc 3 311 1 is_stmt 0
	addi	sp,sp,-48
	.cfi_def_cfa_offset 48
	sw	s1,36(sp)
	.cfi_offset 9, -12
	mv	s1,a2
	mv	a2,a3
.LVL169:
	.loc 3 315 11
	addi	a3,sp,28
.LVL170:
	.loc 3 311 1
	sw	s0,40(sp)
	sw	ra,44(sp)
	.cfi_offset 8, -8
	.cfi_offset 1, -4
	.loc 3 315 11
	sw	a2,12(sp)
	call	fdt_property_placeholder
.LVL171:
	mv	s0,a0
.LVL172:
	.loc 3 316 5 is_stmt 1
	.loc 3 316 8 is_stmt 0
	bne	a0,zero,.L64
	.loc 3 318 5 is_stmt 1
	lw	a2,12(sp)
	lw	a0,28(sp)
	mv	a1,s1
	call	memcpy
.LVL173:
	.loc 3 319 5
.L64:
	.loc 3 320 1 is_stmt 0
	lw	ra,44(sp)
	.cfi_restore 1
	mv	a0,s0
	lw	s0,40(sp)
	.cfi_restore 8
.LVL174:
	lw	s1,36(sp)
	.cfi_restore 9
.LVL175:
	addi	sp,sp,48
	.cfi_def_cfa_offset 0
.LVL176:
	jr	ra
	.cfi_endproc
.LFE52:
	.size	fdt_property, .-fdt_property
	.section	.text.fdt_finish,"ax",@progbits
	.align	1
	.globl	fdt_finish
	.type	fdt_finish, @function
fdt_finish:
.LFB53:
	.loc 3 323 1 is_stmt 1
	.cfi_startproc
.LVL177:
	.loc 3 324 5
	.loc 3 323 1 is_stmt 0
	addi	sp,sp,-80
	.cfi_def_cfa_offset 80
	sw	s0,72(sp)
	sw	s3,60(sp)
	sw	ra,76(sp)
	sw	s1,68(sp)
	sw	s2,64(sp)
	sw	s4,56(sp)
	sw	s5,52(sp)
	sw	s6,48(sp)
	sw	s7,44(sp)
	sw	s8,40(sp)
	sw	s9,36(sp)
	.cfi_offset 8, -8
	.cfi_offset 19, -20
	.cfi_offset 1, -4
	.cfi_offset 9, -12
	.cfi_offset 18, -16
	.cfi_offset 20, -24
	.cfi_offset 21, -28
	.cfi_offset 22, -32
	.cfi_offset 23, -36
	.cfi_offset 24, -40
	.cfi_offset 25, -44
	.loc 3 323 1
	mv	s0,a0
.LVL178:
	.loc 3 325 5 is_stmt 1
	.loc 3 326 5
	.loc 3 327 5
	.loc 3 328 5
.LBB167:
	.loc 3 330 7
	.loc 3 330 16
	.loc 3 330 27 is_stmt 0
	call	fdt_sw_probe_struct_
.LVL179:
	mv	s3,a0
.LVL180:
	.loc 3 330 19
	bne	a0,zero,.L67
.LBE167:
	.loc 3 330 73 is_stmt 1 discriminator 2
	.loc 3 333 5 discriminator 2
	.loc 3 333 11 is_stmt 0 discriminator 2
	li	a1,4
	mv	a0,s0
.LVL181:
	call	fdt_grab_space_
.LVL182:
	.loc 3 334 5 is_stmt 1 discriminator 2
	.loc 3 334 8 is_stmt 0 discriminator 2
	beq	a0,zero,.L72
	.loc 3 336 5 is_stmt 1
.LVL183:
	.loc 1 97 5
	.loc 3 336 10 is_stmt 0
	li	a5,150994944
	sw	a5,0(a0)
	.loc 3 339 5 is_stmt 1
	.loc 3 339 22 is_stmt 0
	addi	a0,s0,4
.LVL184:
	call	fdt32_ld
.LVL185:
	.loc 3 339 85
	addi	s4,s0,32
	.loc 3 339 22
	mv	s1,a0
	.loc 3 339 85
	mv	a0,s4
	call	fdt32_ld
.LVL186:
	.loc 3 340 22
	addi	s5,s0,8
	.loc 3 339 81
	sub	s1,s1,a0
	sw	a0,12(sp)
.LVL187:
	.loc 3 340 5 is_stmt 1
	.loc 3 340 22 is_stmt 0
	mv	a0,s5
	call	fdt32_ld
.LVL188:
	mv	s2,a0
	.loc 3 340 89
	addi	a0,s0,36
	call	fdt32_ld
.LVL189:
	.loc 3 341 5
	lw	a2,12(sp)
	.loc 3 340 85
	add	s2,s2,a0
.LVL190:
	.loc 3 341 5 is_stmt 1
	add	a1,s0,s1
	add	a0,s0,s2
	call	memmove
.LVL191:
	.loc 3 342 5
.LBB168:
.LBB169:
	.loc 2 269 70
	.loc 2 269 122
	.loc 2 269 145 is_stmt 0
	mv	a0,s2
	call	cpu_to_fdt32
.LVL192:
	.loc 2 269 143
	sw	a0,12(s0)
.LBE169:
.LBE168:
	.loc 3 345 12
	li	s1,0
.LVL193:
	.loc 3 346 11
	li	s6,9
	.loc 3 347 12
	li	s7,3
.LVL194:
.L69:
	.loc 3 346 11 is_stmt 1
	.loc 3 346 19 is_stmt 0
	addi	a2,sp,28
	mv	a1,s1
	mv	a0,s0
	call	fdt_next_tag
.LVL195:
	lw	s8,28(sp)
	.loc 3 346 11
	bne	a0,s6,.L71
	.loc 3 358 5 is_stmt 1
	.loc 3 358 8 is_stmt 0
	blt	s8,zero,.L73
	.loc 3 362 5 is_stmt 1
	.loc 3 362 45 is_stmt 0
	mv	a0,s4
.LVL196:
	call	fdt32_ld
.LVL197:
.LBB170:
.LBB171:
	.loc 2 267 65 is_stmt 1
	.loc 2 267 117
	.loc 2 267 135 is_stmt 0
	add	a0,s2,a0
.LVL198:
	call	cpu_to_fdt32
.LVL199:
.LBE171:
.LBE170:
.LBB173:
.LBB174:
	.loc 2 266 125
	li	a5,-302116864
	addi	a5,a5,-560
.LBE174:
.LBE173:
.LBB177:
.LBB172:
	.loc 2 267 133
	sw	a0,4(s0)
.LVL200:
.LBE172:
.LBE177:
	.loc 3 363 5 is_stmt 1
.LBB178:
.LBB175:
	.loc 2 266 61
	.loc 2 266 113
.LBE175:
.LBE178:
	.loc 1 93 5
.LBB179:
.LBB176:
	.loc 2 266 125 is_stmt 0
	sw	a5,0(s0)
.LVL201:
.L67:
.LBE176:
.LBE179:
	.loc 3 365 1
	lw	ra,76(sp)
	.cfi_remember_state
	.cfi_restore 1
	lw	s0,72(sp)
	.cfi_restore 8
.LVL202:
	lw	s1,68(sp)
	.cfi_restore 9
	lw	s2,64(sp)
	.cfi_restore 18
	lw	s4,56(sp)
	.cfi_restore 20
	lw	s5,52(sp)
	.cfi_restore 21
	lw	s6,48(sp)
	.cfi_restore 22
	lw	s7,44(sp)
	.cfi_restore 23
	lw	s8,40(sp)
	.cfi_restore 24
	lw	s9,36(sp)
	.cfi_restore 25
	mv	a0,s3
	lw	s3,60(sp)
	.cfi_restore 19
	addi	sp,sp,80
	.cfi_def_cfa_offset 0
	jr	ra
.LVL203:
.L71:
	.cfi_restore_state
	.loc 3 347 9 is_stmt 1
	.loc 3 347 12 is_stmt 0
	bne	a0,s7,.L70
.LBB180:
	.loc 3 348 13 is_stmt 1
.LVL204:
.LBE180:
	.loc 4 78 5
.LBB184:
.LBB181:
.LBB182:
.LBB183:
	.loc 4 73 5
	.loc 4 73 34 is_stmt 0
	mv	a0,s5
.LVL205:
	call	fdt32_ld
.LVL206:
	.loc 4 73 97
	add	s1,s1,a0
.LVL207:
	add	s1,s0,s1
.LVL208:
.LBE183:
.LBE182:
.LBE181:
	.loc 3 350 13 is_stmt 1
	.loc 3 352 13
	.loc 3 352 23 is_stmt 0
	lw	a0,8(s1)
	call	fdt32_to_cpu
.LVL209:
	mv	s9,a0
.LVL210:
	.loc 3 353 13 is_stmt 1
	.loc 3 353 26 is_stmt 0
	mv	a0,s4
.LVL211:
	call	fdt32_ld
.LVL212:
	.loc 3 354 13 is_stmt 1
	.loc 3 354 29 is_stmt 0
	add	a0,s9,a0
.LVL213:
	call	cpu_to_fdt32
.LVL214:
	.loc 3 354 27
	sw	a0,8(s1)
.LVL215:
.L70:
.LBE184:
	.loc 3 356 9 is_stmt 1
	.loc 3 356 16 is_stmt 0
	mv	s1,s8
.LVL216:
	j	.L69
.LVL217:
.L72:
	.loc 3 335 16
	li	s3,-3
.LVL218:
	j	.L67
.LVL219:
.L73:
	mv	s3,s8
.LVL220:
	j	.L67
	.cfi_endproc
.LFE53:
	.size	fdt_finish, .-fdt_finish
	.text
.Letext0:
	.file 5 "/mnt/d/GitHub/bl_iot_sdk_for_aithinker/toolchain/riscv/Linux/lib/gcc/riscv64-unknown-elf/10.2.0/include/stddef.h"
	.file 6 "/mnt/d/GitHub/bl_iot_sdk_for_aithinker/toolchain/riscv/Linux/lib/gcc/riscv64-unknown-elf/10.2.0/include/stdint-gcc.h"
	.file 7 "/mnt/d/GitHub/bl_iot_sdk_for_aithinker/components/stage/blfdt/inc/fdt.h"
	.file 8 "/mnt/d/GitHub/bl_iot_sdk_for_aithinker/toolchain/riscv/Linux/riscv64-unknown-elf/include/string.h"