	.file	"tasks.c"
	.option nopic
	.attribute arch, "rv32i2p0_m2p0_f2p0_c2p0"
	.attribute unaligned_access, 0
	.attribute stack_align, 16
	.text
.Ltext0:
	.cfi_sections	.debug_frame
	.section	.text.prvAddCurrentTaskToDelayedList,"ax",@progbits
	.align	1
	.type	prvAddCurrentTaskToDelayedList, @function
prvAddCurrentTaskToDelayedList:
.LFB73:
	.file 1 "/mnt/d/GitHub/bl_iot_sdk_for_aithinker/components/platform/soc/bl602/freertos_riscv_ram/tasks.c"
	.loc 1 5293 1
	.cfi_startproc
.LVL0:
	.loc 1 5294 1
	.loc 1 5295 1
	.loc 1 5293 1 is_stmt 0
	addi	sp,sp,-32
	.cfi_def_cfa_offset 32
	sw	s1,20(sp)
	.cfi_offset 9, -12
	.loc 1 5308 35
	lui	s1,%hi(.LANCHOR1)
	.loc 1 5295 18
	lui	a5,%hi(.LANCHOR0)
	.loc 1 5308 35
	addi	s1,s1,%lo(.LANCHOR1)
	.loc 1 5293 1
	sw	s2,16(sp)
	.cfi_offset 18, -16
	.loc 1 5295 18
	lw	s2,%lo(.LANCHOR0)(a5)
.LVL1:
	.loc 1 5308 2 is_stmt 1
	.loc 1 5308 35 is_stmt 0
	lw	a5,0(s1)
	.loc 1 5293 1
	sw	s0,24(sp)
	.cfi_offset 8, -8
	mv	s0,a0
	.loc 1 5308 6
	addi	a0,a5,4
.LVL2:
	.loc 1 5293 1
	sw	s3,12(sp)
	sw	ra,28(sp)
	.cfi_offset 19, -20
	.cfi_offset 1, -4
	.loc 1 5293 1
	mv	s3,a1
	.loc 1 5308 6
	call	uxListRemove
.LVL3:
	.loc 1 5308 4
	bne	a0,zero,.L2
	.loc 1 5312 3 is_stmt 1
	.loc 1 5312 53 is_stmt 0
	lw	a5,0(s1)
	.loc 1 5312 26
	lui	a4,%hi(.LANCHOR2)
	addi	a4,a4,%lo(.LANCHOR2)
	.loc 1 5312 36
	lw	a2,44(a5)
	.loc 1 5312 26
	lw	a3,0(a4)
	.loc 1 5312 36
	li	a5,1
	sll	a5,a5,a2
	.loc 1 5312 29
	not	a5,a5
	.loc 1 5312 26
	and	a5,a5,a3
	sw	a5,0(a4)
.L2:
	.loc 1 5316 3 is_stmt 1
	.loc 1 5321 3
	.loc 1 5321 5 is_stmt 0
	li	a5,-1
	beq	s0,a5,.L11
.L3:
	.loc 1 5333 4 is_stmt 1
	.loc 1 5336 23 is_stmt 0
	lw	a5,0(s1)
	.loc 1 5333 16
	add	s0,s2,s0
.LVL4:
	.loc 1 5336 4 is_stmt 1
	.loc 1 5336 56 is_stmt 0
	sw	s0,4(a5)
	.loc 1 5338 4 is_stmt 1
	.loc 1 5338 6 is_stmt 0
	bgtu	s2,s0,.L12
	.loc 1 5348 5 is_stmt 1
	lui	a5,%hi(.LANCHOR5)
	lw	a0,%lo(.LANCHOR5)(a5)
	.loc 1 5348 52 is_stmt 0
	lw	a1,0(s1)
	.loc 1 5348 5
	addi	a1,a1,4
	call	vListInsert
.LVL5:
	.loc 1 5353 5 is_stmt 1
	.loc 1 5353 21 is_stmt 0
	lui	a5,%hi(.LANCHOR6)
	addi	a5,a5,%lo(.LANCHOR6)
	lw	a4,0(a5)
	.loc 1 5353 7
	bleu	a4,s0,.L1
	.loc 1 5355 6 is_stmt 1
	.loc 1 5355 27 is_stmt 0
	sw	s0,0(a5)
	.loc 1 5359 6 is_stmt 1
.L1:
	.loc 1 5401 1 is_stmt 0
	lw	ra,28(sp)
	.cfi_remember_state
	.cfi_restore 1
	lw	s0,24(sp)
	.cfi_restore 8
.LVL6:
	lw	s1,20(sp)
	.cfi_restore 9
	lw	s2,16(sp)
	.cfi_restore 18
.LVL7:
	lw	s3,12(sp)
	.cfi_restore 19
.LVL8:
	addi	sp,sp,32
	.cfi_def_cfa_offset 0
	jr	ra
.LVL9:
.L12:
	.cfi_restore_state
	.loc 1 5342 5 is_stmt 1
	lui	a5,%hi(.LANCHOR4)
	lw	a0,%lo(.LANCHOR4)(a5)
	.loc 1 5401 1 is_stmt 0
	lw	s0,24(sp)
	.cfi_remember_state
	.cfi_restore 8
.LVL10:
	.loc 1 5342 60
	lw	a1,0(s1)
	.loc 1 5401 1
	lw	ra,28(sp)
	.cfi_restore 1
	lw	s1,20(sp)
	.cfi_restore 9
	lw	s2,16(sp)
	.cfi_restore 18
.LVL11:
	lw	s3,12(sp)
	.cfi_restore 19
.LVL12:
	.loc 1 5342 5
	addi	a1,a1,4
	.loc 1 5401 1
	addi	sp,sp,32
	.cfi_def_cfa_offset 0
	.loc 1 5342 5
	tail	vListInsert
.LVL13:
.L11:
	.cfi_restore_state
	.loc 1 5321 55 discriminator 1
	beq	s3,zero,.L3
	.loc 1 5326 4 is_stmt 1
	.loc 1 5326 56 is_stmt 0
	lw	a1,0(s1)
	.loc 1 5401 1
	lw	s0,24(sp)
	.cfi_restore 8
.LVL14:
	lw	ra,28(sp)
	.cfi_restore 1
	lw	s1,20(sp)
	.cfi_restore 9
	lw	s2,16(sp)
	.cfi_restore 18
.LVL15:
	lw	s3,12(sp)
	.cfi_restore 19
.LVL16:
	.loc 1 5326 4
	lui	a0,%hi(.LANCHOR3)
	.loc 1 5401 1
	.loc 1 5326 4
	addi	a0,a0,%lo(.LANCHOR3)
	addi	a1,a1,4
	.loc 1 5401 1
	addi	sp,sp,32
	.cfi_def_cfa_offset 0
	.loc 1 5326 4
	tail	vListInsertEnd
.LVL17:
	.cfi_endproc
.LFE73:
	.size	prvAddCurrentTaskToDelayedList, .-prvAddCurrentTaskToDelayedList
	.section	.text.prvAddTaskToAllListWithSingleList.part.0,"ax",@progbits
	.align	1
	.type	prvAddTaskToAllListWithSingleList.part.0, @function
prvAddTaskToAllListWithSingleList.part.0:
.LFB77:
	.loc 1 3913 21 is_stmt 1
	.cfi_startproc
.LVL18:
.LBB47:
	.loc 1 3921 6
.LBE47:
	.loc 1 3913 21 is_stmt 0
	addi	sp,sp,-48
	.cfi_def_cfa_offset 48
	sw	s2,32(sp)
	sw	s4,24(sp)
	sw	ra,44(sp)
	sw	s0,40(sp)
	sw	s1,36(sp)
	sw	s3,28(sp)
	sw	s5,20(sp)
	sw	s6,16(sp)
	sw	s7,12(sp)
	.cfi_offset 18, -16
	.cfi_offset 20, -24
	.cfi_offset 1, -4
	.cfi_offset 8, -8
	.cfi_offset 9, -12
	.cfi_offset 19, -20
	.cfi_offset 21, -28
	.cfi_offset 22, -32
	.cfi_offset 23, -36
.LBB48:
	.loc 1 3921 98
	lw	a5,4(a0)
	.loc 1 3921 162
	addi	s4,a0,8
.LBE48:
	.loc 1 3913 21
	mv	s2,a0
.LVL19:
.LBB49:
	.loc 1 3921 47 is_stmt 1
	.loc 1 3921 98 is_stmt 0
	lw	a5,4(a5)
	.loc 1 3921 72
	sw	a5,4(a0)
	.loc 1 3921 108 is_stmt 1
	.loc 1 3921 110 is_stmt 0
	beq	a5,s4,.L21
.L14:
	.loc 1 3921 260 is_stmt 1
	.loc 1 3921 275 is_stmt 0
	lw	s6,12(a5)
.LVL20:
.LBE49:
	.loc 1 3916 14
	li	s3,0
	lui	s5,%hi(.LANCHOR7)
	.loc 1 3930 29
	lui	s7,%hi(.LANCHOR1)
	j	.L18
.LVL21:
.L15:
.LBB50:
	.loc 1 3929 275
	lw	s1,12(a5)
.LVL22:
.LBE50:
	.loc 1 3929 313 is_stmt 1
	.loc 1 3930 5
	mv	s0,s1
	.loc 1 3930 29 is_stmt 0
	beq	s1,zero,.L22
.L16:
.LVL23:
	.loc 1 3931 5 is_stmt 1
	addi	s0,s0,4
.LVL24:
	mv	a0,s0
	call	uxListRemove
.LVL25:
	.loc 1 3931 53
	mv	a1,s0
	addi	a0,s5,%lo(.LANCHOR7)
	call	vListInsertEnd
.LVL26:
	.loc 1 3932 5
	.loc 1 3933 11
	.loc 1 3933 4 is_stmt 0
	beq	s6,s1,.L13
.LBB51:
	.loc 1 3929 90
	lw	a5,4(s2)
.LVL27:
.L18:
.LBE51:
	.loc 1 3921 313 is_stmt 1
	.loc 1 3927 4
.LBB52:
	.loc 1 3929 7
	.loc 1 3929 48
	.loc 1 3929 261
	.loc 1 3929 99 is_stmt 0
	lw	a5,4(a5)
.LBE52:
	.loc 1 3932 11
	addi	s3,s3,1
.LVL28:
.LBB53:
	.loc 1 3929 73
	sw	a5,4(s2)
	.loc 1 3929 109 is_stmt 1
	.loc 1 3929 111 is_stmt 0
	bne	s4,a5,.L15
	.loc 1 3929 198 is_stmt 1
	.loc 1 3929 249 is_stmt 0
	lw	a5,4(s4)
	.loc 1 3929 223
	sw	a5,4(s2)
	.loc 1 3929 275
	lw	s1,12(a5)
.LVL29:
.LBE53:
	.loc 1 3929 313 is_stmt 1
	.loc 1 3930 5
	mv	s0,s1
	.loc 1 3930 29 is_stmt 0
	bne	s1,zero,.L16
.LVL30:
.L22:
	addi	a5,s7,%lo(.LANCHOR1)
	lw	s0,0(a5)
.LVL31:
	j	.L16
.LVL32:
.L13:
	.loc 1 3941 2
	lw	ra,44(sp)
	.cfi_remember_state
	.cfi_restore 1
	lw	s0,40(sp)
	.cfi_restore 8
.LVL33:
	lw	s1,36(sp)
	.cfi_restore 9
.LVL34:
	lw	s2,32(sp)
	.cfi_restore 18
.LVL35:
	lw	s4,24(sp)
	.cfi_restore 20
.LVL36:
	lw	s5,20(sp)
	.cfi_restore 21
	lw	s6,16(sp)
	.cfi_restore 22
.LVL37:
	lw	s7,12(sp)
	.cfi_restore 23
	mv	a0,s3
	lw	s3,28(sp)
	.cfi_restore 19
.LVL38:
	addi	sp,sp,48
	.cfi_def_cfa_offset 0
	jr	ra
.LVL39:
.L21:
	.cfi_restore_state
.LBB54:
	.loc 1 3921 197 is_stmt 1
	.loc 1 3921 248 is_stmt 0
	lw	a5,12(a0)
	.loc 1 3921 222
	sw	a5,4(a0)
	j	.L14
.LBE54:
	.cfi_endproc
.LFE77:
	.size	prvAddTaskToAllListWithSingleList.part.0, .-prvAddTaskToAllListWithSingleList.part.0
	.globl	__clzsi2
	.section	.text.vTaskSwitchContext.part.0,"ax",@progbits
	.align	1
	.type	vTaskSwitchContext.part.0, @function
vTaskSwitchContext.part.0:
.LFB79:
	.loc 1 3118 6 is_stmt 1
	.cfi_startproc
	.loc 1 3128 3
	.loc 1 3118 6 is_stmt 0
	addi	sp,sp,-32
	.cfi_def_cfa_offset 32
	sw	s2,16(sp)
	.loc 1 3128 17
	lui	a5,%hi(.LANCHOR8)
	.cfi_offset 18, -16
.LBB55:
	.loc 1 3159 66
	lui	s2,%hi(.LANCHOR1)
.LBE55:
	.loc 1 3128 17
	sw	zero,%lo(.LANCHOR8)(a5)
	.loc 1 3129 3 is_stmt 1
.LBB56:
	.loc 1 3159 5
	.loc 1 3159 66 is_stmt 0
	addi	s2,s2,%lo(.LANCHOR1)
	lw	a4,0(s2)
.LBE56:
	.loc 1 3118 6
	sw	ra,28(sp)
	sw	s0,24(sp)
	sw	s1,20(sp)
	sw	s3,12(sp)
	.cfi_offset 1, -4
	.cfi_offset 8, -8
	.cfi_offset 9, -12
	.cfi_offset 19, -20
.LBB57:
	.loc 1 3159 28
	lw	a4,48(a4)
.LVL40:
	.loc 1 3159 77 is_stmt 1
	.loc 1 3159 132
	.loc 1 3159 134 is_stmt 0
	li	a5,-1515872256
	addi	a5,a5,1445
	lw	a3,0(a4)
	bne	a3,a5,.L24
	.loc 1 3159 170
	lw	a5,4(a4)
	beq	a5,a3,.L29
.L24:
	.loc 1 3159 285 is_stmt 1
	lw	a0,0(s2)
	.loc 1 3159 359 is_stmt 0
	lw	a1,0(s2)
	.loc 1 3159 285
	addi	a1,a1,52
	call	vApplicationStackOverflowHook
.LVL41:
.L25:
.LBE57:
	.loc 1 3159 378 is_stmt 1
.LBB58:
	.loc 1 3170 5
	.loc 1 3170 32
	.loc 1 3170 57 is_stmt 0
	lui	a5,%hi(.LANCHOR2)
	lw	a0,%lo(.LANCHOR2)(a5)
	.loc 1 3170 46
	li	s0,31
	.loc 1 3170 147
	lui	s1,%hi(.LANCHOR9)
	.loc 1 3170 57
	call	__clzsi2
.LVL42:
	.loc 1 3170 46
	sub	s3,s0,a0
.LVL43:
	.loc 1 3170 96 is_stmt 1
	.loc 1 3170 147 is_stmt 0
	slli	s0,s3,2
	add	a5,s0,s3
	addi	s1,s1,%lo(.LANCHOR9)
	slli	a5,a5,2
	add	a5,s1,a5
	lw	a5,0(a5)
	.loc 1 3170 98
	beq	a5,zero,.L30
.L26:
.LBB59:
	.loc 1 3170 210 is_stmt 1
.LVL44:
	.loc 1 3170 284
	.loc 1 3170 326 is_stmt 0
	add	s0,s0,s3
	slli	s0,s0,2
	add	a4,s1,s0
	.loc 1 3170 335
	lw	a5,4(a4)
	.loc 1 3170 399
	addi	s0,s0,8
	add	s0,s1,s0
	.loc 1 3170 335
	lw	a5,4(a5)
	.loc 1 3170 309
	sw	a5,4(a4)
	.loc 1 3170 345 is_stmt 1
	.loc 1 3170 347 is_stmt 0
	beq	a5,s0,.L31
.L27:
	.loc 1 3170 497 is_stmt 1
	.loc 1 3170 540 is_stmt 0
	lw	a5,12(a5)
.LBE59:
.LBE58:
	.loc 1 3188 1
	lw	ra,28(sp)
	.cfi_remember_state
	.cfi_restore 1
	lw	s0,24(sp)
	.cfi_restore 8
.LBB62:
.LBB60:
	.loc 1 3170 514
	sw	a5,0(s2)
.LBE60:
	.loc 1 3170 552 is_stmt 1
.LBE62:
	.loc 1 3170 555
	.loc 1 3171 3
	.loc 1 3188 1 is_stmt 0
	lw	s1,20(sp)
	.cfi_restore 9
	lw	s2,16(sp)
	.cfi_restore 18
	lw	s3,12(sp)
	.cfi_restore 19
.LVL45:
	addi	sp,sp,32
	.cfi_def_cfa_offset 0
	jr	ra
.LVL46:
.L30:
	.cfi_restore_state
.LBB63:
	.loc 1 3170 180 is_stmt 1
	li	a0,2
	call	vEnvironmentCall
.LVL47:
	j	.L26
.LVL48:
.L31:
.LBB61:
	.loc 1 3170 434
	.loc 1 3170 485 is_stmt 0
	lw	a5,4(a5)
	.loc 1 3170 459
	sw	a5,4(a4)
	j	.L27
.LVL49:
.L29:
.LBE61:
.LBE63:
.LBB64:
	.loc 1 3159 207
	lw	a3,8(a4)
	bne	a3,a5,.L24
	.loc 1 3159 244
	lw	a5,12(a4)
	bne	a5,a3,.L24
	j	.L25
.LBE64:
	.cfi_endproc
.LFE79:
	.size	vTaskSwitchContext.part.0, .-vTaskSwitchContext.part.0
	.section	.text.prvInitialiseNewTask.constprop.0,"ax",@progbits
	.align	1
	.type	prvInitialiseNewTask.constprop.0, @function
prvInitialiseNewTask.constprop.0:
.LFB86:
	.loc 1 863 13 is_stmt 1
	.cfi_startproc
.LVL50:
	addi	sp,sp,-32
	.cfi_def_cfa_offset 32
	sw	s0,24(sp)
	sw	s1,20(sp)
	sw	s2,16(sp)
	sw	s3,12(sp)
	sw	s4,8(sp)
	sw	s5,4(sp)
	sw	s6,0(sp)
	sw	ra,28(sp)
	.cfi_offset 8, -8
	.cfi_offset 9, -12
	.cfi_offset 18, -16
	.cfi_offset 19, -20
	.cfi_offset 20, -24
	.cfi_offset 21, -28
	.cfi_offset 22, -32
	.cfi_offset 1, -4
	.loc 1 863 13 is_stmt 0
	mv	s4,a0
	.loc 1 893 12
	lw	a0,48(a6)
.LVL51:
	slli	s3,a2,2
	mv	a2,s3
.LVL52:
	.loc 1 863 13
	mv	s0,a1
	.loc 1 893 12
	li	a1,165
.LVL53:
	.loc 1 872 1 is_stmt 1
	.loc 1 873 1
	.loc 1 893 3
	.loc 1 863 13 is_stmt 0
	mv	s1,a6
	mv	s6,a5
	mv	s5,a3
	mv	s2,a4
	.loc 1 893 12
	call	memset
.LVL54:
	.loc 1 903 3 is_stmt 1
	.loc 1 904 3
	.loc 1 903 16 is_stmt 0
	lw	a5,48(s1)
	.loc 1 903 38
	addi	s3,s3,-4
.LVL55:
	.loc 1 903 16
	add	s3,a5,s3
.LVL56:
	.loc 1 904 68
	andi	s3,s3,-8
.LVL57:
	.loc 1 907 3 is_stmt 1
	.loc 1 931 2
	.loc 1 931 4 is_stmt 0
	beq	s0,zero,.L33
	mv	a1,s0
	addi	a6,s1,52
	addi	a5,s0,16
.L35:
.LVL58:
	.loc 1 935 4 is_stmt 1
	.loc 1 946 5
	.loc 1 933 59
	.loc 1 933 31
	.loc 1 935 38 is_stmt 0
	lbu	a7,0(a1)
	.loc 1 933 3
	addi	a6,a6,1
	addi	a1,a1,1
	.loc 1 935 30
	sb	a7,-1(a6)
	.loc 1 940 4 is_stmt 1
	.loc 1 940 6 is_stmt 0
	beq	a7,zero,.L34
	.loc 1 933 3
	bne	a1,a5,.L35
.L34:
	.loc 1 952 3 is_stmt 1
	.loc 1 952 38 is_stmt 0
	sb	zero,67(s1)
.L36:
	.loc 1 963 2 is_stmt 1
	li	a5,31
	bleu	s2,a5,.L37
	li	s2,31
.LVL59:
.L37:
	.loc 1 969 3
	.loc 1 972 2
	.loc 1 980 2 is_stmt 0
	addi	a0,s1,4
	.loc 1 972 23
	sw	s2,44(s1)
	.loc 1 975 3 is_stmt 1
	.loc 1 975 28 is_stmt 0
	sw	s2,80(s1)
	.loc 1 976 3 is_stmt 1
	.loc 1 976 27 is_stmt 0
	sw	zero,84(s1)
	.loc 1 980 2 is_stmt 1
	call	vListInitialiseItem
.LVL60:
	.loc 1 981 2
	addi	a0,s1,24
	call	vListInitialiseItem
.LVL61:
	.loc 1 985 2
	.loc 1 988 76 is_stmt 0
	li	a5,32
	sub	s0,a5,s2
.LVL62:
	.loc 1 1031 29
	sw	zero,88(s1)
	.loc 1 985 47
	sw	s1,16(s1)
	.loc 1 988 2 is_stmt 1
	.loc 1 988 50 is_stmt 0
	sw	s0,24(s1)
	.loc 1 989 2 is_stmt 1
	.loc 1 989 47 is_stmt 0
	sw	s1,36(s1)
	.loc 1 993 3 is_stmt 1
	.loc 1 993 31 is_stmt 0
	sw	zero,68(s1)
	.loc 1 1016 3 is_stmt 1
	.loc 1 1031 3
	.loc 1 1032 3
	.loc 1 1032 27 is_stmt 0
	sb	zero,92(s1)
	.loc 1 1095 4 is_stmt 1
	.loc 1 1095 29 is_stmt 0
	mv	a2,s5
	mv	a1,s4
	mv	a0,s3
	call	pxPortInitialiseStack
.LVL63:
	.loc 1 1095 27
	sw	a0,0(s1)
	.loc 1 1101 2 is_stmt 1
	.loc 1 1101 4 is_stmt 0
	beq	s6,zero,.L32
	.loc 1 1105 3 is_stmt 1
	.loc 1 1105 18 is_stmt 0
	sw	s1,0(s6)
	.loc 1 1109 3 is_stmt 1
.L32:
	.loc 1 1111 1 is_stmt 0
	lw	ra,28(sp)
	.cfi_remember_state
	.cfi_restore 1
	lw	s0,24(sp)
	.cfi_restore 8
	lw	s1,20(sp)
	.cfi_restore 9
.LVL64:
	lw	s2,16(sp)
	.cfi_restore 18
.LVL65:
	lw	s3,12(sp)
	.cfi_restore 19
.LVL66:
	lw	s4,8(sp)
	.cfi_restore 20
.LVL67:
	lw	s5,4(sp)
	.cfi_restore 21
.LVL68:
	lw	s6,0(sp)
	.cfi_restore 22
.LVL69:
	addi	sp,sp,32
	.cfi_def_cfa_offset 0
	jr	ra
.LVL70:
.L33:
	.cfi_restore_state
	.loc 1 958 3 is_stmt 1
	.loc 1 958 29 is_stmt 0
	sb	zero,52(s1)
	j	.L36
	.cfi_endproc
.LFE86:
	.size	prvInitialiseNewTask.constprop.0, .-prvInitialiseNewTask.constprop.0
	.section	.text.prvIdleTask,"ax",@progbits
	.align	1
	.type	prvIdleTask, @function
prvIdleTask:
.LFB46:
	.loc 1 3506 1 is_stmt 1
	.cfi_startproc
.LVL71:
	addi	sp,sp,-48
	.cfi_def_cfa_offset 48
	sw	s0,40(sp)
	sw	s1,36(sp)
	sw	s2,32(sp)
	sw	s3,28(sp)
	sw	s4,24(sp)
	sw	s7,12(sp)
	.cfi_offset 8, -8
	.cfi_offset 9, -12
	.cfi_offset 18, -16
	.cfi_offset 19, -20
	.cfi_offset 20, -24
	.cfi_offset 23, -36
	lui	s0,%hi(.LANCHOR10)
	lui	s2,%hi(.LANCHOR11)
	lui	s3,%hi(.LANCHOR1)
	lui	s4,%hi(.LANCHOR12)
	lui	s1,%hi(.LANCHOR13)
	lui	s7,%hi(.LANCHOR9)
	sw	s5,20(sp)
	sw	s6,16(sp)
	sw	ra,44(sp)
	sw	s8,8(sp)
	.cfi_offset 21, -28
	.cfi_offset 22, -32
	.cfi_offset 1, -4
	.cfi_offset 24, -40
	addi	s0,s0,%lo(.LANCHOR10)
	addi	s2,s2,%lo(.LANCHOR11)
	addi	s3,s3,%lo(.LANCHOR1)
	addi	s4,s4,%lo(.LANCHOR12)
	addi	s1,s1,%lo(.LANCHOR13)
	addi	s7,s7,%lo(.LANCHOR9)
.LBB81:
.LBB82:
.LBB83:
.LBB84:
	.loc 1 4069 11 is_stmt 0
	li	s5,1
	.loc 1 4079 7
	li	s6,2
.LVL72:
.L58:
.LBE84:
.LBE83:
.LBE82:
.LBE81:
	.loc 1 3508 2 is_stmt 1
	.loc 1 3516 2
	.loc 1 3518 2
	.loc 1 3522 3
.LBB102:
.LBB99:
	.loc 1 3762 3
	.loc 1 3766 3
	.loc 1 3766 8
	.loc 1 3766 39 is_stmt 0
	lw	a5,0(s0)
	.loc 1 3766 8
	beq	a5,zero,.L48
.L72:
	.loc 1 3768 4 is_stmt 1
.LBB89:
.LBB90:
	.loc 1 4431 3
 #APP
# 4431 "/mnt/d/GitHub/bl_iot_sdk_for_aithinker/components/platform/soc/bl602/freertos_riscv_ram/tasks.c" 1
	csrc mstatus, 8
# 0 "" 2
	.loc 1 4433 3
	.loc 1 4433 25 is_stmt 0
 #NO_APP
	lw	a5,0(s2)
	.loc 1 4433 5
	beq	a5,zero,.L49
.LBB91:
.LBB92:
	.loc 1 4435 4 is_stmt 1
	.loc 1 4435 18 is_stmt 0
	lw	a4,0(s3)
	.loc 1 4443 20
	lw	a5,0(s3)
	.loc 1 4435 39
	lw	a5,68(a4)
	addi	a5,a5,1
	sw	a5,68(a4)
	.loc 1 4443 4 is_stmt 1
	.loc 1 4445 5
	.loc 1 4450 4
.L49:
.LBE92:
.LBE91:
	.loc 1 4450 4
.LBE90:
.LBE89:
	.loc 1 3770 5
	.loc 1 3770 11 is_stmt 0
	lw	a5,12(s4)
	lw	s8,12(a5)
.LVL73:
	.loc 1 3771 5 is_stmt 1
	.loc 1 3771 14 is_stmt 0
	addi	a0,s8,4
	call	uxListRemove
.LVL74:
	.loc 1 3772 5 is_stmt 1
	lw	a5,0(s1)
	addi	a5,a5,-1
	sw	a5,0(s1)
	.loc 1 3773 5
	lw	a5,0(s0)
	addi	a5,a5,-1
	sw	a5,0(s0)
	.loc 1 3775 4
.LBB93:
.LBB94:
	.loc 1 4461 3
	.loc 1 4461 25 is_stmt 0
	lw	a5,0(s2)
	.loc 1 4461 5
	beq	a5,zero,.L51
	.loc 1 4463 4 is_stmt 1
	.loc 1 4463 20 is_stmt 0
	lw	a5,0(s3)
	.loc 1 4463 6
	lw	a5,68(a5)
	beq	a5,zero,.L51
.LBB95:
.LBB96:
	.loc 1 4465 5 is_stmt 1
	.loc 1 4465 19 is_stmt 0
	lw	a4,0(s3)
	.loc 1 4467 21
	lw	a3,0(s3)
	.loc 1 4465 40
	lw	a5,68(a4)
	addi	a5,a5,-1
	sw	a5,68(a4)
	.loc 1 4467 5 is_stmt 1
	.loc 1 4467 7 is_stmt 0
	lw	a5,68(a3)
	bne	a5,zero,.L51
	.loc 1 4469 6 is_stmt 1
 #APP
# 4469 "/mnt/d/GitHub/bl_iot_sdk_for_aithinker/components/platform/soc/bl602/freertos_riscv_ram/tasks.c" 1
	csrs mstatus, 8
# 0 "" 2
 #NO_APP
.L51:
.LBE96:
.LBE95:
	.loc 1 4483 4
.LBE94:
.LBE93:
	.loc 1 3777 4
.LVL75:
.LBB97:
.LBB87:
	.loc 1 4040 3
	.loc 1 4062 4
	.loc 1 4062 13 is_stmt 0
	lbu	a5,93(s8)
	.loc 1 4062 6
	beq	a5,zero,.L70
	.loc 1 4069 9 is_stmt 1
	.loc 1 4069 11 is_stmt 0
	beq	a5,s5,.L71
	.loc 1 4079 5 is_stmt 1
	.loc 1 4079 7 is_stmt 0
	beq	a5,s6,.L58
	.loc 1 4079 70 is_stmt 1
	li	a0,2
	call	vEnvironmentCall
.LVL76:
.LBE87:
.LBE97:
	.loc 1 3766 8
.LBE99:
.LBE102:
	.loc 1 3508 2
	.loc 1 3516 2
	.loc 1 3518 2
	.loc 1 3522 3
.LBB103:
.LBB100:
	.loc 1 3762 3
	.loc 1 3766 3
	.loc 1 3766 8
	.loc 1 3766 39 is_stmt 0
	lw	a5,0(s0)
	.loc 1 3766 8
	bne	a5,zero,.L72
.LVL77:
.L48:
.LBE100:
.LBE103:
	.loc 1 3545 4 is_stmt 1
	.loc 1 3545 62 is_stmt 0
	lw	a5,0(s7)
	.loc 1 3545 6
	bleu	a5,s5,.L57
	.loc 1 3547 5 is_stmt 1
	li	a0,1
	call	vEnvironmentCall
.LVL78:
.L57:
	.loc 1 3551 5
.LBB104:
	.loc 1 3558 4
	.loc 1 3565 4
	call	vApplicationIdleHook
.LVL79:
.LBE104:
	.loc 1 3518 8
	.loc 1 3522 3 is_stmt 0
	j	.L58
.LVL80:
.L70:
.LBB105:
.LBB101:
.LBB98:
.LBB88:
.LBB85:
.LBB86:
	.loc 1 4066 5 is_stmt 1
	lw	a0,48(s8)
	call	vPortFree
.LVL81:
	.loc 1 4067 5
	mv	a0,s8
	call	vPortFree
.LVL82:
	.loc 1 4080 5
	.loc 1 4084 2 is_stmt 0
	j	.L58
.LVL83:
.L71:
.LBE86:
.LBE85:
	.loc 1 4073 5 is_stmt 1
	mv	a0,s8
	call	vPortFree
.LVL84:
	j	.L58
.LBE88:
.LBE98:
.LBE101:
.LBE105:
	.cfi_endproc
.LFE46:
	.size	prvIdleTask, .-prvIdleTask
	.section	.text.xTaskIncrementTick.part.0,"ax",@progbits
	.align	1
	.type	xTaskIncrementTick.part.0, @function
xTaskIncrementTick.part.0:
.LFB78:
	.loc 1 2825 12
	.cfi_startproc
	.loc 1 2845 2
	.loc 1 2846 2
	.loc 1 2846 27 is_stmt 0
	lui	a5,%hi(.LANCHOR14)
	lw	a5,%lo(.LANCHOR14)(a5)
	.loc 1 2825 12
	addi	sp,sp,-48
	.cfi_def_cfa_offset 48
	sw	ra,44(sp)
	sw	s0,40(sp)
	sw	s1,36(sp)
	sw	s2,32(sp)
	sw	s3,28(sp)
	sw	s4,24(sp)
	sw	s5,20(sp)
	sw	s6,16(sp)
	sw	s7,12(sp)
	sw	s8,8(sp)
	sw	s9,4(sp)
	.cfi_offset 1, -4
	.cfi_offset 8, -8
	.cfi_offset 9, -12
	.cfi_offset 18, -16
	.cfi_offset 19, -20
	.cfi_offset 20, -24
	.cfi_offset 21, -28
	.cfi_offset 22, -32
	.cfi_offset 23, -36
	.cfi_offset 24, -40
	.cfi_offset 25, -44
	.loc 1 2846 4
	bne	a5,zero,.L74
.LBB112:
	.loc 1 2850 3 is_stmt 1
	.loc 1 2850 49 is_stmt 0
	lui	a5,%hi(.LANCHOR0)
	addi	a5,a5,%lo(.LANCHOR0)
	lw	s2,0(a5)
	.loc 1 2850 20
	addi	s2,s2,1
.LVL85:
	.loc 1 2854 3 is_stmt 1
	.loc 1 2854 14 is_stmt 0
	sw	s2,0(a5)
	.loc 1 2856 3 is_stmt 1
	.loc 1 2856 5 is_stmt 0
	beq	s2,zero,.L99
	lui	s6,%hi(.LANCHOR6)
	addi	s6,s6,%lo(.LANCHOR6)
.L75:
	.loc 1 2862 4 is_stmt 1
	.loc 1 2869 3
	.loc 1 2869 23 is_stmt 0
	lw	a5,0(s6)
	.loc 1 2869 5
	bltu	s2,a5,.L86
.L102:
.LVL86:
	.loc 1 2871 4 is_stmt 1
	.loc 1 2873 5
	.loc 1 2873 34 is_stmt 0
	lui	s1,%hi(.LANCHOR5)
	addi	s1,s1,%lo(.LANCHOR5)
	lw	a5,0(s1)
	lui	s3,%hi(.LANCHOR9)
	lui	s4,%hi(.LANCHOR1)
	lw	a5,0(a5)
.LBE112:
	.loc 1 2829 12
	li	s5,0
	addi	s3,s3,%lo(.LANCHOR9)
	addi	s4,s4,%lo(.LANCHOR1)
.LBB121:
	.loc 1 2873 7
	beq	a5,zero,.L79
	.loc 1 2923 31
	lui	s8,%hi(.LANCHOR2)
	.loc 1 2923 40
	li	s7,1
	j	.L80
.LVL87:
.L81:
	.loc 1 2908 15
	call	uxListRemove
.LVL88:
	.loc 1 2912 6 is_stmt 1
	.loc 1 2914 7
	.loc 1 2912 8 is_stmt 0
	lw	a5,40(s0)
	.loc 1 2914 16
	addi	a0,s0,24
	.loc 1 2912 8
	beq	a5,zero,.L82
	.loc 1 2914 16
	call	uxListRemove
.LVL89:
.L82:
	.loc 1 2918 7 is_stmt 1
	.loc 1 2923 6
	.loc 1 2923 8
	.loc 1 2923 54 is_stmt 0
	lw	a5,44(s0)
	.loc 1 2923 31
	addi	a4,s8,%lo(.LANCHOR2)
	lw	a3,0(a4)
	.loc 1 2923 72
	slli	a0,a5,2
	add	a0,a0,a5
	slli	a0,a0,2
	.loc 1 2923 40
	sll	a5,s7,a5
	.loc 1 2923 31
	or	a5,a5,a3
	.loc 1 2923 72
	mv	a1,s9
	add	a0,s3,a0
	.loc 1 2923 31
	sw	a5,0(a4)
	.loc 1 2923 72 is_stmt 1
	call	vListInsertEnd
.LVL90:
	.loc 1 2923 171
	.loc 1 2933 7
	.loc 1 2933 44 is_stmt 0
	lw	a5,0(s4)
	.loc 1 2933 9
	lw	a4,44(s0)
	lw	a5,44(a5)
	bltu	a4,a5,.L83
	.loc 1 2935 24
	li	s5,1
.LVL91:
.L83:
	.loc 1 2871 4 is_stmt 1
	.loc 1 2873 5
	.loc 1 2873 34 is_stmt 0
	lw	a5,0(s1)
	lw	a5,0(a5)
	.loc 1 2873 7
	beq	a5,zero,.L79
.LVL92:
.L80:
	.loc 1 2889 6 is_stmt 1
	.loc 1 2904 7
	.loc 1 2908 6
	.loc 1 2889 41 is_stmt 0
	lw	a5,0(s1)
	.loc 1 2889 12
	lw	a5,12(a5)
	lw	s0,12(a5)
.LVL93:
	.loc 1 2890 6 is_stmt 1
	.loc 1 2890 17 is_stmt 0
	lw	a5,4(s0)
.LVL94:
	.loc 1 2892 6 is_stmt 1
	.loc 1 2908 15 is_stmt 0
	addi	s9,s0,4
	mv	a0,s9
	.loc 1 2892 8
	bgeu	s2,a5,.L81
	.loc 1 2899 7 is_stmt 1
	.loc 1 2899 28 is_stmt 0
	sw	a5,0(s6)
	.loc 1 2900 7 is_stmt 1
	j	.L78
.LVL95:
.L74:
.LBE121:
	.loc 1 2980 3
	lui	a5,%hi(.LANCHOR16)
	addi	a5,a5,%lo(.LANCHOR16)
	lw	a4,0(a5)
	.loc 1 2829 12 is_stmt 0
	li	s5,0
	.loc 1 2980 3
	addi	a4,a4,1
	sw	a4,0(a5)
.L84:
.LVL96:
	.loc 1 2993 3 is_stmt 1
	.loc 1 2993 21 is_stmt 0
	lui	a5,%hi(.LANCHOR8)
	lw	a5,%lo(.LANCHOR8)(a5)
	.loc 1 2993 5
	beq	a5,zero,.L73
	.loc 1 2995 20
	li	s5,1
.LVL97:
.L73:
	.loc 1 3005 1
	lw	ra,44(sp)
	.cfi_remember_state
	.cfi_restore 1
	lw	s0,40(sp)
	.cfi_restore 8
	lw	s1,36(sp)
	.cfi_restore 9
	lw	s2,32(sp)
	.cfi_restore 18
	lw	s3,28(sp)
	.cfi_restore 19
	lw	s4,24(sp)
	.cfi_restore 20
	lw	s6,16(sp)
	.cfi_restore 22
	lw	s7,12(sp)
	.cfi_restore 23
	lw	s8,8(sp)
	.cfi_restore 24
	lw	s9,4(sp)
	.cfi_restore 25
	mv	a0,s5
	lw	s5,20(sp)
	.cfi_restore 21
	addi	sp,sp,48
	.cfi_def_cfa_offset 0
	jr	ra
.LVL98:
.L99:
	.cfi_restore_state
.LBB122:
.LBB113:
	.loc 1 2858 6 is_stmt 1
	.loc 1 2858 22
	.loc 1 2858 55 is_stmt 0
	lui	s1,%hi(.LANCHOR5)
	addi	s1,s1,%lo(.LANCHOR5)
	lw	a5,0(s1)
	lw	a5,0(a5)
	.loc 1 2858 24
	bne	a5,zero,.L101
.L76:
	.loc 1 2858 183 is_stmt 1
	.loc 1 2858 229 is_stmt 0
	lui	a4,%hi(.LANCHOR4)
	addi	a4,a4,%lo(.LANCHOR4)
	.loc 1 2858 190
	lw	a3,0(s1)
.LVL99:
	.loc 1 2858 211 is_stmt 1
	.loc 1 2858 229 is_stmt 0
	lw	a2,0(a4)
	.loc 1 2858 309
	lui	a5,%hi(.LANCHOR15)
	addi	a5,a5,%lo(.LANCHOR15)
	.loc 1 2858 229
	sw	a2,0(s1)
	.loc 1 2858 258 is_stmt 1
	.loc 1 2858 284 is_stmt 0
	sw	a3,0(a4)
	.loc 1 2858 294 is_stmt 1
	.loc 1 2858 309 is_stmt 0
	lw	a4,0(a5)
	addi	a4,a4,1
	sw	a4,0(a5)
	.loc 1 2858 313 is_stmt 1
.LBB114:
.LBB115:
	.loc 1 4091 1
	.loc 1 4093 2
	.loc 1 4093 31 is_stmt 0
	lw	a5,0(s1)
	lw	a5,0(a5)
	.loc 1 4093 4
	bne	a5,zero,.L77
	.loc 1 4099 3 is_stmt 1
	.loc 1 4099 24 is_stmt 0
	lui	s6,%hi(.LANCHOR6)
	addi	s6,s6,%lo(.LANCHOR6)
	li	a5,-1
	sw	a5,0(s6)
.LBE115:
.LBE114:
.LBE113:
	.loc 1 2862 4 is_stmt 1
	.loc 1 2869 3
	.loc 1 2869 23 is_stmt 0
	lw	a5,0(s6)
	.loc 1 2869 5
	bgeu	s2,a5,.L102
.LVL100:
.L86:
	lui	s3,%hi(.LANCHOR9)
	lui	s4,%hi(.LANCHOR1)
.LBE122:
	.loc 1 2829 12
	li	s5,0
	addi	s3,s3,%lo(.LANCHOR9)
	addi	s4,s4,%lo(.LANCHOR1)
.L78:
.LVL101:
.LBB123:
	.loc 1 2952 4 is_stmt 1
	.loc 1 2952 46 is_stmt 0
	lw	a5,0(s4)
	.loc 1 2952 6
	li	a3,1
	.loc 1 2952 46
	lw	a4,44(a5)
	.loc 1 2952 64
	slli	a5,a4,2
	add	a5,a5,a4
	slli	a5,a5,2
	add	s3,s3,a5
	lw	a5,0(s3)
	.loc 1 2952 6
	bleu	a5,a3,.L84
	.loc 1 2954 21
	li	s5,1
.LVL102:
	j	.L84
.LVL103:
.L77:
.LBB120:
.LBB119:
.LBB118:
.LBB116:
.LBB117:
	.loc 1 4107 3 is_stmt 1
	.loc 1 4107 42 is_stmt 0
	lw	a5,0(s1)
.LVL104:
	.loc 1 4108 3 is_stmt 1
	.loc 1 4108 24 is_stmt 0
	lui	s6,%hi(.LANCHOR6)
	addi	s6,s6,%lo(.LANCHOR6)
	.loc 1 4107 13
	lw	a5,12(a5)
.LVL105:
	.loc 1 4108 62
	lw	a5,12(a5)
.LVL106:
	lw	a5,4(a5)
.LVL107:
	.loc 1 4108 24
	sw	a5,0(s6)
	.loc 1 4110 1
	j	.L75
.LVL108:
.L101:
.LBE117:
.LBE116:
.LBE118:
.LBE119:
	.loc 1 2858 155 is_stmt 1
	li	a0,2
	call	vEnvironmentCall
.LVL109:
	j	.L76
.L79:
.LBE120:
	.loc 1 2880 6
	.loc 1 2880 27 is_stmt 0
	li	a5,-1
	sw	a5,0(s6)
	.loc 1 2881 6 is_stmt 1
	j	.L78
.LBE123:
	.cfi_endproc
.LFE78:
	.size	xTaskIncrementTick.part.0, .-xTaskIncrementTick.part.0
	.section	.text.xTaskGetStackBase,"ax",@progbits
	.align	1
	.globl	xTaskGetStackBase
	.type	xTaskGetStackBase, @function
xTaskGetStackBase:
.LFB4:
	.loc 1 606 1
	.cfi_startproc
.LVL110:
	.loc 1 607 3
	.loc 1 611 2
	.loc 1 606 1 is_stmt 0
	mv	a5,a0
	.loc 1 611 26
	beq	a0,zero,.L108
.LVL111:
	.loc 1 615 4 is_stmt 1
	.loc 1 615 16 is_stmt 0
	lw	a0,48(a5)
.LVL112:
.L103:
	.loc 1 616 1
	ret
.LVL113:
.L108:
	.loc 1 611 26 discriminator 1
	lui	a5,%hi(.LANCHOR1)
	lw	a5,%lo(.LANCHOR1)(a5)
.LVL114:
	.loc 1 612 2 is_stmt 1 discriminator 1
	.loc 1 613 10 is_stmt 0 discriminator 1
	li	a0,0
	.loc 1 612 5 discriminator 1
	beq	a5,zero,.L103
	.loc 1 615 4 is_stmt 1
	.loc 1 615 16 is_stmt 0
	lw	a0,48(a5)
	j	.L103
	.cfi_endproc
.LFE4:
	.size	xTaskGetStackBase, .-xTaskGetStackBase
	.section	.text.uxTaskPriorityGet,"ax",@progbits
	.align	1
	.globl	uxTaskPriorityGet
	.type	uxTaskPriorityGet, @function
uxTaskPriorityGet:
.LFB13:
	.loc 1 1513 2 is_stmt 1
	.cfi_startproc
.LVL115:
	.loc 1 1514 2
	.loc 1 1515 2
	.loc 1 1517 3
.LBB132:
.LBB133:
	.loc 1 4431 3
 #APP
# 4431 "/mnt/d/GitHub/bl_iot_sdk_for_aithinker/components/platform/soc/bl602/freertos_riscv_ram/tasks.c" 1
	csrc mstatus, 8
# 0 "" 2
	.loc 1 4433 3
	.loc 1 4433 25 is_stmt 0
 #NO_APP
	lui	a5,%hi(.LANCHOR11)
	addi	a5,a5,%lo(.LANCHOR11)
	lw	a4,0(a5)
	.loc 1 4433 5
	beq	a4,zero,.L110
.LBB134:
.LBB135:
	.loc 1 4435 4 is_stmt 1
	.loc 1 4435 18 is_stmt 0
	lui	a4,%hi(.LANCHOR1)
	addi	a4,a4,%lo(.LANCHOR1)
	lw	a3,0(a4)
	.loc 1 4443 20
	lw	a4,0(a4)
	.loc 1 4435 39
	lw	a4,68(a3)
	addi	a4,a4,1
	sw	a4,68(a3)
	.loc 1 4443 4 is_stmt 1
	.loc 1 4445 5
	.loc 1 4450 4
.L110:
.LBE135:
.LBE134:
	.loc 1 4450 4
.LBE133:
.LBE132:
	.loc 1 1521 4
	.loc 1 1521 28 is_stmt 0
	beq	a0,zero,.L121
.LVL116:
.L111:
	.loc 1 1522 4 is_stmt 1 discriminator 4
.LBB136:
.LBB137:
	.loc 1 4461 25 is_stmt 0 discriminator 4
	lw	a5,0(a5)
.LBE137:
.LBE136:
	.loc 1 1522 13 discriminator 4
	lw	a0,44(a0)
.LVL117:
	.loc 1 1524 3 is_stmt 1 discriminator 4
.LBB141:
.LBB140:
	.loc 1 4461 3 discriminator 4
	.loc 1 4461 5 is_stmt 0 discriminator 4
	beq	a5,zero,.L109
	.loc 1 4463 4 is_stmt 1
	.loc 1 4463 20 is_stmt 0
	lui	a5,%hi(.LANCHOR1)
	addi	a5,a5,%lo(.LANCHOR1)
	lw	a4,0(a5)
	.loc 1 4463 6
	lw	a4,68(a4)
	beq	a4,zero,.L109
.LBB138:
.LBB139:
	.loc 1 4465 5 is_stmt 1
	.loc 1 4465 19 is_stmt 0
	lw	a4,0(a5)
	.loc 1 4467 21
	lw	a3,0(a5)
	.loc 1 4465 40
	lw	a5,68(a4)
	addi	a5,a5,-1
	sw	a5,68(a4)
	.loc 1 4467 5 is_stmt 1
	.loc 1 4467 7 is_stmt 0
	lw	a5,68(a3)
	bne	a5,zero,.L109
	.loc 1 4469 6 is_stmt 1
 #APP
# 4469 "/mnt/d/GitHub/bl_iot_sdk_for_aithinker/components/platform/soc/bl602/freertos_riscv_ram/tasks.c" 1
	csrs mstatus, 8
# 0 "" 2
 #NO_APP
.LBE139:
.LBE138:
	.loc 1 4483 4
.LBE140:
.LBE141:
	.loc 1 1526 3
.L109:
	.loc 1 1527 2 is_stmt 0
	ret
.LVL118:
.L121:
	.loc 1 1521 28 discriminator 1
	lui	a4,%hi(.LANCHOR1)
	lw	a0,%lo(.LANCHOR1)(a4)
.LVL119:
	j	.L111
	.cfi_endproc
.LFE13:
	.size	uxTaskPriorityGet, .-uxTaskPriorityGet
	.section	.text.uxTaskPriorityGetFromISR,"ax",@progbits
	.align	1
	.globl	uxTaskPriorityGetFromISR
	.type	uxTaskPriorityGetFromISR, @function
uxTaskPriorityGetFromISR:
.LFB14:
	.loc 1 1535 2 is_stmt 1
	.cfi_startproc
.LVL120:
	.loc 1 1536 2
	.loc 1 1537 2
	.loc 1 1555 3
	.loc 1 1557 3
	.loc 1 1561 4
	.loc 1 1561 28 is_stmt 0
	beq	a0,zero,.L124
.LVL121:
	.loc 1 1562 4 is_stmt 1 discriminator 4
	.loc 1 1564 3 discriminator 4
	.loc 1 1566 3 discriminator 4
	.loc 1 1567 2 is_stmt 0 discriminator 4
	lw	a0,44(a0)
.LVL122:
	ret
.LVL123:
.L124:
	.loc 1 1561 28 discriminator 1
	lui	a5,%hi(.LANCHOR1)
	lw	a0,%lo(.LANCHOR1)(a5)
.LVL124:
	.loc 1 1562 4 is_stmt 1 discriminator 1
	.loc 1 1564 3 discriminator 1
	.loc 1 1566 3 discriminator 1
	.loc 1 1567 2 is_stmt 0 discriminator 1
	lw	a0,44(a0)
.LVL125:
	ret
	.cfi_endproc
.LFE14:
	.size	uxTaskPriorityGetFromISR, .-uxTaskPriorityGetFromISR
	.section	.text.xTaskResumeFromISR,"ax",@progbits
	.align	1
	.globl	xTaskResumeFromISR
	.type	xTaskResumeFromISR, @function
xTaskResumeFromISR:
.LFB19:
	.loc 1 1940 2 is_stmt 1
	.cfi_startproc
.LVL126:
	.loc 1 1941 2
	.loc 1 1942 2
	.loc 1 1940 2 is_stmt 0
	addi	sp,sp,-16
	.cfi_def_cfa_offset 16
	sw	s0,8(sp)
	sw	ra,12(sp)
	sw	s1,4(sp)
	sw	s2,0(sp)
	.cfi_offset 8, -8
	.cfi_offset 1, -4
	.cfi_offset 9, -12
	.cfi_offset 18, -16
	.loc 1 1940 2
	mv	s0,a0
.LVL127:
	.loc 1 1943 2 is_stmt 1
	.loc 1 1945 3
	.loc 1 1945 5 is_stmt 0
	beq	a0,zero,.L133
.LVL128:
.L126:
.LBB146:
.LBB147:
	.loc 1 1851 3 is_stmt 1
	.loc 1 1851 5 is_stmt 0
	lw	a4,20(s0)
	lui	a5,%hi(.LANCHOR3)
	addi	a5,a5,%lo(.LANCHOR3)
.LBE147:
.LBE146:
	.loc 1 1941 13
	li	s1,0
.LBB153:
.LBB150:
	.loc 1 1851 5
	beq	a4,a5,.L134
.L125:
.LBE150:
.LBE153:
	.loc 1 2004 2
	lw	ra,12(sp)
	.cfi_remember_state
	.cfi_restore 1
	lw	s0,8(sp)
	.cfi_restore 8
.LVL129:
	lw	s2,0(sp)
	.cfi_restore 18
	mv	a0,s1
	lw	s1,4(sp)
	.cfi_restore 9
	addi	sp,sp,16
	.cfi_def_cfa_offset 0
	jr	ra
.LVL130:
.L134:
	.cfi_restore_state
.LBB154:
.LBB151:
.LBB148:
.LBB149:
	.loc 1 1854 4 is_stmt 1
	.loc 1 1854 42 is_stmt 0
	lw	a5,40(s0)
	.loc 1 1854 6
	lui	a0,%hi(.LANCHOR17)
	addi	a4,a0,%lo(.LANCHOR17)
	beq	a5,a4,.L125
	.loc 1 1858 5 is_stmt 1
	.loc 1 1858 7 is_stmt 0
	bne	a5,zero,.L125
	.loc 1 1860 6 is_stmt 1
.LVL131:
.LBE149:
.LBE148:
	.loc 1 1874 4
	.loc 1 1877 3
.LBE151:
.LBE154:
	.loc 1 1969 5
	.loc 1 1972 5
	.loc 1 1972 30 is_stmt 0
	lui	a5,%hi(.LANCHOR14)
	lw	a5,%lo(.LANCHOR14)(a5)
	.loc 1 1972 7
	bne	a5,zero,.L128
	.loc 1 1976 6 is_stmt 1
	.loc 1 1976 43 is_stmt 0
	lui	a5,%hi(.LANCHOR1)
	lw	a5,%lo(.LANCHOR1)(a5)
	.loc 1 1976 8
	lw	s1,44(s0)
	.loc 1 1985 15
	addi	s2,s0,4
	.loc 1 1976 8
	lw	a5,44(a5)
	.loc 1 1985 15
	mv	a0,s2
	.loc 1 1976 8
	sltu	s1,s1,a5
	.loc 1 1985 15
	call	uxListRemove
.LVL132:
	.loc 1 1986 54
	lw	a2,44(s0)
	.loc 1 1986 31
	lui	a3,%hi(.LANCHOR2)
	addi	a3,a3,%lo(.LANCHOR2)
	lw	a1,0(a3)
	.loc 1 1986 72
	slli	a4,a2,2
	add	a4,a4,a2
	.loc 1 1986 40
	li	a5,1
	.loc 1 1986 72
	lui	a0,%hi(.LANCHOR9)
	.loc 1 1986 40
	sll	a5,a5,a2
	.loc 1 1986 72
	slli	a4,a4,2
	addi	a0,a0,%lo(.LANCHOR9)
	.loc 1 1986 31
	or	a5,a5,a1
	.loc 1 1986 72
	add	a0,a0,a4
	mv	a1,s2
	.loc 1 1986 31
	sw	a5,0(a3)
	.loc 1 1986 72
	call	vListInsertEnd
.LVL133:
	.loc 1 2004 2
	lw	ra,12(sp)
	.cfi_remember_state
	.cfi_restore 1
	lw	s0,8(sp)
	.cfi_restore 8
.LVL134:
	.loc 1 1976 8
	xori	s1,s1,1
.LVL135:
	.loc 1 1982 7 is_stmt 1
	.loc 1 1985 6
	.loc 1 1986 6
	.loc 1 1986 8
	.loc 1 1986 72
	.loc 1 1986 171
	.loc 1 2004 2 is_stmt 0
	lw	s2,0(sp)
	.cfi_restore 18
.LVL136:
	mv	a0,s1
	lw	s1,4(sp)
	.cfi_restore 9
.LVL137:
	addi	sp,sp,16
	.cfi_def_cfa_offset 0
	jr	ra
.LVL138:
.L133:
	.cfi_restore_state
	.loc 1 1945 32 is_stmt 1 discriminator 1
	li	a0,2
	call	vEnvironmentCall
.LVL139:
	.loc 1 1963 3 discriminator 1
	.loc 1 1965 3 discriminator 1
	.loc 1 1967 4 discriminator 1
.LBB155:
.LBB152:
	.loc 1 1841 2 discriminator 1
	.loc 1 1842 2 discriminator 1
	.loc 1 1848 3 discriminator 1
	.loc 1 1848 24 discriminator 1
	li	a0,2
	call	vEnvironmentCall
.LVL140:
	j	.L126
.LVL141:
.L128:
.LBE152:
.LBE155:
	.loc 1 1993 6
	addi	a1,s0,24
	addi	a0,a0,%lo(.LANCHOR17)
	call	vListInsertEnd
.LVL142:
	.loc 1 2004 2 is_stmt 0
	lw	ra,12(sp)
	.cfi_restore 1
	lw	s0,8(sp)
	.cfi_restore 8
.LVL143:
	lw	s2,0(sp)
	.cfi_restore 18
	mv	a0,s1
	lw	s1,4(sp)
	.cfi_restore 9
	addi	sp,sp,16
	.cfi_def_cfa_offset 0
	jr	ra
	.cfi_endproc
.LFE19:
	.size	xTaskResumeFromISR, .-xTaskResumeFromISR
	.section	.text.vTaskEndScheduler,"ax",@progbits
	.align	1
	.globl	vTaskEndScheduler
	.type	vTaskEndScheduler, @function
vTaskEndScheduler:
.LFB21:
	.loc 1 2132 1 is_stmt 1
	.cfi_startproc
	.loc 1 2136 2
 #APP
# 2136 "/mnt/d/GitHub/bl_iot_sdk_for_aithinker/components/platform/soc/bl602/freertos_riscv_ram/tasks.c" 1
	csrc mstatus, 8
# 0 "" 2
	.loc 1 2137 2
	.loc 1 2137 20 is_stmt 0
 #NO_APP
	lui	a5,%hi(.LANCHOR11)
	sw	zero,%lo(.LANCHOR11)(a5)
	.loc 1 2138 2 is_stmt 1
	tail	vPortEndScheduler
.LVL144:
	.cfi_endproc
.LFE21:
	.size	vTaskEndScheduler, .-vTaskEndScheduler
	.section	.text.vTaskSuspendAll,"ax",@progbits
	.align	1
	.globl	vTaskSuspendAll
	.type	vTaskSuspendAll, @function
vTaskSuspendAll:
.LFB22:
	.loc 1 2143 1
	.cfi_startproc
	.loc 1 2148 2
	lui	a5,%hi(.LANCHOR14)
	addi	a5,a5,%lo(.LANCHOR14)
	lw	a4,0(a5)
	addi	a4,a4,1
	sw	a4,0(a5)
	.loc 1 2149 2
	.loc 1 2150 1 is_stmt 0
	ret
	.cfi_endproc
.LFE22:
	.size	vTaskSuspendAll, .-vTaskSuspendAll
	.section	.text.xTaskGetTickCount,"ax",@progbits
	.align	1
	.globl	xTaskGetTickCount
	.type	xTaskGetTickCount, @function
xTaskGetTickCount:
.LFB24:
	.loc 1 2327 1 is_stmt 1
	.cfi_startproc
	.loc 1 2328 1
	.loc 1 2331 2
	.loc 1 2333 3
	.loc 1 2333 10 is_stmt 0
	lui	a5,%hi(.LANCHOR0)
	lw	a0,%lo(.LANCHOR0)(a5)
.LVL145:
	.loc 1 2335 2 is_stmt 1
	.loc 1 2337 2
	.loc 1 2338 1 is_stmt 0
	ret
	.cfi_endproc
.LFE24:
	.size	xTaskGetTickCount, .-xTaskGetTickCount
	.section	.text.xTaskGetTickCount2,"ax",@progbits
	.align	1
	.globl	xTaskGetTickCount2
	.type	xTaskGetTickCount2, @function
xTaskGetTickCount2:
.LFB25:
	.loc 1 2341 1 is_stmt 1
	.cfi_startproc
.LVL146:
	.loc 1 2343 2
	.loc 1 2345 3
	.loc 1 2345 10 is_stmt 0
	lui	a4,%hi(.LANCHOR0)
	lw	a4,%lo(.LANCHOR0)(a4)
	.loc 1 2346 19
	lui	a5,%hi(.LANCHOR15)
	lw	a5,%lo(.LANCHOR15)(a5)
	.loc 1 2345 10
	sw	a4,0(a0)
	.loc 1 2346 9 is_stmt 1
	.loc 1 2351 1 is_stmt 0
	li	a0,1
.LVL147:
	.loc 1 2346 19
	sw	a5,0(a1)
	.loc 1 2348 2 is_stmt 1
	.loc 1 2350 2
	.loc 1 2351 1 is_stmt 0
	ret
	.cfi_endproc
.LFE25:
	.size	xTaskGetTickCount2, .-xTaskGetTickCount2
	.section	.text.xTaskGetTickCountFromISR,"ax",@progbits
	.align	1
	.globl	xTaskGetTickCountFromISR
	.type	xTaskGetTickCountFromISR, @function
xTaskGetTickCountFromISR:
.LFB85:
	.cfi_startproc
	lui	a5,%hi(.LANCHOR0)
	lw	a0,%lo(.LANCHOR0)(a5)
	ret
	.cfi_endproc
.LFE85:
	.size	xTaskGetTickCountFromISR, .-xTaskGetTickCountFromISR
	.section	.text.uxTaskGetNumberOfTasks,"ax",@progbits
	.align	1
	.globl	uxTaskGetNumberOfTasks
	.type	uxTaskGetNumberOfTasks, @function
uxTaskGetNumberOfTasks:
.LFB27:
	.loc 1 2386 1 is_stmt 1
	.cfi_startproc
	.loc 1 2389 2
	.loc 1 2389 9 is_stmt 0
	lui	a5,%hi(.LANCHOR13)
	lw	a0,%lo(.LANCHOR13)(a5)
	.loc 1 2390 1
	ret
	.cfi_endproc
.LFE27:
	.size	uxTaskGetNumberOfTasks, .-uxTaskGetNumberOfTasks
	.section	.text.pcTaskGetName,"ax",@progbits
	.align	1
	.globl	pcTaskGetName
	.type	pcTaskGetName, @function
pcTaskGetName:
.LFB28:
	.loc 1 2394 1 is_stmt 1
	.cfi_startproc
.LVL148:
	.loc 1 2395 1
	.loc 1 2399 2
	.loc 1 2394 1 is_stmt 0
	addi	sp,sp,-16
	.cfi_def_cfa_offset 16
	sw	s0,8(sp)
	sw	ra,12(sp)
	.cfi_offset 8, -8
	.cfi_offset 1, -4
	.loc 1 2394 1
	mv	s0,a0
	.loc 1 2399 26
	beq	a0,zero,.L144
.LVL149:
.L142:
	.loc 1 2401 2 is_stmt 1
	.loc 1 2402 1 is_stmt 0
	lw	ra,12(sp)
	.cfi_remember_state
	.cfi_restore 1
	addi	a0,s0,52
	lw	s0,8(sp)
	.cfi_restore 8
	addi	sp,sp,16
	.cfi_def_cfa_offset 0
	jr	ra
.LVL150:
.L144:
	.cfi_restore_state
	.loc 1 2399 26 discriminator 1
	lui	a5,%hi(.LANCHOR1)
	lw	s0,%lo(.LANCHOR1)(a5)
.LVL151:
	.loc 1 2400 2 is_stmt 1 discriminator 1
	.loc 1 2400 4 is_stmt 0 discriminator 1
	bne	s0,zero,.L142
	.loc 1 2400 23 is_stmt 1 discriminator 1
	li	a0,2
	call	vEnvironmentCall
.LVL152:
	.loc 1 2401 2 discriminator 1
	.loc 1 2402 1 is_stmt 0 discriminator 1
	lw	ra,12(sp)
	.cfi_restore 1
	addi	a0,s0,52
	lw	s0,8(sp)
	.cfi_restore 8
	addi	sp,sp,16
	.cfi_def_cfa_offset 0
	jr	ra
	.cfi_endproc
.LFE28:
	.size	pcTaskGetName, .-pcTaskGetName
	.section	.text.xAddTasksToAllList,"ax",@progbits
	.align	1
	.globl	xAddTasksToAllList
	.type	xAddTasksToAllList, @function
xAddTasksToAllList:
.LFB30:
	.loc 1 2615 2 is_stmt 1
	.cfi_startproc
	.loc 1 2616 5
.LVL153:
	.loc 1 2615 2 is_stmt 0
	addi	sp,sp,-32
	.cfi_def_cfa_offset 32
	sw	s3,12(sp)
	.cfi_offset 19, -20
	lui	s3,%hi(.LANCHOR9)
	addi	s3,s3,%lo(.LANCHOR9)
	sw	s0,24(sp)
	sw	s1,20(sp)
	sw	s2,16(sp)
	sw	ra,28(sp)
	.cfi_offset 8, -8
	.cfi_offset 9, -12
	.cfi_offset 18, -16
	.cfi_offset 1, -4
	addi	s1,s3,620
	.loc 1 2616 29
	li	s0,32
	.loc 1 2616 17
	li	s2,0
.LVL154:
.L147:
	.loc 1 2620 9 is_stmt 1 discriminator 1
	.loc 1 2622 13 discriminator 1
	.loc 1 2622 20 is_stmt 0 discriminator 1
	addi	s0,s0,-1
.LVL155:
	.loc 1 2623 13 is_stmt 1 discriminator 1
.LBB156:
.LBB157:
	.loc 1 3915 2 discriminator 1
	.loc 1 3916 2 discriminator 1
	.loc 1 3917 2 discriminator 1
	.loc 1 3919 3 discriminator 1
	.loc 1 3919 19 is_stmt 0 discriminator 1
	slli	a5,s0,2
	add	a5,a5,s0
	slli	a5,a5,2
	add	a5,s3,a5
	lw	a5,0(a5)
	mv	a0,s1
.LBE157:
.LBE156:
	.loc 1 2624 9 discriminator 1
	addi	s1,s1,-20
.LBB160:
.LBB158:
	.loc 1 3919 5 discriminator 1
	beq	a5,zero,.L146
	call	prvAddTaskToAllListWithSingleList.part.0
.LVL156:
.LBE158:
.LBE160:
	.loc 1 2623 20
	add	s2,s2,a0
.LVL157:
.L146:
.LBB161:
.LBB159:
	.loc 1 3937 4 is_stmt 1
	.loc 1 3940 3
.LBE159:
.LBE161:
	.loc 1 2624 17
	.loc 1 2624 9 is_stmt 0
	bne	s0,zero,.L147
	.loc 1 2628 9 is_stmt 1
	.loc 1 2628 19 is_stmt 0
	lui	a5,%hi(.LANCHOR5)
	lw	a0,%lo(.LANCHOR5)(a5)
.LVL158:
.LBB162:
.LBB163:
	.loc 1 3915 2 is_stmt 1
	.loc 1 3916 2
	.loc 1 3917 2
	.loc 1 3919 3
	.loc 1 3919 19 is_stmt 0
	lw	a5,0(a0)
	.loc 1 3919 5
	beq	a5,zero,.L148
	call	prvAddTaskToAllListWithSingleList.part.0
.LVL159:
.LBE163:
.LBE162:
	.loc 1 2628 16
	add	s2,s2,a0
.L148:
.LVL160:
.LBB165:
.LBB164:
	.loc 1 3937 4 is_stmt 1
	.loc 1 3940 3
.LBE164:
.LBE165:
	.loc 1 2629 9
	.loc 1 2629 19 is_stmt 0
	lui	a5,%hi(.LANCHOR4)
	lw	a0,%lo(.LANCHOR4)(a5)
.LVL161:
.LBB166:
.LBB167:
	.loc 1 3915 2 is_stmt 1
	.loc 1 3916 2
	.loc 1 3917 2
	.loc 1 3919 3
	.loc 1 3919 19 is_stmt 0
	lw	a5,0(a0)
	.loc 1 3919 5
	beq	a5,zero,.L149
	call	prvAddTaskToAllListWithSingleList.part.0
.LVL162:
.LBE167:
.LBE166:
	.loc 1 2629 16
	add	s2,s2,a0
.L149:
.LVL163:
.LBB169:
.LBB168:
	.loc 1 3937 4 is_stmt 1
	.loc 1 3940 3
.LBE168:
.LBE169:
	.loc 1 2635 13
.LBB170:
.LBB171:
	.loc 1 3915 2
	.loc 1 3916 2
	.loc 1 3917 2
	.loc 1 3919 3
	.loc 1 3919 19 is_stmt 0
	lui	a0,%hi(.LANCHOR12)
	addi	a5,a0,%lo(.LANCHOR12)
	lw	a5,0(a5)
	.loc 1 3919 5
	beq	a5,zero,.L150
	addi	a0,a0,%lo(.LANCHOR12)
	call	prvAddTaskToAllListWithSingleList.part.0
.LVL164:
.LBE171:
.LBE170:
	.loc 1 2635 20
	add	s2,s2,a0
.L150:
.LVL165:
.LBB173:
.LBB172:
	.loc 1 3937 4 is_stmt 1
	.loc 1 3940 3
.LBE172:
.LBE173:
	.loc 1 2643 13
.LBB174:
.LBB175:
	.loc 1 3915 2
	.loc 1 3916 2
	.loc 1 3917 2
	.loc 1 3919 3
	.loc 1 3919 19 is_stmt 0
	lui	a0,%hi(.LANCHOR3)
	addi	a5,a0,%lo(.LANCHOR3)
	lw	a5,0(a5)
	.loc 1 3919 5
	beq	a5,zero,.L145
	addi	a0,a0,%lo(.LANCHOR3)
	call	prvAddTaskToAllListWithSingleList.part.0
.LVL166:
.LBE175:
.LBE174:
	.loc 1 2643 20
	add	s2,s2,a0
.LVL167:
.LBB177:
.LBB176:
	.loc 1 3937 4 is_stmt 1
	.loc 1 3940 3
.LBE176:
.LBE177:
	.loc 1 2647 9
.L145:
	.loc 1 2648 5 is_stmt 0
	lw	ra,28(sp)
	.cfi_restore 1
	lw	s0,24(sp)
	.cfi_restore 8
.LVL168:
	lw	s1,20(sp)
	.cfi_restore 9
	lw	s3,12(sp)
	.cfi_restore 19
	mv	a0,s2
	lw	s2,16(sp)
	.cfi_restore 18
	addi	sp,sp,32
	.cfi_def_cfa_offset 0
	jr	ra
	.cfi_endproc
.LFE30:
	.size	xAddTasksToAllList, .-xAddTasksToAllList
	.section	.text.pxTaskGetAllList,"ax",@progbits
	.align	1
	.globl	pxTaskGetAllList
	.type	pxTaskGetAllList, @function
pxTaskGetAllList:
.LFB31:
	.loc 1 2656 2 is_stmt 1
	.cfi_startproc
	.loc 1 2657 3
	.loc 1 2657 10 is_stmt 0
	lui	a0,%hi(.LANCHOR7)
	.loc 1 2658 5
	addi	a0,a0,%lo(.LANCHOR7)
	ret
	.cfi_endproc
.LFE31:
	.size	pxTaskGetAllList, .-pxTaskGetAllList
	.section	.text.vTaskStepTickSafe,"ax",@progbits
	.align	1
	.globl	vTaskStepTickSafe
	.type	vTaskStepTickSafe, @function
vTaskStepTickSafe:
.LFB32:
	.loc 1 2696 1 is_stmt 1
	.cfi_startproc
.LVL169:
	.loc 1 2697 2
	.loc 1 2698 2
	.loc 1 2696 1 is_stmt 0
	addi	sp,sp,-48
	.cfi_def_cfa_offset 48
	sw	s2,32(sp)
	.cfi_offset 18, -16
	.loc 1 2698 43
	lui	s2,%hi(.LANCHOR0)
	addi	s2,s2,%lo(.LANCHOR0)
	lw	a5,0(s2)
.LVL170:
	.loc 1 2700 2 is_stmt 1
	.loc 1 2696 1 is_stmt 0
	sw	s4,24(sp)
	sw	ra,44(sp)
	sw	s0,40(sp)
	sw	s1,36(sp)
	sw	s3,28(sp)
	sw	s5,20(sp)
	sw	s6,16(sp)
	sw	s7,12(sp)
	.cfi_offset 20, -24
	.cfi_offset 1, -4
	.cfi_offset 8, -8
	.cfi_offset 9, -12
	.cfi_offset 19, -20
	.cfi_offset 21, -28
	.cfi_offset 22, -32
	.cfi_offset 23, -36
	.loc 1 2698 13
	neg	a5,a5
.LVL171:
	.loc 1 2696 1
	mv	s4,a0
	.loc 1 2700 4
	bgtu	a5,a0,.L171
	.loc 1 2702 3 is_stmt 1
	.loc 1 2704 4
	.loc 1 2704 33 is_stmt 0
	lui	s0,%hi(.LANCHOR5)
	addi	s0,s0,%lo(.LANCHOR5)
	lw	a5,0(s0)
.LVL172:
	lw	a5,0(a5)
	.loc 1 2704 6
	beq	a5,zero,.L172
	lui	s1,%hi(.LANCHOR2)
	lui	s3,%hi(.LANCHOR9)
	addi	s1,s1,%lo(.LANCHOR2)
	addi	s3,s3,%lo(.LANCHOR9)
	.loc 1 2733 39
	li	s5,1
.LVL173:
.L174:
	.loc 1 2715 5 is_stmt 1
	.loc 1 2715 40 is_stmt 0
	lw	a5,0(s0)
	.loc 1 2715 11
	lw	a5,12(a5)
	lw	s6,12(a5)
.LVL174:
	.loc 1 2718 5 is_stmt 1
	.loc 1 2718 14 is_stmt 0
	addi	s7,s6,4
	mv	a0,s7
	call	uxListRemove
.LVL175:
	.loc 1 2722 5 is_stmt 1
	.loc 1 2724 6
	.loc 1 2722 7 is_stmt 0
	lw	a5,40(s6)
	.loc 1 2724 15
	addi	a0,s6,24
	.loc 1 2722 7
	beq	a5,zero,.L173
	.loc 1 2724 15
	call	uxListRemove
.LVL176:
.L173:
	.loc 1 2728 6 is_stmt 1
	.loc 1 2733 5
	.loc 1 2733 7
	.loc 1 2733 53 is_stmt 0
	lw	a5,44(s6)
	.loc 1 2733 30
	lw	a4,0(s1)
	.loc 1 2733 71
	mv	a1,s7
	slli	a0,a5,2
	add	a0,a0,a5
	slli	a0,a0,2
	.loc 1 2733 39
	sll	a5,s5,a5
	.loc 1 2733 30
	or	a5,a5,a4
	.loc 1 2733 71
	add	a0,s3,a0
	.loc 1 2733 30
	sw	a5,0(s1)
	.loc 1 2733 71 is_stmt 1
	call	vListInsertEnd
.LVL177:
	.loc 1 2733 170
	.loc 1 2702 9
	.loc 1 2702 3
	.loc 1 2704 4
	.loc 1 2704 33 is_stmt 0
	lw	a5,0(s0)
	lw	a5,0(a5)
	.loc 1 2704 6
	bne	a5,zero,.L174
.LVL178:
.L172:
.LBB183:
	.loc 1 2737 5 is_stmt 1
	.loc 1 2737 21
	.loc 1 2737 54 is_stmt 0
	lw	a5,0(s0)
	lw	a5,0(a5)
	.loc 1 2737 23
	bne	a5,zero,.L188
.L175:
	.loc 1 2737 182 is_stmt 1 discriminator 3
	.loc 1 2737 228 is_stmt 0 discriminator 3
	lui	a4,%hi(.LANCHOR4)
	addi	a4,a4,%lo(.LANCHOR4)
	.loc 1 2737 189 discriminator 3
	lw	a3,0(s0)
.LVL179:
	.loc 1 2737 210 is_stmt 1 discriminator 3
	.loc 1 2737 228 is_stmt 0 discriminator 3
	lw	a2,0(a4)
	.loc 1 2737 308 discriminator 3
	lui	a5,%hi(.LANCHOR15)
	addi	a5,a5,%lo(.LANCHOR15)
	.loc 1 2737 228 discriminator 3
	sw	a2,0(s0)
	.loc 1 2737 257 is_stmt 1 discriminator 3
	.loc 1 2737 283 is_stmt 0 discriminator 3
	sw	a3,0(a4)
	.loc 1 2737 293 is_stmt 1 discriminator 3
	.loc 1 2737 308 is_stmt 0 discriminator 3
	lw	a4,0(a5)
	addi	a4,a4,1
	sw	a4,0(a5)
	.loc 1 2737 312 is_stmt 1 discriminator 3
.LBB184:
.LBB185:
	.loc 1 4091 1 discriminator 3
	.loc 1 4093 2 discriminator 3
	.loc 1 4093 31 is_stmt 0 discriminator 3
	lw	a5,0(s0)
	lw	a5,0(a5)
	.loc 1 4093 4 discriminator 3
	bne	a5,zero,.L176
	.loc 1 4099 3 is_stmt 1
	.loc 1 4099 24 is_stmt 0
	lui	a5,%hi(.LANCHOR6)
	li	a4,-1
	sw	a4,%lo(.LANCHOR6)(a5)
.LVL180:
.L171:
.LBE185:
.LBE184:
.LBE183:
	.loc 1 2741 3 is_stmt 1
	.loc 1 2744 2
	.loc 1 2744 13 is_stmt 0
	lw	a0,0(s2)
	.loc 1 2746 1
	lw	ra,44(sp)
	.cfi_remember_state
	.cfi_restore 1
	lw	s0,40(sp)
	.cfi_restore 8
	.loc 1 2744 13
	add	s4,a0,s4
.LVL181:
	sw	s4,0(s2)
	.loc 1 2745 2 is_stmt 1
	.loc 1 2746 1 is_stmt 0
	lw	s1,36(sp)
	.cfi_restore 9
	lw	s2,32(sp)
	.cfi_restore 18
	lw	s3,28(sp)
	.cfi_restore 19
	lw	s4,24(sp)
	.cfi_restore 20
	lw	s5,20(sp)
	.cfi_restore 21
	lw	s6,16(sp)
	.cfi_restore 22
	lw	s7,12(sp)
	.cfi_restore 23
	addi	sp,sp,48
	.cfi_def_cfa_offset 0
	jr	ra
.LVL182:
.L176:
	.cfi_restore_state
.LBB190:
.LBB189:
.LBB188:
.LBB186:
.LBB187:
	.loc 1 4107 3 is_stmt 1
	.loc 1 4107 42 is_stmt 0
	lw	a4,0(s0)
.LVL183:
	.loc 1 4108 3 is_stmt 1
	.loc 1 4108 24 is_stmt 0
	lui	a5,%hi(.LANCHOR6)
	.loc 1 4107 13
	lw	a4,12(a4)
.LVL184:
	.loc 1 4108 62
	lw	a4,12(a4)
.LVL185:
	lw	a4,4(a4)
.LVL186:
	.loc 1 4108 24
	sw	a4,%lo(.LANCHOR6)(a5)
	.loc 1 4110 1
	j	.L171
.LVL187:
.L188:
.LBE187:
.LBE186:
.LBE188:
.LBE189:
	.loc 1 2737 154 is_stmt 1 discriminator 1
	li	a0,2
	call	vEnvironmentCall
.LVL188:
	j	.L175
.LBE190:
	.cfi_endproc
.LFE32:
	.size	vTaskStepTickSafe, .-vTaskStepTickSafe
	.section	.text.xTaskIncrementTick,"ax",@progbits
	.align	1
	.globl	xTaskIncrementTick
	.type	xTaskIncrementTick, @function
xTaskIncrementTick:
.LFB33:
	.loc 1 2826 1
	.cfi_startproc
	.loc 1 2827 1
	.loc 1 2828 1
	.loc 1 2829 1
.LVL189:
	.loc 1 2832 2
	.loc 1 2835 2
	.loc 1 2836 2
	.loc 1 2826 1 is_stmt 0
	addi	sp,sp,-32
	.cfi_def_cfa_offset 32
	.loc 1 2836 6
	addi	a0,sp,12
	.loc 1 2826 1
	sw	ra,28(sp)
	.cfi_offset 1, -4
	.loc 1 2836 6
	call	bl_sys_time_sync_state
.LVL190:
	.loc 1 2836 4
	beq	a0,zero,.L189
	call	xTaskIncrementTick.part.0
.LVL191:
.L189:
	.loc 1 3005 1
	lw	ra,28(sp)
	.cfi_restore 1
	addi	sp,sp,32
	.cfi_def_cfa_offset 0
	jr	ra
	.cfi_endproc
.LFE33:
	.size	xTaskIncrementTick, .-xTaskIncrementTick
	.section	.text.vTaskSwitchContext,"ax",@progbits
	.align	1
	.globl	vTaskSwitchContext
	.type	vTaskSwitchContext, @function
vTaskSwitchContext:
.LFB34:
	.loc 1 3119 1 is_stmt 1
	.cfi_startproc
	.loc 1 3120 2
	.loc 1 3120 27 is_stmt 0
	lui	a5,%hi(.LANCHOR14)
	lw	a5,%lo(.LANCHOR14)(a5)
	.loc 1 3120 4
	beq	a5,zero,.L196
	.loc 1 3124 3 is_stmt 1
	.loc 1 3124 17 is_stmt 0
	lui	a5,%hi(.LANCHOR8)
	li	a4,1
	sw	a4,%lo(.LANCHOR8)(a5)
	.loc 1 3188 1
	ret
.L196:
	tail	vTaskSwitchContext.part.0
.LVL192:
	.cfi_endproc
.LFE34:
	.size	vTaskSwitchContext, .-vTaskSwitchContext
	.section	.text.vTaskPlaceOnEventList,"ax",@progbits
	.align	1
	.globl	vTaskPlaceOnEventList
	.type	vTaskPlaceOnEventList, @function
vTaskPlaceOnEventList:
.LFB35:
	.loc 1 3192 1 is_stmt 1
	.cfi_startproc
.LVL193:
	.loc 1 3193 2
	.loc 1 3192 1 is_stmt 0
	addi	sp,sp,-16
	.cfi_def_cfa_offset 16
	sw	s0,8(sp)
	sw	s1,4(sp)
	sw	ra,12(sp)
	.cfi_offset 8, -8
	.cfi_offset 9, -12
	.cfi_offset 1, -4
	.loc 1 3192 1
	mv	s0,a0
	mv	s1,a1
	.loc 1 3193 4
	beq	a0,zero,.L202
.LVL194:
.L200:
	.loc 1 3202 2 is_stmt 1
	.loc 1 3202 43 is_stmt 0
	lui	a5,%hi(.LANCHOR1)
	lw	a1,%lo(.LANCHOR1)(a5)
	.loc 1 3202 2
	mv	a0,s0
	addi	a1,a1,24
	call	vListInsert
.LVL195:
	.loc 1 3204 2 is_stmt 1
	.loc 1 3205 1 is_stmt 0
	lw	s0,8(sp)
	.cfi_remember_state
	.cfi_restore 8
.LVL196:
	lw	ra,12(sp)
	.cfi_restore 1
	.loc 1 3204 2
	mv	a0,s1
	.loc 1 3205 1
	lw	s1,4(sp)
	.cfi_restore 9
.LVL197:
	.loc 1 3204 2
	li	a1,1
	.loc 1 3205 1
	addi	sp,sp,16
	.cfi_def_cfa_offset 0
	.loc 1 3204 2
	tail	prvAddCurrentTaskToDelayedList
.LVL198:
.L202:
	.cfi_restore_state
	.loc 1 3193 29 is_stmt 1 discriminator 1
	li	a0,2
	call	vEnvironmentCall
.LVL199:
	j	.L200
	.cfi_endproc
.LFE35:
	.size	vTaskPlaceOnEventList, .-vTaskPlaceOnEventList
	.section	.text.vTaskPlaceOnUnorderedEventList,"ax",@progbits
	.align	1
	.globl	vTaskPlaceOnUnorderedEventList
	.type	vTaskPlaceOnUnorderedEventList, @function
vTaskPlaceOnUnorderedEventList:
.LFB36:
	.loc 1 3209 1
	.cfi_startproc
.LVL200:
	.loc 1 3210 2
	.loc 1 3209 1 is_stmt 0
	addi	sp,sp,-16
	.cfi_def_cfa_offset 16
	sw	s0,8(sp)
	sw	s1,4(sp)
	sw	s2,0(sp)
	sw	ra,12(sp)
	.cfi_offset 8, -8
	.cfi_offset 9, -12
	.cfi_offset 18, -16
	.cfi_offset 1, -4
	.loc 1 3209 1
	mv	s1,a0
	mv	s0,a1
	mv	s2,a2
	.loc 1 3210 4
	beq	a0,zero,.L207
.LVL201:
.L204:
	.loc 1 3214 2 is_stmt 1
	.loc 1 3214 36 is_stmt 0
	lui	a5,%hi(.LANCHOR14)
	lw	a5,%lo(.LANCHOR14)(a5)
	.loc 1 3214 4
	beq	a5,zero,.L208
.L205:
	.loc 1 3219 2 is_stmt 1
	.loc 1 3219 21 is_stmt 0
	lui	a5,%hi(.LANCHOR1)
	addi	a5,a5,%lo(.LANCHOR1)
	lw	a4,0(a5)
	.loc 1 3226 46
	lw	a1,0(a5)
	.loc 1 3219 69
	li	a5,-2147483648
	or	s0,s0,a5
.LVL202:
	.loc 1 3226 2
	mv	a0,s1
	addi	a1,a1,24
	.loc 1 3219 54
	sw	s0,24(a4)
	.loc 1 3226 2 is_stmt 1
	call	vListInsertEnd
.LVL203:
	.loc 1 3228 2
	.loc 1 3229 1 is_stmt 0
	lw	s0,8(sp)
	.cfi_remember_state
	.cfi_restore 8
	lw	ra,12(sp)
	.cfi_restore 1
	lw	s1,4(sp)
	.cfi_restore 9
.LVL204:
	.loc 1 3228 2
	mv	a0,s2
	.loc 1 3229 1
	lw	s2,0(sp)
	.cfi_restore 18
.LVL205:
	.loc 1 3228 2
	li	a1,1
	.loc 1 3229 1
	addi	sp,sp,16
	.cfi_def_cfa_offset 0
	.loc 1 3228 2
	tail	prvAddCurrentTaskToDelayedList
.LVL206:
.L208:
	.cfi_restore_state
	.loc 1 3214 43 is_stmt 1 discriminator 1
	li	a0,2
	call	vEnvironmentCall
.LVL207:
	j	.L205
.LVL208:
.L207:
	.loc 1 3210 29 discriminator 1
	li	a0,2
	call	vEnvironmentCall
.LVL209:
	j	.L204
	.cfi_endproc
.LFE36:
	.size	vTaskPlaceOnUnorderedEventList, .-vTaskPlaceOnUnorderedEventList
	.section	.text.vTaskPlaceOnEventListRestricted,"ax",@progbits
	.align	1
	.globl	vTaskPlaceOnEventListRestricted
	.type	vTaskPlaceOnEventListRestricted, @function
vTaskPlaceOnEventListRestricted:
.LFB37:
	.loc 1 3235 2
	.cfi_startproc
.LVL210:
	.loc 1 3236 3
	.loc 1 3235 2 is_stmt 0
	addi	sp,sp,-16
	.cfi_def_cfa_offset 16
	sw	s0,8(sp)
	sw	s1,4(sp)
	sw	s2,0(sp)
	sw	ra,12(sp)
	.cfi_offset 8, -8
	.cfi_offset 9, -12
	.cfi_offset 18, -16
	.cfi_offset 1, -4
	.loc 1 3235 2
	mv	s1,a0
	mv	s2,a1
	mv	s0,a2
	.loc 1 3236 5
	beq	a0,zero,.L216
.LVL211:
.L210:
	.loc 1 3248 3 is_stmt 1
	.loc 1 3248 47 is_stmt 0
	lui	a5,%hi(.LANCHOR1)
	lw	a1,%lo(.LANCHOR1)(a5)
	.loc 1 3248 3
	mv	a0,s1
	addi	a1,a1,24
	call	vListInsertEnd
.LVL212:
	.loc 1 3253 3 is_stmt 1
	.loc 1 3253 5 is_stmt 0
	beq	s0,zero,.L211
	.loc 1 3255 17
	li	s2,-1
.LVL213:
.L211:
	.loc 1 3258 3 is_stmt 1
	.loc 1 3259 3
	mv	a1,s0
	.loc 1 3260 2 is_stmt 0
	lw	s0,8(sp)
	.cfi_remember_state
	.cfi_restore 8
.LVL214:
	lw	ra,12(sp)
	.cfi_restore 1
	lw	s1,4(sp)
	.cfi_restore 9
.LVL215:
	.loc 1 3259 3
	mv	a0,s2
	.loc 1 3260 2
	lw	s2,0(sp)
	.cfi_restore 18
.LVL216:
	addi	sp,sp,16
	.cfi_def_cfa_offset 0
	.loc 1 3259 3
	tail	prvAddCurrentTaskToDelayedList
.LVL217:
.L216:
	.cfi_restore_state
	.loc 1 3236 30 is_stmt 1 discriminator 1
	li	a0,2
	call	vEnvironmentCall
.LVL218:
	j	.L210
	.cfi_endproc
.LFE37:
	.size	vTaskPlaceOnEventListRestricted, .-vTaskPlaceOnEventListRestricted
	.section	.text.xTaskRemoveFromEventList,"ax",@progbits
	.align	1
	.globl	xTaskRemoveFromEventList
	.type	xTaskRemoveFromEventList, @function
xTaskRemoveFromEventList:
.LFB38:
	.loc 1 3266 1
	.cfi_startproc
.LVL219:
	.loc 1 3267 1
	.loc 1 3268 1
	.loc 1 3283 2
	.loc 1 3266 1 is_stmt 0
	addi	sp,sp,-16
	.cfi_def_cfa_offset 16
	sw	ra,12(sp)
	sw	s0,8(sp)
	sw	s1,4(sp)
	.cfi_offset 1, -4
	.cfi_offset 8, -8
	.cfi_offset 9, -12
	.loc 1 3283 17
	lw	a5,12(a0)
	lw	s0,12(a5)
.LVL220:
	.loc 1 3284 2 is_stmt 1
	.loc 1 3284 4 is_stmt 0
	beq	s0,zero,.L224
.LVL221:
.L218:
	.loc 1 3285 2 is_stmt 1
	.loc 1 3285 11 is_stmt 0
	addi	s1,s0,24
	mv	a0,s1
	call	uxListRemove
.LVL222:
	.loc 1 3287 2 is_stmt 1
	.loc 1 3287 27 is_stmt 0
	lui	a5,%hi(.LANCHOR14)
	lw	a5,%lo(.LANCHOR14)(a5)
	.loc 1 3287 4
	bne	a5,zero,.L219
	.loc 1 3289 3 is_stmt 1
	.loc 1 3289 12 is_stmt 0
	addi	s1,s0,4
	mv	a0,s1
	call	uxListRemove
.LVL223:
	.loc 1 3290 3 is_stmt 1
	.loc 1 3290 5
	.loc 1 3290 60 is_stmt 0
	lw	a2,44(s0)
	.loc 1 3290 28
	lui	a3,%hi(.LANCHOR2)
	addi	a3,a3,%lo(.LANCHOR2)
	lw	a1,0(a3)
	.loc 1 3290 78
	slli	a4,a2,2
	add	a4,a4,a2
	.loc 1 3290 37
	li	a5,1
	.loc 1 3290 78
	lui	a0,%hi(.LANCHOR9)
	.loc 1 3290 37
	sll	a5,a5,a2
	.loc 1 3290 78
	slli	a4,a4,2
	addi	a0,a0,%lo(.LANCHOR9)
	.loc 1 3290 28
	or	a5,a5,a1
	.loc 1 3290 78
	add	a0,a0,a4
	mv	a1,s1
	.loc 1 3290 28
	sw	a5,0(a3)
	.loc 1 3290 78 is_stmt 1
	call	vListInsertEnd
.LVL224:
	.loc 1 3290 195
.L220:
	.loc 1 3313 2
	.loc 1 3313 47 is_stmt 0
	lui	a5,%hi(.LANCHOR1)
	lw	a5,%lo(.LANCHOR1)(a5)
	.loc 1 3313 4
	lw	a4,44(s0)
	.loc 1 3326 11
	li	a0,0
	.loc 1 3313 4
	lw	a5,44(a5)
	bleu	a4,a5,.L217
	.loc 1 3318 3 is_stmt 1
.LVL225:
	.loc 1 3322 3
	.loc 1 3322 17 is_stmt 0
	lui	a5,%hi(.LANCHOR8)
	li	a4,1
	sw	a4,%lo(.LANCHOR8)(a5)
	.loc 1 3318 11
	li	a0,1
.LVL226:
.L217:
	.loc 1 3330 1
	lw	ra,12(sp)
	.cfi_remember_state
	.cfi_restore 1
	lw	s0,8(sp)
	.cfi_restore 8
.LVL227:
	lw	s1,4(sp)
	.cfi_restore 9
	addi	sp,sp,16
	.cfi_def_cfa_offset 0
	jr	ra
.LVL228:
.L219:
	.cfi_restore_state
	.loc 1 3310 3 is_stmt 1
	lui	a0,%hi(.LANCHOR17)
	mv	a1,s1
	addi	a0,a0,%lo(.LANCHOR17)
	call	vListInsertEnd
.LVL229:
	j	.L220
.LVL230:
.L224:
	.loc 1 3284 32 discriminator 1
	li	a0,2
.LVL231:
	call	vEnvironmentCall
.LVL232:
	j	.L218
	.cfi_endproc
.LFE38:
	.size	xTaskRemoveFromEventList, .-xTaskRemoveFromEventList
	.section	.text.vTaskRemoveFromUnorderedEventList,"ax",@progbits
	.align	1
	.globl	vTaskRemoveFromUnorderedEventList
	.type	vTaskRemoveFromUnorderedEventList, @function
vTaskRemoveFromUnorderedEventList:
.LFB39:
	.loc 1 3334 1
	.cfi_startproc
.LVL233:
	.loc 1 3335 1
	.loc 1 3339 2
	.loc 1 3339 55 is_stmt 0
	lui	a5,%hi(.LANCHOR14)
	lw	a5,%lo(.LANCHOR14)(a5)
	.loc 1 3334 1
	addi	sp,sp,-16
	.cfi_def_cfa_offset 16
	sw	s0,8(sp)
	sw	s1,4(sp)
	sw	ra,12(sp)
	sw	s2,0(sp)
	.cfi_offset 8, -8
	.cfi_offset 9, -12
	.cfi_offset 1, -4
	.cfi_offset 18, -16
	.loc 1 3334 1
	mv	s0,a0
	mv	s1,a1
	.loc 1 3339 4
	beq	a5,zero,.L230
	.loc 1 3342 2 is_stmt 1
	.loc 1 3342 51 is_stmt 0
	li	a1,-2147483648
.LVL234:
	.loc 1 3346 17
	lw	s2,12(s0)
	.loc 1 3342 51
	or	s1,s1,a1
.LVL235:
	.loc 1 3342 36
	sw	s1,0(s0)
	.loc 1 3346 2 is_stmt 1
.LVL236:
	.loc 1 3347 2
	.loc 1 3347 4 is_stmt 0
	beq	s2,zero,.L231
.LVL237:
.L227:
	.loc 1 3348 2 is_stmt 1
	.loc 1 3348 11 is_stmt 0
	mv	a0,s0
	call	uxListRemove
.LVL238:
	.loc 1 3353 2 is_stmt 1
	.loc 1 3353 11 is_stmt 0
	addi	s0,s2,4
.LVL239:
	mv	a0,s0
	call	uxListRemove
.LVL240:
	.loc 1 3354 2 is_stmt 1
	.loc 1 3354 4
	.loc 1 3354 59 is_stmt 0
	lw	a5,44(s2)
	.loc 1 3354 27
	lui	a3,%hi(.LANCHOR2)
	addi	a3,a3,%lo(.LANCHOR2)
	lw	a2,0(a3)
	.loc 1 3354 77
	slli	a4,a5,2
	add	a4,a4,a5
	.loc 1 3354 36
	li	s1,1
	.loc 1 3354 77
	lui	a0,%hi(.LANCHOR9)
	slli	a4,a4,2
	.loc 1 3354 36
	sll	a5,s1,a5
	.loc 1 3354 77
	addi	a0,a0,%lo(.LANCHOR9)
	.loc 1 3354 27
	or	a5,a5,a2
	.loc 1 3354 77
	add	a0,a0,a4
	mv	a1,s0
	.loc 1 3354 27
	sw	a5,0(a3)
	.loc 1 3354 77 is_stmt 1
	call	vListInsertEnd
.LVL241:
	.loc 1 3354 194
	.loc 1 3356 2
	.loc 1 3356 47 is_stmt 0
	lui	a5,%hi(.LANCHOR1)
	lw	a5,%lo(.LANCHOR1)(a5)
	.loc 1 3356 4
	lw	a4,44(s2)
	lw	a5,44(a5)
	bleu	a4,a5,.L225
	.loc 1 3362 3 is_stmt 1
	.loc 1 3362 17 is_stmt 0
	lui	a5,%hi(.LANCHOR8)
	sw	s1,%lo(.LANCHOR8)(a5)
.L225:
	.loc 1 3364 1
	lw	ra,12(sp)
	.cfi_remember_state
	.cfi_restore 1
	lw	s0,8(sp)
	.cfi_restore 8
	lw	s1,4(sp)
	.cfi_restore 9
	lw	s2,0(sp)
	.cfi_restore 18
.LVL242:
	addi	sp,sp,16
	.cfi_def_cfa_offset 0
	jr	ra
.LVL243:
.L230:
	.cfi_restore_state
	.loc 1 3339 62 is_stmt 1 discriminator 1
	li	a0,2
	call	vEnvironmentCall
.LVL244:
	.loc 1 3342 2 discriminator 1
	.loc 1 3342 51 is_stmt 0 discriminator 1
	li	a1,-2147483648
	.loc 1 3346 17 discriminator 1
	lw	s2,12(s0)
	.loc 1 3342 51 discriminator 1
	or	s1,s1,a1
.LVL245:
	.loc 1 3342 36 discriminator 1
	sw	s1,0(s0)
	.loc 1 3346 2 is_stmt 1 discriminator 1
.LVL246:
	.loc 1 3347 2 discriminator 1
	.loc 1 3347 4 is_stmt 0 discriminator 1
	bne	s2,zero,.L227
.L231:
	.loc 1 3347 32 is_stmt 1 discriminator 1
	li	a0,2
	call	vEnvironmentCall
.LVL247:
	j	.L227
	.cfi_endproc
.LFE39:
	.size	vTaskRemoveFromUnorderedEventList, .-vTaskRemoveFromUnorderedEventList
	.section	.text.vTaskSetTimeOutState,"ax",@progbits
	.align	1
	.globl	vTaskSetTimeOutState
	.type	vTaskSetTimeOutState, @function
vTaskSetTimeOutState:
.LFB40:
	.loc 1 3368 1
	.cfi_startproc
.LVL248:
	.loc 1 3369 2
	.loc 1 3368 1 is_stmt 0
	addi	sp,sp,-16
	.cfi_def_cfa_offset 16
	sw	s0,8(sp)
	sw	ra,12(sp)
	.cfi_offset 8, -8
	.cfi_offset 1, -4
	.loc 1 3368 1
	mv	s0,a0
	.loc 1 3369 4
	beq	a0,zero,.L245
.LVL249:
.L233:
	.loc 1 3370 2 is_stmt 1
.LBB199:
.LBB200:
	.loc 1 4431 3
 #APP
# 4431 "/mnt/d/GitHub/bl_iot_sdk_for_aithinker/components/platform/soc/bl602/freertos_riscv_ram/tasks.c" 1
	csrc mstatus, 8
# 0 "" 2
	.loc 1 4433 3
	.loc 1 4433 25 is_stmt 0
 #NO_APP
	lui	a5,%hi(.LANCHOR11)
	addi	a5,a5,%lo(.LANCHOR11)
	lw	a4,0(a5)
	.loc 1 4433 5
	beq	a4,zero,.L234
.LBB201:
.LBB202:
	.loc 1 4435 4 is_stmt 1
	.loc 1 4435 18 is_stmt 0
	lui	a4,%hi(.LANCHOR1)
	addi	a4,a4,%lo(.LANCHOR1)
	lw	a3,0(a4)
	.loc 1 4443 20
	lw	a4,0(a4)
	.loc 1 4435 39
	lw	a4,68(a3)
	addi	a4,a4,1
	sw	a4,68(a3)
	.loc 1 4443 4 is_stmt 1
	.loc 1 4445 5
	.loc 1 4450 4
.L234:
.LBE202:
.LBE201:
	.loc 1 4450 4
.LBE200:
.LBE199:
	.loc 1 3372 3
	.loc 1 3372 29 is_stmt 0
	lui	a3,%hi(.LANCHOR15)
	.loc 1 3373 30
	lui	a4,%hi(.LANCHOR0)
	.loc 1 3372 29
	lw	a3,%lo(.LANCHOR15)(a3)
	.loc 1 3373 30
	lw	a4,%lo(.LANCHOR0)(a4)
.LBB203:
.LBB204:
	.loc 1 4461 25
	lw	a5,0(a5)
.LBE204:
.LBE203:
	.loc 1 3372 29
	sw	a3,0(s0)
	.loc 1 3373 3 is_stmt 1
	.loc 1 3373 30 is_stmt 0
	sw	a4,4(s0)
	.loc 1 3375 2 is_stmt 1
.LBB208:
.LBB207:
	.loc 1 4461 3
	.loc 1 4461 5 is_stmt 0
	beq	a5,zero,.L232
	.loc 1 4463 4 is_stmt 1
	.loc 1 4463 20 is_stmt 0
	lui	a5,%hi(.LANCHOR1)
	addi	a5,a5,%lo(.LANCHOR1)
	lw	a4,0(a5)
	.loc 1 4463 6
	lw	a4,68(a4)
	beq	a4,zero,.L232
.LBB205:
.LBB206:
	.loc 1 4465 5 is_stmt 1
	.loc 1 4465 19 is_stmt 0
	lw	a4,0(a5)
	.loc 1 4467 21
	lw	a3,0(a5)
	.loc 1 4465 40
	lw	a5,68(a4)
	addi	a5,a5,-1
	sw	a5,68(a4)
	.loc 1 4467 5 is_stmt 1
	.loc 1 4467 7 is_stmt 0
	lw	a5,68(a3)
	bne	a5,zero,.L232
	.loc 1 4469 6 is_stmt 1
 #APP
# 4469 "/mnt/d/GitHub/bl_iot_sdk_for_aithinker/components/platform/soc/bl602/freertos_riscv_ram/tasks.c" 1
	csrs mstatus, 8
# 0 "" 2
 #NO_APP
.LBE206:
.LBE205:
	.loc 1 4483 4
.L232:
.LBE207:
.LBE208:
	.loc 1 3376 1 is_stmt 0
	lw	ra,12(sp)
	.cfi_remember_state
	.cfi_restore 1
	lw	s0,8(sp)
	.cfi_restore 8
.LVL250:
	addi	sp,sp,16
	.cfi_def_cfa_offset 0
	jr	ra
.LVL251:
.L245:
	.cfi_restore_state
	.loc 1 3369 27 is_stmt 1 discriminator 1
	li	a0,2
	call	vEnvironmentCall
.LVL252:
	j	.L233
	.cfi_endproc
.LFE40:
	.size	vTaskSetTimeOutState, .-vTaskSetTimeOutState
	.section	.text.vTaskInternalSetTimeOutState,"ax",@progbits
	.align	1
	.globl	vTaskInternalSetTimeOutState
	.type	vTaskInternalSetTimeOutState, @function
vTaskInternalSetTimeOutState:
.LFB41:
	.loc 1 3380 1
	.cfi_startproc
.LVL253:
	.loc 1 3382 2
	.loc 1 3382 28 is_stmt 0
	lui	a4,%hi(.LANCHOR15)
	.loc 1 3383 29
	lui	a5,%hi(.LANCHOR0)
	.loc 1 3382 28
	lw	a4,%lo(.LANCHOR15)(a4)
	.loc 1 3383 29
	lw	a5,%lo(.LANCHOR0)(a5)
	.loc 1 3382 28
	sw	a4,0(a0)
	.loc 1 3383 2 is_stmt 1
	.loc 1 3383 29 is_stmt 0
	sw	a5,4(a0)
	.loc 1 3384 1
	ret
	.cfi_endproc
.LFE41:
	.size	vTaskInternalSetTimeOutState, .-vTaskInternalSetTimeOutState
	.section	.text.vTaskMissedYield,"ax",@progbits
	.align	1
	.globl	vTaskMissedYield
	.type	vTaskMissedYield, @function
vTaskMissedYield:
.LFB43:
	.loc 1 3451 1 is_stmt 1
	.cfi_startproc
	.loc 1 3452 2
	.loc 1 3452 16 is_stmt 0
	lui	a5,%hi(.LANCHOR8)
	li	a4,1
	sw	a4,%lo(.LANCHOR8)(a5)
	.loc 1 3453 1
	ret
	.cfi_endproc
.LFE43:
	.size	vTaskMissedYield, .-vTaskMissedYield
	.section	.text.uxTaskGetTaskNumber,"ax",@progbits
	.align	1
	.globl	uxTaskGetTaskNumber
	.type	uxTaskGetTaskNumber, @function
uxTaskGetTaskNumber:
.LFB44:
	.loc 1 3459 2 is_stmt 1
	.cfi_startproc
.LVL254:
	.loc 1 3460 2
	.loc 1 3461 2
	.loc 1 3463 3
	.loc 1 3463 5 is_stmt 0
	beq	a0,zero,.L250
	.loc 1 3465 4 is_stmt 1
.LVL255:
	.loc 1 3466 4
	.loc 1 3466 13 is_stmt 0
	lw	a0,76(a0)
.LVL256:
	ret
.LVL257:
.L250:
	.loc 1 3470 13
	li	a0,0
.LVL258:
	.loc 1 3473 3 is_stmt 1
	.loc 1 3474 2 is_stmt 0
	ret
	.cfi_endproc
.LFE44:
	.size	uxTaskGetTaskNumber, .-uxTaskGetTaskNumber
	.section	.text.vTaskSetTaskNumber,"ax",@progbits
	.align	1
	.globl	vTaskSetTaskNumber
	.type	vTaskSetTaskNumber, @function
vTaskSetTaskNumber:
.LFB45:
	.loc 1 3482 2 is_stmt 1
	.cfi_startproc
.LVL259:
	.loc 1 3483 2
	.loc 1 3485 3
	.loc 1 3485 5 is_stmt 0
	beq	a0,zero,.L251
	.loc 1 3487 4 is_stmt 1
.LVL260:
	.loc 1 3488 4
	.loc 1 3488 24 is_stmt 0
	sw	a1,76(a0)
.LVL261:
.L251:
	.loc 1 3490 2
	ret
	.cfi_endproc
.LFE45:
	.size	vTaskSetTaskNumber, .-vTaskSetTaskNumber
	.section	.text.uxTaskGetStackHighWaterMark,"ax",@progbits
	.align	1
	.globl	uxTaskGetStackHighWaterMark
	.type	uxTaskGetStackHighWaterMark, @function
uxTaskGetStackHighWaterMark:
.LFB53:
	.loc 1 4008 2 is_stmt 1
	.cfi_startproc
.LVL262:
	.loc 1 4009 2
	.loc 1 4010 2
	.loc 1 4011 2
	.loc 1 4013 3
	.loc 1 4013 27 is_stmt 0
	beq	a0,zero,.L262
.LVL263:
	.loc 1 4017 4 is_stmt 1 discriminator 4
	.loc 1 4017 18 is_stmt 0 discriminator 4
	lw	a4,48(a0)
.LVL264:
	.loc 1 4025 3 is_stmt 1 discriminator 4
.LBB209:
.LBB210:
	.loc 1 3949 2 discriminator 4
	.loc 1 3951 3 discriminator 4
	.loc 1 3951 8 discriminator 4
	li	a5,165
	.loc 1 3949 11 is_stmt 0 discriminator 4
	li	a0,0
.LVL265:
	.loc 1 3951 8 discriminator 4
	lbu	a3,0(a4)
	bne	a3,a5,.L260
.LVL266:
.L263:
	.loc 1 3951 8
	li	a3,165
.LVL267:
.L259:
	.loc 1 3953 4 is_stmt 1
	.loc 1 3954 4
	.loc 1 3954 11 is_stmt 0
	addi	a0,a0,1
.LVL268:
	.loc 1 3951 8 is_stmt 1
	.loc 1 3951 10 is_stmt 0
	add	a5,a4,a0
	.loc 1 3951 8
	lbu	a5,0(a5)
	beq	a5,a3,.L259
	.loc 1 3957 11
	srli	a0,a0,2
.LVL269:
	slli	a0,a0,16
	srli	a0,a0,16
	ret
.LVL270:
.L262:
.LBE210:
.LBE209:
	.loc 1 4013 27 discriminator 1
	lui	a5,%hi(.LANCHOR1)
	lw	a0,%lo(.LANCHOR1)(a5)
.LVL271:
	.loc 1 4017 4 is_stmt 1 discriminator 1
.LBB213:
.LBB211:
	.loc 1 3951 8 is_stmt 0 discriminator 1
	li	a5,165
.LBE211:
.LBE213:
	.loc 1 4017 18 discriminator 1
	lw	a4,48(a0)
.LVL272:
	.loc 1 4025 3 is_stmt 1 discriminator 1
.LBB214:
.LBB212:
	.loc 1 3949 2 discriminator 1
	.loc 1 3951 3 discriminator 1
	.loc 1 3951 8 discriminator 1
	.loc 1 3949 11 is_stmt 0 discriminator 1
	li	a0,0
.LVL273:
	.loc 1 3951 8 discriminator 1
	lbu	a3,0(a4)
	beq	a3,a5,.L263
.L260:
	.loc 1 3957 3 is_stmt 1
.LVL274:
	.loc 1 3959 3
.LBE212:
.LBE214:
	.loc 1 4027 3
	.loc 1 4028 2 is_stmt 0
	ret
	.cfi_endproc
.LFE53:
	.size	uxTaskGetStackHighWaterMark, .-uxTaskGetStackHighWaterMark
	.section	.text.xTaskGetCurrentTaskHandle,"ax",@progbits
	.align	1
	.globl	xTaskGetCurrentTaskHandle
	.type	xTaskGetCurrentTaskHandle, @function
xTaskGetCurrentTaskHandle:
.LFB56:
	.loc 1 4116 2 is_stmt 1
	.cfi_startproc
	.loc 1 4117 2
	.loc 1 4122 3
	.loc 1 4122 11 is_stmt 0
	lui	a5,%hi(.LANCHOR1)
	lw	a0,%lo(.LANCHOR1)(a5)
.LVL275:
	.loc 1 4124 3 is_stmt 1
	.loc 1 4125 2 is_stmt 0
	ret
	.cfi_endproc
.LFE56:
	.size	xTaskGetCurrentTaskHandle, .-xTaskGetCurrentTaskHandle
	.section	.text.xTaskGetSchedulerState,"ax",@progbits
	.align	1
	.globl	xTaskGetSchedulerState
	.type	xTaskGetSchedulerState, @function
xTaskGetSchedulerState:
.LFB57:
	.loc 1 4133 2 is_stmt 1
	.cfi_startproc
	.loc 1 4134 2
	.loc 1 4136 3
	.loc 1 4136 25 is_stmt 0
	lui	a5,%hi(.LANCHOR11)
	lw	a5,%lo(.LANCHOR11)(a5)
	.loc 1 4138 12
	li	a0,1
	.loc 1 4136 5
	beq	a5,zero,.L265
	.loc 1 4142 4 is_stmt 1
	.loc 1 4142 29 is_stmt 0
	lui	a5,%hi(.LANCHOR14)
	lw	a0,%lo(.LANCHOR14)(a5)
	.loc 1 4148 13
	seqz	a0,a0
	slli	a0,a0,1
.L265:
	.loc 1 4153 2
	ret
	.cfi_endproc
.LFE57:
	.size	xTaskGetSchedulerState, .-xTaskGetSchedulerState
	.section	.text.xTaskPriorityInherit,"ax",@progbits
	.align	1
	.globl	xTaskPriorityInherit
	.type	xTaskPriorityInherit, @function
xTaskPriorityInherit:
.LFB58:
	.loc 1 4161 2 is_stmt 1
	.cfi_startproc
.LVL276:
	.loc 1 4162 2
	.loc 1 4163 2
	.loc 1 4168 3
	.loc 1 4168 5 is_stmt 0
	beq	a0,zero,.L276
	.loc 1 4161 2
	addi	sp,sp,-32
	.cfi_def_cfa_offset 32
	sw	s1,20(sp)
	.cfi_offset 9, -12
	.loc 1 4173 51
	lui	s1,%hi(.LANCHOR1)
	addi	s1,s1,%lo(.LANCHOR1)
	lw	a5,0(s1)
	.loc 1 4161 2
	sw	s0,24(sp)
	sw	ra,28(sp)
	sw	s2,16(sp)
	sw	s3,12(sp)
	.cfi_offset 8, -8
	.cfi_offset 1, -4
	.cfi_offset 18, -16
	.cfi_offset 19, -20
	.loc 1 4173 24
	lw	a4,44(a0)
	.loc 1 4173 6
	lw	a5,44(a5)
	mv	s0,a0
	.loc 1 4173 4 is_stmt 1
	.loc 1 4173 6 is_stmt 0
	bgeu	a4,a5,.L272
	.loc 1 4178 5 is_stmt 1
	.loc 1 4178 7 is_stmt 0
	lw	a5,24(a0)
	blt	a5,zero,.L273
	.loc 1 4180 6 is_stmt 1
	.loc 1 4180 117 is_stmt 0
	lw	a5,0(s1)
	.loc 1 4180 88
	lw	a3,44(a5)
	li	a5,32
	sub	a5,a5,a3
	.loc 1 4180 62
	sw	a5,24(a0)
.L273:
	.loc 1 4184 6 is_stmt 1
	.loc 1 4189 5
	.loc 1 4189 73 is_stmt 0
	slli	a5,a4,2
	add	a5,a5,a4
	lui	s2,%hi(.LANCHOR9)
	.loc 1 4189 7
	lw	a4,20(s0)
	.loc 1 4189 73
	addi	s2,s2,%lo(.LANCHOR9)
	slli	a5,a5,2
	add	a5,s2,a5
	.loc 1 4189 7
	beq	a4,a5,.L285
	.loc 1 4207 6 is_stmt 1
	.loc 1 4207 49 is_stmt 0
	lw	a5,0(s1)
	.loc 1 4213 13
	li	a0,1
.LVL277:
	.loc 1 4207 49
	lw	a5,44(a5)
	.loc 1 4207 35
	sw	a5,44(s0)
	.loc 1 4240 2
	lw	ra,28(sp)
	.cfi_remember_state
	.cfi_restore 1
	lw	s0,24(sp)
	.cfi_restore 8
.LVL278:
	lw	s1,20(sp)
	.cfi_restore 9
	lw	s2,16(sp)
	.cfi_restore 18
	lw	s3,12(sp)
	.cfi_restore 19
	addi	sp,sp,32
	.cfi_def_cfa_offset 0
	jr	ra
.LVL279:
.L272:
	.cfi_restore_state
	.loc 1 4217 5 is_stmt 1
	.loc 1 4217 56 is_stmt 0
	lw	a5,0(s1)
	.loc 1 4217 7
	lw	a0,80(a0)
	lw	a5,44(a5)
	sltu	a0,a0,a5
.L270:
	.loc 1 4240 2
	lw	ra,28(sp)
	.cfi_restore 1
	lw	s0,24(sp)
	.cfi_restore 8
.LVL280:
	lw	s1,20(sp)
	.cfi_restore 9
	lw	s2,16(sp)
	.cfi_restore 18
	lw	s3,12(sp)
	.cfi_restore 19
	addi	sp,sp,32
	.cfi_def_cfa_offset 0
	jr	ra
.LVL281:
.L276:
	.loc 1 4163 13
	li	a0,0
.LVL282:
	.loc 1 4236 4 is_stmt 1
	.loc 1 4239 3
	.loc 1 4240 2 is_stmt 0
	ret
.LVL283:
.L285:
	.cfi_def_cfa_offset 32
	.cfi_offset 1, -4
	.cfi_offset 8, -8
	.cfi_offset 9, -12
	.cfi_offset 18, -16
	.cfi_offset 19, -20
	.loc 1 4191 6 is_stmt 1
	.loc 1 4191 10 is_stmt 0
	addi	s3,s0,4
	mv	a0,s3
	call	uxListRemove
.LVL284:
	.loc 1 4191 8
	bne	a0,zero,.L286
	.loc 1 4193 9 is_stmt 1
	.loc 1 4193 57 is_stmt 0
	lw	a3,44(s0)
	.loc 1 4193 149
	lui	a4,%hi(.LANCHOR2)
	addi	a4,a4,%lo(.LANCHOR2)
	.loc 1 4193 77
	slli	a5,a3,2
	add	a5,a5,a3
	slli	a5,a5,2
	add	a5,s2,a5
	lw	a5,0(a5)
	.loc 1 4193 11
	bne	a5,zero,.L275
	.loc 1 4193 122 is_stmt 1 discriminator 1
	.loc 1 4193 149 is_stmt 0 discriminator 1
	lw	a2,0(a4)
	.loc 1 4193 159 discriminator 1
	li	a5,1
	sll	a5,a5,a3
	.loc 1 4193 152 discriminator 1
	not	a5,a5
	.loc 1 4193 149 discriminator 1
	and	a5,a5,a2
	sw	a5,0(a4)
	j	.L275
.L286:
	lui	a4,%hi(.LANCHOR2)
	addi	a4,a4,%lo(.LANCHOR2)
.L275:
	.loc 1 4197 7 is_stmt 1
	.loc 1 4201 6
	.loc 1 4201 49 is_stmt 0
	lw	a5,0(s1)
	.loc 1 4202 31
	lw	a2,0(a4)
	.loc 1 4202 83
	mv	a1,s3
	.loc 1 4201 49
	lw	a3,44(a5)
	.loc 1 4202 40
	li	a5,1
	.loc 1 4202 83
	slli	a0,a3,2
	add	a0,a0,a3
	.loc 1 4202 40
	sll	a5,a5,a3
	.loc 1 4202 83
	slli	a0,a0,2
	.loc 1 4202 31
	or	a5,a5,a2
	.loc 1 4202 83
	add	a0,s2,a0
	.loc 1 4201 35
	sw	a3,44(s0)
	.loc 1 4202 6 is_stmt 1
	.loc 1 4202 8
	.loc 1 4202 31 is_stmt 0
	sw	a5,0(a4)
	.loc 1 4202 83 is_stmt 1
	call	vListInsertEnd
.LVL285:
	.loc 1 4202 204
	.loc 1 4213 13 is_stmt 0
	li	a0,1
	j	.L270
	.cfi_endproc
.LFE58:
	.size	xTaskPriorityInherit, .-xTaskPriorityInherit
	.section	.text.xTaskPriorityDisinherit,"ax",@progbits
	.align	1
	.globl	xTaskPriorityDisinherit
	.type	xTaskPriorityDisinherit, @function
xTaskPriorityDisinherit:
.LFB59:
	.loc 1 4248 2 is_stmt 1
	.cfi_startproc
.LVL286:
	.loc 1 4249 2
	.loc 1 4250 2
	.loc 1 4252 3
	.loc 1 4252 5 is_stmt 0
	beq	a0,zero,.L301
	.loc 1 4258 34
	lui	a5,%hi(.LANCHOR1)
	lw	a5,%lo(.LANCHOR1)(a5)
	.loc 1 4248 2
	addi	sp,sp,-16
	.cfi_def_cfa_offset 16
	sw	s0,8(sp)
	sw	ra,12(sp)
	sw	s1,4(sp)
	.cfi_offset 8, -8
	.cfi_offset 1, -4
	.cfi_offset 9, -12
	mv	s0,a0
	.loc 1 4258 4 is_stmt 1
	.loc 1 4258 6 is_stmt 0
	beq	a5,a0,.L290
	.loc 1 4258 41 is_stmt 1 discriminator 1
	li	a0,2
.LVL287:
	call	vEnvironmentCall
.LVL288:
.L290:
	.loc 1 4259 4
	.loc 1 4259 15 is_stmt 0
	lw	a5,84(s0)
	.loc 1 4259 6
	beq	a5,zero,.L302
	.loc 1 4260 4 is_stmt 1
	.loc 1 4264 6 is_stmt 0
	lw	a3,44(s0)
	lw	a4,80(s0)
	.loc 1 4260 28
	addi	a5,a5,-1
	sw	a5,84(s0)
	.loc 1 4264 4 is_stmt 1
	.loc 1 4264 6 is_stmt 0
	beq	a3,a4,.L292
.L304:
	.loc 1 4267 5 is_stmt 1
	.loc 1 4267 7 is_stmt 0
	beq	a5,zero,.L303
.L292:
	.loc 1 4320 2
	lw	ra,12(sp)
	.cfi_remember_state
	.cfi_restore 1
	lw	s0,8(sp)
	.cfi_restore 8
.LVL289:
	lw	s1,4(sp)
	.cfi_restore 9
	.loc 1 4250 13
	li	a0,0
	.loc 1 4320 2
	addi	sp,sp,16
	.cfi_def_cfa_offset 0
	jr	ra
.LVL290:
.L302:
	.cfi_restore_state
	.loc 1 4259 40 is_stmt 1 discriminator 1
	li	a0,2
	call	vEnvironmentCall
.LVL291:
	.loc 1 4260 11 is_stmt 0 discriminator 1
	lw	a5,84(s0)
	.loc 1 4260 4 is_stmt 1 discriminator 1
	.loc 1 4264 6 is_stmt 0 discriminator 1
	lw	a3,44(s0)
	lw	a4,80(s0)
	.loc 1 4260 28 discriminator 1
	addi	a5,a5,-1
	sw	a5,84(s0)
	.loc 1 4264 4 is_stmt 1 discriminator 1
	.loc 1 4264 6 is_stmt 0 discriminator 1
	bne	a3,a4,.L304
	j	.L292
.LVL292:
.L301:
	.cfi_def_cfa_offset 0
	.cfi_restore 1
	.cfi_restore 8
	.cfi_restore 9
	.loc 1 4250 13
	li	a0,0
.LVL293:
	.loc 1 4320 2
	ret
.LVL294:
.L303:
	.cfi_def_cfa_offset 16
	.cfi_offset 1, -4
	.cfi_offset 8, -8
	.cfi_offset 9, -12
	.loc 1 4274 6 is_stmt 1
	.loc 1 4274 10 is_stmt 0
	addi	s1,s0,4
	mv	a0,s1
	call	uxListRemove
.LVL295:
	.loc 1 4274 8
	beq	a0,zero,.L296
	lui	a0,%hi(.LANCHOR9)
	lui	a2,%hi(.LANCHOR2)
	addi	a0,a0,%lo(.LANCHOR9)
	addi	a2,a2,%lo(.LANCHOR2)
.L293:
	.loc 1 4280 7 is_stmt 1
	.loc 1 4285 6
	.loc 1 4286 6
	.loc 1 4286 31 is_stmt 0
	lw	a3,80(s0)
	.loc 1 4292 31
	lw	a1,0(a2)
	.loc 1 4291 77
	li	a6,32
	.loc 1 4292 72
	slli	a4,a3,2
	add	a4,a4,a3
	.loc 1 4292 40
	li	a5,1
	.loc 1 4291 77
	sub	a6,a6,a3
	.loc 1 4292 40
	sll	a5,a5,a3
	.loc 1 4292 72
	slli	a4,a4,2
	.loc 1 4292 31
	or	a5,a5,a1
	.loc 1 4286 24
	sw	a3,44(s0)
	.loc 1 4291 6 is_stmt 1
	.loc 1 4291 51 is_stmt 0
	sw	a6,24(s0)
	.loc 1 4292 6 is_stmt 1
	.loc 1 4292 8
	.loc 1 4292 72 is_stmt 0
	mv	a1,s1
	add	a0,a0,a4
	.loc 1 4292 31
	sw	a5,0(a2)
	.loc 1 4292 72 is_stmt 1
	call	vListInsertEnd
.LVL296:
	.loc 1 4292 171
	.loc 1 4302 6
	.loc 1 4320 2 is_stmt 0
	lw	ra,12(sp)
	.cfi_remember_state
	.cfi_restore 1
	lw	s0,8(sp)
	.cfi_restore 8
.LVL297:
	lw	s1,4(sp)
	.cfi_restore 9
.LVL298:
	.loc 1 4302 14
	li	a0,1
	.loc 1 4316 4 is_stmt 1
	.loc 1 4319 3
	.loc 1 4320 2 is_stmt 0
	addi	sp,sp,16
	.cfi_def_cfa_offset 0
	jr	ra
.LVL299:
.L296:
	.cfi_restore_state
	.loc 1 4276 9 is_stmt 1
	.loc 1 4276 46 is_stmt 0
	lw	a4,44(s0)
	.loc 1 4276 66
	lui	a0,%hi(.LANCHOR9)
	addi	a0,a0,%lo(.LANCHOR9)
	slli	a5,a4,2
	add	a5,a5,a4
	slli	a5,a5,2
	add	a5,a0,a5
	lw	a5,0(a5)
	.loc 1 4276 138
	lui	a2,%hi(.LANCHOR2)
	addi	a2,a2,%lo(.LANCHOR2)
	.loc 1 4276 11
	bne	a5,zero,.L293
	.loc 1 4276 111 is_stmt 1 discriminator 1
	.loc 1 4276 138 is_stmt 0 discriminator 1
	lw	a3,0(a2)
	.loc 1 4276 148 discriminator 1
	li	a5,1
	sll	a5,a5,a4
	.loc 1 4276 141 discriminator 1
	not	a5,a5
	.loc 1 4276 138 discriminator 1
	and	a5,a5,a3
	sw	a5,0(a2)
	j	.L293
	.cfi_endproc
.LFE59:
	.size	xTaskPriorityDisinherit, .-xTaskPriorityDisinherit
	.section	.text.vTaskPriorityDisinheritAfterTimeout,"ax",@progbits
	.align	1
	.globl	vTaskPriorityDisinheritAfterTimeout
	.type	vTaskPriorityDisinheritAfterTimeout, @function
vTaskPriorityDisinheritAfterTimeout:
.LFB60:
	.loc 1 4328 2 is_stmt 1
	.cfi_startproc
.LVL300:
	.loc 1 4329 2
	.loc 1 4330 2
	.loc 1 4331 2
	.loc 1 4333 3
	.loc 1 4333 5 is_stmt 0
	beq	a0,zero,.L318
	.loc 1 4328 2
	addi	sp,sp,-16
	.cfi_def_cfa_offset 16
	sw	s0,8(sp)
	sw	s1,4(sp)
	sw	ra,12(sp)
	sw	s2,0(sp)
	.cfi_offset 8, -8
	.cfi_offset 9, -12
	.cfi_offset 1, -4
	.cfi_offset 18, -16
	.loc 1 4337 6
	lw	a5,84(a0)
	mv	s0,a0
	mv	s1,a1
	.loc 1 4337 4 is_stmt 1
	.loc 1 4337 6 is_stmt 0
	beq	a5,zero,.L321
	.loc 1 4343 4 is_stmt 1
	lw	s2,80(s0)
	bltu	s2,s1,.L322
.LVL301:
.L309:
	.loc 1 4353 4
	.loc 1 4353 13 is_stmt 0
	lw	a5,44(s0)
	.loc 1 4353 6
	beq	a5,s2,.L305
.L324:
	.loc 1 4359 5 is_stmt 1
	.loc 1 4359 7 is_stmt 0
	lw	a3,84(s0)
	li	a4,1
	beq	a3,a4,.L323
.LVL302:
.L305:
	.loc 1 4422 2
	lw	ra,12(sp)
	.cfi_remember_state
	.cfi_restore 1
	lw	s0,8(sp)
	.cfi_restore 8
.LVL303:
	lw	s1,4(sp)
	.cfi_restore 9
	lw	s2,0(sp)
	.cfi_restore 18
	addi	sp,sp,16
	.cfi_def_cfa_offset 0
	jr	ra
.LVL304:
.L322:
	.cfi_restore_state
	.loc 1 4353 13
	lw	a5,44(s0)
	mv	s2,s1
.LVL305:
	.loc 1 4353 4 is_stmt 1
	.loc 1 4353 6 is_stmt 0
	bne	a5,s2,.L324
.LVL306:
	j	.L305
.LVL307:
.L321:
	.loc 1 4337 40 is_stmt 1 discriminator 1
	li	a0,2
	call	vEnvironmentCall
.LVL308:
	.loc 1 4343 4 discriminator 1
	lw	s2,80(s0)
	bgeu	s2,s1,.L309
	j	.L322
.LVL309:
.L318:
	.cfi_def_cfa_offset 0
	.cfi_restore 1
	.cfi_restore 8
	.cfi_restore 9
	.cfi_restore 18
	ret
.LVL310:
.L323:
	.cfi_def_cfa_offset 16
	.cfi_offset 1, -4
	.cfi_offset 8, -8
	.cfi_offset 9, -12
	.cfi_offset 18, -16
	.loc 1 4364 6
	.loc 1 4364 36 is_stmt 0
	lui	a4,%hi(.LANCHOR1)
	lw	a4,%lo(.LANCHOR1)(a4)
	.loc 1 4364 8
	beq	a4,s0,.L325
.L311:
	.loc 1 4369 6 is_stmt 1
	.loc 1 4370 6
.LVL311:
	.loc 1 4371 6
	.loc 1 4375 8 is_stmt 0
	lw	a4,24(s0)
	.loc 1 4371 24
	sw	s2,44(s0)
.LVL312:
	.loc 1 4375 6 is_stmt 1
	.loc 1 4375 8 is_stmt 0
	blt	a4,zero,.L312
	.loc 1 4377 7 is_stmt 1
	.loc 1 4377 78 is_stmt 0
	li	a4,32
	sub	s2,a4,s2
.LVL313:
	.loc 1 4377 52
	sw	s2,24(s0)
.L312:
	.loc 1 4381 7 is_stmt 1
	.loc 1 4390 6
	.loc 1 4390 63 is_stmt 0
	slli	a4,a5,2
	add	a5,a4,a5
	lui	s1,%hi(.LANCHOR9)
.LVL314:
	.loc 1 4390 8
	lw	a4,20(s0)
	.loc 1 4390 63
	addi	s1,s1,%lo(.LANCHOR9)
	slli	a5,a5,2
	add	a5,s1,a5
	.loc 1 4390 8
	bne	a4,a5,.L305
	.loc 1 4392 7 is_stmt 1
	.loc 1 4392 11 is_stmt 0
	addi	s2,s0,4
	mv	a0,s2
	call	uxListRemove
.LVL315:
	.loc 1 4392 9
	beq	a0,zero,.L313
	.loc 1 4394 47
	lw	a0,44(s0)
	.loc 1 4394 149
	li	a3,1
	lui	a4,%hi(.LANCHOR2)
	sll	a3,a3,a0
	slli	a5,a0,2
	addi	a4,a4,%lo(.LANCHOR2)
.L314:
	.loc 1 4398 8 is_stmt 1
	.loc 1 4401 7
	.loc 1 4401 9
	.loc 1 4401 32 is_stmt 0
	lw	a2,0(a4)
	.loc 1 4401 73
	add	a5,a5,a0
	slli	a0,a5,2
	.loc 1 4401 32
	or	a3,a2,a3
	sw	a3,0(a4)
	.loc 1 4401 73 is_stmt 1
	.loc 1 4422 2 is_stmt 0
	lw	s0,8(sp)
	.cfi_remember_state
	.cfi_restore 8
.LVL316:
	lw	ra,12(sp)
	.cfi_restore 1
	.loc 1 4401 73
	mv	a1,s2
	add	a0,s1,a0
	.loc 1 4422 2
	lw	s2,0(sp)
	.cfi_restore 18
.LVL317:
	lw	s1,4(sp)
	.cfi_restore 9
	addi	sp,sp,16
	.cfi_def_cfa_offset 0
	.loc 1 4401 73
	tail	vListInsertEnd
.LVL318:
.L325:
	.cfi_restore_state
	.loc 1 4364 43 is_stmt 1 discriminator 1
	li	a0,2
	call	vEnvironmentCall
.LVL319:
	.loc 1 4370 28 is_stmt 0 discriminator 1
	lw	a5,44(s0)
	j	.L311
.LVL320:
.L313:
	.loc 1 4394 10 is_stmt 1
	.loc 1 4394 47 is_stmt 0
	lw	a0,44(s0)
	.loc 1 4394 149
	li	a3,1
	.loc 1 4394 67
	slli	a5,a0,2
	add	a4,a5,a0
	slli	a4,a4,2
	add	a4,s1,a4
	lw	a4,0(a4)
	.loc 1 4394 149
	sll	a3,a3,a0
	.loc 1 4394 12
	beq	a4,zero,.L316
	lui	a4,%hi(.LANCHOR2)
	addi	a4,a4,%lo(.LANCHOR2)
	j	.L314
.L316:
	.loc 1 4394 112 is_stmt 1 discriminator 1
	.loc 1 4394 139 is_stmt 0 discriminator 1
	lui	a4,%hi(.LANCHOR2)
	addi	a4,a4,%lo(.LANCHOR2)
	lw	a1,0(a4)
	.loc 1 4394 142 discriminator 1
	not	a2,a3
	.loc 1 4394 139 discriminator 1
	and	a2,a2,a1
	sw	a2,0(a4)
	j	.L314
	.cfi_endproc
.LFE60:
	.size	vTaskPriorityDisinheritAfterTimeout, .-vTaskPriorityDisinheritAfterTimeout
	.section	.text.vTaskEnterCritical,"ax",@progbits
	.align	1
	.globl	vTaskEnterCritical
	.type	vTaskEnterCritical, @function
vTaskEnterCritical:
.LFB61:
	.loc 1 4430 2 is_stmt 1
	.cfi_startproc
	.loc 1 4431 3
 #APP
# 4431 "/mnt/d/GitHub/bl_iot_sdk_for_aithinker/components/platform/soc/bl602/freertos_riscv_ram/tasks.c" 1
	csrc mstatus, 8
# 0 "" 2
	.loc 1 4433 3
	.loc 1 4433 25 is_stmt 0
 #NO_APP
	lui	a5,%hi(.LANCHOR11)
	lw	a5,%lo(.LANCHOR11)(a5)
	.loc 1 4433 5
	beq	a5,zero,.L326
.LBB217:
.LBB218:
	.loc 1 4435 4 is_stmt 1
	.loc 1 4435 18 is_stmt 0
	lui	a5,%hi(.LANCHOR1)
	addi	a5,a5,%lo(.LANCHOR1)
	lw	a4,0(a5)
	.loc 1 4443 20
	lw	a5,0(a5)
	.loc 1 4435 39
	lw	a5,68(a4)
	addi	a5,a5,1
	sw	a5,68(a4)
	.loc 1 4443 4 is_stmt 1
	.loc 1 4445 5
	.loc 1 4450 4
.LBE218:
.LBE217:
	.loc 1 4450 4
.L326:
	.loc 1 4452 2 is_stmt 0
	ret
	.cfi_endproc
.LFE61:
	.size	vTaskEnterCritical, .-vTaskEnterCritical
	.section	.text.vTaskExitCritical,"ax",@progbits
	.align	1
	.globl	vTaskExitCritical
	.type	vTaskExitCritical, @function
vTaskExitCritical:
.LFB62:
	.loc 1 4460 2 is_stmt 1
	.cfi_startproc
	.loc 1 4461 3
	.loc 1 4461 25 is_stmt 0
	lui	a5,%hi(.LANCHOR11)
	lw	a5,%lo(.LANCHOR11)(a5)
	.loc 1 4461 5
	beq	a5,zero,.L331
	.loc 1 4463 4 is_stmt 1
	.loc 1 4463 20 is_stmt 0
	lui	a5,%hi(.LANCHOR1)
	addi	a5,a5,%lo(.LANCHOR1)
	lw	a4,0(a5)
	.loc 1 4463 6
	lw	a4,68(a4)
	beq	a4,zero,.L331
.LBB221:
.LBB222:
	.loc 1 4465 5 is_stmt 1
	.loc 1 4465 19 is_stmt 0
	lw	a4,0(a5)
	.loc 1 4467 21
	lw	a3,0(a5)
	.loc 1 4465 40
	lw	a5,68(a4)
	addi	a5,a5,-1
	sw	a5,68(a4)
	.loc 1 4467 5 is_stmt 1
	.loc 1 4467 7 is_stmt 0
	lw	a5,68(a3)
	bne	a5,zero,.L331
	.loc 1 4469 6 is_stmt 1
 #APP
# 4469 "/mnt/d/GitHub/bl_iot_sdk_for_aithinker/components/platform/soc/bl602/freertos_riscv_ram/tasks.c" 1
	csrs mstatus, 8
# 0 "" 2
 #NO_APP
.LBE222:
.LBE221:
	.loc 1 4483 4
.L331:
	.loc 1 4485 2 is_stmt 0
	ret
	.cfi_endproc
.LFE62:
	.size	vTaskExitCritical, .-vTaskExitCritical
	.section	.text.prvAddNewTaskToReadyList,"ax",@progbits
	.align	1
	.type	prvAddNewTaskToReadyList, @function
prvAddNewTaskToReadyList:
.LFB8:
	.loc 1 1115 1 is_stmt 1
	.cfi_startproc
.LVL321:
	.loc 1 1118 2
.LBB229:
.LBB230:
	.loc 1 4431 3
.LBE230:
.LBE229:
	.loc 1 1115 1 is_stmt 0
	addi	sp,sp,-32
	.cfi_def_cfa_offset 32
	sw	s1,20(sp)
	sw	ra,28(sp)
	sw	s0,24(sp)
	sw	s2,16(sp)
	sw	s3,12(sp)
	sw	s4,8(sp)
	sw	s5,4(sp)
	.cfi_offset 9, -12
	.cfi_offset 1, -4
	.cfi_offset 8, -8
	.cfi_offset 18, -16
	.cfi_offset 19, -20
	.cfi_offset 20, -24
	.cfi_offset 21, -28
	.loc 1 1115 1
	mv	s1,a0
.LBB236:
.LBB235:
	.loc 1 4431 3
 #APP
# 4431 "/mnt/d/GitHub/bl_iot_sdk_for_aithinker/components/platform/soc/bl602/freertos_riscv_ram/tasks.c" 1
	csrc mstatus, 8
# 0 "" 2
	.loc 1 4433 3 is_stmt 1
	.loc 1 4433 25 is_stmt 0
 #NO_APP
	lui	s3,%hi(.LANCHOR11)
	addi	s3,s3,%lo(.LANCHOR11)
	lw	a5,0(s3)
.LBB231:
.LBB232:
	.loc 1 4435 18
	lui	s2,%hi(.LANCHOR1)
	addi	s2,s2,%lo(.LANCHOR1)
.LBE232:
.LBE231:
	.loc 1 4433 5
	beq	a5,zero,.L339
.LBB234:
.LBB233:
	.loc 1 4435 4 is_stmt 1
	.loc 1 4435 18 is_stmt 0
	lw	a4,0(s2)
	.loc 1 4443 20
	lw	a5,0(s2)
	.loc 1 4435 39
	lw	a5,68(a4)
	addi	a5,a5,1
	sw	a5,68(a4)
	.loc 1 4443 4 is_stmt 1
	.loc 1 4445 5
	.loc 1 4450 4
.L339:
.LBE233:
.LBE234:
	.loc 1 4450 4
.LBE235:
.LBE236:
	.loc 1 1120 3
	.loc 1 1120 25 is_stmt 0
	lui	a5,%hi(.LANCHOR13)
	addi	a5,a5,%lo(.LANCHOR13)
	lw	a4,0(a5)
	addi	a4,a4,1
	sw	a4,0(a5)
	.loc 1 1121 3 is_stmt 1
	.loc 1 1121 20 is_stmt 0
	lw	a4,0(s2)
	.loc 1 1121 5
	beq	a4,zero,.L358
	.loc 1 1144 4 is_stmt 1
	.loc 1 1144 26 is_stmt 0
	lw	a5,0(s3)
	.loc 1 1146 45
	lw	a1,44(s1)
	.loc 1 1144 6
	beq	a5,zero,.L354
.L357:
	lui	s4,%hi(.LANCHOR9)
	addi	s4,s4,%lo(.LANCHOR9)
.LVL322:
.L342:
	.loc 1 1157 5 is_stmt 1
	.loc 1 1161 3
	.loc 1 1161 15 is_stmt 0
	lui	a3,%hi(.LANCHOR20)
	addi	a3,a3,%lo(.LANCHOR20)
	.loc 1 1171 28
	lui	a4,%hi(.LANCHOR2)
	.loc 1 1161 15
	lw	a2,0(a3)
	.loc 1 1171 28
	addi	a4,a4,%lo(.LANCHOR2)
	lw	a6,0(a4)
	.loc 1 1171 72
	slli	a0,a1,2
	add	a0,a0,a1
	.loc 1 1171 37
	li	a5,1
	.loc 1 1161 15
	addi	a2,a2,1
	.loc 1 1171 37
	sll	a5,a5,a1
	.loc 1 1171 72
	slli	a0,a0,2
	.loc 1 1171 28
	or	a5,a5,a6
	.loc 1 1171 72
	addi	a1,s1,4
	add	a0,s4,a0
	.loc 1 1166 26
	sw	a2,72(s1)
	.loc 1 1171 28
	sw	a5,0(a4)
	.loc 1 1161 15
	sw	a2,0(a3)
	.loc 1 1166 4 is_stmt 1
	.loc 1 1169 3
	.loc 1 1171 3
	.loc 1 1171 5
	.loc 1 1171 72
	call	vListInsertEnd
.LVL323:
	.loc 1 1171 177
	.loc 1 1173 3
	.loc 1 1175 2
	call	vTaskExitCritical
.LVL324:
	.loc 1 1177 2
	.loc 1 1177 24 is_stmt 0
	lw	a5,0(s3)
	.loc 1 1177 4
	beq	a5,zero,.L338
	.loc 1 1181 3 is_stmt 1
	.loc 1 1181 19 is_stmt 0
	lw	a4,0(s2)
	.loc 1 1181 5
	lw	a5,44(s1)
	lw	a4,44(a4)
	bltu	a4,a5,.L359
.L338:
	.loc 1 1194 1
	lw	ra,28(sp)
	.cfi_remember_state
	.cfi_restore 1
	lw	s0,24(sp)
	.cfi_restore 8
	lw	s1,20(sp)
	.cfi_restore 9
.LVL325:
	lw	s2,16(sp)
	.cfi_restore 18
	lw	s3,12(sp)
	.cfi_restore 19
	lw	s4,8(sp)
	.cfi_restore 20
	lw	s5,4(sp)
	.cfi_restore 21
	addi	sp,sp,32
	.cfi_def_cfa_offset 0
	jr	ra
.LVL326:
.L354:
	.cfi_restore_state
	.loc 1 1146 5 is_stmt 1
	.loc 1 1146 21 is_stmt 0
	lw	a5,0(s2)
	.loc 1 1146 7
	lw	a5,44(a5)
	bgtu	a5,a1,.L357
	.loc 1 1148 6 is_stmt 1
	.loc 1 1148 19 is_stmt 0
	sw	s1,0(s2)
	j	.L357
.L358:
	.loc 1 1125 4 is_stmt 1
	.loc 1 1125 17 is_stmt 0
	sw	s1,0(s2)
	.loc 1 1127 4 is_stmt 1
	.loc 1 1127 31 is_stmt 0
	lw	a4,0(a5)
	.loc 1 1127 6
	li	a5,1
	beq	a4,a5,.L341
	lui	s4,%hi(.LANCHOR9)
	.loc 1 1171 54
	lw	a1,44(s1)
	addi	s4,s4,%lo(.LANCHOR9)
	j	.L342
.L359:
	.loc 1 1183 4 is_stmt 1
	.loc 1 1194 1 is_stmt 0
	lw	s0,24(sp)
	.cfi_remember_state
	.cfi_restore 8
	lw	ra,28(sp)
	.cfi_restore 1
	lw	s1,20(sp)
	.cfi_restore 9
.LVL327:
	lw	s2,16(sp)
	.cfi_restore 18
	lw	s3,12(sp)
	.cfi_restore 19
	lw	s4,8(sp)
	.cfi_restore 20
	lw	s5,4(sp)
	.cfi_restore 21
	.loc 1 1183 4
	li	a0,1
	.loc 1 1194 1
	addi	sp,sp,32
	.cfi_def_cfa_offset 0
	.loc 1 1183 4
	tail	vEnvironmentCall
.LVL328:
.L341:
	.cfi_restore_state
	lui	s0,%hi(.LANCHOR9)
	addi	s4,s0,%lo(.LANCHOR9)
	addi	s5,s4,640
	addi	s0,s0,%lo(.LANCHOR9)
.L343:
.LBB237:
.LBB238:
	.loc 1 3723 3 is_stmt 1
	mv	a0,s0
	.loc 1 3721 2 is_stmt 0
	addi	s0,s0,20
	.loc 1 3723 3
	call	vListInitialise
.LVL329:
	.loc 1 3721 77 is_stmt 1
	.loc 1 3721 40
	.loc 1 3721 2 is_stmt 0
	bne	s5,s0,.L343
	.loc 1 3726 2 is_stmt 1
	lui	a5,%hi(.LANCHOR18)
	addi	a0,a5,%lo(.LANCHOR18)
	addi	s5,a5,%lo(.LANCHOR18)
	call	vListInitialise
.LVL330:
	.loc 1 3727 2
	lui	a5,%hi(.LANCHOR19)
	addi	a0,a5,%lo(.LANCHOR19)
	addi	s0,a5,%lo(.LANCHOR19)
	call	vListInitialise
.LVL331:
	.loc 1 3728 2
	lui	a0,%hi(.LANCHOR17)
	addi	a0,a0,%lo(.LANCHOR17)
	call	vListInitialise
.LVL332:
	.loc 1 3732 3
	lui	a0,%hi(.LANCHOR12)
	addi	a0,a0,%lo(.LANCHOR12)
	call	vListInitialise
.LVL333:
	.loc 1 3738 3
	lui	a0,%hi(.LANCHOR3)
	addi	a0,a0,%lo(.LANCHOR3)
	call	vListInitialise
.LVL334:
	.loc 1 3744 3
	lui	a0,%hi(.LANCHOR7)
	addi	a0,a0,%lo(.LANCHOR7)
	call	vListInitialise
.LVL335:
	.loc 1 3750 2
	.loc 1 3750 20 is_stmt 0
	lui	a4,%hi(.LANCHOR5)
	.loc 1 3751 28
	lui	a5,%hi(.LANCHOR4)
	.loc 1 3750 20
	sw	s5,%lo(.LANCHOR5)(a4)
	.loc 1 3751 2 is_stmt 1
.LBE238:
.LBE237:
	.loc 1 1171 54 is_stmt 0
	lw	a1,44(s1)
.LBB240:
.LBB239:
	.loc 1 3751 28
	sw	s0,%lo(.LANCHOR4)(a5)
	.loc 1 3752 1
	j	.L342
.LBE239:
.LBE240:
	.cfi_endproc
.LFE8:
	.size	prvAddNewTaskToReadyList, .-prvAddNewTaskToReadyList
	.section	.text.xTaskCreateStatic,"ax",@progbits
	.align	1
	.globl	xTaskCreateStatic
	.type	xTaskCreateStatic, @function
xTaskCreateStatic:
.LFB5:
	.loc 1 627 2 is_stmt 1
	.cfi_startproc
.LVL336:
	.loc 1 628 2
	.loc 1 629 2
	.loc 1 631 3
	.loc 1 627 2 is_stmt 0
	addi	sp,sp,-48
	.cfi_def_cfa_offset 48
	sw	s0,40(sp)
	sw	s1,36(sp)
	sw	s2,32(sp)
	sw	s3,28(sp)
	sw	s4,24(sp)
	sw	s5,20(sp)
	sw	s6,16(sp)
	sw	ra,44(sp)
	.cfi_offset 8, -8
	.cfi_offset 9, -12
	.cfi_offset 18, -16
	.cfi_offset 19, -20
	.cfi_offset 20, -24
	.cfi_offset 21, -28
	.cfi_offset 22, -32
	.cfi_offset 1, -4
	.loc 1 627 2
	mv	s1,a5
	mv	s2,a0
	mv	s3,a1
	mv	s4,a2
	mv	s5,a3
	mv	s6,a4
	mv	s0,a6
	.loc 1 631 5
	beq	a5,zero,.L378
.LVL337:
.L361:
	.loc 1 632 3 is_stmt 1
	.loc 1 632 5 is_stmt 0
	beq	s0,zero,.L379
.LBB241:
	.loc 1 639 4 is_stmt 1
	.loc 1 639 20 is_stmt 0
	li	a5,96
	sw	a5,12(sp)
	.loc 1 640 4 is_stmt 1
	.loc 1 640 37 is_stmt 0
	lw	a4,12(sp)
	.loc 1 640 6
	bne	a4,a5,.L380
	.loc 1 641 4 is_stmt 1
	lw	a5,12(sp)
.LBE241:
	.loc 1 646 3
	.loc 1 646 31 is_stmt 0
	beq	s1,zero,.L365
.L381:
	.loc 1 650 4 is_stmt 1
.LVL338:
	.loc 1 651 4
	.loc 1 657 37 is_stmt 0
	li	a0,2
	.loc 1 661 4
	mv	a6,s0
	addi	a5,sp,8
	mv	a4,s6
	mv	a3,s5
	mv	a2,s4
	mv	a1,s3
	.loc 1 657 37
	sb	a0,93(s0)
	.loc 1 651 22
	sw	s1,48(s0)
	.loc 1 657 5 is_stmt 1
	.loc 1 661 4
	mv	a0,s2
	call	prvInitialiseNewTask.constprop.0
.LVL339:
	.loc 1 662 4
	mv	a0,s0
	call	prvAddNewTaskToReadyList
.LVL340:
	.loc 1 669 10 is_stmt 0
	lw	a0,8(sp)
	.loc 1 662 4
	j	.L360
.LVL341:
.L379:
	.loc 1 632 11 is_stmt 1 discriminator 1
	li	a0,2
	call	vEnvironmentCall
.LVL342:
.LBB242:
	.loc 1 639 4 discriminator 1
	.loc 1 639 20 is_stmt 0 discriminator 1
	li	a5,96
	sw	a5,12(sp)
	.loc 1 640 4 is_stmt 1 discriminator 1
	.loc 1 640 37 is_stmt 0 discriminator 1
	lw	a4,12(sp)
	.loc 1 640 6 discriminator 1
	beq	a4,a5,.L377
	.loc 1 640 44 is_stmt 1
	li	a0,2
	call	vEnvironmentCall
.LVL343:
.L377:
	.loc 1 641 4
	lw	a5,12(sp)
.LBE242:
	.loc 1 646 3
.L365:
	.loc 1 666 4
.LVL344:
	.loc 1 627 2 is_stmt 0
	li	a0,0
	.loc 1 669 3 is_stmt 1
.LVL345:
.L360:
	.loc 1 670 2 is_stmt 0
	lw	ra,44(sp)
	.cfi_remember_state
	.cfi_restore 1
	lw	s0,40(sp)
	.cfi_restore 8
.LVL346:
	lw	s1,36(sp)
	.cfi_restore 9
.LVL347:
	lw	s2,32(sp)
	.cfi_restore 18
.LVL348:
	lw	s3,28(sp)
	.cfi_restore 19
.LVL349:
	lw	s4,24(sp)
	.cfi_restore 20
.LVL350:
	lw	s5,20(sp)
	.cfi_restore 21
.LVL351:
	lw	s6,16(sp)
	.cfi_restore 22
.LVL352:
	addi	sp,sp,48
	.cfi_def_cfa_offset 0
	jr	ra
.LVL353:
.L380:
	.cfi_restore_state
.LBB243:
	.loc 1 640 44 is_stmt 1
	li	a0,2
	call	vEnvironmentCall
.LVL354:
	.loc 1 641 4
	lw	a5,12(sp)
.LBE243:
	.loc 1 646 3
	.loc 1 646 31 is_stmt 0
	bne	s1,zero,.L381
	j	.L365
.LVL355:
.L378:
	.loc 1 631 11 is_stmt 1 discriminator 1
	li	a0,2
.LVL356:
	call	vEnvironmentCall
.LVL357:
	j	.L361
	.cfi_endproc
.LFE5:
	.size	xTaskCreateStatic, .-xTaskCreateStatic
	.section	.rodata.vTaskStartScheduler.str1.4,"aMS",@progbits,1
	.align	2
.LC0:
	.string	"IDLE"
	.section	.text.vTaskStartScheduler,"ax",@progbits
	.align	1
	.globl	vTaskStartScheduler
	.type	vTaskStartScheduler, @function
vTaskStartScheduler:
.LFB20:
	.loc 1 2010 1
	.cfi_startproc
	.loc 1 2011 1
.LBB244:
	.loc 1 2016 3
.LBE244:
	.loc 1 2010 1 is_stmt 0
	addi	sp,sp,-32
	.cfi_def_cfa_offset 32
.LBB245:
	.loc 1 2022 3
	addi	a2,sp,12
	addi	a1,sp,8
	addi	a0,sp,4
.LBE245:
	.loc 1 2010 1
	sw	ra,28(sp)
	.cfi_offset 1, -4
.LBB246:
	.loc 1 2016 17
	sw	zero,4(sp)
	.loc 1 2017 3 is_stmt 1
	.loc 1 2017 16 is_stmt 0
	sw	zero,8(sp)
	.loc 1 2018 3 is_stmt 1
	.loc 1 2022 3
	call	vApplicationGetIdleTaskMemory
.LVL358:
	.loc 1 2023 3
	.loc 1 2023 21 is_stmt 0
	lw	a6,4(sp)
	lw	a5,8(sp)
	lw	a2,12(sp)
	lui	a1,%hi(.LC0)
	lui	a0,%hi(prvIdleTask)
	li	a4,0
	li	a3,0
	addi	a1,a1,%lo(.LC0)
	addi	a0,a0,%lo(prvIdleTask)
	call	xTaskCreateStatic
.LVL359:
	.loc 1 2031 3 is_stmt 1
	.loc 1 2031 5 is_stmt 0
	beq	a0,zero,.L382
.LVL360:
.LBE246:
	.loc 1 2054 3 is_stmt 1
	.loc 1 2056 4
	.loc 1 2056 14 is_stmt 0
	call	xTimerCreateTimerTask
.LVL361:
	.loc 1 2060 4 is_stmt 1
	.loc 1 2065 2
	.loc 1 2065 4 is_stmt 0
	li	a5,1
	bne	a0,a5,.L390
	.loc 1 2081 3 is_stmt 1
 #APP
# 2081 "/mnt/d/GitHub/bl_iot_sdk_for_aithinker/components/platform/soc/bl602/freertos_riscv_ram/tasks.c" 1
	csrc mstatus, 8
# 0 "" 2
	.loc 1 2091 3
	.loc 1 2091 24 is_stmt 0
 #NO_APP
	lui	a5,%hi(.LANCHOR6)
	li	a3,-1
	sw	a3,%lo(.LANCHOR6)(a5)
	.loc 1 2092 3 is_stmt 1
	.loc 1 2092 21 is_stmt 0
	lui	a4,%hi(.LANCHOR11)
	.loc 1 2128 1
	lw	ra,28(sp)
	.cfi_remember_state
	.cfi_restore 1
	.loc 1 2092 21
	sw	a0,%lo(.LANCHOR11)(a4)
	.loc 1 2093 3 is_stmt 1
	.loc 1 2093 14 is_stmt 0
	lui	a5,%hi(.LANCHOR0)
	sw	zero,%lo(.LANCHOR0)(a5)
	.loc 1 2101 3 is_stmt 1
	.loc 1 2103 3
	.loc 1 2107 3
	.loc 1 2128 1 is_stmt 0
	addi	sp,sp,32
	.cfi_def_cfa_offset 0
	.loc 1 2107 7
	tail	xPortStartScheduler
.LVL362:
.L390:
	.cfi_restore_state
	.loc 1 2122 3 is_stmt 1
	.loc 1 2122 5 is_stmt 0
	li	a5,-1
	beq	a0,a5,.L392
.LVL363:
.L382:
	.loc 1 2128 1
	lw	ra,28(sp)
	.cfi_remember_state
	.cfi_restore 1
	addi	sp,sp,32
	.cfi_def_cfa_offset 0
	jr	ra
.LVL364:
.L392:
	.cfi_restore_state
	.loc 1 2122 36 is_stmt 1 discriminator 1
	.loc 1 2128 1 is_stmt 0 discriminator 1
	lw	ra,28(sp)
	.cfi_restore 1
	.loc 1 2122 36 discriminator 1
	li	a0,2
.LVL365:
	.loc 1 2128 1 discriminator 1
	addi	sp,sp,32
	.cfi_def_cfa_offset 0
	.loc 1 2122 36 discriminator 1
	tail	vEnvironmentCall
.LVL366:
	.cfi_endproc
.LFE20:
	.size	vTaskStartScheduler, .-vTaskStartScheduler
	.section	.text.xTaskCreate,"ax",@progbits
	.align	1
	.globl	xTaskCreate
	.type	xTaskCreate, @function
xTaskCreate:
.LFB6:
	.loc 1 778 2 is_stmt 1
	.cfi_startproc
.LVL367:
	.loc 1 779 2
	.loc 1 780 2
.LBB247:
	.loc 1 809 3
	.loc 1 812 4
.LBE247:
	.loc 1 778 2 is_stmt 0
	addi	sp,sp,-48
	.cfi_def_cfa_offset 48
	sw	s3,28(sp)
	.cfi_offset 19, -20
	mv	s3,a0
.LBB248:
	.loc 1 812 14
	slli	a0,a2,2
.LVL368:
.LBE248:
	.loc 1 778 2
	sw	s1,36(sp)
	sw	s4,24(sp)
	sw	s5,20(sp)
	sw	s6,16(sp)
	sw	s7,12(sp)
	sw	ra,44(sp)
	sw	s0,40(sp)
	sw	s2,32(sp)
	.cfi_offset 9, -12
	.cfi_offset 20, -24
	.cfi_offset 21, -28
	.cfi_offset 22, -32
	.cfi_offset 23, -36
	.cfi_offset 1, -4
	.cfi_offset 8, -8
	.cfi_offset 18, -16
	.loc 1 778 2
	mv	s1,a2
	mv	s4,a1
	mv	s5,a3
	mv	s6,a4
	mv	s7,a5
.LBB249:
	.loc 1 812 14
	call	pvPortMalloc
.LVL369:
	.loc 1 814 4 is_stmt 1
	.loc 1 814 6 is_stmt 0
	beq	a0,zero,.L396
	mv	s0,a0
	.loc 1 817 5 is_stmt 1
	.loc 1 817 28 is_stmt 0
	li	a0,96
.LVL370:
	call	pvPortMalloc
.LVL371:
	mv	s2,a0
.LVL372:
	.loc 1 819 5 is_stmt 1
	.loc 1 819 7 is_stmt 0
	beq	a0,zero,.L395
	.loc 1 822 6 is_stmt 1
.LBE249:
	.loc 1 848 4 is_stmt 0
	mv	a6,a0
	mv	a5,s7
	mv	a4,s6
	mv	a3,s5
	mv	a2,s1
	mv	a1,s4
.LBB250:
	.loc 1 822 24
	sw	s0,48(a0)
.LBE250:
	.loc 1 838 3 is_stmt 1
	.loc 1 844 5
	.loc 1 844 37 is_stmt 0
	sb	zero,93(a0)
	.loc 1 848 4 is_stmt 1
	mv	a0,s3
.LVL373:
	call	prvInitialiseNewTask.constprop.0
.LVL374:
	.loc 1 849 4
	mv	a0,s2
	call	prvAddNewTaskToReadyList
.LVL375:
	.loc 1 850 4
	.loc 1 850 12 is_stmt 0
	li	a0,1
.LVL376:
.L393:
	.loc 1 858 2
	lw	ra,44(sp)
	.cfi_remember_state
	.cfi_restore 1
	lw	s0,40(sp)
	.cfi_restore 8
	lw	s1,36(sp)
	.cfi_restore 9
	lw	s2,32(sp)
	.cfi_restore 18
	lw	s3,28(sp)
	.cfi_restore 19
.LVL377:
	lw	s4,24(sp)
	.cfi_restore 20
.LVL378:
	lw	s5,20(sp)
	.cfi_restore 21
.LVL379:
	lw	s6,16(sp)
	.cfi_restore 22
.LVL380:
	lw	s7,12(sp)
	.cfi_restore 23
.LVL381:
	addi	sp,sp,48
	.cfi_def_cfa_offset 0
	jr	ra
.LVL382:
.L396:
	.cfi_restore_state
	.loc 1 854 12
	li	a0,-1
.LVL383:
	.loc 1 857 3 is_stmt 1
	.loc 1 857 10 is_stmt 0
	j	.L393
.LVL384:
.L395:
.LBB251:
	.loc 1 828 6 is_stmt 1
	mv	a0,s0
.LVL385:
	call	vPortFree
.LVL386:
.LBE251:
	.loc 1 838 3
	.loc 1 854 12 is_stmt 0
	li	a0,-1
	j	.L393
	.cfi_endproc
.LFE6:
	.size	xTaskCreate, .-xTaskCreate
	.section	.text.vTaskDelete,"ax",@progbits
	.align	1
	.globl	vTaskDelete
	.type	vTaskDelete, @function
vTaskDelete:
.LFB9:
	.loc 1 1200 2 is_stmt 1
	.cfi_startproc
.LVL387:
	.loc 1 1201 2
	.loc 1 1203 3
.LBB264:
.LBB265:
	.loc 1 4431 3
.LBE265:
.LBE264:
	.loc 1 1200 2 is_stmt 0
	addi	sp,sp,-32
	.cfi_def_cfa_offset 32
	sw	s0,24(sp)
	sw	ra,28(sp)
	sw	s1,20(sp)
	sw	s2,16(sp)
	sw	s3,12(sp)
	.cfi_offset 8, -8
	.cfi_offset 1, -4
	.cfi_offset 9, -12
	.cfi_offset 18, -16
	.cfi_offset 19, -20
	.loc 1 1200 2
	mv	s0,a0
.LBB271:
.LBB270:
	.loc 1 4431 3
 #APP
# 4431 "/mnt/d/GitHub/bl_iot_sdk_for_aithinker/components/platform/soc/bl602/freertos_riscv_ram/tasks.c" 1
	csrc mstatus, 8
# 0 "" 2
	.loc 1 4433 3 is_stmt 1
	.loc 1 4433 25 is_stmt 0
 #NO_APP
	lui	s2,%hi(.LANCHOR11)
	addi	s2,s2,%lo(.LANCHOR11)
	lw	a5,0(s2)
.LBB266:
.LBB267:
	.loc 1 4435 18
	lui	s1,%hi(.LANCHOR1)
	addi	s1,s1,%lo(.LANCHOR1)
.LBE267:
.LBE266:
	.loc 1 4433 5
	beq	a5,zero,.L399
.LBB269:
.LBB268:
	.loc 1 4435 4 is_stmt 1
	.loc 1 4435 18 is_stmt 0
	lw	a4,0(s1)
	.loc 1 4443 20
	lw	a5,0(s1)
	.loc 1 4435 39
	lw	a5,68(a4)
	addi	a5,a5,1
	sw	a5,68(a4)
	.loc 1 4443 4 is_stmt 1
	.loc 1 4445 5
	.loc 1 4450 4
.L399:
.LBE268:
.LBE269:
	.loc 1 4450 4
.LBE270:
.LBE271:
	.loc 1 1207 4
	.loc 1 1207 28 is_stmt 0
	beq	s0,zero,.L424
.LVL388:
.L400:
	.loc 1 1210 4 is_stmt 1 discriminator 4
	.loc 1 1210 8 is_stmt 0 discriminator 4
	addi	s3,s0,4
	mv	a0,s3
	call	uxListRemove
.LVL389:
	.loc 1 1210 6 discriminator 4
	bne	a0,zero,.L401
	.loc 1 1212 7 is_stmt 1
	.loc 1 1212 44 is_stmt 0
	lw	a3,44(s0)
	.loc 1 1212 64
	slli	a5,a3,2
	add	a5,a5,a3
	slli	a4,a5,2
	lui	a5,%hi(.LANCHOR9)
	addi	a5,a5,%lo(.LANCHOR9)
	add	a5,a5,a4
	lw	a5,0(a5)
	.loc 1 1212 9
	beq	a5,zero,.L425
.L401:
	.loc 1 1216 5 is_stmt 1
	.loc 1 1220 4
	.loc 1 1220 6 is_stmt 0
	lw	a5,40(s0)
	beq	a5,zero,.L402
	.loc 1 1222 5 is_stmt 1
	.loc 1 1222 14 is_stmt 0
	addi	a0,s0,24
	call	uxListRemove
.LVL390:
.L402:
	.loc 1 1226 5 is_stmt 1
	.loc 1 1233 4
	.loc 1 1233 16 is_stmt 0
	lui	a5,%hi(.LANCHOR20)
	addi	a5,a5,%lo(.LANCHOR20)
	lw	a4,0(a5)
	.loc 1 1235 14
	lw	a3,0(s1)
	.loc 1 1233 16
	addi	a4,a4,1
	sw	a4,0(a5)
	.loc 1 1235 4 is_stmt 1
	.loc 1 1235 6 is_stmt 0
	beq	a3,s0,.L426
	.loc 1 1258 5 is_stmt 1
	lui	a5,%hi(.LANCHOR13)
	addi	a5,a5,%lo(.LANCHOR13)
	lw	a4,0(a5)
.LBB272:
.LBB273:
	.loc 1 4062 13 is_stmt 0
	lbu	a3,93(s0)
.LBE273:
.LBE272:
	.loc 1 1258 5
	addi	a4,a4,-1
	sw	a4,0(a5)
	.loc 1 1259 5 is_stmt 1
.LVL391:
.LBB279:
.LBB276:
	.loc 1 4040 3
	.loc 1 4062 4
	.loc 1 4062 6 is_stmt 0
	beq	a3,zero,.L427
	.loc 1 4069 9 is_stmt 1
	.loc 1 4069 11 is_stmt 0
	li	a5,1
	beq	a3,a5,.L428
	.loc 1 4079 5 is_stmt 1
	.loc 1 4079 7 is_stmt 0
	li	a5,2
	beq	a3,a5,.L406
	.loc 1 4079 70 is_stmt 1
	li	a0,2
	call	vEnvironmentCall
.LVL392:
	.loc 1 4080 5
.LBE276:
.LBE279:
	.loc 1 1263 5
.LBB280:
.LBB281:
	.loc 1 4091 1
	.loc 1 4093 2
	.loc 1 4093 31 is_stmt 0
	lui	a5,%hi(.LANCHOR5)
	addi	a5,a5,%lo(.LANCHOR5)
	lw	a4,0(a5)
	lw	a4,0(a4)
	.loc 1 4093 4
	beq	a4,zero,.L429
.L408:
.LBB282:
.LBB283:
	.loc 1 4107 3 is_stmt 1
	.loc 1 4107 42 is_stmt 0
	lw	a4,0(a5)
.LVL393:
	.loc 1 4108 3 is_stmt 1
	.loc 1 4108 24 is_stmt 0
	lui	a5,%hi(.LANCHOR6)
	.loc 1 4107 13
	lw	a4,12(a4)
.LVL394:
	.loc 1 4108 62
	lw	a4,12(a4)
.LVL395:
	lw	a4,4(a4)
.LVL396:
	.loc 1 4108 24
	sw	a4,%lo(.LANCHOR6)(a5)
	.loc 1 4110 1
	j	.L404
.L425:
.LBE283:
.LBE282:
.LBE281:
.LBE280:
	.loc 1 1212 109 is_stmt 1 discriminator 1
	.loc 1 1212 136 is_stmt 0 discriminator 1
	lui	a4,%hi(.LANCHOR2)
	addi	a4,a4,%lo(.LANCHOR2)
	lw	a2,0(a4)
	.loc 1 1212 146 discriminator 1
	li	a5,1
	sll	a5,a5,a3
	.loc 1 1212 139 discriminator 1
	not	a5,a5
	.loc 1 1212 136 discriminator 1
	and	a5,a5,a2
	sw	a5,0(a4)
	j	.L401
.LVL397:
.L427:
.LBB285:
.LBB277:
.LBB274:
.LBB275:
	.loc 1 4066 5 is_stmt 1
	lw	a0,48(s0)
	call	vPortFree
.LVL398:
	.loc 1 4067 5
	mv	a0,s0
	call	vPortFree
.LVL399:
	.loc 1 4080 5
.L406:
.LBE275:
.LBE274:
	.loc 1 4080 5
.LBE277:
.LBE285:
	.loc 1 1263 5
.LBB286:
.LBB284:
	.loc 1 4091 1
	.loc 1 4093 2
	.loc 1 4093 31 is_stmt 0
	lui	a5,%hi(.LANCHOR5)
	addi	a5,a5,%lo(.LANCHOR5)
	lw	a4,0(a5)
	lw	a4,0(a4)
	.loc 1 4093 4
	bne	a4,zero,.L408
.L429:
	.loc 1 4099 3 is_stmt 1
	.loc 1 4099 24 is_stmt 0
	lui	a5,%hi(.LANCHOR6)
	li	a4,-1
	sw	a4,%lo(.LANCHOR6)(a5)
.L404:
.LBE284:
.LBE286:
	.loc 1 1266 4 is_stmt 1
	.loc 1 1268 3
	call	vTaskExitCritical
.LVL400:
	.loc 1 1272 3
	.loc 1 1272 25 is_stmt 0
	lw	a5,0(s2)
	.loc 1 1272 5
	beq	a5,zero,.L398
	.loc 1 1274 4 is_stmt 1
	.loc 1 1274 14 is_stmt 0
	lw	a5,0(s1)
	.loc 1 1274 6
	beq	a5,s0,.L430
.L398:
	.loc 1 1284 2
	lw	ra,28(sp)
	.cfi_remember_state
	.cfi_restore 1
	lw	s0,24(sp)
	.cfi_restore 8
.LVL401:
	lw	s1,20(sp)
	.cfi_restore 9
	lw	s2,16(sp)
	.cfi_restore 18
	lw	s3,12(sp)
	.cfi_restore 19
.LVL402:
	addi	sp,sp,32
	.cfi_def_cfa_offset 0
	jr	ra
.LVL403:
.L426:
	.cfi_restore_state
	.loc 1 1242 5 is_stmt 1
	lui	a0,%hi(.LANCHOR12)
	mv	a1,s3
	addi	a0,a0,%lo(.LANCHOR12)
	call	vListInsertEnd
.LVL404:
	.loc 1 1247 5
	lui	a5,%hi(.LANCHOR10)
	addi	a5,a5,%lo(.LANCHOR10)
	lw	a4,0(a5)
	addi	a4,a4,1
	sw	a4,0(a5)
	.loc 1 1254 5
	j	.L404
.LVL405:
.L424:
	.loc 1 1207 28 is_stmt 0 discriminator 1
	lw	s0,0(s1)
.LVL406:
	j	.L400
.LVL407:
.L430:
	.loc 1 1276 5 is_stmt 1
	.loc 1 1276 39 is_stmt 0
	lui	a5,%hi(.LANCHOR14)
	lw	a5,%lo(.LANCHOR14)(a5)
	.loc 1 1276 7
	bne	a5,zero,.L431
.L410:
	.loc 1 1277 5 is_stmt 1
	.loc 1 1284 2 is_stmt 0
	lw	s0,24(sp)
	.cfi_remember_state
	.cfi_restore 8
.LVL408:
	lw	ra,28(sp)
	.cfi_restore 1
	lw	s1,20(sp)
	.cfi_restore 9
	lw	s2,16(sp)
	.cfi_restore 18
	lw	s3,12(sp)
	.cfi_restore 19
.LVL409:
	.loc 1 1277 5
	li	a0,1
	.loc 1 1284 2
	addi	sp,sp,32
	.cfi_def_cfa_offset 0
	.loc 1 1277 5
	tail	vEnvironmentCall
.LVL410:
.L428:
	.cfi_restore_state
.LBB287:
.LBB278:
	.loc 1 4073 5 is_stmt 1
	mv	a0,s0
	call	vPortFree
.LVL411:
	j	.L406
.LVL412:
.L431:
.LBE278:
.LBE287:
	.loc 1 1276 46 discriminator 1
	li	a0,2
	call	vEnvironmentCall
.LVL413:
	j	.L410
	.cfi_endproc
.LFE9:
	.size	vTaskDelete, .-vTaskDelete
	.section	.text.eTaskGetState,"ax",@progbits
	.align	1
	.globl	eTaskGetState
	.type	eTaskGetState, @function
eTaskGetState:
.LFB12:
	.loc 1 1421 2
	.cfi_startproc
.LVL414:
	.loc 1 1422 2
	.loc 1 1423 2
	.loc 1 1424 2
	.loc 1 1421 2 is_stmt 0
	addi	sp,sp,-32
	.cfi_def_cfa_offset 32
	sw	s1,20(sp)
	sw	ra,28(sp)
	sw	s0,24(sp)
	sw	s2,16(sp)
	sw	s3,12(sp)
	.cfi_offset 9, -12
	.cfi_offset 1, -4
	.cfi_offset 8, -8
	.cfi_offset 18, -16
	.cfi_offset 19, -20
	.loc 1 1421 2
	mv	s1,a0
.LVL415:
	.loc 1 1426 3 is_stmt 1
	.loc 1 1426 5 is_stmt 0
	beq	a0,zero,.L448
.LVL416:
.L433:
	.loc 1 1428 3 is_stmt 1
	.loc 1 1428 13 is_stmt 0
	lui	a5,%hi(.LANCHOR1)
	addi	a5,a5,%lo(.LANCHOR1)
	lw	a4,0(a5)
	.loc 1 1431 12
	li	a0,0
	.loc 1 1428 5
	beq	a4,s1,.L432
.LVL417:
.LBB294:
.LBB295:
	.loc 1 1435 4 is_stmt 1
.LBB296:
.LBB297:
	.loc 1 4431 3
 #APP
# 4431 "/mnt/d/GitHub/bl_iot_sdk_for_aithinker/components/platform/soc/bl602/freertos_riscv_ram/tasks.c" 1
	csrc mstatus, 8
# 0 "" 2
	.loc 1 4433 3
	.loc 1 4433 25 is_stmt 0
 #NO_APP
	lui	a4,%hi(.LANCHOR11)
	lw	a4,%lo(.LANCHOR11)(a4)
	.loc 1 4433 5
	beq	a4,zero,.L435
.LBB298:
.LBB299:
	.loc 1 4435 4 is_stmt 1
	.loc 1 4435 18 is_stmt 0
	lw	a4,0(a5)
	.loc 1 4443 20
	lw	a5,0(a5)
	.loc 1 4435 39
	lw	a5,68(a4)
	addi	a5,a5,1
	sw	a5,68(a4)
	.loc 1 4443 4 is_stmt 1
	.loc 1 4445 5
	.loc 1 4450 4
.L435:
.LBE299:
.LBE298:
	.loc 1 4450 4
.LBE297:
.LBE296:
	.loc 1 1437 5
	.loc 1 1438 19 is_stmt 0
	lui	a5,%hi(.LANCHOR5)
	lw	s2,%lo(.LANCHOR5)(a5)
	.loc 1 1437 17
	lw	s0,20(s1)
.LVL418:
	.loc 1 1438 5 is_stmt 1
	.loc 1 1439 5
	.loc 1 1439 29 is_stmt 0
	lui	a5,%hi(.LANCHOR4)
	lw	s3,%lo(.LANCHOR4)(a5)
.LVL419:
	.loc 1 1441 4 is_stmt 1
	call	vTaskExitCritical
.LVL420:
	.loc 1 1443 4
	.loc 1 1443 6 is_stmt 0
	beq	s0,s2,.L439
	.loc 1 1443 41
	beq	s0,s3,.L439
	.loc 1 1451 10 is_stmt 1
	.loc 1 1451 12 is_stmt 0
	lui	a5,%hi(.LANCHOR3)
	addi	a5,a5,%lo(.LANCHOR3)
	beq	s0,a5,.L449
	.loc 1 1487 10 is_stmt 1
	.loc 1 1487 12 is_stmt 0
	lui	a5,%hi(.LANCHOR12)
	addi	a5,a5,%lo(.LANCHOR12)
	beq	s0,a5,.L442
	.loc 1 1500 13
	seqz	a0,s0
	neg	a0,a0
	andi	a0,a0,3
	addi	a0,a0,1
.LVL421:
.L432:
.LBE295:
.LBE294:
	.loc 1 1505 2
	lw	ra,28(sp)
	.cfi_remember_state
	.cfi_restore 1
	lw	s0,24(sp)
	.cfi_restore 8
	lw	s1,20(sp)
	.cfi_restore 9
.LVL422:
	lw	s2,16(sp)
	.cfi_restore 18
	lw	s3,12(sp)
	.cfi_restore 19
	addi	sp,sp,32
	.cfi_def_cfa_offset 0
	jr	ra
.LVL423:
.L439:
	.cfi_restore_state
	lw	ra,28(sp)
	.cfi_remember_state
	.cfi_restore 1
	lw	s0,24(sp)
	.cfi_restore 8
.LVL424:
	lw	s1,20(sp)
	.cfi_restore 9
.LVL425:
	lw	s2,16(sp)
	.cfi_restore 18
.LVL426:
	lw	s3,12(sp)
	.cfi_restore 19
.LVL427:
.LBB302:
.LBB300:
	.loc 1 1447 13
	li	a0,2
.LBE300:
.LBE302:
	.loc 1 1505 2
	addi	sp,sp,32
	.cfi_def_cfa_offset 0
	jr	ra
.LVL428:
.L448:
	.cfi_restore_state
	.loc 1 1426 24 is_stmt 1 discriminator 1
	li	a0,2
	call	vEnvironmentCall
.LVL429:
	j	.L433
.LVL430:
.L449:
.LBB303:
.LBB301:
	.loc 1 1456 6
	.loc 1 1456 8 is_stmt 0
	lw	a5,40(s1)
	.loc 1 1447 13
	li	a0,2
	.loc 1 1456 8
	bne	a5,zero,.L432
	.loc 1 1464 8 is_stmt 1
	.loc 1 1464 17 is_stmt 0
	lbu	a0,92(s1)
	andi	a0,a0,0xff
	.loc 1 1470 17
	addi	a0,a0,-1
	snez	a0,a0
	addi	a0,a0,2
	j	.L432
.L442:
	.loc 1 1492 14
	li	a0,4
	j	.L432
.LBE301:
.LBE303:
	.cfi_endproc
.LFE12:
	.size	eTaskGetState, .-eTaskGetState
	.section	.text.vTaskPrioritySet,"ax",@progbits
	.align	1
	.globl	vTaskPrioritySet
	.type	vTaskPrioritySet, @function
vTaskPrioritySet:
.LFB15:
	.loc 1 1575 2 is_stmt 1
	.cfi_startproc
.LVL431:
	.loc 1 1576 2
	.loc 1 1577 2
	.loc 1 1578 2
	.loc 1 1580 3
	.loc 1 1575 2 is_stmt 0
	addi	sp,sp,-48
	.cfi_def_cfa_offset 48
	sw	s1,36(sp)
	sw	ra,44(sp)
	sw	s0,40(sp)
	sw	s2,32(sp)
	sw	s3,28(sp)
	sw	s4,24(sp)
	.cfi_offset 9, -12
	.cfi_offset 1, -4
	.cfi_offset 8, -8
	.cfi_offset 18, -16
	.cfi_offset 19, -20
	.cfi_offset 20, -24
	.loc 1 1580 5
	li	a5,31
	.loc 1 1575 2
	mv	s1,a0
	.loc 1 1580 5
	bgtu	a1,a5,.L474
.LVL432:
.L451:
	.loc 1 1583 3 is_stmt 1
	li	a5,31
	bleu	a1,a5,.L452
	li	a1,31
.L452:
.LVL433:
	.loc 1 1589 4
	.loc 1 1592 3
.LBB308:
.LBB309:
	.loc 1 4431 3
 #APP
# 4431 "/mnt/d/GitHub/bl_iot_sdk_for_aithinker/components/platform/soc/bl602/freertos_riscv_ram/tasks.c" 1
	csrc mstatus, 8
# 0 "" 2
	.loc 1 4433 3
	.loc 1 4433 25 is_stmt 0
 #NO_APP
	lui	a5,%hi(.LANCHOR11)
	lw	a5,%lo(.LANCHOR11)(a5)
	.loc 1 4433 5
	beq	a5,zero,.L453
.LBB310:
.LBB311:
	.loc 1 4435 4 is_stmt 1
	.loc 1 4435 18 is_stmt 0
	lui	a5,%hi(.LANCHOR1)
	addi	a5,a5,%lo(.LANCHOR1)
	lw	a4,0(a5)
	.loc 1 4443 20
	lw	a5,0(a5)
	.loc 1 4435 39
	lw	a5,68(a4)
	addi	a5,a5,1
	sw	a5,68(a4)
	.loc 1 4443 4 is_stmt 1
	.loc 1 4445 5
	.loc 1 4450 4
.L453:
.LBE311:
.LBE310:
	.loc 1 4450 4
.LBE309:
.LBE308:
	.loc 1 1596 4
	.loc 1 1596 28 is_stmt 0
	beq	s1,zero,.L475
.LVL434:
.L454:
	.loc 1 1598 4 is_stmt 1 discriminator 4
	.loc 1 1602 5 discriminator 4
	.loc 1 1602 27 is_stmt 0 discriminator 4
	lw	a5,80(s1)
.LVL435:
	.loc 1 1610 4 is_stmt 1 discriminator 4
	.loc 1 1610 6 is_stmt 0 discriminator 4
	beq	a1,a5,.L456
	.loc 1 1614 5 is_stmt 1
	.loc 1 1616 16 is_stmt 0
	lui	a4,%hi(.LANCHOR1)
	.loc 1 1614 7
	bgtu	a1,a5,.L476
	.loc 1 1637 10 is_stmt 1
	.loc 1 1637 20 is_stmt 0
	lw	s0,%lo(.LANCHOR1)(a4)
	.loc 1 1637 12
	sub	s0,s0,s1
	seqz	s0,s0
.L458:
.LVL436:
	.loc 1 1649 5 is_stmt 1
	.loc 1 1654 5
	.loc 1 1654 27 is_stmt 0
	lw	s3,44(s1)
.LVL437:
	.loc 1 1660 6 is_stmt 1
	.loc 1 1660 8 is_stmt 0
	bne	a5,s3,.L459
	.loc 1 1662 7 is_stmt 1
	.loc 1 1662 25 is_stmt 0
	sw	a1,44(s1)
.L459:
	.loc 1 1666 7 is_stmt 1
	.loc 1 1670 6
	.loc 1 1680 7 is_stmt 0
	lw	a5,24(s1)
.LVL438:
	.loc 1 1670 28
	sw	a1,80(s1)
.LVL439:
	.loc 1 1680 5 is_stmt 1
	.loc 1 1680 7 is_stmt 0
	blt	a5,zero,.L460
	.loc 1 1682 6 is_stmt 1
	.loc 1 1682 79 is_stmt 0
	li	a5,32
	sub	a1,a5,a1
.LVL440:
	.loc 1 1682 51
	sw	a1,24(s1)
.L460:
	.loc 1 1686 6 is_stmt 1
	.loc 1 1693 5
	.loc 1 1693 62 is_stmt 0
	slli	a5,s3,2
	add	a5,a5,s3
	lui	s2,%hi(.LANCHOR9)
	.loc 1 1693 7
	lw	a4,20(s1)
	.loc 1 1693 62
	addi	s2,s2,%lo(.LANCHOR9)
	slli	a5,a5,2
	add	a5,s2,a5
	.loc 1 1693 7
	beq	a4,a5,.L477
.LVL441:
.L461:
	.loc 1 1713 6 is_stmt 1
	.loc 1 1716 5
	.loc 1 1716 7 is_stmt 0
	beq	s0,zero,.L456
	.loc 1 1718 6 is_stmt 1
	li	a0,1
	call	vEnvironmentCall
.LVL442:
.L456:
	.loc 1 1722 6
	.loc 1 1727 5
	.loc 1 1730 3
	.loc 1 1731 2 is_stmt 0
	lw	s0,40(sp)
	.cfi_remember_state
	.cfi_restore 8
	lw	ra,44(sp)
	.cfi_restore 1
	lw	s1,36(sp)
	.cfi_restore 9
.LVL443:
	lw	s2,32(sp)
	.cfi_restore 18
	lw	s3,28(sp)
	.cfi_restore 19
	lw	s4,24(sp)
	.cfi_restore 20
	addi	sp,sp,48
	.cfi_def_cfa_offset 0
	.loc 1 1730 3
	tail	vTaskExitCritical
.LVL444:
.L476:
	.cfi_restore_state
	.loc 1 1616 6 is_stmt 1
	.loc 1 1616 16 is_stmt 0
	addi	a4,a4,%lo(.LANCHOR1)
	lw	a3,0(a4)
	.loc 1 1578 13
	li	s0,0
	.loc 1 1616 8
	beq	a3,s1,.L458
	.loc 1 1621 7 is_stmt 1
	.loc 1 1621 40 is_stmt 0
	lw	a4,0(a4)
	.loc 1 1621 9
	lw	s0,44(a4)
	sgtu	s0,s0,a1
	xori	s0,s0,1
	j	.L458
.LVL445:
.L474:
	.loc 1 1580 45 discriminator 1
	li	a0,2
	sw	a1,12(sp)
	.loc 1 1580 45 is_stmt 1 discriminator 1
	call	vEnvironmentCall
.LVL446:
	lw	a1,12(sp)
	j	.L451
.LVL447:
.L475:
	.loc 1 1596 28 is_stmt 0 discriminator 1
	lui	a5,%hi(.LANCHOR1)
	lw	s1,%lo(.LANCHOR1)(a5)
.LVL448:
	j	.L454
.LVL449:
.L477:
	.loc 1 1698 6 is_stmt 1
	.loc 1 1698 10 is_stmt 0
	addi	s4,s1,4
	mv	a0,s4
	call	uxListRemove
.LVL450:
	.loc 1 1703 30
	lui	a4,%hi(.LANCHOR2)
	addi	a4,a4,%lo(.LANCHOR2)
	.loc 1 1698 8
	bne	a0,zero,.L462
	.loc 1 1703 7 is_stmt 1
	.loc 1 1703 30 is_stmt 0
	lw	a3,0(a4)
	.loc 1 1703 40
	li	a5,1
	sll	a5,a5,s3
	.loc 1 1703 33
	not	a5,a5
	.loc 1 1703 30
	and	a5,a5,a3
	sw	a5,0(a4)
.L462:
	.loc 1 1707 7 is_stmt 1
	.loc 1 1709 6
	.loc 1 1709 8
	.loc 1 1709 54 is_stmt 0
	lw	a3,44(s1)
	.loc 1 1709 31
	lw	a2,0(a4)
	.loc 1 1709 40
	li	a5,1
	.loc 1 1709 72
	slli	a0,a3,2
	add	a0,a0,a3
	.loc 1 1709 40
	sll	a5,a5,a3
	.loc 1 1709 72
	slli	a0,a0,2
	.loc 1 1709 31
	or	a5,a5,a2
	.loc 1 1709 72
	mv	a1,s4
	add	a0,s2,a0
	.loc 1 1709 31
	sw	a5,0(a4)
	.loc 1 1709 72 is_stmt 1
	call	vListInsertEnd
.LVL451:
	.loc 1 1709 171
	j	.L461
	.cfi_endproc
.LFE15:
	.size	vTaskPrioritySet, .-vTaskPrioritySet
	.section	.text.vTaskSuspend,"ax",@progbits
	.align	1
	.globl	vTaskSuspend
	.type	vTaskSuspend, @function
vTaskSuspend:
.LFB16:
	.loc 1 1739 2
	.cfi_startproc
.LVL452:
	.loc 1 1740 2
	.loc 1 1742 3
.LBB326:
.LBB327:
	.loc 1 4431 3
.LBE327:
.LBE326:
	.loc 1 1739 2 is_stmt 0
	addi	sp,sp,-32
	.cfi_def_cfa_offset 32
	sw	s0,24(sp)
	sw	ra,28(sp)
	sw	s1,20(sp)
	sw	s2,16(sp)
	sw	s3,12(sp)
	sw	s4,8(sp)
	.cfi_offset 8, -8
	.cfi_offset 1, -4
	.cfi_offset 9, -12
	.cfi_offset 18, -16
	.cfi_offset 19, -20
	.cfi_offset 20, -24
	.loc 1 1739 2
	mv	s0,a0
.LBB333:
.LBB332:
	.loc 1 4431 3
 #APP
# 4431 "/mnt/d/GitHub/bl_iot_sdk_for_aithinker/components/platform/soc/bl602/freertos_riscv_ram/tasks.c" 1
	csrc mstatus, 8
# 0 "" 2
	.loc 1 4433 3 is_stmt 1
	.loc 1 4433 25 is_stmt 0
 #NO_APP
	lui	s2,%hi(.LANCHOR11)
	addi	s2,s2,%lo(.LANCHOR11)
	lw	a5,0(s2)
.LBB328:
.LBB329:
	.loc 1 4435 18
	lui	s1,%hi(.LANCHOR1)
	addi	s1,s1,%lo(.LANCHOR1)
.LBE329:
.LBE328:
	.loc 1 4433 5
	beq	a5,zero,.L479
.LBB331:
.LBB330:
	.loc 1 4435 4 is_stmt 1
	.loc 1 4435 18 is_stmt 0
	lw	a4,0(s1)
	.loc 1 4443 20
	lw	a5,0(s1)
	.loc 1 4435 39
	lw	a5,68(a4)
	addi	a5,a5,1
	sw	a5,68(a4)
	.loc 1 4443 4 is_stmt 1
	.loc 1 4445 5
	.loc 1 4450 4
.L479:
.LBE330:
.LBE331:
	.loc 1 4450 4
.LBE332:
.LBE333:
	.loc 1 1746 4
	.loc 1 1746 28 is_stmt 0
	beq	s0,zero,.L509
.LVL453:
.L480:
	.loc 1 1748 4 is_stmt 1 discriminator 4
	.loc 1 1752 4 discriminator 4
	.loc 1 1752 8 is_stmt 0 discriminator 4
	addi	s3,s0,4
	mv	a0,s3
	call	uxListRemove
.LVL454:
	.loc 1 1752 6 discriminator 4
	bne	a0,zero,.L481
	.loc 1 1754 7 is_stmt 1
	.loc 1 1754 44 is_stmt 0
	lw	a3,44(s0)
	.loc 1 1754 64
	slli	a5,a3,2
	add	a5,a5,a3
	slli	a4,a5,2
	lui	a5,%hi(.LANCHOR9)
	addi	a5,a5,%lo(.LANCHOR9)
	add	a5,a5,a4
	lw	a5,0(a5)
	.loc 1 1754 9
	beq	a5,zero,.L510
.L481:
	.loc 1 1758 5 is_stmt 1
	.loc 1 1762 4
	.loc 1 1762 6 is_stmt 0
	lw	a5,40(s0)
	beq	a5,zero,.L482
	.loc 1 1764 5 is_stmt 1
	.loc 1 1764 14 is_stmt 0
	addi	a0,s0,24
	call	uxListRemove
.LVL455:
.L482:
	.loc 1 1768 5 is_stmt 1
	.loc 1 1771 4
	lui	s4,%hi(.LANCHOR3)
	mv	a1,s3
	addi	a0,s4,%lo(.LANCHOR3)
	call	vListInsertEnd
.LVL456:
	.loc 1 1775 5
	.loc 1 1775 14 is_stmt 0
	lbu	a5,92(s0)
	.loc 1 1775 7
	li	a4,1
	.loc 1 1775 14
	andi	a5,a5,0xff
	.loc 1 1775 7
	bne	a5,a4,.L483
	.loc 1 1779 6 is_stmt 1
	.loc 1 1779 27 is_stmt 0
	sb	zero,92(s0)
.L483:
	.loc 1 1784 3 is_stmt 1
	call	vTaskExitCritical
.LVL457:
	.loc 1 1786 3
	.loc 1 1786 25 is_stmt 0
	lw	a5,0(s2)
	.loc 1 1786 5
	bne	a5,zero,.L511
	.loc 1 1798 4 is_stmt 1
	.loc 1 1801 3
	.loc 1 1801 13 is_stmt 0
	lw	a5,0(s1)
	.loc 1 1801 5
	beq	a5,s0,.L512
.L478:
	.loc 1 1832 2
	lw	ra,28(sp)
	.cfi_remember_state
	.cfi_restore 1
	lw	s0,24(sp)
	.cfi_restore 8
.LVL458:
	lw	s1,20(sp)
	.cfi_restore 9
	lw	s2,16(sp)
	.cfi_restore 18
	lw	s3,12(sp)
	.cfi_restore 19
.LVL459:
	lw	s4,8(sp)
	.cfi_restore 20
	addi	sp,sp,32
	.cfi_def_cfa_offset 0
	jr	ra
.LVL460:
.L510:
	.cfi_restore_state
	.loc 1 1754 109 is_stmt 1 discriminator 1
	.loc 1 1754 136 is_stmt 0 discriminator 1
	lui	a4,%hi(.LANCHOR2)
	addi	a4,a4,%lo(.LANCHOR2)
	lw	a2,0(a4)
	.loc 1 1754 146 discriminator 1
	li	a5,1
	sll	a5,a5,a3
	.loc 1 1754 139 discriminator 1
	not	a5,a5
	.loc 1 1754 136 discriminator 1
	and	a5,a5,a2
	sw	a5,0(a4)
	j	.L481
.L511:
	.loc 1 1790 4 is_stmt 1
.LBB334:
.LBB335:
	.loc 1 4431 3
 #APP
# 4431 "/mnt/d/GitHub/bl_iot_sdk_for_aithinker/components/platform/soc/bl602/freertos_riscv_ram/tasks.c" 1
	csrc mstatus, 8
# 0 "" 2
	.loc 1 4433 3
	.loc 1 4433 25 is_stmt 0
 #NO_APP
	lw	a5,0(s2)
	.loc 1 4433 5
	beq	a5,zero,.L485
.LBB336:
.LBB337:
	.loc 1 4435 4 is_stmt 1
	.loc 1 4435 18 is_stmt 0
	lw	a4,0(s1)
	.loc 1 4443 20
	lw	a5,0(s1)
	.loc 1 4435 39
	lw	a5,68(a4)
	addi	a5,a5,1
	sw	a5,68(a4)
	.loc 1 4443 4 is_stmt 1
	.loc 1 4445 5
	.loc 1 4450 4
.L485:
.LBE337:
.LBE336:
	.loc 1 4450 4
.LBE335:
.LBE334:
	.loc 1 1792 5
.LBB338:
.LBB339:
	.loc 1 4091 1
	.loc 1 4093 2
	.loc 1 4093 31 is_stmt 0
	lui	a5,%hi(.LANCHOR5)
	addi	a5,a5,%lo(.LANCHOR5)
	lw	a4,0(a5)
	lw	a4,0(a4)
	.loc 1 4093 4
	beq	a4,zero,.L513
.LBB340:
.LBB341:
	.loc 1 4107 3 is_stmt 1
	.loc 1 4107 42 is_stmt 0
	lw	a4,0(a5)
.LVL461:
	.loc 1 4108 3 is_stmt 1
	.loc 1 4108 24 is_stmt 0
	lui	a5,%hi(.LANCHOR6)
	.loc 1 4107 13
	lw	a4,12(a4)
.LVL462:
	.loc 1 4108 62
	lw	a4,12(a4)
.LVL463:
	lw	a4,4(a4)
.LVL464:
	.loc 1 4108 24
	sw	a4,%lo(.LANCHOR6)(a5)
.L487:
.LBE341:
.LBE340:
.LBE339:
.LBE338:
	.loc 1 1794 4 is_stmt 1
	call	vTaskExitCritical
.LVL465:
	.loc 1 1798 4
	.loc 1 1801 3
	.loc 1 1801 13 is_stmt 0
	lw	a5,0(s1)
	.loc 1 1801 5
	bne	a5,s0,.L478
.L512:
	.loc 1 1803 4 is_stmt 1
	.loc 1 1803 26 is_stmt 0
	lw	a5,0(s2)
	.loc 1 1803 6
	beq	a5,zero,.L489
	.loc 1 1806 5 is_stmt 1
	.loc 1 1806 39 is_stmt 0
	lui	a5,%hi(.LANCHOR14)
	lw	a5,%lo(.LANCHOR14)(a5)
	.loc 1 1806 7
	bne	a5,zero,.L514
.L490:
	.loc 1 1807 5 is_stmt 1
	.loc 1 1832 2 is_stmt 0
	lw	s0,24(sp)
	.cfi_remember_state
	.cfi_restore 8
.LVL466:
	lw	ra,28(sp)
	.cfi_restore 1
	lw	s1,20(sp)
	.cfi_restore 9
	lw	s2,16(sp)
	.cfi_restore 18
	lw	s3,12(sp)
	.cfi_restore 19
.LVL467:
	lw	s4,8(sp)
	.cfi_restore 20
	.loc 1 1807 5
	li	a0,1
	.loc 1 1832 2
	addi	sp,sp,32
	.cfi_def_cfa_offset 0
	.loc 1 1807 5
	tail	vEnvironmentCall
.LVL468:
.L509:
	.cfi_restore_state
	.loc 1 1746 28 discriminator 1
	lw	s0,0(s1)
.LVL469:
	j	.L480
.LVL470:
.L513:
.LBB343:
.LBB342:
	.loc 1 4099 3 is_stmt 1
	.loc 1 4099 24 is_stmt 0
	lui	a5,%hi(.LANCHOR6)
	li	a4,-1
	sw	a4,%lo(.LANCHOR6)(a5)
	j	.L487
.L489:
.LBE342:
.LBE343:
	.loc 1 1814 5 is_stmt 1
	.loc 1 1814 54 is_stmt 0
	lui	a5,%hi(.LANCHOR13)
	.loc 1 1814 34
	addi	s4,s4,%lo(.LANCHOR3)
	lw	a4,0(s4)
	.loc 1 1814 54
	lw	a5,%lo(.LANCHOR13)(a5)
	.loc 1 1814 7
	bne	a4,a5,.L491
	.loc 1 1820 6 is_stmt 1
	.loc 1 1820 19 is_stmt 0
	sw	zero,0(s1)
	j	.L478
.L491:
	.loc 1 1824 6 is_stmt 1
.LBB344:
.LBB345:
	.loc 1 3120 2
	.loc 1 3120 27 is_stmt 0
	lui	a5,%hi(.LANCHOR14)
	lw	a5,%lo(.LANCHOR14)(a5)
	.loc 1 3120 4
	beq	a5,zero,.L492
	.loc 1 3124 3 is_stmt 1
	.loc 1 3124 17 is_stmt 0
	lui	a5,%hi(.LANCHOR8)
	li	a4,1
	sw	a4,%lo(.LANCHOR8)(a5)
	j	.L478
.L492:
.LBE345:
.LBE344:
	.loc 1 1832 2
	lw	s0,24(sp)
	.cfi_remember_state
	.cfi_restore 8
.LVL471:
	lw	ra,28(sp)
	.cfi_restore 1
	lw	s1,20(sp)
	.cfi_restore 9
	lw	s2,16(sp)
	.cfi_restore 18
	lw	s3,12(sp)
	.cfi_restore 19
.LVL472:
	lw	s4,8(sp)
	.cfi_restore 20
	addi	sp,sp,32
	.cfi_def_cfa_offset 0
.LBB347:
.LBB346:
	tail	vTaskSwitchContext.part.0
.LVL473:
.L514:
	.cfi_restore_state
.LBE346:
.LBE347:
	.loc 1 1806 46 is_stmt 1 discriminator 1
	li	a0,2
	call	vEnvironmentCall
.LVL474:
	j	.L490
	.cfi_endproc
.LFE16:
	.size	vTaskSuspend, .-vTaskSuspend
	.section	.text.vTaskResume,"ax",@progbits
	.align	1
	.globl	vTaskResume
	.type	vTaskResume, @function
vTaskResume:
.LFB18:
	.loc 1 1886 2
	.cfi_startproc
.LVL475:
	.loc 1 1887 2
	.loc 1 1890 3
	.loc 1 1886 2 is_stmt 0
	addi	sp,sp,-16
	.cfi_def_cfa_offset 16
	sw	ra,12(sp)
	sw	s0,8(sp)
	sw	s1,4(sp)
	sw	s2,0(sp)
	.cfi_offset 1, -4
	.cfi_offset 8, -8
	.cfi_offset 9, -12
	.cfi_offset 18, -16
	.loc 1 1890 5
	beq	a0,zero,.L527
	.loc 1 1894 15
	lui	s1,%hi(.LANCHOR1)
	addi	s1,s1,%lo(.LANCHOR1)
	lw	a5,0(s1)
	mv	s0,a0
	.loc 1 1894 3 is_stmt 1
	.loc 1 1894 5 is_stmt 0
	bne	a0,a5,.L522
	.loc 1 1931 2
	lw	ra,12(sp)
	.cfi_remember_state
	.cfi_restore 1
	lw	s0,8(sp)
	.cfi_restore 8
	lw	s1,4(sp)
	.cfi_restore 9
	lw	s2,0(sp)
	.cfi_restore 18
	addi	sp,sp,16
	.cfi_def_cfa_offset 0
	jr	ra
.LVL476:
.L522:
	.cfi_restore_state
	.loc 1 1896 4 is_stmt 1
.LBB356:
.LBB357:
	.loc 1 4431 3
 #APP
# 4431 "/mnt/d/GitHub/bl_iot_sdk_for_aithinker/components/platform/soc/bl602/freertos_riscv_ram/tasks.c" 1
	csrc mstatus, 8
# 0 "" 2
	.loc 1 4433 3
	.loc 1 4433 25 is_stmt 0
 #NO_APP
	lui	a5,%hi(.LANCHOR11)
	lw	a5,%lo(.LANCHOR11)(a5)
	.loc 1 4433 5
	bne	a5,zero,.L528
	.loc 1 4450 4 is_stmt 1
.LBE357:
.LBE356:
	.loc 1 1898 5
.LVL477:
.LBB361:
.LBB362:
	.loc 1 1841 2
	.loc 1 1842 2
	.loc 1 1848 3
	.loc 1 1851 3
	.loc 1 1851 5 is_stmt 0
	lw	a4,20(s0)
	lui	a5,%hi(.LANCHOR3)
	addi	a5,a5,%lo(.LANCHOR3)
	beq	a4,a5,.L529
.LVL478:
.L520:
.LBE362:
.LBE361:
	.loc 1 1922 6 is_stmt 1
	.loc 1 1925 4
	.loc 1 1931 2 is_stmt 0
	lw	s0,8(sp)
	.cfi_remember_state
	.cfi_restore 8
.LVL479:
	lw	ra,12(sp)
	.cfi_restore 1
	lw	s1,4(sp)
	.cfi_restore 9
	lw	s2,0(sp)
	.cfi_restore 18
	addi	sp,sp,16
	.cfi_def_cfa_offset 0
	.loc 1 1925 4
	tail	vTaskExitCritical
.LVL480:
.L528:
	.cfi_restore_state
.LBB366:
.LBB360:
.LBB358:
.LBB359:
	.loc 1 4435 4 is_stmt 1
	.loc 1 4435 18 is_stmt 0
	lw	a4,0(s1)
	.loc 1 4443 20
	lw	a5,0(s1)
	.loc 1 4435 39
	lw	a5,68(a4)
	addi	a5,a5,1
	sw	a5,68(a4)
	.loc 1 4443 4 is_stmt 1
	.loc 1 4445 5
	.loc 1 4450 4
.LBE359:
.LBE358:
	.loc 1 4450 4
.LBE360:
.LBE366:
	.loc 1 1898 5
.LVL481:
.LBB367:
.LBB365:
	.loc 1 1841 2
	.loc 1 1842 2
	.loc 1 1848 3
	.loc 1 1851 3
	.loc 1 1851 5 is_stmt 0
	lw	a4,20(s0)
	lui	a5,%hi(.LANCHOR3)
	addi	a5,a5,%lo(.LANCHOR3)
	bne	a4,a5,.L520
.L529:
.LVL482:
.LBB363:
.LBB364:
	.loc 1 1854 4 is_stmt 1
	.loc 1 1854 42 is_stmt 0
	lw	a4,40(s0)
	.loc 1 1854 6
	lui	a5,%hi(.LANCHOR17)
	addi	a5,a5,%lo(.LANCHOR17)
	beq	a4,a5,.L520
	.loc 1 1858 5 is_stmt 1
	.loc 1 1858 7 is_stmt 0
	bne	a4,zero,.L520
	.loc 1 1860 6 is_stmt 1
.LVL483:
.LBE364:
.LBE363:
	.loc 1 1874 4
	.loc 1 1877 3
.LBE365:
.LBE367:
	.loc 1 1900 6
	.loc 1 1904 6
	.loc 1 1904 15 is_stmt 0
	addi	s2,s0,4
	mv	a0,s2
	call	uxListRemove
.LVL484:
	.loc 1 1905 6 is_stmt 1
	.loc 1 1905 8
	.loc 1 1905 54 is_stmt 0
	lw	a2,44(s0)
	.loc 1 1905 31
	lui	a3,%hi(.LANCHOR2)
	addi	a3,a3,%lo(.LANCHOR2)
	lw	a1,0(a3)
	.loc 1 1905 72
	slli	a4,a2,2
	add	a4,a4,a2
	.loc 1 1905 40
	li	a5,1
	.loc 1 1905 72
	lui	a0,%hi(.LANCHOR9)
	slli	a4,a4,2
	.loc 1 1905 40
	sll	a5,a5,a2
	.loc 1 1905 72
	addi	a0,a0,%lo(.LANCHOR9)
	.loc 1 1905 31
	or	a5,a5,a1
	.loc 1 1905 72
	add	a0,a0,a4
	mv	a1,s2
	.loc 1 1905 31
	sw	a5,0(a3)
	.loc 1 1905 72 is_stmt 1
	call	vListInsertEnd
.LVL485:
	.loc 1 1905 171
	.loc 1 1908 6
	.loc 1 1908 43 is_stmt 0
	lw	a5,0(s1)
	.loc 1 1908 8
	lw	a4,44(s0)
	lw	a5,44(a5)
	bltu	a4,a5,.L520
	.loc 1 1913 7 is_stmt 1
	li	a0,1
	call	vEnvironmentCall
.LVL486:
	j	.L520
.LVL487:
.L527:
	.loc 1 1890 32 discriminator 1
	li	a0,2
.LVL488:
	call	vEnvironmentCall
.LVL489:
	.loc 1 1894 3 discriminator 1
	.loc 1 1931 2 is_stmt 0 discriminator 1
	lw	ra,12(sp)
	.cfi_restore 1
	lw	s0,8(sp)
	.cfi_restore 8
	.loc 1 1894 15 discriminator 1
	lui	a5,%hi(.LANCHOR1)
	.loc 1 1931 2 discriminator 1
	lw	s1,4(sp)
	.cfi_restore 9
	lw	s2,0(sp)
	.cfi_restore 18
	.loc 1 1894 15 discriminator 1
	lw	a5,%lo(.LANCHOR1)(a5)
	.loc 1 1931 2 discriminator 1
	addi	sp,sp,16
	.cfi_def_cfa_offset 0
	jr	ra
	.cfi_endproc
.LFE18:
	.size	vTaskResume, .-vTaskResume
	.section	.text.xTaskResumeAll,"ax",@progbits
	.align	1
	.globl	xTaskResumeAll
	.type	xTaskResumeAll, @function
xTaskResumeAll:
.LFB23:
	.loc 1 2217 1 is_stmt 1
	.cfi_startproc
	.loc 1 2218 1
.LVL490:
	.loc 1 2219 1
	.loc 1 2223 2
	.loc 1 2217 1 is_stmt 0
	addi	sp,sp,-64
	.cfi_def_cfa_offset 64
	sw	s0,56(sp)
	.cfi_offset 8, -8
	.loc 1 2223 31
	lui	s0,%hi(.LANCHOR14)
	.loc 1 2217 1
	sw	ra,60(sp)
	sw	s1,52(sp)
	sw	s2,48(sp)
	sw	s3,44(sp)
	sw	s4,40(sp)
	sw	s5,36(sp)
	sw	s6,32(sp)
	sw	s7,28(sp)
	.cfi_offset 1, -4
	.cfi_offset 9, -12
	.cfi_offset 18, -16
	.cfi_offset 19, -20
	.cfi_offset 20, -24
	.cfi_offset 21, -28
	.cfi_offset 22, -32
	.cfi_offset 23, -36
	.loc 1 2223 31
	addi	s0,s0,%lo(.LANCHOR14)
	lw	a5,0(s0)
	.loc 1 2223 4
	beq	a5,zero,.L565
.L531:
	.loc 1 2230 2 is_stmt 1
.LBB379:
.LBB380:
	.loc 1 4431 3
 #APP
# 4431 "/mnt/d/GitHub/bl_iot_sdk_for_aithinker/components/platform/soc/bl602/freertos_riscv_ram/tasks.c" 1
	csrc mstatus, 8
# 0 "" 2
	.loc 1 4433 3
	.loc 1 4433 25 is_stmt 0
 #NO_APP
	lui	a5,%hi(.LANCHOR11)
	lw	a5,%lo(.LANCHOR11)(a5)
	.loc 1 4433 5
	beq	a5,zero,.L532
.LBB381:
.LBB382:
	.loc 1 4435 4 is_stmt 1
	.loc 1 4435 18 is_stmt 0
	lui	s1,%hi(.LANCHOR1)
	addi	s1,s1,%lo(.LANCHOR1)
	lw	a4,0(s1)
	.loc 1 4443 20
	lw	a5,0(s1)
	.loc 1 4435 39
	lw	a5,68(a4)
	addi	a5,a5,1
	sw	a5,68(a4)
	.loc 1 4443 4 is_stmt 1
	.loc 1 4445 5
	.loc 1 4450 4
.L532:
.LBE382:
.LBE381:
	.loc 1 4450 4
.LBE380:
.LBE379:
	.loc 1 2232 3
	lw	a5,0(s0)
	addi	a5,a5,-1
	sw	a5,0(s0)
	.loc 1 2234 3
	.loc 1 2234 28 is_stmt 0
	lw	a5,0(s0)
	.loc 1 2234 5
	bne	a5,zero,.L535
	.loc 1 2236 4 is_stmt 1
	.loc 1 2236 31 is_stmt 0
	lui	a5,%hi(.LANCHOR13)
	lw	a5,%lo(.LANCHOR13)(a5)
	.loc 1 2236 6
	beq	a5,zero,.L535
	.loc 1 2255 7 is_stmt 1
	.loc 1 2240 10
	.loc 1 2240 38 is_stmt 0
	lui	s7,%hi(.LANCHOR17)
	addi	s7,s7,%lo(.LANCHOR17)
	lw	a5,0(s7)
	lui	s5,%hi(.LANCHOR8)
	addi	s5,s5,%lo(.LANCHOR8)
	.loc 1 2240 10
	beq	a5,zero,.L536
	lui	s1,%hi(.LANCHOR1)
	lui	s5,%hi(.LANCHOR8)
	lui	s2,%hi(.LANCHOR2)
	lui	s4,%hi(.LANCHOR9)
	addi	s1,s1,%lo(.LANCHOR1)
	addi	s2,s2,%lo(.LANCHOR2)
	addi	s4,s4,%lo(.LANCHOR9)
	addi	s5,s5,%lo(.LANCHOR8)
	.loc 1 2245 40
	li	s3,1
.LVL491:
.L538:
	.loc 1 2242 6 is_stmt 1
	.loc 1 2242 12 is_stmt 0
	lw	a5,12(s7)
	lw	s0,12(a5)
.LVL492:
	.loc 1 2243 6 is_stmt 1
	.loc 1 2243 15 is_stmt 0
	addi	a0,s0,24
	call	uxListRemove
.LVL493:
	.loc 1 2244 6 is_stmt 1
	.loc 1 2244 15 is_stmt 0
	addi	s6,s0,4
	mv	a0,s6
	call	uxListRemove
.LVL494:
	.loc 1 2245 6 is_stmt 1
	.loc 1 2245 8
	.loc 1 2245 54 is_stmt 0
	lw	a5,44(s0)
	.loc 1 2245 31
	lw	a4,0(s2)
	.loc 1 2245 72
	mv	a1,s6
	slli	a0,a5,2
	add	a0,a0,a5
	slli	a0,a0,2
	.loc 1 2245 40
	sll	a5,s3,a5
	.loc 1 2245 31
	or	a5,a5,a4
	.loc 1 2245 72
	add	a0,s4,a0
	.loc 1 2245 31
	sw	a5,0(s2)
	.loc 1 2245 72 is_stmt 1
	call	vListInsertEnd
.LVL495:
	.loc 1 2245 171
	.loc 1 2249 6
	.loc 1 2251 7
	.loc 1 2255 7
	.loc 1 2240 10
	.loc 1 2249 43 is_stmt 0
	lw	a5,0(s1)
	.loc 1 2249 8
	lw	a4,44(s0)
	lw	a5,44(a5)
	bltu	a4,a5,.L537
	.loc 1 2251 21
	sw	s3,0(s5)
.L537:
	.loc 1 2240 38
	lw	a5,0(s7)
	.loc 1 2240 10
	bne	a5,zero,.L538
	.loc 1 2259 5 is_stmt 1
	.loc 1 2267 6
.LBB383:
.LBB384:
	.loc 1 4091 1
	.loc 1 4093 2
	.loc 1 4093 31 is_stmt 0
	lui	a5,%hi(.LANCHOR5)
	addi	a5,a5,%lo(.LANCHOR5)
	lw	a4,0(a5)
	lw	a4,0(a4)
	.loc 1 4093 4
	bne	a4,zero,.L539
	.loc 1 4099 3 is_stmt 1
	.loc 1 4099 24 is_stmt 0
	lui	a5,%hi(.LANCHOR6)
	li	a4,-1
	sw	a4,%lo(.LANCHOR6)(a5)
.LVL496:
.L536:
.LBE384:
.LBE383:
.LBB388:
	.loc 1 2275 6 is_stmt 1
	.loc 1 2275 18 is_stmt 0
	lui	s1,%hi(.LANCHOR16)
	addi	s1,s1,%lo(.LANCHOR16)
	lw	s0,0(s1)
.LVL497:
	.loc 1 2277 6 is_stmt 1
	.loc 1 2277 8 is_stmt 0
	beq	s0,zero,.L540
	.loc 1 2283 23
	li	s2,1
.L543:
	.loc 1 2279 7 is_stmt 1
	.loc 1 2281 8
.LBB389:
.LBB390:
	.loc 1 2827 1
	.loc 1 2828 1
	.loc 1 2829 1
.LVL498:
	.loc 1 2832 2
	.loc 1 2835 2
	.loc 1 2836 2
	.loc 1 2836 6 is_stmt 0
	addi	a0,sp,12
	call	bl_sys_time_sync_state
.LVL499:
.LBE390:
.LBE389:
	.loc 1 2289 8
	addi	s0,s0,-1
.LVL500:
.LBB392:
.LBB391:
	.loc 1 2836 4
	beq	a0,zero,.L542
	call	xTaskIncrementTick.part.0
.LVL501:
.LBE391:
.LBE392:
	.loc 1 2283 9 is_stmt 1
	.loc 1 2281 10 is_stmt 0
	beq	a0,zero,.L542
	.loc 1 2283 23
	sw	s2,0(s5)
.L542:
	.loc 1 2287 9 is_stmt 1
	.loc 1 2289 8
.LVL502:
	.loc 1 2290 14
	.loc 1 2290 7 is_stmt 0
	bne	s0,zero,.L543
	.loc 1 2292 7 is_stmt 1
	.loc 1 2292 21 is_stmt 0
	sw	zero,0(s1)
.L540:
	.loc 1 2296 7 is_stmt 1
.LBE388:
	.loc 1 2300 5
	.loc 1 2300 23 is_stmt 0
	lw	a5,0(s5)
	.loc 1 2300 7
	bne	a5,zero,.L566
.LVL503:
.L535:
	.loc 1 2219 12
	li	s0,0
.LVL504:
.L534:
	.loc 1 2317 4 is_stmt 1
	.loc 1 2320 2
	call	vTaskExitCritical
.LVL505:
	.loc 1 2322 2
	.loc 1 2323 1 is_stmt 0
	lw	ra,60(sp)
	.cfi_remember_state
	.cfi_restore 1
	mv	a0,s0
	lw	s0,56(sp)
	.cfi_restore 8
.LVL506:
	lw	s1,52(sp)
	.cfi_restore 9
	lw	s2,48(sp)
	.cfi_restore 18
	lw	s3,44(sp)
	.cfi_restore 19
	lw	s4,40(sp)
	.cfi_restore 20
	lw	s5,36(sp)
	.cfi_restore 21
	lw	s6,32(sp)
	.cfi_restore 22
	lw	s7,28(sp)
	.cfi_restore 23
	addi	sp,sp,64
	.cfi_def_cfa_offset 0
	jr	ra
.LVL507:
.L565:
	.cfi_restore_state
	.loc 1 2223 38 is_stmt 1 discriminator 1
	li	a0,2
	call	vEnvironmentCall
.LVL508:
	j	.L531
.LVL509:
.L539:
.LBB393:
.LBB387:
.LBB385:
.LBB386:
	.loc 1 4107 3
	.loc 1 4107 42 is_stmt 0
	lw	a4,0(a5)
.LVL510:
	.loc 1 4108 3 is_stmt 1
	.loc 1 4108 24 is_stmt 0
	lui	a5,%hi(.LANCHOR6)
	.loc 1 4107 13
	lw	a4,12(a4)
.LVL511:
	.loc 1 4108 62
	lw	a4,12(a4)
.LVL512:
	lw	a4,4(a4)
.LVL513:
	.loc 1 4108 24
	sw	a4,%lo(.LANCHOR6)(a5)
	.loc 1 4110 1
	j	.L536
.LVL514:
.L566:
.LBE386:
.LBE385:
.LBE387:
.LBE393:
	.loc 1 2304 7 is_stmt 1
	.loc 1 2307 6
	li	a0,1
	call	vEnvironmentCall
.LVL515:
	.loc 1 2304 23 is_stmt 0
	li	s0,1
.LVL516:
	j	.L534
	.cfi_endproc
.LFE23:
	.size	xTaskResumeAll, .-xTaskResumeAll
	.section	.text.vTaskDelayUntil,"ax",@progbits
	.align	1
	.globl	vTaskDelayUntil
	.type	vTaskDelayUntil, @function
vTaskDelayUntil:
.LFB10:
	.loc 1 1292 2 is_stmt 1
	.cfi_startproc
.LVL517:
	.loc 1 1293 2
	.loc 1 1294 2
	.loc 1 1296 3
	.loc 1 1292 2 is_stmt 0
	addi	sp,sp,-16
	.cfi_def_cfa_offset 16
	sw	s0,8(sp)
	sw	s1,4(sp)
	sw	ra,12(sp)
	sw	s2,0(sp)
	.cfi_offset 8, -8
	.cfi_offset 9, -12
	.cfi_offset 1, -4
	.cfi_offset 18, -16
	.loc 1 1292 2
	mv	s1,a0
	mv	s0,a1
	.loc 1 1296 5
	beq	a0,zero,.L584
.LVL518:
.L568:
	.loc 1 1297 3 is_stmt 1
	.loc 1 1297 5 is_stmt 0
	beq	s0,zero,.L585
.L569:
	.loc 1 1298 3 is_stmt 1
	.loc 1 1298 37 is_stmt 0
	lui	s2,%hi(.LANCHOR14)
	addi	s2,s2,%lo(.LANCHOR14)
	lw	a5,0(s2)
	.loc 1 1298 5
	bne	a5,zero,.L586
.L570:
	.loc 1 1300 3 is_stmt 1
.LBB394:
.LBB395:
	.loc 1 2148 2
	lw	a5,0(s2)
	addi	a5,a5,1
	sw	a5,0(s2)
	.loc 1 2149 2
.LBE395:
.LBE394:
.LBB396:
	.loc 1 1304 4
	.loc 1 1307 18 is_stmt 0
	lw	a4,0(s1)
	.loc 1 1304 21
	lui	a5,%hi(.LANCHOR0)
	lw	a0,%lo(.LANCHOR0)(a5)
.LVL519:
	.loc 1 1307 4 is_stmt 1
	.loc 1 1307 16 is_stmt 0
	add	s0,a4,s0
.LVL520:
	.loc 1 1309 4 is_stmt 1
	.loc 1 1341 24 is_stmt 0
	sw	s0,0(s1)
	.loc 1 1309 6
	bleu	a4,a0,.L571
	.loc 1 1316 5 is_stmt 1
	.loc 1 1316 7 is_stmt 0
	bgtu	a4,s0,.L583
.L573:
	.loc 1 1353 5 is_stmt 1
.LBE396:
	.loc 1 1356 3
	.loc 1 1356 21 is_stmt 0
	call	xTaskResumeAll
.LVL521:
	.loc 1 1360 3 is_stmt 1
	.loc 1 1360 5 is_stmt 0
	beq	a0,zero,.L587
.L567:
	.loc 1 1368 2
	lw	ra,12(sp)
	.cfi_remember_state
	.cfi_restore 1
	lw	s0,8(sp)
	.cfi_restore 8
.LVL522:
	lw	s1,4(sp)
	.cfi_restore 9
.LVL523:
	lw	s2,0(sp)
	.cfi_restore 18
	addi	sp,sp,16
	.cfi_def_cfa_offset 0
	jr	ra
.LVL524:
.L571:
	.cfi_restore_state
.LBB397:
	.loc 1 1330 5 is_stmt 1
	.loc 1 1330 7 is_stmt 0
	bgtu	a4,s0,.L575
.L583:
	.loc 1 1330 47 discriminator 1
	bgeu	a0,s0,.L573
.L575:
	.loc 1 1345 5 is_stmt 1
	.loc 1 1349 5
	li	a1,0
	sub	a0,s0,a0
.LVL525:
	call	prvAddCurrentTaskToDelayedList
.LVL526:
	.loc 1 1353 5
.LBE397:
	.loc 1 1356 3
	.loc 1 1356 21 is_stmt 0
	call	xTaskResumeAll
.LVL527:
	.loc 1 1360 3 is_stmt 1
	.loc 1 1360 5 is_stmt 0
	bne	a0,zero,.L567
.L587:
	.loc 1 1362 4 is_stmt 1
	.loc 1 1368 2 is_stmt 0
	lw	s0,8(sp)
	.cfi_remember_state
	.cfi_restore 8
.LVL528:
	lw	ra,12(sp)
	.cfi_restore 1
	lw	s1,4(sp)
	.cfi_restore 9
.LVL529:
	lw	s2,0(sp)
	.cfi_restore 18
	.loc 1 1362 4
	li	a0,1
.LVL530:
	.loc 1 1368 2
	addi	sp,sp,16
	.cfi_def_cfa_offset 0
	.loc 1 1362 4
	tail	vEnvironmentCall
.LVL531:
.L586:
	.cfi_restore_state
	.loc 1 1298 44 is_stmt 1 discriminator 1
	li	a0,2
	call	vEnvironmentCall
.LVL532:
	j	.L570
.L585:
	.loc 1 1297 42 discriminator 1
	li	a0,2
	call	vEnvironmentCall
.LVL533:
	j	.L569
.L584:
	.loc 1 1296 37 discriminator 1
	li	a0,2
	call	vEnvironmentCall
.LVL534:
	j	.L568
	.cfi_endproc
.LFE10:
	.size	vTaskDelayUntil, .-vTaskDelayUntil
	.section	.text.vTaskDelay,"ax",@progbits
	.align	1
	.globl	vTaskDelay
	.type	vTaskDelay, @function
vTaskDelay:
.LFB11:
	.loc 1 1376 2
	.cfi_startproc
.LVL535:
	.loc 1 1377 2
	.loc 1 1380 3
	.loc 1 1380 5 is_stmt 0
	beq	a0,zero,.L601
	.loc 1 1376 2
	addi	sp,sp,-16
	.cfi_def_cfa_offset 16
	sw	s1,4(sp)
	.cfi_offset 9, -12
	.loc 1 1382 38
	lui	s1,%hi(.LANCHOR14)
	addi	s1,s1,%lo(.LANCHOR14)
	lw	a5,0(s1)
	.loc 1 1376 2
	sw	s0,8(sp)
	sw	ra,12(sp)
	.cfi_offset 8, -8
	.cfi_offset 1, -4
	mv	s0,a0
	.loc 1 1382 4 is_stmt 1
	.loc 1 1382 6 is_stmt 0
	bne	a5,zero,.L602
.LVL536:
.L590:
	.loc 1 1383 4 is_stmt 1
.LBB398:
.LBB399:
	.loc 1 2148 2
	lw	a5,0(s1)
	addi	a5,a5,1
	sw	a5,0(s1)
	.loc 1 2149 2
.LBE399:
.LBE398:
	.loc 1 1385 5
	.loc 1 1394 5
	li	a1,0
	mv	a0,s0
	call	prvAddCurrentTaskToDelayedList
.LVL537:
	.loc 1 1396 4
	.loc 1 1396 22 is_stmt 0
	call	xTaskResumeAll
.LVL538:
	.loc 1 1400 4 is_stmt 1
	.loc 1 1405 3
	.loc 1 1405 5 is_stmt 0
	bne	a0,zero,.L603
.LVL539:
	.loc 1 1407 4 is_stmt 1
	.loc 1 1413 2 is_stmt 0
	lw	s0,8(sp)
	.cfi_remember_state
	.cfi_restore 8
.LVL540:
	lw	ra,12(sp)
	.cfi_restore 1
	lw	s1,4(sp)
	.cfi_restore 9
	.loc 1 1407 4
	li	a0,1
	.loc 1 1413 2
	addi	sp,sp,16
	.cfi_def_cfa_offset 0
	.loc 1 1407 4
	tail	vEnvironmentCall
.LVL541:
.L603:
	.cfi_restore_state
	.loc 1 1413 2
	lw	ra,12(sp)
	.cfi_remember_state
	.cfi_restore 1
	lw	s0,8(sp)
	.cfi_restore 8
.LVL542:
	lw	s1,4(sp)
	.cfi_restore 9
	addi	sp,sp,16
	.cfi_def_cfa_offset 0
	jr	ra
.LVL543:
.L602:
	.cfi_restore_state
	.loc 1 1382 45 is_stmt 1 discriminator 1
	li	a0,2
	call	vEnvironmentCall
.LVL544:
	j	.L590
.LVL545:
.L601:
	.cfi_def_cfa_offset 0
	.cfi_restore 1
	.cfi_restore 8
	.cfi_restore 9
	.loc 1 1407 4
	li	a0,1
.LVL546:
	tail	vEnvironmentCall
.LVL547:
	.cfi_endproc
.LFE11:
	.size	vTaskDelay, .-vTaskDelay
	.section	.text.vTaskGetInfo,"ax",@progbits
	.align	1
	.globl	vTaskGetInfo
	.type	vTaskGetInfo, @function
vTaskGetInfo:
.LFB49:
	.loc 1 3787 2
	.cfi_startproc
.LVL548:
	.loc 1 3788 2
	.loc 1 3791 3
	.loc 1 3787 2 is_stmt 0
	addi	sp,sp,-16
	.cfi_def_cfa_offset 16
	sw	s0,8(sp)
	sw	s1,4(sp)
	sw	s2,0(sp)
	sw	ra,12(sp)
	.cfi_offset 8, -8
	.cfi_offset 9, -12
	.cfi_offset 18, -16
	.cfi_offset 1, -4
	.loc 1 3787 2
	mv	s0,a1
	mv	s2,a2
	mv	s1,a0
	.loc 1 3791 27
	beq	a0,zero,.L621
.LVL549:
.L605:
	.loc 1 3793 3 is_stmt 1 discriminator 4
	.loc 1 3794 47 is_stmt 0 discriminator 4
	addi	a5,s1,52
	.loc 1 3794 28 discriminator 4
	sw	a5,4(s0)
	.loc 1 3793 25 discriminator 4
	sw	s1,0(s0)
	.loc 1 3794 3 is_stmt 1 discriminator 4
	.loc 1 3795 3 discriminator 4
	.loc 1 3795 42 is_stmt 0 discriminator 4
	lw	a4,44(s1)
	.loc 1 3822 5 discriminator 4
	li	a5,5
	.loc 1 3795 35 discriminator 4
	sw	a4,16(s0)
	.loc 1 3796 3 is_stmt 1 discriminator 4
	.loc 1 3796 36 is_stmt 0 discriminator 4
	lw	a4,48(s1)
	.loc 1 3796 29 discriminator 4
	sw	a4,28(s0)
	.loc 1 3797 3 is_stmt 1 discriminator 4
	.loc 1 3797 36 is_stmt 0 discriminator 4
	lw	a4,72(s1)
	.loc 1 3797 29 discriminator 4
	sw	a4,8(s0)
	.loc 1 3801 4 is_stmt 1 discriminator 4
	.loc 1 3801 40 is_stmt 0 discriminator 4
	lw	a4,80(s1)
	.loc 1 3815 35 discriminator 4
	sw	zero,24(s0)
	.loc 1 3801 33 discriminator 4
	sw	a4,20(s0)
	.loc 1 3815 4 is_stmt 1 discriminator 4
	.loc 1 3822 3 discriminator 4
	.loc 1 3822 5 is_stmt 0 discriminator 4
	beq	a3,a5,.L606
	.loc 1 3824 4 is_stmt 1
	.loc 1 3824 14 is_stmt 0
	lui	a5,%hi(.LANCHOR1)
	lw	a5,%lo(.LANCHOR1)(a5)
	.loc 1 3824 6
	beq	a5,s1,.L622
	.loc 1 3830 5 is_stmt 1
	.loc 1 3830 33 is_stmt 0
	sw	a3,12(s0)
	.loc 1 3837 6 is_stmt 1
	.loc 1 3837 8 is_stmt 0
	li	a5,3
	beq	a3,a5,.L623
.LVL550:
.L608:
	.loc 1 3859 3 is_stmt 1
	.loc 1 3859 5 is_stmt 0
	beq	s2,zero,.L610
	.loc 1 3867 5 is_stmt 1
	.loc 1 3867 89 is_stmt 0
	lw	a3,48(s1)
.LVL551:
.LBB400:
.LBB401:
	.loc 1 3949 2 is_stmt 1
	.loc 1 3951 3
	.loc 1 3951 8
	li	a5,165
	lbu	a4,0(a3)
	bne	a4,a5,.L614
	.loc 1 3949 11 is_stmt 0
	li	a5,0
	.loc 1 3951 8
	li	a2,165
.LVL552:
.L612:
	.loc 1 3953 4 is_stmt 1
	.loc 1 3954 4
	.loc 1 3954 11 is_stmt 0
	addi	a5,a5,1
.LVL553:
	.loc 1 3951 8 is_stmt 1
	.loc 1 3951 10 is_stmt 0
	add	a4,a3,a5
	.loc 1 3951 8
	lbu	a4,0(a4)
	beq	a4,a2,.L612
	.loc 1 3957 11
	srli	a5,a5,2
.LVL554:
	.loc 1 3959 10
	slli	a5,a5,16
	srli	a5,a5,16
	.loc 1 3957 3 is_stmt 1
	.loc 1 3959 3
.LBE401:
.LBE400:
	.loc 1 3867 40 is_stmt 0
	sh	a5,32(s0)
.L624:
	.loc 1 3875 2
	lw	ra,12(sp)
	.cfi_remember_state
	.cfi_restore 1
	lw	s0,8(sp)
	.cfi_restore 8
.LVL555:
	lw	s1,4(sp)
	.cfi_restore 9
.LVL556:
	lw	s2,0(sp)
	.cfi_restore 18
.LVL557:
	addi	sp,sp,16
	.cfi_def_cfa_offset 0
	jr	ra
.LVL558:
.L610:
	.cfi_restore_state
	.loc 1 3873 4 is_stmt 1
	.loc 1 3873 39 is_stmt 0
	sh	zero,32(s0)
	.loc 1 3875 2
	lw	ra,12(sp)
	.cfi_remember_state
	.cfi_restore 1
	lw	s0,8(sp)
	.cfi_restore 8
.LVL559:
	lw	s1,4(sp)
	.cfi_restore 9
.LVL560:
	lw	s2,0(sp)
	.cfi_restore 18
.LVL561:
	addi	sp,sp,16
	.cfi_def_cfa_offset 0
	jr	ra
.LVL562:
.L621:
	.cfi_restore_state
	.loc 1 3791 27 discriminator 1
	lui	a5,%hi(.LANCHOR1)
	lw	s1,%lo(.LANCHOR1)(a5)
.LVL563:
	j	.L605
.LVL564:
.L622:
	.loc 1 3826 5 is_stmt 1
	.loc 1 3826 33 is_stmt 0
	sw	zero,12(s0)
	j	.L608
.L606:
	.loc 1 3854 4 is_stmt 1
	.loc 1 3854 34 is_stmt 0
	mv	a0,s1
	call	eTaskGetState
.LVL565:
	.loc 1 3854 32
	sw	a0,12(s0)
	j	.L608
.LVL566:
.L623:
	.loc 1 3839 7 is_stmt 1
.LBB403:
.LBB404:
	.loc 1 2148 2
	lui	a5,%hi(.LANCHOR14)
	addi	a5,a5,%lo(.LANCHOR14)
	lw	a4,0(a5)
	addi	a4,a4,1
	sw	a4,0(a5)
	.loc 1 2149 2
.LBE404:
.LBE403:
	.loc 1 3841 8
	.loc 1 3841 10 is_stmt 0
	lw	a5,40(s1)
	beq	a5,zero,.L609
	.loc 1 3843 9 is_stmt 1
	.loc 1 3843 37 is_stmt 0
	li	a5,2
	sw	a5,12(s0)
.L609:
	.loc 1 3846 7 is_stmt 1
	.loc 1 3846 16 is_stmt 0
	call	xTaskResumeAll
.LVL567:
	j	.L608
.LVL568:
.L614:
.LBB405:
.LBB402:
	.loc 1 3951 8
	li	a5,0
	.loc 1 3957 3 is_stmt 1
.LVL569:
	.loc 1 3959 3
.LBE402:
.LBE405:
	.loc 1 3867 40 is_stmt 0
	sh	a5,32(s0)
	j	.L624
	.cfi_endproc
.LFE49:
	.size	vTaskGetInfo, .-vTaskGetInfo
	.section	.text.prvListTasksWithinSingleList.part.0,"ax",@progbits
	.align	1
	.type	prvListTasksWithinSingleList.part.0, @function
prvListTasksWithinSingleList.part.0:
.LFB83:
	.loc 1 3882 21 is_stmt 1
	.cfi_startproc
.LVL570:
.LBB406:
	.loc 1 3889 6
.LBE406:
	.loc 1 3882 21 is_stmt 0
	addi	sp,sp,-32
	.cfi_def_cfa_offset 32
	sw	s2,16(sp)
	sw	s4,8(sp)
	sw	s5,4(sp)
	sw	ra,28(sp)
	sw	s0,24(sp)
	sw	s1,20(sp)
	sw	s3,12(sp)
	sw	s6,0(sp)
	.cfi_offset 18, -16
	.cfi_offset 20, -24
	.cfi_offset 21, -28
	.cfi_offset 1, -4
	.cfi_offset 8, -8
	.cfi_offset 9, -12
	.cfi_offset 19, -20
	.cfi_offset 22, -32
.LBB407:
	.loc 1 3889 98
	lw	a5,4(a1)
	.loc 1 3889 162
	addi	s4,a1,8
.LBE407:
	.loc 1 3882 21
	mv	s2,a1
.LVL571:
.LBB408:
	.loc 1 3889 47 is_stmt 1
	.loc 1 3889 98 is_stmt 0
	lw	a5,4(a5)
.LBE408:
	.loc 1 3882 21
	mv	s5,a2
.LBB409:
	.loc 1 3889 72
	sw	a5,4(a1)
	.loc 1 3889 108 is_stmt 1
	.loc 1 3889 110 is_stmt 0
	beq	a5,s4,.L631
.L626:
	.loc 1 3889 260 is_stmt 1
	.loc 1 3889 275 is_stmt 0
	lw	s6,12(a5)
.LVL572:
	mv	s0,a0
.LBE409:
	.loc 1 3885 14
	li	s3,0
	j	.L629
.LVL573:
.L627:
.LBB410:
	.loc 1 3897 275
	lw	s1,12(a5)
.LVL574:
.LBE410:
	.loc 1 3897 313 is_stmt 1
	.loc 1 3898 5
	.loc 1 3899 11 is_stmt 0
	addi	s3,s3,1
.LVL575:
	.loc 1 3900 4
	addi	s0,s0,36
	.loc 1 3898 5
	mv	a0,s1
	call	vTaskGetInfo
.LVL576:
	.loc 1 3899 5 is_stmt 1
	.loc 1 3900 11
	.loc 1 3900 4 is_stmt 0
	beq	s6,s1,.L625
.L632:
.LBB411:
	.loc 1 3897 90
	lw	a5,4(s2)
.LVL577:
.L629:
.LBE411:
	.loc 1 3889 313 is_stmt 1
	.loc 1 3895 4
.LBB412:
	.loc 1 3897 7
	.loc 1 3897 48
	.loc 1 3897 261
	.loc 1 3897 99 is_stmt 0
	lw	a5,4(a5)
.LBE412:
	.loc 1 3898 5
	mv	a1,s0
	mv	a3,s5
.LBB413:
	.loc 1 3897 73
	sw	a5,4(s2)
	.loc 1 3897 109 is_stmt 1
.LBE413:
	.loc 1 3898 5 is_stmt 0
	li	a2,1
.LBB414:
	.loc 1 3897 111
	bne	s4,a5,.L627
.LVL578:
	.loc 1 3897 198 is_stmt 1
	.loc 1 3897 249 is_stmt 0
	lw	a5,4(s4)
.LBE414:
	.loc 1 3899 11
	addi	s3,s3,1
.LVL579:
	.loc 1 3900 4
	addi	s0,s0,36
.LBB415:
	.loc 1 3897 223
	sw	a5,4(s2)
	.loc 1 3897 275
	lw	s1,12(a5)
.LVL580:
.LBE415:
	.loc 1 3897 313 is_stmt 1
	.loc 1 3898 5
	mv	a0,s1
	call	vTaskGetInfo
.LVL581:
	.loc 1 3899 5
	.loc 1 3900 11
	.loc 1 3900 4 is_stmt 0
	bne	s6,s1,.L632
.L625:
	.loc 1 3908 2
	lw	ra,28(sp)
	.cfi_remember_state
	.cfi_restore 1
	lw	s0,24(sp)
	.cfi_restore 8
	lw	s1,20(sp)
	.cfi_restore 9
.LVL582:
	lw	s2,16(sp)
	.cfi_restore 18
.LVL583:
	lw	s4,8(sp)
	.cfi_restore 20
.LVL584:
	lw	s5,4(sp)
	.cfi_restore 21
.LVL585:
	lw	s6,0(sp)
	.cfi_restore 22
.LVL586:
	mv	a0,s3
	lw	s3,12(sp)
	.cfi_restore 19
.LVL587:
	addi	sp,sp,32
	.cfi_def_cfa_offset 0
	jr	ra
.LVL588:
.L631:
	.cfi_restore_state
.LBB416:
	.loc 1 3889 197 is_stmt 1
	.loc 1 3889 248 is_stmt 0
	lw	a5,12(a1)
	.loc 1 3889 222
	sw	a5,4(a1)
	j	.L626
.LBE416:
	.cfi_endproc
.LFE83:
	.size	prvListTasksWithinSingleList.part.0, .-prvListTasksWithinSingleList.part.0
	.section	.text.uxTaskGetSystemState,"ax",@progbits
	.align	1
	.globl	uxTaskGetSystemState
	.type	uxTaskGetSystemState, @function
uxTaskGetSystemState:
.LFB29:
	.loc 1 2541 2 is_stmt 1
	.cfi_startproc
.LVL589:
	.loc 1 2542 2
	.loc 1 2544 3
.LBB417:
.LBB418:
	.loc 1 2148 2
.LBE418:
.LBE417:
	.loc 1 2541 2 is_stmt 0
	addi	sp,sp,-32
	.cfi_def_cfa_offset 32
.LBB421:
.LBB419:
	.loc 1 2148 2
	lui	a5,%hi(.LANCHOR14)
.LBE419:
.LBE421:
	.loc 1 2541 2
	sw	ra,28(sp)
	sw	s0,24(sp)
	sw	s1,20(sp)
	sw	s2,16(sp)
	sw	s3,12(sp)
	sw	s4,8(sp)
	sw	s5,4(sp)
	.cfi_offset 1, -4
	.cfi_offset 8, -8
	.cfi_offset 9, -12
	.cfi_offset 18, -16
	.cfi_offset 19, -20
	.cfi_offset 20, -24
	.cfi_offset 21, -28
.LBB422:
.LBB420:
	.loc 1 2148 2
	addi	a5,a5,%lo(.LANCHOR14)
	lw	a4,0(a5)
	addi	a4,a4,1
	sw	a4,0(a5)
	.loc 1 2149 2 is_stmt 1
.LBE420:
.LBE422:
	.loc 1 2547 4
	.loc 1 2547 20 is_stmt 0
	lui	a5,%hi(.LANCHOR13)
	lw	a5,%lo(.LANCHOR13)(a5)
	.loc 1 2542 14
	li	s2,0
	.loc 1 2547 6
	bgtu	a5,a1,.L634
	lui	s5,%hi(.LANCHOR9)
	addi	s5,s5,%lo(.LANCHOR9)
	mv	s4,a0
	mv	s0,a2
	addi	s3,s5,620
	.loc 1 2542 26
	li	s1,32
	.loc 1 2542 14
	li	s2,0
	li	a4,0
.LVL590:
.L636:
	.loc 1 2551 5 is_stmt 1 discriminator 1
	.loc 1 2553 6 discriminator 1
	.loc 1 2553 13 is_stmt 0 discriminator 1
	addi	s1,s1,-1
.LVL591:
	.loc 1 2554 6 is_stmt 1 discriminator 1
.LBB423:
.LBB424:
	.loc 1 3887 19 is_stmt 0 discriminator 1
	slli	a5,s1,2
	add	a5,a5,s1
	slli	a5,a5,2
	add	a5,s5,a5
	lw	a5,0(a5)
.LBE424:
.LBE423:
	.loc 1 2554 66 discriminator 1
	add	a0,a4,s2
	slli	a0,a0,2
.LBB428:
.LBB425:
	mv	a1,s3
	li	a2,1
.LBE425:
.LBE428:
	.loc 1 2554 16 discriminator 1
	add	a0,s4,a0
.LVL592:
.LBB429:
.LBB426:
	.loc 1 3884 2 is_stmt 1 discriminator 1
	.loc 1 3885 2 discriminator 1
	.loc 1 3887 3 discriminator 1
	.loc 1 3887 5 is_stmt 0 discriminator 1
	beq	a5,zero,.L635
	call	prvListTasksWithinSingleList.part.0
.LVL593:
.LBE426:
.LBE429:
	.loc 1 2554 13
	add	s2,s2,a0
.LVL594:
	.loc 1 2560 65
	slli	a4,s2,3
	add	a0,a4,s2
	slli	a0,a0,2
	.loc 1 2560 15
	add	a0,s4,a0
.L635:
.LVL595:
.LBB430:
.LBB427:
	.loc 1 3904 4 is_stmt 1
	.loc 1 3907 3
.LBE427:
.LBE430:
	.loc 1 2556 12
	.loc 1 2556 5 is_stmt 0
	addi	s3,s3,-20
	bne	s1,zero,.L636
	.loc 1 2560 5 is_stmt 1
	.loc 1 2560 15 is_stmt 0
	lui	a5,%hi(.LANCHOR5)
	lw	a1,%lo(.LANCHOR5)(a5)
.LVL596:
.LBB431:
.LBB432:
	.loc 1 3884 2 is_stmt 1
	.loc 1 3885 2
	.loc 1 3887 3
	.loc 1 3887 19 is_stmt 0
	lw	a5,0(a1)
	.loc 1 3887 5
	beq	a5,zero,.L637
	li	a2,2
	call	prvListTasksWithinSingleList.part.0
.LVL597:
.LBE432:
.LBE431:
	.loc 1 2560 12
	add	s2,s2,a0
	.loc 1 2561 65
	slli	a5,s2,3
	add	a5,a5,s2
	slli	a5,a5,2
	.loc 1 2561 15
	add	a0,s4,a5
.L637:
.LVL598:
.LBB434:
.LBB433:
	.loc 1 3904 4 is_stmt 1
	.loc 1 3907 3
.LBE433:
.LBE434:
	.loc 1 2561 5
	.loc 1 2561 15 is_stmt 0
	lui	a5,%hi(.LANCHOR4)
	lw	a1,%lo(.LANCHOR4)(a5)
.LVL599:
.LBB435:
.LBB436:
	.loc 1 3884 2 is_stmt 1
	.loc 1 3885 2
	.loc 1 3887 3
	.loc 1 3887 19 is_stmt 0
	lw	a5,0(a1)
	.loc 1 3887 5
	beq	a5,zero,.L638
	li	a2,2
	call	prvListTasksWithinSingleList.part.0
.LVL600:
.LBE436:
.LBE435:
	.loc 1 2561 12
	add	s2,s2,a0
	.loc 1 2567 66
	slli	a5,s2,3
	add	a5,a5,s2
	slli	a5,a5,2
	.loc 1 2567 16
	add	a0,s4,a5
.L638:
.LVL601:
.LBB438:
.LBB437:
	.loc 1 3904 4 is_stmt 1
	.loc 1 3907 3
.LBE437:
.LBE438:
	.loc 1 2567 6
.LBB439:
.LBB440:
	.loc 1 3884 2
	.loc 1 3885 2
	.loc 1 3887 3
	.loc 1 3887 19 is_stmt 0
	lui	a1,%hi(.LANCHOR12)
	addi	a5,a1,%lo(.LANCHOR12)
	lw	a5,0(a5)
	.loc 1 3887 5
	beq	a5,zero,.L639
	li	a2,4
	addi	a1,a1,%lo(.LANCHOR12)
	call	prvListTasksWithinSingleList.part.0
.LVL602:
.LBE440:
.LBE439:
	.loc 1 2567 13
	add	s2,s2,a0
	.loc 1 2575 66
	slli	a5,s2,3
	add	a5,a5,s2
	slli	a5,a5,2
	.loc 1 2575 16
	add	a0,s4,a5
.L639:
.LVL603:
.LBB442:
.LBB441:
	.loc 1 3904 4 is_stmt 1
	.loc 1 3907 3
.LBE441:
.LBE442:
	.loc 1 2575 6
.LBB443:
.LBB444:
	.loc 1 3884 2
	.loc 1 3885 2
	.loc 1 3887 3
	.loc 1 3887 19 is_stmt 0
	lui	a1,%hi(.LANCHOR3)
	addi	a5,a1,%lo(.LANCHOR3)
	lw	a5,0(a5)
	.loc 1 3887 5
	beq	a5,zero,.L640
	li	a2,3
	addi	a1,a1,%lo(.LANCHOR3)
	call	prvListTasksWithinSingleList.part.0
.LVL604:
.LBE444:
.LBE443:
	.loc 1 2575 13
	add	s2,s2,a0
.L640:
.LVL605:
.LBB446:
.LBB445:
	.loc 1 3904 4 is_stmt 1
	.loc 1 3907 3
.LBE445:
.LBE446:
	.loc 1 2592 6
	.loc 1 2592 8 is_stmt 0
	beq	s0,zero,.L634
	.loc 1 2594 7 is_stmt 1
	.loc 1 2594 24 is_stmt 0
	sw	zero,0(s0)
.LVL606:
.L634:
	.loc 1 2601 5 is_stmt 1
	.loc 1 2604 3
	.loc 1 2604 12 is_stmt 0
	call	xTaskResumeAll
.LVL607:
	.loc 1 2606 3 is_stmt 1
	.loc 1 2607 2 is_stmt 0
	lw	ra,28(sp)
	.cfi_restore 1
	lw	s0,24(sp)
	.cfi_restore 8
	lw	s1,20(sp)
	.cfi_restore 9
	lw	s3,12(sp)
	.cfi_restore 19
	lw	s4,8(sp)
	.cfi_restore 20
	lw	s5,4(sp)
	.cfi_restore 21
	mv	a0,s2
	lw	s2,16(sp)
	.cfi_restore 18
.LVL608:
	addi	sp,sp,32
	.cfi_def_cfa_offset 0
	jr	ra
	.cfi_endproc
.LFE29:
	.size	uxTaskGetSystemState, .-uxTaskGetSystemState
	.section	.text.xTaskCheckForTimeOut,"ax",@progbits
	.align	1
	.globl	xTaskCheckForTimeOut
	.type	xTaskCheckForTimeOut, @function
xTaskCheckForTimeOut:
.LFB42:
	.loc 1 3388 1 is_stmt 1
	.cfi_startproc
.LVL609:
	.loc 1 3389 1
	.loc 1 3391 2
	.loc 1 3388 1 is_stmt 0
	addi	sp,sp,-16
	.cfi_def_cfa_offset 16
	sw	s0,8(sp)
	sw	s1,4(sp)
	sw	ra,12(sp)
	sw	s2,0(sp)
	.cfi_offset 8, -8
	.cfi_offset 9, -12
	.cfi_offset 1, -4
	.cfi_offset 18, -16
	.loc 1 3388 1
	mv	s0,a0
	mv	s1,a1
	.loc 1 3391 4
	beq	a0,zero,.L675
	.loc 1 3392 2 is_stmt 1
	.loc 1 3392 4 is_stmt 0
	beq	s1,zero,.L676
.LVL610:
.L664:
	.loc 1 3394 2 is_stmt 1
.LBB454:
.LBB455:
	.loc 1 4431 3
 #APP
# 4431 "/mnt/d/GitHub/bl_iot_sdk_for_aithinker/components/platform/soc/bl602/freertos_riscv_ram/tasks.c" 1
	csrc mstatus, 8
# 0 "" 2
	.loc 1 4433 3
	.loc 1 4433 25 is_stmt 0
 #NO_APP
	lui	a5,%hi(.LANCHOR11)
	lw	a5,%lo(.LANCHOR11)(a5)
	.loc 1 4433 5
	beq	a5,zero,.L665
.LBB456:
.LBB457:
	.loc 1 4435 4 is_stmt 1
	.loc 1 4435 18 is_stmt 0
	lui	a5,%hi(.LANCHOR1)
	addi	a5,a5,%lo(.LANCHOR1)
	lw	a4,0(a5)
	.loc 1 4443 20
	lw	a5,0(a5)
	.loc 1 4435 39
	lw	a5,68(a4)
	addi	a5,a5,1
	sw	a5,68(a4)
	.loc 1 4443 4 is_stmt 1
	.loc 1 4445 5
	.loc 1 4450 4
.L665:
.LBE457:
.LBE456:
	.loc 1 4450 4
.LBE455:
.LBE454:
.LBB458:
	.loc 1 3397 3
	.loc 1 3397 20 is_stmt 0
	lui	a5,%hi(.LANCHOR0)
	addi	a5,a5,%lo(.LANCHOR0)
	.loc 1 3412 8
	lw	a4,0(s1)
	.loc 1 3397 20
	lw	a2,0(a5)
.LVL611:
	.loc 1 3398 3 is_stmt 1
	.loc 1 3412 4
	.loc 1 3412 6 is_stmt 0
	li	a3,-1
	.loc 1 3417 13
	li	s2,0
	.loc 1 3412 6
	beq	a4,a3,.L666
	.loc 1 3422 25
	lui	a3,%hi(.LANCHOR15)
	addi	a3,a3,%lo(.LANCHOR15)
	lw	a0,0(a3)
	.loc 1 3422 5
	lw	a6,0(s0)
	.loc 1 3398 62
	lw	a1,4(s0)
	.loc 1 3422 3 is_stmt 1
	.loc 1 3422 5 is_stmt 0
	beq	a6,a0,.L667
	.loc 1 3429 12 discriminator 1
	li	s2,1
	.loc 1 3422 56 discriminator 1
	bleu	a1,a2,.L666
.L667:
	.loc 1 3431 8 is_stmt 1
	.loc 1 3398 20 is_stmt 0
	sub	a0,a2,a1
	.loc 1 3431 10
	bleu	a4,a0,.L668
	.loc 1 3434 4 is_stmt 1
.LBB459:
.LBB460:
	.loc 1 3382 28 is_stmt 0
	lw	a3,0(a3)
.LBE460:
.LBE459:
	.loc 1 3434 19
	sub	a4,a4,a2
.LBB463:
.LBB461:
	.loc 1 3383 29
	lw	a5,0(a5)
.LBE461:
.LBE463:
	.loc 1 3434 19
	add	a4,a4,a1
	sw	a4,0(s1)
.LVL612:
	.loc 1 3435 4 is_stmt 1
.LBB464:
.LBB462:
	.loc 1 3382 2
	.loc 1 3382 28 is_stmt 0
	sw	a3,0(s0)
	.loc 1 3383 2 is_stmt 1
	.loc 1 3383 29 is_stmt 0
	sw	a5,4(s0)
.LVL613:
.LBE462:
.LBE464:
	.loc 1 3436 4 is_stmt 1
	.loc 1 3436 12 is_stmt 0
	li	s2,0
.LVL614:
.L666:
.LBE458:
	.loc 1 3444 2 is_stmt 1
	call	vTaskExitCritical
.LVL615:
	.loc 1 3446 2
	.loc 1 3447 1 is_stmt 0
	lw	ra,12(sp)
	.cfi_remember_state
	.cfi_restore 1
	lw	s0,8(sp)
	.cfi_restore 8
.LVL616:
	lw	s1,4(sp)
	.cfi_restore 9
.LVL617:
	mv	a0,s2
	lw	s2,0(sp)
	.cfi_restore 18
.LVL618:
	addi	sp,sp,16
	.cfi_def_cfa_offset 0
	jr	ra
.LVL619:
.L668:
	.cfi_restore_state
.LBB465:
	.loc 1 3440 4 is_stmt 1
	.loc 1 3440 19 is_stmt 0
	sw	zero,0(s1)
	.loc 1 3441 4 is_stmt 1
.LVL620:
	.loc 1 3441 12 is_stmt 0
	li	s2,1
	j	.L666
.LVL621:
.L675:
.LBE465:
	.loc 1 3391 27 is_stmt 1 discriminator 1
	li	a0,2
	call	vEnvironmentCall
.LVL622:
	.loc 1 3392 2 discriminator 1
	.loc 1 3392 4 is_stmt 0 discriminator 1
	bne	s1,zero,.L664
.L676:
	.loc 1 3392 31 is_stmt 1 discriminator 1
	li	a0,2
	call	vEnvironmentCall
.LVL623:
	j	.L664
	.cfi_endproc
.LFE42:
	.size	xTaskCheckForTimeOut, .-xTaskCheckForTimeOut
	.section	.rodata.vTaskList.str1.4,"aMS",@progbits,1
	.align	2
.LC1:
	.string	"\t%c\t%u\t%u\t%u\t%p\r\n"
	.section	.text.vTaskList,"ax",@progbits
	.align	1
	.globl	vTaskList
	.type	vTaskList, @function
vTaskList:
.LFB64:
	.loc 1 4519 2
	.cfi_startproc
.LVL624:
	.loc 1 4520 2
	.loc 1 4521 2
	.loc 1 4522 2
	.loc 1 4550 3
	.loc 1 4519 2 is_stmt 0
	addi	sp,sp,-48
	.cfi_def_cfa_offset 48
	.loc 1 4554 15
	lui	a5,%hi(.LANCHOR13)
	.loc 1 4519 2
	sw	s0,40(sp)
	sw	ra,44(sp)
	sw	s1,36(sp)
	sw	s2,32(sp)
	sw	s3,28(sp)
	sw	s4,24(sp)
	sw	s5,20(sp)
	sw	s6,16(sp)
	sw	s7,12(sp)
	sw	s8,8(sp)
	sw	s9,4(sp)
	sw	s10,0(sp)
	.cfi_offset 8, -8
	.cfi_offset 1, -4
	.cfi_offset 9, -12
	.cfi_offset 18, -16
	.cfi_offset 19, -20
	.cfi_offset 20, -24
	.cfi_offset 21, -28
	.cfi_offset 22, -32
	.cfi_offset 23, -36
	.cfi_offset 24, -40
	.cfi_offset 25, -44
	.cfi_offset 26, -48
	.loc 1 4554 15
	addi	a5,a5,%lo(.LANCHOR13)
	lw	s1,0(a5)
	.loc 1 4559 23
	lw	a5,0(a5)
	.loc 1 4519 2
	mv	s0,a0
	.loc 1 4550 18
	sb	zero,0(s0)
	.loc 1 4554 3 is_stmt 1
.LVL625:
	.loc 1 4559 3
	.loc 1 4559 60 is_stmt 0
	slli	a0,a5,3
.LVL626:
	add	a0,a0,a5
	.loc 1 4559 23
	slli	a0,a0,2
	call	pvPortMalloc
.LVL627:
	.loc 1 4561 3 is_stmt 1
	.loc 1 4561 5 is_stmt 0
	beq	a0,zero,.L677
	.loc 1 4564 18
	li	a2,0
	mv	a1,s1
	mv	s3,a0
	.loc 1 4564 4 is_stmt 1
	.loc 1 4564 18 is_stmt 0
	call	uxTaskGetSystemState
.LVL628:
	mv	s2,a0
.LVL629:
	.loc 1 4567 4 is_stmt 1
	.loc 1 4567 16
	.loc 1 4567 4 is_stmt 0
	beq	a0,zero,.L684
	.loc 1 4598 5
	lui	s7,%hi(.LANCHOR21)
	addi	s9,s3,4
	.loc 1 4567 11
	li	s1,0
	lui	s6,%hi(.LC1)
	li	s5,4
	.loc 1 4598 5
	addi	s7,s7,%lo(.LANCHOR21)
.LBB468:
.LBB469:
	.loc 1 4501 3
	li	s4,14
	.loc 1 4503 18
	li	s8,32
.LVL630:
.L683:
.LBE469:
.LBE468:
	.loc 1 4569 5 is_stmt 1
	.loc 1 4569 35 is_stmt 0
	lw	a5,8(s9)
	li	s10,0
	bgtu	a5,s5,.L680
	.loc 1 4598 5
	add	a5,s7,a5
	lbu	s10,0(a5)
.L680:
	.loc 1 4595 5 is_stmt 1 discriminator 2
.LVL631:
.LBB471:
.LBB470:
	.loc 1 4494 2 discriminator 2
	.loc 1 4497 3 discriminator 2
	lw	a1,0(s9)
	mv	a0,s0
	call	strcpy
.LVL632:
	.loc 1 4501 3 discriminator 2
	.loc 1 4501 12 is_stmt 0 discriminator 2
	mv	a0,s0
	call	strlen
.LVL633:
	.loc 1 4501 32 is_stmt 1 discriminator 2
	.loc 1 4501 3 is_stmt 0 discriminator 2
	bgtu	a0,s4,.L681
	add	a5,s0,a0
	addi	a4,s0,15
.LVL634:
.L682:
	.loc 1 4503 4 is_stmt 1
	.loc 1 4503 18 is_stmt 0
	sb	s8,0(a5)
	.loc 1 4501 63 is_stmt 1
.LVL635:
	.loc 1 4501 32
	.loc 1 4501 3 is_stmt 0
	addi	a5,a5,1
.LVL636:
	bne	a4,a5,.L682
	.loc 1 4501 64
	li	a0,15
.LVL637:
.L681:
	.loc 1 4507 3 is_stmt 1
	.loc 1 4507 11 is_stmt 0
	add	s0,s0,a0
.LVL638:
	.loc 1 4507 17
	sb	zero,0(s0)
	.loc 1 4510 3 is_stmt 1
.LVL639:
.LBE470:
.LBE471:
	.loc 1 4598 5
	lw	a6,24(s9)
	lw	a5,4(s9)
	lhu	a4,28(s9)
	lw	a3,12(s9)
	mv	a2,s10
	addi	a1,s6,%lo(.LC1)
	mv	a0,s0
	call	sprintf
.LVL640:
	.loc 1 4601 5
	.loc 1 4601 22 is_stmt 0
	mv	a0,s0
	call	strlen
.LVL641:
	.loc 1 4567 34
	addi	s1,s1,1
.LVL642:
	.loc 1 4601 19
	add	s0,s0,a0
.LVL643:
	.loc 1 4567 33 is_stmt 1
	.loc 1 4567 16
	.loc 1 4567 4 is_stmt 0
	addi	s9,s9,36
	bne	s2,s1,.L683
.LVL644:
.L684:
	.loc 1 4606 4 is_stmt 1
	.loc 1 4612 2 is_stmt 0
	lw	s0,40(sp)
	.cfi_remember_state
	.cfi_restore 8
.LVL645:
	lw	ra,44(sp)
	.cfi_restore 1
	lw	s1,36(sp)
	.cfi_restore 9
	lw	s2,32(sp)
	.cfi_restore 18
.LVL646:
	lw	s4,24(sp)
	.cfi_restore 20
	lw	s5,20(sp)
	.cfi_restore 21
	lw	s6,16(sp)
	.cfi_restore 22
	lw	s7,12(sp)
	.cfi_restore 23
	lw	s8,8(sp)
	.cfi_restore 24
	lw	s9,4(sp)
	.cfi_restore 25
	lw	s10,0(sp)
	.cfi_restore 26
	.loc 1 4606 4
	mv	a0,s3
	.loc 1 4612 2
	lw	s3,28(sp)
	.cfi_restore 19
.LVL647:
	addi	sp,sp,48
	.cfi_def_cfa_offset 0
	.loc 1 4606 4
	tail	vPortFree
.LVL648:
.L677:
	.cfi_restore_state
	.loc 1 4612 2
	lw	ra,44(sp)
	.cfi_restore 1
	lw	s0,40(sp)
	.cfi_restore 8
.LVL649:
	lw	s1,36(sp)
	.cfi_restore 9
.LVL650:
	lw	s2,32(sp)
	.cfi_restore 18
	lw	s3,28(sp)
	.cfi_restore 19
	lw	s4,24(sp)
	.cfi_restore 20
	lw	s5,20(sp)
	.cfi_restore 21
	lw	s6,16(sp)
	.cfi_restore 22
	lw	s7,12(sp)
	.cfi_restore 23
	lw	s8,8(sp)
	.cfi_restore 24
	lw	s9,4(sp)
	.cfi_restore 25
	lw	s10,0(sp)
	.cfi_restore 26
	addi	sp,sp,48
	.cfi_def_cfa_offset 0
	jr	ra
	.cfi_endproc
.LFE64:
	.size	vTaskList, .-vTaskList
	.section	.text.uxTaskResetEventItemValue,"ax",@progbits
	.align	1
	.globl	uxTaskResetEventItemValue
	.type	uxTaskResetEventItemValue, @function
uxTaskResetEventItemValue:
.LFB65:
	.loc 1 4745 1 is_stmt 1
	.cfi_startproc
	.loc 1 4746 1
	.loc 1 4748 2
	.loc 1 4748 32 is_stmt 0
	lui	a5,%hi(.LANCHOR1)
	addi	a5,a5,%lo(.LANCHOR1)
	lw	a2,0(a5)
	.loc 1 4752 111
	lw	a3,0(a5)
	.loc 1 4752 21
	lw	a4,0(a5)
	.loc 1 4752 82
	li	a5,32
	lw	a3,44(a3)
	.loc 1 4748 11
	lw	a0,24(a2)
.LVL651:
	.loc 1 4752 2 is_stmt 1
	.loc 1 4752 82 is_stmt 0
	sub	a5,a5,a3
	.loc 1 4752 54
	sw	a5,24(a4)
	.loc 1 4754 2 is_stmt 1
	.loc 1 4755 1 is_stmt 0
	ret
	.cfi_endproc
.LFE65:
	.size	uxTaskResetEventItemValue, .-uxTaskResetEventItemValue
	.section	.text.pvTaskIncrementMutexHeldCount,"ax",@progbits
	.align	1
	.globl	pvTaskIncrementMutexHeldCount
	.type	pvTaskIncrementMutexHeldCount, @function
pvTaskIncrementMutexHeldCount:
.LFB66:
	.loc 1 4761 2 is_stmt 1
	.cfi_startproc
	.loc 1 4764 3
	.loc 1 4764 20 is_stmt 0
	lui	a5,%hi(.LANCHOR1)
	addi	a5,a5,%lo(.LANCHOR1)
	lw	a4,0(a5)
	.loc 1 4764 5
	beq	a4,zero,.L691
	.loc 1 4766 4 is_stmt 1
	.loc 1 4766 18 is_stmt 0
	lw	a3,0(a5)
	.loc 1 4766 35
	lw	a4,84(a3)
	addi	a4,a4,1
	sw	a4,84(a3)
.L691:
	.loc 1 4769 3 is_stmt 1
	.loc 1 4769 10 is_stmt 0
	lw	a0,0(a5)
	.loc 1 4770 2
	ret
	.cfi_endproc
.LFE66:
	.size	pvTaskIncrementMutexHeldCount, .-pvTaskIncrementMutexHeldCount
	.section	.text.ulTaskNotifyTake,"ax",@progbits
	.align	1
	.globl	ulTaskNotifyTake
	.type	ulTaskNotifyTake, @function
ulTaskNotifyTake:
.LFB67:
	.loc 1 4778 2 is_stmt 1
	.cfi_startproc
.LVL652:
	.loc 1 4779 2
	.loc 1 4781 3
.LBB480:
.LBB481:
	.loc 1 4431 3
.LBE481:
.LBE480:
	.loc 1 4778 2 is_stmt 0
	addi	sp,sp,-16
	.cfi_def_cfa_offset 16
	sw	s2,0(sp)
	sw	ra,12(sp)
	sw	s0,8(sp)
	sw	s1,4(sp)
	.cfi_offset 18, -16
	.cfi_offset 1, -4
	.cfi_offset 8, -8
	.cfi_offset 9, -12
	.loc 1 4778 2
	mv	s2,a0
.LBB487:
.LBB486:
	.loc 1 4431 3
 #APP
# 4431 "/mnt/d/GitHub/bl_iot_sdk_for_aithinker/components/platform/soc/bl602/freertos_riscv_ram/tasks.c" 1
	csrc mstatus, 8
# 0 "" 2
	.loc 1 4433 3 is_stmt 1
	.loc 1 4433 25 is_stmt 0
 #NO_APP
	lui	s1,%hi(.LANCHOR11)
	addi	s1,s1,%lo(.LANCHOR11)
	lw	a5,0(s1)
.LBB482:
.LBB483:
	.loc 1 4435 18
	lui	s0,%hi(.LANCHOR1)
	addi	s0,s0,%lo(.LANCHOR1)
.LBE483:
.LBE482:
	.loc 1 4433 5
	beq	a5,zero,.L696
.LBB485:
.LBB484:
	.loc 1 4435 4 is_stmt 1
	.loc 1 4435 18 is_stmt 0
	lw	a4,0(s0)
	.loc 1 4443 20
	lw	a5,0(s0)
	.loc 1 4435 39
	lw	a5,68(a4)
	addi	a5,a5,1
	sw	a5,68(a4)
	.loc 1 4443 4 is_stmt 1
	.loc 1 4445 5
	.loc 1 4450 4
.L696:
.LBE484:
.LBE485:
	.loc 1 4450 4
.LBE486:
.LBE487:
	.loc 1 4784 4
	.loc 1 4784 20 is_stmt 0
	lw	a5,0(s0)
	lw	a5,88(a5)
	.loc 1 4784 6
	bne	a5,zero,.L698
	.loc 1 4787 5 is_stmt 1
	.loc 1 4787 17 is_stmt 0
	lw	a5,0(s0)
	.loc 1 4787 33
	li	a4,1
	sb	a4,92(a5)
	.loc 1 4789 5 is_stmt 1
	.loc 1 4789 7 is_stmt 0
	bne	a1,zero,.L716
.LVL653:
.L698:
	.loc 1 4807 5 is_stmt 1
	.loc 1 4810 3
	call	vTaskExitCritical
.LVL654:
	.loc 1 4812 3
.LBB488:
.LBB489:
	.loc 1 4431 3
 #APP
# 4431 "/mnt/d/GitHub/bl_iot_sdk_for_aithinker/components/platform/soc/bl602/freertos_riscv_ram/tasks.c" 1
	csrc mstatus, 8
# 0 "" 2
	.loc 1 4433 3
	.loc 1 4433 25 is_stmt 0
 #NO_APP
	lw	a5,0(s1)
	.loc 1 4433 5
	beq	a5,zero,.L700
.LBB490:
.LBB491:
	.loc 1 4435 4 is_stmt 1
	.loc 1 4435 18 is_stmt 0
	lw	a4,0(s0)
	.loc 1 4443 20
	lw	a5,0(s0)
	.loc 1 4435 39
	lw	a5,68(a4)
	addi	a5,a5,1
	sw	a5,68(a4)
	.loc 1 4443 4 is_stmt 1
	.loc 1 4445 5
	.loc 1 4450 4
.L700:
.LBE491:
.LBE490:
	.loc 1 4450 4
.LBE489:
.LBE488:
	.loc 1 4814 4
	.loc 1 4815 4
	.loc 1 4815 27 is_stmt 0
	lw	a5,0(s0)
	.loc 1 4815 13
	lw	s1,88(a5)
.LVL655:
	.loc 1 4817 4 is_stmt 1
	.loc 1 4817 6 is_stmt 0
	beq	s1,zero,.L701
	.loc 1 4819 5 is_stmt 1
	.loc 1 4821 18 is_stmt 0
	lw	a5,0(s0)
	.loc 1 4819 7
	beq	s2,zero,.L702
	.loc 1 4821 6 is_stmt 1
	.loc 1 4821 36 is_stmt 0
	sw	zero,88(a5)
.L701:
	.loc 1 4830 5 is_stmt 1
	.loc 1 4833 4
	.loc 1 4833 16 is_stmt 0
	lw	a5,0(s0)
	.loc 1 4833 32
	sb	zero,92(a5)
	.loc 1 4835 3 is_stmt 1
	call	vTaskExitCritical
.LVL656:
	.loc 1 4837 3
	.loc 1 4838 2 is_stmt 0
	lw	ra,12(sp)
	.cfi_remember_state
	.cfi_restore 1
	lw	s0,8(sp)
	.cfi_restore 8
	lw	s2,0(sp)
	.cfi_restore 18
.LVL657:
	mv	a0,s1
	lw	s1,4(sp)
	.cfi_restore 9
.LVL658:
	addi	sp,sp,16
	.cfi_def_cfa_offset 0
	jr	ra
.LVL659:
.L702:
	.cfi_restore_state
	.loc 1 4825 6 is_stmt 1
	.loc 1 4825 47 is_stmt 0
	addi	a4,s1,-1
	.loc 1 4825 36
	sw	a4,88(a5)
	j	.L701
.LVL660:
.L716:
	.loc 1 4791 6 is_stmt 1
	mv	a0,a1
.LVL661:
	li	a1,1
.LVL662:
	call	prvAddCurrentTaskToDelayedList
.LVL663:
	.loc 1 4792 6
	.loc 1 4798 6
	li	a0,1
	call	vEnvironmentCall
.LVL664:
	j	.L698
	.cfi_endproc
.LFE67:
	.size	ulTaskNotifyTake, .-ulTaskNotifyTake
	.section	.text.xTaskNotifyWait,"ax",@progbits
	.align	1
	.globl	xTaskNotifyWait
	.type	xTaskNotifyWait, @function
xTaskNotifyWait:
.LFB68:
	.loc 1 4846 2
	.cfi_startproc
.LVL665:
	.loc 1 4847 2
	.loc 1 4849 3
.LBB500:
.LBB501:
	.loc 1 4431 3
.LBE501:
.LBE500:
	.loc 1 4846 2 is_stmt 0
	addi	sp,sp,-32
	.cfi_def_cfa_offset 32
	sw	s2,16(sp)
	sw	s3,12(sp)
	sw	ra,28(sp)
	sw	s0,24(sp)
	sw	s1,20(sp)
	.cfi_offset 18, -16
	.cfi_offset 19, -20
	.cfi_offset 1, -4
	.cfi_offset 8, -8
	.cfi_offset 9, -12
	.loc 1 4846 2
	mv	s2,a1
	mv	s3,a2
.LBB507:
.LBB506:
	.loc 1 4431 3
 #APP
# 4431 "/mnt/d/GitHub/bl_iot_sdk_for_aithinker/components/platform/soc/bl602/freertos_riscv_ram/tasks.c" 1
	csrc mstatus, 8
# 0 "" 2
	.loc 1 4433 3 is_stmt 1
	.loc 1 4433 25 is_stmt 0
 #NO_APP
	lui	s1,%hi(.LANCHOR11)
	addi	s1,s1,%lo(.LANCHOR11)
	lw	a5,0(s1)
.LBB502:
.LBB503:
	.loc 1 4435 18
	lui	s0,%hi(.LANCHOR1)
	addi	s0,s0,%lo(.LANCHOR1)
.LBE503:
.LBE502:
	.loc 1 4433 5
	beq	a5,zero,.L718
.LBB505:
.LBB504:
	.loc 1 4435 4 is_stmt 1
	.loc 1 4435 18 is_stmt 0
	lw	a4,0(s0)
	.loc 1 4443 20
	lw	a5,0(s0)
	.loc 1 4435 39
	lw	a5,68(a4)
	addi	a5,a5,1
	sw	a5,68(a4)
	.loc 1 4443 4 is_stmt 1
	.loc 1 4445 5
	.loc 1 4450 4
.L718:
.LBE504:
.LBE505:
	.loc 1 4450 4
.LBE506:
.LBE507:
	.loc 1 4852 4
	.loc 1 4852 20 is_stmt 0
	lw	a5,0(s0)
	.loc 1 4852 6
	li	a4,2
	.loc 1 4852 20
	lbu	a5,92(a5)
	andi	a5,a5,0xff
	.loc 1 4852 6
	beq	a5,a4,.L720
	.loc 1 4857 5 is_stmt 1
	.loc 1 4857 35 is_stmt 0
	lw	a4,0(s0)
	.loc 1 4857 38
	not	a5,a0
	.loc 1 4857 35
	lw	a0,88(a4)
.LVL666:
	and	a5,a5,a0
.LVL667:
	sw	a5,88(a4)
	.loc 1 4860 5 is_stmt 1
	.loc 1 4860 17 is_stmt 0
	lw	a5,0(s0)
	.loc 1 4860 33
	li	a4,1
	sb	a4,92(a5)
	.loc 1 4862 5 is_stmt 1
	.loc 1 4862 7 is_stmt 0
	bne	a3,zero,.L739
.LVL668:
.L720:
	.loc 1 4880 5 is_stmt 1
	.loc 1 4883 3
	call	vTaskExitCritical
.LVL669:
	.loc 1 4885 3
.LBB508:
.LBB509:
	.loc 1 4431 3
 #APP
# 4431 "/mnt/d/GitHub/bl_iot_sdk_for_aithinker/components/platform/soc/bl602/freertos_riscv_ram/tasks.c" 1
	csrc mstatus, 8
# 0 "" 2
	.loc 1 4433 3
	.loc 1 4433 25 is_stmt 0
 #NO_APP
	lw	a5,0(s1)
	.loc 1 4433 5
	beq	a5,zero,.L722
.LBB510:
.LBB511:
	.loc 1 4435 4 is_stmt 1
	.loc 1 4435 18 is_stmt 0
	lw	a4,0(s0)
	.loc 1 4443 20
	lw	a5,0(s0)
	.loc 1 4435 39
	lw	a5,68(a4)
	addi	a5,a5,1
	sw	a5,68(a4)
	.loc 1 4443 4 is_stmt 1
	.loc 1 4445 5
	.loc 1 4450 4
.L722:
.LBE511:
.LBE510:
	.loc 1 4450 4
.LBE509:
.LBE508:
	.loc 1 4887 4
	.loc 1 4889 4
	.loc 1 4889 6 is_stmt 0
	beq	s3,zero,.L723
	.loc 1 4893 5 is_stmt 1
	.loc 1 4893 41 is_stmt 0
	lw	a5,0(s0)
	lw	a5,88(a5)
	.loc 1 4893 27
	sw	a5,0(s3)
.L723:
	.loc 1 4900 4 is_stmt 1
	.loc 1 4900 20 is_stmt 0
	lw	a5,0(s0)
	.loc 1 4900 6
	li	a4,2
	.loc 1 4903 13
	li	s1,0
	.loc 1 4900 20
	lbu	a5,92(a5)
	andi	a5,a5,0xff
	.loc 1 4900 6
	bne	a5,a4,.L724
	.loc 1 4909 5 is_stmt 1
	.loc 1 4909 35 is_stmt 0
	lw	a5,0(s0)
	.loc 1 4909 38
	not	s2,s2
.LVL670:
	.loc 1 4910 13
	li	s1,1
	.loc 1 4909 35
	lw	a1,88(a5)
	and	s2,s2,a1
.LVL671:
	sw	s2,88(a5)
	.loc 1 4910 5 is_stmt 1
.LVL672:
.L724:
	.loc 1 4913 4
	.loc 1 4913 16 is_stmt 0
	lw	a5,0(s0)
	.loc 1 4913 32
	sb	zero,92(a5)
	.loc 1 4915 3 is_stmt 1
	call	vTaskExitCritical
.LVL673:
	.loc 1 4917 3
	.loc 1 4918 2 is_stmt 0
	lw	ra,28(sp)
	.cfi_remember_state
	.cfi_restore 1
	lw	s0,24(sp)
	.cfi_restore 8
	lw	s2,16(sp)
	.cfi_restore 18
	lw	s3,12(sp)
	.cfi_restore 19
.LVL674:
	mv	a0,s1
	lw	s1,20(sp)
	.cfi_restore 9
.LVL675:
	addi	sp,sp,32
	.cfi_def_cfa_offset 0
	jr	ra
.LVL676:
.L739:
	.cfi_restore_state
	.loc 1 4864 6 is_stmt 1
	mv	a0,a3
	li	a1,1
.LVL677:
	call	prvAddCurrentTaskToDelayedList
.LVL678:
	.loc 1 4865 6
	.loc 1 4871 6
	li	a0,1
	call	vEnvironmentCall
.LVL679:
	j	.L720
	.cfi_endproc
.LFE68:
	.size	xTaskNotifyWait, .-xTaskNotifyWait
	.section	.text.xTaskGenericNotify,"ax",@progbits
	.align	1
	.globl	xTaskGenericNotify
	.type	xTaskGenericNotify, @function
xTaskGenericNotify:
.LFB69:
	.loc 1 4926 2
	.cfi_startproc
.LVL680:
	.loc 1 4927 2
	.loc 1 4928 2
	.loc 1 4929 2
	.loc 1 4931 3
	.loc 1 4926 2 is_stmt 0
	addi	sp,sp,-32
	.cfi_def_cfa_offset 32
	sw	s1,20(sp)
	sw	ra,28(sp)
	sw	s0,24(sp)
	sw	s2,16(sp)
	.cfi_offset 9, -12
	.cfi_offset 1, -4
	.cfi_offset 8, -8
	.cfi_offset 18, -16
	.loc 1 4926 2
	mv	s1,a0
	.loc 1 4931 5
	beq	a0,zero,.L768
.LVL681:
.L741:
	.loc 1 4932 3 is_stmt 1
	.loc 1 4934 3
.LBB516:
.LBB517:
	.loc 1 4431 3
 #APP
# 4431 "/mnt/d/GitHub/bl_iot_sdk_for_aithinker/components/platform/soc/bl602/freertos_riscv_ram/tasks.c" 1
	csrc mstatus, 8
# 0 "" 2
	.loc 1 4433 3
	.loc 1 4433 25 is_stmt 0
 #NO_APP
	lui	a5,%hi(.LANCHOR11)
	lw	a5,%lo(.LANCHOR11)(a5)
	.loc 1 4433 5
	beq	a5,zero,.L742
.LBB518:
.LBB519:
	.loc 1 4435 4 is_stmt 1
	.loc 1 4435 18 is_stmt 0
	lui	a5,%hi(.LANCHOR1)
	addi	a5,a5,%lo(.LANCHOR1)
	lw	a4,0(a5)
	.loc 1 4443 20
	lw	a5,0(a5)
	.loc 1 4435 39
	lw	a5,68(a4)
	addi	a5,a5,1
	sw	a5,68(a4)
	.loc 1 4443 4 is_stmt 1
	.loc 1 4445 5
	.loc 1 4450 4
.L742:
.LBE519:
.LBE518:
	.loc 1 4450 4
.LBE517:
.LBE516:
	.loc 1 4936 4
	.loc 1 4936 6 is_stmt 0
	beq	a3,zero,.L743
	.loc 1 4938 5 is_stmt 1
	.loc 1 4938 42 is_stmt 0
	lw	a5,88(s1)
	.loc 1 4938 35
	sw	a5,0(a3)
.L743:
	.loc 1 4941 4 is_stmt 1
	.loc 1 4941 26 is_stmt 0
	lbu	s2,92(s1)
	.loc 1 4943 25
	li	a5,2
	sb	a5,92(s1)
	li	a5,4
	.loc 1 4941 26
	andi	s2,s2,0xff
.LVL682:
	.loc 1 4943 4 is_stmt 1
	.loc 1 4945 4
	bgtu	a2,a5,.L744
	slli	s0,a2,2
	lui	a2,%hi(.L746)
	addi	a2,a2,%lo(.L746)
	add	s0,s0,a2
	lw	a5,0(s0)
	jr	a5
	.section	.rodata.xTaskGenericNotify,"a",@progbits
	.align	2
	.align	2
.L746:
	.word	.L750
	.word	.L749
	.word	.L748
	.word	.L766
	.word	.L745
	.section	.text.xTaskGenericNotify
.L745:
	.loc 1 4960 6
	.loc 1 4960 8 is_stmt 0
	li	a5,2
	.loc 1 4967 15
	li	s0,0
	.loc 1 4960 8
	beq	s2,a5,.L751
.L766:
	.loc 1 4962 7 is_stmt 1
	.loc 1 4962 30 is_stmt 0
	sw	a1,88(s1)
.L750:
	.loc 1 4985 4 is_stmt 1
	.loc 1 4989 4
	.loc 1 4989 6 is_stmt 0
	li	a5,1
	beq	s2,a5,.L752
.LVL683:
.L767:
	li	s0,1
.L751:
.LVL684:
	.loc 1 5026 5 is_stmt 1
	.loc 1 5029 3
	call	vTaskExitCritical
.LVL685:
	.loc 1 5031 3
	.loc 1 5032 2 is_stmt 0
	lw	ra,28(sp)
	.cfi_remember_state
	.cfi_restore 1
	mv	a0,s0
	lw	s0,24(sp)
	.cfi_restore 8
	lw	s1,20(sp)
	.cfi_restore 9
.LVL686:
	lw	s2,16(sp)
	.cfi_restore 18
	addi	sp,sp,32
	.cfi_def_cfa_offset 0
	jr	ra
.LVL687:
.L752:
	.cfi_restore_state
	.loc 1 4991 5 is_stmt 1
	.loc 1 4991 14 is_stmt 0
	addi	s0,s1,4
	mv	a0,s0
	call	uxListRemove
.LVL688:
	.loc 1 4992 5 is_stmt 1
	.loc 1 4992 7
	.loc 1 4992 53 is_stmt 0
	lw	a3,44(s1)
	.loc 1 4992 30
	lui	a4,%hi(.LANCHOR2)
	addi	a4,a4,%lo(.LANCHOR2)
	lw	a2,0(a4)
	.loc 1 4992 71
	slli	a5,a3,2
	add	a5,a5,a3
	lui	a0,%hi(.LANCHOR9)
	slli	a5,a5,2
	.loc 1 4992 39
	sll	s2,s2,a3
.LVL689:
	.loc 1 4992 71
	addi	a0,a0,%lo(.LANCHOR9)
	.loc 1 4992 30
	or	s2,s2,a2
	.loc 1 4992 71
	add	a0,a0,a5
	mv	a1,s0
	.loc 1 4992 30
	sw	s2,0(a4)
	.loc 1 4992 71 is_stmt 1
	call	vListInsertEnd
.LVL690:
	.loc 1 4992 170
	.loc 1 4995 5
	.loc 1 4995 7 is_stmt 0
	lw	a5,40(s1)
	beq	a5,zero,.L753
	.loc 1 4995 13 is_stmt 1 discriminator 1
	li	a0,2
	call	vEnvironmentCall
.LVL691:
.L753:
	.loc 1 5013 5
	.loc 1 5013 41 is_stmt 0
	lui	a5,%hi(.LANCHOR1)
	lw	a5,%lo(.LANCHOR1)(a5)
	.loc 1 5013 7
	lw	a4,44(s1)
	lw	a5,44(a5)
	bleu	a4,a5,.L767
	.loc 1 5017 6 is_stmt 1
	li	a0,1
	call	vEnvironmentCall
.LVL692:
	j	.L767
.LVL693:
.L748:
	.loc 1 4952 6
	.loc 1 4952 13 is_stmt 0
	lw	a5,88(s1)
	.loc 1 4952 32
	addi	a5,a5,1
	sw	a5,88(s1)
	.loc 1 4953 6 is_stmt 1
	.loc 1 4985 4
	.loc 1 4989 4
	.loc 1 4989 6 is_stmt 0
	li	a5,1
	bne	s2,a5,.L767
	j	.L752
.L749:
	.loc 1 4948 6 is_stmt 1
	.loc 1 4948 29 is_stmt 0
	lw	a5,88(s1)
	or	a1,a5,a1
	sw	a1,88(s1)
	.loc 1 4949 6 is_stmt 1
	.loc 1 4985 4
	.loc 1 4989 4
	.loc 1 4989 6 is_stmt 0
	li	a5,1
	bne	s2,a5,.L767
	j	.L752
.LVL694:
.L768:
	.loc 1 4931 32 discriminator 1
	li	a0,2
	sw	a3,12(sp)
	sw	a2,8(sp)
	sw	a1,4(sp)
	.loc 1 4931 32 is_stmt 1 discriminator 1
	call	vEnvironmentCall
.LVL695:
	lw	a3,12(sp)
	lw	a2,8(sp)
	lw	a1,4(sp)
	j	.L741
.LVL696:
.L744:
	.loc 1 4980 6
	.loc 1 4980 17 is_stmt 0
	lw	a4,88(s1)
	.loc 1 4980 8
	li	a5,-1
	beq	a4,a5,.L750
	.loc 1 4980 52 is_stmt 1 discriminator 1
	li	a0,2
	call	vEnvironmentCall
.LVL697:
	j	.L750
	.cfi_endproc
.LFE69:
	.size	xTaskGenericNotify, .-xTaskGenericNotify
	.section	.text.xTaskGenericNotifyFromISR,"ax",@progbits
	.align	1
	.globl	xTaskGenericNotifyFromISR
	.type	xTaskGenericNotifyFromISR, @function
xTaskGenericNotifyFromISR:
.LFB70:
	.loc 1 5040 2
	.cfi_startproc
.LVL698:
	.loc 1 5041 2
	.loc 1 5042 2
	.loc 1 5043 2
	.loc 1 5044 2
	.loc 1 5046 3
	.loc 1 5040 2 is_stmt 0
	addi	sp,sp,-48
	.cfi_def_cfa_offset 48
	sw	s1,36(sp)
	sw	s3,28(sp)
	sw	ra,44(sp)
	sw	s0,40(sp)
	sw	s2,32(sp)
	.cfi_offset 9, -12
	.cfi_offset 19, -20
	.cfi_offset 1, -4
	.cfi_offset 8, -8
	.cfi_offset 18, -16
	.loc 1 5040 2
	mv	s1,a0
	mv	s3,a4
	.loc 1 5046 5
	beq	a0,zero,.L799
.LVL699:
.L770:
	.loc 1 5064 3 is_stmt 1
	.loc 1 5066 3
	.loc 1 5068 3
	.loc 1 5070 4
	.loc 1 5070 6 is_stmt 0
	beq	a3,zero,.L771
	.loc 1 5072 5 is_stmt 1
	.loc 1 5072 42 is_stmt 0
	lw	a5,88(s1)
	.loc 1 5072 35
	sw	a5,0(a3)
.L771:
	.loc 1 5075 4 is_stmt 1
	.loc 1 5075 26 is_stmt 0
	lbu	s2,92(s1)
	.loc 1 5076 25
	li	a5,2
	sb	a5,92(s1)
	li	a5,4
	.loc 1 5075 26
	andi	s2,s2,0xff
.LVL700:
	.loc 1 5076 4 is_stmt 1
	.loc 1 5078 4
	bgtu	a2,a5,.L772
	slli	s0,a2,2
	lui	a2,%hi(.L774)
	addi	a2,a2,%lo(.L774)
	add	s0,s0,a2
	lw	a5,0(s0)
	jr	a5
	.section	.rodata.xTaskGenericNotifyFromISR,"a",@progbits
	.align	2
	.align	2
.L774:
	.word	.L778
	.word	.L777
	.word	.L776
	.word	.L797
	.word	.L773
	.section	.text.xTaskGenericNotifyFromISR
.L773:
	.loc 1 5093 6
	.loc 1 5093 8 is_stmt 0
	li	a5,2
	.loc 1 5100 15
	li	a0,0
	.loc 1 5093 8
	beq	s2,a5,.L769
.L797:
	.loc 1 5095 7 is_stmt 1
	.loc 1 5095 30 is_stmt 0
	sw	a1,88(s1)
.L778:
	.loc 1 5117 4 is_stmt 1
	.loc 1 5121 4
	.loc 1 5121 6 is_stmt 0
	li	a5,1
	beq	s2,a5,.L780
.L798:
	li	a0,1
.L769:
	.loc 1 5161 2
	lw	ra,44(sp)
	.cfi_remember_state
	.cfi_restore 1
	lw	s0,40(sp)
	.cfi_restore 8
	lw	s1,36(sp)
	.cfi_restore 9
.LVL701:
	lw	s2,32(sp)
	.cfi_restore 18
.LVL702:
	lw	s3,28(sp)
	.cfi_restore 19
.LVL703:
	addi	sp,sp,48
	.cfi_def_cfa_offset 0
	jr	ra
.LVL704:
.L780:
	.cfi_restore_state
	.loc 1 5124 5 is_stmt 1
	.loc 1 5124 7 is_stmt 0
	lw	a5,40(s1)
	beq	a5,zero,.L781
	.loc 1 5124 13 is_stmt 1 discriminator 1
	li	a0,2
	call	vEnvironmentCall
.LVL705:
.L781:
	.loc 1 5126 5
	.loc 1 5126 30 is_stmt 0
	lui	a5,%hi(.LANCHOR14)
	lw	a5,%lo(.LANCHOR14)(a5)
	.loc 1 5126 7
	bne	a5,zero,.L782
	.loc 1 5128 6 is_stmt 1
	.loc 1 5128 15 is_stmt 0
	addi	s0,s1,4
	mv	a0,s0
	call	uxListRemove
.LVL706:
	.loc 1 5129 6 is_stmt 1
	.loc 1 5129 8
	.loc 1 5129 54 is_stmt 0
	lw	a2,44(s1)
	.loc 1 5129 31
	lui	a3,%hi(.LANCHOR2)
	addi	a3,a3,%lo(.LANCHOR2)
	lw	a1,0(a3)
	.loc 1 5129 72
	slli	a4,a2,2
	add	a4,a4,a2
	.loc 1 5129 40
	li	a5,1
	.loc 1 5129 72
	lui	a0,%hi(.LANCHOR9)
	.loc 1 5129 40
	sll	a5,a5,a2
	.loc 1 5129 72
	slli	a4,a4,2
	addi	a0,a0,%lo(.LANCHOR9)
	.loc 1 5129 31
	or	a5,a5,a1
	.loc 1 5129 72
	add	a0,a0,a4
	mv	a1,s0
	.loc 1 5129 31
	sw	a5,0(a3)
	.loc 1 5129 72 is_stmt 1
	call	vListInsertEnd
.LVL707:
	.loc 1 5129 171
.L783:
	.loc 1 5138 5
	.loc 1 5138 41 is_stmt 0
	lui	a5,%hi(.LANCHOR1)
	lw	a5,%lo(.LANCHOR1)(a5)
	.loc 1 5138 7
	lw	a4,44(s1)
	lw	a5,44(a5)
	bleu	a4,a5,.L798
	.loc 1 5142 6 is_stmt 1
	.loc 1 5142 8 is_stmt 0
	beq	s3,zero,.L785
	.loc 1 5144 7 is_stmt 1
	.loc 1 5144 34 is_stmt 0
	li	a5,1
	sw	a5,0(s3)
.L785:
	.loc 1 5150 6 is_stmt 1
	.loc 1 5150 20 is_stmt 0
	lui	a5,%hi(.LANCHOR8)
	li	a4,1
	sw	a4,%lo(.LANCHOR8)(a5)
	j	.L798
.L776:
	.loc 1 5085 6 is_stmt 1
	.loc 1 5085 13 is_stmt 0
	lw	a5,88(s1)
	.loc 1 5085 32
	addi	a5,a5,1
	sw	a5,88(s1)
	.loc 1 5086 6 is_stmt 1
	.loc 1 5117 4
	.loc 1 5121 4
	.loc 1 5121 6 is_stmt 0
	li	a5,1
	bne	s2,a5,.L798
	j	.L780
.L777:
	.loc 1 5081 6 is_stmt 1
	.loc 1 5081 29 is_stmt 0
	lw	a5,88(s1)
	or	a1,a5,a1
	sw	a1,88(s1)
	.loc 1 5082 6 is_stmt 1
	.loc 1 5117 4
	.loc 1 5121 4
	.loc 1 5121 6 is_stmt 0
	li	a5,1
	bne	s2,a5,.L798
	j	.L780
.LVL708:
.L799:
	.loc 1 5046 32 discriminator 1
	li	a0,2
	sw	a3,12(sp)
	sw	a2,8(sp)
	sw	a1,4(sp)
	.loc 1 5046 32 is_stmt 1 discriminator 1
	call	vEnvironmentCall
.LVL709:
	lw	a3,12(sp)
	lw	a2,8(sp)
	lw	a1,4(sp)
	j	.L770
.LVL710:
.L782:
	.loc 1 5135 6
	lui	a0,%hi(.LANCHOR17)
	addi	a1,s1,24
	addi	a0,a0,%lo(.LANCHOR17)
	call	vListInsertEnd
.LVL711:
	j	.L783
.L772:
	.loc 1 5113 6
	.loc 1 5113 17 is_stmt 0
	lw	a4,88(s1)
	.loc 1 5113 8
	li	a5,-1
	beq	a4,a5,.L778
	.loc 1 5113 52 is_stmt 1 discriminator 1
	li	a0,2
	call	vEnvironmentCall
.LVL712:
	j	.L778
	.cfi_endproc
.LFE70:
	.size	xTaskGenericNotifyFromISR, .-xTaskGenericNotifyFromISR
	.section	.text.vTaskNotifyGiveFromISR,"ax",@progbits
	.align	1
	.globl	vTaskNotifyGiveFromISR
	.type	vTaskNotifyGiveFromISR, @function
vTaskNotifyGiveFromISR:
.LFB71:
	.loc 1 5169 2
	.cfi_startproc
.LVL713:
	.loc 1 5170 2
	.loc 1 5171 2
	.loc 1 5172 2
	.loc 1 5174 3
	.loc 1 5169 2 is_stmt 0
	addi	sp,sp,-16
	.cfi_def_cfa_offset 16
	sw	s0,8(sp)
	sw	s1,4(sp)
	sw	ra,12(sp)
	sw	s2,0(sp)
	.cfi_offset 8, -8
	.cfi_offset 9, -12
	.cfi_offset 1, -4
	.cfi_offset 18, -16
	.loc 1 5169 2
	mv	s0,a0
	mv	s1,a1
	.loc 1 5174 5
	beq	a0,zero,.L816
.LVL714:
.L801:
	.loc 1 5192 3 is_stmt 1
	.loc 1 5194 3
	.loc 1 5196 3
	.loc 1 5198 4
	.loc 1 5199 25 is_stmt 0
	li	a4,2
	.loc 1 5198 26
	lbu	a5,92(s0)
	.loc 1 5199 25
	sb	a4,92(s0)
	.loc 1 5203 11
	lw	a4,88(s0)
	.loc 1 5198 26
	andi	a5,a5,0xff
.LVL715:
	.loc 1 5199 4 is_stmt 1
	.loc 1 5203 4
	.loc 1 5209 6 is_stmt 0
	li	a3,1
	.loc 1 5203 30
	addi	a4,a4,1
	sw	a4,88(s0)
	.loc 1 5205 4 is_stmt 1
	.loc 1 5209 4
	.loc 1 5209 6 is_stmt 0
	beq	a5,a3,.L817
.LVL716:
.L800:
	.loc 1 5247 2
	lw	ra,12(sp)
	.cfi_remember_state
	.cfi_restore 1
	lw	s0,8(sp)
	.cfi_restore 8
.LVL717:
	lw	s1,4(sp)
	.cfi_restore 9
.LVL718:
	lw	s2,0(sp)
	.cfi_restore 18
	addi	sp,sp,16
	.cfi_def_cfa_offset 0
	jr	ra
.LVL719:
.L817:
	.cfi_restore_state
	.loc 1 5212 5 is_stmt 1
	.loc 1 5212 7 is_stmt 0
	lw	a5,40(s0)
.LVL720:
	beq	a5,zero,.L804
	.loc 1 5212 13 is_stmt 1 discriminator 1
	li	a0,2
	call	vEnvironmentCall
.LVL721:
.L804:
	.loc 1 5214 5
	.loc 1 5214 30 is_stmt 0
	lui	a5,%hi(.LANCHOR14)
	lw	a5,%lo(.LANCHOR14)(a5)
	.loc 1 5214 7
	beq	a5,zero,.L818
	.loc 1 5223 6 is_stmt 1
	lui	a0,%hi(.LANCHOR17)
	addi	a1,s0,24
	addi	a0,a0,%lo(.LANCHOR17)
	call	vListInsertEnd
.LVL722:
.L806:
	.loc 1 5226 5
	.loc 1 5226 41 is_stmt 0
	lui	a5,%hi(.LANCHOR1)
	lw	a5,%lo(.LANCHOR1)(a5)
	.loc 1 5226 7
	lw	a4,44(s0)
	lw	a5,44(a5)
	bleu	a4,a5,.L800
	.loc 1 5230 6 is_stmt 1
	.loc 1 5230 8 is_stmt 0
	beq	s1,zero,.L808
	.loc 1 5232 7 is_stmt 1
	.loc 1 5232 34 is_stmt 0
	li	a5,1
	sw	a5,0(s1)
.L808:
	.loc 1 5238 6 is_stmt 1
	.loc 1 5247 2 is_stmt 0
	lw	ra,12(sp)
	.cfi_remember_state
	.cfi_restore 1
	lw	s0,8(sp)
	.cfi_restore 8
.LVL723:
	.loc 1 5238 20
	lui	a5,%hi(.LANCHOR8)
	li	a4,1
	sw	a4,%lo(.LANCHOR8)(a5)
	.loc 1 5242 6 is_stmt 1
	.loc 1 5246 3
	.loc 1 5247 2 is_stmt 0
	lw	s1,4(sp)
	.cfi_restore 9
.LVL724:
	lw	s2,0(sp)
	.cfi_restore 18
	addi	sp,sp,16
	.cfi_def_cfa_offset 0
	jr	ra
.LVL725:
.L818:
	.cfi_restore_state
	.loc 1 5216 6 is_stmt 1
	.loc 1 5216 15 is_stmt 0
	addi	s2,s0,4
	mv	a0,s2
	call	uxListRemove
.LVL726:
	.loc 1 5217 6 is_stmt 1
	.loc 1 5217 8
	.loc 1 5217 54 is_stmt 0
	lw	a2,44(s0)
	.loc 1 5217 31
	lui	a3,%hi(.LANCHOR2)
	addi	a3,a3,%lo(.LANCHOR2)
	lw	a1,0(a3)
	.loc 1 5217 72
	slli	a4,a2,2
	add	a4,a4,a2
	.loc 1 5217 40
	li	a5,1
	.loc 1 5217 72
	lui	a0,%hi(.LANCHOR9)
	.loc 1 5217 40
	sll	a5,a5,a2
	.loc 1 5217 72
	slli	a4,a4,2
	addi	a0,a0,%lo(.LANCHOR9)
	.loc 1 5217 31
	or	a5,a5,a1
	.loc 1 5217 72
	add	a0,a0,a4
	mv	a1,s2
	.loc 1 5217 31
	sw	a5,0(a3)
	.loc 1 5217 72 is_stmt 1
	call	vListInsertEnd
.LVL727:
	.loc 1 5217 171
	j	.L806
.LVL728:
.L816:
	.loc 1 5174 32 discriminator 1
	li	a0,2
	call	vEnvironmentCall
.LVL729:
	j	.L801
	.cfi_endproc
.LFE71:
	.size	vTaskNotifyGiveFromISR, .-vTaskNotifyGiveFromISR
	.section	.text.xTaskNotifyStateClear,"ax",@progbits
	.align	1
	.globl	xTaskNotifyStateClear
	.type	xTaskNotifyStateClear, @function
xTaskNotifyStateClear:
.LFB72:
	.loc 1 5256 2
	.cfi_startproc
.LVL730:
	.loc 1 5257 2
	.loc 1 5258 2
	.loc 1 5262 3
	.loc 1 5256 2 is_stmt 0
	mv	a5,a0
	.loc 1 5262 27
	beq	a0,zero,.L833
.LVL731:
.L820:
	.loc 1 5264 3 is_stmt 1 discriminator 4
.LBB528:
.LBB529:
	.loc 1 4431 3 discriminator 4
 #APP
# 4431 "/mnt/d/GitHub/bl_iot_sdk_for_aithinker/components/platform/soc/bl602/freertos_riscv_ram/tasks.c" 1
	csrc mstatus, 8
# 0 "" 2
	.loc 1 4433 3 discriminator 4
	.loc 1 4433 25 is_stmt 0 discriminator 4
 #NO_APP
	lui	a4,%hi(.LANCHOR11)
	addi	a4,a4,%lo(.LANCHOR11)
	lw	a3,0(a4)
	.loc 1 4433 5 discriminator 4
	beq	a3,zero,.L821
.LBB530:
.LBB531:
	.loc 1 4435 4 is_stmt 1
	.loc 1 4435 18 is_stmt 0
	lui	a3,%hi(.LANCHOR1)
	addi	a3,a3,%lo(.LANCHOR1)
	lw	a2,0(a3)
	.loc 1 4443 20
	lw	a3,0(a3)
	.loc 1 4435 39
	lw	a3,68(a2)
	addi	a3,a3,1
	sw	a3,68(a2)
	.loc 1 4443 4 is_stmt 1
	.loc 1 4445 5
	.loc 1 4450 4
.L821:
.LBE531:
.LBE530:
	.loc 1 4450 4
.LBE529:
.LBE528:
	.loc 1 5266 4
	.loc 1 5266 13 is_stmt 0
	lbu	a3,92(a5)
	.loc 1 5266 6
	li	a2,2
	.loc 1 5273 13
	li	a0,0
	.loc 1 5266 13
	andi	a3,a3,0xff
	.loc 1 5266 6
	bne	a3,a2,.L822
	.loc 1 5268 5 is_stmt 1
	.loc 1 5268 26 is_stmt 0
	sb	zero,92(a5)
	.loc 1 5269 5 is_stmt 1
.LVL732:
	.loc 1 5269 13 is_stmt 0
	li	a0,1
.LVL733:
.L822:
	.loc 1 5276 3 is_stmt 1
.LBB532:
.LBB533:
	.loc 1 4461 3
	.loc 1 4461 25 is_stmt 0
	lw	a5,0(a4)
.LVL734:
	.loc 1 4461 5
	beq	a5,zero,.L819
	.loc 1 4463 4 is_stmt 1
	.loc 1 4463 20 is_stmt 0
	lui	a5,%hi(.LANCHOR1)
	addi	a5,a5,%lo(.LANCHOR1)
	lw	a4,0(a5)
	.loc 1 4463 6
	lw	a4,68(a4)
	beq	a4,zero,.L819
.LBB534:
.LBB535:
	.loc 1 4465 5 is_stmt 1
	.loc 1 4465 19 is_stmt 0
	lw	a4,0(a5)
	.loc 1 4467 21
	lw	a3,0(a5)
	.loc 1 4465 40
	lw	a5,68(a4)
	addi	a5,a5,-1
	sw	a5,68(a4)
	.loc 1 4467 5 is_stmt 1
	.loc 1 4467 7 is_stmt 0
	lw	a5,68(a3)
	bne	a5,zero,.L819
	.loc 1 4469 6 is_stmt 1
 #APP
# 4469 "/mnt/d/GitHub/bl_iot_sdk_for_aithinker/components/platform/soc/bl602/freertos_riscv_ram/tasks.c" 1
	csrs mstatus, 8
# 0 "" 2
 #NO_APP
.LBE535:
.LBE534:
	.loc 1 4483 4
.LBE533:
.LBE532:
	.loc 1 5278 3
.L819:
	.loc 1 5279 2 is_stmt 0
	ret
.LVL735:
.L833:
	.loc 1 5262 27 discriminator 1
	lui	a5,%hi(.LANCHOR1)
	lw	a5,%lo(.LANCHOR1)(a5)
.LVL736:
	j	.L820
	.cfi_endproc
.LFE72:
	.size	xTaskNotifyStateClear, .-xTaskNotifyStateClear
	.globl	pxCurrentTCB
	.section	.bss.pxReadyTasksLists,"aw",@nobits
	.align	2
	.set	.LANCHOR9,. + 0
	.type	pxReadyTasksLists, @object
	.size	pxReadyTasksLists, 640
pxReadyTasksLists:
	.zero	640
	.section	.bss.xAllTaskList,"aw",@nobits
	.align	2
	.set	.LANCHOR7,. + 0
	.type	xAllTaskList, @object
	.size	xAllTaskList, 20
xAllTaskList:
	.zero	20
	.section	.bss.xDelayedTaskList1,"aw",@nobits
	.align	2
	.set	.LANCHOR18,. + 0
	.type	xDelayedTaskList1, @object
	.size	xDelayedTaskList1, 20
xDelayedTaskList1:
	.zero	20
	.section	.bss.xDelayedTaskList2,"aw",@nobits
	.align	2
	.set	.LANCHOR19,. + 0
	.type	xDelayedTaskList2, @object
	.size	xDelayedTaskList2, 20
xDelayedTaskList2:
	.zero	20
	.section	.bss.xPendingReadyList,"aw",@nobits
	.align	2
	.set	.LANCHOR17,. + 0
	.type	xPendingReadyList, @object
	.size	xPendingReadyList, 20
xPendingReadyList:
	.zero	20
	.section	.bss.xSuspendedTaskList,"aw",@nobits
	.align	2
	.set	.LANCHOR3,. + 0
	.type	xSuspendedTaskList, @object
	.size	xSuspendedTaskList, 20
xSuspendedTaskList:
	.zero	20
	.section	.bss.xTasksWaitingTermination,"aw",@nobits
	.align	2
	.set	.LANCHOR12,. + 0
	.type	xTasksWaitingTermination, @object
	.size	xTasksWaitingTermination, 20
xTasksWaitingTermination:
	.zero	20
	.section	.sbss.pxCurrentTCB,"aw",@nobits
	.align	2
	.set	.LANCHOR1,. + 0
	.type	pxCurrentTCB, @object
	.size	pxCurrentTCB, 4
pxCurrentTCB:
	.zero	4
	.section	.sbss.pxDelayedTaskList,"aw",@nobits
	.align	2
	.set	.LANCHOR5,. + 0
	.type	pxDelayedTaskList, @object
	.size	pxDelayedTaskList, 4
pxDelayedTaskList:
	.zero	4
	.section	.sbss.pxOverflowDelayedTaskList,"aw",@nobits
	.align	2
	.set	.LANCHOR4,. + 0
	.type	pxOverflowDelayedTaskList, @object
	.size	pxOverflowDelayedTaskList, 4
pxOverflowDelayedTaskList:
	.zero	4
	.section	.sbss.uxCurrentNumberOfTasks,"aw",@nobits
	.align	2
	.set	.LANCHOR13,. + 0
	.type	uxCurrentNumberOfTasks, @object
	.size	uxCurrentNumberOfTasks, 4
uxCurrentNumberOfTasks:
	.zero	4
	.section	.sbss.uxDeletedTasksWaitingCleanUp,"aw",@nobits
	.align	2
	.set	.LANCHOR10,. + 0
	.type	uxDeletedTasksWaitingCleanUp, @object
	.size	uxDeletedTasksWaitingCleanUp, 4
uxDeletedTasksWaitingCleanUp:
	.zero	4
	.section	.sbss.uxPendedTicks,"aw",@nobits
	.align	2
	.set	.LANCHOR16,. + 0
	.type	uxPendedTicks, @object
	.size	uxPendedTicks, 4
uxPendedTicks:
	.zero	4
	.section	.sbss.uxSchedulerSuspended,"aw",@nobits
	.align	2
	.set	.LANCHOR14,. + 0
	.type	uxSchedulerSuspended, @object
	.size	uxSchedulerSuspended, 4
uxSchedulerSuspended:
	.zero	4
	.section	.sbss.uxTaskNumber,"aw",@nobits
	.align	2
	.set	.LANCHOR20,. + 0
	.type	uxTaskNumber, @object
	.size	uxTaskNumber, 4
uxTaskNumber:
	.zero	4
	.section	.sbss.uxTopReadyPriority,"aw",@nobits
	.align	2
	.set	.LANCHOR2,. + 0
	.type	uxTopReadyPriority, @object
	.size	uxTopReadyPriority, 4
uxTopReadyPriority:
	.zero	4
	.section	.sbss.xNextTaskUnblockTime,"aw",@nobits
	.align	2
	.set	.LANCHOR6,. + 0
	.type	xNextTaskUnblockTime, @object
	.size	xNextTaskUnblockTime, 4
xNextTaskUnblockTime:
	.zero	4
	.section	.sbss.xNumOfOverflows,"aw",@nobits
	.align	2
	.set	.LANCHOR15,. + 0
	.type	xNumOfOverflows, @object
	.size	xNumOfOverflows, 4
xNumOfOverflows:
	.zero	4
	.section	.sbss.xSchedulerRunning,"aw",@nobits
	.align	2
	.set	.LANCHOR11,. + 0
	.type	xSchedulerRunning, @object
	.size	xSchedulerRunning, 4
xSchedulerRunning:
	.zero	4
	.section	.sbss.xTickCount,"aw",@nobits
	.align	2
	.set	.LANCHOR0,. + 0
	.type	xTickCount, @object
	.size	xTickCount, 4
xTickCount:
	.zero	4
	.section	.sbss.xYieldPending,"aw",@nobits
	.align	2
	.set	.LANCHOR8,. + 0
	.type	xYieldPending, @object
	.size	xYieldPending, 4
xYieldPending:
	.zero	4
	.section	.srodata.CSWTCH.241,"a"
	.align	2
	.set	.LANCHOR21,. + 0
	.type	CSWTCH.241, @object
	.size	CSWTCH.241, 5
CSWTCH.241:
	.byte	88
	.byte	82
	.byte	66
	.byte	83
	.byte	68
	.text
.Letext0:
	.file 2 "/mnt/d/GitHub/bl_iot_sdk_for_aithinker/toolchain/riscv/Linux/lib/gcc/riscv64-unknown-elf/10.2.0/include/stddef.h"
	.file 3 "/mnt/d/GitHub/bl_iot_sdk_for_aithinker/toolchain/riscv/Linux/lib/gcc/riscv64-unknown-elf/10.2.0/include/stdint-gcc.h"
	.file 4 "/mnt/d/GitHub/bl_iot_sdk_for_aithinker/components/platform/soc/bl602/freertos_riscv_ram/config/projdefs.h"
	.file 5 "/mnt/d/GitHub/bl_iot_sdk_for_aithinker/components/platform/soc/bl602/freertos_riscv_ram/portable/GCC/RISC-V/portmacro.h"
	.file 6 "/mnt/d/GitHub/bl_iot_sdk_for_aithinker/components/platform/soc/bl602/freertos_riscv_ram/config/FreeRTOS.h"
	.file 7 "/mnt/d/GitHub/bl_iot_sdk_for_aithinker/components/platform/soc/bl602/freertos_riscv_ram/config/list.h"
	.file 8 "/mnt/d/GitHub/bl_iot_sdk_for_aithinker/components/platform/soc/bl602/freertos_riscv_ram/config/task.h"
	.file 9 "/mnt/d/GitHub/bl_iot_sdk_for_aithinker/toolchain/riscv/Linux/riscv64-unknown-elf/include/string.h"
	.file 10 "/mnt/d/GitHub/bl_iot_sdk_for_aithinker/components/platform/soc/bl602/freertos_riscv_ram/config/portable.h"
	.file 11 "/mnt/d/GitHub/bl_iot_sdk_for_aithinker/toolchain/riscv/Linux/riscv64-unknown-elf/include/stdio.h"
	.file 12 "/mnt/d/GitHub/bl_iot_sdk_for_aithinker/components/platform/soc/bl602/freertos_riscv_ram/config/timers.h"