	.file	"platform_gpio.c"
	.option nopic
	.attribute arch, "rv32i2p0_m2p0_f2p0_c2p0"
	.attribute unaligned_access, 0
	.attribute stack_align, 16
	.text
.Ltext0:
	.cfi_sections	.debug_frame
	.section	.text.bflb_platform_init_uart_debug_gpio,"ax",@progbits
	.align	1
	.weak	bflb_platform_init_uart_debug_gpio
	.type	bflb_platform_init_uart_debug_gpio, @function
bflb_platform_init_uart_debug_gpio:
.LFB8:
	.file 1 "/mnt/d/GitHub/bl_iot_sdk_for_aithinker/components/platform/soc/bl602/bl602_std/bl602_std/Common/platform_print/platform_gpio.c"
	.loc 1 9 1
	.cfi_startproc
	.loc 1 10 5
	.loc 1 12 5
	.loc 1 13 5
	.loc 1 16 5
	.loc 1 17 5
	.loc 1 18 5
	.loc 1 19 5
	.loc 1 16 16 is_stmt 0
	li	a5,65536
	.loc 1 9 1
	addi	sp,sp,-32
	.cfi_def_cfa_offset 32
	.loc 1 16 16
	addi	a5,a5,1808
	sw	a5,8(sp)
	.loc 1 20 5
	addi	a0,sp,8
	.loc 1 12 14
	li	a5,256
	.loc 1 9 1
	sw	ra,28(sp)
	.cfi_offset 1, -4
	.loc 1 12 14
	sh	a5,12(sp)
	.loc 1 20 5 is_stmt 1
	call	GLB_GPIO_Init
.LVL0:
	.loc 1 25 5
	li	a1,2
	li	a0,0
	call	GLB_UART_Fun_Sel
.LVL1:
	.loc 1 29 5
	.loc 1 30 5
	.loc 1 31 5
	.loc 1 32 5
	.loc 1 29 16 is_stmt 0
	li	a5,1799
	.loc 1 33 5
	addi	a0,sp,8
	.loc 1 29 16
	sw	a5,8(sp)
	.loc 1 33 5 is_stmt 1
	call	GLB_GPIO_Init
.LVL2:
	.loc 1 35 5
	li	a1,3
	li	a0,7
	call	GLB_UART_Fun_Sel
.LVL3:
	.loc 1 37 1 is_stmt 0
	lw	ra,28(sp)
	.cfi_restore 1
	addi	sp,sp,32
	.cfi_def_cfa_offset 0
	jr	ra
	.cfi_endproc
.LFE8:
	.size	bflb_platform_init_uart_debug_gpio, .-bflb_platform_init_uart_debug_gpio
	.section	.text.bflb_platform_deinit_uart_debug_gpio,"ax",@progbits
	.align	1
	.weak	bflb_platform_deinit_uart_debug_gpio
	.type	bflb_platform_deinit_uart_debug_gpio, @function
bflb_platform_deinit_uart_debug_gpio:
.LFB9:
	.loc 1 41 1 is_stmt 1
	.cfi_startproc
	.loc 1 42 5
	.loc 1 44 5
	.loc 1 45 5
	.loc 1 46 5
	.loc 1 47 5
	.loc 1 50 5
	.loc 1 51 5
	.loc 1 50 16 is_stmt 0
	li	a5,33558528
	.loc 1 41 1
	addi	sp,sp,-32
	.cfi_def_cfa_offset 32
	.loc 1 50 16
	addi	a5,a5,-1264
	sw	a5,8(sp)
	.loc 1 52 5
	addi	a0,sp,8
	.loc 1 46 14
	li	a5,256
	.loc 1 41 1
	sw	ra,28(sp)
	.cfi_offset 1, -4
	.loc 1 46 14
	sh	a5,12(sp)
	.loc 1 52 5 is_stmt 1
	call	GLB_GPIO_Init
.LVL4:
	.loc 1 54 5
	li	a0,0
	call	GLB_UART_Sig_Swap_Set
.LVL5:
	.loc 1 57 5
	li	a1,0
	li	a0,0
	call	GLB_UART_Fun_Sel
.LVL6:
	.loc 1 61 5
	.loc 1 62 5
	.loc 1 61 16 is_stmt 0
	li	a5,4096
	addi	a5,a5,-1273
	.loc 1 63 5
	addi	a0,sp,8
	.loc 1 61 16
	sh	a5,8(sp)
	.loc 1 63 5 is_stmt 1
	call	GLB_GPIO_Init
.LVL7:
	.loc 1 66 5
	li	a1,7
	li	a0,7
	call	GLB_UART_Fun_Sel
.LVL8:
	.loc 1 68 1 is_stmt 0
	lw	ra,28(sp)
	.cfi_restore 1
	addi	sp,sp,32
	.cfi_def_cfa_offset 0
	jr	ra
	.cfi_endproc
.LFE9:
	.size	bflb_platform_deinit_uart_debug_gpio, .-bflb_platform_deinit_uart_debug_gpio
	.text
.Letext0:
	.file 2 "/mnt/d/GitHub/bl_iot_sdk_for_aithinker/toolchain/riscv/Linux/riscv64-unknown-elf/include/machine/_default_types.h"
	.file 3 "/mnt/d/GitHub/bl_iot_sdk_for_aithinker/toolchain/riscv/Linux/riscv64-unknown-elf/include/sys/_stdint.h"
	.file 4 "/mnt/d/GitHub/bl_iot_sdk_for_aithinker/components/platform/soc/bl602/bl602_std/bl602_std/StdDriver/Inc/bl602_gpio.h"
	.file 5 "/mnt/d/GitHub/bl_iot_sdk_for_aithinker/components/platform/soc/bl602/bl602_std/bl602_std/StdDriver/Inc/bl602_glb.h"