	.file	"altcp_tcp.c"
	.option nopic
	.attribute arch, "rv32i2p0_m2p0_f2p0_c2p0"
	.attribute unaligned_access, 0
	.attribute stack_align, 16
	.text
.Ltext0:
	.cfi_sections	.debug_frame
	.section	.text.altcp_tcp_connected,"ax",@progbits
	.align	1
	.type	altcp_tcp_connected, @function
altcp_tcp_connected:
.LFB6:
	.file 1 "/mnt/d/GitHub/bl_iot_sdk_for_aithinker/components/network/lwip/src/core/altcp_tcp.c"
	.loc 1 90 1
	.cfi_startproc
.LVL0:
	.loc 1 91 3
	.loc 1 92 3
	.loc 1 90 1 is_stmt 0
	mv	a1,a0
.LVL1:
	.loc 1 92 6
	beq	a0,zero,.L2
	.loc 1 93 5 is_stmt 1
	.loc 1 93 10
	.loc 1 93 15
	.loc 1 93 47
	.loc 1 93 57
	.loc 1 93 62
	.loc 1 93 74
	.loc 1 93 79
	.loc 1 93 84
	.loc 1 93 9
	.loc 1 93 19
	.loc 1 93 24
	.loc 1 93 43
	.loc 1 93 55
	.loc 1 94 5
	.loc 1 94 13 is_stmt 0
	lw	a5,20(a0)
	.loc 1 94 8
	beq	a5,zero,.L2
	.loc 1 95 7 is_stmt 1
	.loc 1 95 14 is_stmt 0
	lw	a0,8(a0)
.LVL2:
	jr	a5
.LVL3:
.L2:
	.loc 1 99 1
	li	a0,0
.LVL4:
	ret
	.cfi_endproc
.LFE6:
	.size	altcp_tcp_connected, .-altcp_tcp_connected
	.section	.text.altcp_tcp_sent,"ax",@progbits
	.align	1
	.type	altcp_tcp_sent, @function
altcp_tcp_sent:
.LFB8:
	.loc 1 120 1 is_stmt 1
	.cfi_startproc
.LVL5:
	.loc 1 121 3
	.loc 1 122 3
	.loc 1 120 1 is_stmt 0
	mv	a1,a0
.LVL6:
	.loc 1 122 6
	beq	a0,zero,.L8
	.loc 1 123 5 is_stmt 1
	.loc 1 123 10
	.loc 1 123 15
	.loc 1 123 47
	.loc 1 123 57
	.loc 1 123 62
	.loc 1 123 74
	.loc 1 123 79
	.loc 1 123 84
	.loc 1 123 9
	.loc 1 123 19
	.loc 1 123 24
	.loc 1 123 43
	.loc 1 123 55
	.loc 1 124 5
	.loc 1 124 13 is_stmt 0
	lw	a5,28(a0)
	.loc 1 124 8
	beq	a5,zero,.L8
	.loc 1 125 7 is_stmt 1
	.loc 1 125 14 is_stmt 0
	lw	a0,8(a0)
.LVL7:
	jr	a5
.LVL8:
.L8:
	.loc 1 129 1
	li	a0,0
.LVL9:
	ret
	.cfi_endproc
.LFE8:
	.size	altcp_tcp_sent, .-altcp_tcp_sent
	.section	.text.altcp_tcp_poll,"ax",@progbits
	.align	1
	.type	altcp_tcp_poll, @function
altcp_tcp_poll:
.LFB9:
	.loc 1 133 1 is_stmt 1
	.cfi_startproc
.LVL10:
	.loc 1 134 3
	.loc 1 135 3
	.loc 1 133 1 is_stmt 0
	mv	a1,a0
.LVL11:
	.loc 1 135 6
	beq	a0,zero,.L14
	.loc 1 136 5 is_stmt 1
	.loc 1 136 10
	.loc 1 136 15
	.loc 1 136 47
	.loc 1 136 57
	.loc 1 136 62
	.loc 1 136 74
	.loc 1 136 79
	.loc 1 136 84
	.loc 1 136 9
	.loc 1 136 19
	.loc 1 136 24
	.loc 1 136 43
	.loc 1 136 55
	.loc 1 137 5
	.loc 1 137 13 is_stmt 0
	lw	a5,32(a0)
	.loc 1 137 8
	beq	a5,zero,.L14
	.loc 1 138 7 is_stmt 1
	.loc 1 138 14 is_stmt 0
	lw	a0,8(a0)
.LVL12:
	jr	a5
.LVL13:
.L14:
	.loc 1 142 1
	li	a0,0
.LVL14:
	ret
	.cfi_endproc
.LFE9:
	.size	altcp_tcp_poll, .-altcp_tcp_poll
	.section	.text.altcp_tcp_mss,"ax",@progbits
	.align	1
	.type	altcp_tcp_mss, @function
altcp_tcp_mss:
.LFB27:
	.loc 1 374 1 is_stmt 1
	.cfi_startproc
.LVL15:
	.loc 1 375 3
	.loc 1 376 3
	.loc 1 376 6 is_stmt 0
	beq	a0,zero,.L21
	.loc 1 379 3 is_stmt 1
	.loc 1 379 8
	.loc 1 379 13
	.loc 1 379 7
	.loc 1 379 17
	.loc 1 379 22
	.loc 1 379 41
	.loc 1 380 3
.LVL16:
	.loc 1 381 3
	.loc 1 381 16 is_stmt 0
	lw	a5,12(a0)
	lhu	a0,54(a5)
.LVL17:
	ret
.LVL18:
.L21:
	.loc 1 377 12
	li	a0,0
.LVL19:
	.loc 1 382 1
	ret
	.cfi_endproc
.LFE27:
	.size	altcp_tcp_mss, .-altcp_tcp_mss
	.section	.text.altcp_tcp_sndbuf,"ax",@progbits
	.align	1
	.type	altcp_tcp_sndbuf, @function
altcp_tcp_sndbuf:
.LFB28:
	.loc 1 386 1 is_stmt 1
	.cfi_startproc
.LVL20:
	.loc 1 387 3
	.loc 1 388 3
	.loc 1 388 6 is_stmt 0
	beq	a0,zero,.L24
	.loc 1 391 3 is_stmt 1
	.loc 1 391 8
	.loc 1 391 13
	.loc 1 391 7
	.loc 1 391 17
	.loc 1 391 22
	.loc 1 391 41
	.loc 1 392 3
.LVL21:
	.loc 1 393 3
	.loc 1 393 17 is_stmt 0
	lw	a5,12(a0)
	lhu	a0,104(a5)
.LVL22:
	ret
.LVL23:
.L24:
	.loc 1 389 12
	li	a0,0
.LVL24:
	.loc 1 394 1
	ret
	.cfi_endproc
.LFE28:
	.size	altcp_tcp_sndbuf, .-altcp_tcp_sndbuf
	.section	.text.altcp_tcp_sndqueuelen,"ax",@progbits
	.align	1
	.type	altcp_tcp_sndqueuelen, @function
altcp_tcp_sndqueuelen:
.LFB29:
	.loc 1 398 1 is_stmt 1
	.cfi_startproc
.LVL25:
	.loc 1 399 3
	.loc 1 400 3
	.loc 1 400 6 is_stmt 0
	beq	a0,zero,.L27
	.loc 1 403 3 is_stmt 1
	.loc 1 403 8
	.loc 1 403 13
	.loc 1 403 7
	.loc 1 403 17
	.loc 1 403 22
	.loc 1 403 41
	.loc 1 404 3
.LVL26:
	.loc 1 405 3
	.loc 1 405 16 is_stmt 0
	lw	a5,12(a0)
	lhu	a0,106(a5)
.LVL27:
	ret
.LVL28:
.L27:
	.loc 1 401 12
	li	a0,0
.LVL29:
	.loc 1 406 1
	ret
	.cfi_endproc
.LFE29:
	.size	altcp_tcp_sndqueuelen, .-altcp_tcp_sndqueuelen
	.section	.text.altcp_tcp_nagle_disable,"ax",@progbits
	.align	1
	.type	altcp_tcp_nagle_disable, @function
altcp_tcp_nagle_disable:
.LFB30:
	.loc 1 410 1 is_stmt 1
	.cfi_startproc
.LVL30:
	.loc 1 411 3
	.loc 1 411 6 is_stmt 0
	beq	a0,zero,.L28
	.loc 1 411 19 discriminator 1
	lw	a5,12(a0)
	.loc 1 411 12 discriminator 1
	beq	a5,zero,.L28
.LBB4:
	.loc 1 412 5 is_stmt 1
.LVL31:
	.loc 1 413 5
	.loc 1 413 10
	.loc 1 413 15
	.loc 1 413 9
	.loc 1 413 19
	.loc 1 413 24
	.loc 1 413 43
	.loc 1 414 5
	.loc 1 414 10
	.loc 1 414 25 is_stmt 0
	lhu	a4,30(a5)
	ori	a4,a4,64
	.loc 1 414 23
	sh	a4,30(a5)
	.loc 1 414 70 is_stmt 1
.LVL32:
.L28:
.LBE4:
	.loc 1 416 1 is_stmt 0
	ret
	.cfi_endproc
.LFE30:
	.size	altcp_tcp_nagle_disable, .-altcp_tcp_nagle_disable
	.section	.text.altcp_tcp_nagle_enable,"ax",@progbits
	.align	1
	.type	altcp_tcp_nagle_enable, @function
altcp_tcp_nagle_enable:
.LFB31:
	.loc 1 420 1 is_stmt 1
	.cfi_startproc
.LVL33:
	.loc 1 421 3
	.loc 1 421 6 is_stmt 0
	beq	a0,zero,.L36
	.loc 1 421 19 discriminator 1
	lw	a5,12(a0)
	.loc 1 421 12 discriminator 1
	beq	a5,zero,.L36
.LBB5:
	.loc 1 422 5 is_stmt 1
.LVL34:
	.loc 1 423 5
	.loc 1 423 10
	.loc 1 423 15
	.loc 1 423 9
	.loc 1 423 19
	.loc 1 423 24
	.loc 1 423 43
	.loc 1 424 5
	.loc 1 424 10
	.loc 1 424 25 is_stmt 0
	lhu	a4,30(a5)
	andi	a4,a4,-65
	.loc 1 424 23
	sh	a4,30(a5)
	.loc 1 424 95 is_stmt 1
.LVL35:
.L36:
.LBE5:
	.loc 1 426 1 is_stmt 0
	ret
	.cfi_endproc
.LFE31:
	.size	altcp_tcp_nagle_enable, .-altcp_tcp_nagle_enable
	.section	.text.altcp_tcp_nagle_disabled,"ax",@progbits
	.align	1
	.type	altcp_tcp_nagle_disabled, @function
altcp_tcp_nagle_disabled:
.LFB32:
	.loc 1 430 1 is_stmt 1
	.cfi_startproc
.LVL36:
	.loc 1 431 3
	.loc 1 431 6 is_stmt 0
	beq	a0,zero,.L46
	.loc 1 431 19 discriminator 1
	lw	a5,12(a0)
	.loc 1 436 10 discriminator 1
	li	a0,0
.LVL37:
	.loc 1 431 12 discriminator 1
	beq	a5,zero,.L44
.LBB6:
	.loc 1 432 5 is_stmt 1
.LVL38:
	.loc 1 433 5
	.loc 1 433 10
	.loc 1 433 15
	.loc 1 433 9
	.loc 1 433 19
	.loc 1 433 24
	.loc 1 433 43
	.loc 1 434 5
	.loc 1 434 38 is_stmt 0
	lhu	a0,30(a5)
	srli	a0,a0,6
	andi	a0,a0,1
	ret
.LVL39:
.L46:
.LBE6:
	.loc 1 436 10
	li	a0,0
.LVL40:
.L44:
	.loc 1 437 1
	ret
	.cfi_endproc
.LFE32:
	.size	altcp_tcp_nagle_disabled, .-altcp_tcp_nagle_disabled
	.section	.text.altcp_tcp_dealloc,"ax",@progbits
	.align	1
	.type	altcp_tcp_dealloc, @function
altcp_tcp_dealloc:
.LFB34:
	.loc 1 451 1 is_stmt 1
	.cfi_startproc
.LVL41:
	.loc 1 452 3
	.loc 1 453 3
	.loc 1 453 8
	.loc 1 453 13
	.loc 1 453 7
	.loc 1 453 17
	.loc 1 453 22
	.loc 1 453 41
	.loc 1 455 1 is_stmt 0
	ret
	.cfi_endproc
.LFE34:
	.size	altcp_tcp_dealloc, .-altcp_tcp_dealloc
	.section	.text.altcp_tcp_get_ip,"ax",@progbits
	.align	1
	.type	altcp_tcp_get_ip, @function
altcp_tcp_get_ip:
.LFB36:
	.loc 1 470 1 is_stmt 1
	.cfi_startproc
.LVL42:
	.loc 1 471 3
	.loc 1 471 6 is_stmt 0
	beq	a0,zero,.L51
.LBB7:
	.loc 1 472 5 is_stmt 1
	.loc 1 472 21 is_stmt 0
	lw	a0,12(a0)
.LVL43:
	.loc 1 473 5 is_stmt 1
	.loc 1 473 10
	.loc 1 473 15
	.loc 1 473 9
	.loc 1 473 19
	.loc 1 473 24
	.loc 1 473 43
	.loc 1 474 5
	.loc 1 474 8 is_stmt 0
	beq	a0,zero,.L51
	.loc 1 475 7 is_stmt 1
	.loc 1 475 10 is_stmt 0
	bne	a1,zero,.L51
	.loc 1 478 9 is_stmt 1
	.loc 1 478 16 is_stmt 0
	addi	a0,a0,4
.LVL44:
.L51:
.LBE7:
	.loc 1 483 1
	ret
	.cfi_endproc
.LFE36:
	.size	altcp_tcp_get_ip, .-altcp_tcp_get_ip
	.section	.text.altcp_tcp_get_port,"ax",@progbits
	.align	1
	.type	altcp_tcp_get_port, @function
altcp_tcp_get_port:
.LFB37:
	.loc 1 487 1 is_stmt 1
	.cfi_startproc
.LVL45:
	.loc 1 488 3
	.loc 1 488 6 is_stmt 0
	beq	a0,zero,.L62
.LBB8:
	.loc 1 489 5 is_stmt 1
	.loc 1 489 21 is_stmt 0
	lw	a5,12(a0)
.LVL46:
	.loc 1 490 5 is_stmt 1
	.loc 1 490 10
	.loc 1 490 15
	.loc 1 490 9
	.loc 1 490 19
	.loc 1 490 24
	.loc 1 490 43
	.loc 1 491 5
.LBE8:
	.loc 1 499 10 is_stmt 0
	li	a0,0
.LVL47:
.LBB9:
	.loc 1 491 8
	beq	a5,zero,.L60
	.loc 1 492 7 is_stmt 1
	.loc 1 492 10 is_stmt 0
	beq	a1,zero,.L61
	.loc 1 493 9 is_stmt 1
	.loc 1 493 19 is_stmt 0
	lhu	a0,26(a5)
	ret
.L61:
	.loc 1 495 9 is_stmt 1
	.loc 1 495 19 is_stmt 0
	lhu	a0,28(a5)
	ret
.LVL48:
.L62:
.LBE9:
	.loc 1 499 10
	li	a0,0
.LVL49:
.L60:
	.loc 1 500 1
	ret
	.cfi_endproc
.LFE37:
	.size	altcp_tcp_get_port, .-altcp_tcp_get_port
	.section	.text.altcp_tcp_setup_callbacks,"ax",@progbits
	.align	1
	.type	altcp_tcp_setup_callbacks, @function
altcp_tcp_setup_callbacks:
.LFB12:
	.loc 1 171 1 is_stmt 1
	.cfi_startproc
.LVL50:
	.loc 1 172 3
	.loc 1 171 1 is_stmt 0
	addi	sp,sp,-16
	.cfi_def_cfa_offset 16
	sw	s0,8(sp)
	.cfi_offset 8, -8
	mv	s0,a1
	.loc 1 172 3
	mv	a1,a0
.LVL51:
	mv	a0,s0
.LVL52:
	.loc 1 171 1
	sw	ra,12(sp)
	.cfi_offset 1, -4
	.loc 1 172 3
	call	tcp_arg
.LVL53:
	.loc 1 173 3 is_stmt 1
	lui	a1,%hi(altcp_tcp_recv)
	mv	a0,s0
	addi	a1,a1,%lo(altcp_tcp_recv)
	call	tcp_recv
.LVL54:
	.loc 1 174 3
	lui	a1,%hi(altcp_tcp_sent)
	mv	a0,s0
	addi	a1,a1,%lo(altcp_tcp_sent)
	call	tcp_sent
.LVL55:
	.loc 1 175 3
	mv	a0,s0
	.loc 1 178 1 is_stmt 0
	lw	s0,8(sp)
	.cfi_restore 8
.LVL56:
	lw	ra,12(sp)
	.cfi_restore 1
	.loc 1 175 3
	lui	a1,%hi(altcp_tcp_err)
	.loc 1 178 1
	.loc 1 175 3
	addi	a1,a1,%lo(altcp_tcp_err)
	.loc 1 178 1
	addi	sp,sp,16
	.cfi_def_cfa_offset 0
	.loc 1 175 3
	tail	tcp_err
.LVL57:
	.cfi_endproc
.LFE12:
	.size	altcp_tcp_setup_callbacks, .-altcp_tcp_setup_callbacks
	.section	.text.altcp_tcp_accept,"ax",@progbits
	.align	1
	.type	altcp_tcp_accept, @function
altcp_tcp_accept:
.LFB5:
	.loc 1 74 1 is_stmt 1
	.cfi_startproc
.LVL58:
	.loc 1 75 3
	.loc 1 76 3
	.loc 1 76 6 is_stmt 0
	beq	a0,zero,.L68
	.loc 1 74 1 discriminator 1
	addi	sp,sp,-32
	.cfi_def_cfa_offset 32
	sw	s0,24(sp)
	sw	ra,28(sp)
	sw	s1,20(sp)
	sw	s2,16(sp)
	sw	s3,12(sp)
	.cfi_offset 8, -8
	.cfi_offset 1, -4
	.cfi_offset 9, -12
	.cfi_offset 18, -16
	.cfi_offset 19, -20
	.loc 1 76 19 discriminator 1
	lw	a5,16(a0)
	mv	s0,a0
	beq	a5,zero,.L69
	mv	s2,a1
	mv	s3,a2
.LBB13:
	.loc 1 78 5 is_stmt 1
	.loc 1 78 34 is_stmt 0
	call	altcp_alloc
.LVL59:
	mv	s1,a0
.LVL60:
	.loc 1 79 5 is_stmt 1
	.loc 1 79 8 is_stmt 0
	beq	a0,zero,.L70
	.loc 1 82 5 is_stmt 1
.LVL61:
.LBB14:
.LBB15:
	.loc 1 183 3
	mv	a1,s2
	call	altcp_tcp_setup_callbacks
.LVL62:
	.loc 1 184 3
	.loc 1 185 13 is_stmt 0
	lui	a5,%hi(.LANCHOR0)
	addi	a5,a5,%lo(.LANCHOR0)
	.loc 1 184 15
	sw	s2,12(s1)
	.loc 1 185 3 is_stmt 1
	.loc 1 185 13 is_stmt 0
	sw	a5,0(s1)
.LVL63:
.LBE15:
.LBE14:
	.loc 1 83 5 is_stmt 1
	.loc 1 83 12 is_stmt 0
	lw	a5,16(s0)
	lw	a0,8(s0)
.LBE13:
	.loc 1 86 1
	lw	s0,24(sp)
	.cfi_restore 8
.LVL64:
	lw	ra,28(sp)
	.cfi_restore 1
	lw	s2,16(sp)
	.cfi_restore 18
.LVL65:
.LBB16:
	.loc 1 83 12
	mv	a2,s3
	mv	a1,s1
.LBE16:
	.loc 1 86 1
	lw	s3,12(sp)
	.cfi_restore 19
	lw	s1,20(sp)
	.cfi_restore 9
.LVL66:
	addi	sp,sp,32
	.cfi_def_cfa_offset 0
.LBB17:
	.loc 1 83 12
	jr	a5
.LVL67:
.L68:
.LBE17:
	.loc 1 85 10
	li	a0,-16
.LVL68:
	.loc 1 86 1
	ret
.LVL69:
.L69:
	.cfi_def_cfa_offset 32
	.cfi_offset 1, -4
	.cfi_offset 8, -8
	.cfi_offset 9, -12
	.cfi_offset 18, -16
	.cfi_offset 19, -20
	.loc 1 85 10
	li	a0,-16
.LVL70:
.L67:
	.loc 1 86 1
	lw	ra,28(sp)
	.cfi_remember_state
	.cfi_restore 1
	lw	s0,24(sp)
	.cfi_restore 8
.LVL71:
	lw	s1,20(sp)
	.cfi_restore 9
	lw	s2,16(sp)
	.cfi_restore 18
	lw	s3,12(sp)
	.cfi_restore 19
	addi	sp,sp,32
	.cfi_def_cfa_offset 0
	jr	ra
.LVL72:
.L70:
	.cfi_restore_state
.LBB18:
	.loc 1 80 14
	li	a0,-1
	j	.L67
.LBE18:
	.cfi_endproc
.LFE5:
	.size	altcp_tcp_accept, .-altcp_tcp_accept
	.section	.text.altcp_tcp_err,"ax",@progbits
	.align	1
	.type	altcp_tcp_err, @function
altcp_tcp_err:
.LFB10:
	.loc 1 146 1 is_stmt 1
	.cfi_startproc
.LVL73:
	.loc 1 147 3
	.loc 1 148 3
	.loc 1 148 6 is_stmt 0
	beq	a0,zero,.L75
	.loc 1 146 1
	addi	sp,sp,-16
	.cfi_def_cfa_offset 16
	sw	s0,8(sp)
	sw	ra,12(sp)
	.cfi_offset 8, -8
	.cfi_offset 1, -4
	.loc 1 150 13
	lw	a5,36(a0)
	.loc 1 149 17
	sw	zero,12(a0)
	mv	s0,a0
	.loc 1 149 5 is_stmt 1
	.loc 1 150 5
	.loc 1 150 8 is_stmt 0
	beq	a5,zero,.L77
	.loc 1 151 7 is_stmt 1
	lw	a0,8(a0)
.LVL74:
	jalr	a5
.LVL75:
.L77:
	.loc 1 153 5
	mv	a0,s0
	.loc 1 155 1 is_stmt 0
	lw	s0,8(sp)
	.cfi_restore 8
.LVL76:
	lw	ra,12(sp)
	.cfi_restore 1
	addi	sp,sp,16
	.cfi_def_cfa_offset 0
	.loc 1 153 5
	tail	altcp_free
.LVL77:
.L75:
	ret
	.cfi_endproc
.LFE10:
	.size	altcp_tcp_err, .-altcp_tcp_err
	.section	.text.altcp_tcp_get_tcp_addrinfo,"ax",@progbits
	.align	1
	.type	altcp_tcp_get_tcp_addrinfo, @function
altcp_tcp_get_tcp_addrinfo:
.LFB35:
	.loc 1 459 1 is_stmt 1
	.cfi_startproc
.LVL78:
	.loc 1 460 3
	.loc 1 460 6 is_stmt 0
	beq	a0,zero,.L85
.LBB19:
	.loc 1 461 5 is_stmt 1
.LVL79:
	.loc 1 462 5
	.loc 1 462 10
	.loc 1 462 15
	.loc 1 462 9
	.loc 1 462 19
	.loc 1 462 24
	.loc 1 462 43
	.loc 1 463 5
	.loc 1 463 12 is_stmt 0
	lw	a0,12(a0)
.LVL80:
	tail	tcp_tcp_get_tcp_addrinfo
.LVL81:
.L85:
.LBE19:
	.loc 1 466 1
	li	a0,-6
.LVL82:
	ret
	.cfi_endproc
.LFE35:
	.size	altcp_tcp_get_tcp_addrinfo, .-altcp_tcp_get_tcp_addrinfo
	.section	.text.altcp_tcp_setprio,"ax",@progbits
	.align	1
	.type	altcp_tcp_setprio, @function
altcp_tcp_setprio:
.LFB33:
	.loc 1 441 1 is_stmt 1
	.cfi_startproc
.LVL83:
	.loc 1 442 3
	.loc 1 442 6 is_stmt 0
	beq	a0,zero,.L86
.LBB20:
	.loc 1 443 5 is_stmt 1
.LVL84:
	.loc 1 444 5
	.loc 1 444 10
	.loc 1 444 15
	.loc 1 444 9
	.loc 1 444 19
	.loc 1 444 24
	.loc 1 444 43
	.loc 1 445 5
	lw	a0,12(a0)
.LVL85:
	tail	tcp_setprio
.LVL86:
.L86:
.LBE20:
	.loc 1 447 1 is_stmt 0
	ret
	.cfi_endproc
.LFE33:
	.size	altcp_tcp_setprio, .-altcp_tcp_setprio
	.section	.text.altcp_tcp_output,"ax",@progbits
	.align	1
	.type	altcp_tcp_output, @function
altcp_tcp_output:
.LFB26:
	.loc 1 362 1 is_stmt 1
	.cfi_startproc
.LVL87:
	.loc 1 363 3
	.loc 1 364 3
	.loc 1 364 6 is_stmt 0
	beq	a0,zero,.L89
	.loc 1 367 3 is_stmt 1
	.loc 1 367 8
	.loc 1 367 13
	.loc 1 367 7
	.loc 1 367 17
	.loc 1 367 22
	.loc 1 367 41
	.loc 1 368 3
.LVL88:
	.loc 1 369 3
	.loc 1 369 10 is_stmt 0
	lw	a0,12(a0)
.LVL89:
	tail	tcp_output
.LVL90:
.L89:
	.loc 1 370 1
	li	a0,-6
.LVL91:
	ret
	.cfi_endproc
.LFE26:
	.size	altcp_tcp_output, .-altcp_tcp_output
	.section	.text.altcp_tcp_write,"ax",@progbits
	.align	1
	.type	altcp_tcp_write, @function
altcp_tcp_write:
.LFB25:
	.loc 1 350 1 is_stmt 1
	.cfi_startproc
.LVL92:
	.loc 1 351 3
	.loc 1 352 3
	.loc 1 352 6 is_stmt 0
	beq	a0,zero,.L91
	.loc 1 355 3 is_stmt 1
	.loc 1 355 8
	.loc 1 355 13
	.loc 1 355 7
	.loc 1 355 17
	.loc 1 355 22
	.loc 1 355 41
	.loc 1 356 3
.LVL93:
	.loc 1 357 3
	.loc 1 357 10 is_stmt 0
	lw	a0,12(a0)
.LVL94:
	tail	tcp_write
.LVL95:
.L91:
	.loc 1 358 1
	li	a0,-6
.LVL96:
	ret
	.cfi_endproc
.LFE25:
	.size	altcp_tcp_write, .-altcp_tcp_write
	.section	.text.altcp_tcp_shutdown,"ax",@progbits
	.align	1
	.type	altcp_tcp_shutdown, @function
altcp_tcp_shutdown:
.LFB24:
	.loc 1 338 1 is_stmt 1
	.cfi_startproc
.LVL97:
	.loc 1 339 3
	.loc 1 340 3
	.loc 1 340 6 is_stmt 0
	beq	a0,zero,.L93
	.loc 1 343 3 is_stmt 1
	.loc 1 343 8
	.loc 1 343 13
	.loc 1 343 7
	.loc 1 343 17
	.loc 1 343 22
	.loc 1 343 41
	.loc 1 344 3
.LVL98:
	.loc 1 345 3
	.loc 1 345 10 is_stmt 0
	lw	a0,12(a0)
.LVL99:
	tail	tcp_shutdown
.LVL100:
.L93:
	.loc 1 346 1
	li	a0,-6
.LVL101:
	ret
	.cfi_endproc
.LFE24:
	.size	altcp_tcp_shutdown, .-altcp_tcp_shutdown
	.section	.text.altcp_tcp_close,"ax",@progbits
	.align	1
	.type	altcp_tcp_close, @function
altcp_tcp_close:
.LFB23:
	.loc 1 311 1 is_stmt 1
	.cfi_startproc
.LVL102:
	.loc 1 312 3
	.loc 1 313 3
	.loc 1 311 1 is_stmt 0
	addi	sp,sp,-32
	.cfi_def_cfa_offset 32
	sw	s2,16(sp)
	sw	ra,28(sp)
	sw	s0,24(sp)
	sw	s1,20(sp)
	sw	s3,12(sp)
	.cfi_offset 18, -16
	.cfi_offset 1, -4
	.cfi_offset 8, -8
	.cfi_offset 9, -12
	.cfi_offset 19, -20
	.loc 1 314 12
	li	s2,-6
	.loc 1 313 6
	beq	a0,zero,.L95
	.loc 1 317 7
	lw	s0,12(a0)
	mv	s1,a0
	.loc 1 316 3 is_stmt 1
	.loc 1 316 8
	.loc 1 316 13
	.loc 1 316 7
	.loc 1 316 17
	.loc 1 316 22
	.loc 1 316 41
	.loc 1 317 3
.LVL103:
	.loc 1 318 3
	.loc 1 318 6 is_stmt 0
	beq	s0,zero,.L96
.LBB24:
	.loc 1 319 5 is_stmt 1
	.loc 1 320 5
.LBB25:
.LBB26:
	.loc 1 162 3 is_stmt 0
	li	a1,0
	mv	a0,s0
.LVL104:
.LBE26:
.LBE25:
	.loc 1 320 17
	lw	s3,144(s0)
.LVL105:
	.loc 1 321 5 is_stmt 1
.LBB28:
.LBB27:
	.loc 1 162 3
	call	tcp_arg
.LVL106:
	.loc 1 163 3
	li	a1,0
	mv	a0,s0
	call	tcp_recv
.LVL107:
	.loc 1 164 3
	li	a1,0
	mv	a0,s0
	call	tcp_sent
.LVL108:
	.loc 1 165 3
	li	a1,0
	mv	a0,s0
	call	tcp_err
.LVL109:
	.loc 1 166 3
	lbu	a2,33(s0)
	li	a1,0
	mv	a0,s0
	call	tcp_poll
.LVL110:
.LBE27:
.LBE28:
	.loc 1 322 5
	.loc 1 322 11 is_stmt 0
	mv	a0,s0
	call	tcp_close
.LVL111:
	mv	s2,a0
.LVL112:
	.loc 1 323 5 is_stmt 1
	.loc 1 323 8 is_stmt 0
	beq	a0,zero,.L97
	.loc 1 325 7 is_stmt 1
	mv	a1,s0
	mv	a0,s1
.LVL113:
	call	altcp_tcp_setup_callbacks
.LVL114:
	.loc 1 327 7
	lbu	a2,33(s0)
	mv	a1,s3
	mv	a0,s0
	call	tcp_poll
.LVL115:
	.loc 1 328 7
.L95:
.LBE24:
	.loc 1 334 1 is_stmt 0
	lw	ra,28(sp)
	.cfi_remember_state
	.cfi_restore 1
	lw	s0,24(sp)
	.cfi_restore 8
	lw	s1,20(sp)
	.cfi_restore 9
	lw	s3,12(sp)
	.cfi_restore 19
	mv	a0,s2
	lw	s2,16(sp)
	.cfi_restore 18
	addi	sp,sp,32
	.cfi_def_cfa_offset 0
	jr	ra
.LVL116:
.L97:
	.cfi_restore_state
.LBB29:
	.loc 1 330 5 is_stmt 1
	.loc 1 330 17 is_stmt 0
	sw	zero,12(s1)
.LVL117:
.L96:
.LBE29:
	.loc 1 332 3 is_stmt 1
	mv	a0,s1
	call	altcp_free
.LVL118:
	.loc 1 333 3
	.loc 1 333 10 is_stmt 0
	li	s2,0
	j	.L95
	.cfi_endproc
.LFE23:
	.size	altcp_tcp_close, .-altcp_tcp_close
	.section	.text.altcp_tcp_abort,"ax",@progbits
	.align	1
	.type	altcp_tcp_abort, @function
altcp_tcp_abort:
.LFB22:
	.loc 1 299 1 is_stmt 1
	.cfi_startproc
.LVL119:
	.loc 1 300 3
	.loc 1 300 6 is_stmt 0
	beq	a0,zero,.L103
.LBB30:
	.loc 1 301 5 is_stmt 1
	.loc 1 301 21 is_stmt 0
	lw	a0,12(a0)
.LVL120:
	.loc 1 302 5 is_stmt 1
	.loc 1 302 10
	.loc 1 302 15
	.loc 1 302 9
	.loc 1 302 19
	.loc 1 302 24
	.loc 1 302 43
	.loc 1 303 5
	.loc 1 303 8 is_stmt 0
	beq	a0,zero,.L103
	.loc 1 304 7 is_stmt 1
	tail	tcp_abort
.LVL121:
.L103:
.LBE30:
	.loc 1 307 1 is_stmt 0
	ret
	.cfi_endproc
.LFE22:
	.size	altcp_tcp_abort, .-altcp_tcp_abort
	.section	.text.altcp_tcp_listen,"ax",@progbits
	.align	1
	.type	altcp_tcp_listen, @function
altcp_tcp_listen:
.LFB21:
	.loc 1 280 1 is_stmt 1
	.cfi_startproc
.LVL122:
	.loc 1 281 3
	.loc 1 282 3
	.loc 1 283 3
	.loc 1 280 1 is_stmt 0
	addi	sp,sp,-16
	.cfi_def_cfa_offset 16
	sw	ra,12(sp)
	sw	s0,8(sp)
	.cfi_offset 1, -4
	.cfi_offset 8, -8
	.loc 1 283 6
	bne	a0,zero,.L112
.LVL123:
.L114:
	.loc 1 284 11
	li	s0,0
.L113:
	.loc 1 295 1
	lw	ra,12(sp)
	.cfi_remember_state
	.cfi_restore 1
	mv	a0,s0
	lw	s0,8(sp)
	.cfi_restore 8
	addi	sp,sp,16
	.cfi_def_cfa_offset 0
	jr	ra
.LVL124:
.L112:
	.cfi_restore_state
	mv	s0,a0
	.loc 1 286 3 is_stmt 1
	.loc 1 286 8
	.loc 1 286 13
	.loc 1 286 7
	.loc 1 286 17
	.loc 1 286 22
	.loc 1 286 41
	.loc 1 287 3
.LVL125:
	.loc 1 288 3
	.loc 1 288 10 is_stmt 0
	lw	a0,12(a0)
.LVL126:
	call	tcp_listen_with_backlog_and_err
.LVL127:
	.loc 1 289 3 is_stmt 1
	.loc 1 289 6 is_stmt 0
	beq	a0,zero,.L114
	.loc 1 290 5 is_stmt 1
	.loc 1 291 5 is_stmt 0
	lui	a1,%hi(altcp_tcp_accept)
	.loc 1 290 17
	sw	a0,12(s0)
	.loc 1 291 5 is_stmt 1
	addi	a1,a1,%lo(altcp_tcp_accept)
	call	tcp_accept
.LVL128:
	.loc 1 292 5
	.loc 1 292 12 is_stmt 0
	j	.L113
	.cfi_endproc
.LFE21:
	.size	altcp_tcp_listen, .-altcp_tcp_listen
	.section	.text.altcp_tcp_connect,"ax",@progbits
	.align	1
	.type	altcp_tcp_connect, @function
altcp_tcp_connect:
.LFB20:
	.loc 1 267 1 is_stmt 1
	.cfi_startproc
.LVL129:
	.loc 1 268 3
	.loc 1 269 3
	.loc 1 269 6 is_stmt 0
	beq	a0,zero,.L120
	.loc 1 272 3 is_stmt 1
	.loc 1 272 8
	.loc 1 272 13
	.loc 1 272 7
	.loc 1 272 17
	.loc 1 272 22
	.loc 1 272 41
	.loc 1 273 3
	.loc 1 273 19 is_stmt 0
	sw	a3,20(a0)
	.loc 1 274 3 is_stmt 1
.LVL130:
	.loc 1 275 3
	.loc 1 275 10 is_stmt 0
	lw	a0,12(a0)
.LVL131:
	lui	a3,%hi(altcp_tcp_connected)
.LVL132:
	addi	a3,a3,%lo(altcp_tcp_connected)
	tail	tcp_connect
.LVL133:
.L120:
	.loc 1 276 1
	li	a0,-6
.LVL134:
	ret
	.cfi_endproc
.LFE20:
	.size	altcp_tcp_connect, .-altcp_tcp_connect
	.section	.text.altcp_tcp_bind,"ax",@progbits
	.align	1
	.type	altcp_tcp_bind, @function
altcp_tcp_bind:
.LFB19:
	.loc 1 255 1 is_stmt 1
	.cfi_startproc
.LVL135:
	.loc 1 256 3
	.loc 1 257 3
	.loc 1 257 6 is_stmt 0
	beq	a0,zero,.L122
	.loc 1 260 3 is_stmt 1
	.loc 1 260 8
	.loc 1 260 13
	.loc 1 260 7
	.loc 1 260 17
	.loc 1 260 22
	.loc 1 260 41
	.loc 1 261 3
.LVL136:
	.loc 1 262 3
	.loc 1 262 10 is_stmt 0
	lw	a0,12(a0)
.LVL137:
	tail	tcp_bind
.LVL138:
.L122:
	.loc 1 263 1
	li	a0,-6
.LVL139:
	ret
	.cfi_endproc
.LFE19:
	.size	altcp_tcp_bind, .-altcp_tcp_bind
	.section	.text.altcp_tcp_recved,"ax",@progbits
	.align	1
	.type	altcp_tcp_recved, @function
altcp_tcp_recved:
.LFB18:
	.loc 1 245 1 is_stmt 1
	.cfi_startproc
.LVL140:
	.loc 1 246 3
	.loc 1 246 6 is_stmt 0
	beq	a0,zero,.L123
.LBB31:
	.loc 1 247 5 is_stmt 1
.LVL141:
	.loc 1 248 5
	.loc 1 248 10
	.loc 1 248 15
	.loc 1 248 9
	.loc 1 248 19
	.loc 1 248 24
	.loc 1 248 43
	.loc 1 249 5
	lw	a0,12(a0)
.LVL142:
	tail	tcp_recved
.LVL143:
.L123:
.LBE31:
	.loc 1 251 1 is_stmt 0
	ret
	.cfi_endproc
.LFE18:
	.size	altcp_tcp_recved, .-altcp_tcp_recved
	.section	.text.altcp_tcp_recv,"ax",@progbits
	.align	1
	.type	altcp_tcp_recv, @function
altcp_tcp_recv:
.LFB7:
	.loc 1 103 1 is_stmt 1
	.cfi_startproc
.LVL144:
	mv	a1,a0
.LVL145:
	mv	a0,a2
.LVL146:
	.loc 1 104 3
	.loc 1 105 3
	.loc 1 105 6 is_stmt 0
	beq	a1,zero,.L126
	.loc 1 106 5 is_stmt 1
	.loc 1 106 10
	.loc 1 106 15
	.loc 1 106 47
	.loc 1 106 57
	.loc 1 106 62
	.loc 1 106 74
	.loc 1 106 79
	.loc 1 106 84
	.loc 1 106 9
	.loc 1 106 19
	.loc 1 106 24
	.loc 1 106 43
	.loc 1 106 55
	.loc 1 107 5
	.loc 1 107 13 is_stmt 0
	lw	a5,24(a1)
	.loc 1 107 8
	beq	a5,zero,.L126
	.loc 1 108 7 is_stmt 1
	.loc 1 108 14 is_stmt 0
	lw	a0,8(a1)
	jr	a5
.LVL147:
.L126:
.LBB34:
.LBB35:
	.loc 1 111 3 is_stmt 1
	.loc 1 111 6 is_stmt 0
	beq	a0,zero,.L137
	.loc 1 113 5 is_stmt 1
.LBE35:
.LBE34:
	.loc 1 103 1 is_stmt 0
	addi	sp,sp,-16
	.cfi_def_cfa_offset 16
	sw	ra,12(sp)
	.cfi_offset 1, -4
.LBB37:
.LBB36:
	.loc 1 113 5
	call	pbuf_free
.LVL148:
.LBE36:
.LBE37:
	.loc 1 116 1
	lw	ra,12(sp)
	.cfi_restore 1
	li	a0,0
	addi	sp,sp,16
	.cfi_def_cfa_offset 0
	jr	ra
.LVL149:
.L137:
	li	a0,0
.LVL150:
	ret
	.cfi_endproc
.LFE7:
	.size	altcp_tcp_recv, .-altcp_tcp_recv
	.section	.text.altcp_tcp_set_poll,"ax",@progbits
	.align	1
	.type	altcp_tcp_set_poll, @function
altcp_tcp_set_poll:
.LFB17:
	.loc 1 235 1 is_stmt 1
	.cfi_startproc
.LVL151:
	.loc 1 236 3
	.loc 1 235 1 is_stmt 0
	mv	a2,a1
	.loc 1 236 6
	beq	a0,zero,.L140
.LVL152:
.LBB41:
.LBB42:
	.loc 1 237 5 is_stmt 1
	.loc 1 238 5
	.loc 1 238 10
	.loc 1 238 15
	.loc 1 238 9
	.loc 1 238 19
	.loc 1 238 24
	.loc 1 238 43
	.loc 1 239 5
	lw	a0,12(a0)
.LVL153:
	lui	a1,%hi(altcp_tcp_poll)
.LVL154:
	addi	a1,a1,%lo(altcp_tcp_poll)
	tail	tcp_poll
.LVL155:
.L140:
.LBE42:
.LBE41:
	.loc 1 241 1 is_stmt 0
	ret
	.cfi_endproc
.LFE17:
	.size	altcp_tcp_set_poll, .-altcp_tcp_set_poll
	.section	.text.altcp_tcp_new_ip_type,"ax",@progbits
	.align	1
	.globl	altcp_tcp_new_ip_type
	.type	altcp_tcp_new_ip_type, @function
altcp_tcp_new_ip_type:
.LFB14:
	.loc 1 190 1 is_stmt 1
	.cfi_startproc
.LVL156:
	.loc 1 193 3
	.loc 1 190 1 is_stmt 0
	addi	sp,sp,-16
	.cfi_def_cfa_offset 16
	sw	s0,8(sp)
	sw	ra,12(sp)
	sw	s1,4(sp)
	.cfi_offset 8, -8
	.cfi_offset 1, -4
	.cfi_offset 9, -12
	.loc 1 193 26
	call	tcp_new_ip_type
.LVL157:
	.loc 1 194 3 is_stmt 1
	.loc 1 204 9 is_stmt 0
	li	s0,0
	.loc 1 194 6
	beq	a0,zero,.L142
	mv	s1,a0
.LBB46:
	.loc 1 195 5 is_stmt 1
	.loc 1 195 29 is_stmt 0
	call	altcp_alloc
.LVL158:
	mv	s0,a0
.LVL159:
	.loc 1 196 5 is_stmt 1
	.loc 1 196 8 is_stmt 0
	beq	a0,zero,.L144
	.loc 1 197 7 is_stmt 1
.LVL160:
.LBB47:
.LBB48:
	.loc 1 183 3
	mv	a1,s1
	call	altcp_tcp_setup_callbacks
.LVL161:
	.loc 1 184 3
	.loc 1 185 13 is_stmt 0
	lui	a5,%hi(.LANCHOR0)
	addi	a5,a5,%lo(.LANCHOR0)
	.loc 1 184 15
	sw	s1,12(s0)
	.loc 1 185 3 is_stmt 1
	.loc 1 185 13 is_stmt 0
	sw	a5,0(s0)
.LVL162:
.L142:
.LBE48:
.LBE47:
.LBE46:
	.loc 1 205 1
	lw	ra,12(sp)
	.cfi_remember_state
	.cfi_restore 1
	mv	a0,s0
	lw	s0,8(sp)
	.cfi_restore 8
	lw	s1,4(sp)
	.cfi_restore 9
	addi	sp,sp,16
	.cfi_def_cfa_offset 0
	jr	ra
.LVL163:
.L144:
	.cfi_restore_state
.LBB49:
	.loc 1 201 7 is_stmt 1
	mv	a0,s1
	call	tcp_close
.LVL164:
	j	.L142
.LBE49:
	.cfi_endproc
.LFE14:
	.size	altcp_tcp_new_ip_type, .-altcp_tcp_new_ip_type
	.section	.text.altcp_tcp_alloc,"ax",@progbits
	.align	1
	.globl	altcp_tcp_alloc
	.type	altcp_tcp_alloc, @function
altcp_tcp_alloc:
.LFB15:
	.loc 1 213 1
	.cfi_startproc
.LVL165:
	.loc 1 214 3
	.loc 1 215 3
	.loc 1 215 10 is_stmt 0
	mv	a0,a1
.LVL166:
	tail	altcp_tcp_new_ip_type
.LVL167:
	.cfi_endproc
.LFE15:
	.size	altcp_tcp_alloc, .-altcp_tcp_alloc
	.section	.text.altcp_tcp_wrap,"ax",@progbits
	.align	1
	.globl	altcp_tcp_wrap
	.type	altcp_tcp_wrap, @function
altcp_tcp_wrap:
.LFB16:
	.loc 1 220 1 is_stmt 1
	.cfi_startproc
.LVL168:
	.loc 1 221 3
	.loc 1 220 1 is_stmt 0
	addi	sp,sp,-16
	.cfi_def_cfa_offset 16
	sw	s0,8(sp)
	sw	ra,12(sp)
	sw	s1,4(sp)
	.cfi_offset 8, -8
	.cfi_offset 1, -4
	.cfi_offset 9, -12
	.loc 1 228 9
	li	s0,0
	.loc 1 221 6
	beq	a0,zero,.L148
	mv	s1,a0
.LBB53:
	.loc 1 222 5 is_stmt 1
	.loc 1 222 29 is_stmt 0
	call	altcp_alloc
.LVL169:
	mv	s0,a0
.LVL170:
	.loc 1 223 5 is_stmt 1
	.loc 1 223 8 is_stmt 0
	beq	a0,zero,.L148
	.loc 1 224 7 is_stmt 1
.LVL171:
.LBB54:
.LBB55:
	.loc 1 183 3
	mv	a1,s1
	call	altcp_tcp_setup_callbacks
.LVL172:
	.loc 1 184 3
	.loc 1 185 13 is_stmt 0
	lui	a5,%hi(.LANCHOR0)
	addi	a5,a5,%lo(.LANCHOR0)
	.loc 1 184 15
	sw	s1,12(s0)
	.loc 1 185 3 is_stmt 1
	.loc 1 185 13 is_stmt 0
	sw	a5,0(s0)
.LVL173:
.L148:
.LBE55:
.LBE54:
.LBE53:
	.loc 1 229 1
	lw	ra,12(sp)
	.cfi_restore 1
	mv	a0,s0
	lw	s0,8(sp)
	.cfi_restore 8
	lw	s1,4(sp)
	.cfi_restore 9
	addi	sp,sp,16
	.cfi_def_cfa_offset 0
	jr	ra
	.cfi_endproc
.LFE16:
	.size	altcp_tcp_wrap, .-altcp_tcp_wrap
	.globl	altcp_tcp_functions
	.section	.rodata.altcp_tcp_functions,"a"
	.align	2
	.set	.LANCHOR0,. + 0
	.type	altcp_tcp_functions, @object
	.size	altcp_tcp_functions, 84
altcp_tcp_functions:
	.word	altcp_tcp_set_poll
	.word	altcp_tcp_recved
	.word	altcp_tcp_bind
	.word	altcp_tcp_connect
	.word	altcp_tcp_listen
	.word	altcp_tcp_abort
	.word	altcp_tcp_close
	.word	altcp_tcp_shutdown
	.word	altcp_tcp_write
	.word	altcp_tcp_output
	.word	altcp_tcp_mss
	.word	altcp_tcp_sndbuf
	.word	altcp_tcp_sndqueuelen
	.word	altcp_tcp_nagle_disable
	.word	altcp_tcp_nagle_enable
	.word	altcp_tcp_nagle_disabled
	.word	altcp_tcp_setprio
	.word	altcp_tcp_dealloc
	.word	altcp_tcp_get_tcp_addrinfo
	.word	altcp_tcp_get_ip
	.word	altcp_tcp_get_port
	.text
.Letext0:
	.file 2 "/mnt/d/GitHub/bl_iot_sdk_for_aithinker/toolchain/riscv/Linux/riscv64-unknown-elf/include/machine/_default_types.h"
	.file 3 "/mnt/d/GitHub/bl_iot_sdk_for_aithinker/toolchain/riscv/Linux/riscv64-unknown-elf/include/sys/_stdint.h"
	.file 4 "/mnt/d/GitHub/bl_iot_sdk_for_aithinker/components/network/lwip/src/include/lwip/arch.h"
	.file 5 "/mnt/d/GitHub/bl_iot_sdk_for_aithinker/components/network/lwip/src/include/lwip/tcpbase.h"
	.file 6 "/mnt/d/GitHub/bl_iot_sdk_for_aithinker/components/network/lwip/src/include/lwip/err.h"
	.file 7 "/mnt/d/GitHub/bl_iot_sdk_for_aithinker/components/network/lwip/src/include/lwip/pbuf.h"
	.file 8 "/mnt/d/GitHub/bl_iot_sdk_for_aithinker/components/network/lwip/src/include/lwip/ip4_addr.h"
	.file 9 "/mnt/d/GitHub/bl_iot_sdk_for_aithinker/components/network/lwip/src/include/lwip/ip_addr.h"
	.file 10 "/mnt/d/GitHub/bl_iot_sdk_for_aithinker/components/network/lwip/src/include/lwip/altcp.h"
	.file 11 "/mnt/d/GitHub/bl_iot_sdk_for_aithinker/components/network/lwip/src/include/lwip/priv/altcp_priv.h"
	.file 12 "/mnt/d/GitHub/bl_iot_sdk_for_aithinker/components/network/lwip/src/include/lwip/memp.h"
	.file 13 "/mnt/d/GitHub/bl_iot_sdk_for_aithinker/components/network/lwip/src/include/lwip/netif.h"
	.file 14 "/mnt/d/GitHub/bl_iot_sdk_for_aithinker/components/network/lwip/src/include/lwip/tcp.h"