	.file	"altcp_alloc.c"
	.option nopic
	.attribute arch, "rv32i2p0_m2p0_f2p0_c2p0"
	.attribute unaligned_access, 0
	.attribute stack_align, 16
	.text
.Ltext0:
	.cfi_sections	.debug_frame
	.section	.text.altcp_tls_new,"ax",@progbits
	.align	1
	.globl	altcp_tls_new
	.type	altcp_tls_new, @function
altcp_tls_new:
.LFB5:
	.file 1 "/mnt/d/GitHub/bl_iot_sdk_for_aithinker/components/network/lwip/src/core/altcp_alloc.c"
	.loc 1 62 1
	.cfi_startproc
.LVL0:
	.loc 1 63 3
	.loc 1 64 3
	.loc 1 66 3
	.loc 1 62 1 is_stmt 0
	addi	sp,sp,-16
	.cfi_def_cfa_offset 16
	sw	s0,8(sp)
	.cfi_offset 8, -8
	mv	s0,a0
	.loc 1 66 16
	mv	a0,a1
.LVL1:
	.loc 1 62 1
	sw	ra,12(sp)
	sw	s1,4(sp)
	.cfi_offset 1, -4
	.cfi_offset 9, -12
	.loc 1 66 16
	call	altcp_tcp_new_ip_type
.LVL2:
	.loc 1 67 3 is_stmt 1
	.loc 1 67 6 is_stmt 0
	beq	a0,zero,.L3
	.loc 1 70 9
	mv	a1,a0
	mv	s1,a0
	.loc 1 70 3 is_stmt 1
	.loc 1 70 9 is_stmt 0
	mv	a0,s0
.LVL3:
	call	altcp_tls_wrap
.LVL4:
	mv	s0,a0
.LVL5:
	.loc 1 71 3 is_stmt 1
	.loc 1 71 6 is_stmt 0
	bne	a0,zero,.L1
	.loc 1 72 5 is_stmt 1
	mv	a0,s1
	call	altcp_close
.LVL6:
.L1:
	.loc 1 75 1 is_stmt 0
	lw	ra,12(sp)
	.cfi_remember_state
	.cfi_restore 1
	mv	a0,s0
	lw	s0,8(sp)
	.cfi_restore 8
	lw	s1,4(sp)
	.cfi_restore 9
	addi	sp,sp,16
	.cfi_def_cfa_offset 0
	jr	ra
.LVL7:
.L3:
	.cfi_restore_state
	.loc 1 68 11
	li	s0,0
.LVL8:
	j	.L1
	.cfi_endproc
.LFE5:
	.size	altcp_tls_new, .-altcp_tls_new
	.section	.text.altcp_tls_alloc,"ax",@progbits
	.align	1
	.globl	altcp_tls_alloc
	.type	altcp_tls_alloc, @function
altcp_tls_alloc:
.LFB6:
	.loc 1 81 1 is_stmt 1
	.cfi_startproc
.LVL9:
	.loc 1 82 3
	.loc 1 82 10 is_stmt 0
	tail	altcp_tls_new
.LVL10:
	.cfi_endproc
.LFE6:
	.size	altcp_tls_alloc, .-altcp_tls_alloc
	.text
.Letext0:
	.file 2 "/mnt/d/GitHub/bl_iot_sdk_for_aithinker/toolchain/riscv/Linux/riscv64-unknown-elf/include/machine/_default_types.h"
	.file 3 "/mnt/d/GitHub/bl_iot_sdk_for_aithinker/toolchain/riscv/Linux/riscv64-unknown-elf/include/sys/_stdint.h"
	.file 4 "/mnt/d/GitHub/bl_iot_sdk_for_aithinker/components/network/lwip/src/include/lwip/arch.h"
	.file 5 "/mnt/d/GitHub/bl_iot_sdk_for_aithinker/components/network/lwip/src/include/lwip/err.h"
	.file 6 "/mnt/d/GitHub/bl_iot_sdk_for_aithinker/components/network/lwip/src/include/lwip/pbuf.h"
	.file 7 "/mnt/d/GitHub/bl_iot_sdk_for_aithinker/components/network/lwip/src/include/lwip/ip4_addr.h"
	.file 8 "/mnt/d/GitHub/bl_iot_sdk_for_aithinker/components/network/lwip/src/include/lwip/ip_addr.h"
	.file 9 "/mnt/d/GitHub/bl_iot_sdk_for_aithinker/components/network/lwip/src/include/lwip/altcp.h"
	.file 10 "/mnt/d/GitHub/bl_iot_sdk_for_aithinker/components/network/lwip/src/include/lwip/priv/altcp_priv.h"
	.file 11 "/mnt/d/GitHub/bl_iot_sdk_for_aithinker/components/network/lwip/src/include/lwip/altcp_tcp.h"
	.file 12 "/mnt/d/GitHub/bl_iot_sdk_for_aithinker/components/network/lwip/src/include/lwip/altcp_tls.h"