	.file	"altcp.c"
	.option nopic
	.attribute arch, "rv32i2p0_m2p0_f2p0_c2p0"
	.attribute unaligned_access, 0
	.attribute stack_align, 16
	.text
.Ltext0:
	.cfi_sections	.debug_frame
	.section	.text.altcp_alloc,"ax",@progbits
	.align	1
	.globl	altcp_alloc
	.type	altcp_alloc, @function
altcp_alloc:
.LFB5:
	.file 1 "/mnt/d/GitHub/bl_iot_sdk_for_aithinker/components/network/lwip/src/core/altcp.c"
	.loc 1 137 1
	.cfi_startproc
	.loc 1 138 3
	.loc 1 137 1 is_stmt 0
	addi	sp,sp,-16
	.cfi_def_cfa_offset 16
	.loc 1 138 47
	li	a0,5
	.loc 1 137 1
	sw	s0,8(sp)
	sw	ra,12(sp)
	.cfi_offset 8, -8
	.cfi_offset 1, -4
	.loc 1 138 47
	call	memp_malloc
.LVL0:
	mv	s0,a0
.LVL1:
	.loc 1 139 3 is_stmt 1
	.loc 1 139 6 is_stmt 0
	beq	a0,zero,.L1
	.loc 1 140 5 is_stmt 1
	li	a2,44
	li	a1,0
	call	memset
.LVL2:
	.loc 1 142 3
.L1:
	.loc 1 143 1 is_stmt 0
	lw	ra,12(sp)
	.cfi_restore 1
	mv	a0,s0
	lw	s0,8(sp)
	.cfi_restore 8
.LVL3:
	addi	sp,sp,16
	.cfi_def_cfa_offset 0
	jr	ra
	.cfi_endproc
.LFE5:
	.size	altcp_alloc, .-altcp_alloc
	.section	.text.altcp_free,"ax",@progbits
	.align	1
	.globl	altcp_free
	.type	altcp_free, @function
altcp_free:
.LFB6:
	.loc 1 150 1 is_stmt 1
	.cfi_startproc
.LVL4:
	.loc 1 151 3
	.loc 1 151 6 is_stmt 0
	beq	a0,zero,.L7
	.loc 1 152 13
	lw	a5,0(a0)
	mv	a1,a0
	.loc 1 152 5 is_stmt 1
	.loc 1 152 8 is_stmt 0
	beq	a5,zero,.L17
	.loc 1 152 31 discriminator 1
	lw	a5,68(a5)
	.loc 1 152 19 discriminator 1
	beq	a5,zero,.L17
	.loc 1 150 1
	addi	sp,sp,-32
	.cfi_def_cfa_offset 32
	sw	ra,28(sp)
	.cfi_offset 1, -4
	sw	a0,12(sp)
	.loc 1 153 7 is_stmt 1
	jalr	a5
.LVL5:
	lw	a1,12(sp)
	.loc 1 155 5
	.loc 1 157 1 is_stmt 0
	lw	ra,28(sp)
	.cfi_restore 1
	.loc 1 155 5
	li	a0,5
	.loc 1 157 1
	addi	sp,sp,32
	.cfi_def_cfa_offset 0
.LVL6:
.L20:
	.loc 1 155 5
	tail	memp_free
.LVL7:
.L7:
	ret
.L17:
	.loc 1 155 5 is_stmt 1
	li	a0,5
.LVL8:
	j	.L20
	.cfi_endproc
.LFE6:
	.size	altcp_free, .-altcp_free
	.section	.text.altcp_new_ip_type,"ax",@progbits
	.align	1
	.globl	altcp_new_ip_type
	.type	altcp_new_ip_type, @function
altcp_new_ip_type:
.LFB9:
	.loc 1 190 1
	.cfi_startproc
.LVL9:
	.loc 1 191 3
	.loc 1 192 3
	.loc 1 190 1 is_stmt 0
	mv	a5,a0
	mv	a0,a1
.LVL10:
	.loc 1 192 6
	bne	a5,zero,.L22
	.loc 1 194 5 is_stmt 1
	.loc 1 194 12 is_stmt 0
	tail	altcp_tcp_new_ip_type
.LVL11:
.L22:
	.loc 1 196 3 is_stmt 1
	.loc 1 196 16 is_stmt 0
	lw	a4,0(a5)
	.loc 1 196 6
	beq	a4,zero,.L23
	.loc 1 200 3 is_stmt 1
	.loc 1 200 10 is_stmt 0
	lw	a0,4(a5)
	jr	a4
.LVL12:
.L23:
	.loc 1 206 1
	li	a0,0
	ret
	.cfi_endproc
.LFE9:
	.size	altcp_new_ip_type, .-altcp_new_ip_type
	.section	.text.altcp_new_ip6,"ax",@progbits
	.align	1
	.globl	altcp_new_ip6
	.type	altcp_new_ip6, @function
altcp_new_ip6:
.LFB7:
	.loc 1 165 1 is_stmt 1
	.cfi_startproc
.LVL13:
	.loc 1 166 3
	.loc 1 166 10 is_stmt 0
	li	a1,6
	tail	altcp_new_ip_type
.LVL14:
	.cfi_endproc
.LFE7:
	.size	altcp_new_ip6, .-altcp_new_ip6
	.section	.text.altcp_new,"ax",@progbits
	.align	1
	.globl	altcp_new
	.type	altcp_new, @function
altcp_new:
.LFB8:
	.loc 1 175 1 is_stmt 1
	.cfi_startproc
.LVL15:
	.loc 1 176 3
	.loc 1 176 10 is_stmt 0
	li	a1,0
	tail	altcp_new_ip_type
.LVL16:
	.cfi_endproc
.LFE8:
	.size	altcp_new, .-altcp_new
	.section	.text.altcp_arg,"ax",@progbits
	.align	1
	.globl	altcp_arg
	.type	altcp_arg, @function
altcp_arg:
.LFB10:
	.loc 1 214 1 is_stmt 1
	.cfi_startproc
.LVL17:
	.loc 1 215 3
	.loc 1 215 6 is_stmt 0
	beq	a0,zero,.L26
	.loc 1 216 5 is_stmt 1
	.loc 1 216 15 is_stmt 0
	sw	a1,8(a0)
.L26:
	.loc 1 218 1
	ret
	.cfi_endproc
.LFE10:
	.size	altcp_arg, .-altcp_arg
	.section	.text.altcp_accept,"ax",@progbits
	.align	1
	.globl	altcp_accept
	.type	altcp_accept, @function
altcp_accept:
.LFB11:
	.loc 1 226 1 is_stmt 1
	.cfi_startproc
.LVL18:
	.loc 1 227 3
	.loc 1 227 6 is_stmt 0
	beq	a0,zero,.L31
	.loc 1 228 5 is_stmt 1
	.loc 1 228 18 is_stmt 0
	sw	a1,16(a0)
.L31:
	.loc 1 230 1
	ret
	.cfi_endproc
.LFE11:
	.size	altcp_accept, .-altcp_accept
	.section	.text.altcp_recv,"ax",@progbits
	.align	1
	.globl	altcp_recv
	.type	altcp_recv, @function
altcp_recv:
.LFB12:
	.loc 1 238 1 is_stmt 1
	.cfi_startproc
.LVL19:
	.loc 1 239 3
	.loc 1 239 6 is_stmt 0
	beq	a0,zero,.L36
	.loc 1 240 5 is_stmt 1
	.loc 1 240 16 is_stmt 0
	sw	a1,24(a0)
.L36:
	.loc 1 242 1
	ret
	.cfi_endproc
.LFE12:
	.size	altcp_recv, .-altcp_recv
	.section	.text.altcp_sent,"ax",@progbits
	.align	1
	.globl	altcp_sent
	.type	altcp_sent, @function
altcp_sent:
.LFB13:
	.loc 1 250 1 is_stmt 1
	.cfi_startproc
.LVL20:
	.loc 1 251 3
	.loc 1 251 6 is_stmt 0
	beq	a0,zero,.L41
	.loc 1 252 5 is_stmt 1
	.loc 1 252 16 is_stmt 0
	sw	a1,28(a0)
.L41:
	.loc 1 254 1
	ret
	.cfi_endproc
.LFE13:
	.size	altcp_sent, .-altcp_sent
	.section	.text.altcp_poll,"ax",@progbits
	.align	1
	.globl	altcp_poll
	.type	altcp_poll, @function
altcp_poll:
.LFB14:
	.loc 1 262 1 is_stmt 1
	.cfi_startproc
.LVL21:
	.loc 1 263 3
	.loc 1 262 1 is_stmt 0
	mv	a4,a1
	mv	a1,a2
.LVL22:
	.loc 1 263 6
	beq	a0,zero,.L46
	.loc 1 264 5 is_stmt 1
	.loc 1 266 13 is_stmt 0
	lw	a5,0(a0)
	.loc 1 264 16
	sw	a4,32(a0)
	.loc 1 265 5 is_stmt 1
	.loc 1 265 24 is_stmt 0
	sb	a2,40(a0)
	.loc 1 266 5 is_stmt 1
	.loc 1 266 8 is_stmt 0
	beq	a5,zero,.L46
	.loc 1 266 31 discriminator 1
	lw	a5,0(a5)
	.loc 1 266 19 discriminator 1
	beq	a5,zero,.L46
	.loc 1 267 7 is_stmt 1
	jr	a5
.LVL23:
.L46:
	.loc 1 270 1 is_stmt 0
	ret
	.cfi_endproc
.LFE14:
	.size	altcp_poll, .-altcp_poll
	.section	.text.altcp_err,"ax",@progbits
	.align	1
	.globl	altcp_err
	.type	altcp_err, @function
altcp_err:
.LFB15:
	.loc 1 278 1 is_stmt 1
	.cfi_startproc
.LVL24:
	.loc 1 279 3
	.loc 1 279 6 is_stmt 0
	beq	a0,zero,.L56
	.loc 1 280 5 is_stmt 1
	.loc 1 280 15 is_stmt 0
	sw	a1,36(a0)
.L56:
	.loc 1 282 1
	ret
	.cfi_endproc
.LFE15:
	.size	altcp_err, .-altcp_err
	.section	.text.altcp_recved,"ax",@progbits
	.align	1
	.globl	altcp_recved
	.type	altcp_recved, @function
altcp_recved:
.LFB16:
	.loc 1 292 1 is_stmt 1
	.cfi_startproc
.LVL25:
	.loc 1 293 3
	.loc 1 293 6 is_stmt 0
	beq	a0,zero,.L61
	.loc 1 293 19 discriminator 1
	lw	a5,0(a0)
	.loc 1 293 12 discriminator 1
	beq	a5,zero,.L61
	.loc 1 293 37 discriminator 2
	lw	a5,4(a5)
	.loc 1 293 25 discriminator 2
	beq	a5,zero,.L61
	.loc 1 294 5 is_stmt 1
	jr	a5
.LVL26:
.L61:
	.loc 1 296 1 is_stmt 0
	ret
	.cfi_endproc
.LFE16:
	.size	altcp_recved, .-altcp_recved
	.section	.text.altcp_bind,"ax",@progbits
	.align	1
	.globl	altcp_bind
	.type	altcp_bind, @function
altcp_bind:
.LFB17:
	.loc 1 304 1 is_stmt 1
	.cfi_startproc
.LVL27:
	.loc 1 305 3
	.loc 1 305 6 is_stmt 0
	beq	a0,zero,.L73
	.loc 1 305 19 discriminator 1
	lw	a5,0(a0)
	.loc 1 305 12 discriminator 1
	beq	a5,zero,.L73
	.loc 1 305 37 discriminator 2
	lw	a5,8(a5)
	.loc 1 305 25 discriminator 2
	beq	a5,zero,.L73
	.loc 1 306 5 is_stmt 1
	.loc 1 306 12 is_stmt 0
	jr	a5
.LVL28:
.L73:
	.loc 1 309 1
	li	a0,-6
.LVL29:
	ret
	.cfi_endproc
.LFE17:
	.size	altcp_bind, .-altcp_bind
	.section	.text.altcp_connect,"ax",@progbits
	.align	1
	.globl	altcp_connect
	.type	altcp_connect, @function
altcp_connect:
.LFB18:
	.loc 1 317 1 is_stmt 1
	.cfi_startproc
.LVL30:
	.loc 1 318 3
	.loc 1 318 6 is_stmt 0
	beq	a0,zero,.L81
	.loc 1 318 19 discriminator 1
	lw	a5,0(a0)
	.loc 1 318 12 discriminator 1
	beq	a5,zero,.L81
	.loc 1 318 37 discriminator 2
	lw	a5,12(a5)
	.loc 1 318 25 discriminator 2
	beq	a5,zero,.L81
	.loc 1 319 5 is_stmt 1
	.loc 1 319 12 is_stmt 0
	jr	a5
.LVL31:
.L81:
	.loc 1 322 1
	li	a0,-6
.LVL32:
	ret
	.cfi_endproc
.LFE18:
	.size	altcp_connect, .-altcp_connect
	.section	.text.altcp_listen_with_backlog_and_err,"ax",@progbits
	.align	1
	.globl	altcp_listen_with_backlog_and_err
	.type	altcp_listen_with_backlog_and_err, @function
altcp_listen_with_backlog_and_err:
.LFB19:
	.loc 1 330 1 is_stmt 1
	.cfi_startproc
.LVL33:
	.loc 1 331 3
	.loc 1 331 6 is_stmt 0
	beq	a0,zero,.L88
	.loc 1 331 19 discriminator 1
	lw	a5,0(a0)
	.loc 1 331 12 discriminator 1
	beq	a5,zero,.L88
	.loc 1 331 37 discriminator 2
	lw	a5,16(a5)
	.loc 1 331 25 discriminator 2
	beq	a5,zero,.L88
	.loc 1 332 5 is_stmt 1
	.loc 1 332 12 is_stmt 0
	jr	a5
.LVL34:
.L88:
	.loc 1 335 1
	li	a0,0
.LVL35:
	ret
	.cfi_endproc
.LFE19:
	.size	altcp_listen_with_backlog_and_err, .-altcp_listen_with_backlog_and_err
	.section	.text.altcp_abort,"ax",@progbits
	.align	1
	.globl	altcp_abort
	.type	altcp_abort, @function
altcp_abort:
.LFB20:
	.loc 1 343 1 is_stmt 1
	.cfi_startproc
.LVL36:
	.loc 1 344 3
	.loc 1 344 6 is_stmt 0
	beq	a0,zero,.L97
	.loc 1 344 19 discriminator 1
	lw	a5,0(a0)
	.loc 1 344 12 discriminator 1
	beq	a5,zero,.L97
	.loc 1 344 37 discriminator 2
	lw	a5,20(a5)
	.loc 1 344 25 discriminator 2
	beq	a5,zero,.L97
	.loc 1 345 5 is_stmt 1
	jr	a5
.LVL37:
.L97:
	.loc 1 347 1 is_stmt 0
	ret
	.cfi_endproc
.LFE20:
	.size	altcp_abort, .-altcp_abort
	.section	.text.altcp_close,"ax",@progbits
	.align	1
	.globl	altcp_close
	.type	altcp_close, @function
altcp_close:
.LFB21:
	.loc 1 355 1 is_stmt 1
	.cfi_startproc
.LVL38:
	.loc 1 356 3
	.loc 1 356 6 is_stmt 0
	beq	a0,zero,.L109
	.loc 1 356 19 discriminator 1
	lw	a5,0(a0)
	.loc 1 356 12 discriminator 1
	beq	a5,zero,.L109
	.loc 1 356 37 discriminator 2
	lw	a5,24(a5)
	.loc 1 356 25 discriminator 2
	beq	a5,zero,.L109
	.loc 1 357 5 is_stmt 1
	.loc 1 357 12 is_stmt 0
	jr	a5
.LVL39:
.L109:
	.loc 1 360 1
	li	a0,-6
.LVL40:
	ret
	.cfi_endproc
.LFE21:
	.size	altcp_close, .-altcp_close
	.section	.text.altcp_shutdown,"ax",@progbits
	.align	1
	.globl	altcp_shutdown
	.type	altcp_shutdown, @function
altcp_shutdown:
.LFB22:
	.loc 1 368 1 is_stmt 1
	.cfi_startproc
.LVL41:
	.loc 1 369 3
	.loc 1 369 6 is_stmt 0
	beq	a0,zero,.L117
	.loc 1 369 19 discriminator 1
	lw	a5,0(a0)
	.loc 1 369 12 discriminator 1
	beq	a5,zero,.L117
	.loc 1 369 37 discriminator 2
	lw	a5,28(a5)
	.loc 1 369 25 discriminator 2
	beq	a5,zero,.L117
	.loc 1 370 5 is_stmt 1
	.loc 1 370 12 is_stmt 0
	jr	a5
.LVL42:
.L117:
	.loc 1 373 1
	li	a0,-6
.LVL43:
	ret
	.cfi_endproc
.LFE22:
	.size	altcp_shutdown, .-altcp_shutdown
	.section	.text.altcp_write,"ax",@progbits
	.align	1
	.globl	altcp_write
	.type	altcp_write, @function
altcp_write:
.LFB23:
	.loc 1 381 1 is_stmt 1
	.cfi_startproc
.LVL44:
	.loc 1 382 3
	.loc 1 382 6 is_stmt 0
	beq	a0,zero,.L125
	.loc 1 382 19 discriminator 1
	lw	a5,0(a0)
	.loc 1 382 12 discriminator 1
	beq	a5,zero,.L125
	.loc 1 382 37 discriminator 2
	lw	a5,32(a5)
	.loc 1 382 25 discriminator 2
	beq	a5,zero,.L125
	.loc 1 383 5 is_stmt 1
	.loc 1 383 12 is_stmt 0
	jr	a5
.LVL45:
.L125:
	.loc 1 386 1
	li	a0,-6
.LVL46:
	ret
	.cfi_endproc
.LFE23:
	.size	altcp_write, .-altcp_write
	.section	.text.altcp_output,"ax",@progbits
	.align	1
	.globl	altcp_output
	.type	altcp_output, @function
altcp_output:
.LFB24:
	.loc 1 394 1 is_stmt 1
	.cfi_startproc
.LVL47:
	.loc 1 395 3
	.loc 1 395 6 is_stmt 0
	beq	a0,zero,.L133
	.loc 1 395 19 discriminator 1
	lw	a5,0(a0)
	.loc 1 395 12 discriminator 1
	beq	a5,zero,.L133
	.loc 1 395 37 discriminator 2
	lw	a5,36(a5)
	.loc 1 395 25 discriminator 2
	beq	a5,zero,.L133
	.loc 1 396 5 is_stmt 1
	.loc 1 396 12 is_stmt 0
	jr	a5
.LVL48:
.L133:
	.loc 1 399 1
	li	a0,-6
.LVL49:
	ret
	.cfi_endproc
.LFE24:
	.size	altcp_output, .-altcp_output
	.section	.text.altcp_mss,"ax",@progbits
	.align	1
	.globl	altcp_mss
	.type	altcp_mss, @function
altcp_mss:
.LFB25:
	.loc 1 407 1 is_stmt 1
	.cfi_startproc
.LVL50:
	.loc 1 408 3
	.loc 1 408 6 is_stmt 0
	beq	a0,zero,.L141
	.loc 1 408 19 discriminator 1
	lw	a5,0(a0)
	.loc 1 408 12 discriminator 1
	beq	a5,zero,.L141
	.loc 1 408 37 discriminator 2
	lw	a5,40(a5)
	.loc 1 408 25 discriminator 2
	beq	a5,zero,.L141
	.loc 1 409 5 is_stmt 1
	.loc 1 409 12 is_stmt 0
	jr	a5
.LVL51:
.L141:
	.loc 1 412 1
	li	a0,0
.LVL52:
	ret
	.cfi_endproc
.LFE25:
	.size	altcp_mss, .-altcp_mss
	.section	.text.altcp_sndbuf,"ax",@progbits
	.align	1
	.globl	altcp_sndbuf
	.type	altcp_sndbuf, @function
altcp_sndbuf:
.LFB26:
	.loc 1 420 1 is_stmt 1
	.cfi_startproc
.LVL53:
	.loc 1 421 3
	.loc 1 421 6 is_stmt 0
	beq	a0,zero,.L149
	.loc 1 421 19 discriminator 1
	lw	a5,0(a0)
	.loc 1 421 12 discriminator 1
	beq	a5,zero,.L149
	.loc 1 421 37 discriminator 2
	lw	a5,44(a5)
	.loc 1 421 25 discriminator 2
	beq	a5,zero,.L149
	.loc 1 422 5 is_stmt 1
	.loc 1 422 12 is_stmt 0
	jr	a5
.LVL54:
.L149:
	.loc 1 425 1
	li	a0,0
.LVL55:
	ret
	.cfi_endproc
.LFE26:
	.size	altcp_sndbuf, .-altcp_sndbuf
	.section	.text.altcp_sndqueuelen,"ax",@progbits
	.align	1
	.globl	altcp_sndqueuelen
	.type	altcp_sndqueuelen, @function
altcp_sndqueuelen:
.LFB27:
	.loc 1 433 1 is_stmt 1
	.cfi_startproc
.LVL56:
	.loc 1 434 3
	.loc 1 434 6 is_stmt 0
	beq	a0,zero,.L157
	.loc 1 434 19 discriminator 1
	lw	a5,0(a0)
	.loc 1 434 12 discriminator 1
	beq	a5,zero,.L157
	.loc 1 434 37 discriminator 2
	lw	a5,48(a5)
	.loc 1 434 25 discriminator 2
	beq	a5,zero,.L157
	.loc 1 435 5 is_stmt 1
	.loc 1 435 12 is_stmt 0
	jr	a5
.LVL57:
.L157:
	.loc 1 438 1
	li	a0,0
.LVL58:
	ret
	.cfi_endproc
.LFE27:
	.size	altcp_sndqueuelen, .-altcp_sndqueuelen
	.section	.text.altcp_nagle_disable,"ax",@progbits
	.align	1
	.globl	altcp_nagle_disable
	.type	altcp_nagle_disable, @function
altcp_nagle_disable:
.LFB28:
	.loc 1 442 1 is_stmt 1
	.cfi_startproc
.LVL59:
	.loc 1 443 3
	.loc 1 443 6 is_stmt 0
	beq	a0,zero,.L164
	.loc 1 443 19 discriminator 1
	lw	a5,0(a0)
	.loc 1 443 12 discriminator 1
	beq	a5,zero,.L164
	.loc 1 443 37 discriminator 2
	lw	a5,52(a5)
	.loc 1 443 25 discriminator 2
	beq	a5,zero,.L164
	.loc 1 444 5 is_stmt 1
	jr	a5
.LVL60:
.L164:
	.loc 1 446 1 is_stmt 0
	ret
	.cfi_endproc
.LFE28:
	.size	altcp_nagle_disable, .-altcp_nagle_disable
	.section	.text.altcp_nagle_enable,"ax",@progbits
	.align	1
	.globl	altcp_nagle_enable
	.type	altcp_nagle_enable, @function
altcp_nagle_enable:
.LFB29:
	.loc 1 450 1 is_stmt 1
	.cfi_startproc
.LVL61:
	.loc 1 451 3
	.loc 1 451 6 is_stmt 0
	beq	a0,zero,.L175
	.loc 1 451 19 discriminator 1
	lw	a5,0(a0)
	.loc 1 451 12 discriminator 1
	beq	a5,zero,.L175
	.loc 1 451 37 discriminator 2
	lw	a5,56(a5)
	.loc 1 451 25 discriminator 2
	beq	a5,zero,.L175
	.loc 1 452 5 is_stmt 1
	jr	a5
.LVL62:
.L175:
	.loc 1 454 1 is_stmt 0
	ret
	.cfi_endproc
.LFE29:
	.size	altcp_nagle_enable, .-altcp_nagle_enable
	.section	.text.altcp_nagle_disabled,"ax",@progbits
	.align	1
	.globl	altcp_nagle_disabled
	.type	altcp_nagle_disabled, @function
altcp_nagle_disabled:
.LFB30:
	.loc 1 458 1 is_stmt 1
	.cfi_startproc
.LVL63:
	.loc 1 459 3
	.loc 1 459 6 is_stmt 0
	beq	a0,zero,.L186
	.loc 1 459 19 discriminator 1
	lw	a5,0(a0)
	.loc 1 459 12 discriminator 1
	beq	a5,zero,.L186
	.loc 1 459 37 discriminator 2
	lw	a5,60(a5)
	.loc 1 459 25 discriminator 2
	beq	a5,zero,.L186
	.loc 1 460 5 is_stmt 1
	.loc 1 460 12 is_stmt 0
	jr	a5
.LVL64:
.L186:
	.loc 1 463 1
	li	a0,0
.LVL65:
	ret
	.cfi_endproc
.LFE30:
	.size	altcp_nagle_disabled, .-altcp_nagle_disabled
	.section	.text.altcp_setprio,"ax",@progbits
	.align	1
	.globl	altcp_setprio
	.type	altcp_setprio, @function
altcp_setprio:
.LFB31:
	.loc 1 471 1 is_stmt 1
	.cfi_startproc
.LVL66:
	.loc 1 472 3
	.loc 1 472 6 is_stmt 0
	beq	a0,zero,.L194
	.loc 1 472 19 discriminator 1
	lw	a5,0(a0)
	.loc 1 472 12 discriminator 1
	beq	a5,zero,.L194
	.loc 1 472 37 discriminator 2
	lw	a5,64(a5)
	.loc 1 472 25 discriminator 2
	beq	a5,zero,.L194
	.loc 1 473 5 is_stmt 1
	jr	a5
.LVL67:
.L194:
	.loc 1 475 1 is_stmt 0
	ret
	.cfi_endproc
.LFE31:
	.size	altcp_setprio, .-altcp_setprio
	.section	.text.altcp_get_tcp_addrinfo,"ax",@progbits
	.align	1
	.globl	altcp_get_tcp_addrinfo
	.type	altcp_get_tcp_addrinfo, @function
altcp_get_tcp_addrinfo:
.LFB32:
	.loc 1 479 1 is_stmt 1
	.cfi_startproc
.LVL68:
	.loc 1 480 3
	.loc 1 480 6 is_stmt 0
	beq	a0,zero,.L206
	.loc 1 480 19 discriminator 1
	lw	a5,0(a0)
	.loc 1 480 12 discriminator 1
	beq	a5,zero,.L206
	.loc 1 480 37 discriminator 2
	lw	a5,72(a5)
	.loc 1 480 25 discriminator 2
	beq	a5,zero,.L206
	.loc 1 481 5 is_stmt 1
	.loc 1 481 12 is_stmt 0
	jr	a5
.LVL69:
.L206:
	.loc 1 484 1
	li	a0,-6
.LVL70:
	ret
	.cfi_endproc
.LFE32:
	.size	altcp_get_tcp_addrinfo, .-altcp_get_tcp_addrinfo
	.section	.text.altcp_get_ip,"ax",@progbits
	.align	1
	.globl	altcp_get_ip
	.type	altcp_get_ip, @function
altcp_get_ip:
.LFB33:
	.loc 1 488 1 is_stmt 1
	.cfi_startproc
.LVL71:
	.loc 1 489 3
	.loc 1 489 6 is_stmt 0
	beq	a0,zero,.L213
	.loc 1 489 19 discriminator 1
	lw	a5,0(a0)
	.loc 1 489 12 discriminator 1
	beq	a5,zero,.L213
	.loc 1 489 37 discriminator 2
	lw	a5,76(a5)
	.loc 1 489 25 discriminator 2
	beq	a5,zero,.L213
	.loc 1 490 5 is_stmt 1
	.loc 1 490 12 is_stmt 0
	jr	a5
.LVL72:
.L213:
	.loc 1 493 1
	li	a0,0
.LVL73:
	ret
	.cfi_endproc
.LFE33:
	.size	altcp_get_ip, .-altcp_get_ip
	.section	.text.altcp_get_port,"ax",@progbits
	.align	1
	.globl	altcp_get_port
	.type	altcp_get_port, @function
altcp_get_port:
.LFB34:
	.loc 1 497 1 is_stmt 1
	.cfi_startproc
.LVL74:
	.loc 1 498 3
	.loc 1 498 6 is_stmt 0
	beq	a0,zero,.L223
	.loc 1 498 19 discriminator 1
	lw	a5,0(a0)
	.loc 1 498 12 discriminator 1
	beq	a5,zero,.L223
	.loc 1 498 37 discriminator 2
	lw	a5,80(a5)
	.loc 1 498 25 discriminator 2
	beq	a5,zero,.L223
	.loc 1 499 5 is_stmt 1
	.loc 1 499 12 is_stmt 0
	jr	a5
.LVL75:
.L223:
	.loc 1 502 1
	li	a0,0
.LVL76:
	ret
	.cfi_endproc
.LFE34:
	.size	altcp_get_port, .-altcp_get_port
	.section	.text.altcp_default_set_poll,"ax",@progbits
	.align	1
	.globl	altcp_default_set_poll
	.type	altcp_default_set_poll, @function
altcp_default_set_poll:
.LFB35:
	.loc 1 519 1 is_stmt 1
	.cfi_startproc
.LVL77:
	.loc 1 520 3
	.loc 1 519 1 is_stmt 0
	mv	a5,a0
	mv	a2,a1
	.loc 1 520 6
	beq	a0,zero,.L230
	.loc 1 520 19 discriminator 1
	lw	a0,4(a0)
.LVL78:
	.loc 1 520 12 discriminator 1
	beq	a0,zero,.L230
	.loc 1 521 5 is_stmt 1
	lw	a1,32(a5)
.LVL79:
	tail	altcp_poll
.LVL80:
.L230:
	.loc 1 523 1 is_stmt 0
	ret
	.cfi_endproc
.LFE35:
	.size	altcp_default_set_poll, .-altcp_default_set_poll
	.section	.text.altcp_default_recved,"ax",@progbits
	.align	1
	.globl	altcp_default_recved
	.type	altcp_default_recved, @function
altcp_default_recved:
.LFB36:
	.loc 1 527 1 is_stmt 1
	.cfi_startproc
.LVL81:
	.loc 1 528 3
	.loc 1 528 6 is_stmt 0
	beq	a0,zero,.L238
	.loc 1 528 19 discriminator 1
	lw	a0,4(a0)
.LVL82:
	.loc 1 528 12 discriminator 1
	beq	a0,zero,.L238
	.loc 1 529 5 is_stmt 1
	tail	altcp_recved
.LVL83:
.L238:
	.loc 1 531 1 is_stmt 0
	ret
	.cfi_endproc
.LFE36:
	.size	altcp_default_recved, .-altcp_default_recved
	.section	.text.altcp_default_bind,"ax",@progbits
	.align	1
	.globl	altcp_default_bind
	.type	altcp_default_bind, @function
altcp_default_bind:
.LFB37:
	.loc 1 535 1 is_stmt 1
	.cfi_startproc
.LVL84:
	.loc 1 536 3
	.loc 1 536 6 is_stmt 0
	beq	a0,zero,.L247
	.loc 1 536 19 discriminator 1
	lw	a0,4(a0)
.LVL85:
	.loc 1 536 12 discriminator 1
	beq	a0,zero,.L247
	.loc 1 537 5 is_stmt 1
	.loc 1 537 12 is_stmt 0
	tail	altcp_bind
.LVL86:
.L247:
	.loc 1 540 1
	li	a0,-6
	ret
	.cfi_endproc
.LFE37:
	.size	altcp_default_bind, .-altcp_default_bind
	.section	.text.altcp_default_shutdown,"ax",@progbits
	.align	1
	.globl	altcp_default_shutdown
	.type	altcp_default_shutdown, @function
altcp_default_shutdown:
.LFB38:
	.loc 1 544 1 is_stmt 1
	.cfi_startproc
.LVL87:
	.loc 1 545 3
	.loc 1 544 1 is_stmt 0
	mv	a5,a0
	.loc 1 545 6
	beq	a0,zero,.L253
	.loc 1 546 5 is_stmt 1
	.loc 1 546 8 is_stmt 0
	beq	a1,zero,.L254
	.loc 1 546 17 discriminator 1
	beq	a2,zero,.L254
	.loc 1 546 35 discriminator 2
	lw	a4,0(a0)
	.loc 1 546 28 discriminator 2
	beq	a4,zero,.L254
	.loc 1 546 53 discriminator 3
	lw	a4,24(a4)
	.loc 1 546 41 discriminator 3
	beq	a4,zero,.L254
	.loc 1 548 7 is_stmt 1
	.loc 1 548 14 is_stmt 0
	jr	a4
.LVL88:
.L254:
	.loc 1 550 5 is_stmt 1
	.loc 1 550 13 is_stmt 0
	lw	a0,4(a5)
.LVL89:
	.loc 1 550 8
	beq	a0,zero,.L253
	.loc 1 551 7 is_stmt 1
	.loc 1 551 14 is_stmt 0
	tail	altcp_shutdown
.LVL90:
.L253:
	.loc 1 555 1
	li	a0,-6
	ret
	.cfi_endproc
.LFE38:
	.size	altcp_default_shutdown, .-altcp_default_shutdown
	.section	.text.altcp_default_write,"ax",@progbits
	.align	1
	.globl	altcp_default_write
	.type	altcp_default_write, @function
altcp_default_write:
.LFB39:
	.loc 1 559 1 is_stmt 1
	.cfi_startproc
.LVL91:
	.loc 1 560 3
	.loc 1 560 6 is_stmt 0
	beq	a0,zero,.L272
	.loc 1 560 19 discriminator 1
	lw	a0,4(a0)
.LVL92:
	.loc 1 560 12 discriminator 1
	beq	a0,zero,.L272
	.loc 1 561 5 is_stmt 1
	.loc 1 561 12 is_stmt 0
	tail	altcp_write
.LVL93:
.L272:
	.loc 1 564 1
	li	a0,-6
	ret
	.cfi_endproc
.LFE39:
	.size	altcp_default_write, .-altcp_default_write
	.section	.text.altcp_default_output,"ax",@progbits
	.align	1
	.globl	altcp_default_output
	.type	altcp_default_output, @function
altcp_default_output:
.LFB40:
	.loc 1 568 1 is_stmt 1
	.cfi_startproc
.LVL94:
	.loc 1 569 3
	.loc 1 569 6 is_stmt 0
	beq	a0,zero,.L278
	.loc 1 569 19 discriminator 1
	lw	a0,4(a0)
.LVL95:
	.loc 1 569 12 discriminator 1
	beq	a0,zero,.L278
	.loc 1 570 5 is_stmt 1
	.loc 1 570 12 is_stmt 0
	tail	altcp_output
.LVL96:
.L278:
	.loc 1 573 1
	li	a0,-6
	ret
	.cfi_endproc
.LFE40:
	.size	altcp_default_output, .-altcp_default_output
	.section	.text.altcp_default_mss,"ax",@progbits
	.align	1
	.globl	altcp_default_mss
	.type	altcp_default_mss, @function
altcp_default_mss:
.LFB41:
	.loc 1 577 1 is_stmt 1
	.cfi_startproc
.LVL97:
	.loc 1 578 3
	.loc 1 578 6 is_stmt 0
	beq	a0,zero,.L284
	.loc 1 578 19 discriminator 1
	lw	a0,4(a0)
.LVL98:
	.loc 1 578 12 discriminator 1
	beq	a0,zero,.L284
	.loc 1 579 5 is_stmt 1
	.loc 1 579 12 is_stmt 0
	tail	altcp_mss
.LVL99:
.L284:
	.loc 1 582 1
	li	a0,0
	ret
	.cfi_endproc
.LFE41:
	.size	altcp_default_mss, .-altcp_default_mss
	.section	.text.altcp_default_sndbuf,"ax",@progbits
	.align	1
	.globl	altcp_default_sndbuf
	.type	altcp_default_sndbuf, @function
altcp_default_sndbuf:
.LFB42:
	.loc 1 586 1 is_stmt 1
	.cfi_startproc
.LVL100:
	.loc 1 587 3
	.loc 1 587 6 is_stmt 0
	beq	a0,zero,.L290
	.loc 1 587 19 discriminator 1
	lw	a0,4(a0)
.LVL101:
	.loc 1 587 12 discriminator 1
	beq	a0,zero,.L290
	.loc 1 588 5 is_stmt 1
	.loc 1 588 12 is_stmt 0
	tail	altcp_sndbuf
.LVL102:
.L290:
	.loc 1 591 1
	li	a0,0
	ret
	.cfi_endproc
.LFE42:
	.size	altcp_default_sndbuf, .-altcp_default_sndbuf
	.section	.text.altcp_default_sndqueuelen,"ax",@progbits
	.align	1
	.globl	altcp_default_sndqueuelen
	.type	altcp_default_sndqueuelen, @function
altcp_default_sndqueuelen:
.LFB43:
	.loc 1 595 1 is_stmt 1
	.cfi_startproc
.LVL103:
	.loc 1 596 3
	.loc 1 596 6 is_stmt 0
	beq	a0,zero,.L296
	.loc 1 596 19 discriminator 1
	lw	a0,4(a0)
.LVL104:
	.loc 1 596 12 discriminator 1
	beq	a0,zero,.L296
	.loc 1 597 5 is_stmt 1
	.loc 1 597 12 is_stmt 0
	tail	altcp_sndqueuelen
.LVL105:
.L296:
	.loc 1 600 1
	li	a0,0
	ret
	.cfi_endproc
.LFE43:
	.size	altcp_default_sndqueuelen, .-altcp_default_sndqueuelen
	.section	.text.altcp_default_nagle_disable,"ax",@progbits
	.align	1
	.globl	altcp_default_nagle_disable
	.type	altcp_default_nagle_disable, @function
altcp_default_nagle_disable:
.LFB44:
	.loc 1 604 1 is_stmt 1
	.cfi_startproc
.LVL106:
	.loc 1 605 3
	.loc 1 605 6 is_stmt 0
	beq	a0,zero,.L301
	.loc 1 605 19 discriminator 1
	lw	a0,4(a0)
.LVL107:
	.loc 1 605 12 discriminator 1
	beq	a0,zero,.L301
	.loc 1 606 5 is_stmt 1
	tail	altcp_nagle_disable
.LVL108:
.L301:
	.loc 1 608 1 is_stmt 0
	ret
	.cfi_endproc
.LFE44:
	.size	altcp_default_nagle_disable, .-altcp_default_nagle_disable
	.section	.text.altcp_default_nagle_enable,"ax",@progbits
	.align	1
	.globl	altcp_default_nagle_enable
	.type	altcp_default_nagle_enable, @function
altcp_default_nagle_enable:
.LFB45:
	.loc 1 612 1 is_stmt 1
	.cfi_startproc
.LVL109:
	.loc 1 613 3
	.loc 1 613 6 is_stmt 0
	beq	a0,zero,.L309
	.loc 1 613 19 discriminator 1
	lw	a0,4(a0)
.LVL110:
	.loc 1 613 12 discriminator 1
	beq	a0,zero,.L309
	.loc 1 614 5 is_stmt 1
	tail	altcp_nagle_enable
.LVL111:
.L309:
	.loc 1 616 1 is_stmt 0
	ret
	.cfi_endproc
.LFE45:
	.size	altcp_default_nagle_enable, .-altcp_default_nagle_enable
	.section	.text.altcp_default_nagle_disabled,"ax",@progbits
	.align	1
	.globl	altcp_default_nagle_disabled
	.type	altcp_default_nagle_disabled, @function
altcp_default_nagle_disabled:
.LFB46:
	.loc 1 620 1 is_stmt 1
	.cfi_startproc
.LVL112:
	.loc 1 621 3
	.loc 1 621 6 is_stmt 0
	beq	a0,zero,.L317
	.loc 1 621 19 discriminator 1
	lw	a0,4(a0)
.LVL113:
	.loc 1 621 12 discriminator 1
	beq	a0,zero,.L317
	.loc 1 622 5 is_stmt 1
	.loc 1 622 12 is_stmt 0
	tail	altcp_nagle_disabled
.LVL114:
.L317:
	.loc 1 625 1
	li	a0,0
	ret
	.cfi_endproc
.LFE46:
	.size	altcp_default_nagle_disabled, .-altcp_default_nagle_disabled
	.section	.text.altcp_default_setprio,"ax",@progbits
	.align	1
	.globl	altcp_default_setprio
	.type	altcp_default_setprio, @function
altcp_default_setprio:
.LFB47:
	.loc 1 629 1 is_stmt 1
	.cfi_startproc
.LVL115:
	.loc 1 630 3
	.loc 1 630 6 is_stmt 0
	beq	a0,zero,.L323
	.loc 1 630 19 discriminator 1
	lw	a0,4(a0)
.LVL116:
	.loc 1 630 12 discriminator 1
	beq	a0,zero,.L323
	.loc 1 631 5 is_stmt 1
	tail	altcp_setprio
.LVL117:
.L323:
	.loc 1 633 1 is_stmt 0
	ret
	.cfi_endproc
.LFE47:
	.size	altcp_default_setprio, .-altcp_default_setprio
	.section	.text.altcp_default_dealloc,"ax",@progbits
	.align	1
	.globl	altcp_default_dealloc
	.type	altcp_default_dealloc, @function
altcp_default_dealloc:
.LFB48:
	.loc 1 637 1 is_stmt 1
	.cfi_startproc
.LVL118:
	.loc 1 638 3
	.loc 1 640 1 is_stmt 0
	ret
	.cfi_endproc
.LFE48:
	.size	altcp_default_dealloc, .-altcp_default_dealloc
	.section	.text.altcp_default_get_tcp_addrinfo,"ax",@progbits
	.align	1
	.globl	altcp_default_get_tcp_addrinfo
	.type	altcp_default_get_tcp_addrinfo, @function
altcp_default_get_tcp_addrinfo:
.LFB49:
	.loc 1 644 1 is_stmt 1
	.cfi_startproc
.LVL119:
	.loc 1 645 3
	.loc 1 645 6 is_stmt 0
	beq	a0,zero,.L333
	.loc 1 645 19 discriminator 1
	lw	a0,4(a0)
.LVL120:
	.loc 1 645 12 discriminator 1
	beq	a0,zero,.L333
	.loc 1 646 5 is_stmt 1
	.loc 1 646 12 is_stmt 0
	tail	altcp_get_tcp_addrinfo
.LVL121:
.L333:
	.loc 1 649 1
	li	a0,-6
	ret
	.cfi_endproc
.LFE49:
	.size	altcp_default_get_tcp_addrinfo, .-altcp_default_get_tcp_addrinfo
	.section	.text.altcp_default_get_ip,"ax",@progbits
	.align	1
	.globl	altcp_default_get_ip
	.type	altcp_default_get_ip, @function
altcp_default_get_ip:
.LFB50:
	.loc 1 653 1 is_stmt 1
	.cfi_startproc
.LVL122:
	.loc 1 654 3
	.loc 1 654 6 is_stmt 0
	beq	a0,zero,.L339
	.loc 1 654 19 discriminator 1
	lw	a0,4(a0)
.LVL123:
	.loc 1 654 12 discriminator 1
	beq	a0,zero,.L339
	.loc 1 655 5 is_stmt 1
	.loc 1 655 12 is_stmt 0
	tail	altcp_get_ip
.LVL124:
.L339:
	.loc 1 658 1
	li	a0,0
	ret
	.cfi_endproc
.LFE50:
	.size	altcp_default_get_ip, .-altcp_default_get_ip
	.section	.text.altcp_default_get_port,"ax",@progbits
	.align	1
	.globl	altcp_default_get_port
	.type	altcp_default_get_port, @function
altcp_default_get_port:
.LFB51:
	.loc 1 662 1 is_stmt 1
	.cfi_startproc
.LVL125:
	.loc 1 663 3
	.loc 1 663 6 is_stmt 0
	beq	a0,zero,.L347
	.loc 1 663 19 discriminator 1
	lw	a0,4(a0)
.LVL126:
	.loc 1 663 12 discriminator 1
	beq	a0,zero,.L347
	.loc 1 664 5 is_stmt 1
	.loc 1 664 12 is_stmt 0
	tail	altcp_get_port
.LVL127:
.L347:
	.loc 1 667 1
	li	a0,0
	ret
	.cfi_endproc
.LFE51:
	.size	altcp_default_get_port, .-altcp_default_get_port
	.text
.Letext0:
	.file 2 "/mnt/d/GitHub/bl_iot_sdk_for_aithinker/toolchain/riscv/Linux/riscv64-unknown-elf/include/machine/_default_types.h"
	.file 3 "/mnt/d/GitHub/bl_iot_sdk_for_aithinker/toolchain/riscv/Linux/riscv64-unknown-elf/include/sys/_stdint.h"
	.file 4 "/mnt/d/GitHub/bl_iot_sdk_for_aithinker/components/network/lwip/src/include/lwip/arch.h"
	.file 5 "/mnt/d/GitHub/bl_iot_sdk_for_aithinker/components/network/lwip/src/include/lwip/err.h"
	.file 6 "/mnt/d/GitHub/bl_iot_sdk_for_aithinker/components/network/lwip/src/include/lwip/pbuf.h"
	.file 7 "/mnt/d/GitHub/bl_iot_sdk_for_aithinker/components/network/lwip/src/include/lwip/ip4_addr.h"
	.file 8 "/mnt/d/GitHub/bl_iot_sdk_for_aithinker/components/network/lwip/src/include/lwip/ip_addr.h"
	.file 9 "/mnt/d/GitHub/bl_iot_sdk_for_aithinker/components/network/lwip/src/include/lwip/altcp.h"
	.file 10 "/mnt/d/GitHub/bl_iot_sdk_for_aithinker/components/network/lwip/src/include/lwip/priv/altcp_priv.h"
	.file 11 "/mnt/d/GitHub/bl_iot_sdk_for_aithinker/components/network/lwip/src/include/lwip/memp.h"
	.file 12 "/mnt/d/GitHub/bl_iot_sdk_for_aithinker/components/network/lwip/src/include/lwip/altcp_tcp.h"
	.file 13 "/mnt/d/GitHub/bl_iot_sdk_for_aithinker/toolchain/riscv/Linux/riscv64-unknown-elf/include/string.h"