	.file	"def.c"
	.option nopic
	.attribute arch, "rv32i2p0_m2p0_f2p0_c2p0"
	.attribute unaligned_access, 0
	.attribute stack_align, 16
	.text
.Ltext0:
	.cfi_sections	.debug_frame
	.section	.text.lwip_htons,"ax",@progbits
	.align	1
	.globl	lwip_htons
	.type	lwip_htons, @function
lwip_htons:
.LFB5:
	.file 1 "/mnt/d/GitHub/bl_iot_sdk_for_aithinker/components/network/lwip/src/core/def.c"
	.loc 1 77 1
	.cfi_startproc
.LVL0:
	.loc 1 78 3
	.loc 1 78 11 is_stmt 0
	slli	a5,a0,8
	srli	a0,a0,8
.LVL1:
	or	a0,a5,a0
	.loc 1 79 1
	slli	a0,a0,16
	srli	a0,a0,16
	ret
	.cfi_endproc
.LFE5:
	.size	lwip_htons, .-lwip_htons
	.section	.text.lwip_htonl,"ax",@progbits
	.align	1
	.globl	lwip_htonl
	.type	lwip_htonl, @function
lwip_htonl:
.LFB6:
	.loc 1 91 1 is_stmt 1
	.cfi_startproc
.LVL2:
	.loc 1 92 3
	.loc 1 92 152 is_stmt 0
	srli	a4,a0,24
	.loc 1 92 40
	slli	a5,a0,24
	.loc 1 92 121
	or	a5,a5,a4
	.loc 1 92 78
	li	a3,16711680
	slli	a4,a0,8
	and	a4,a4,a3
	.loc 1 92 121
	or	a5,a5,a4
	.loc 1 92 115
	li	a4,65536
	addi	a4,a4,-256
	srli	a0,a0,8
.LVL3:
	and	a0,a0,a4
	.loc 1 93 1
	or	a0,a5,a0
	ret
	.cfi_endproc
.LFE6:
	.size	lwip_htonl, .-lwip_htonl
	.section	.text.lwip_strnstr,"ax",@progbits
	.align	1
	.globl	lwip_strnstr
	.type	lwip_strnstr, @function
lwip_strnstr:
.LFB7:
	.loc 1 106 1 is_stmt 1
	.cfi_startproc
.LVL4:
	.loc 1 107 3
	.loc 1 108 3
	.loc 1 106 1 is_stmt 0
	addi	sp,sp,-32
	.cfi_def_cfa_offset 32
	sw	s0,24(sp)
	.cfi_offset 8, -8
	mv	s0,a0
	.loc 1 108 21
	mv	a0,a1
.LVL5:
	.loc 1 106 1
	sw	s1,20(sp)
	sw	s3,12(sp)
	sw	ra,28(sp)
	sw	s2,16(sp)
	.cfi_offset 9, -12
	.cfi_offset 19, -20
	.cfi_offset 1, -4
	.cfi_offset 18, -16
	.loc 1 106 1
	mv	s3,a1
	mv	s1,a2
	.loc 1 108 21
	call	strlen
.LVL6:
	.loc 1 109 3 is_stmt 1
	.loc 1 109 6 is_stmt 0
	beq	a0,zero,.L3
	mv	s2,a0
	.loc 1 112 50
	add	s1,s0,s1
.LVL7:
.L5:
	.loc 1 112 20 is_stmt 1 discriminator 1
	lbu	a5,0(s0)
	.loc 1 112 3 is_stmt 0 discriminator 1
	beq	a5,zero,.L10
	.loc 1 112 23 discriminator 3
	add	a4,s0,s2
	bgeu	s1,a4,.L8
.L10:
	.loc 1 117 9
	li	s0,0
.LVL8:
	j	.L3
.LVL9:
.L8:
	.loc 1 113 5 is_stmt 1
	.loc 1 113 8 is_stmt 0
	lbu	a4,0(s3)
	beq	a4,a5,.L6
.L7:
	.loc 1 112 56 is_stmt 1
	.loc 1 112 57 is_stmt 0
	addi	s0,s0,1
.LVL10:
	j	.L5
.L6:
	.loc 1 113 28 discriminator 1
	mv	a2,s2
	mv	a1,s3
	mv	a0,s0
	call	strncmp
.LVL11:
	.loc 1 113 24 discriminator 1
	bne	a0,zero,.L7
.LVL12:
.L3:
	.loc 1 118 1
	lw	ra,28(sp)
	.cfi_restore 1
	mv	a0,s0
	lw	s0,24(sp)
	.cfi_restore 8
	lw	s1,20(sp)
	.cfi_restore 9
	lw	s2,16(sp)
	.cfi_restore 18
	lw	s3,12(sp)
	.cfi_restore 19
.LVL13:
	addi	sp,sp,32
	.cfi_def_cfa_offset 0
	jr	ra
	.cfi_endproc
.LFE7:
	.size	lwip_strnstr, .-lwip_strnstr
	.section	.text.lwip_stricmp,"ax",@progbits
	.align	1
	.globl	lwip_stricmp
	.type	lwip_stricmp, @function
lwip_stricmp:
.LFB8:
	.loc 1 129 1 is_stmt 1
	.cfi_startproc
.LVL14:
.LBB2:
	.loc 1 137 10 is_stmt 0
	li	a6,25
.L18:
.LBE2:
	.loc 1 130 3 is_stmt 1
	.loc 1 132 3
	.loc 1 133 5
	.loc 1 133 8 is_stmt 0
	lbu	a4,0(a0)
	.loc 1 134 8
	lbu	a5,0(a1)
	.loc 1 133 15
	addi	a0,a0,1
.LVL15:
	.loc 1 134 5 is_stmt 1
	.loc 1 134 15 is_stmt 0
	addi	a1,a1,1
.LVL16:
	.loc 1 135 5 is_stmt 1
	.loc 1 135 8 is_stmt 0
	beq	a4,a5,.L16
.LBB4:
	.loc 1 136 7 is_stmt 1
	.loc 1 136 12 is_stmt 0
	ori	a2,a4,32
.LVL17:
	.loc 1 137 7 is_stmt 1
	.loc 1 137 27 is_stmt 0
	addi	a3,a2,-97
	.loc 1 137 10
	andi	a3,a3,0xff
	bgtu	a3,a6,.L20
.LBB3:
	.loc 1 140 9 is_stmt 1
.LVL18:
	.loc 1 141 9
	.loc 1 141 12 is_stmt 0
	ori	a5,a5,32
.LVL19:
	bne	a2,a5,.L20
.LVL20:
.L16:
.LBE3:
.LBE4:
	.loc 1 151 11 is_stmt 1
	.loc 1 151 3 is_stmt 0
	bne	a4,zero,.L18
	.loc 1 152 10
	li	a0,0
.LVL21:
	ret
.LVL22:
.L20:
.LBB5:
	.loc 1 148 16
	li	a0,1
.LVL23:
.LBE5:
	.loc 1 153 1
	ret
	.cfi_endproc
.LFE8:
	.size	lwip_stricmp, .-lwip_stricmp
	.section	.text.lwip_strnicmp,"ax",@progbits
	.align	1
	.globl	lwip_strnicmp
	.type	lwip_strnicmp, @function
lwip_strnicmp:
.LFB9:
	.loc 1 164 1 is_stmt 1
	.cfi_startproc
.LVL24:
	addi	a2,a2,-1
.LVL25:
	.loc 1 164 1 is_stmt 0
	li	a5,0
.LBB6:
	.loc 1 172 10
	li	t1,25
.LVL26:
.L25:
.LBE6:
	.loc 1 165 3 is_stmt 1
	.loc 1 167 3
	.loc 1 168 5
	.loc 1 168 8 is_stmt 0
	add	a4,a0,a5
	lbu	a3,0(a4)
.LVL27:
	.loc 1 169 5 is_stmt 1
	.loc 1 169 8 is_stmt 0
	add	a4,a1,a5
	lbu	a4,0(a4)
.LVL28:
	.loc 1 170 5 is_stmt 1
	.loc 1 170 8 is_stmt 0
	beq	a3,a4,.L23
.LBB8:
	.loc 1 171 7 is_stmt 1
	.loc 1 171 12 is_stmt 0
	ori	a7,a3,32
.LVL29:
	.loc 1 172 7 is_stmt 1
	.loc 1 172 27 is_stmt 0
	addi	a6,a7,-97
	.loc 1 172 10
	andi	a6,a6,0xff
	bgtu	a6,t1,.L27
.LBB7:
	.loc 1 175 9 is_stmt 1
.LVL30:
	.loc 1 176 9
	.loc 1 176 12 is_stmt 0
	ori	a4,a4,32
.LVL31:
	bne	a7,a4,.L27
.LVL32:
.L23:
.LBE7:
.LBE8:
	.loc 1 186 5 is_stmt 1
	.loc 1 187 11
	.loc 1 187 3 is_stmt 0
	beq	a2,a5,.L28
	.loc 1 187 23 discriminator 1
	addi	a5,a5,1
.LVL33:
	bne	a3,zero,.L25
.LVL34:
.L28:
	.loc 1 188 10
	li	a0,0
	.loc 1 189 1
	ret
.LVL35:
.L27:
.LBB9:
	.loc 1 183 16
	li	a0,1
.LVL36:
	ret
.LBE9:
	.cfi_endproc
.LFE9:
	.size	lwip_strnicmp, .-lwip_strnicmp
	.section	.text.lwip_itoa,"ax",@progbits
	.align	1
	.globl	lwip_itoa
	.type	lwip_itoa, @function
lwip_itoa:
.LFB10:
	.loc 1 200 1 is_stmt 1
	.cfi_startproc
.LVL37:
	.loc 1 201 3
	.loc 1 202 3
	.loc 1 203 3
	.loc 1 206 3
	.loc 1 206 6 is_stmt 0
	li	a5,1
	.loc 1 200 1
	mv	a4,a0
	mv	a3,a1
	.loc 1 206 6
	bgtu	a1,a5,.L31
	.loc 1 207 5 is_stmt 1
	.loc 1 207 8 is_stmt 0
	bne	a1,a5,.L30
.LVL38:
.L37:
	.loc 1 208 7 is_stmt 1
	.loc 1 208 15 is_stmt 0
	sb	zero,0(a4)
	ret
.LVL39:
.L31:
	.loc 1 214 3 is_stmt 1
	.loc 1 214 6 is_stmt 0
	bge	a2,zero,.L33
	.loc 1 215 5 is_stmt 1
	.loc 1 215 12 is_stmt 0
	li	a5,45
	.loc 1 215 9
	addi	a0,a0,1
.LVL40:
	.loc 1 215 12
	sb	a5,0(a4)
.L33:
	.loc 1 202 32
	addi	a5,a3,-1
	.loc 1 202 9
	add	a1,a4,a5
.LVL41:
	.loc 1 203 7
	srai	a5,a2,31
	xor	a2,a5,a2
.LVL42:
	sub	a2,a2,a5
	.loc 1 219 3 is_stmt 1
	.loc 1 219 8 is_stmt 0
	sb	zero,0(a1)
	.loc 1 220 3 is_stmt 1
.LBB10:
	.loc 1 221 32 is_stmt 0
	li	a6,10
.LVL43:
.L34:
.LBE10:
	.loc 1 220 9 is_stmt 1
	beq	a2,zero,.L35
	.loc 1 220 19 is_stmt 0 discriminator 1
	bgeu	a0,a1,.L37
.LBB11:
	.loc 1 221 5 is_stmt 1
.LVL44:
	.loc 1 222 5
	.loc 1 221 32 is_stmt 0
	rem	a5,a2,a6
	.loc 1 222 8
	addi	a1,a1,-1
.LVL45:
	.loc 1 223 5 is_stmt 1
	.loc 1 221 10 is_stmt 0
	addi	a5,a5,48
	.loc 1 224 7
	div	a2,a2,a6
.LVL46:
	.loc 1 223 10
	sb	a5,0(a1)
	.loc 1 224 5 is_stmt 1
.LVL47:
	j	.L34
.L38:
.LBE11:
	.loc 1 233 5
.LVL48:
	.loc 1 233 12 is_stmt 0
	li	a5,48
	sb	a5,0(a0)
	.loc 1 234 5 is_stmt 1
.LVL49:
	.loc 1 234 12 is_stmt 0
	sb	zero,1(a0)
	.loc 1 235 5 is_stmt 1
	ret
.LVL50:
.L35:
	.loc 1 226 3
	.loc 1 231 3
	.loc 1 231 6 is_stmt 0
	lbu	a5,0(a1)
	beq	a5,zero,.L38
	.loc 1 238 3 is_stmt 1
	.loc 1 238 38 is_stmt 0
	add	a2,a4,a3
.LVL51:
	.loc 1 238 3
	sub	a2,a2,a1
	tail	memmove
.LVL52:
.L30:
	.loc 1 239 1
	ret
	.cfi_endproc
.LFE10:
	.size	lwip_itoa, .-lwip_itoa
	.text
.Letext0:
	.file 2 "/mnt/d/GitHub/bl_iot_sdk_for_aithinker/toolchain/riscv/Linux/riscv64-unknown-elf/include/machine/_default_types.h"
	.file 3 "/mnt/d/GitHub/bl_iot_sdk_for_aithinker/toolchain/riscv/Linux/lib/gcc/riscv64-unknown-elf/10.2.0/include/stddef.h"
	.file 4 "/mnt/d/GitHub/bl_iot_sdk_for_aithinker/toolchain/riscv/Linux/riscv64-unknown-elf/include/sys/_stdint.h"
	.file 5 "/mnt/d/GitHub/bl_iot_sdk_for_aithinker/components/network/lwip/src/include/lwip/arch.h"
	.file 6 "/mnt/d/GitHub/bl_iot_sdk_for_aithinker/toolchain/riscv/Linux/riscv64-unknown-elf/include/string.h"