	.file	"inet_chksum.c"
	.option nopic
	.attribute arch, "rv32i2p0_m2p0_f2p0_c2p0"
	.attribute unaligned_access, 0
	.attribute stack_align, 16
	.text
.Ltext0:
	.cfi_sections	.debug_frame
	.section	.text.lwip_standard_chksum,"ax",@progbits
	.align	1
	.globl	lwip_standard_chksum
	.type	lwip_standard_chksum, @function
lwip_standard_chksum:
.LFB5:
	.file 1 "/mnt/d/GitHub/bl_iot_sdk_for_aithinker/components/network/lwip/src/core/inet_chksum.c"
	.loc 1 190 1
	.cfi_startproc
.LVL0:
	.loc 1 191 3
	.loc 1 192 3
	.loc 1 193 3
	.loc 1 190 1 is_stmt 0
	addi	sp,sp,-16
	.cfi_def_cfa_offset 16
	.loc 1 193 9
	sh	zero,14(sp)
	.loc 1 194 3 is_stmt 1
	.loc 1 195 3
.LVL1:
	.loc 1 197 3
	.loc 1 197 7 is_stmt 0
	andi	a3,a0,1
.LVL2:
	.loc 1 199 3 is_stmt 1
	.loc 1 199 6 is_stmt 0
	beq	a3,zero,.L2
	.loc 1 199 11 discriminator 1
	ble	a1,zero,.L2
	.loc 1 200 5 is_stmt 1
.LVL3:
	.loc 1 200 21 is_stmt 0
	lbu	a5,0(a0)
	.loc 1 201 8
	addi	a1,a1,-1
.LVL4:
	.loc 1 200 26
	addi	a0,a0,1
.LVL5:
	.loc 1 200 21
	sb	a5,15(sp)
	.loc 1 201 5 is_stmt 1
.LVL6:
.L2:
	.loc 1 204 3
	.loc 1 206 3
	.loc 1 206 22 is_stmt 0
	andi	a5,a0,3
	.loc 1 206 6
	beq	a5,zero,.L3
	.loc 1 206 27 discriminator 1
	li	a4,1
	.loc 1 195 9 discriminator 1
	li	a5,0
	.loc 1 206 27 discriminator 1
	ble	a1,a4,.L3
	.loc 1 207 5 is_stmt 1
.LVL7:
	.loc 1 207 12 is_stmt 0
	lhu	a5,0(a0)
.LVL8:
	.loc 1 208 5 is_stmt 1
	.loc 1 208 9 is_stmt 0
	addi	a1,a1,-2
.LVL9:
	.loc 1 207 15
	addi	a0,a0,2
.LVL10:
.L3:
	.loc 1 213 9
	li	a2,7
.LVL11:
.L4:
	.loc 1 213 9 is_stmt 1
	bgt	a1,a2,.L7
	.loc 1 228 3
	.loc 1 228 25 is_stmt 0
	srli	a4,a5,16
	.loc 1 228 41
	slli	a5,a5,16
.LVL12:
	srli	a5,a5,16
	.loc 1 228 7
	add	a5,a4,a5
.LVL13:
	.loc 1 230 3 is_stmt 1
	.loc 1 233 3
	.loc 1 233 9 is_stmt 0
	li	a4,1
.LVL14:
.L8:
	.loc 1 233 9 is_stmt 1
	bgt	a1,a4,.L9
	.loc 1 239 3
	.loc 1 239 6 is_stmt 0
	bne	a1,a4,.L10
	.loc 1 240 5 is_stmt 1
	.loc 1 240 21 is_stmt 0
	lbu	a4,0(a0)
	sb	a4,14(sp)
.L10:
	.loc 1 243 3 is_stmt 1
	.loc 1 243 7 is_stmt 0
	lhu	a0,14(sp)
.LVL15:
	.loc 1 247 41
	li	a4,65536
	addi	a4,a4,-1
	.loc 1 243 7
	add	a0,a0,a5
.LVL16:
	.loc 1 247 3 is_stmt 1
	.loc 1 247 25 is_stmt 0
	srli	a5,a0,16
	.loc 1 247 41
	and	a0,a0,a4
.LVL17:
	.loc 1 247 7
	add	a5,a5,a0
.LVL18:
	.loc 1 248 3 is_stmt 1
	.loc 1 248 25 is_stmt 0
	srli	a0,a5,16
	.loc 1 248 41
	and	a5,a5,a4
.LVL19:
	.loc 1 248 7
	add	a0,a0,a5
.LVL20:
	.loc 1 250 3 is_stmt 1
	.loc 1 250 6 is_stmt 0
	beq	a3,zero,.L11
	.loc 1 251 5 is_stmt 1
	.loc 1 251 27 is_stmt 0
	slli	a5,a0,8
	.loc 1 251 53
	srli	a0,a0,8
.LVL21:
	.loc 1 251 27
	and	a4,a5,a4
	.loc 1 251 53
	andi	a0,a0,255
	.loc 1 251 9
	or	a0,a4,a0
.LVL22:
.L11:
	.loc 1 254 3 is_stmt 1
	.loc 1 255 1 is_stmt 0
	slli	a0,a0,16
.LVL23:
	srli	a0,a0,16
	addi	sp,sp,16
	.cfi_remember_state
	.cfi_def_cfa_offset 0
	jr	ra
.LVL24:
.L7:
	.cfi_restore_state
	.loc 1 214 5 is_stmt 1
	.loc 1 214 9 is_stmt 0
	lw	a4,0(a0)
	add	a4,a5,a4
.LVL25:
	.loc 1 215 5 is_stmt 1
	.loc 1 215 8 is_stmt 0
	bleu	a5,a4,.L5
	.loc 1 216 7 is_stmt 1
	.loc 1 216 10 is_stmt 0
	addi	a4,a4,1
.LVL26:
.L5:
	.loc 1 219 5 is_stmt 1
	.loc 1 219 9 is_stmt 0
	lw	a5,4(a0)
.LVL27:
	addi	a0,a0,8
.LVL28:
	add	a5,a4,a5
.LVL29:
	.loc 1 220 5 is_stmt 1
	.loc 1 220 8 is_stmt 0
	bleu	a4,a5,.L6
	.loc 1 221 7 is_stmt 1
	.loc 1 221 10 is_stmt 0
	addi	a5,a5,1
.LVL30:
.L6:
	.loc 1 224 5 is_stmt 1
	.loc 1 224 9 is_stmt 0
	addi	a1,a1,-8
.LVL31:
	j	.L4
.LVL32:
.L9:
	.loc 1 234 5 is_stmt 1
	.loc 1 234 12 is_stmt 0
	lhu	a2,0(a0)
	.loc 1 234 15
	addi	a0,a0,2
.LVL33:
	.loc 1 235 9
	addi	a1,a1,-2
.LVL34:
	.loc 1 234 9
	add	a5,a5,a2
.LVL35:
	.loc 1 235 5 is_stmt 1
	j	.L8
	.cfi_endproc
.LFE5:
	.size	lwip_standard_chksum, .-lwip_standard_chksum
	.section	.text.inet_chksum_pseudo,"ax",@progbits
	.align	1
	.globl	inet_chksum_pseudo
	.type	inet_chksum_pseudo, @function
inet_chksum_pseudo:
.LFB7:
	.loc 1 312 1
	.cfi_startproc
.LVL36:
	.loc 1 313 3
	.loc 1 314 3
	.loc 1 316 3
	.loc 1 312 1 is_stmt 0
	addi	sp,sp,-32
	.cfi_def_cfa_offset 32
	sw	s0,24(sp)
	sw	s1,20(sp)
	sw	s2,16(sp)
	sw	s3,12(sp)
	sw	s4,8(sp)
	sw	s5,4(sp)
	sw	ra,28(sp)
	.cfi_offset 8, -8
	.cfi_offset 9, -12
	.cfi_offset 18, -16
	.cfi_offset 19, -20
	.cfi_offset 20, -24
	.cfi_offset 21, -28
	.cfi_offset 1, -4
	.loc 1 319 8
	lw	a4,0(a4)
.LVL37:
	.loc 1 316 8
	lw	a5,0(a3)
.LVL38:
	.loc 1 317 3 is_stmt 1
	.loc 1 318 3
	.loc 1 319 3
	.loc 1 320 3
	.loc 1 321 3
	.loc 1 320 29 is_stmt 0
	li	s3,65536
	addi	s3,s3,-1
	and	s0,a4,s3
	.loc 1 321 30
	srli	a4,a4,16
.LVL39:
	add	s0,s0,a4
	.loc 1 317 7
	and	a4,a5,s3
	add	s0,s0,a4
	.loc 1 318 30
	srli	a5,a5,16
.LVL40:
	.loc 1 321 7
	add	a5,a5,s0
.LVL41:
	.loc 1 323 3 is_stmt 1
	.loc 1 323 25 is_stmt 0
	srli	s0,a5,16
	.loc 1 323 41
	and	a5,a5,s3
.LVL42:
	.loc 1 323 7
	add	a5,s0,a5
.LVL43:
	.loc 1 324 3 is_stmt 1
	.loc 1 324 25 is_stmt 0
	srli	s0,a5,16
	.loc 1 324 41
	and	a5,a5,s3
.LVL44:
	.loc 1 312 1
	mv	s1,a0
	mv	s4,a1
	mv	s2,a2
	.loc 1 324 7
	add	s0,s0,a5
.LVL45:
	.loc 1 326 3 is_stmt 1
.LBB4:
.LBB5:
	.loc 1 262 3
	.loc 1 263 3
	.loc 1 266 3
	.loc 1 263 7 is_stmt 0
	li	s5,0
.LVL46:
.L24:
	.loc 1 266 15 is_stmt 1
	.loc 1 266 3 is_stmt 0
	bne	s1,zero,.L26
	.loc 1 281 3 is_stmt 1
	.loc 1 281 6 is_stmt 0
	beq	s5,zero,.L27
	.loc 1 282 5 is_stmt 1
	.loc 1 282 27 is_stmt 0
	li	a4,65536
	slli	a5,s0,8
	addi	a4,a4,-1
	.loc 1 282 53
	srli	s0,s0,8
.LVL47:
	.loc 1 282 27
	and	a5,a5,a4
	.loc 1 282 53
	andi	s0,s0,255
	.loc 1 282 9
	or	s0,a5,s0
.LVL48:
.L27:
	.loc 1 285 3 is_stmt 1
	.loc 1 285 17 is_stmt 0
	mv	a0,s4
	call	lwip_htons
.LVL49:
	mv	s1,a0
.LVL50:
	.loc 1 286 3 is_stmt 1
	.loc 1 286 17 is_stmt 0
	mv	a0,s2
	call	lwip_htons
.LVL51:
	.loc 1 286 7
	add	s1,s1,a0
.LVL52:
	.loc 1 290 41
	li	a4,65536
	.loc 1 286 7
	add	s0,s1,s0
.LVL53:
	.loc 1 290 3 is_stmt 1
	.loc 1 290 41 is_stmt 0
	addi	a4,a4,-1
	.loc 1 290 25
	srli	a5,s0,16
	.loc 1 290 41
	and	s0,s0,a4
.LVL54:
	.loc 1 290 7
	add	s0,a5,s0
.LVL55:
	.loc 1 291 3 is_stmt 1
	.loc 1 291 25 is_stmt 0
	srli	a0,s0,16
	.loc 1 291 41
	and	s0,s0,a4
.LVL56:
	.loc 1 292 3 is_stmt 1
	.loc 1 293 3
	.loc 1 291 7 is_stmt 0
	add	s0,a0,s0
.LBE5:
.LBE4:
	.loc 1 327 1
	lw	ra,28(sp)
	.cfi_remember_state
	.cfi_restore 1
.LBB8:
.LBB6:
	.loc 1 293 10
	not	a0,s0
.LBE6:
.LBE8:
	.loc 1 327 1
	lw	s0,24(sp)
	.cfi_restore 8
	slli	a0,a0,16
	lw	s1,20(sp)
	.cfi_restore 9
	lw	s2,16(sp)
	.cfi_restore 18
	lw	s3,12(sp)
	.cfi_restore 19
	lw	s4,8(sp)
	.cfi_restore 20
	lw	s5,4(sp)
	.cfi_restore 21
	srli	a0,a0,16
	addi	sp,sp,32
	.cfi_def_cfa_offset 0
	jr	ra
.LVL57:
.L26:
	.cfi_restore_state
.LBB9:
.LBB7:
	.loc 1 268 58 is_stmt 1
	.loc 1 269 5
	.loc 1 269 12 is_stmt 0
	lhu	a1,10(s1)
	lw	a0,4(s1)
	call	lwip_standard_chksum
.LVL58:
	.loc 1 269 9
	add	s0,a0,s0
.LVL59:
	.loc 1 273 5 is_stmt 1
	.loc 1 273 27 is_stmt 0
	srli	a5,s0,16
	.loc 1 273 43
	and	s0,s0,s3
.LVL60:
	.loc 1 273 9
	add	s0,a5,s0
.LVL61:
	.loc 1 274 5 is_stmt 1
	.loc 1 274 20 is_stmt 0
	lhu	a5,10(s1)
	.loc 1 274 8
	andi	a5,a5,1
	beq	a5,zero,.L25
	.loc 1 275 7 is_stmt 1
	.loc 1 276 29 is_stmt 0
	slli	a5,s0,8
	.loc 1 276 55
	srli	s0,s0,8
.LVL62:
	.loc 1 276 29
	and	a5,a5,s3
	.loc 1 276 55
	andi	s0,s0,255
	xori	s5,s5,1
.LVL63:
	.loc 1 276 7 is_stmt 1
	.loc 1 276 11 is_stmt 0
	or	s0,a5,s0
.LVL64:
.L25:
	.loc 1 266 25 is_stmt 1
	.loc 1 266 27 is_stmt 0
	lw	s1,0(s1)
.LVL65:
	j	.L24
.LBE7:
.LBE9:
	.cfi_endproc
.LFE7:
	.size	inet_chksum_pseudo, .-inet_chksum_pseudo
	.section	.text.ip_chksum_pseudo,"ax",@progbits
	.align	1
	.globl	ip_chksum_pseudo
	.type	ip_chksum_pseudo, @function
ip_chksum_pseudo:
.LFB8:
	.loc 1 381 1 is_stmt 1
	.cfi_startproc
.LVL66:
	.loc 1 392 5
	.loc 1 392 12 is_stmt 0
	tail	inet_chksum_pseudo
.LVL67:
	.cfi_endproc
.LFE8:
	.size	ip_chksum_pseudo, .-ip_chksum_pseudo
	.section	.text.inet_chksum_pseudo_partial,"ax",@progbits
	.align	1
	.globl	inet_chksum_pseudo_partial
	.type	inet_chksum_pseudo_partial, @function
inet_chksum_pseudo_partial:
.LFB10:
	.loc 1 458 1 is_stmt 1
	.cfi_startproc
.LVL68:
	.loc 1 459 3
	.loc 1 460 3
	.loc 1 462 3
	.loc 1 458 1 is_stmt 0
	addi	sp,sp,-48
	.cfi_def_cfa_offset 48
	sw	s0,40(sp)
	sw	s1,36(sp)
	sw	s2,32(sp)
	sw	s3,28(sp)
	sw	s4,24(sp)
	sw	s6,16(sp)
	sw	s7,12(sp)
	sw	ra,44(sp)
	sw	s5,20(sp)
	.cfi_offset 8, -8
	.cfi_offset 9, -12
	.cfi_offset 18, -16
	.cfi_offset 19, -20
	.cfi_offset 20, -24
	.cfi_offset 22, -32
	.cfi_offset 23, -36
	.cfi_offset 1, -4
	.cfi_offset 21, -28
	.loc 1 465 8
	lw	a5,0(a5)
.LVL69:
	.loc 1 462 8
	lw	a4,0(a4)
.LVL70:
	.loc 1 463 3 is_stmt 1
	.loc 1 464 3
	.loc 1 465 3
	.loc 1 466 3
	.loc 1 467 3
	.loc 1 466 29 is_stmt 0
	li	s3,65536
	addi	s3,s3,-1
	and	s0,a5,s3
	.loc 1 467 30
	srli	a5,a5,16
.LVL71:
	add	s0,s0,a5
	.loc 1 463 7
	and	a5,a4,s3
	add	s0,s0,a5
	.loc 1 464 30
	srli	a4,a4,16
.LVL72:
	.loc 1 467 7
	add	a4,a4,s0
.LVL73:
	.loc 1 469 3 is_stmt 1
	.loc 1 469 25 is_stmt 0
	srli	s0,a4,16
	.loc 1 469 41
	and	a4,a4,s3
.LVL74:
	.loc 1 469 7
	add	a4,s0,a4
.LVL75:
	.loc 1 470 3 is_stmt 1
	.loc 1 470 25 is_stmt 0
	srli	s0,a4,16
	.loc 1 470 41
	and	a4,a4,s3
.LVL76:
	.loc 1 458 1
	mv	s1,a0
	mv	s6,a1
	mv	s2,a2
	mv	s4,a3
	.loc 1 470 7
	add	s0,s0,a4
.LVL77:
	.loc 1 472 3 is_stmt 1
.LBB12:
.LBB13:
	.loc 1 402 3
	.loc 1 403 3
	.loc 1 404 3
	.loc 1 407 3
	.loc 1 403 7 is_stmt 0
	li	s7,0
.LVL78:
.L37:
	.loc 1 407 15 is_stmt 1
	.loc 1 407 3 is_stmt 0
	bne	s1,zero,.L40
.L44:
	.loc 1 427 3 is_stmt 1
	.loc 1 427 6 is_stmt 0
	bne	s7,zero,.L41
.L42:
	.loc 1 431 3 is_stmt 1
	.loc 1 431 17 is_stmt 0
	mv	a0,s6
	call	lwip_htons
.LVL79:
	mv	s1,a0
.LVL80:
	.loc 1 432 3 is_stmt 1
	.loc 1 432 17 is_stmt 0
	mv	a0,s2
	call	lwip_htons
.LVL81:
	.loc 1 432 7
	add	s1,s1,a0
.LVL82:
	.loc 1 436 41
	li	a4,65536
	.loc 1 432 7
	add	s0,s1,s0
.LVL83:
	.loc 1 436 3 is_stmt 1
	.loc 1 436 41 is_stmt 0
	addi	a4,a4,-1
	.loc 1 436 25
	srli	a5,s0,16
	.loc 1 436 41
	and	s0,s0,a4
.LVL84:
	.loc 1 436 7
	add	s0,a5,s0
.LVL85:
	.loc 1 437 3 is_stmt 1
	.loc 1 437 25 is_stmt 0
	srli	a0,s0,16
	.loc 1 437 41
	and	s0,s0,a4
.LVL86:
	.loc 1 438 3 is_stmt 1
	.loc 1 439 3
	.loc 1 437 7 is_stmt 0
	add	s0,a0,s0
.LBE13:
.LBE12:
	.loc 1 473 1
	lw	ra,44(sp)
	.cfi_remember_state
	.cfi_restore 1
.LBB16:
.LBB14:
	.loc 1 439 10
	not	a0,s0
.LBE14:
.LBE16:
	.loc 1 473 1
	lw	s0,40(sp)
	.cfi_restore 8
	slli	a0,a0,16
	lw	s1,36(sp)
	.cfi_restore 9
	lw	s2,32(sp)
	.cfi_restore 18
	lw	s3,28(sp)
	.cfi_restore 19
	lw	s4,24(sp)
	.cfi_restore 20
	lw	s5,20(sp)
	.cfi_restore 21
	lw	s6,16(sp)
	.cfi_restore 22
	lw	s7,12(sp)
	.cfi_restore 23
	srli	a0,a0,16
	addi	sp,sp,48
	.cfi_def_cfa_offset 0
	jr	ra
.LVL87:
.L40:
	.cfi_restore_state
.LBB17:
.LBB15:
	.loc 1 407 26
	beq	s4,zero,.L44
	.loc 1 409 58 is_stmt 1
	.loc 1 410 5
	.loc 1 410 12 is_stmt 0
	lhu	a5,10(s1)
.LVL88:
	.loc 1 411 5 is_stmt 1
	mv	s5,a5
	bleu	a5,s4,.L38
	mv	s5,s4
.L38:
	.loc 1 414 12 is_stmt 0
	lw	a0,4(s1)
	slli	s5,s5,16
	srli	s5,s5,16
.LVL89:
	.loc 1 414 5 is_stmt 1
	.loc 1 414 12 is_stmt 0
	mv	a1,s5
	call	lwip_standard_chksum
.LVL90:
	.loc 1 414 9
	add	s0,a0,s0
.LVL91:
	.loc 1 415 5 is_stmt 1
	.loc 1 419 27 is_stmt 0
	srli	a5,s0,16
	.loc 1 419 43
	and	s0,s0,s3
.LVL92:
	.loc 1 419 9
	add	s0,a5,s0
	.loc 1 420 20
	lhu	a5,10(s1)
	.loc 1 415 16
	sub	s4,s4,s5
.LVL93:
	slli	s4,s4,16
	.loc 1 420 8
	andi	a5,a5,1
	.loc 1 415 16
	srli	s4,s4,16
.LVL94:
	.loc 1 416 5 is_stmt 1
	.loc 1 416 10
	.loc 1 416 40
	.loc 1 416 50
	.loc 1 419 5
	.loc 1 420 5
	.loc 1 420 8 is_stmt 0
	beq	a5,zero,.L39
	.loc 1 421 7 is_stmt 1
	.loc 1 422 29 is_stmt 0
	slli	a5,s0,8
	.loc 1 422 55
	srli	s0,s0,8
.LVL95:
	.loc 1 422 29
	and	a5,a5,s3
	.loc 1 422 55
	andi	s0,s0,255
	xori	s7,s7,1
.LVL96:
	.loc 1 422 7 is_stmt 1
	.loc 1 422 11 is_stmt 0
	or	s0,a5,s0
.LVL97:
.L39:
	.loc 1 407 47 is_stmt 1
	.loc 1 407 49 is_stmt 0
	lw	s1,0(s1)
.LVL98:
	j	.L37
.L41:
	.loc 1 428 5 is_stmt 1
	.loc 1 428 27 is_stmt 0
	li	a4,65536
	slli	a5,s0,8
	addi	a4,a4,-1
	.loc 1 428 53
	srli	s0,s0,8
.LVL99:
	.loc 1 428 27
	and	a5,a5,a4
	.loc 1 428 53
	andi	s0,s0,255
	.loc 1 428 9
	or	s0,a5,s0
.LVL100:
	j	.L42
.LBE15:
.LBE17:
	.cfi_endproc
.LFE10:
	.size	inet_chksum_pseudo_partial, .-inet_chksum_pseudo_partial
	.section	.text.ip_chksum_pseudo_partial,"ax",@progbits
	.align	1
	.globl	ip_chksum_pseudo_partial
	.type	ip_chksum_pseudo_partial, @function
ip_chksum_pseudo_partial:
.LFB11:
	.loc 1 528 1 is_stmt 1
	.cfi_startproc
.LVL101:
	.loc 1 539 5
	.loc 1 539 12 is_stmt 0
	tail	inet_chksum_pseudo_partial
.LVL102:
	.cfi_endproc
.LFE11:
	.size	ip_chksum_pseudo_partial, .-ip_chksum_pseudo_partial
	.section	.text.inet_chksum,"ax",@progbits
	.align	1
	.globl	inet_chksum
	.type	inet_chksum, @function
inet_chksum:
.LFB12:
	.loc 1 556 1 is_stmt 1
	.cfi_startproc
.LVL103:
	.loc 1 557 3
	.loc 1 556 1 is_stmt 0
	addi	sp,sp,-16
	.cfi_def_cfa_offset 16
	sw	ra,12(sp)
	.cfi_offset 1, -4
	.loc 1 557 32
	call	lwip_standard_chksum
.LVL104:
	.loc 1 558 1
	lw	ra,12(sp)
	.cfi_restore 1
	.loc 1 557 10
	not	a0,a0
	.loc 1 558 1
	slli	a0,a0,16
	srli	a0,a0,16
	addi	sp,sp,16
	.cfi_def_cfa_offset 0
	jr	ra
	.cfi_endproc
.LFE12:
	.size	inet_chksum, .-inet_chksum
	.section	.text.inet_chksum_pbuf,"ax",@progbits
	.align	1
	.globl	inet_chksum_pbuf
	.type	inet_chksum_pbuf, @function
inet_chksum_pbuf:
.LFB13:
	.loc 1 569 1 is_stmt 1
	.cfi_startproc
.LVL105:
	.loc 1 570 3
	.loc 1 571 3
	.loc 1 572 3
	.loc 1 574 3
	.loc 1 575 3
	.loc 1 569 1 is_stmt 0
	addi	sp,sp,-32
	.cfi_def_cfa_offset 32
	sw	s2,16(sp)
	.cfi_offset 18, -16
	.loc 1 577 43
	li	s2,65536
	.loc 1 569 1
	sw	s0,24(sp)
	sw	s1,20(sp)
	sw	s3,12(sp)
	sw	ra,28(sp)
	.cfi_offset 8, -8
	.cfi_offset 9, -12
	.cfi_offset 19, -20
	.cfi_offset 1, -4
	.loc 1 569 1
	mv	s1,a0
.LVL106:
	.loc 1 572 7
	li	s3,0
	.loc 1 574 7
	li	s0,0
	.loc 1 577 43
	addi	s2,s2,-1
.LVL107:
.L53:
	.loc 1 575 15 is_stmt 1 discriminator 1
	.loc 1 575 3 is_stmt 0 discriminator 1
	bne	s1,zero,.L55
	.loc 1 584 3 is_stmt 1
	.loc 1 584 6 is_stmt 0
	beq	s3,zero,.L56
	.loc 1 585 5 is_stmt 1
	.loc 1 585 27 is_stmt 0
	li	a4,65536
	slli	a5,s0,8
	addi	a4,a4,-1
	.loc 1 585 53
	srli	s0,s0,8
.LVL108:
	.loc 1 585 27
	and	a5,a5,a4
	.loc 1 585 53
	andi	s0,s0,255
	.loc 1 585 9
	or	s0,a5,s0
.LVL109:
.L56:
	.loc 1 587 3 is_stmt 1
	.loc 1 588 1 is_stmt 0
	lw	ra,28(sp)
	.cfi_remember_state
	.cfi_restore 1
	.loc 1 587 10
	not	a0,s0
	.loc 1 588 1
	lw	s0,24(sp)
	.cfi_restore 8
.LVL110:
	slli	a0,a0,16
.LVL111:
	lw	s1,20(sp)
	.cfi_restore 9
.LVL112:
	lw	s2,16(sp)
	.cfi_restore 18
	lw	s3,12(sp)
	.cfi_restore 19
.LVL113:
	srli	a0,a0,16
	addi	sp,sp,32
	.cfi_def_cfa_offset 0
	jr	ra
.LVL114:
.L55:
	.cfi_restore_state
	.loc 1 576 5 is_stmt 1
	.loc 1 576 12 is_stmt 0
	lhu	a1,10(s1)
	lw	a0,4(s1)
	call	lwip_standard_chksum
.LVL115:
	.loc 1 576 9
	add	s0,a0,s0
.LVL116:
	.loc 1 577 5 is_stmt 1
	.loc 1 577 27 is_stmt 0
	srli	a5,s0,16
	.loc 1 577 43
	and	s0,s0,s2
.LVL117:
	.loc 1 577 9
	add	s0,a5,s0
.LVL118:
	.loc 1 578 5 is_stmt 1
	.loc 1 578 20 is_stmt 0
	lhu	a5,10(s1)
	.loc 1 578 8
	andi	a5,a5,1
	beq	a5,zero,.L54
	.loc 1 579 7 is_stmt 1
	.loc 1 580 29 is_stmt 0
	slli	a5,s0,8
	.loc 1 580 55
	srli	s0,s0,8
.LVL119:
	.loc 1 580 29
	and	a5,a5,s2
	.loc 1 580 55
	andi	s0,s0,255
	xori	s3,s3,1
.LVL120:
	.loc 1 580 7 is_stmt 1
	.loc 1 580 11 is_stmt 0
	or	s0,a5,s0
.LVL121:
.L54:
	.loc 1 575 25 is_stmt 1 discriminator 2
	.loc 1 575 27 is_stmt 0 discriminator 2
	lw	s1,0(s1)
.LVL122:
	j	.L53
	.cfi_endproc
.LFE13:
	.size	inet_chksum_pbuf, .-inet_chksum_pbuf
	.section	.text.lwip_chksum_copy,"ax",@progbits
	.align	1
	.globl	lwip_chksum_copy
	.type	lwip_chksum_copy, @function
lwip_chksum_copy:
.LFB14:
	.loc 1 604 1 is_stmt 1
	.cfi_startproc
.LVL123:
	.loc 1 605 3
	.loc 1 604 1 is_stmt 0
	addi	sp,sp,-16
	.cfi_def_cfa_offset 16
	sw	s0,8(sp)
	sw	s1,4(sp)
	sw	ra,12(sp)
	.cfi_offset 8, -8
	.cfi_offset 9, -12
	.cfi_offset 1, -4
	.loc 1 604 1
	mv	s0,a0
	mv	s1,a2
	.loc 1 605 3
	call	memcpy
.LVL124:
	.loc 1 606 3 is_stmt 1
	.loc 1 606 10 is_stmt 0
	mv	a0,s0
	.loc 1 607 1
	lw	s0,8(sp)
	.cfi_restore 8
.LVL125:
	lw	ra,12(sp)
	.cfi_restore 1
	.loc 1 606 10
	mv	a1,s1
	.loc 1 607 1
	lw	s1,4(sp)
	.cfi_restore 9
	addi	sp,sp,16
	.cfi_def_cfa_offset 0
	.loc 1 606 10
	tail	lwip_standard_chksum
.LVL126:
	.cfi_endproc
.LFE14:
	.size	lwip_chksum_copy, .-lwip_chksum_copy
	.text
.Letext0:
	.file 2 "/mnt/d/GitHub/bl_iot_sdk_for_aithinker/toolchain/riscv/Linux/riscv64-unknown-elf/include/machine/_default_types.h"
	.file 3 "/mnt/d/GitHub/bl_iot_sdk_for_aithinker/toolchain/riscv/Linux/riscv64-unknown-elf/include/sys/_stdint.h"
	.file 4 "/mnt/d/GitHub/bl_iot_sdk_for_aithinker/components/network/lwip/src/include/lwip/arch.h"
	.file 5 "/mnt/d/GitHub/bl_iot_sdk_for_aithinker/components/network/lwip/src/include/lwip/pbuf.h"
	.file 6 "/mnt/d/GitHub/bl_iot_sdk_for_aithinker/components/network/lwip/src/include/lwip/ip4_addr.h"
	.file 7 "/mnt/d/GitHub/bl_iot_sdk_for_aithinker/components/network/lwip/src/include/lwip/ip_addr.h"
	.file 8 "/mnt/d/GitHub/bl_iot_sdk_for_aithinker/toolchain/riscv/Linux/riscv64-unknown-elf/include/string.h"
	.file 9 "/mnt/d/GitHub/bl_iot_sdk_for_aithinker/components/network/lwip/src/include/lwip/def.h"