	.file	"netif.c"
	.option nopic
	.attribute arch, "rv32i2p0_m2p0_f2p0_c2p0"
	.attribute unaligned_access, 0
	.attribute stack_align, 16
	.text
.Ltext0:
	.cfi_sections	.debug_frame
	.section	.text.netif_loopif_init,"ax",@progbits
	.align	1
	.type	netif_loopif_init, @function
netif_loopif_init:
.LFB5:
	.file 1 "/mnt/d/GitHub/bl_iot_sdk_for_aithinker/components/network/lwip/src/core/netif.c"
	.loc 1 152 1
	.cfi_startproc
.LVL0:
	.loc 1 153 3
	.loc 1 153 8
	.loc 1 153 7
	.loc 1 153 17
	.loc 1 158 3
	.loc 1 160 3
	.loc 1 161 3
	.loc 1 160 18 is_stmt 0
	li	a5,28672
	addi	a5,a5,-148
	sh	a5,66(a0)
	.loc 1 163 3 is_stmt 1
	.loc 1 163 17 is_stmt 0
	lui	a5,%hi(netif_loop_output_ipv4)
	addi	a5,a5,%lo(netif_loop_output_ipv4)
	sw	a5,20(a0)
	.loc 1 171 3 is_stmt 1
	.loc 1 172 3
	.loc 1 173 1 is_stmt 0
	li	a0,0
.LVL1:
	ret
	.cfi_endproc
.LFE5:
	.size	netif_loopif_init, .-netif_loopif_init
	.section	.text.netif_null_output_ip4,"ax",@progbits
	.align	1
	.type	netif_null_output_ip4, @function
netif_null_output_ip4:
.LFB31:
	.loc 1 1620 1 is_stmt 1
	.cfi_startproc
.LVL2:
	.loc 1 1621 3
	.loc 1 1622 3
	.loc 1 1623 3
	.loc 1 1625 3
	.loc 1 1626 1 is_stmt 0
	li	a0,-12
.LVL3:
	ret
	.cfi_endproc
.LFE31:
	.size	netif_null_output_ip4, .-netif_null_output_ip4
	.section	.text.netif_poll,"ax",@progbits
	.align	1
	.globl	netif_poll
	.type	netif_poll, @function
netif_poll:
.LFB29:
	.loc 1 1199 1 is_stmt 1
	.cfi_startproc
.LVL4:
	.loc 1 1209 3
	.loc 1 1211 3
	.loc 1 1211 8
	.loc 1 1211 7
	.loc 1 1211 17
	.loc 1 1214 3
	.loc 1 1199 1 is_stmt 0
	addi	sp,sp,-16
	.cfi_def_cfa_offset 16
	sw	s2,0(sp)
	.cfi_offset 18, -16
.LBB14:
	.loc 1 1251 5
	lui	s2,%hi(lwip_stats)
.LBE14:
	.loc 1 1199 1
	sw	s0,8(sp)
	sw	ra,12(sp)
	sw	s1,4(sp)
	.cfi_offset 8, -8
	.cfi_offset 1, -4
	.cfi_offset 9, -12
	.loc 1 1199 1
	mv	s0,a0
.LBB15:
	.loc 1 1251 5
	addi	s2,s2,%lo(lwip_stats)
.LBE15:
	.loc 1 1214 9
	call	sys_arch_protect
.LVL5:
	.loc 1 1215 3 is_stmt 1
.L4:
	.loc 1 1215 9
	.loc 1 1215 15 is_stmt 0
	lw	s1,76(s0)
	.loc 1 1215 9
	bne	s1,zero,.L10
	.loc 1 1260 3 is_stmt 1
	.loc 1 1261 1 is_stmt 0
	lw	s0,8(sp)
	.cfi_remember_state
	.cfi_restore 8
.LVL6:
	lw	ra,12(sp)
	.cfi_restore 1
	lw	s1,4(sp)
	.cfi_restore 9
	lw	s2,0(sp)
	.cfi_restore 18
	addi	sp,sp,16
	.cfi_def_cfa_offset 0
	.loc 1 1260 3
	tail	sys_arch_unprotect
.LVL7:
.L5:
	.cfi_restore_state
.LBB16:
	.loc 1 1223 7 is_stmt 1
	.loc 1 1223 12
	.loc 1 1223 24 is_stmt 0
	lw	a5,0(a5)
.LVL8:
	.loc 1 1223 11 is_stmt 1
	.loc 1 1223 21
	.loc 1 1224 7
.L9:
	.loc 1 1222 11
	lhu	a3,10(a5)
	lhu	a4,8(a5)
	bne	a3,a4,.L5
	.loc 1 1237 5
	.loc 1 1237 8 is_stmt 0
	lw	a4,80(s0)
	bne	a4,a5,.L6
	.loc 1 1239 7 is_stmt 1
	.loc 1 1239 44 is_stmt 0
	sw	zero,80(s0)
	.loc 1 1239 25
	sw	zero,76(s0)
.L7:
	.loc 1 1243 11 is_stmt 1 discriminator 1
	.loc 1 1243 21 discriminator 1
	.loc 1 1246 5 discriminator 1
	.loc 1 1246 18 is_stmt 0 discriminator 1
	sw	zero,0(a5)
	.loc 1 1247 5 is_stmt 1 discriminator 1
	call	sys_arch_unprotect
.LVL9:
	.loc 1 1249 5 discriminator 1
	.loc 1 1249 19 is_stmt 0 discriminator 1
	lbu	a5,68(s0)
	.loc 1 1255 9 discriminator 1
	mv	a1,s0
	mv	a0,s1
	.loc 1 1249 19 discriminator 1
	addi	a5,a5,1
	.loc 1 1249 16 discriminator 1
	sb	a5,15(s1)
	.loc 1 1251 5 is_stmt 1 discriminator 1
	lhu	a5,2(s2)
	addi	a5,a5,1
	sh	a5,2(s2)
	.loc 1 1252 5 discriminator 1
	.loc 1 1253 5 discriminator 1
	.loc 1 1255 5 discriminator 1
	.loc 1 1255 9 is_stmt 0 discriminator 1
	call	ip4_input
.LVL10:
	.loc 1 1255 8 discriminator 1
	beq	a0,zero,.L8
	.loc 1 1256 7 is_stmt 1
	mv	a0,s1
	call	pbuf_free
.LVL11:
.L8:
	.loc 1 1258 5
	.loc 1 1258 11 is_stmt 0
	call	sys_arch_protect
.LVL12:
	j	.L4
.L10:
.LBE16:
	mv	a5,s1
	j	.L9
.LVL13:
.L6:
.LBB17:
	.loc 1 1242 7 is_stmt 1
	.loc 1 1242 33 is_stmt 0
	lw	a4,0(a5)
	.loc 1 1242 25
	sw	a4,76(s0)
	.loc 1 1243 7 is_stmt 1
	.loc 1 1243 12
	j	.L7
.LBE17:
	.cfi_endproc
.LFE29:
	.size	netif_poll, .-netif_poll
	.section	.text.netif_issue_reports,"ax",@progbits
	.align	1
	.type	netif_issue_reports, @function
netif_issue_reports:
.LFB21:
	.loc 1 876 1
	.cfi_startproc
.LVL14:
	.loc 1 877 3
	.loc 1 877 8
	.loc 1 877 7
	.loc 1 877 17
	.loc 1 880 3
	.loc 1 880 14 is_stmt 0
	lbu	a5,65(a0)
	.loc 1 880 6
	li	a4,5
	andi	a3,a5,5
	bne	a3,a4,.L30
	.loc 1 876 1 discriminator 1
	addi	sp,sp,-16
	.cfi_def_cfa_offset 16
	sw	s0,8(sp)
	sw	ra,12(sp)
	.cfi_offset 8, -8
	.cfi_offset 1, -4
	.loc 1 886 28 discriminator 1
	lw	a4,4(a0)
	mv	s0,a0
	.loc 1 886 3 is_stmt 1 discriminator 1
	.loc 1 886 28 is_stmt 0 discriminator 1
	beq	a4,zero,.L15
	.loc 1 890 5 is_stmt 1
	.loc 1 890 8 is_stmt 0
	andi	a5,a5,8
	beq	a5,zero,.L19
	.loc 1 891 7 is_stmt 1
	addi	a1,a0,4
.LVL15:
	call	etharp_request
.LVL16:
.L19:
.LBB20:
.LBB21:
	.loc 1 897 5
	.loc 1 897 8 is_stmt 0
	lbu	a5,65(s0)
	andi	a5,a5,32
	beq	a5,zero,.L15
	.loc 1 898 7 is_stmt 1
	mv	a0,s0
.LBE21:
.LBE20:
	.loc 1 912 1 is_stmt 0
	lw	s0,8(sp)
	.cfi_remember_state
	.cfi_restore 8
.LVL17:
	lw	ra,12(sp)
	.cfi_restore 1
	addi	sp,sp,16
	.cfi_def_cfa_offset 0
.LBB23:
.LBB22:
	.loc 1 898 7
	tail	igmp_report_groups
.LVL18:
.L15:
	.cfi_restore_state
.LBE22:
.LBE23:
	.loc 1 912 1
	lw	ra,12(sp)
	.cfi_restore 1
	lw	s0,8(sp)
	.cfi_restore 8
.LVL19:
	addi	sp,sp,16
	.cfi_def_cfa_offset 0
	jr	ra
.LVL20:
.L30:
	ret
	.cfi_endproc
.LFE21:
	.size	netif_issue_reports, .-netif_issue_reports
	.section	.text.netif_do_set_ipaddr.isra.0,"ax",@progbits
	.align	1
	.type	netif_do_set_ipaddr.isra.0, @function
netif_do_set_ipaddr.isra.0:
.LFB38:
	.loc 1 457 1 is_stmt 1
	.cfi_startproc
.LVL21:
	.loc 1 459 3
	.loc 1 459 8
	.loc 1 459 7
	.loc 1 459 17
	.loc 1 460 3
	.loc 1 460 8
	.loc 1 460 7
	.loc 1 460 17
	.loc 1 463 3
	.loc 1 457 1 is_stmt 0
	addi	sp,sp,-48
	.cfi_def_cfa_offset 48
	sw	s0,40(sp)
	sw	ra,44(sp)
	sw	s1,36(sp)
	.cfi_offset 8, -8
	.cfi_offset 1, -4
	.cfi_offset 9, -12
	.loc 1 463 70
	lw	a5,4(a0)
	.loc 1 463 6
	lw	a4,0(a1)
	.loc 1 457 1
	mv	s0,a0
	.loc 1 463 6
	beq	a4,a5,.L33
	mv	a0,a2
.LVL22:
.LBB27:
	.loc 1 464 5 is_stmt 1
	.loc 1 465 5
	.loc 1 468 23 is_stmt 0
	sw	a5,0(a2)
	mv	s1,a1
.LBB28:
.LBB29:
	.loc 1 445 3
	addi	a1,sp,28
.LVL23:
.LBE29:
.LBE28:
	.loc 1 465 18
	sw	a4,28(sp)
	.loc 1 466 5 is_stmt 1
	.loc 1 468 5
	.loc 1 470 5
	.loc 1 471 5
.LVL24:
.LBB31:
.LBB30:
	.loc 1 445 3
	sw	a2,12(sp)
	call	tcp_netif_ip_addr_changed
.LVL25:
	.loc 1 448 3
	lw	a0,12(sp)
	addi	a1,sp,28
.LVL26:
	call	udp_netif_ip_addr_changed
.LVL27:
	.loc 1 451 3
	lw	a0,12(sp)
	addi	a1,sp,28
.LVL28:
	call	raw_netif_ip_addr_changed
.LVL29:
.LBE30:
.LBE31:
	.loc 1 473 5
	.loc 1 474 5
	.loc 1 476 5
	.loc 1 476 8 is_stmt 0
	lw	a5,0(s1)
	.loc 1 481 5
	li	a1,1
	mv	a0,s0
	.loc 1 476 32
	sw	a5,4(s0)
	.loc 1 477 5 is_stmt 1
	.loc 1 478 5
	.loc 1 479 5
	.loc 1 481 5
	call	netif_issue_reports
.LVL30:
	.loc 1 483 5
	.loc 1 483 9
	.loc 1 483 18 is_stmt 0
	lw	a5,28(s0)
	.loc 1 483 12
	beq	a5,zero,.L33
	.loc 1 483 39 is_stmt 1
	.loc 1 483 45 is_stmt 0
	mv	a0,s0
	jalr	a5
.LVL31:
	.loc 1 483 79 is_stmt 1
	.loc 1 484 5
.L33:
.LBE27:
	.loc 1 487 1 is_stmt 0
	lw	ra,44(sp)
	.cfi_restore 1
	lw	s0,40(sp)
	.cfi_restore 8
.LVL32:
	lw	s1,36(sp)
	.cfi_restore 9
	addi	sp,sp,48
	.cfi_def_cfa_offset 0
	jr	ra
	.cfi_endproc
.LFE38:
	.size	netif_do_set_ipaddr.isra.0, .-netif_do_set_ipaddr.isra.0
	.section	.text.netif_input,"ax",@progbits
	.align	1
	.globl	netif_input
	.type	netif_input, @function
netif_input:
.LFB7:
	.loc 1 218 1 is_stmt 1
	.cfi_startproc
.LVL33:
	.loc 1 219 3
	.loc 1 221 3
	.loc 1 221 8
	.loc 1 221 7
	.loc 1 221 17
	.loc 1 222 3
	.loc 1 222 8
	.loc 1 222 7
	.loc 1 222 17
	.loc 1 225 3
	.loc 1 225 6 is_stmt 0
	lbu	a5,65(a1)
	andi	a5,a5,24
	beq	a5,zero,.L41
	.loc 1 226 5 is_stmt 1
	.loc 1 226 12 is_stmt 0
	tail	ethernet_input
.LVL34:
.L41:
	.loc 1 229 5 is_stmt 1
	.loc 1 229 12 is_stmt 0
	tail	ip4_input
.LVL35:
	.cfi_endproc
.LFE7:
	.size	netif_input, .-netif_input
	.section	.text.netif_set_ipaddr,"ax",@progbits
	.align	1
	.globl	netif_set_ipaddr
	.type	netif_set_ipaddr, @function
netif_set_ipaddr:
.LFB12:
	.loc 1 501 1 is_stmt 1
	.cfi_startproc
.LVL36:
	.loc 1 502 3
	.loc 1 504 3
	.loc 1 504 8
	.loc 1 504 11 is_stmt 0
	beq	a0,zero,.L47
	.loc 1 504 24 is_stmt 1 discriminator 2
	.loc 1 507 3 discriminator 2
	.loc 1 501 1 is_stmt 0 discriminator 2
	addi	sp,sp,-32
	.cfi_def_cfa_offset 32
	sw	ra,28(sp)
	.cfi_offset 1, -4
	.loc 1 507 6 discriminator 2
	bne	a1,zero,.L45
	.loc 1 508 12
	lui	a1,%hi(ip_addr_any)
.LVL37:
	addi	a1,a1,%lo(ip_addr_any)
.L45:
.LVL38:
	.loc 1 511 3 is_stmt 1
	.loc 1 513 3
	.loc 1 513 7 is_stmt 0
	addi	a2,sp,12
	call	netif_do_set_ipaddr.isra.0
.LVL39:
	.loc 1 519 3 is_stmt 1
	.loc 1 520 1 is_stmt 0
	lw	ra,28(sp)
	.cfi_restore 1
	addi	sp,sp,32
	.cfi_def_cfa_offset 0
	jr	ra
.LVL40:
.L47:
	ret
	.cfi_endproc
.LFE12:
	.size	netif_set_ipaddr, .-netif_set_ipaddr
	.section	.text.netif_set_netmask,"ax",@progbits
	.align	1
	.globl	netif_set_netmask
	.type	netif_set_netmask, @function
netif_set_netmask:
.LFB14:
	.loc 1 561 1 is_stmt 1
	.cfi_startproc
.LVL41:
	.loc 1 566 3
	.loc 1 568 3
	.loc 1 570 3
	.loc 1 570 8
	.loc 1 570 11 is_stmt 0
	beq	a0,zero,.L50
	.loc 1 570 24 is_stmt 1 discriminator 2
	.loc 1 573 3 discriminator 2
	.loc 1 573 6 is_stmt 0 discriminator 2
	bne	a1,zero,.L52
	.loc 1 574 13
	lui	a1,%hi(ip_addr_any)
.LVL42:
	addi	a1,a1,%lo(ip_addr_any)
.L52:
.LVL43:
	.loc 1 577 3 is_stmt 1
.LBB32:
.LBB33:
	.loc 1 526 3
	.loc 1 526 17 is_stmt 0
	lw	a5,0(a1)
	.loc 1 526 6
	lw	a4,8(a0)
	beq	a5,a4,.L50
	.loc 1 531 5 is_stmt 1
	.loc 1 533 5
	.loc 1 535 5
	.loc 1 535 32 is_stmt 0
	sw	a5,8(a0)
	.loc 1 536 5 is_stmt 1
	.loc 1 537 5
	.loc 1 543 57
	.loc 1 544 5
.LVL44:
.LBE33:
.LBE32:
	.loc 1 583 3
.L50:
	.loc 1 584 1 is_stmt 0
	ret
	.cfi_endproc
.LFE14:
	.size	netif_set_netmask, .-netif_set_netmask
	.section	.text.netif_set_gw,"ax",@progbits
	.align	1
	.globl	netif_set_gw
	.type	netif_set_gw, @function
netif_set_gw:
.LFB16:
	.loc 1 622 1 is_stmt 1
	.cfi_startproc
.LVL45:
	.loc 1 627 3
	.loc 1 629 3
	.loc 1 631 3
	.loc 1 631 8
	.loc 1 631 11 is_stmt 0
	beq	a0,zero,.L56
	.loc 1 631 24 is_stmt 1 discriminator 2
	.loc 1 634 3 discriminator 2
	.loc 1 634 6 is_stmt 0 discriminator 2
	bne	a1,zero,.L58
	.loc 1 635 8
	lui	a1,%hi(ip_addr_any)
.LVL46:
	addi	a1,a1,%lo(ip_addr_any)
.L58:
.LVL47:
	.loc 1 638 3 is_stmt 1
.LBB34:
.LBB35:
	.loc 1 590 3
	.loc 1 590 12 is_stmt 0
	lw	a5,0(a1)
	.loc 1 590 6
	lw	a4,12(a0)
	beq	a5,a4,.L56
	.loc 1 595 5 is_stmt 1
	.loc 1 598 5
	.loc 1 598 27 is_stmt 0
	sw	a5,12(a0)
	.loc 1 599 5 is_stmt 1
	.loc 1 605 52
	.loc 1 606 5
.LVL48:
.LBE35:
.LBE34:
	.loc 1 644 3
.L56:
	.loc 1 645 1 is_stmt 0
	ret
	.cfi_endproc
.LFE16:
	.size	netif_set_gw, .-netif_set_gw
	.section	.text.netif_set_addr,"ax",@progbits
	.align	1
	.globl	netif_set_addr
	.type	netif_set_addr, @function
netif_set_addr:
.LFB17:
	.loc 1 660 1 is_stmt 1
	.cfi_startproc
.LVL49:
	.loc 1 669 3
	.loc 1 670 3
	.loc 1 672 3
	.loc 1 673 3
	.loc 1 675 3
	.loc 1 678 3
	.loc 1 660 1 is_stmt 0
	addi	sp,sp,-48
	.cfi_def_cfa_offset 48
	sw	s0,40(sp)
	sw	s1,36(sp)
	sw	ra,44(sp)
	.cfi_offset 8, -8
	.cfi_offset 9, -12
	.cfi_offset 1, -4
	.loc 1 660 1
	mv	s0,a2
	mv	s1,a3
	.loc 1 678 6
	bne	a1,zero,.L63
	.loc 1 679 12
	lui	a1,%hi(ip_addr_any)
.LVL50:
	addi	a1,a1,%lo(ip_addr_any)
.L63:
.LVL51:
	.loc 1 681 3 is_stmt 1
	.loc 1 681 6 is_stmt 0
	bne	s0,zero,.L64
	.loc 1 682 13
	lui	s0,%hi(ip_addr_any)
	addi	s0,s0,%lo(ip_addr_any)
.L64:
.LVL52:
	.loc 1 684 3 is_stmt 1
	.loc 1 684 6 is_stmt 0
	bne	s1,zero,.L66
	.loc 1 685 8
	lui	s1,%hi(ip_addr_any)
	addi	s1,s1,%lo(ip_addr_any)
.L66:
.LVL53:
	.loc 1 688 3 is_stmt 1
	.loc 1 688 11 is_stmt 0
	lw	a5,0(a1)
	beq	a5,zero,.L70
	li	a5,0
	j	.L71
.L70:
	.loc 1 692 5 is_stmt 1
	.loc 1 692 9 is_stmt 0
	addi	a2,sp,28
	sw	a1,12(sp)
	sw	a0,8(sp)
	call	netif_do_set_ipaddr.isra.0
.LVL54:
	lw	a1,12(sp)
	lw	a0,8(sp)
	li	a5,1
.LVL55:
.L71:
	.loc 1 697 5 is_stmt 1
	.loc 1 699 3
.LBB36:
.LBB37:
	.loc 1 526 3
	.loc 1 526 17 is_stmt 0
	lw	a4,0(s0)
	.loc 1 526 6
	lw	a3,8(a0)
	beq	a4,a3,.L67
	.loc 1 531 5 is_stmt 1
	.loc 1 533 5
	.loc 1 535 5
	.loc 1 535 32 is_stmt 0
	sw	a4,8(a0)
	.loc 1 536 5 is_stmt 1
	.loc 1 537 5
	.loc 1 543 57
	.loc 1 544 5
.L67:
.LVL56:
.LBE37:
.LBE36:
	.loc 1 704 3
	.loc 1 705 3
.LBB38:
.LBB39:
	.loc 1 590 3
	.loc 1 590 12 is_stmt 0
	lw	a4,0(s1)
	.loc 1 590 6
	lw	a3,12(a0)
	beq	a4,a3,.L68
	.loc 1 595 5 is_stmt 1
	.loc 1 598 5
	.loc 1 598 27 is_stmt 0
	sw	a4,12(a0)
	.loc 1 599 5 is_stmt 1
	.loc 1 605 52
	.loc 1 606 5
.L68:
.LVL57:
.LBE39:
.LBE38:
	.loc 1 710 3
	.loc 1 711 3
	.loc 1 711 6 is_stmt 0
	bne	a5,zero,.L62
	.loc 1 713 5 is_stmt 1
	.loc 1 713 9 is_stmt 0
	addi	a2,sp,28
	call	netif_do_set_ipaddr.isra.0
.LVL58:
	.loc 1 718 5 is_stmt 1
.L62:
	.loc 1 727 1 is_stmt 0
	lw	ra,44(sp)
	.cfi_restore 1
	lw	s0,40(sp)
	.cfi_restore 8
.LVL59:
	lw	s1,36(sp)
	.cfi_restore 9
.LVL60:
	addi	sp,sp,48
	.cfi_def_cfa_offset 0
	jr	ra
	.cfi_endproc
.LFE17:
	.size	netif_set_addr, .-netif_set_addr
	.section	.text.netif_add,"ax",@progbits
	.align	1
	.globl	netif_add
	.type	netif_add, @function
netif_add:
.LFB9:
	.loc 1 281 1 is_stmt 1
	.cfi_startproc
.LVL61:
	.loc 1 286 3
	.loc 1 295 3
	.loc 1 295 8
	.loc 1 281 1 is_stmt 0
	addi	sp,sp,-48
	.cfi_def_cfa_offset 48
	sw	ra,44(sp)
	sw	s0,40(sp)
	sw	s1,36(sp)
	sw	s2,32(sp)
	sw	s3,28(sp)
	sw	s4,24(sp)
	sw	s5,20(sp)
	.cfi_offset 1, -4
	.cfi_offset 8, -8
	.cfi_offset 9, -12
	.cfi_offset 18, -16
	.cfi_offset 19, -20
	.cfi_offset 20, -24
	.cfi_offset 21, -28
	.loc 1 295 11
	bne	a0,zero,.L74
.LVL62:
.L76:
	.loc 1 295 2
	li	s0,0
.L91:
	.loc 1 439 1
	lw	ra,44(sp)
	.cfi_remember_state
	.cfi_restore 1
	mv	a0,s0
	lw	s0,40(sp)
	.cfi_restore 8
	lw	s1,36(sp)
	.cfi_restore 9
	lw	s2,32(sp)
	.cfi_restore 18
	lw	s3,28(sp)
	.cfi_restore 19
	lw	s4,24(sp)
	.cfi_restore 20
	lw	s5,20(sp)
	.cfi_restore 21
	addi	sp,sp,48
	.cfi_def_cfa_offset 0
	jr	ra
.LVL63:
.L74:
	.cfi_restore_state
	mv	s4,a5
	.loc 1 295 11 is_stmt 1 discriminator 2
	.loc 1 296 3 discriminator 2
	.loc 1 296 8 discriminator 2
	.loc 1 296 11 is_stmt 0 discriminator 2
	beq	a5,zero,.L76
	mv	s0,a0
	mv	s1,a1
	mv	s2,a2
	mv	s3,a4
	mv	s5,a6
	.loc 1 296 11 is_stmt 1 discriminator 2
	.loc 1 299 3 discriminator 2
	.loc 1 299 6 is_stmt 0 discriminator 2
	bne	a1,zero,.L77
.LVL64:
	.loc 1 300 12
	lui	s1,%hi(ip_addr_any)
.LVL65:
	addi	s1,s1,%lo(ip_addr_any)
.L77:
.LVL66:
	.loc 1 302 3 is_stmt 1
	.loc 1 302 6 is_stmt 0
	bne	s2,zero,.L78
	.loc 1 303 13
	lui	s2,%hi(ip_addr_any)
	addi	s2,s2,%lo(ip_addr_any)
.L78:
.LVL67:
	.loc 1 305 3 is_stmt 1
	.loc 1 305 6 is_stmt 0
	bne	a3,zero,.L79
	.loc 1 306 8
	lui	a3,%hi(ip_addr_any)
.LVL68:
	addi	a3,a3,%lo(ip_addr_any)
.L79:
	.loc 1 313 17
	lui	a5,%hi(netif_null_output_ip4)
.LVL69:
	addi	a5,a5,%lo(netif_null_output_ip4)
	sw	a5,20(s0)
	.loc 1 330 3
	li	a2,12
	li	a1,0
	.loc 1 310 28
	sw	zero,4(s0)
	.loc 1 311 28
	sw	zero,8(s0)
	.loc 1 312 23
	sw	zero,12(s0)
	.loc 1 327 14
	sh	zero,56(s0)
	.loc 1 328 16
	sb	zero,65(s0)
	.loc 1 330 3
	addi	a0,s0,40
	sw	a3,12(sp)
.LVL70:
	.loc 1 310 3 is_stmt 1
	.loc 1 311 3
	.loc 1 312 3
	.loc 1 313 3
	.loc 1 326 3
	.loc 1 327 3
	.loc 1 328 3
	.loc 1 330 3
	call	memset
.LVL71:
	.loc 1 340 3
	.loc 1 357 16 is_stmt 0
	sw	s3,36(s0)
	.loc 1 358 14
	lui	s3,%hi(.LANCHOR0)
.LVL72:
	lbu	a5,%lo(.LANCHOR0)(s3)
	.loc 1 367 3
	lw	a3,12(sp)
	mv	a2,s2
	.loc 1 358 14
	sb	a5,68(s0)
	.loc 1 367 3
	mv	a1,s1
	mv	a0,s0
	.loc 1 340 26
	sw	zero,28(s0)
	.loc 1 343 3 is_stmt 1
	.loc 1 343 24 is_stmt 0
	sw	zero,32(s0)
	.loc 1 346 3 is_stmt 1
	.loc 1 346 26 is_stmt 0
	sw	zero,72(s0)
	.loc 1 352 3 is_stmt 1
	.loc 1 352 21 is_stmt 0
	sw	zero,76(s0)
	.loc 1 353 3 is_stmt 1
	.loc 1 353 20 is_stmt 0
	sw	zero,80(s0)
	.loc 1 357 3 is_stmt 1
	.loc 1 358 3
	.loc 1 359 3
	.loc 1 359 16 is_stmt 0
	sw	s5,16(s0)
	.loc 1 361 3 is_stmt 1
	.loc 1 367 3
	call	netif_set_addr
.LVL73:
	.loc 1 371 3
	.loc 1 371 7 is_stmt 0
	mv	a0,s0
	jalr	s4
.LVL74:
	addi	s3,s3,%lo(.LANCHOR0)
	.loc 1 371 6
	bne	a0,zero,.L76
.LBB40:
	.loc 1 394 19
	lui	a5,%hi(netif_list)
	lw	a2,%lo(netif_list)(a5)
	mv	a4,a5
	.loc 1 390 10
	li	a1,255
.L83:
	.loc 1 387 5 is_stmt 1
	.loc 1 388 5
	.loc 1 389 5
	.loc 1 390 7
	.loc 1 390 10 is_stmt 0
	lbu	a5,68(s0)
	bne	a5,a1,.L80
	.loc 1 391 9 is_stmt 1
	.loc 1 391 20 is_stmt 0
	sb	zero,68(s0)
.L80:
	.loc 1 393 7 is_stmt 1
.LVL75:
	.loc 1 394 7
	.loc 1 398 33 is_stmt 0
	lbu	a5,68(s0)
	.loc 1 394 19
	mv	a3,a2
.LVL76:
.L81:
	.loc 1 394 33 is_stmt 1 discriminator 1
	.loc 1 394 7 is_stmt 0 discriminator 1
	bne	a3,zero,.L84
	.loc 1 403 13 is_stmt 1
.LBE40:
	.loc 1 405 3
	.loc 1 405 6 is_stmt 0
	li	a1,254
	.loc 1 406 15
	li	a3,0
.LVL77:
	.loc 1 405 6
	beq	a5,a1,.L86
	.loc 1 408 5 is_stmt 1
	.loc 1 408 17 is_stmt 0
	addi	a5,a5,1
	andi	a3,a5,0xff
.L86:
	.loc 1 419 6
	lbu	a5,65(s0)
	.loc 1 412 15
	sw	a2,0(s0)
	sb	a3,0(s3)
	.loc 1 412 3 is_stmt 1
	.loc 1 413 3
	.loc 1 413 14 is_stmt 0
	sw	s0,%lo(netif_list)(a4)
	.loc 1 415 3 is_stmt 1
	.loc 1 419 3
	.loc 1 419 6 is_stmt 0
	andi	a5,a5,32
	beq	a5,zero,.L91
	.loc 1 420 5 is_stmt 1
	mv	a0,s0
	call	igmp_start
.LVL78:
	j	.L91
.LVL79:
.L84:
.LBB41:
	.loc 1 395 9 discriminator 1
	.loc 1 395 14 discriminator 1
	.loc 1 395 40 discriminator 1
	.loc 1 395 50 discriminator 1
	.loc 1 396 9 discriminator 1
	.loc 1 397 9 discriminator 1
	.loc 1 397 14 discriminator 1
	.loc 1 397 42 discriminator 1
	.loc 1 397 52 discriminator 1
	.loc 1 398 9 discriminator 1
	.loc 1 398 12 is_stmt 0 discriminator 1
	lbu	a0,68(a3)
	bne	a0,a5,.L82
	.loc 1 399 11 is_stmt 1
	.loc 1 399 21 is_stmt 0
	addi	a5,a5,1
	sb	a5,68(s0)
	.loc 1 400 11 is_stmt 1
	.loc 1 403 13
	j	.L83
.L82:
	.loc 1 394 48 discriminator 2
	.loc 1 394 55 is_stmt 0 discriminator 2
	lw	a3,0(a3)
.LVL80:
	j	.L81
.LBE41:
	.cfi_endproc
.LFE9:
	.size	netif_add, .-netif_add
	.section	.text.netif_add_noaddr,"ax",@progbits
	.align	1
	.globl	netif_add_noaddr
	.type	netif_add_noaddr, @function
netif_add_noaddr:
.LFB8:
	.loc 1 240 1 is_stmt 1
	.cfi_startproc
.LVL81:
	.loc 1 241 3
	.loc 1 240 1 is_stmt 0
	mv	a4,a1
	mv	a5,a2
	.loc 1 241 10
	mv	a6,a3
	li	a2,0
.LVL82:
	li	a3,0
.LVL83:
	li	a1,0
.LVL84:
	tail	netif_add
.LVL85:
	.cfi_endproc
.LFE8:
	.size	netif_add_noaddr, .-netif_add_noaddr
	.section	.text.netif_set_default,"ax",@progbits
	.align	1
	.globl	netif_set_default
	.type	netif_set_default, @function
netif_set_default:
.LFB19:
	.loc 1 823 1 is_stmt 1
	.cfi_startproc
.LVL86:
	.loc 1 824 3
	.loc 1 826 3
	.loc 1 831 5
	.loc 1 833 3
	.loc 1 833 17 is_stmt 0
	lui	a5,%hi(netif_default)
	sw	a0,%lo(netif_default)(a5)
	.loc 1 835 91 is_stmt 1
	.loc 1 836 1 is_stmt 0
	ret
	.cfi_endproc
.LFE19:
	.size	netif_set_default, .-netif_set_default
	.section	.text.netif_set_up,"ax",@progbits
	.align	1
	.globl	netif_set_up
	.type	netif_set_up, @function
netif_set_up:
.LFB20:
	.loc 1 845 1 is_stmt 1
	.cfi_startproc
.LVL87:
	.loc 1 846 3
	.loc 1 848 3
	.loc 1 848 8
	.loc 1 848 11 is_stmt 0
	beq	a0,zero,.L111
	.loc 1 845 1 discriminator 2
	addi	sp,sp,-16
	.cfi_def_cfa_offset 16
	sw	s0,8(sp)
	sw	ra,12(sp)
	.cfi_offset 8, -8
	.cfi_offset 1, -4
	.loc 1 850 14 discriminator 2
	lbu	a5,65(a0)
	mv	s0,a0
	.loc 1 848 24 is_stmt 1 discriminator 2
	.loc 1 850 3 discriminator 2
	.loc 1 850 6 is_stmt 0 discriminator 2
	andi	a4,a5,1
	bne	a4,zero,.L101
	.loc 1 851 5 is_stmt 1
	.loc 1 851 10
	.loc 1 851 27 is_stmt 0
	ori	a5,a5,1
	.loc 1 851 25
	sb	a5,65(a0)
	.loc 1 851 68 is_stmt 1
	.loc 1 853 5
	.loc 1 855 5
	.loc 1 855 9
	.loc 1 855 18 is_stmt 0
	lw	a5,28(a0)
	.loc 1 855 12
	beq	a5,zero,.L103
	.loc 1 855 39 is_stmt 1 discriminator 1
	.loc 1 855 45 is_stmt 0 discriminator 1
	jalr	a5
.LVL88:
.L103:
	.loc 1 855 79 is_stmt 1 discriminator 3
	.loc 1 865 5 discriminator 3
	mv	a0,s0
	.loc 1 870 1 is_stmt 0 discriminator 3
	lw	s0,8(sp)
	.cfi_remember_state
	.cfi_restore 8
.LVL89:
	lw	ra,12(sp)
	.cfi_restore 1
	.loc 1 865 5 discriminator 3
	li	a1,3
	.loc 1 870 1 discriminator 3
	addi	sp,sp,16
	.cfi_def_cfa_offset 0
	.loc 1 865 5 discriminator 3
	tail	netif_issue_reports
.LVL90:
.L101:
	.cfi_restore_state
	.loc 1 870 1
	lw	ra,12(sp)
	.cfi_restore 1
	lw	s0,8(sp)
	.cfi_restore 8
.LVL91:
	addi	sp,sp,16
	.cfi_def_cfa_offset 0
	jr	ra
.L111:
	ret
	.cfi_endproc
.LFE20:
	.size	netif_set_up, .-netif_set_up
	.section	.text.netif_set_down,"ax",@progbits
	.align	1
	.globl	netif_set_down
	.type	netif_set_down, @function
netif_set_down:
.LFB22:
	.loc 1 920 1 is_stmt 1
	.cfi_startproc
.LVL92:
	.loc 1 921 3
	.loc 1 923 3
	.loc 1 923 8
	.loc 1 923 11 is_stmt 0
	beq	a0,zero,.L129
	.loc 1 920 1 discriminator 2
	addi	sp,sp,-16
	.cfi_def_cfa_offset 16
	sw	s0,8(sp)
	sw	ra,12(sp)
	.cfi_offset 8, -8
	.cfi_offset 1, -4
	.loc 1 925 12 discriminator 2
	lbu	a5,65(a0)
	mv	s0,a0
	.loc 1 923 24 is_stmt 1 discriminator 2
	.loc 1 925 3 discriminator 2
	.loc 1 925 6 is_stmt 0 discriminator 2
	andi	a4,a5,1
	beq	a4,zero,.L114
	.loc 1 934 5 is_stmt 1
	.loc 1 934 10
	.loc 1 934 27 is_stmt 0
	andi	a4,a5,-2
	.loc 1 934 25
	sb	a4,65(a0)
	.loc 1 934 84 is_stmt 1
	.loc 1 935 5
	.loc 1 938 5
	.loc 1 938 8 is_stmt 0
	andi	a5,a5,8
	beq	a5,zero,.L118
	.loc 1 939 7 is_stmt 1
	call	etharp_cleanup_netif
.LVL93:
.L118:
.LBB44:
.LBB45:
	.loc 1 947 5
	.loc 1 947 9
	.loc 1 947 18 is_stmt 0
	lw	a5,28(s0)
	.loc 1 947 12
	beq	a5,zero,.L114
	.loc 1 947 39 is_stmt 1
	.loc 1 947 45 is_stmt 0
	mv	a0,s0
.LBE45:
.LBE44:
	.loc 1 949 1
	lw	s0,8(sp)
	.cfi_remember_state
	.cfi_restore 8
.LVL94:
	lw	ra,12(sp)
	.cfi_restore 1
	addi	sp,sp,16
	.cfi_def_cfa_offset 0
.LBB47:
.LBB46:
	.loc 1 947 45
	jr	a5
.LVL95:
.L114:
	.cfi_restore_state
.LBE46:
.LBE47:
	.loc 1 949 1
	lw	ra,12(sp)
	.cfi_restore 1
	lw	s0,8(sp)
	.cfi_restore 8
.LVL96:
	addi	sp,sp,16
	.cfi_def_cfa_offset 0
	jr	ra
.LVL97:
.L129:
	ret
	.cfi_endproc
.LFE22:
	.size	netif_set_down, .-netif_set_down
	.section	.text.netif_remove,"ax",@progbits
	.align	1
	.globl	netif_remove
	.type	netif_remove, @function
netif_remove:
.LFB18:
	.loc 1 738 1 is_stmt 1
	.cfi_startproc
.LVL98:
	.loc 1 743 3
	.loc 1 745 3
	.loc 1 745 6 is_stmt 0
	beq	a0,zero,.L154
	.loc 1 738 1
	addi	sp,sp,-32
	.cfi_def_cfa_offset 32
	sw	s0,24(sp)
	sw	ra,28(sp)
	.cfi_offset 8, -8
	.cfi_offset 1, -4
	.loc 1 752 6
	lw	a5,4(a0)
	mv	s0,a0
	.loc 1 749 3 is_stmt 1
	.loc 1 752 3
	.loc 1 752 6 is_stmt 0
	beq	a5,zero,.L135
	.loc 1 753 5 is_stmt 1
	.loc 1 753 49 is_stmt 0
	addi	a0,a0,4
.LVL99:
.LBB53:
.LBB54:
	.loc 1 445 3 is_stmt 1
	li	a1,0
	sw	a0,12(sp)
	call	tcp_netif_ip_addr_changed
.LVL100:
	.loc 1 448 3
	lw	a0,12(sp)
	li	a1,0
	call	udp_netif_ip_addr_changed
.LVL101:
	.loc 1 451 3
	lw	a0,12(sp)
	li	a1,0
	call	raw_netif_ip_addr_changed
.LVL102:
.L135:
.LBE54:
.LBE53:
	.loc 1 758 3
	.loc 1 758 6 is_stmt 0
	lbu	a5,65(s0)
	andi	a5,a5,32
	beq	a5,zero,.L136
	.loc 1 759 5 is_stmt 1
	mv	a0,s0
	call	igmp_stop
.LVL103:
.L136:
	.loc 1 775 3
	.loc 1 775 7 is_stmt 0
	lbu	a5,65(s0)
	.loc 1 775 6
	andi	a5,a5,1
	beq	a5,zero,.L137
	.loc 1 777 5 is_stmt 1
	mv	a0,s0
	call	netif_set_down
.LVL104:
.L137:
	.loc 1 780 3
	.loc 1 783 3
	.loc 1 783 21 is_stmt 0
	lui	a5,%hi(netif_default)
	.loc 1 783 6
	lw	a4,%lo(netif_default)(a5)
	bne	a4,s0,.L138
	.loc 1 785 5 is_stmt 1
.LVL105:
.LBB55:
.LBB56:
	.loc 1 824 3
	.loc 1 826 3
	.loc 1 831 5
	.loc 1 833 3
	.loc 1 833 17 is_stmt 0
	sw	zero,%lo(netif_default)(a5)
	.loc 1 835 91 is_stmt 1
.LVL106:
.L138:
.LBE56:
.LBE55:
	.loc 1 789 3
	.loc 1 789 18 is_stmt 0
	lui	a4,%hi(netif_list)
	lw	a5,%lo(netif_list)(a4)
	.loc 1 789 6
	bne	a5,s0,.L139
	.loc 1 790 5 is_stmt 1
	.loc 1 790 23 is_stmt 0
	lw	a5,0(s0)
	.loc 1 790 16
	sw	a5,%lo(netif_list)(a4)
.L132:
	.loc 1 812 1
	lw	ra,28(sp)
	.cfi_remember_state
	.cfi_restore 1
	lw	s0,24(sp)
	.cfi_restore 8
.LVL107:
	addi	sp,sp,32
	.cfi_def_cfa_offset 0
	jr	ra
.LVL108:
.L142:
	.cfi_restore_state
.LBB57:
	mv	a5,a4
.LVL109:
.L139:
	.loc 1 794 36 is_stmt 1 discriminator 1
	.loc 1 794 5 is_stmt 0 discriminator 1
	beq	a5,zero,.L132
	.loc 1 795 7 is_stmt 1
	.loc 1 795 20 is_stmt 0
	lw	a4,0(a5)
	.loc 1 795 10
	bne	a4,s0,.L142
	.loc 1 796 9 is_stmt 1
	.loc 1 796 32 is_stmt 0
	lw	a4,0(s0)
	.loc 1 796 25
	sw	a4,0(a5)
	.loc 1 797 9 is_stmt 1
	j	.L132
.LVL110:
.L154:
	.cfi_def_cfa_offset 0
	.cfi_restore 1
	.cfi_restore 8
	ret
.LBE57:
	.cfi_endproc
.LFE18:
	.size	netif_remove, .-netif_remove
	.section	.text.netif_set_status_callback,"ax",@progbits
	.align	1
	.globl	netif_set_status_callback
	.type	netif_set_status_callback, @function
netif_set_status_callback:
.LFB23:
	.loc 1 958 1
	.cfi_startproc
.LVL111:
	.loc 1 959 3
	.loc 1 961 3
	.loc 1 961 6 is_stmt 0
	beq	a0,zero,.L157
	.loc 1 962 5 is_stmt 1
	.loc 1 962 28 is_stmt 0
	sw	a1,28(a0)
.L157:
	.loc 1 964 1
	ret
	.cfi_endproc
.LFE23:
	.size	netif_set_status_callback, .-netif_set_status_callback
	.section	.text.netif_set_link_up,"ax",@progbits
	.align	1
	.globl	netif_set_link_up
	.type	netif_set_link_up, @function
netif_set_link_up:
.LFB24:
	.loc 1 989 1 is_stmt 1
	.cfi_startproc
.LVL112:
	.loc 1 990 3
	.loc 1 992 3
	.loc 1 992 8
	.loc 1 992 11 is_stmt 0
	beq	a0,zero,.L170
	.loc 1 989 1 discriminator 2
	addi	sp,sp,-16
	.cfi_def_cfa_offset 16
	sw	s0,8(sp)
	sw	ra,12(sp)
	.cfi_offset 8, -8
	.cfi_offset 1, -4
	.loc 1 994 14 discriminator 2
	lbu	a5,65(a0)
	mv	s0,a0
	.loc 1 992 24 is_stmt 1 discriminator 2
	.loc 1 994 3 discriminator 2
	.loc 1 994 6 is_stmt 0 discriminator 2
	andi	a4,a5,4
	bne	a4,zero,.L162
	.loc 1 995 5 is_stmt 1
	.loc 1 995 10
	.loc 1 995 27 is_stmt 0
	ori	a5,a5,4
	.loc 1 995 25
	sb	a5,65(a0)
	.loc 1 995 68 is_stmt 1
	.loc 1 998 5
	call	dhcp_network_changed
.LVL113:
	.loc 1 1005 5
	li	a1,3
	mv	a0,s0
	call	netif_issue_reports
.LVL114:
	.loc 1 1010 5
	.loc 1 1010 9
	.loc 1 1010 18 is_stmt 0
	lw	a5,32(s0)
	.loc 1 1010 12
	beq	a5,zero,.L162
	.loc 1 1010 37 is_stmt 1 discriminator 1
	.loc 1 1010 43 is_stmt 0 discriminator 1
	mv	a0,s0
	.loc 1 1019 1 discriminator 1
	lw	s0,8(sp)
	.cfi_remember_state
	.cfi_restore 8
.LVL115:
	lw	ra,12(sp)
	.cfi_restore 1
	addi	sp,sp,16
	.cfi_def_cfa_offset 0
	.loc 1 1010 43 discriminator 1
	jr	a5
.LVL116:
.L162:
	.cfi_restore_state
	.loc 1 1019 1
	lw	ra,12(sp)
	.cfi_restore 1
	lw	s0,8(sp)
	.cfi_restore 8
.LVL117:
	addi	sp,sp,16
	.cfi_def_cfa_offset 0
	jr	ra
.LVL118:
.L170:
	ret
	.cfi_endproc
.LFE24:
	.size	netif_set_link_up, .-netif_set_link_up
	.section	.text.netif_init,"ax",@progbits
	.align	1
	.globl	netif_init
	.type	netif_init, @function
netif_init:
.LFB6:
	.loc 1 178 1 is_stmt 1
	.cfi_startproc
	.loc 1 182 3
	.loc 1 183 3
	.loc 1 183 20 is_stmt 0
	li	a5,16777216
	.loc 1 178 1
	addi	sp,sp,-32
	.cfi_def_cfa_offset 32
	.loc 1 183 20
	addi	a5,a5,127
	sw	a5,12(sp)
	.loc 1 184 3 is_stmt 1
	.loc 1 184 24 is_stmt 0
	sw	a5,4(sp)
	.loc 1 185 3 is_stmt 1
	.loc 1 185 25 is_stmt 0
	li	a5,255
	.loc 1 178 1
	sw	s0,24(sp)
	.loc 1 185 25
	sw	a5,8(sp)
	.loc 1 193 3 is_stmt 1
	.cfi_offset 8, -8
	lui	s0,%hi(.LANCHOR1)
	lui	a6,%hi(tcpip_input)
	lui	a5,%hi(netif_loopif_init)
	addi	a3,sp,12
	addi	a2,sp,8
	addi	a1,sp,4
	addi	a6,a6,%lo(tcpip_input)
	addi	a5,a5,%lo(netif_loopif_init)
	li	a4,0
	addi	a0,s0,%lo(.LANCHOR1)
	.loc 1 178 1 is_stmt 0
	sw	ra,28(sp)
	.cfi_offset 1, -4
	.loc 1 193 3
	call	netif_add
.LVL119:
	.loc 1 201 3 is_stmt 1
	addi	a0,s0,%lo(.LANCHOR1)
	call	netif_set_link_up
.LVL120:
	.loc 1 202 3
	addi	a0,s0,%lo(.LANCHOR1)
	call	netif_set_up
.LVL121:
	.loc 1 205 1 is_stmt 0
	lw	ra,28(sp)
	.cfi_restore 1
	lw	s0,24(sp)
	.cfi_restore 8
	addi	sp,sp,32
	.cfi_def_cfa_offset 0
	jr	ra
	.cfi_endproc
.LFE6:
	.size	netif_init, .-netif_init
	.section	.text.netif_set_link_down,"ax",@progbits
	.align	1
	.globl	netif_set_link_down
	.type	netif_set_link_down, @function
netif_set_link_down:
.LFB25:
	.loc 1 1027 1 is_stmt 1
	.cfi_startproc
.LVL122:
	.loc 1 1028 3
	.loc 1 1030 3
	.loc 1 1030 8
	.loc 1 1030 11 is_stmt 0
	beq	a0,zero,.L175
	.loc 1 1030 24 is_stmt 1 discriminator 2
	.loc 1 1032 3 discriminator 2
	.loc 1 1032 12 is_stmt 0 discriminator 2
	lbu	a4,65(a0)
	.loc 1 1032 6 discriminator 2
	andi	a3,a4,4
	beq	a3,zero,.L175
	.loc 1 1033 5 is_stmt 1
	.loc 1 1033 10
	.loc 1 1034 18 is_stmt 0
	lw	a5,32(a0)
	.loc 1 1033 27
	andi	a4,a4,-5
	.loc 1 1033 25
	sb	a4,65(a0)
	.loc 1 1033 84 is_stmt 1
	.loc 1 1034 5
	.loc 1 1034 9
	.loc 1 1034 12 is_stmt 0
	beq	a5,zero,.L175
	.loc 1 1034 37 is_stmt 1 discriminator 1
	.loc 1 1034 43 is_stmt 0 discriminator 1
	jr	a5
.LVL123:
.L175:
	.loc 1 1043 1
	ret
	.cfi_endproc
.LFE25:
	.size	netif_set_link_down, .-netif_set_link_down
	.section	.text.netif_set_link_callback,"ax",@progbits
	.align	1
	.globl	netif_set_link_callback
	.type	netif_set_link_callback, @function
netif_set_link_callback:
.LFB26:
	.loc 1 1052 1 is_stmt 1
	.cfi_startproc
.LVL124:
	.loc 1 1053 3
	.loc 1 1055 3
	.loc 1 1055 6 is_stmt 0
	beq	a0,zero,.L185
	.loc 1 1056 5 is_stmt 1
	.loc 1 1056 26 is_stmt 0
	sw	a1,32(a0)
.L185:
	.loc 1 1058 1
	ret
	.cfi_endproc
.LFE26:
	.size	netif_set_link_callback, .-netif_set_link_callback
	.section	.text.netif_loop_output,"ax",@progbits
	.align	1
	.globl	netif_loop_output
	.type	netif_loop_output, @function
netif_loop_output:
.LFB27:
	.loc 1 1078 1 is_stmt 1
	.cfi_startproc
.LVL125:
	.loc 1 1079 3
	.loc 1 1080 3
	.loc 1 1081 3
	.loc 1 1095 3
	.loc 1 1097 3
	.loc 1 1099 3
	.loc 1 1099 8
	.loc 1 1099 7
	.loc 1 1099 17
	.loc 1 1100 3
	.loc 1 1100 8
	.loc 1 1100 7
	.loc 1 1100 17
	.loc 1 1103 3
	.loc 1 1078 1 is_stmt 0
	addi	sp,sp,-32
	.cfi_def_cfa_offset 32
	sw	s0,24(sp)
	sw	s2,16(sp)
	sw	ra,28(sp)
	sw	s1,20(sp)
	sw	s3,12(sp)
	.cfi_offset 8, -8
	.cfi_offset 18, -16
	.cfi_offset 1, -4
	.cfi_offset 9, -12
	.cfi_offset 19, -20
	.loc 1 1078 1
	mv	s2,a1
	.loc 1 1103 7
	lhu	a1,8(a1)
.LVL126:
	.loc 1 1078 1
	mv	s0,a0
	.loc 1 1103 7
	li	a2,640
	li	a0,142
.LVL127:
	call	pbuf_alloc
.LVL128:
	.loc 1 1104 3 is_stmt 1
	.loc 1 1104 6 is_stmt 0
	bne	a0,zero,.L191
	.loc 1 1105 5 is_stmt 1
	lui	a5,%hi(lwip_stats)
	addi	a5,a5,%lo(lwip_stats)
	lhu	a4,12(a5)
	.loc 1 1108 12 is_stmt 0
	li	s2,-1
.LVL129:
	.loc 1 1105 5
	addi	a4,a4,1
	sh	a4,12(a5)
	.loc 1 1106 5 is_stmt 1
	lhu	a4,6(a5)
	addi	a4,a4,1
	sh	a4,6(a5)
	.loc 1 1107 5
	.loc 1 1108 5
.LVL130:
.L192:
	.loc 1 1168 1 is_stmt 0
	lw	ra,28(sp)
	.cfi_remember_state
	.cfi_restore 1
	lw	s0,24(sp)
	.cfi_restore 8
.LVL131:
	lw	s1,20(sp)
	.cfi_restore 9
	lw	s3,12(sp)
	.cfi_restore 19
	mv	a0,s2
	lw	s2,16(sp)
	.cfi_restore 18
	addi	sp,sp,32
	.cfi_def_cfa_offset 0
	jr	ra
.LVL132:
.L191:
	.cfi_restore_state
	.loc 1 1125 14
	mv	a1,s2
	mv	s1,a0
	.loc 1 1125 3 is_stmt 1
	.loc 1 1125 14 is_stmt 0
	call	pbuf_copy
.LVL133:
	mv	s2,a0
.LVL134:
	mv	a5,s1
	.loc 1 1125 6
	beq	a0,zero,.L193
	.loc 1 1126 5 is_stmt 1
	mv	a0,s1
.LVL135:
	call	pbuf_free
.LVL136:
	.loc 1 1127 5
	lui	a5,%hi(lwip_stats)
	addi	a5,a5,%lo(lwip_stats)
	lhu	a4,12(a5)
	addi	a4,a4,1
	sh	a4,12(a5)
	.loc 1 1128 5
	lhu	a4,6(a5)
	addi	a4,a4,1
	sh	a4,6(a5)
	.loc 1 1129 5
	.loc 1 1130 5
	.loc 1 1130 12 is_stmt 0
	j	.L192
.LVL137:
.L193:
	.loc 1 1137 18 is_stmt 1 discriminator 1
	mv	s3,a5
	.loc 1 1137 22 is_stmt 0 discriminator 1
	lw	a5,0(a5)
.LVL138:
	.loc 1 1137 3 discriminator 1
	bne	a5,zero,.L193
	.loc 1 1141 3 is_stmt 1
	.loc 1 1141 9 is_stmt 0
	call	sys_arch_protect
.LVL139:
	.loc 1 1142 3 is_stmt 1
	.loc 1 1142 6 is_stmt 0
	lw	a5,76(s0)
	beq	a5,zero,.L194
	.loc 1 1143 5 is_stmt 1
	.loc 1 1143 10
	.loc 1 1143 21 is_stmt 0
	lw	a5,80(s0)
	.loc 1 1143 9 is_stmt 1
	.loc 1 1143 19
	.loc 1 1144 5
	.loc 1 1144 28 is_stmt 0
	sw	s1,0(a5)
	.loc 1 1145 5 is_stmt 1
	.loc 1 1145 22 is_stmt 0
	sw	s3,80(s0)
	.loc 1 1095 8
	li	s1,0
.LVL140:
.L195:
	.loc 1 1154 3 is_stmt 1
	call	sys_arch_unprotect
.LVL141:
	.loc 1 1156 3
	lui	a5,%hi(lwip_stats)
	addi	a5,a5,%lo(lwip_stats)
	lhu	a4,0(a5)
	addi	a4,a4,1
	sh	a4,0(a5)
	.loc 1 1157 3
	.loc 1 1158 3
	.loc 1 1162 3
	.loc 1 1162 6 is_stmt 0
	beq	s1,zero,.L192
.LVL142:
	.loc 1 1163 5 is_stmt 1
	lui	a0,%hi(netif_poll)
	mv	a1,s0
	addi	a0,a0,%lo(netif_poll)
	call	tcpip_try_callback
.LVL143:
	j	.L192
.LVL144:
.L194:
	.loc 1 1147 5
	.loc 1 1147 23 is_stmt 0
	sw	s1,76(s0)
	.loc 1 1148 5 is_stmt 1
	.loc 1 1148 22 is_stmt 0
	sw	s3,80(s0)
	.loc 1 1151 5 is_stmt 1
.LVL145:
	.loc 1 1151 19 is_stmt 0
	li	s1,1
.LVL146:
	j	.L195
	.cfi_endproc
.LFE27:
	.size	netif_loop_output, .-netif_loop_output
	.section	.text.netif_loop_output_ipv4,"ax",@progbits
	.align	1
	.type	netif_loop_output_ipv4, @function
netif_loop_output_ipv4:
.LFB28:
	.loc 1 1174 1 is_stmt 1
	.cfi_startproc
.LVL147:
	.loc 1 1175 3
	.loc 1 1176 3
	.loc 1 1176 10 is_stmt 0
	tail	netif_loop_output
.LVL148:
	.cfi_endproc
.LFE28:
	.size	netif_loop_output_ipv4, .-netif_loop_output_ipv4
	.section	.text.netif_alloc_client_data_id,"ax",@progbits
	.align	1
	.globl	netif_alloc_client_data_id
	.type	netif_alloc_client_data_id, @function
netif_alloc_client_data_id:
.LFB30:
	.loc 1 1288 1 is_stmt 1
	.cfi_startproc
	.loc 1 1289 3
	.loc 1 1289 8 is_stmt 0
	lui	a5,%hi(.LANCHOR2)
	addi	a5,a5,%lo(.LANCHOR2)
	lbu	a0,0(a5)
.LVL149:
	.loc 1 1290 3 is_stmt 1
	.loc 1 1290 18 is_stmt 0
	addi	a4,a0,1
	.loc 1 1298 10
	addi	a0,a0,2
.LVL150:
	.loc 1 1290 18
	sb	a4,0(a5)
	.loc 1 1292 3 is_stmt 1
	.loc 1 1297 3
	.loc 1 1297 8
	.loc 1 1297 29
	.loc 1 1297 39
	.loc 1 1298 3
	.loc 1 1299 1 is_stmt 0
	andi	a0,a0,0xff
.LVL151:
	ret
	.cfi_endproc
.LFE30:
	.size	netif_alloc_client_data_id, .-netif_alloc_client_data_id
	.section	.text.netif_get_by_index,"ax",@progbits
	.align	1
	.globl	netif_get_by_index
	.type	netif_get_by_index, @function
netif_get_by_index:
.LFB34:
	.loc 1 1677 1 is_stmt 1
	.cfi_startproc
.LVL152:
	.loc 1 1678 3
	.loc 1 1680 3
	.loc 1 1682 3
	.loc 1 1677 1 is_stmt 0
	mv	a4,a0
	.loc 1 1682 6
	beq	a0,zero,.L210
	.loc 1 1683 5 is_stmt 1
	.loc 1 1683 18 is_stmt 0
	lui	a5,%hi(netif_list)
	lw	a0,%lo(netif_list)(a5)
.LVL153:
.L208:
	.loc 1 1683 32 is_stmt 1 discriminator 1
	.loc 1 1683 5 is_stmt 0 discriminator 1
	bne	a0,zero,.L209
	ret
.L209:
	.loc 1 1684 7 is_stmt 1
	.loc 1 1684 19 is_stmt 0
	lbu	a5,68(a0)
	addi	a5,a5,1
	.loc 1 1684 10
	andi	a5,a5,0xff
	beq	a5,a4,.L206
	.loc 1 1683 6 is_stmt 1 discriminator 2
	.loc 1 1683 14 is_stmt 0 discriminator 2
	lw	a0,0(a0)
.LVL154:
	j	.L208
.LVL155:
.L210:
	.loc 1 1690 9
	li	a0,0
.LVL156:
.L206:
	.loc 1 1691 1
	ret
	.cfi_endproc
.LFE34:
	.size	netif_get_by_index, .-netif_get_by_index
	.section	.text.netif_index_to_name,"ax",@progbits
	.align	1
	.globl	netif_index_to_name
	.type	netif_index_to_name, @function
netif_index_to_name:
.LFB33:
	.loc 1 1657 1 is_stmt 1
	.cfi_startproc
.LVL157:
	.loc 1 1658 3
	.loc 1 1657 1 is_stmt 0
	addi	sp,sp,-16
	.cfi_def_cfa_offset 16
	sw	s0,8(sp)
	sw	s1,4(sp)
	sw	ra,12(sp)
	.cfi_offset 8, -8
	.cfi_offset 9, -12
	.cfi_offset 1, -4
	.loc 1 1657 1
	mv	s1,a0
	mv	s0,a1
	.loc 1 1658 25
	call	netif_get_by_index
.LVL158:
	.loc 1 1660 3 is_stmt 1
	.loc 1 1660 6 is_stmt 0
	beq	a0,zero,.L211
	.loc 1 1661 5 is_stmt 1
	.loc 1 1661 26 is_stmt 0
	lbu	a5,66(a0)
	.loc 1 1663 5
	addi	a2,s1,-1
	li	a1,4
	.loc 1 1661 13
	sb	a5,0(s0)
	.loc 1 1662 5 is_stmt 1
	.loc 1 1662 26 is_stmt 0
	lbu	a5,67(a0)
	.loc 1 1663 5
	addi	a0,s0,2
.LVL159:
	.loc 1 1662 13
	sb	a5,1(s0)
	.loc 1 1663 5 is_stmt 1
	call	lwip_itoa
.LVL160:
	.loc 1 1664 5
	.loc 1 1664 12 is_stmt 0
	mv	a0,s0
.L211:
	.loc 1 1667 1
	lw	ra,12(sp)
	.cfi_restore 1
	lw	s0,8(sp)
	.cfi_restore 8
.LVL161:
	lw	s1,4(sp)
	.cfi_restore 9
	addi	sp,sp,16
	.cfi_def_cfa_offset 0
	jr	ra
	.cfi_endproc
.LFE33:
	.size	netif_index_to_name, .-netif_index_to_name
	.section	.text.netif_find,"ax",@progbits
	.align	1
	.globl	netif_find
	.type	netif_find, @function
netif_find:
.LFB35:
	.loc 1 1702 1 is_stmt 1
	.cfi_startproc
.LVL162:
	.loc 1 1703 3
	.loc 1 1704 3
	.loc 1 1706 3
	.loc 1 1708 3
	.loc 1 1708 6 is_stmt 0
	bne	a0,zero,.L218
	.loc 1 1709 11
	li	a0,0
.LVL163:
	.loc 1 1724 1
	ret
.LVL164:
.L218:
	.loc 1 1702 1
	addi	sp,sp,-16
	.cfi_def_cfa_offset 16
	sw	s0,8(sp)
	.cfi_offset 8, -8
	mv	s0,a0
	.loc 1 1712 3 is_stmt 1
	.loc 1 1712 15 is_stmt 0
	addi	a0,a0,2
.LVL165:
	.loc 1 1702 1
	sw	ra,12(sp)
	.cfi_offset 1, -4
	.loc 1 1712 15
	call	atoi
.LVL166:
	.loc 1 1714 16
	lui	a4,%hi(netif_list)
	.loc 1 1712 7
	andi	a5,a0,0xff
.LVL167:
	.loc 1 1714 3 is_stmt 1
	.loc 1 1714 16 is_stmt 0
	lw	a0,%lo(netif_list)(a4)
.LVL168:
.L220:
	.loc 1 1714 30 is_stmt 1 discriminator 1
	.loc 1 1714 3 is_stmt 0 discriminator 1
	bne	a0,zero,.L222
	.loc 1 1709 11
	li	a0,0
.LVL169:
.L217:
	.loc 1 1724 1
	lw	ra,12(sp)
	.cfi_remember_state
	.cfi_restore 1
	lw	s0,8(sp)
	.cfi_restore 8
.LVL170:
	addi	sp,sp,16
	.cfi_def_cfa_offset 0
	jr	ra
.LVL171:
.L222:
	.cfi_restore_state
	.loc 1 1715 5 is_stmt 1
	.loc 1 1715 8 is_stmt 0
	lbu	a4,68(a0)
	bne	a4,a5,.L221
	.loc 1 1715 27 discriminator 1
	lbu	a3,0(s0)
	lbu	a4,66(a0)
	bne	a3,a4,.L221
	.loc 1 1716 35
	lbu	a3,1(s0)
	lbu	a4,67(a0)
	beq	a3,a4,.L217
.L221:
	.loc 1 1714 4 is_stmt 1 discriminator 2
	.loc 1 1714 12 is_stmt 0 discriminator 2
	lw	a0,0(a0)
.LVL172:
	j	.L220
	.cfi_endproc
.LFE35:
	.size	netif_find, .-netif_find
	.section	.text.netif_name_to_index,"ax",@progbits
	.align	1
	.globl	netif_name_to_index
	.type	netif_name_to_index, @function
netif_name_to_index:
.LFB32:
	.loc 1 1638 1 is_stmt 1
	.cfi_startproc
.LVL173:
	.loc 1 1639 3
	.loc 1 1638 1 is_stmt 0
	addi	sp,sp,-16
	.cfi_def_cfa_offset 16
	sw	ra,12(sp)
	.cfi_offset 1, -4
	.loc 1 1639 25
	call	netif_find
.LVL174:
	.loc 1 1640 3 is_stmt 1
	.loc 1 1640 6 is_stmt 0
	beq	a0,zero,.L229
	.loc 1 1641 5 is_stmt 1
	.loc 1 1641 13 is_stmt 0
	lbu	a0,68(a0)
.LVL175:
	addi	a0,a0,1
	andi	a0,a0,0xff
.L228:
	.loc 1 1645 1
	lw	ra,12(sp)
	.cfi_remember_state
	.cfi_restore 1
	addi	sp,sp,16
	.cfi_def_cfa_offset 0
	jr	ra
.LVL176:
.L229:
	.cfi_restore_state
	.loc 1 1644 10
	li	a0,0
.LVL177:
	j	.L228
	.cfi_endproc
.LFE32:
	.size	netif_name_to_index, .-netif_name_to_index
	.comm	netif_default,4,4
	.comm	netif_list,4,4
	.section	.bss.loop_netif,"aw",@nobits
	.align	2
	.set	.LANCHOR1,. + 0
	.type	loop_netif, @object
	.size	loop_netif, 84
loop_netif:
	.zero	84
	.section	.sbss.netif_client_id,"aw",@nobits
	.set	.LANCHOR2,. + 0
	.type	netif_client_id, @object
	.size	netif_client_id, 1
netif_client_id:
	.zero	1
	.section	.sbss.netif_num,"aw",@nobits
	.set	.LANCHOR0,. + 0
	.type	netif_num, @object
	.size	netif_num, 1
netif_num:
	.zero	1
	.text
.Letext0:
	.file 2 "/mnt/d/GitHub/bl_iot_sdk_for_aithinker/components/network/lwip/lwip-port/arch/cc.h"
	.file 3 "/mnt/d/GitHub/bl_iot_sdk_for_aithinker/toolchain/riscv/Linux/riscv64-unknown-elf/include/machine/_default_types.h"
	.file 4 "/mnt/d/GitHub/bl_iot_sdk_for_aithinker/toolchain/riscv/Linux/riscv64-unknown-elf/include/sys/_stdint.h"
	.file 5 "/mnt/d/GitHub/bl_iot_sdk_for_aithinker/components/network/lwip/src/include/lwip/arch.h"
	.file 6 "/mnt/d/GitHub/bl_iot_sdk_for_aithinker/components/network/lwip/src/include/lwip/ip4_addr.h"
	.file 7 "/mnt/d/GitHub/bl_iot_sdk_for_aithinker/components/network/lwip/src/include/lwip/ip_addr.h"
	.file 8 "/mnt/d/GitHub/bl_iot_sdk_for_aithinker/components/network/lwip/src/include/lwip/err.h"
	.file 9 "/mnt/d/GitHub/bl_iot_sdk_for_aithinker/components/network/lwip/src/include/lwip/pbuf.h"
	.file 10 "/mnt/d/GitHub/bl_iot_sdk_for_aithinker/components/network/lwip/src/include/lwip/mem.h"
	.file 11 "/mnt/d/GitHub/bl_iot_sdk_for_aithinker/components/network/lwip/src/include/lwip/memp.h"
	.file 12 "/mnt/d/GitHub/bl_iot_sdk_for_aithinker/components/network/lwip/src/include/lwip/stats.h"
	.file 13 "/mnt/d/GitHub/bl_iot_sdk_for_aithinker/components/network/lwip/src/include/lwip/netif.h"
	.file 14 "/mnt/d/GitHub/bl_iot_sdk_for_aithinker/components/network/lwip/src/include/lwip/tcpip.h"
	.file 15 "/mnt/d/GitHub/bl_iot_sdk_for_aithinker/toolchain/riscv/Linux/riscv64-unknown-elf/include/stdlib.h"
	.file 16 "/mnt/d/GitHub/bl_iot_sdk_for_aithinker/components/network/lwip/src/include/lwip/def.h"
	.file 17 "/mnt/d/GitHub/bl_iot_sdk_for_aithinker/components/network/lwip/src/include/lwip/sys.h"
	.file 18 "/mnt/d/GitHub/bl_iot_sdk_for_aithinker/components/network/lwip/src/include/lwip/ip4.h"
	.file 19 "/mnt/d/GitHub/bl_iot_sdk_for_aithinker/components/network/lwip/src/include/lwip/dhcp.h"
	.file 20 "/mnt/d/GitHub/bl_iot_sdk_for_aithinker/components/network/lwip/src/include/lwip/priv/tcp_priv.h"
	.file 21 "/mnt/d/GitHub/bl_iot_sdk_for_aithinker/components/network/lwip/src/include/lwip/udp.h"
	.file 22 "/mnt/d/GitHub/bl_iot_sdk_for_aithinker/components/network/lwip/src/include/lwip/priv/raw_priv.h"
	.file 23 "/mnt/d/GitHub/bl_iot_sdk_for_aithinker/components/network/lwip/src/include/lwip/igmp.h"
	.file 24 "/mnt/d/GitHub/bl_iot_sdk_for_aithinker/toolchain/riscv/Linux/riscv64-unknown-elf/include/string.h"
	.file 25 "/mnt/d/GitHub/bl_iot_sdk_for_aithinker/components/network/lwip/src/include/netif/ethernet.h"
	.file 26 "/mnt/d/GitHub/bl_iot_sdk_for_aithinker/components/network/lwip/src/include/lwip/etharp.h"