	.file	"pbuf.c"
	.option nopic
	.attribute arch, "rv32i2p0_m2p0_f2p0_c2p0"
	.attribute unaligned_access, 0
	.attribute stack_align, 16
	.text
.Ltext0:
	.cfi_sections	.debug_frame
	.section	.text.pbuf_skip_const,"ax",@progbits
	.align	1
	.type	pbuf_skip_const, @function
pbuf_skip_const:
.LFB30:
	.file 1 "/mnt/d/GitHub/bl_iot_sdk_for_aithinker/components/network/lwip/src/core/pbuf.c"
	.loc 1 1153 1
	.cfi_startproc
.LVL0:
	.loc 1 1154 3
	.loc 1 1155 3
	.loc 1 1158 3
.L2:
	.loc 1 1158 9
	beq	a0,zero,.L3
	.loc 1 1158 26 is_stmt 0 discriminator 1
	lhu	a5,10(a0)
	.loc 1 1158 21 discriminator 1
	bleu	a5,a1,.L4
.L3:
	.loc 1 1162 3 is_stmt 1
	.loc 1 1162 6 is_stmt 0
	beq	a2,zero,.L1
	.loc 1 1163 5 is_stmt 1
	.loc 1 1163 17 is_stmt 0
	sh	a1,0(a2)
	.loc 1 1165 3 is_stmt 1
.L1:
	.loc 1 1166 1 is_stmt 0
	ret
.L4:
	.loc 1 1159 5 is_stmt 1
	.loc 1 1159 17 is_stmt 0
	sub	a1,a1,a5
.LVL1:
	slli	a1,a1,16
	.loc 1 1160 7
	lw	a0,0(a0)
.LVL2:
	.loc 1 1159 17
	srli	a1,a1,16
.LVL3:
	.loc 1 1160 5 is_stmt 1
	j	.L2
	.cfi_endproc
.LFE30:
	.size	pbuf_skip_const, .-pbuf_skip_const
	.section	.text.pbuf_free_ooseq_callback,"ax",@progbits
	.align	1
	.type	pbuf_free_ooseq_callback, @function
pbuf_free_ooseq_callback:
.LFB6:
	.loc 1 149 1
	.cfi_startproc
.LVL4:
	.loc 1 150 3
	.loc 1 151 3
.LBB25:
.LBB26:
	.loc 1 130 3
	.loc 1 131 3
.LBB27:
	.loc 1 131 8
	.loc 1 131 30
.LBE27:
.LBE26:
.LBE25:
	.loc 1 149 1 is_stmt 0
	addi	sp,sp,-16
	.cfi_def_cfa_offset 16
	sw	ra,12(sp)
	.cfi_offset 1, -4
.LBB32:
.LBB29:
.LBB28:
	.loc 1 131 42
	call	sys_arch_protect
.LVL5:
	.loc 1 131 62 is_stmt 1
	.loc 1 131 86 is_stmt 0
	lui	a5,%hi(pbuf_free_ooseq_pending)
	sb	zero,%lo(pbuf_free_ooseq_pending)(a5)
	.loc 1 131 91 is_stmt 1
	call	sys_arch_unprotect
.LVL6:
.LBE28:
	.loc 1 131 129
	.loc 1 133 3
	.loc 1 133 12 is_stmt 0
	lui	a5,%hi(tcp_active_pcbs)
	lw	a0,%lo(tcp_active_pcbs)(a5)
.LVL7:
.L13:
	.loc 1 133 30 is_stmt 1
	.loc 1 133 3 is_stmt 0
	bne	a0,zero,.L15
.LBE29:
.LBE32:
	.loc 1 152 1
	lw	ra,12(sp)
	.cfi_remember_state
	.cfi_restore 1
	addi	sp,sp,16
	.cfi_def_cfa_offset 0
	jr	ra
.L15:
	.cfi_restore_state
.LBB33:
.LBB30:
	.loc 1 134 5 is_stmt 1
	.loc 1 134 8 is_stmt 0
	lw	a5,120(a0)
	beq	a5,zero,.L14
	.loc 1 136 7 is_stmt 1
	.loc 1 137 7
.LBE30:
.LBE33:
	.loc 1 152 1 is_stmt 0
	lw	ra,12(sp)
	.cfi_remember_state
	.cfi_restore 1
	addi	sp,sp,16
	.cfi_def_cfa_offset 0
.LBB34:
.LBB31:
	.loc 1 137 7
	tail	tcp_free_ooseq
.LVL8:
.L14:
	.cfi_restore_state
	.loc 1 133 43 is_stmt 1
	.loc 1 133 47 is_stmt 0
	lw	a0,12(a0)
.LVL9:
	j	.L13
.LBE31:
.LBE34:
	.cfi_endproc
.LFE6:
	.size	pbuf_free_ooseq_callback, .-pbuf_free_ooseq_callback
	.section	.text.pbuf_add_header_impl,"ax",@progbits
	.align	1
	.type	pbuf_add_header_impl, @function
pbuf_add_header_impl:
.LFB13:
	.loc 1 474 1 is_stmt 1
	.cfi_startproc
.LVL10:
	.loc 1 475 3
	.loc 1 476 3
	.loc 1 477 3
	.loc 1 479 3
	.loc 1 479 8
	.loc 1 479 7
	.loc 1 479 17
	.loc 1 480 3
	.loc 1 474 1 is_stmt 0
	mv	a5,a0
	.loc 1 480 6
	beq	a0,zero,.L21
	.loc 1 480 18 discriminator 1
	li	a4,65536
	.loc 1 481 12 discriminator 1
	li	a0,1
.LVL11:
	.loc 1 480 18 discriminator 1
	bgeu	a1,a4,.L18
	.loc 1 483 3 is_stmt 1
	.loc 1 484 12 is_stmt 0
	li	a0,0
	.loc 1 483 6
	beq	a1,zero,.L18
.LVL12:
.LBB37:
.LBB38:
	.loc 1 487 3 is_stmt 1
	.loc 1 489 7 is_stmt 0
	lhu	a4,8(a5)
	.loc 1 487 23
	slli	a3,a1,16
	srli	a3,a3,16
.LVL13:
	.loc 1 489 3 is_stmt 1
	.loc 1 489 7 is_stmt 0
	add	a4,a3,a4
	slli	a4,a4,16
	srli	a4,a4,16
.LBE38:
.LBE37:
	.loc 1 481 12
	li	a0,1
.LBB42:
.LBB39:
	.loc 1 489 6
	bgtu	a3,a4,.L18
	.loc 1 493 3 is_stmt 1
.LVL14:
	.loc 1 496 3
	.loc 1 496 6 is_stmt 0
	lb	a0,12(a5)
	bge	a0,zero,.L19
	.loc 1 498 5 is_stmt 1
	.loc 1 498 13 is_stmt 0
	lw	a2,4(a5)
.LVL15:
.LBE39:
.LBE42:
	.loc 1 481 12
	li	a0,1
.LBB43:
.LBB40:
	.loc 1 498 13
	sub	a1,a2,a1
.LVL16:
	.loc 1 500 5 is_stmt 1
	.loc 1 500 37 is_stmt 0
	addi	a2,a5,16
	.loc 1 500 8
	bgeu	a1,a2,.L20
	ret
.LVL17:
.L19:
	.loc 1 510 5 is_stmt 1
.LBE40:
.LBE43:
	.loc 1 481 12 is_stmt 0
	li	a0,1
.LBB44:
.LBB41:
	.loc 1 510 8
	beq	a2,zero,.L18
	.loc 1 511 7 is_stmt 1
	.loc 1 511 15 is_stmt 0
	lw	a2,4(a5)
.LVL18:
	sub	a1,a2,a1
.LVL19:
.L20:
	.loc 1 519 73 is_stmt 1
	.loc 1 522 3
	.loc 1 523 12 is_stmt 0
	lhu	a2,10(a5)
	.loc 1 522 14
	sw	a1,4(a5)
	.loc 1 523 3 is_stmt 1
	.loc 1 524 14 is_stmt 0
	sh	a4,8(a5)
	.loc 1 523 12
	add	a3,a3,a2
.LVL20:
	.loc 1 523 10
	sh	a3,10(a5)
	.loc 1 524 3 is_stmt 1
	.loc 1 527 3
	.loc 1 527 10 is_stmt 0
	li	a0,0
	ret
.LVL21:
.L21:
.LBE41:
.LBE44:
	.loc 1 481 12
	li	a0,1
.LVL22:
.L18:
	.loc 1 528 1
	ret
	.cfi_endproc
.LFE13:
	.size	pbuf_add_header_impl, .-pbuf_add_header_impl
	.section	.text.pbuf_alloc_reference,"ax",@progbits
	.align	1
	.globl	pbuf_alloc_reference
	.type	pbuf_alloc_reference, @function
pbuf_alloc_reference:
.LFB10:
	.loc 1 328 1 is_stmt 1
	.cfi_startproc
.LVL23:
	.loc 1 329 3
	.loc 1 330 3
	.loc 1 330 8
	.loc 1 330 59
	.loc 1 330 69
	.loc 1 332 3
	.loc 1 328 1 is_stmt 0
	addi	sp,sp,-16
	.cfi_def_cfa_offset 16
	sw	s2,0(sp)
	.cfi_offset 18, -16
	mv	s2,a0
	.loc 1 332 22
	li	a0,13
.LVL24:
	.loc 1 328 1
	sw	s0,8(sp)
	sw	s1,4(sp)
	sw	ra,12(sp)
	.cfi_offset 8, -8
	.cfi_offset 9, -12
	.cfi_offset 1, -4
	.loc 1 328 1
	mv	s0,a1
	mv	s1,a2
	.loc 1 332 22
	call	memp_malloc
.LVL25:
	.loc 1 333 3 is_stmt 1
	.loc 1 333 6 is_stmt 0
	beq	a0,zero,.L27
	.loc 1 339 3 is_stmt 1
.LVL26:
.LBB45:
.LBB46:
	.loc 1 181 3
	.loc 1 187 10 is_stmt 0
	li	a5,1
	.loc 1 181 11
	sw	zero,0(a0)
	.loc 1 182 3 is_stmt 1
	.loc 1 182 14 is_stmt 0
	sw	s2,4(a0)
	.loc 1 183 3 is_stmt 1
	.loc 1 183 14 is_stmt 0
	sh	s0,8(a0)
	.loc 1 184 3 is_stmt 1
	.loc 1 184 10 is_stmt 0
	sh	s0,10(a0)
	.loc 1 185 3 is_stmt 1
	.loc 1 185 22 is_stmt 0
	sb	s1,12(a0)
	.loc 1 186 3 is_stmt 1
	.loc 1 187 3
	.loc 1 188 3
	.loc 1 186 12 is_stmt 0
	sb	zero,13(a0)
	.loc 1 187 10
	sh	a5,14(a0)
.LVL27:
.LBE46:
.LBE45:
	.loc 1 340 3 is_stmt 1
.L27:
	.loc 1 341 1 is_stmt 0
	lw	ra,12(sp)
	.cfi_restore 1
	lw	s0,8(sp)
	.cfi_restore 8
	lw	s1,4(sp)
	.cfi_restore 9
.LVL28:
	lw	s2,0(sp)
	.cfi_restore 18
.LVL29:
	addi	sp,sp,16
	.cfi_def_cfa_offset 0
	jr	ra
	.cfi_endproc
.LFE10:
	.size	pbuf_alloc_reference, .-pbuf_alloc_reference
	.section	.text.pbuf_alloced_custom,"ax",@progbits
	.align	1
	.globl	pbuf_alloced_custom
	.type	pbuf_alloced_custom, @function
pbuf_alloced_custom:
.LFB11:
	.loc 1 365 1 is_stmt 1
	.cfi_startproc
.LVL30:
	.loc 1 366 3
	.loc 1 367 3
	.loc 1 368 3
	.loc 1 370 3
	.loc 1 370 22 is_stmt 0
	slli	a0,a0,16
.LVL31:
	srli	a0,a0,16
	addi	a0,a0,3
	.loc 1 370 28
	andi	a0,a0,-4
	.loc 1 370 40
	add	a6,a1,a0
	.loc 1 370 6
	bgtu	a6,a5,.L36
	.loc 1 375 3 is_stmt 1
	.loc 1 375 6 is_stmt 0
	beq	a4,zero,.L35
	.loc 1 376 5 is_stmt 1
	.loc 1 376 13 is_stmt 0
	add	a4,a4,a0
.LVL32:
.L35:
	.loc 1 380 3 is_stmt 1
.LBB47:
.LBB48:
	.loc 1 186 12 is_stmt 0
	li	a5,2
.LVL33:
	sb	a5,13(a3)
	.loc 1 187 10
	li	a5,1
.LBE48:
.LBE47:
	.loc 1 380 3
	mv	a0,a3
.LVL34:
.LBB50:
.LBB49:
	.loc 1 181 3 is_stmt 1
	.loc 1 181 11 is_stmt 0
	sw	zero,0(a3)
	.loc 1 182 3 is_stmt 1
	.loc 1 182 14 is_stmt 0
	sw	a4,4(a3)
	.loc 1 183 3 is_stmt 1
	.loc 1 183 14 is_stmt 0
	sh	a1,8(a3)
	.loc 1 184 3 is_stmt 1
	.loc 1 184 10 is_stmt 0
	sh	a1,10(a3)
	.loc 1 185 3 is_stmt 1
	.loc 1 185 22 is_stmt 0
	sb	a2,12(a3)
	.loc 1 186 3 is_stmt 1
	.loc 1 187 3
	.loc 1 188 3
	.loc 1 187 10 is_stmt 0
	sh	a5,14(a3)
.LVL35:
.LBE49:
.LBE50:
	.loc 1 381 3 is_stmt 1
	.loc 1 381 10 is_stmt 0
	ret
.LVL36:
.L36:
	.loc 1 372 11
	li	a0,0
	.loc 1 382 1
	ret
	.cfi_endproc
.LFE11:
	.size	pbuf_alloced_custom, .-pbuf_alloced_custom
	.section	.text.pbuf_add_header,"ax",@progbits
	.align	1
	.globl	pbuf_add_header
	.type	pbuf_add_header, @function
pbuf_add_header:
.LFB14:
	.loc 1 552 1 is_stmt 1
	.cfi_startproc
.LVL37:
	.loc 1 553 3
	.loc 1 553 10 is_stmt 0
	li	a2,0
	tail	pbuf_add_header_impl
.LVL38:
	.cfi_endproc
.LFE14:
	.size	pbuf_add_header, .-pbuf_add_header
	.section	.text.pbuf_add_header_force,"ax",@progbits
	.align	1
	.globl	pbuf_add_header_force
	.type	pbuf_add_header_force, @function
pbuf_add_header_force:
.LFB15:
	.loc 1 562 1 is_stmt 1
	.cfi_startproc
.LVL39:
	.loc 1 563 3
	.loc 1 563 10 is_stmt 0
	li	a2,1
	tail	pbuf_add_header_impl
.LVL40:
	.cfi_endproc
.LFE15:
	.size	pbuf_add_header_force, .-pbuf_add_header_force
	.section	.text.pbuf_remove_header,"ax",@progbits
	.align	1
	.globl	pbuf_remove_header
	.type	pbuf_remove_header, @function
pbuf_remove_header:
.LFB16:
	.loc 1 583 1 is_stmt 1
	.cfi_startproc
.LVL41:
	.loc 1 584 3
	.loc 1 585 3
	.loc 1 587 3
	.loc 1 587 8
	.loc 1 587 7
	.loc 1 587 17
	.loc 1 588 3
	.loc 1 583 1 is_stmt 0
	mv	a5,a0
	.loc 1 588 6
	beq	a0,zero,.L44
	.loc 1 588 18 discriminator 1
	li	a4,65536
	.loc 1 589 12 discriminator 1
	li	a0,1
.LVL42:
	.loc 1 588 18 discriminator 1
	bgeu	a1,a4,.L43
	.loc 1 591 3 is_stmt 1
	.loc 1 592 12 is_stmt 0
	li	a0,0
	.loc 1 591 6
	beq	a1,zero,.L43
.LVL43:
.LBB53:
.LBB54:
	.loc 1 595 3 is_stmt 1
	.loc 1 597 39 is_stmt 0
	lhu	a4,10(a5)
	.loc 1 595 23
	slli	a3,a1,16
	srli	a3,a3,16
.LVL44:
	.loc 1 597 3 is_stmt 1
	.loc 1 597 8
.LBE54:
.LBE53:
	.loc 1 589 12 is_stmt 0
	li	a0,1
.LBB56:
.LBB55:
	.loc 1 597 11
	bgtu	a3,a4,.L43
	.loc 1 597 61 is_stmt 1
	.loc 1 597 70
	.loc 1 600 3
.LVL45:
	.loc 1 601 3
	.loc 1 604 3
	.loc 1 606 12 is_stmt 0
	sub	a4,a4,a3
	.loc 1 604 35
	lw	a2,4(a5)
	.loc 1 606 10
	sh	a4,10(a5)
	.loc 1 607 16
	lhu	a4,8(a5)
	.loc 1 604 35
	add	a1,a2,a1
.LVL46:
	.loc 1 604 14
	sw	a1,4(a5)
.LVL47:
	.loc 1 606 3 is_stmt 1
	.loc 1 607 3
	.loc 1 607 16 is_stmt 0
	sub	a4,a4,a3
	.loc 1 607 14
	sh	a4,8(a5)
	.loc 1 610 73 is_stmt 1
	.loc 1 612 3
	.loc 1 612 10 is_stmt 0
	li	a0,0
	ret
.LVL48:
.L44:
.LBE55:
.LBE56:
	.loc 1 589 12
	li	a0,1
.LVL49:
.L43:
	.loc 1 613 1
	ret
	.cfi_endproc
.LFE16:
	.size	pbuf_remove_header, .-pbuf_remove_header
	.section	.text.pbuf_header,"ax",@progbits
	.align	1
	.globl	pbuf_header
	.type	pbuf_header, @function
pbuf_header:
.LFB18:
	.loc 1 647 1 is_stmt 1
	.cfi_startproc
.LVL50:
	.loc 1 648 3
.LBB61:
.LBB62:
	.loc 1 618 3
	.loc 1 618 6 is_stmt 0
	bge	a1,zero,.L49
.LVL51:
.LBB63:
.LBB64:
	.loc 1 619 5 is_stmt 1
	.loc 1 619 12 is_stmt 0
	neg	a1,a1
.LVL52:
	tail	pbuf_remove_header
.LVL53:
.L49:
.LBE64:
.LBE63:
	.loc 1 621 5 is_stmt 1
	.loc 1 621 12 is_stmt 0
	li	a2,0
	tail	pbuf_add_header_impl
.LVL54:
.LBE62:
.LBE61:
	.cfi_endproc
.LFE18:
	.size	pbuf_header, .-pbuf_header
	.section	.text.pbuf_header_force,"ax",@progbits
	.align	1
	.globl	pbuf_header_force
	.type	pbuf_header_force, @function
pbuf_header_force:
.LFB19:
	.loc 1 657 1 is_stmt 1
	.cfi_startproc
.LVL55:
	.loc 1 658 3
.LBB69:
.LBB70:
	.loc 1 618 3
	.loc 1 618 6 is_stmt 0
	bge	a1,zero,.L51
.LVL56:
.LBB71:
.LBB72:
	.loc 1 619 5 is_stmt 1
	.loc 1 619 12 is_stmt 0
	neg	a1,a1
.LVL57:
	tail	pbuf_remove_header
.LVL58:
.L51:
.LBE72:
.LBE71:
	.loc 1 621 5 is_stmt 1
	.loc 1 621 12 is_stmt 0
	li	a2,1
	tail	pbuf_add_header_impl
.LVL59:
.LBE70:
.LBE69:
	.cfi_endproc
.LFE19:
	.size	pbuf_header_force, .-pbuf_header_force
	.section	.text.pbuf_free,"ax",@progbits
	.align	1
	.globl	pbuf_free
	.type	pbuf_free, @function
pbuf_free:
.LFB21:
	.loc 1 726 1 is_stmt 1
	.cfi_startproc
.LVL60:
	.loc 1 727 3
	.loc 1 728 3
	.loc 1 729 3
	.loc 1 731 3
	.loc 1 726 1 is_stmt 0
	addi	sp,sp,-48
	.cfi_def_cfa_offset 48
	sw	s0,40(sp)
	sw	ra,44(sp)
	sw	s1,36(sp)
	sw	s2,32(sp)
	sw	s3,28(sp)
	.cfi_offset 8, -8
	.cfi_offset 1, -4
	.cfi_offset 9, -12
	.cfi_offset 18, -16
	.cfi_offset 19, -20
	.loc 1 736 12
	li	s0,0
	.loc 1 731 6
	beq	a0,zero,.L53
	mv	a1,a0
.LBB77:
.LBB78:
	.loc 1 742 9
	li	s0,0
.LBB79:
	.loc 1 773 12
	li	s2,2
	.loc 1 776 19
	li	s3,1
.LVL61:
.L58:
	sw	a1,12(sp)
.LVL62:
	.loc 1 746 5 is_stmt 1
	.loc 1 747 5
	.loc 1 751 5
	.loc 1 751 17 is_stmt 0
	call	sys_arch_protect
.LVL63:
	.loc 1 753 5 is_stmt 1
	.loc 1 753 10
	.loc 1 753 31
	.loc 1 753 41
	.loc 1 755 5
	.loc 1 755 11 is_stmt 0
	lw	a1,12(sp)
	lbu	s1,14(a1)
	addi	s1,s1,-1
	andi	s1,s1,0xff
	.loc 1 755 9
	sb	s1,14(a1)
.LVL64:
	.loc 1 756 5 is_stmt 1
	call	sys_arch_unprotect
.LVL65:
	.loc 1 758 5
	.loc 1 758 8 is_stmt 0
	bne	s1,zero,.L53
	.loc 1 760 7 is_stmt 1
	.loc 1 760 9 is_stmt 0
	lw	a1,12(sp)
	.loc 1 765 10
	lbu	a5,13(a1)
	.loc 1 760 9
	lw	s1,0(a1)
.LVL66:
	.loc 1 761 7 is_stmt 1
	.loc 1 762 7
	.loc 1 765 7
	.loc 1 765 10 is_stmt 0
	andi	a5,a5,2
	beq	a5,zero,.L54
.LBB80:
	.loc 1 766 9 is_stmt 1
.LVL67:
	.loc 1 767 9
	.loc 1 767 14
	.loc 1 767 13
	.loc 1 767 23
	.loc 1 768 9
	lw	a5,16(a1)
	mv	a0,a1
	jalr	a5
.LVL68:
.L55:
.LBE80:
	.loc 1 783 28
	.loc 1 783 38
	.loc 1 786 7
	.loc 1 786 12 is_stmt 0
	addi	s0,s0,1
.LVL69:
	andi	s0,s0,0xff
.LVL70:
	.loc 1 788 7 is_stmt 1
.LBE79:
	.loc 1 745 9
	bne	s1,zero,.L60
.LVL71:
.L53:
.LBE78:
.LBE77:
	.loc 1 800 1 is_stmt 0
	lw	ra,44(sp)
	.cfi_remember_state
	.cfi_restore 1
	mv	a0,s0
	lw	s0,40(sp)
	.cfi_restore 8
	lw	s1,36(sp)
	.cfi_restore 9
	lw	s2,32(sp)
	.cfi_restore 18
	lw	s3,28(sp)
	.cfi_restore 19
	addi	sp,sp,48
	.cfi_def_cfa_offset 0
	jr	ra
.LVL72:
.L60:
	.cfi_restore_state
.LBB83:
.LBB82:
	mv	a1,s1
	j	.L58
.LVL73:
.L54:
.LBB81:
	.loc 1 762 17
	lbu	a5,12(a1)
	.loc 1 774 11
	li	a0,14
	.loc 1 762 17
	andi	a5,a5,15
	.loc 1 773 9 is_stmt 1
	.loc 1 773 12 is_stmt 0
	beq	a5,s2,.L62
	.loc 1 776 16 is_stmt 1
	.loc 1 776 19 is_stmt 0
	bne	a5,s3,.L57
	.loc 1 777 11 is_stmt 1
	li	a0,13
.L62:
	call	memp_free
.LVL74:
	j	.L55
.LVL75:
.L57:
	.loc 1 779 16
	.loc 1 779 19 is_stmt 0
	bne	a5,zero,.L55
	.loc 1 780 11 is_stmt 1
	mv	a0,a1
	call	mem_free
.LVL76:
	j	.L55
.LBE81:
.LBE82:
.LBE83:
	.cfi_endproc
.LFE21:
	.size	pbuf_free, .-pbuf_free
	.section	.text.pbuf_alloc,"ax",@progbits
	.align	1
	.globl	pbuf_alloc
	.type	pbuf_alloc, @function
pbuf_alloc:
.LFB9:
	.loc 1 225 1
	.cfi_startproc
.LVL77:
	.loc 1 226 3
	.loc 1 227 3
	.loc 1 225 1 is_stmt 0
	addi	sp,sp,-32
	.cfi_def_cfa_offset 32
	sw	s1,20(sp)
	sw	s3,12(sp)
	.cfi_offset 9, -12
	.cfi_offset 19, -20
	.loc 1 227 9
	slli	s1,a0,16
	.loc 1 225 1
	sw	ra,28(sp)
	sw	s0,24(sp)
	sw	s2,16(sp)
	sw	s4,8(sp)
	sw	s5,4(sp)
	.cfi_offset 1, -4
	.cfi_offset 8, -8
	.cfi_offset 18, -16
	.cfi_offset 20, -24
	.cfi_offset 21, -28
	.loc 1 230 3
	li	a4,386
	.loc 1 225 1
	mv	s3,a1
	.loc 1 227 9
	srli	s1,s1,16
.LVL78:
	.loc 1 228 3 is_stmt 1
	.loc 1 230 3
	beq	a2,a4,.L77
	bgtu	a2,a4,.L65
	andi	a5,a2,-65
	li	a4,1
	beq	a5,a4,.L66
.LVL79:
.L88:
.LBB93:
.LBB94:
	.loc 1 251 17 is_stmt 0
	li	s0,0
.L63:
.LBE94:
.LBE93:
	.loc 1 300 1
	lw	ra,28(sp)
	.cfi_remember_state
	.cfi_restore 1
	mv	a0,s0
	lw	s0,24(sp)
	.cfi_restore 8
	lw	s1,20(sp)
	.cfi_restore 9
	lw	s2,16(sp)
	.cfi_restore 18
	lw	s3,12(sp)
	.cfi_restore 19
	lw	s4,8(sp)
	.cfi_restore 20
	lw	s5,4(sp)
	.cfi_restore 21
	addi	sp,sp,32
	.cfi_def_cfa_offset 0
	jr	ra
.LVL80:
.L65:
	.cfi_restore_state
	.loc 1 230 3
	li	a4,640
	bne	a2,a4,.L88
.LBB110:
	.loc 1 274 50
	addi	s1,s1,3
.LVL81:
	.loc 1 274 85
	addi	a5,a1,3
	.loc 1 274 56
	andi	s1,s1,-4
.LVL82:
	.loc 1 274 91
	andi	a5,a5,-4
	.loc 1 274 13
	add	s1,s1,a5
	slli	s1,s1,16
	srli	s1,s1,16
	mv	s2,a0
	.loc 1 274 7 is_stmt 1
.LVL83:
	.loc 1 275 7
	.loc 1 275 18 is_stmt 0
	addi	a0,s1,16
.LVL84:
	slli	a0,a0,16
	srli	a0,a0,16
.LVL85:
	.loc 1 278 7 is_stmt 1
	.loc 1 278 10 is_stmt 0
	bltu	s1,a5,.L88
	.loc 1 278 60 discriminator 1
	bgtu	a5,a0,.L88
	.loc 1 284 7 is_stmt 1
	.loc 1 284 26 is_stmt 0
	call	mem_malloc
.LVL86:
	mv	s0,a0
.LVL87:
	.loc 1 285 7 is_stmt 1
	.loc 1 285 10 is_stmt 0
	beq	a0,zero,.L63
	.loc 1 288 7 is_stmt 1
.LVL88:
.LBB111:
.LBB112:
	.loc 1 181 3
.LBE112:
.LBE111:
	.loc 1 288 123 is_stmt 0
	slli	s2,s2,16
.LVL89:
	srli	s2,s2,16
	.loc 1 288 56
	add	s2,a0,s2
	.loc 1 288 138
	addi	s2,s2,19
.LBB115:
.LBB113:
	.loc 1 185 20
	li	a5,65536
.LBE113:
.LBE115:
	.loc 1 288 143
	andi	s2,s2,-4
.LBB116:
.LBB114:
	.loc 1 185 20
	addi	a5,a5,128
	.loc 1 181 11
	sw	zero,0(a0)
	.loc 1 182 3 is_stmt 1
	.loc 1 182 14 is_stmt 0
	sw	s2,4(a0)
	.loc 1 183 3 is_stmt 1
	.loc 1 183 14 is_stmt 0
	sh	s3,8(a0)
	.loc 1 184 3 is_stmt 1
	.loc 1 184 10 is_stmt 0
	sh	s3,10(a0)
	.loc 1 185 3 is_stmt 1
	.loc 1 186 3
	.loc 1 187 3
	.loc 1 188 3
	.loc 1 185 20 is_stmt 0
	sw	a5,12(a0)
.LVL90:
.LBE114:
.LBE116:
	.loc 1 290 7 is_stmt 1
	.loc 1 290 12
	.loc 1 290 55
	.loc 1 290 65
	.loc 1 292 7
	j	.L63
.LVL91:
.L66:
.LBE110:
	.loc 1 233 7
	.loc 1 300 1 is_stmt 0
	lw	s0,24(sp)
	.cfi_remember_state
	.cfi_restore 8
	lw	ra,28(sp)
	.cfi_restore 1
	lw	s1,20(sp)
	.cfi_restore 9
.LVL92:
	lw	s2,16(sp)
	.cfi_restore 18
	lw	s3,12(sp)
	.cfi_restore 19
	lw	s4,8(sp)
	.cfi_restore 20
	lw	s5,4(sp)
	.cfi_restore 21
	.loc 1 233 11
	li	a0,0
.LVL93:
	.loc 1 300 1
	addi	sp,sp,32
	.cfi_def_cfa_offset 0
	.loc 1 233 11
	tail	pbuf_alloc_reference
.LVL94:
.L77:
	.cfi_restore_state
.LBB117:
.LBB105:
.LBB95:
.LBB96:
	.loc 1 185 20
	li	s2,65536
.LBE96:
.LBE95:
.LBE105:
.LBE117:
	.loc 1 230 3
	li	a0,0
.LVL95:
	li	s0,0
.LBB118:
.LBB106:
	.loc 1 253 31
	li	s4,760
.LBB100:
.LBB97:
	.loc 1 185 20
	addi	s2,s2,130
.LVL96:
.L64:
.LBE97:
.LBE100:
.LBE106:
	.loc 1 241 7 is_stmt 1
.LBB107:
	.loc 1 242 9
	.loc 1 243 9
	mv	s5,a0
	.loc 1 243 28 is_stmt 0
	li	a0,14
.LVL97:
	call	memp_malloc
.LVL98:
	.loc 1 244 9 is_stmt 1
	.loc 1 244 12 is_stmt 0
	bne	a0,zero,.L69
	.loc 1 245 11 is_stmt 1
.LBB101:
.LBB102:
	.loc 1 162 3
	.loc 1 163 3
	.loc 1 164 3
	.loc 1 165 10 is_stmt 0
	lui	s1,%hi(pbuf_free_ooseq_pending)
.LVL99:
	.loc 1 164 15
	call	sys_arch_protect
.LVL100:
	.loc 1 165 3 is_stmt 1
	.loc 1 165 10 is_stmt 0
	lbu	s2,%lo(pbuf_free_ooseq_pending)(s1)
	.loc 1 166 27
	li	a5,1
	sb	a5,%lo(pbuf_free_ooseq_pending)(s1)
	.loc 1 165 10
	andi	s2,s2,0xff
.LVL101:
	.loc 1 166 3 is_stmt 1
	.loc 1 167 3
	call	sys_arch_unprotect
.LVL102:
	.loc 1 169 3
	.loc 1 169 6 is_stmt 0
	bne	s2,zero,.L71
	.loc 1 171 5 is_stmt 1
	.loc 1 171 10
	.loc 1 171 14 is_stmt 0
	lui	a0,%hi(pbuf_free_ooseq_callback)
	li	a1,0
	addi	a0,a0,%lo(pbuf_free_ooseq_callback)
	call	tcpip_try_callback
.LVL103:
	.loc 1 171 13
	beq	a0,zero,.L71
	.loc 1 171 19 is_stmt 1
	.loc 1 171 31 is_stmt 0
	call	sys_arch_protect
.LVL104:
	.loc 1 171 51 is_stmt 1
	.loc 1 171 75 is_stmt 0
	sb	zero,%lo(pbuf_free_ooseq_pending)(s1)
	.loc 1 171 80 is_stmt 1
	call	sys_arch_unprotect
.LVL105:
.L71:
	.loc 1 171 120
.LBE102:
.LBE101:
	.loc 1 247 11
	.loc 1 247 14 is_stmt 0
	beq	s0,zero,.L88
	.loc 1 248 13 is_stmt 1
	mv	a0,s0
	call	pbuf_free
.LVL106:
	j	.L88
.LVL107:
.L69:
	.loc 1 253 9
	.loc 1 253 86 is_stmt 0
	addi	a5,s1,3
	.loc 1 253 92
	andi	a5,a5,-4
	.loc 1 253 31
	sub	a5,s4,a5
	.loc 1 253 14
	mv	a4,a5
	slli	a5,a5,16
	srli	a5,a5,16
	bleu	a5,s3,.L74
	mv	a4,s3
.L74:
	.loc 1 254 58
	add	s1,a0,s1
.LVL108:
	.loc 1 254 140
	addi	s1,s1,19
	.loc 1 254 145
	andi	s1,s1,-4
	.loc 1 253 14
	slli	a1,a4,16
.LBB103:
.LBB98:
	.loc 1 181 11
	sw	zero,0(a0)
	.loc 1 182 14
	sw	s1,4(a0)
	.loc 1 183 14
	sh	s3,8(a0)
	.loc 1 184 10
	sh	a4,10(a0)
	.loc 1 185 20
	sw	s2,12(a0)
.LBE98:
.LBE103:
	.loc 1 253 14
	srli	a1,a1,16
.LVL109:
	.loc 1 254 9 is_stmt 1
.LBB104:
.LBB99:
	.loc 1 181 3
	.loc 1 182 3
	.loc 1 183 3
	.loc 1 184 3
	.loc 1 185 3
	.loc 1 186 3
	.loc 1 187 3
	.loc 1 188 3
.LBE99:
.LBE104:
	.loc 1 256 9
	.loc 1 256 14
	.loc 1 256 57
	.loc 1 256 67
	.loc 1 258 9
	.loc 1 258 14
	.loc 1 258 95
	.loc 1 258 105
	.loc 1 260 9
	.loc 1 260 12 is_stmt 0
	beq	s0,zero,.L78
	.loc 1 265 11 is_stmt 1
	.loc 1 265 22 is_stmt 0
	sw	a0,0(s5)
.LVL110:
.L75:
	.loc 1 267 9 is_stmt 1
	.loc 1 268 9
	.loc 1 268 17 is_stmt 0
	sub	s3,s3,a1
.LVL111:
	slli	s3,s3,16
	srli	s3,s3,16
.LVL112:
	.loc 1 269 9 is_stmt 1
.LBE107:
	.loc 1 270 15
.LBB108:
	.loc 1 269 16 is_stmt 0
	li	s1,0
.LBE108:
	.loc 1 270 7
	bne	s3,zero,.L64
	j	.L63
.LVL113:
.L78:
.LBB109:
	mv	s0,a0
.LVL114:
	j	.L75
.LBE109:
.LBE118:
	.cfi_endproc
.LFE9:
	.size	pbuf_alloc, .-pbuf_alloc
	.section	.text.pbuf_realloc,"ax",@progbits
	.align	1
	.globl	pbuf_realloc
	.type	pbuf_realloc, @function
pbuf_realloc:
.LFB12:
	.loc 1 403 1 is_stmt 1
	.cfi_startproc
.LVL115:
	.loc 1 404 3
	.loc 1 405 3
	.loc 1 406 3
	.loc 1 408 3
	.loc 1 408 8
	.loc 1 408 7
	.loc 1 408 17
	.loc 1 411 3
	.loc 1 411 19 is_stmt 0
	lhu	a5,8(a0)
	.loc 1 411 6
	bleu	a5,a1,.L99
	.loc 1 403 1
	addi	sp,sp,-16
	.cfi_def_cfa_offset 16
	sw	s0,8(sp)
	sw	s1,4(sp)
	sw	ra,12(sp)
	.cfi_offset 8, -8
	.cfi_offset 9, -12
	.cfi_offset 1, -4
	mv	s0,a0
	mv	s1,a1
	.loc 1 428 18
	sub	a5,a1,a5
.LVL116:
.L91:
	.loc 1 431 9 is_stmt 1 discriminator 1
	.loc 1 431 19 discriminator 1
	.loc 1 424 9 discriminator 1
	.loc 1 424 21 is_stmt 0 discriminator 1
	lhu	a1,10(s0)
	.loc 1 424 9 discriminator 1
	bltu	a1,s1,.L92
	.loc 1 438 3 is_stmt 1
	.loc 1 438 6 is_stmt 0
	lbu	a5,12(s0)
	andi	a5,a5,15
	bne	a5,zero,.L93
	.loc 1 438 56 discriminator 1
	beq	a1,s1,.L93
	.loc 1 440 7
	lbu	a5,13(s0)
	andi	a5,a5,2
	bne	a5,zero,.L93
	.loc 1 444 5 is_stmt 1
	.loc 1 444 69 is_stmt 0
	lw	a1,4(s0)
	.loc 1 444 24
	mv	a0,s0
.LVL117:
	.loc 1 444 69
	sub	a1,a1,s0
	.loc 1 444 24
	add	a1,s1,a1
	slli	a1,a1,16
	srli	a1,a1,16
	call	mem_trim
.LVL118:
	mv	s0,a0
.LVL119:
	.loc 1 445 5 is_stmt 1
	.loc 1 445 10
.L93:
	.loc 1 445 9 discriminator 1
	.loc 1 445 19 discriminator 1
	.loc 1 448 3 discriminator 1
	.loc 1 452 8 is_stmt 0 discriminator 1
	lw	a0,0(s0)
	.loc 1 448 10 discriminator 1
	sh	s1,10(s0)
	.loc 1 449 3 is_stmt 1 discriminator 1
	.loc 1 449 14 is_stmt 0 discriminator 1
	sh	s1,8(s0)
	.loc 1 452 3 is_stmt 1 discriminator 1
	.loc 1 452 6 is_stmt 0 discriminator 1
	beq	a0,zero,.L94
	.loc 1 454 5 is_stmt 1
	call	pbuf_free
.LVL120:
.L94:
	.loc 1 457 3
	.loc 1 457 11 is_stmt 0
	sw	zero,0(s0)
	.loc 1 459 1
	lw	ra,12(sp)
	.cfi_remember_state
	.cfi_restore 1
	lw	s0,8(sp)
	.cfi_restore 8
.LVL121:
	lw	s1,4(sp)
	.cfi_restore 9
.LVL122:
	addi	sp,sp,16
	.cfi_def_cfa_offset 0
	jr	ra
.LVL123:
.L92:
	.cfi_restore_state
	.loc 1 426 5 is_stmt 1
	.loc 1 428 18 is_stmt 0
	lhu	a4,8(s0)
	.loc 1 426 13
	sub	s1,s1,a1
.LVL124:
	slli	s1,s1,16
	.loc 1 428 18
	add	a4,a5,a4
	.loc 1 428 16
	sh	a4,8(s0)
	.loc 1 426 13
	srli	s1,s1,16
.LVL125:
	.loc 1 428 5 is_stmt 1
	.loc 1 430 5
	.loc 1 430 7 is_stmt 0
	lw	s0,0(s0)
.LVL126:
	.loc 1 431 5 is_stmt 1
	.loc 1 431 10
	j	.L91
.LVL127:
.L99:
	.cfi_def_cfa_offset 0
	.cfi_restore 1
	.cfi_restore 8
	.cfi_restore 9
	ret
	.cfi_endproc
.LFE12:
	.size	pbuf_realloc, .-pbuf_realloc
	.section	.text.pbuf_free_header,"ax",@progbits
	.align	1
	.globl	pbuf_free_header
	.type	pbuf_free_header, @function
pbuf_free_header:
.LFB20:
	.loc 1 672 1
	.cfi_startproc
.LVL128:
	.loc 1 673 3
	.loc 1 674 3
	.loc 1 675 3
	.loc 1 672 1 is_stmt 0
	addi	sp,sp,-32
	.cfi_def_cfa_offset 32
	sw	s0,24(sp)
	sw	ra,28(sp)
	sw	s1,20(sp)
	.cfi_offset 8, -8
	.cfi_offset 1, -4
	.cfi_offset 9, -12
	.loc 1 673 16
	mv	s0,a0
.LVL129:
.L103:
	.loc 1 675 9 is_stmt 1
	beq	a1,zero,.L102
	.loc 1 675 20 is_stmt 0 discriminator 1
	beq	s0,zero,.L102
	.loc 1 676 5 is_stmt 1
	.loc 1 676 23 is_stmt 0
	lhu	a5,10(s0)
	.loc 1 676 8
	bgtu	a5,a1,.L104
.LBB119:
	.loc 1 677 7 is_stmt 1
.LVL130:
	.loc 1 678 7
	.loc 1 678 17 is_stmt 0
	sub	a1,a1,a5
.LVL131:
	.loc 1 679 9
	lw	s1,0(s0)
	.loc 1 678 17
	slli	a1,a1,16
	srli	a1,a1,16
	.loc 1 680 15
	sw	zero,0(s0)
	.loc 1 681 7
	mv	a0,s0
	.loc 1 678 17
	sw	a1,12(sp)
.LVL132:
	.loc 1 679 7 is_stmt 1
	.loc 1 680 7
	.loc 1 681 7
	call	pbuf_free
.LVL133:
.LBE119:
	lw	a1,12(sp)
.LBB120:
	.loc 1 679 9 is_stmt 0
	mv	s0,s1
.LVL134:
.LBE120:
	j	.L103
.LVL135:
.L104:
	.loc 1 683 7 is_stmt 1
	mv	a0,s0
	call	pbuf_remove_header
.LVL136:
	.loc 1 684 7
	.loc 1 675 9
.L102:
	.loc 1 688 1 is_stmt 0
	lw	ra,28(sp)
	.cfi_restore 1
	mv	a0,s0
	lw	s0,24(sp)
	.cfi_restore 8
.LVL137:
	lw	s1,20(sp)
	.cfi_restore 9
	addi	sp,sp,32
	.cfi_def_cfa_offset 0
	jr	ra
	.cfi_endproc
.LFE20:
	.size	pbuf_free_header, .-pbuf_free_header
	.section	.text.pbuf_clen,"ax",@progbits
	.align	1
	.globl	pbuf_clen
	.type	pbuf_clen, @function
pbuf_clen:
.LFB22:
	.loc 1 810 1 is_stmt 1
	.cfi_startproc
.LVL138:
	.loc 1 811 3
	.loc 1 813 3
	.loc 1 814 3
	.loc 1 810 1 is_stmt 0
	mv	a5,a0
	.loc 1 813 7
	li	a0,0
.LVL139:
.L112:
	.loc 1 814 9 is_stmt 1
	bne	a5,zero,.L113
	.loc 1 818 3
	.loc 1 819 1 is_stmt 0
	ret
.L113:
	.loc 1 815 5 is_stmt 1
	addi	a0,a0,1
.LVL140:
	slli	a0,a0,16
	.loc 1 816 7 is_stmt 0
	lw	a5,0(a5)
.LVL141:
	.loc 1 815 5
	srli	a0,a0,16
.LVL142:
	.loc 1 816 5 is_stmt 1
	j	.L112
	.cfi_endproc
.LFE22:
	.size	pbuf_clen, .-pbuf_clen
	.section	.text.pbuf_ref,"ax",@progbits
	.align	1
	.globl	pbuf_ref
	.type	pbuf_ref, @function
pbuf_ref:
.LFB23:
	.loc 1 830 1
	.cfi_startproc
.LVL143:
	.loc 1 832 3
	.loc 1 832 6 is_stmt 0
	beq	a0,zero,.L114
	.loc 1 830 1
	addi	sp,sp,-16
	.cfi_def_cfa_offset 16
	sw	s0,8(sp)
	sw	ra,12(sp)
	.cfi_offset 8, -8
	.cfi_offset 1, -4
	mv	s0,a0
.LVL144:
.LBB124:
.LBB125:
	.loc 1 833 5 is_stmt 1
.LBB126:
	.loc 1 833 10
	.loc 1 833 32
	.loc 1 833 44 is_stmt 0
	call	sys_arch_protect
.LVL145:
	.loc 1 833 64 is_stmt 1
	.loc 1 833 73 is_stmt 0
	lbu	a5,14(s0)
	addi	a5,a5,1
	.loc 1 833 71
	sb	a5,14(s0)
	.loc 1 833 93 is_stmt 1
.LBE126:
.LBE125:
.LBE124:
	.loc 1 836 1 is_stmt 0
	lw	s0,8(sp)
	.cfi_restore 8
.LVL146:
	lw	ra,12(sp)
	.cfi_restore 1
	addi	sp,sp,16
	.cfi_def_cfa_offset 0
.LBB129:
.LBB128:
.LBB127:
	.loc 1 833 93
	tail	sys_arch_unprotect
.LVL147:
.L114:
	ret
.LBE127:
.LBE128:
.LBE129:
	.cfi_endproc
.LFE23:
	.size	pbuf_ref, .-pbuf_ref
	.section	.text.pbuf_cat,"ax",@progbits
	.align	1
	.globl	pbuf_cat
	.type	pbuf_cat, @function
pbuf_cat:
.LFB24:
	.loc 1 854 1 is_stmt 1
	.cfi_startproc
.LVL148:
	.loc 1 855 3
	.loc 1 857 3
	.loc 1 857 8
	.loc 1 857 11 is_stmt 0
	beq	a0,zero,.L119
	.loc 1 857 12 discriminator 2
	bne	a1,zero,.L121
	ret
.LVL149:
.L122:
.LBB132:
.LBB133:
	.loc 1 863 5 is_stmt 1
	.loc 1 861 31
	.loc 1 863 16 is_stmt 0
	mv	a0,a4
.LVL150:
.L121:
	.loc 1 861 15 is_stmt 1
	.loc 1 863 18 is_stmt 0
	lhu	a5,8(a0)
	lhu	a3,8(a1)
	.loc 1 861 16
	lw	a4,0(a0)
	.loc 1 863 18
	add	a5,a5,a3
	slli	a5,a5,16
	srli	a5,a5,16
	.loc 1 863 16
	sh	a5,8(a0)
	.loc 1 861 3
	bne	a4,zero,.L122
	.loc 1 866 3 is_stmt 1
	.loc 1 866 8
	.loc 1 866 39
	.loc 1 866 49
	.loc 1 867 3
	.loc 1 867 8
	.loc 1 867 7
	.loc 1 867 17
	.loc 1 869 3
	.loc 1 871 3
	.loc 1 871 11 is_stmt 0
	sw	a1,0(a0)
.LVL151:
.L119:
.LBE133:
.LBE132:
	.loc 1 875 1
	ret
	.cfi_endproc
.LFE24:
	.size	pbuf_cat, .-pbuf_cat
	.section	.text.pbuf_chain,"ax",@progbits
	.align	1
	.globl	pbuf_chain
	.type	pbuf_chain, @function
pbuf_chain:
.LFB25:
	.loc 1 896 1 is_stmt 1
	.cfi_startproc
.LVL152:
	.loc 1 897 3
	.loc 1 896 1 is_stmt 0
	addi	sp,sp,-16
	.cfi_def_cfa_offset 16
	sw	s0,8(sp)
	sw	ra,12(sp)
	.cfi_offset 8, -8
	.cfi_offset 1, -4
	.loc 1 896 1
	mv	s0,a1
	.loc 1 897 3
	call	pbuf_cat
.LVL153:
	.loc 1 899 3 is_stmt 1
	mv	a0,s0
	.loc 1 901 1 is_stmt 0
	lw	s0,8(sp)
	.cfi_restore 8
.LVL154:
	lw	ra,12(sp)
	.cfi_restore 1
	addi	sp,sp,16
	.cfi_def_cfa_offset 0
	.loc 1 899 3
	tail	pbuf_ref
.LVL155:
	.cfi_endproc
.LFE25:
	.size	pbuf_chain, .-pbuf_chain
	.section	.text.pbuf_dechain,"ax",@progbits
	.align	1
	.globl	pbuf_dechain
	.type	pbuf_dechain, @function
pbuf_dechain:
.LFB26:
	.loc 1 913 1 is_stmt 1
	.cfi_startproc
.LVL156:
	.loc 1 914 3
	.loc 1 915 3
	.loc 1 917 3
	.loc 1 913 1 is_stmt 0
	addi	sp,sp,-16
	.cfi_def_cfa_offset 16
	sw	ra,12(sp)
	sw	s0,8(sp)
	.cfi_offset 1, -4
	.cfi_offset 8, -8
	.loc 1 917 5
	lw	s0,0(a0)
.LVL157:
	.loc 1 919 3 is_stmt 1
	.loc 1 919 6 is_stmt 0
	beq	s0,zero,.L132
	.loc 1 921 5 is_stmt 1
	.loc 1 921 10
	.loc 1 921 54
	.loc 1 921 64
	.loc 1 923 5
	.loc 1 923 18 is_stmt 0
	lhu	a5,8(a0)
	lhu	a4,10(a0)
	sub	a5,a5,a4
	.loc 1 923 16
	sh	a5,8(s0)
	.loc 1 925 5 is_stmt 1
	.loc 1 927 16 is_stmt 0
	lhu	a5,10(a0)
	.loc 1 925 13
	sw	zero,0(a0)
	.loc 1 927 5 is_stmt 1
	.loc 1 927 16 is_stmt 0
	sh	a5,8(a0)
	.loc 1 929 5 is_stmt 1
	.loc 1 930 5
	.loc 1 930 17 is_stmt 0
	mv	a0,s0
.LVL158:
	call	pbuf_free
.LVL159:
	.loc 1 931 5 is_stmt 1
	.loc 1 933 97
	.loc 1 938 3
	.loc 1 938 8
	.loc 1 938 39
	.loc 1 938 49
	.loc 1 939 3
	.loc 1 939 33 is_stmt 0
	beq	a0,zero,.L131
.LVL160:
.L132:
	li	s0,0
.LVL161:
.L131:
	.loc 1 940 1
	lw	ra,12(sp)
	.cfi_restore 1
	mv	a0,s0
	lw	s0,8(sp)
	.cfi_restore 8
	addi	sp,sp,16
	.cfi_def_cfa_offset 0
	jr	ra
	.cfi_endproc
.LFE26:
	.size	pbuf_dechain, .-pbuf_dechain
	.section	.text.pbuf_copy,"ax",@progbits
	.align	1
	.globl	pbuf_copy
	.type	pbuf_copy, @function
pbuf_copy:
.LFB27:
	.loc 1 962 1 is_stmt 1
	.cfi_startproc
.LVL162:
	.loc 1 963 3
	.loc 1 966 57
	.loc 1 969 3
	.loc 1 969 8
	.loc 1 969 11 is_stmt 0
	beq	a0,zero,.L166
	.loc 1 962 1 discriminator 2
	addi	sp,sp,-32
	.cfi_def_cfa_offset 32
	sw	s0,24(sp)
	sw	ra,28(sp)
	sw	s1,20(sp)
	sw	s2,16(sp)
	sw	s3,12(sp)
	sw	s4,8(sp)
	.cfi_offset 8, -8
	.cfi_offset 1, -4
	.cfi_offset 9, -12
	.cfi_offset 18, -16
	.cfi_offset 19, -20
	.cfi_offset 20, -24
	mv	s0,a1
	.loc 1 969 4 discriminator 2
	beq	a1,zero,.L142
	.loc 1 969 12 discriminator 4
	lhu	a4,8(a0)
	lhu	a5,8(a1)
	mv	s1,a0
	bltu	a4,a5,.L142
.LBB136:
.LBB137:
	.loc 1 963 25
	li	s4,0
	.loc 1 963 10
	li	s3,0
.LVL163:
.L149:
	.loc 1 969 64 is_stmt 1
	.loc 1 969 73
	.loc 1 973 3
	.loc 1 975 5
	.loc 1 975 14 is_stmt 0
	lhu	s2,10(s1)
	.loc 1 975 43
	lhu	a5,10(s0)
	sub	s2,s2,s3
	.loc 1 975 49
	sub	a5,a5,s4
	bleu	s2,a5,.L143
	mv	s2,a5
.L143:
.LVL164:
	.loc 1 982 5 is_stmt 1
	lw	a1,4(s0)
	lw	a0,4(s1)
	mv	a2,s2
	add	a1,a1,s4
	add	a0,a0,s3
	call	memcpy
.LVL165:
	.loc 1 983 5
	.loc 1 986 37 is_stmt 0
	lhu	a4,10(s0)
	.loc 1 984 17
	add	s4,s4,s2
.LVL166:
	.loc 1 985 33
	lhu	a5,10(s1)
	.loc 1 983 15
	add	s3,s3,s2
.LVL167:
	.loc 1 984 5 is_stmt 1
	.loc 1 985 5
	.loc 1 985 10
	.loc 1 985 43
	.loc 1 985 53
	.loc 1 986 5
	.loc 1 986 10
	.loc 1 986 47
	.loc 1 986 57
	.loc 1 987 5
	.loc 1 987 8 is_stmt 0
	bltu	s4,a4,.L144
	.loc 1 989 7 is_stmt 1
.LVL168:
	.loc 1 990 7
	.loc 1 990 14 is_stmt 0
	lw	s0,0(s0)
.LVL169:
	.loc 1 989 19
	li	s4,0
.LVL170:
.L144:
	.loc 1 992 5 is_stmt 1
	.loc 1 992 8 is_stmt 0
	bne	s3,a5,.L145
	.loc 1 994 7 is_stmt 1
.LVL171:
	.loc 1 995 7
	.loc 1 995 12 is_stmt 0
	lw	s1,0(s1)
.LVL172:
	.loc 1 996 7 is_stmt 1
	.loc 1 996 12
	.loc 1 996 15 is_stmt 0
	bne	s1,zero,.L150
	.loc 1 1011 10
	li	a0,0
	.loc 1 996 16
	beq	s0,zero,.L146
.LVL173:
.L142:
	.loc 1 996 21
	li	a0,-16
.L146:
.LBE137:
.LBE136:
	.loc 1 1012 1
	lw	ra,28(sp)
	.cfi_remember_state
	.cfi_restore 1
	lw	s0,24(sp)
	.cfi_restore 8
	lw	s1,20(sp)
	.cfi_restore 9
	lw	s2,16(sp)
	.cfi_restore 18
	lw	s3,12(sp)
	.cfi_restore 19
	lw	s4,8(sp)
	.cfi_restore 20
	addi	sp,sp,32
	.cfi_def_cfa_offset 0
	jr	ra
.LVL174:
.L150:
	.cfi_restore_state
.LBB139:
.LBB138:
	.loc 1 994 17
	li	s3,0
.LVL175:
.L145:
	.loc 1 996 29 is_stmt 1
	.loc 1 996 38
	.loc 1 999 5
	.loc 1 999 8 is_stmt 0
	beq	s0,zero,.L147
	.loc 1 999 25
	lhu	a4,10(s0)
	lhu	a5,8(s0)
	bne	a4,a5,.L147
	.loc 1 1001 7 is_stmt 1
	.loc 1 1001 12
	.loc 1 1001 15 is_stmt 0
	lw	a5,0(s0)
	bne	a5,zero,.L153
.L147:
.LVL176:
	.loc 1 1004 23
	lhu	a4,10(s1)
	lhu	a5,8(s1)
	bne	a4,a5,.L148
	.loc 1 1006 7 is_stmt 1
	.loc 1 1006 12
	.loc 1 1006 15 is_stmt 0
	lw	a5,0(s1)
	bne	a5,zero,.L153
.L148:
	.loc 1 1006 29 is_stmt 1
	.loc 1 1006 38
	.loc 1 1009 11
	.loc 1 1009 3 is_stmt 0
	bne	s0,zero,.L149
	.loc 1 1011 10
	li	a0,0
	j	.L146
.L153:
	.loc 1 1001 21
	li	a0,-6
	j	.L146
.LVL177:
.L166:
	.cfi_def_cfa_offset 0
	.cfi_restore 1
	.cfi_restore 8
	.cfi_restore 9
	.cfi_restore 18
	.cfi_restore 19
	.cfi_restore 20
	.loc 1 996 21
	li	a0,-16
.LVL178:
.LBE138:
.LBE139:
	.loc 1 1012 1
	ret
	.cfi_endproc
.LFE27:
	.size	pbuf_copy, .-pbuf_copy
	.section	.text.pbuf_copy_partial,"ax",@progbits
	.align	1
	.globl	pbuf_copy_partial
	.type	pbuf_copy_partial, @function
pbuf_copy_partial:
.LFB28:
	.loc 1 1028 1 is_stmt 1
	.cfi_startproc
.LVL179:
	.loc 1 1029 3
	.loc 1 1030 3
	.loc 1 1031 3
	.loc 1 1032 3
	.loc 1 1034 3
	.loc 1 1034 8
	.loc 1 1028 1 is_stmt 0
	addi	sp,sp,-32
	.cfi_def_cfa_offset 32
	sw	s1,20(sp)
	sw	ra,28(sp)
	sw	s0,24(sp)
	sw	s2,16(sp)
	sw	s3,12(sp)
	sw	s4,8(sp)
	.cfi_offset 9, -12
	.cfi_offset 1, -4
	.cfi_offset 8, -8
	.cfi_offset 18, -16
	.cfi_offset 19, -20
	.cfi_offset 20, -24
	.loc 1 1034 17
	li	s1,0
	.loc 1 1034 11
	beq	a0,zero,.L170
	mv	s4,a1
	.loc 1 1034 19 is_stmt 1 discriminator 2
	.loc 1 1034 28 discriminator 2
	.loc 1 1035 3 discriminator 2
	.loc 1 1035 8 discriminator 2
	.loc 1 1034 17 is_stmt 0 discriminator 2
	li	s1,0
	.loc 1 1035 11 discriminator 2
	beq	a1,zero,.L170
	mv	s2,a0
	mv	s0,a2
.LVL180:
.L171:
.LBB142:
.LBB143:
	.loc 1 1038 17 is_stmt 1
	.loc 1 1038 3 is_stmt 0
	beq	s0,zero,.L170
	.loc 1 1038 26
	bne	s2,zero,.L175
.LVL181:
.L170:
.LBE143:
.LBE142:
	.loc 1 1057 1
	lw	ra,28(sp)
	.cfi_remember_state
	.cfi_restore 1
	lw	s0,24(sp)
	.cfi_restore 8
	lw	s2,16(sp)
	.cfi_restore 18
	lw	s3,12(sp)
	.cfi_restore 19
	lw	s4,8(sp)
	.cfi_restore 20
	mv	a0,s1
	lw	s1,20(sp)
	.cfi_restore 9
	addi	sp,sp,32
	.cfi_def_cfa_offset 0
	jr	ra
.LVL182:
.L175:
	.cfi_restore_state
.LBB145:
.LBB144:
	.loc 1 1039 5 is_stmt 1
	.loc 1 1039 38 is_stmt 0
	lhu	a5,10(s2)
	.loc 1 1039 8
	beq	a3,zero,.L172
	.loc 1 1039 23
	bltu	a3,a5,.L172
	.loc 1 1041 7 is_stmt 1
	.loc 1 1041 14 is_stmt 0
	sub	a3,a3,a5
.LVL183:
	slli	a3,a3,16
	srli	a3,a3,16
.LVL184:
.L173:
	.loc 1 1038 39 is_stmt 1
	.loc 1 1038 41 is_stmt 0
	lw	s2,0(s2)
.LVL185:
	j	.L171
.L172:
	.loc 1 1044 7 is_stmt 1
	.loc 1 1044 20 is_stmt 0
	sub	a5,a5,a3
	slli	a5,a5,16
	srli	a5,a5,16
.LVL186:
	.loc 1 1045 7 is_stmt 1
	mv	s3,a5
	bleu	a5,s0,.L174
	mv	s3,s0
.L174:
	.loc 1 1049 7 is_stmt 0
	lw	a1,4(s2)
	slli	s3,s3,16
	srli	s3,s3,16
.LVL187:
	.loc 1 1049 7 is_stmt 1
	add	a1,a1,a3
	add	a0,s4,s1
	mv	a2,s3
	.loc 1 1050 20 is_stmt 0
	add	s1,s3,s1
.LVL188:
	.loc 1 1052 11
	sub	s0,s0,s3
.LVL189:
	.loc 1 1049 7
	call	memcpy
.LVL190:
	.loc 1 1050 7 is_stmt 1
	.loc 1 1050 20 is_stmt 0
	slli	s1,s1,16
	.loc 1 1052 11
	slli	s0,s0,16
	.loc 1 1050 20
	srli	s1,s1,16
.LVL191:
	.loc 1 1051 7 is_stmt 1
	.loc 1 1052 7
	.loc 1 1052 11 is_stmt 0
	srli	s0,s0,16
.LVL192:
	.loc 1 1053 7 is_stmt 1
	.loc 1 1053 14 is_stmt 0
	li	a3,0
	j	.L173
.LBE144:
.LBE145:
	.cfi_endproc
.LFE28:
	.size	pbuf_copy_partial, .-pbuf_copy_partial
	.section	.text.pbuf_get_contiguous,"ax",@progbits
	.align	1
	.globl	pbuf_get_contiguous
	.type	pbuf_get_contiguous, @function
pbuf_get_contiguous:
.LFB29:
	.loc 1 1075 1 is_stmt 1
	.cfi_startproc
.LVL193:
	.loc 1 1076 3
	.loc 1 1077 3
	.loc 1 1079 3
	.loc 1 1079 8
	.loc 1 1075 1 is_stmt 0
	addi	sp,sp,-32
	.cfi_def_cfa_offset 32
	sw	ra,28(sp)
	sw	s0,24(sp)
	sw	s1,20(sp)
	.cfi_offset 1, -4
	.cfi_offset 8, -8
	.cfi_offset 9, -12
	.loc 1 1079 11
	bne	a0,zero,.L186
.LVL194:
.L188:
	.loc 1 1079 2
	li	s0,0
.L187:
	.loc 1 1098 1
	lw	ra,28(sp)
	.cfi_remember_state
	.cfi_restore 1
	mv	a0,s0
	lw	s0,24(sp)
	.cfi_restore 8
	lw	s1,20(sp)
	.cfi_restore 9
	addi	sp,sp,32
	.cfi_def_cfa_offset 0
	jr	ra
.LVL195:
.L186:
	.cfi_restore_state
	mv	s0,a1
	.loc 1 1079 3 is_stmt 1 discriminator 2
	.loc 1 1079 12 discriminator 2
	.loc 1 1080 3 discriminator 2
	.loc 1 1080 8 discriminator 2
	.loc 1 1080 11 is_stmt 0 discriminator 2
	beq	a1,zero,.L188
.LVL196:
	mv	s1,a3
	.loc 1 1080 3 is_stmt 1 discriminator 2
	.loc 1 1080 12 discriminator 2
	.loc 1 1081 3 discriminator 2
	.loc 1 1081 8 discriminator 2
	.loc 1 1081 11 is_stmt 0 discriminator 2
	bgtu	a3,a2,.L188
	mv	a1,a4
	.loc 1 1081 3 is_stmt 1 discriminator 2
	.loc 1 1081 12 discriminator 2
	.loc 1 1083 3 discriminator 2
	.loc 1 1083 7 is_stmt 0 discriminator 2
	addi	a2,sp,14
.LVL197:
	call	pbuf_skip_const
.LVL198:
	.loc 1 1084 3 is_stmt 1 discriminator 2
	.loc 1 1084 6 is_stmt 0 discriminator 2
	beq	a0,zero,.L188
	.loc 1 1085 5 is_stmt 1
	.loc 1 1085 31 is_stmt 0
	lhu	a3,14(sp)
	.loc 1 1085 10
	lhu	a2,10(a0)
	.loc 1 1085 31
	add	a4,a3,s1
	.loc 1 1085 8
	blt	a2,a4,.L189
	.loc 1 1087 7 is_stmt 1
	.loc 1 1087 33 is_stmt 0
	lw	s0,4(a0)
.LVL199:
	add	s0,s0,a3
	j	.L187
.LVL200:
.L189:
	.loc 1 1090 5 is_stmt 1
	.loc 1 1090 9 is_stmt 0
	mv	a2,s1
	mv	a1,s0
	call	pbuf_copy_partial
.LVL201:
	.loc 1 1090 8
	beq	a0,s1,.L187
	j	.L188
	.cfi_endproc
.LFE29:
	.size	pbuf_get_contiguous, .-pbuf_get_contiguous
	.section	.text.pbuf_skip,"ax",@progbits
	.align	1
	.globl	pbuf_skip
	.type	pbuf_skip, @function
pbuf_skip:
.LFB31:
	.loc 1 1179 1 is_stmt 1
	.cfi_startproc
.LVL202:
	.loc 1 1180 3
	.loc 1 1180 28 is_stmt 0
	tail	pbuf_skip_const
.LVL203:
	.cfi_endproc
.LFE31:
	.size	pbuf_skip, .-pbuf_skip
	.section	.text.pbuf_take,"ax",@progbits
	.align	1
	.globl	pbuf_take
	.type	pbuf_take, @function
pbuf_take:
.LFB32:
	.loc 1 1197 1 is_stmt 1
	.cfi_startproc
.LVL204:
	.loc 1 1198 3
	.loc 1 1199 3
	.loc 1 1200 3
	.loc 1 1201 3
	.loc 1 1203 3
	.loc 1 1203 8
	.loc 1 1203 11 is_stmt 0
	beq	a0,zero,.L203
	.loc 1 1197 1 discriminator 2
	addi	sp,sp,-32
	.cfi_def_cfa_offset 32
	sw	s1,20(sp)
	sw	s3,12(sp)
	sw	ra,28(sp)
	sw	s0,24(sp)
	sw	s2,16(sp)
	sw	s4,8(sp)
	.cfi_offset 9, -12
	.cfi_offset 19, -20
	.cfi_offset 1, -4
	.cfi_offset 8, -8
	.cfi_offset 18, -16
	.cfi_offset 20, -24
	mv	s1,a0
	mv	s3,a1
	.loc 1 1203 25 is_stmt 1 discriminator 2
	.loc 1 1203 34 discriminator 2
	.loc 1 1204 3 discriminator 2
	.loc 1 1204 8 discriminator 2
	.loc 1 1203 17 is_stmt 0 discriminator 2
	li	a0,-16
.LVL205:
	.loc 1 1204 11 discriminator 2
	beq	a1,zero,.L199
	.loc 1 1205 11 discriminator 2
	lhu	a5,8(s1)
	mv	s0,a2
	.loc 1 1204 25 is_stmt 1 discriminator 2
	.loc 1 1204 34 discriminator 2
	.loc 1 1205 3 discriminator 2
	.loc 1 1205 8 discriminator 2
	.loc 1 1205 49 is_stmt 0 discriminator 2
	li	a0,-1
	.loc 1 1201 10 discriminator 2
	li	s4,0
	.loc 1 1205 11 discriminator 2
	bgeu	a5,a2,.L200
.LVL206:
.L199:
	.loc 1 1226 1
	lw	ra,28(sp)
	.cfi_remember_state
	.cfi_restore 1
	lw	s0,24(sp)
	.cfi_restore 8
	lw	s1,20(sp)
	.cfi_restore 9
	lw	s2,16(sp)
	.cfi_restore 18
	lw	s3,12(sp)
	.cfi_restore 19
.LVL207:
	lw	s4,8(sp)
	.cfi_restore 20
	addi	sp,sp,32
	.cfi_def_cfa_offset 0
	jr	ra
.LVL208:
.L202:
	.cfi_restore_state
	.loc 1 1213 5 is_stmt 1 discriminator 1
	.loc 1 1213 10 discriminator 1
	.loc 1 1213 9 discriminator 1
	.loc 1 1213 19 discriminator 1
	.loc 1 1214 5 discriminator 1
	.loc 1 1215 5 discriminator 1
	.loc 1 1215 25 is_stmt 0 discriminator 1
	lhu	s2,10(s1)
	bleu	s2,s0,.L201
	mv	s2,s0
.L201:
.LVL209:
	.loc 1 1220 5 is_stmt 1 discriminator 1
	lw	a0,4(s1)
	add	a1,s3,s4
	mv	a2,s2
	call	memcpy
.LVL210:
	.loc 1 1221 5 discriminator 1
	.loc 1 1212 40 is_stmt 0 discriminator 1
	lw	s1,0(s1)
.LVL211:
	.loc 1 1221 20 discriminator 1
	sub	s0,s0,s2
.LVL212:
	.loc 1 1222 5 is_stmt 1 discriminator 1
	.loc 1 1222 18 is_stmt 0 discriminator 1
	add	s4,s4,s2
.LVL213:
	.loc 1 1212 38 is_stmt 1 discriminator 1
.L200:
	.loc 1 1212 17 discriminator 1
	.loc 1 1212 3 is_stmt 0 discriminator 1
	bne	s0,zero,.L202
	.loc 1 1225 10
	li	a0,0
	j	.L199
.LVL214:
.L203:
	.cfi_def_cfa_offset 0
	.cfi_restore 1
	.cfi_restore 8
	.cfi_restore 9
	.cfi_restore 18
	.cfi_restore 19
	.cfi_restore 20
	.loc 1 1203 17
	li	a0,-16
.LVL215:
	.loc 1 1226 1
	ret
	.cfi_endproc
.LFE32:
	.size	pbuf_take, .-pbuf_take
	.section	.text.pbuf_take_at,"ax",@progbits
	.align	1
	.globl	pbuf_take_at
	.type	pbuf_take_at, @function
pbuf_take_at:
.LFB33:
	.loc 1 1241 1 is_stmt 1
	.cfi_startproc
.LVL216:
	.loc 1 1242 3
	.loc 1 1243 3
	.loc 1 1241 1 is_stmt 0
	addi	sp,sp,-48
	.cfi_def_cfa_offset 48
.LVL217:
.LBB146:
.LBB147:
	.loc 1 1180 3 is_stmt 1
.LBE147:
.LBE146:
	.loc 1 1241 1 is_stmt 0
	sw	s0,40(sp)
	sw	s3,28(sp)
	.cfi_offset 8, -8
	.cfi_offset 19, -20
	mv	s0,a2
	mv	s3,a1
.LBB150:
.LBB148:
	.loc 1 1180 28
	addi	a2,sp,14
.LVL218:
	mv	a1,a3
.LVL219:
.LBE148:
.LBE150:
	.loc 1 1241 1
	sw	ra,44(sp)
	sw	s1,36(sp)
	sw	s2,32(sp)
	.cfi_offset 1, -4
	.cfi_offset 9, -12
	.cfi_offset 18, -16
.LBB151:
.LBB149:
	.loc 1 1180 28
	call	pbuf_skip_const
.LVL220:
	.loc 1 1181 3 is_stmt 1
.LBE149:
.LBE151:
	.loc 1 1246 3
	.loc 1 1246 6 is_stmt 0
	beq	a0,zero,.L213
	.loc 1 1246 50 discriminator 1
	lhu	a4,14(sp)
	.loc 1 1246 23 discriminator 1
	lhu	a3,8(a0)
	mv	s1,a0
	.loc 1 1246 50 discriminator 1
	add	a5,a4,s0
	.loc 1 1261 10 discriminator 1
	li	a0,-1
.LVL221:
	.loc 1 1246 18 discriminator 1
	blt	a3,a5,.L211
.LBB152:
	.loc 1 1247 5 is_stmt 1
.LVL222:
	.loc 1 1248 5
	.loc 1 1250 5
	.loc 1 1251 5
	.loc 1 1251 10
	.loc 1 1251 33 is_stmt 0
	lhu	a5,10(s1)
	.loc 1 1251 43 is_stmt 1
	.loc 1 1251 53
	.loc 1 1252 5
	.loc 1 1252 22 is_stmt 0
	mv	s2,s0
	.loc 1 1252 39
	sub	a5,a5,a4
	.loc 1 1252 22
	ble	s0,a5,.L212
	.loc 1 1252 22 discriminator 1
	slli	s2,a5,16
	srli	s2,s2,16
.L212:
.LVL223:
	.loc 1 1253 5 is_stmt 1 discriminator 4
	lw	a0,4(s1)
	mv	a2,s2
	mv	a1,s3
	add	a0,a0,a4
	call	memcpy
.LVL224:
	.loc 1 1254 5 discriminator 4
	.loc 1 1254 19 is_stmt 0 discriminator 4
	sub	a2,s0,s2
	slli	a2,a2,16
	srli	a2,a2,16
.LVL225:
	.loc 1 1255 5 is_stmt 1 discriminator 4
	.loc 1 1256 5 discriminator 4
	.loc 1 1259 12 is_stmt 0 discriminator 4
	li	a0,0
	.loc 1 1256 8 discriminator 4
	beq	a2,zero,.L211
	.loc 1 1257 7 is_stmt 1
	.loc 1 1257 14 is_stmt 0
	lw	a0,0(s1)
	add	a1,s3,s2
.LVL226:
	call	pbuf_take
.LVL227:
.L211:
.LBE152:
	.loc 1 1262 1
	lw	ra,44(sp)
	.cfi_remember_state
	.cfi_restore 1
	lw	s0,40(sp)
	.cfi_restore 8
	lw	s1,36(sp)
	.cfi_restore 9
	lw	s2,32(sp)
	.cfi_restore 18
	lw	s3,28(sp)
	.cfi_restore 19
.LVL228:
	addi	sp,sp,48
	.cfi_def_cfa_offset 0
	jr	ra
.LVL229:
.L213:
	.cfi_restore_state
	.loc 1 1261 10
	li	a0,-1
.LVL230:
	j	.L211
	.cfi_endproc
.LFE33:
	.size	pbuf_take_at, .-pbuf_take_at
	.section	.text.pbuf_clone,"ax",@progbits
	.align	1
	.globl	pbuf_clone
	.type	pbuf_clone, @function
pbuf_clone:
.LFB35:
	.loc 1 1307 1 is_stmt 1
	.cfi_startproc
.LVL231:
	.loc 1 1308 3
	.loc 1 1309 3
	.loc 1 1310 3
	.loc 1 1307 1 is_stmt 0
	addi	sp,sp,-16
	.cfi_def_cfa_offset 16
	sw	s1,4(sp)
	.cfi_offset 9, -12
	mv	s1,a2
	.loc 1 1310 7
	mv	a2,a1
.LVL232:
	lhu	a1,8(s1)
.LVL233:
	.loc 1 1307 1
	sw	s0,8(sp)
	sw	ra,12(sp)
	.cfi_offset 8, -8
	.cfi_offset 1, -4
	.loc 1 1310 7
	call	pbuf_alloc
.LVL234:
	mv	s0,a0
.LVL235:
	.loc 1 1311 3 is_stmt 1
	.loc 1 1311 6 is_stmt 0
	beq	a0,zero,.L219
	.loc 1 1314 3 is_stmt 1
	.loc 1 1314 9 is_stmt 0
	mv	a1,s1
	call	pbuf_copy
.LVL236:
	.loc 1 1315 3 is_stmt 1
	.loc 1 1316 3
	.loc 1 1316 8
	.loc 1 1316 32
	.loc 1 1316 42
	.loc 1 1317 3
.L219:
	.loc 1 1318 1 is_stmt 0
	lw	ra,12(sp)
	.cfi_restore 1
	mv	a0,s0
	lw	s0,8(sp)
	.cfi_restore 8
.LVL237:
	lw	s1,4(sp)
	.cfi_restore 9
.LVL238:
	addi	sp,sp,16
	.cfi_def_cfa_offset 0
	jr	ra
	.cfi_endproc
.LFE35:
	.size	pbuf_clone, .-pbuf_clone
	.section	.text.pbuf_coalesce,"ax",@progbits
	.align	1
	.globl	pbuf_coalesce
	.type	pbuf_coalesce, @function
pbuf_coalesce:
.LFB34:
	.loc 1 1279 1 is_stmt 1
	.cfi_startproc
.LVL239:
	.loc 1 1280 3
	.loc 1 1281 3
	.loc 1 1279 1 is_stmt 0
	addi	sp,sp,-16
	.cfi_def_cfa_offset 16
	sw	s0,8(sp)
	sw	ra,12(sp)
	sw	s1,4(sp)
	.cfi_offset 8, -8
	.cfi_offset 1, -4
	.cfi_offset 9, -12
	.loc 1 1281 6
	lw	a5,0(a0)
	.loc 1 1279 1
	mv	s0,a0
	.loc 1 1281 6
	bne	a5,zero,.L226
.LVL240:
.L228:
	.loc 1 1279 1
	mv	s1,s0
.L225:
	.loc 1 1291 1
	lw	ra,12(sp)
	.cfi_remember_state
	.cfi_restore 1
	lw	s0,8(sp)
	.cfi_restore 8
.LVL241:
	mv	a0,s1
	lw	s1,4(sp)
	.cfi_restore 9
	addi	sp,sp,16
	.cfi_def_cfa_offset 0
	jr	ra
.LVL242:
.L226:
	.cfi_restore_state
	mv	a0,a1
	.loc 1 1284 3 is_stmt 1
	.loc 1 1284 7 is_stmt 0
	mv	a2,s0
	li	a1,640
.LVL243:
	call	pbuf_clone
.LVL244:
	mv	s1,a0
.LVL245:
	.loc 1 1285 3 is_stmt 1
	.loc 1 1285 6 is_stmt 0
	beq	a0,zero,.L228
	.loc 1 1289 3 is_stmt 1
	mv	a0,s0
	call	pbuf_free
.LVL246:
	.loc 1 1290 3
	.loc 1 1290 10 is_stmt 0
	j	.L225
	.cfi_endproc
.LFE34:
	.size	pbuf_coalesce, .-pbuf_coalesce
	.section	.text.pbuf_fill_chksum,"ax",@progbits
	.align	1
	.globl	pbuf_fill_chksum
	.type	pbuf_fill_chksum, @function
pbuf_fill_chksum:
.LFB36:
	.loc 1 1336 1 is_stmt 1
	.cfi_startproc
.LVL247:
	.loc 1 1337 3
	.loc 1 1338 3
	.loc 1 1339 3
	.loc 1 1340 3
	.loc 1 1340 8
	.loc 1 1340 7
	.loc 1 1340 17
	.loc 1 1341 3
	.loc 1 1341 8
	.loc 1 1341 7
	.loc 1 1341 17
	.loc 1 1342 3
	.loc 1 1342 8
	.loc 1 1342 7
	.loc 1 1342 17
	.loc 1 1343 3
	.loc 1 1343 8
	.loc 1 1343 27
	.loc 1 1343 37
	.loc 1 1345 3
	.loc 1 1336 1 is_stmt 0
	addi	sp,sp,-16
	.cfi_def_cfa_offset 16
	sw	s0,8(sp)
	sw	ra,12(sp)
	sw	s1,4(sp)
	.cfi_offset 8, -8
	.cfi_offset 1, -4
	.cfi_offset 9, -12
	.loc 1 1336 1
	mv	s0,a1
	mv	a1,a2
.LVL248:
	mv	a2,a3
.LVL249:
	.loc 1 1345 25
	lhu	a3,10(a0)
.LVL250:
	.loc 1 1345 6
	bleu	a3,s0,.L236
	mv	s1,a4
	.loc 1 1345 49 discriminator 1
	add	a4,s0,a2
.LVL251:
	mv	a5,a0
	.loc 1 1346 12 discriminator 1
	li	a0,-16
.LVL252:
	.loc 1 1345 32 discriminator 1
	bgt	a4,a3,.L234
	.loc 1 1349 3 is_stmt 1
.LVL253:
	.loc 1 1350 3
	.loc 1 1349 11 is_stmt 0
	lw	a0,4(a5)
	.loc 1 1350 17
	add	a0,a0,s0
	.loc 1 1351 6
	andi	s0,s0,1
.LVL254:
	.loc 1 1350 17
	call	lwip_chksum_copy
.LVL255:
	.loc 1 1351 3 is_stmt 1
	.loc 1 1351 6 is_stmt 0
	beq	s0,zero,.L235
	.loc 1 1352 5 is_stmt 1
	slli	a5,a0,8
	srli	a0,a0,8
.LVL256:
	or	a0,a5,a0
	slli	a0,a0,16
	srli	a0,a0,16
.LVL257:
.L235:
	.loc 1 1354 3
	.loc 1 1354 9 is_stmt 0
	lhu	a5,0(s1)
.LVL258:
	.loc 1 1355 3 is_stmt 1
	.loc 1 1356 3
	.loc 1 1355 7 is_stmt 0
	add	a0,a0,a5
.LVL259:
	.loc 1 1356 29
	srli	a5,a0,16
	.loc 1 1356 14
	add	a0,a5,a0
	.loc 1 1356 11
	sh	a0,0(s1)
	.loc 1 1357 3 is_stmt 1
	.loc 1 1357 10 is_stmt 0
	li	a0,0
.LVL260:
.L234:
	.loc 1 1358 1
	lw	ra,12(sp)
	.cfi_remember_state
	.cfi_restore 1
	lw	s0,8(sp)
	.cfi_restore 8
	lw	s1,4(sp)
	.cfi_restore 9
	addi	sp,sp,16
	.cfi_def_cfa_offset 0
	jr	ra
.LVL261:
.L236:
	.cfi_restore_state
	.loc 1 1346 12
	li	a0,-16
.LVL262:
	j	.L234
	.cfi_endproc
.LFE36:
	.size	pbuf_fill_chksum, .-pbuf_fill_chksum
	.section	.text.pbuf_try_get_at,"ax",@progbits
	.align	1
	.globl	pbuf_try_get_at
	.type	pbuf_try_get_at, @function
pbuf_try_get_at:
.LFB38:
	.loc 1 1390 1 is_stmt 1
	.cfi_startproc
.LVL263:
	.loc 1 1391 3
	.loc 1 1392 3
	.loc 1 1390 1 is_stmt 0
	addi	sp,sp,-32
	.cfi_def_cfa_offset 32
	.loc 1 1392 26
	addi	a2,sp,14
	.loc 1 1390 1
	sw	ra,28(sp)
	.cfi_offset 1, -4
	.loc 1 1392 26
	call	pbuf_skip_const
.LVL264:
	.loc 1 1395 3 is_stmt 1
	.loc 1 1395 6 is_stmt 0
	beq	a0,zero,.L244
	.loc 1 1395 18 discriminator 1
	lhu	a3,10(a0)
	.loc 1 1395 29 discriminator 1
	lhu	a4,14(sp)
	mv	a5,a0
	.loc 1 1398 10 discriminator 1
	li	a0,-1
.LVL265:
	.loc 1 1395 18 discriminator 1
	bleu	a3,a4,.L242
	.loc 1 1396 5 is_stmt 1
	.loc 1 1396 32 is_stmt 0
	lw	a5,4(a5)
.LVL266:
	add	a5,a5,a4
	lbu	a0,0(a5)
.L242:
	.loc 1 1399 1
	lw	ra,28(sp)
	.cfi_remember_state
	.cfi_restore 1
	addi	sp,sp,32
	.cfi_def_cfa_offset 0
	jr	ra
.LVL267:
.L244:
	.cfi_restore_state
	.loc 1 1398 10
	li	a0,-1
.LVL268:
	j	.L242
	.cfi_endproc
.LFE38:
	.size	pbuf_try_get_at, .-pbuf_try_get_at
	.section	.text.pbuf_get_at,"ax",@progbits
	.align	1
	.globl	pbuf_get_at
	.type	pbuf_get_at, @function
pbuf_get_at:
.LFB37:
	.loc 1 1372 1 is_stmt 1
	.cfi_startproc
.LVL269:
	.loc 1 1373 3
	.loc 1 1372 1 is_stmt 0
	addi	sp,sp,-16
	.cfi_def_cfa_offset 16
	sw	ra,12(sp)
	.cfi_offset 1, -4
	.loc 1 1373 13
	call	pbuf_try_get_at
.LVL270:
	.loc 1 1374 3 is_stmt 1
	.loc 1 1378 1 is_stmt 0
	bge	a0,zero,.L248
	li	a0,0
.L248:
	lw	ra,12(sp)
	.cfi_restore 1
	andi	a0,a0,0xff
	addi	sp,sp,16
	.cfi_def_cfa_offset 0
	jr	ra
	.cfi_endproc
.LFE37:
	.size	pbuf_get_at, .-pbuf_get_at
	.section	.text.pbuf_put_at,"ax",@progbits
	.align	1
	.globl	pbuf_put_at
	.type	pbuf_put_at, @function
pbuf_put_at:
.LFB39:
	.loc 1 1412 1 is_stmt 1
	.cfi_startproc
.LVL271:
	.loc 1 1413 3
	.loc 1 1414 3
	.loc 1 1412 1 is_stmt 0
	addi	sp,sp,-32
	.cfi_def_cfa_offset 32
.LVL272:
.LBB153:
.LBB154:
	.loc 1 1180 3 is_stmt 1
.LBE154:
.LBE153:
	.loc 1 1412 1 is_stmt 0
	sw	s0,24(sp)
	.cfi_offset 8, -8
	mv	s0,a2
.LBB157:
.LBB155:
	.loc 1 1180 28
	addi	a2,sp,14
.LVL273:
.LBE155:
.LBE157:
	.loc 1 1412 1
	sw	ra,28(sp)
	.cfi_offset 1, -4
.LBB158:
.LBB156:
	.loc 1 1180 28
	call	pbuf_skip_const
.LVL274:
	.loc 1 1181 3 is_stmt 1
.LBE156:
.LBE158:
	.loc 1 1417 3
	.loc 1 1417 6 is_stmt 0
	beq	a0,zero,.L250
	.loc 1 1417 29 discriminator 1
	lhu	a4,14(sp)
	.loc 1 1417 18 discriminator 1
	lhu	a5,10(a0)
	bleu	a5,a4,.L250
	.loc 1 1418 5 is_stmt 1
	.loc 1 1418 33 is_stmt 0
	lw	a5,4(a0)
	add	a5,a5,a4
	sb	s0,0(a5)
.L250:
	.loc 1 1420 1
	lw	ra,28(sp)
	.cfi_restore 1
	lw	s0,24(sp)
	.cfi_restore 8
	addi	sp,sp,32
	.cfi_def_cfa_offset 0
	jr	ra
	.cfi_endproc
.LFE39:
	.size	pbuf_put_at, .-pbuf_put_at
	.section	.text.pbuf_memcmp,"ax",@progbits
	.align	1
	.globl	pbuf_memcmp
	.type	pbuf_memcmp, @function
pbuf_memcmp:
.LFB40:
	.loc 1 1435 1 is_stmt 1
	.cfi_startproc
.LVL275:
	.loc 1 1436 3
	.loc 1 1437 3
	.loc 1 1438 3
	.loc 1 1441 3
	.loc 1 1441 8 is_stmt 0
	lhu	a4,8(a0)
	.loc 1 1441 28
	add	a5,a1,a3
	.loc 1 1441 6
	bge	a4,a5,.L269
	.loc 1 1442 12
	li	a0,65536
.LVL276:
	addi	a0,a0,-1
	.loc 1 1461 1
	ret
.LVL277:
.L260:
	.cfi_def_cfa_offset 32
	.cfi_offset 1, -4
	.cfi_offset 8, -8
	.cfi_offset 9, -12
	.cfi_offset 18, -16
	.cfi_offset 19, -20
	.cfi_offset 20, -24
	.cfi_offset 21, -28
.LBB162:
.LBB163:
	.loc 1 1447 5 is_stmt 1
	.loc 1 1448 7 is_stmt 0
	lw	s1,0(s1)
.LVL278:
	.loc 1 1447 11
	sub	s0,s0,a1
.LVL279:
	slli	s0,s0,16
	srli	s0,s0,16
.LVL280:
	.loc 1 1448 5 is_stmt 1
	.loc 1 1446 9
	beq	s1,zero,.L259
.LVL281:
.L258:
	.loc 1 1446 26 is_stmt 0
	lhu	a1,10(s1)
	.loc 1 1446 21
	bleu	a1,s0,.L260
.L259:
.LBE163:
.LBE162:
	.loc 1 1435 1
	li	s4,0
.LVL282:
.L261:
	slli	s2,s4,16
	srli	s2,s2,16
.LVL283:
.LBB167:
.LBB165:
	.loc 1 1452 15 is_stmt 1
	.loc 1 1452 3 is_stmt 0
	bgtu	s3,s2,.L263
	.loc 1 1460 10
	li	a0,0
	j	.L257
.LVL284:
.L269:
	.cfi_def_cfa_offset 0
	.cfi_restore 1
	.cfi_restore 8
	.cfi_restore 9
	.cfi_restore 18
	.cfi_restore 19
	.cfi_restore 20
	.cfi_restore 21
.LBE165:
.LBE167:
	.loc 1 1435 1
	addi	sp,sp,-32
	.cfi_def_cfa_offset 32
	sw	s0,24(sp)
	sw	s1,20(sp)
	sw	s3,12(sp)
	sw	s5,4(sp)
	sw	ra,28(sp)
	sw	s2,16(sp)
	sw	s4,8(sp)
	.cfi_offset 8, -8
	.cfi_offset 9, -12
	.cfi_offset 19, -20
	.cfi_offset 21, -28
	.cfi_offset 1, -4
	.cfi_offset 18, -16
	.cfi_offset 20, -24
	mv	s1,a0
	mv	s0,a1
	mv	s5,a2
	mv	s3,a3
	j	.L258
.LVL285:
.L263:
.LBB168:
.LBB166:
.LBB164:
	.loc 1 1454 5 is_stmt 1
	.loc 1 1454 14 is_stmt 0
	add	a1,s0,s2
	slli	a1,a1,16
	srli	a1,a1,16
	mv	a0,s1
	call	pbuf_get_at
.LVL286:
	.loc 1 1455 5 is_stmt 1
	.loc 1 1456 8 is_stmt 0
	addi	s4,s4,1
.LVL287:
	.loc 1 1456 5 is_stmt 1
	.loc 1 1455 10 is_stmt 0
	add	a5,s5,s4
	.loc 1 1456 8
	lbu	a5,-1(a5)
	beq	a5,a0,.L261
	.loc 1 1457 7 is_stmt 1
	.loc 1 1457 14 is_stmt 0
	li	a5,65536
	addi	a5,a5,-2
	mv	a0,s2
.LVL288:
	bleu	s2,a5,.L262
.LVL289:
	li	a0,-2
.LVL290:
.L262:
	addi	a0,a0,1
	slli	a0,a0,16
	srli	a0,a0,16
.LVL291:
.L257:
.LBE164:
.LBE166:
.LBE168:
	.loc 1 1461 1
	lw	ra,28(sp)
	.cfi_restore 1
	lw	s0,24(sp)
	.cfi_restore 8
	lw	s1,20(sp)
	.cfi_restore 9
	lw	s2,16(sp)
	.cfi_restore 18
	lw	s3,12(sp)
	.cfi_restore 19
	lw	s4,8(sp)
	.cfi_restore 20
	lw	s5,4(sp)
	.cfi_restore 21
.LVL292:
	addi	sp,sp,32
	.cfi_def_cfa_offset 0
	jr	ra
	.cfi_endproc
.LFE40:
	.size	pbuf_memcmp, .-pbuf_memcmp
	.section	.text.pbuf_memfind,"ax",@progbits
	.align	1
	.globl	pbuf_memfind
	.type	pbuf_memfind, @function
pbuf_memfind:
.LFB41:
	.loc 1 1477 1 is_stmt 1
	.cfi_startproc
.LVL293:
	.loc 1 1478 3
	.loc 1 1479 3
	.loc 1 1477 1 is_stmt 0
	addi	sp,sp,-32
	.cfi_def_cfa_offset 32
	sw	ra,28(sp)
	sw	s0,24(sp)
	sw	s1,20(sp)
	sw	s2,16(sp)
	sw	s3,12(sp)
	sw	s4,8(sp)
	.cfi_offset 1, -4
	.cfi_offset 8, -8
	.cfi_offset 9, -12
	.cfi_offset 18, -16
	.cfi_offset 19, -20
	.cfi_offset 20, -24
	.loc 1 1479 34
	lhu	a5,8(a0)
.LVL294:
	.loc 1 1480 3 is_stmt 1
	.loc 1 1480 29 is_stmt 0
	add	a4,a2,a3
	.loc 1 1480 6
	bge	a5,a4,.L274
.LVL295:
.L278:
	.loc 1 1488 10
	li	s0,65536
	addi	s0,s0,-1
.L275:
	.loc 1 1489 1
	lw	ra,28(sp)
	.cfi_remember_state
	.cfi_restore 1
	mv	a0,s0
	lw	s0,24(sp)
	.cfi_restore 8
	lw	s1,20(sp)
	.cfi_restore 9
	lw	s2,16(sp)
	.cfi_restore 18
	lw	s3,12(sp)
	.cfi_restore 19
	lw	s4,8(sp)
	.cfi_restore 20
	addi	sp,sp,32
	.cfi_def_cfa_offset 0
	jr	ra
.LVL296:
.L274:
	.cfi_restore_state
	.loc 1 1479 9
	sub	a5,a5,a2
.LVL297:
	slli	s1,a5,16
	mv	s3,a0
	mv	s4,a1
	mv	s2,a2
	mv	s0,a3
	srli	s1,s1,16
.LVL298:
.L276:
	.loc 1 1481 28 is_stmt 1 discriminator 1
	.loc 1 1481 5 is_stmt 0 discriminator 1
	bgtu	s0,s1,.L278
.LBB169:
	.loc 1 1482 7 is_stmt 1
	.loc 1 1482 20 is_stmt 0
	mv	a3,s2
	mv	a2,s4
	mv	a1,s0
	mv	a0,s3
	call	pbuf_memcmp
.LVL299:
	.loc 1 1483 7 is_stmt 1
	.loc 1 1483 10 is_stmt 0
	beq	a0,zero,.L275
.LBE169:
	.loc 1 1481 48 is_stmt 1 discriminator 2
	.loc 1 1481 49 is_stmt 0 discriminator 2
	addi	s0,s0,1
.LVL300:
	slli	s0,s0,16
	srli	s0,s0,16
.LVL301:
	j	.L276
	.cfi_endproc
.LFE41:
	.size	pbuf_memfind, .-pbuf_memfind
	.section	.text.pbuf_strstr,"ax",@progbits
	.align	1
	.globl	pbuf_strstr
	.type	pbuf_strstr, @function
pbuf_strstr:
.LFB42:
	.loc 1 1504 1 is_stmt 1
	.cfi_startproc
.LVL302:
	.loc 1 1505 3
	.loc 1 1506 3
	.loc 1 1506 6 is_stmt 0
	beq	a1,zero,.L291
	.loc 1 1506 23 discriminator 1
	lbu	a5,0(a1)
	beq	a5,zero,.L291
	.loc 1 1504 1 discriminator 2
	addi	sp,sp,-32
	.cfi_def_cfa_offset 32
	sw	s0,24(sp)
	sw	s1,20(sp)
	sw	ra,28(sp)
	.cfi_offset 8, -8
	.cfi_offset 9, -12
	.cfi_offset 1, -4
	.loc 1 1506 43 discriminator 2
	lhu	a4,8(a0)
	li	s1,65536
	addi	a5,s1,-1
	mv	s0,a0
	beq	a4,a5,.L285
	.loc 1 1509 3 is_stmt 1
	.loc 1 1509 16 is_stmt 0
	mv	a0,a1
.LVL303:
	sw	a1,12(sp)
	.loc 1 1510 6
	addi	s1,s1,-2
	.loc 1 1509 16
	call	strlen
.LVL304:
	.loc 1 1510 3 is_stmt 1
	.loc 1 1510 6 is_stmt 0
	bgtu	a0,s1,.L285
	.loc 1 1513 3 is_stmt 1
	.loc 1 1513 10 is_stmt 0
	slli	a2,a0,16
	mv	a0,s0
.LVL305:
	.loc 1 1514 1
	lw	s0,24(sp)
	.cfi_remember_state
	.cfi_restore 8
.LVL306:
	.loc 1 1513 10
	lw	a1,12(sp)
	.loc 1 1514 1
	lw	ra,28(sp)
	.cfi_restore 1
	lw	s1,20(sp)
	.cfi_restore 9
	.loc 1 1513 10
	li	a3,0
	.loc 1 1514 1
	.loc 1 1513 10
	srli	a2,a2,16
	.loc 1 1514 1
	addi	sp,sp,32
	.cfi_def_cfa_offset 0
.LVL307:
	.loc 1 1513 10
	tail	pbuf_memfind
.LVL308:
.L285:
	.cfi_restore_state
	.loc 1 1514 1
	lw	ra,28(sp)
	.cfi_restore 1
	lw	s0,24(sp)
	.cfi_restore 8
.LVL309:
	li	a0,65536
	lw	s1,20(sp)
	.cfi_restore 9
	addi	a0,a0,-1
	addi	sp,sp,32
	.cfi_def_cfa_offset 0
	jr	ra
.LVL310:
.L291:
	li	a0,65536
.LVL311:
	addi	a0,a0,-1
	ret
	.cfi_endproc
.LFE42:
	.size	pbuf_strstr, .-pbuf_strstr
	.comm	pbuf_free_ooseq_pending,1,1
	.text
.Letext0:
	.file 2 "/mnt/d/GitHub/bl_iot_sdk_for_aithinker/components/network/lwip/lwip-port/arch/cc.h"
	.file 3 "/mnt/d/GitHub/bl_iot_sdk_for_aithinker/toolchain/riscv/Linux/riscv64-unknown-elf/include/machine/_default_types.h"
	.file 4 "/mnt/d/GitHub/bl_iot_sdk_for_aithinker/toolchain/riscv/Linux/lib/gcc/riscv64-unknown-elf/10.2.0/include/stddef.h"
	.file 5 "/mnt/d/GitHub/bl_iot_sdk_for_aithinker/toolchain/riscv/Linux/riscv64-unknown-elf/include/sys/_stdint.h"
	.file 6 "/mnt/d/GitHub/bl_iot_sdk_for_aithinker/components/network/lwip/src/include/lwip/arch.h"
	.file 7 "/mnt/d/GitHub/bl_iot_sdk_for_aithinker/components/network/lwip/src/include/lwip/err.h"
	.file 8 "/mnt/d/GitHub/bl_iot_sdk_for_aithinker/components/network/lwip/src/include/lwip/pbuf.h"
	.file 9 "/mnt/d/GitHub/bl_iot_sdk_for_aithinker/components/network/lwip/src/include/lwip/mem.h"
	.file 10 "/mnt/d/GitHub/bl_iot_sdk_for_aithinker/components/network/lwip/src/include/lwip/memp.h"
	.file 11 "/mnt/d/GitHub/bl_iot_sdk_for_aithinker/components/network/lwip/src/include/lwip/ip4_addr.h"
	.file 12 "/mnt/d/GitHub/bl_iot_sdk_for_aithinker/components/network/lwip/src/include/lwip/ip_addr.h"
	.file 13 "/mnt/d/GitHub/bl_iot_sdk_for_aithinker/components/network/lwip/src/include/lwip/tcpbase.h"
	.file 14 "/mnt/d/GitHub/bl_iot_sdk_for_aithinker/components/network/lwip/src/include/lwip/netif.h"
	.file 15 "/mnt/d/GitHub/bl_iot_sdk_for_aithinker/components/network/lwip/src/include/lwip/tcp.h"
	.file 16 "/mnt/d/GitHub/bl_iot_sdk_for_aithinker/components/network/lwip/src/include/lwip/priv/tcp_priv.h"
	.file 17 "/mnt/d/GitHub/bl_iot_sdk_for_aithinker/components/network/lwip/src/include/lwip/prot/tcp.h"
	.file 18 "/mnt/d/GitHub/bl_iot_sdk_for_aithinker/toolchain/riscv/Linux/riscv64-unknown-elf/include/string.h"
	.file 19 "/mnt/d/GitHub/bl_iot_sdk_for_aithinker/components/network/lwip/src/include/lwip/inet_chksum.h"
	.file 20 "/mnt/d/GitHub/bl_iot_sdk_for_aithinker/components/network/lwip/src/include/lwip/sys.h"
	.file 21 "/mnt/d/GitHub/bl_iot_sdk_for_aithinker/components/network/lwip/src/include/lwip/tcpip.h"