	.file	"tcp.c"
	.option nopic
	.attribute arch, "rv32i2p0_m2p0_f2p0_c2p0"
	.attribute unaligned_access, 0
	.attribute stack_align, 16
	.text
.Ltext0:
	.cfi_sections	.debug_frame
	.section	.text.tcp_new_port,"ax",@progbits
	.align	1
	.type	tcp_new_port, @function
tcp_new_port:
.LFB24:
	.file 1 "/mnt/d/GitHub/bl_iot_sdk_for_aithinker/components/network/lwip/src/core/tcp.c"
	.loc 1 1014 1
	.cfi_startproc
	.loc 1 1015 3
	.loc 1 1016 3
.LVL0:
	lui	a4,%hi(.LANCHOR0)
	.loc 1 1021 6 is_stmt 0
	li	a1,65536
	lhu	a5,%lo(.LANCHOR0)(a4)
	.loc 1 1014 1
	li	a0,16384
	addi	a4,a4,%lo(.LANCHOR0)
	.loc 1 1021 6
	addi	a1,a1,-1
	lui	a7,%hi(.LANCHOR1)
.LVL1:
.L2:
	.loc 1 1017 3 is_stmt 1
	.loc 1 1020 3
	.loc 1 1020 11 is_stmt 0
	addi	a5,a5,1
	slli	a5,a5,16
	srli	a5,a5,16
	.loc 1 1021 3 is_stmt 1
	.loc 1 1021 6 is_stmt 0
	bne	a5,a1,.L3
	.loc 1 1022 14
	li	a5,49152
.L3:
	.loc 1 1025 3 is_stmt 1
.LVL2:
	.loc 1 1025 15
	addi	a3,a7,%lo(.LANCHOR1)
	addi	a6,a3,16
.LVL3:
.L8:
	.loc 1 1026 5
	.loc 1 1026 14 is_stmt 0
	lw	a2,0(a3)
	lw	a2,0(a2)
.LVL4:
.L4:
	.loc 1 1026 35 is_stmt 1 discriminator 1
	.loc 1 1026 5 is_stmt 0 discriminator 1
	bne	a2,zero,.L7
	.loc 1 1025 22 is_stmt 1 discriminator 2
.LVL5:
	.loc 1 1025 15 discriminator 2
	.loc 1 1025 3 is_stmt 0 discriminator 2
	addi	a3,a3,4
.LVL6:
	bne	a3,a6,.L8
	sh	a5,0(a4)
	.loc 1 1036 3 is_stmt 1
	.loc 1 1036 10 is_stmt 0
	mv	a0,a5
.LVL7:
	.loc 1 1037 1
	ret
.LVL8:
.L7:
	.loc 1 1027 7 is_stmt 1
	.loc 1 1027 10 is_stmt 0
	lhu	t1,26(a2)
	bne	t1,a5,.L5
	.loc 1 1028 9 is_stmt 1
.LVL9:
	.loc 1 1029 9
	.loc 1 1029 12 is_stmt 0
	addi	a0,a0,-1
.LVL10:
	slli	a0,a0,16
	srli	a0,a0,16
	bne	a0,zero,.L2
	sh	a5,0(a4)
	ret
.LVL11:
.L5:
	.loc 1 1026 47 is_stmt 1 discriminator 2
	.loc 1 1026 51 is_stmt 0 discriminator 2
	lw	a2,12(a2)
.LVL12:
	j	.L4
	.cfi_endproc
.LFE24:
	.size	tcp_new_port, .-tcp_new_port
	.section	.text.tcp_close_shutdown_fin,"ax",@progbits
	.align	1
	.type	tcp_close_shutdown_fin, @function
tcp_close_shutdown_fin:
.LFB12:
	.loc 1 412 1 is_stmt 1
	.cfi_startproc
.LVL13:
	.loc 1 413 3
	.loc 1 414 3
	.loc 1 414 8
	.loc 1 414 7
	.loc 1 414 17
	.loc 1 416 3
	.loc 1 412 1 is_stmt 0
	addi	sp,sp,-16
	.cfi_def_cfa_offset 16
	sw	s0,8(sp)
	sw	ra,12(sp)
	.cfi_offset 8, -8
	.cfi_offset 1, -4
	.loc 1 416 14
	lw	a4,20(a0)
	.loc 1 416 3
	li	a5,4
	.loc 1 412 1
	mv	s0,a0
	.loc 1 416 3
	beq	a4,a5,.L26
	li	a5,7
	beq	a4,a5,.L14
	li	a3,3
	li	a5,0
	bne	a4,a3,.L23
.L26:
	.loc 1 418 7 is_stmt 1
	.loc 1 418 13 is_stmt 0
	call	tcp_send_fin
.LVL14:
	mv	a5,a0
.LVL15:
	.loc 1 419 7 is_stmt 1
	.loc 1 419 10 is_stmt 0
	bne	a0,zero,.L16
	.loc 1 420 9 is_stmt 1
	.loc 1 421 9
	.loc 1 422 9
	.loc 1 422 20 is_stmt 0
	li	a5,5
.L27:
	.loc 1 436 20
	sw	a5,20(s0)
.LVL16:
	.loc 1 444 3 is_stmt 1
	.loc 1 450 5
	mv	a0,s0
	call	tcp_output
.LVL17:
.L28:
	.loc 1 453 70
	.loc 1 459 5
	.loc 1 459 12 is_stmt 0
	li	a5,0
.L23:
	.loc 1 462 1
	lw	ra,12(sp)
	.cfi_remember_state
	.cfi_restore 1
	lw	s0,8(sp)
	.cfi_restore 8
.LVL18:
	mv	a0,a5
	addi	sp,sp,16
	.cfi_def_cfa_offset 0
	jr	ra
.LVL19:
.L14:
	.cfi_restore_state
	.loc 1 433 7 is_stmt 1
	.loc 1 433 13 is_stmt 0
	call	tcp_send_fin
.LVL20:
	mv	a5,a0
.LVL21:
	.loc 1 434 7 is_stmt 1
	.loc 1 434 10 is_stmt 0
	bne	a0,zero,.L16
	.loc 1 435 9 is_stmt 1
	.loc 1 436 9
	.loc 1 436 20 is_stmt 0
	li	a5,9
	j	.L27
.L16:
.LVL22:
	.loc 1 444 3 is_stmt 1
	.loc 1 451 10
	.loc 1 451 13 is_stmt 0
	li	a4,-1
	bne	a5,a4,.L23
	.loc 1 453 5 is_stmt 1
	.loc 1 453 10
	.loc 1 453 25 is_stmt 0
	lhu	a5,30(s0)
.LVL23:
	ori	a5,a5,8
	.loc 1 453 23
	sh	a5,30(s0)
	j	.L28
	.cfi_endproc
.LFE12:
	.size	tcp_close_shutdown_fin, .-tcp_close_shutdown_fin
	.section	.rodata.tcp_init.str1.4,"aMS",@progbits,1
	.align	2
.LC0:
	.string	"-------------------->>>>>>>> LWIP tcp_port %u\r\n"
	.section	.text.tcp_init,"ax",@progbits
	.align	1
	.globl	tcp_init
	.type	tcp_init, @function
tcp_init:
.LFB5:
	.loc 1 202 1 is_stmt 1
	.cfi_startproc
	.loc 1 204 3
	.loc 1 202 1 is_stmt 0
	addi	sp,sp,-16
	.cfi_def_cfa_offset 16
	sw	ra,12(sp)
	.cfi_offset 1, -4
	.loc 1 204 33
	call	bl_rand
.LVL24:
	.loc 1 204 45
	slli	a1,a0,18
	srli	a1,a1,18
	.loc 1 204 15
	li	a0,-16384
	add	a1,a1,a0
	slli	a1,a1,16
	.loc 1 208 1
	lw	ra,12(sp)
	.cfi_restore 1
	.loc 1 204 15
	srli	a1,a1,16
	.loc 1 204 12
	lui	a5,%hi(.LANCHOR0)
	sh	a1,%lo(.LANCHOR0)(a5)
	.loc 1 206 3 is_stmt 1
	lui	a0,%hi(.LC0)
	.loc 1 208 1 is_stmt 0
	.loc 1 206 3
	addi	a0,a0,%lo(.LC0)
	.loc 1 208 1
	addi	sp,sp,16
	.cfi_def_cfa_offset 0
	.loc 1 206 3
	tail	printf
.LVL25:
	.cfi_endproc
.LFE5:
	.size	tcp_init, .-tcp_init
	.section	.text.tcp_free,"ax",@progbits
	.align	1
	.globl	tcp_free
	.type	tcp_free, @function
tcp_free:
.LFB6:
	.loc 1 213 1 is_stmt 1
	.cfi_startproc
.LVL26:
	.loc 1 214 3
	.loc 1 214 8
	.loc 1 214 39
	.loc 1 214 49
	.loc 1 218 3
	.loc 1 213 1 is_stmt 0
	mv	a1,a0
	.loc 1 218 3
	li	a0,2
.LVL27:
	tail	memp_free
.LVL28:
	.cfi_endproc
.LFE6:
	.size	tcp_free, .-tcp_free
	.section	.text.tcp_bind,"ax",@progbits
	.align	1
	.globl	tcp_bind
	.type	tcp_bind, @function
tcp_bind:
.LFB17:
	.loc 1 664 1 is_stmt 1
	.cfi_startproc
.LVL29:
	.loc 1 665 3
	.loc 1 666 3
	.loc 1 667 3
	.loc 1 672 3
	.loc 1 676 3
	.loc 1 664 1 is_stmt 0
	addi	sp,sp,-16
	.cfi_def_cfa_offset 16
	sw	s0,8(sp)
	sw	s1,4(sp)
	sw	ra,12(sp)
	.cfi_offset 8, -8
	.cfi_offset 9, -12
	.cfi_offset 1, -4
	.loc 1 664 1
	mv	s0,a0
	mv	s1,a1
	.loc 1 676 6
	bne	a1,zero,.L33
	.loc 1 677 12
	lui	s1,%hi(ip_addr_any)
	addi	s1,s1,%lo(ip_addr_any)
.L33:
.LVL30:
	.loc 1 683 3 is_stmt 1
	.loc 1 683 8
	.loc 1 683 16 is_stmt 0
	li	a0,-16
.LVL31:
	.loc 1 683 11
	beq	s0,zero,.L56
	.loc 1 683 32 is_stmt 1 discriminator 2
	.loc 1 685 3 discriminator 2
	.loc 1 685 8 discriminator 2
	.loc 1 685 11 is_stmt 0 discriminator 2
	lw	a5,20(s0)
	.loc 1 685 48 discriminator 2
	li	a0,-6
	.loc 1 685 11 discriminator 2
	bne	a5,zero,.L56
	.loc 1 685 64 is_stmt 1 discriminator 2
	.loc 1 693 3 discriminator 2
	lbu	a3,9(s0)
	andi	a3,a3,4
	.loc 1 694 18 is_stmt 0 discriminator 2
	seqz	a0,a3
	addi	a0,a0,3
.LVL32:
	.loc 1 710 3 is_stmt 1 discriminator 2
	.loc 1 710 6 is_stmt 0 discriminator 2
	bne	a2,zero,.L36
	.loc 1 711 5 is_stmt 1
	.loc 1 711 12 is_stmt 0
	call	tcp_new_port
.LVL33:
	mv	a2,a0
.LVL34:
	.loc 1 712 5 is_stmt 1
	.loc 1 713 14 is_stmt 0
	li	a0,-2
	.loc 1 712 8
	bne	a2,zero,.L37
.LVL35:
.L56:
	.loc 1 752 1
	lw	ra,12(sp)
	.cfi_remember_state
	.cfi_restore 1
	lw	s0,8(sp)
	.cfi_restore 8
.LVL36:
	lw	s1,4(sp)
	.cfi_restore 9
.LVL37:
	addi	sp,sp,16
	.cfi_def_cfa_offset 0
	jr	ra
.LVL38:
.L36:
	.cfi_restore_state
	lui	a4,%hi(.LANCHOR1)
	addi	a4,a4,%lo(.LANCHOR1)
	.loc 1 717 12
	li	a1,0
.L42:
.LVL39:
	.loc 1 718 7 is_stmt 1
	.loc 1 718 17 is_stmt 0
	lw	a5,0(a4)
	lw	a5,0(a5)
.LVL40:
.L38:
	.loc 1 718 38 is_stmt 1 discriminator 1
	.loc 1 718 7 is_stmt 0 discriminator 1
	bne	a5,zero,.L41
	.loc 1 717 35 is_stmt 1 discriminator 2
	.loc 1 717 36 is_stmt 0 discriminator 2
	addi	a1,a1,1
.LVL41:
	.loc 1 717 17 is_stmt 1 discriminator 2
	.loc 1 717 5 is_stmt 0 discriminator 2
	addi	a4,a4,4
	bne	a0,a1,.L42
.LVL42:
.L37:
	.loc 1 741 3 is_stmt 1
	.loc 1 741 22 is_stmt 0
	lw	a5,0(s1)
	.loc 1 741 7
	beq	a5,zero,.L44
	.loc 1 746 5 is_stmt 1 discriminator 4
	.loc 1 746 29 is_stmt 0 discriminator 4
	sw	a5,0(s0)
.L44:
	.loc 1 748 3 is_stmt 1
	.loc 1 749 20 is_stmt 0
	lui	a5,%hi(tcp_bound_pcbs)
	lw	a4,%lo(tcp_bound_pcbs)(a5)
	.loc 1 748 19
	sh	a2,26(s0)
	.loc 1 749 3 is_stmt 1
	.loc 1 749 8
	.loc 1 749 59 is_stmt 0
	sw	s0,%lo(tcp_bound_pcbs)(a5)
	.loc 1 749 20
	sw	a4,12(s0)
	.loc 1 749 40 is_stmt 1
	.loc 1 749 68
	call	tcp_timer_needed
.LVL43:
	.loc 1 749 96
	.loc 1 750 3
	.loc 1 751 3
	.loc 1 751 10 is_stmt 0
	li	a0,0
	j	.L56
.LVL44:
.L41:
	.loc 1 719 9 is_stmt 1
	.loc 1 719 12 is_stmt 0
	lhu	a6,26(a5)
	bne	a6,a2,.L39
	.loc 1 724 11 is_stmt 1
	.loc 1 724 14 is_stmt 0
	beq	a3,zero,.L40
	.loc 1 724 46 discriminator 1
	lbu	a6,9(a5)
	andi	a6,a6,4
	bne	a6,zero,.L39
.L40:
	.loc 1 729 13 is_stmt 1
	.loc 1 730 41 is_stmt 0
	lw	a7,0(a5)
	.loc 1 730 17
	beq	a7,zero,.L51
	.loc 1 731 32
	lw	a6,0(s1)
	.loc 1 731 17
	beq	a6,zero,.L51
	.loc 1 729 26
	beq	a7,a6,.L51
.L39:
	.loc 1 718 51 is_stmt 1 discriminator 2
	.loc 1 718 56 is_stmt 0 discriminator 2
	lw	a5,12(a5)
.LVL45:
	j	.L38
.L51:
	.loc 1 733 22
	li	a0,-8
.LVL46:
	j	.L56
	.cfi_endproc
.LFE17:
	.size	tcp_bind, .-tcp_bind
	.section	.text.tcp_bind_netif,"ax",@progbits
	.align	1
	.globl	tcp_bind_netif
	.type	tcp_bind_netif, @function
tcp_bind_netif:
.LFB18:
	.loc 1 766 1 is_stmt 1
	.cfi_startproc
.LVL47:
	.loc 1 767 3
	.loc 1 768 3
	.loc 1 771 20 is_stmt 0
	li	a5,0
	.loc 1 768 6
	beq	a1,zero,.L60
	.loc 1 769 5 is_stmt 1
	.loc 1 769 23 is_stmt 0
	lbu	a5,68(a1)
	addi	a5,a5,1
	andi	a5,a5,0xff
.L60:
	sb	a5,8(a0)
	.loc 1 773 1
	ret
	.cfi_endproc
.LFE18:
	.size	tcp_bind_netif, .-tcp_bind_netif
	.section	.text.tcp_listen_with_backlog_and_err,"ax",@progbits
	.align	1
	.globl	tcp_listen_with_backlog_and_err
	.type	tcp_listen_with_backlog_and_err, @function
tcp_listen_with_backlog_and_err:
.LFB21:
	.loc 1 851 1 is_stmt 1
	.cfi_startproc
.LVL48:
	.loc 1 852 3
	.loc 1 853 3
	.loc 1 855 3
	.loc 1 857 3
	.loc 1 859 3
	.loc 1 859 8
	.loc 1 851 1 is_stmt 0
	addi	sp,sp,-16
	.cfi_def_cfa_offset 16
	sw	s2,0(sp)
	sw	ra,12(sp)
	sw	s0,8(sp)
	sw	s1,4(sp)
	.cfi_offset 18, -16
	.cfi_offset 1, -4
	.cfi_offset 8, -8
	.cfi_offset 9, -12
	.loc 1 851 1
	mv	s2,a2
	.loc 1 859 11
	beq	a0,zero,.L73
	.loc 1 860 11 discriminator 2
	lw	a5,20(a0)
	mv	s0,a0
	.loc 1 859 42 is_stmt 1 discriminator 2
	.loc 1 860 3 discriminator 2
	.loc 1 860 8 discriminator 2
	.loc 1 860 11 is_stmt 0 discriminator 2
	bne	a5,zero,.L74
	.loc 1 860 75 is_stmt 1
	.loc 1 863 3
	.loc 1 869 3
	.loc 1 869 6 is_stmt 0
	lbu	a5,9(a0)
	andi	a5,a5,4
	beq	a5,zero,.L64
	.loc 1 873 5 is_stmt 1
	.loc 1 873 15 is_stmt 0
	lui	a5,%hi(tcp_listen_pcbs)
	lw	a5,%lo(tcp_listen_pcbs)(a5)
.LVL49:
.L65:
	.loc 1 873 46 is_stmt 1 discriminator 1
	.loc 1 873 5 is_stmt 0 discriminator 1
	bne	a5,zero,.L67
.LVL50:
.L64:
	.loc 1 884 3 is_stmt 1
	.loc 1 884 35 is_stmt 0
	li	a0,3
.LVL51:
	call	memp_malloc
.LVL52:
	mv	s1,a0
.LVL53:
	.loc 1 885 3 is_stmt 1
	.loc 1 886 9 is_stmt 0
	li	a5,-1
	.loc 1 885 6
	beq	a0,zero,.L63
	.loc 1 889 3 is_stmt 1
	.loc 1 889 27 is_stmt 0
	lw	a5,16(s0)
	.loc 1 889 22
	sw	a5,16(a0)
	.loc 1 890 3 is_stmt 1
	.loc 1 890 25 is_stmt 0
	lhu	a5,26(s0)
	.loc 1 890 20
	sh	a5,26(a0)
	.loc 1 891 3 is_stmt 1
	.loc 1 891 15 is_stmt 0
	li	a5,1
	sw	a5,20(a0)
	.loc 1 892 3 is_stmt 1
	.loc 1 892 19 is_stmt 0
	lbu	a5,24(s0)
	.loc 1 892 14
	sb	a5,24(a0)
	.loc 1 893 3 is_stmt 1
	.loc 1 893 25 is_stmt 0
	lbu	a5,9(s0)
	.loc 1 894 19
	sb	zero,8(a0)
	.loc 1 893 20
	sb	a5,9(a0)
	.loc 1 894 3 is_stmt 1
	.loc 1 895 3
	.loc 1 895 18 is_stmt 0
	lbu	a5,11(s0)
	.loc 1 895 13
	sb	a5,11(a0)
	.loc 1 896 3 is_stmt 1
	.loc 1 896 18 is_stmt 0
	lbu	a5,10(s0)
	.loc 1 896 13
	sb	a5,10(a0)
	.loc 1 900 3 is_stmt 1
	.loc 1 900 43 is_stmt 0
	lw	a5,0(s0)
	.loc 1 900 26
	sw	a5,0(a0)
	.loc 1 901 3 is_stmt 1
	.loc 1 901 6 is_stmt 0
	lhu	a5,26(s0)
	beq	a5,zero,.L68
	.loc 1 902 5 is_stmt 1
	.loc 1 902 10
	.loc 1 902 32 is_stmt 0
	lui	a4,%hi(tcp_bound_pcbs)
	lw	a5,%lo(tcp_bound_pcbs)(a4)
	.loc 1 902 12
	bne	a5,s0,.L69
	.loc 1 902 44 is_stmt 1 discriminator 1
	.loc 1 902 65 is_stmt 0 discriminator 1
	lw	a5,12(s0)
	sw	a5,%lo(tcp_bound_pcbs)(a4)
.L70:
	.loc 1 902 120 is_stmt 1 discriminator 10
	.loc 1 902 132 is_stmt 0 discriminator 10
	sw	zero,12(s0)
.L68:
	.loc 1 902 13 is_stmt 1 discriminator 11
	.loc 1 908 3 discriminator 11
	mv	a0,s0
	call	tcp_free
.LVL54:
	.loc 1 910 3 discriminator 11
	.loc 1 910 16 is_stmt 0 discriminator 11
	lui	a5,%hi(tcp_accept_null)
	addi	a5,a5,%lo(tcp_accept_null)
	sw	a5,28(s1)
	.loc 1 916 3 is_stmt 1 discriminator 11
	.loc 1 916 8 discriminator 11
	.loc 1 916 41 is_stmt 0 discriminator 11
	lui	a5,%hi(tcp_listen_pcbs)
	.loc 1 916 39 discriminator 11
	lw	a4,%lo(tcp_listen_pcbs)(a5)
	.loc 1 916 90 discriminator 11
	sw	s1,%lo(tcp_listen_pcbs)(a5)
	.loc 1 916 39 discriminator 11
	sw	a4,12(s1)
	.loc 1 916 65 is_stmt 1 discriminator 11
	.loc 1 916 118 discriminator 11
	call	tcp_timer_needed
.LVL55:
	.loc 1 916 146 discriminator 11
	.loc 1 917 3 discriminator 11
	.loc 1 917 7 is_stmt 0 discriminator 11
	li	a5,0
.LVL56:
.L63:
	.loc 1 919 3 is_stmt 1
	.loc 1 919 6 is_stmt 0
	beq	s2,zero,.L62
	.loc 1 920 5 is_stmt 1
	.loc 1 920 10 is_stmt 0
	sb	a5,0(s2)
	.loc 1 922 3 is_stmt 1
.L62:
	.loc 1 923 1 is_stmt 0
	lw	ra,12(sp)
	.cfi_remember_state
	.cfi_restore 1
	lw	s0,8(sp)
	.cfi_restore 8
	lw	s2,0(sp)
	.cfi_restore 18
.LVL57:
	mv	a0,s1
	lw	s1,4(sp)
	.cfi_restore 9
.LVL58:
	addi	sp,sp,16
	.cfi_def_cfa_offset 0
	jr	ra
.LVL59:
.L67:
	.cfi_restore_state
	.loc 1 874 7 is_stmt 1
	.loc 1 874 10 is_stmt 0
	lhu	a3,26(a5)
	lhu	a4,26(s0)
	bne	a3,a4,.L66
	.loc 1 874 49 discriminator 1
	lw	a3,0(a5)
	lw	a4,0(s0)
	beq	a3,a4,.L75
.L66:
	.loc 1 873 59 is_stmt 1 discriminator 2
	.loc 1 873 64 is_stmt 0 discriminator 2
	lw	a5,12(a5)
.LVL60:
	j	.L65
.LVL61:
.L77:
.LBB2:
	mv	a5,a4
.LVL62:
.L69:
	.loc 1 902 168 is_stmt 1 discriminator 8
	.loc 1 902 131 is_stmt 0 discriminator 8
	beq	a5,zero,.L70
	.loc 1 902 41 is_stmt 1 discriminator 9
	.loc 1 902 55 is_stmt 0 discriminator 9
	lw	a4,12(a5)
	.loc 1 902 43 discriminator 9
	bne	a4,s0,.L77
	.loc 1 902 74 is_stmt 1 discriminator 5
	.loc 1 902 99 is_stmt 0 discriminator 5
	lw	a4,12(s0)
	.loc 1 902 92 discriminator 5
	sw	a4,12(a5)
	.loc 1 902 107 is_stmt 1 discriminator 5
	.loc 1 902 4 is_stmt 0 discriminator 5
	j	.L70
.LVL63:
.L73:
.LBE2:
	.loc 1 852 26
	li	s1,0
	.loc 1 859 13
	li	a5,-16
	j	.L63
.LVL64:
.L74:
	.loc 1 860 45
	li	a5,-15
.LVL65:
.L89:
	.loc 1 877 14
	li	s1,0
	j	.L63
.LVL66:
.L75:
	.loc 1 878 13
	li	a5,-8
.LVL67:
	j	.L89
	.cfi_endproc
.LFE21:
	.size	tcp_listen_with_backlog_and_err, .-tcp_listen_with_backlog_and_err
	.section	.text.tcp_listen_with_backlog,"ax",@progbits
	.align	1
	.globl	tcp_listen_with_backlog
	.type	tcp_listen_with_backlog, @function
tcp_listen_with_backlog:
.LFB20:
	.loc 1 828 1 is_stmt 1
	.cfi_startproc
.LVL68:
	.loc 1 829 3
	.loc 1 830 3
	.loc 1 830 10 is_stmt 0
	li	a2,0
	tail	tcp_listen_with_backlog_and_err
.LVL69:
	.cfi_endproc
.LFE20:
	.size	tcp_listen_with_backlog, .-tcp_listen_with_backlog
	.section	.text.tcp_update_rcv_ann_wnd,"ax",@progbits
	.align	1
	.globl	tcp_update_rcv_ann_wnd
	.type	tcp_update_rcv_ann_wnd, @function
tcp_update_rcv_ann_wnd:
.LFB22:
	.loc 1 933 1 is_stmt 1
	.cfi_startproc
.LVL70:
	.loc 1 934 3
	.loc 1 936 3
	.loc 1 936 8
	.loc 1 936 7
	.loc 1 936 17
	.loc 1 937 3
	.loc 1 933 1 is_stmt 0
	mv	a5,a0
	.loc 1 939 142
	lhu	a4,54(a5)
	.loc 1 937 38
	lhu	a6,44(a0)
	.loc 1 939 53
	lw	a3,48(a0)
	.loc 1 937 23
	lw	a1,40(a0)
.LVL71:
	.loc 1 939 3 is_stmt 1
	.loc 1 939 142 is_stmt 0
	slli	a7,a4,16
	li	a2,4096
	sub	a0,a6,a3
.LVL72:
	srli	a7,a7,16
	addi	a2,a2,-1906
	add	a0,a0,a1
	bleu	a7,a2,.L93
	mv	a4,a2
.L93:
	slli	a4,a4,16
	srli	a4,a4,16
	.loc 1 939 40
	sub	a4,a0,a4
	.loc 1 939 6
	blt	a4,zero,.L92
	.loc 1 941 5 is_stmt 1
	.loc 1 941 22 is_stmt 0
	sh	a6,46(a5)
	.loc 1 942 5 is_stmt 1
	.loc 1 942 27 is_stmt 0
	ret
.L92:
	.loc 1 944 5 is_stmt 1
	.loc 1 944 40 is_stmt 0
	sub	a4,a1,a3
	.loc 1 944 8
	ble	a4,zero,.L95
	.loc 1 947 7 is_stmt 1
	.loc 1 947 24 is_stmt 0
	sh	zero,46(a5)
.L96:
	.loc 1 956 12
	li	a0,0
	.loc 1 958 1
	ret
.L95:
.LBB3:
	.loc 1 950 7 is_stmt 1
.LVL73:
	.loc 1 952 7
	.loc 1 952 12
	.loc 1 952 48
	.loc 1 952 58
	.loc 1 954 7
	.loc 1 950 13 is_stmt 0
	sub	a3,a3,a1
.LVL74:
	.loc 1 954 26
	sh	a3,46(a5)
	j	.L96
.LBE3:
	.cfi_endproc
.LFE22:
	.size	tcp_update_rcv_ann_wnd, .-tcp_update_rcv_ann_wnd
	.section	.text.tcp_recved,"ax",@progbits
	.align	1
	.globl	tcp_recved
	.type	tcp_recved, @function
tcp_recved:
.LFB23:
	.loc 1 971 1 is_stmt 1
	.cfi_startproc
.LVL75:
	.loc 1 972 3
	.loc 1 973 3
	.loc 1 975 3
	.loc 1 977 3
	.loc 1 977 8
	.loc 1 977 11 is_stmt 0
	beq	a0,zero,.L104
	.loc 1 971 1 discriminator 2
	addi	sp,sp,-16
	.cfi_def_cfa_offset 16
	sw	s0,8(sp)
	sw	ra,12(sp)
	.cfi_offset 8, -8
	.cfi_offset 1, -4
	.loc 1 983 32 discriminator 2
	lhu	a4,44(a0)
	.loc 1 984 6 discriminator 2
	li	a5,4096
	addi	a5,a5,284
	.loc 1 983 11 discriminator 2
	add	a1,a4,a1
.LVL76:
	slli	a1,a1,16
	srli	a1,a1,16
	mv	s0,a0
	.loc 1 977 24 is_stmt 1 discriminator 2
	.loc 1 980 3 discriminator 2
	.loc 1 980 8 discriminator 2
	.loc 1 980 39 discriminator 2
	.loc 1 980 49 discriminator 2
	.loc 1 983 3 discriminator 2
.LVL77:
	.loc 1 984 3 discriminator 2
	.loc 1 984 6 is_stmt 0 discriminator 2
	bgtu	a1,a5,.L102
	.loc 1 984 35 discriminator 1
	bleu	a4,a1,.L100
.L102:
	.loc 1 987 18
	mv	a1,a5
.LVL78:
.L100:
	sh	a1,44(s0)
	.loc 1 992 3 is_stmt 1
	.loc 1 992 19 is_stmt 0
	mv	a0,s0
.LVL79:
	call	tcp_update_rcv_ann_wnd
.LVL80:
	.loc 1 998 3 is_stmt 1
	.loc 1 998 6 is_stmt 0
	li	a5,4096
	addi	a5,a5,-1907
	bleu	a0,a5,.L97
.LVL81:
.LBB6:
.LBB7:
	.loc 1 999 5 is_stmt 1
	.loc 1 999 10
	.loc 1 999 25 is_stmt 0
	lhu	a5,30(s0)
	.loc 1 1000 5
	mv	a0,s0
.LVL82:
	.loc 1 999 25
	ori	a5,a5,2
	.loc 1 999 23
	sh	a5,30(s0)
	.loc 1 999 70 is_stmt 1
	.loc 1 1000 5
.LBE7:
.LBE6:
	.loc 1 1005 1 is_stmt 0
	lw	s0,8(sp)
	.cfi_remember_state
	.cfi_restore 8
.LVL83:
	lw	ra,12(sp)
	.cfi_restore 1
	addi	sp,sp,16
	.cfi_def_cfa_offset 0
.LBB9:
.LBB8:
	.loc 1 1000 5
	tail	tcp_output
.LVL84:
.L97:
	.cfi_restore_state
.LBE8:
.LBE9:
	.loc 1 1005 1
	lw	ra,12(sp)
	.cfi_restore 1
	lw	s0,8(sp)
	.cfi_restore 8
.LVL85:
	addi	sp,sp,16
	.cfi_def_cfa_offset 0
	jr	ra
.LVL86:
.L104:
	ret
	.cfi_endproc
.LFE23:
	.size	tcp_recved, .-tcp_recved
	.section	.text.tcp_txnow,"ax",@progbits
	.align	1
	.globl	tcp_txnow
	.type	tcp_txnow, @function
tcp_txnow:
.LFB28:
	.loc 1 1537 1 is_stmt 1
	.cfi_startproc
	.loc 1 1538 3
	.loc 1 1540 3
	.loc 1 1537 1 is_stmt 0
	addi	sp,sp,-16
	.cfi_def_cfa_offset 16
	.loc 1 1540 12
	lui	a5,%hi(tcp_active_pcbs)
	.loc 1 1537 1
	sw	s0,8(sp)
	.cfi_offset 8, -8
	.loc 1 1540 12
	lw	s0,%lo(tcp_active_pcbs)(a5)
.LVL87:
	.loc 1 1537 1
	sw	ra,12(sp)
	.cfi_offset 1, -4
.L108:
	.loc 1 1540 31 is_stmt 1 discriminator 1
	.loc 1 1540 3 is_stmt 0 discriminator 1
	bne	s0,zero,.L110
	.loc 1 1545 1
	lw	ra,12(sp)
	.cfi_remember_state
	.cfi_restore 1
	lw	s0,8(sp)
	.cfi_restore 8
.LVL88:
	addi	sp,sp,16
	.cfi_def_cfa_offset 0
	jr	ra
.LVL89:
.L110:
	.cfi_restore_state
	.loc 1 1541 5 is_stmt 1
	.loc 1 1541 8 is_stmt 0
	lhu	a5,30(s0)
	andi	a5,a5,128
	beq	a5,zero,.L109
	.loc 1 1542 7 is_stmt 1
	mv	a0,s0
	call	tcp_output
.LVL90:
.L109:
	.loc 1 1540 43 discriminator 2
	.loc 1 1540 47 is_stmt 0 discriminator 2
	lw	s0,12(s0)
.LVL91:
	j	.L108
	.cfi_endproc
.LFE28:
	.size	tcp_txnow, .-tcp_txnow
	.section	.text.tcp_seg_free,"ax",@progbits
	.align	1
	.globl	tcp_seg_free
	.type	tcp_seg_free, @function
tcp_seg_free:
.LFB31:
	.loc 1 1634 1 is_stmt 1
	.cfi_startproc
.LVL92:
	.loc 1 1635 3
	.loc 1 1635 6 is_stmt 0
	beq	a0,zero,.L115
	mv	a1,a0
	.loc 1 1636 5 is_stmt 1
	.loc 1 1636 12 is_stmt 0
	lw	a0,4(a0)
.LVL93:
	.loc 1 1636 8
	beq	a0,zero,.L122
	.loc 1 1634 1
	addi	sp,sp,-32
	.cfi_def_cfa_offset 32
	sw	ra,28(sp)
	.cfi_offset 1, -4
	sw	a1,12(sp)
	.loc 1 1637 7 is_stmt 1
	call	pbuf_free
.LVL94:
	lw	a1,12(sp)
	.loc 1 1642 5
	.loc 1 1644 1 is_stmt 0
	lw	ra,28(sp)
	.cfi_restore 1
	.loc 1 1642 5
	li	a0,4
	.loc 1 1644 1
	addi	sp,sp,32
	.cfi_def_cfa_offset 0
.LVL95:
.L125:
	.loc 1 1642 5
	tail	memp_free
.LVL96:
.L115:
	ret
.LVL97:
.L122:
	.loc 1 1642 5 is_stmt 1
	li	a0,4
	j	.L125
	.cfi_endproc
.LFE31:
	.size	tcp_seg_free, .-tcp_seg_free
	.section	.text.tcp_segs_free,"ax",@progbits
	.align	1
	.globl	tcp_segs_free
	.type	tcp_segs_free, @function
tcp_segs_free:
.LFB30:
	.loc 1 1619 1
	.cfi_startproc
.LVL98:
	.loc 1 1620 3
	.loc 1 1620 9
	bne	a0,zero,.L131
	ret
.L131:
	.loc 1 1619 1 is_stmt 0
	addi	sp,sp,-16
	.cfi_def_cfa_offset 16
	sw	ra,12(sp)
	sw	s0,8(sp)
	.cfi_offset 1, -4
	.cfi_offset 8, -8
.L128:
.LBB10:
	.loc 1 1621 5 is_stmt 1
	.loc 1 1621 21 is_stmt 0
	lw	s0,0(a0)
.LVL99:
	.loc 1 1622 5 is_stmt 1
	call	tcp_seg_free
.LVL100:
	.loc 1 1623 5
	.loc 1 1623 9 is_stmt 0
	mv	a0,s0
.LBE10:
	.loc 1 1620 9 is_stmt 1
	bne	s0,zero,.L128
	.loc 1 1625 1 is_stmt 0
	lw	ra,12(sp)
	.cfi_restore 1
	lw	s0,8(sp)
	.cfi_restore 8
.LVL101:
	addi	sp,sp,16
	.cfi_def_cfa_offset 0
	jr	ra
	.cfi_endproc
.LFE30:
	.size	tcp_segs_free, .-tcp_segs_free
	.section	.text.tcp_setprio,"ax",@progbits
	.align	1
	.globl	tcp_setprio
	.type	tcp_setprio, @function
tcp_setprio:
.LFB32:
	.loc 1 1655 1 is_stmt 1
	.cfi_startproc
.LVL102:
	.loc 1 1656 3
	.loc 1 1658 3
	.loc 1 1658 8
	.loc 1 1658 11 is_stmt 0
	beq	a0,zero,.L132
	.loc 1 1658 24 is_stmt 1 discriminator 2
	.loc 1 1660 3 discriminator 2
	.loc 1 1660 13 is_stmt 0 discriminator 2
	sb	a1,24(a0)
.L132:
	.loc 1 1661 1
	ret
	.cfi_endproc
.LFE32:
	.size	tcp_setprio, .-tcp_setprio
	.section	.text.tcp_seg_copy,"ax",@progbits
	.align	1
	.globl	tcp_seg_copy
	.type	tcp_seg_copy, @function
tcp_seg_copy:
.LFB33:
	.loc 1 1673 1 is_stmt 1
	.cfi_startproc
.LVL103:
	.loc 1 1674 3
	.loc 1 1676 3
	.loc 1 1676 8
	.loc 1 1676 7
	.loc 1 1676 17
	.loc 1 1678 3
	.loc 1 1673 1 is_stmt 0
	addi	sp,sp,-32
	.cfi_def_cfa_offset 32
	sw	a0,12(sp)
	.loc 1 1678 28
	li	a0,4
.LVL104:
	.loc 1 1673 1
	sw	s0,24(sp)
	sw	ra,28(sp)
	.cfi_offset 8, -8
	.cfi_offset 1, -4
	.loc 1 1678 28
	call	memp_malloc
.LVL105:
	mv	s0,a0
.LVL106:
	.loc 1 1679 3 is_stmt 1
	.loc 1 1679 6 is_stmt 0
	beq	a0,zero,.L137
	.loc 1 1682 3 is_stmt 1
	lw	a1,12(sp)
	li	a2,20
	call	memcpy
.LVL107:
	.loc 1 1683 3
	lw	a0,4(s0)
	call	pbuf_ref
.LVL108:
	.loc 1 1684 3
.L137:
	.loc 1 1685 1 is_stmt 0
	lw	ra,28(sp)
	.cfi_restore 1
	mv	a0,s0
	lw	s0,24(sp)
	.cfi_restore 8
.LVL109:
	addi	sp,sp,32
	.cfi_def_cfa_offset 0
.LVL110:
	jr	ra
	.cfi_endproc
.LFE33:
	.size	tcp_seg_copy, .-tcp_seg_copy
	.section	.text.tcp_arg,"ax",@progbits
	.align	1
	.globl	tcp_arg
	.type	tcp_arg, @function
tcp_arg:
.LFB42:
	.loc 1 1999 1 is_stmt 1
	.cfi_startproc
.LVL111:
	.loc 1 2000 3
	.loc 1 2003 3
	.loc 1 2003 6 is_stmt 0
	beq	a0,zero,.L143
	.loc 1 2004 5 is_stmt 1
	.loc 1 2004 23 is_stmt 0
	sw	a1,16(a0)
.L143:
	.loc 1 2006 1
	ret
	.cfi_endproc
.LFE42:
	.size	tcp_arg, .-tcp_arg
	.section	.text.tcp_recv,"ax",@progbits
	.align	1
	.globl	tcp_recv
	.type	tcp_recv, @function
tcp_recv:
.LFB43:
	.loc 1 2022 1 is_stmt 1
	.cfi_startproc
.LVL112:
	.loc 1 2023 3
	.loc 1 2024 3
	.loc 1 2024 6 is_stmt 0
	beq	a0,zero,.L148
	.loc 1 2025 5 is_stmt 1
	.loc 1 2025 10
	.loc 1 2025 41
	.loc 1 2025 51
	.loc 1 2026 5
	.loc 1 2026 15 is_stmt 0
	sw	a1,136(a0)
.L148:
	.loc 1 2028 1
	ret
	.cfi_endproc
.LFE43:
	.size	tcp_recv, .-tcp_recv
	.section	.text.tcp_sent,"ax",@progbits
	.align	1
	.globl	tcp_sent
	.type	tcp_sent, @function
tcp_sent:
.LFB44:
	.loc 1 2042 1 is_stmt 1
	.cfi_startproc
.LVL113:
	.loc 1 2043 3
	.loc 1 2044 3
	.loc 1 2044 6 is_stmt 0
	beq	a0,zero,.L153
	.loc 1 2045 5 is_stmt 1
	.loc 1 2045 10
	.loc 1 2045 41
	.loc 1 2045 51
	.loc 1 2046 5
	.loc 1 2046 15 is_stmt 0
	sw	a1,132(a0)
.L153:
	.loc 1 2048 1
	ret
	.cfi_endproc
.LFE44:
	.size	tcp_sent, .-tcp_sent
	.section	.text.tcp_err,"ax",@progbits
	.align	1
	.globl	tcp_err
	.type	tcp_err, @function
tcp_err:
.LFB45:
	.loc 1 2068 1 is_stmt 1
	.cfi_startproc
.LVL114:
	.loc 1 2069 3
	.loc 1 2070 3
	.loc 1 2070 6 is_stmt 0
	beq	a0,zero,.L158
	.loc 1 2071 5 is_stmt 1
	.loc 1 2071 10
	.loc 1 2071 41
	.loc 1 2071 51
	.loc 1 2072 5
	.loc 1 2072 15 is_stmt 0
	sw	a1,148(a0)
.L158:
	.loc 1 2074 1
	ret
	.cfi_endproc
.LFE45:
	.size	tcp_err, .-tcp_err
	.section	.text.tcp_accept,"ax",@progbits
	.align	1
	.globl	tcp_accept
	.type	tcp_accept, @function
tcp_accept:
.LFB46:
	.loc 1 2087 1 is_stmt 1
	.cfi_startproc
.LVL115:
	.loc 1 2088 3
	.loc 1 2089 3
	.loc 1 2089 6 is_stmt 0
	beq	a0,zero,.L163
	.loc 1 2089 20 discriminator 1
	lw	a4,20(a0)
	li	a5,1
	bne	a4,a5,.L163
.LBB11:
	.loc 1 2090 5 is_stmt 1
.LVL116:
	.loc 1 2091 5
	.loc 1 2091 18 is_stmt 0
	sw	a1,28(a0)
.LVL117:
.L163:
.LBE11:
	.loc 1 2093 1
	ret
	.cfi_endproc
.LFE46:
	.size	tcp_accept, .-tcp_accept
	.section	.text.tcp_poll,"ax",@progbits
	.align	1
	.globl	tcp_poll
	.type	tcp_poll, @function
tcp_poll:
.LFB47:
	.loc 1 2116 1 is_stmt 1
	.cfi_startproc
.LVL118:
	.loc 1 2117 3
	.loc 1 2119 3
	.loc 1 2119 8
	.loc 1 2119 11 is_stmt 0
	beq	a0,zero,.L168
	.loc 1 2119 24 is_stmt 1 discriminator 2
	.loc 1 2120 3 discriminator 2
	.loc 1 2120 8 discriminator 2
	.loc 1 2120 39 discriminator 2
	.loc 1 2120 49 discriminator 2
	.loc 1 2123 3 discriminator 2
	.loc 1 2123 13 is_stmt 0 discriminator 2
	sw	a1,144(a0)
	.loc 1 2127 3 is_stmt 1 discriminator 2
	.loc 1 2127 21 is_stmt 0 discriminator 2
	sb	a2,33(a0)
.L168:
	.loc 1 2128 1
	ret
	.cfi_endproc
.LFE47:
	.size	tcp_poll, .-tcp_poll
	.section	.text.tcp_next_iss,"ax",@progbits
	.align	1
	.globl	tcp_next_iss
	.type	tcp_next_iss, @function
tcp_next_iss:
.LFB50:
	.loc 1 2226 1 is_stmt 1
	.cfi_startproc
.LVL119:
	.loc 1 2231 3
	.loc 1 2233 3
	.loc 1 2233 8
	.loc 1 2233 7
	.loc 1 2233 17
	.loc 1 2234 3
	.loc 1 2236 3
	.loc 1 2236 7 is_stmt 0
	lui	a5,%hi(.LANCHOR2)
	addi	a5,a5,%lo(.LANCHOR2)
	lui	a4,%hi(tcp_ticks)
	lw	a0,0(a5)
.LVL120:
	lw	a4,%lo(tcp_ticks)(a4)
	add	a0,a0,a4
	sw	a0,0(a5)
	.loc 1 2237 3 is_stmt 1
	.loc 1 2239 1 is_stmt 0
	ret
	.cfi_endproc
.LFE50:
	.size	tcp_next_iss, .-tcp_next_iss
	.section	.text.tcp_eff_send_mss_netif,"ax",@progbits
	.align	1
	.globl	tcp_eff_send_mss_netif
	.type	tcp_eff_send_mss_netif, @function
tcp_eff_send_mss_netif:
.LFB51:
	.loc 1 2249 1 is_stmt 1
	.cfi_startproc
.LVL121:
	.loc 1 2250 3
	.loc 1 2251 3
	.loc 1 2253 3
	.loc 1 2255 3
	.loc 1 2255 8
	.loc 1 2255 7
	.loc 1 2255 17
	.loc 1 2271 5
	.loc 1 2271 8 is_stmt 0
	beq	a1,zero,.L175
	.loc 1 2274 5 is_stmt 1
	.loc 1 2274 9 is_stmt 0
	lhu	a5,56(a1)
.LVL122:
	.loc 1 2278 3 is_stmt 1
	.loc 1 2278 6 is_stmt 0
	beq	a5,zero,.L175
.LBB12:
	.loc 1 2279 5 is_stmt 1
	.loc 1 2293 7
.LVL123:
	.loc 1 2296 5
	.loc 1 2296 11 is_stmt 0
	li	a3,40
	li	a4,0
	bleu	a5,a3,.L177
	.loc 1 2296 11 discriminator 1
	addi	a5,a5,-40
.LVL124:
	slli	a5,a5,16
.LVL125:
	srli	a5,a5,16
.LVL126:
	.loc 1 2301 5 is_stmt 1 discriminator 1
	.loc 1 2301 13 is_stmt 0 discriminator 1
	mv	a4,a5
	bleu	a5,a0,.L177
	.loc 1 2301 13 discriminator 4
	mv	a4,a0
.LVL127:
.L177:
	slli	a0,a4,16
.LVL128:
	srli	a0,a0,16
.LVL129:
.L175:
.LBE12:
	.loc 1 2304 1
	ret
	.cfi_endproc
.LFE51:
	.size	tcp_eff_send_mss_netif, .-tcp_eff_send_mss_netif
	.section	.text.tcp_connect,"ax",@progbits
	.align	1
	.globl	tcp_connect
	.type	tcp_connect, @function
tcp_connect:
.LFB25:
	.loc 1 1071 1 is_stmt 1
	.cfi_startproc
.LVL130:
	.loc 1 1072 3
	.loc 1 1073 3
	.loc 1 1074 3
	.loc 1 1075 3
	.loc 1 1077 3
	.loc 1 1079 3
	.loc 1 1079 8
	.loc 1 1071 1 is_stmt 0
	addi	sp,sp,-32
	.cfi_def_cfa_offset 32
	sw	s1,20(sp)
	sw	ra,28(sp)
	sw	s0,24(sp)
	sw	s2,16(sp)
	sw	s3,12(sp)
	sw	s4,8(sp)
	sw	s5,4(sp)
	sw	s6,0(sp)
	.cfi_offset 9, -12
	.cfi_offset 1, -4
	.cfi_offset 8, -8
	.cfi_offset 18, -16
	.cfi_offset 19, -20
	.cfi_offset 20, -24
	.cfi_offset 21, -28
	.cfi_offset 22, -32
	.loc 1 1079 16
	li	s1,-16
	.loc 1 1079 11
	beq	a0,zero,.L186
	mv	s3,a1
	.loc 1 1079 32 is_stmt 1 discriminator 2
	.loc 1 1080 3 discriminator 2
	.loc 1 1080 8 discriminator 2
	.loc 1 1079 16 is_stmt 0 discriminator 2
	li	s1,-16
	.loc 1 1080 11 discriminator 2
	beq	a1,zero,.L186
	.loc 1 1082 11 discriminator 2
	lw	a5,20(a0)
	mv	s0,a0
	.loc 1 1080 32 is_stmt 1 discriminator 2
	.loc 1 1082 3 discriminator 2
	.loc 1 1082 8 discriminator 2
	.loc 1 1082 48 is_stmt 0 discriminator 2
	li	s1,-10
	.loc 1 1082 11 discriminator 2
	bne	a5,zero,.L186
	.loc 1 1085 6 discriminator 1
	lw	a5,0(a1)
	.loc 1 1086 20 discriminator 1
	sh	a2,28(a0)
	mv	s4,a2
	.loc 1 1085 28 discriminator 1
	sw	a5,4(a0)
	.loc 1 1088 10 discriminator 1
	lbu	a0,8(a0)
.LVL131:
	mv	s6,a3
	.loc 1 1082 67 is_stmt 1 discriminator 1
	.loc 1 1084 3 discriminator 1
	.loc 1 1085 3 discriminator 1
	.loc 1 1086 3 discriminator 1
	.loc 1 1088 3 discriminator 1
	.loc 1 1088 6 is_stmt 0 discriminator 1
	beq	a0,zero,.L187
	.loc 1 1089 5 is_stmt 1
	.loc 1 1089 13 is_stmt 0
	call	netif_get_by_index
.LVL132:
.L218:
	.loc 1 1092 13
	mv	s2,a0
.LVL133:
	.loc 1 1094 3 is_stmt 1
	.loc 1 1096 12 is_stmt 0
	li	s1,-4
	.loc 1 1094 6
	beq	a0,zero,.L186
	.loc 1 1100 3 is_stmt 1
	.loc 1 1100 6 is_stmt 0
	lw	a5,0(s0)
	bne	a5,zero,.L189
.LBB13:
	.loc 1 1101 5 is_stmt 1 discriminator 1
.LVL134:
	.loc 1 1102 5 discriminator 1
	.loc 1 1105 5 discriminator 1
	.loc 1 1105 40 is_stmt 0 discriminator 1
	lw	a5,4(a0)
	.loc 1 1105 27 discriminator 1
	sw	a5,0(s0)
.LVL135:
.L189:
.LBE13:
	.loc 1 1117 3 is_stmt 1
	.loc 1 1117 18 is_stmt 0
	lhu	s5,26(s0)
.LVL136:
	.loc 1 1118 3 is_stmt 1
	.loc 1 1118 6 is_stmt 0
	bne	s5,zero,.L190
	.loc 1 1119 5 is_stmt 1
	.loc 1 1119 23 is_stmt 0
	call	tcp_new_port
.LVL137:
	.loc 1 1119 21
	sh	a0,26(s0)
	.loc 1 1120 5 is_stmt 1
	.loc 1 1121 14 is_stmt 0
	li	s1,-2
	.loc 1 1120 8
	bne	a0,zero,.L191
.LVL138:
.L186:
	.loc 1 1184 1
	lw	ra,28(sp)
	.cfi_remember_state
	.cfi_restore 1
	lw	s0,24(sp)
	.cfi_restore 8
	lw	s2,16(sp)
	.cfi_restore 18
	lw	s3,12(sp)
	.cfi_restore 19
	lw	s4,8(sp)
	.cfi_restore 20
	lw	s5,4(sp)
	.cfi_restore 21
	lw	s6,0(sp)
	.cfi_restore 22
	mv	a0,s1
	lw	s1,20(sp)
	.cfi_restore 9
	addi	sp,sp,32
	.cfi_def_cfa_offset 0
	jr	ra
.LVL139:
.L187:
	.cfi_restore_state
	.loc 1 1092 5 is_stmt 1
	.loc 1 1092 13 is_stmt 0
	addi	a0,s0,4
	call	ip4_route
.LVL140:
	j	.L218
.LVL141:
.L190:
	.loc 1 1125 5 is_stmt 1
	.loc 1 1125 8 is_stmt 0
	lbu	a5,9(s0)
	andi	a5,a5,4
	beq	a5,zero,.L191
.LVL142:
.LBB14:
	.loc 1 1132 9 is_stmt 1
	.loc 1 1132 19 is_stmt 0
	lui	a5,%hi(tcp_active_pcbs)
	lw	a5,%lo(tcp_active_pcbs)(a5)
.LVL143:
.L194:
	.loc 1 1132 40 is_stmt 1
	.loc 1 1132 9 is_stmt 0
	beq	a5,zero,.L192
	.loc 1 1133 11 is_stmt 1
	.loc 1 1133 14 is_stmt 0
	lhu	a4,26(a5)
	beq	a4,s5,.L193
.L195:
	.loc 1 1132 53 is_stmt 1
	.loc 1 1132 58 is_stmt 0
	lw	a5,12(a5)
.LVL144:
	j	.L194
.L193:
	.loc 1 1133 53
	lhu	a4,28(a5)
	bne	a4,s4,.L195
	.loc 1 1134 43
	lw	a3,0(a5)
	lw	a4,0(s0)
	bne	a3,a4,.L195
	.loc 1 1135 67
	lw	a3,4(a5)
	lw	a4,0(s3)
	bne	a3,a4,.L195
.LVL145:
.L208:
	.loc 1 1138 20
	li	s1,-8
	j	.L186
.LVL146:
.L192:
	.loc 1 1131 26 is_stmt 1
	.loc 1 1131 19
	.loc 1 1132 9
	.loc 1 1132 19 is_stmt 0
	lui	a5,%hi(tcp_tw_pcbs)
.LVL147:
	lw	a5,%lo(tcp_tw_pcbs)(a5)
.LVL148:
.L196:
	.loc 1 1132 40 is_stmt 1 discriminator 1
	.loc 1 1132 9 is_stmt 0 discriminator 1
	bne	a5,zero,.L198
.LVL149:
.L191:
.LBE14:
	.loc 1 1146 3 is_stmt 1
	.loc 1 1146 9 is_stmt 0
	mv	a0,s0
	call	tcp_next_iss
.LVL150:
	.loc 1 1147 3 is_stmt 1
	.loc 1 1148 3
	.loc 1 1154 16 is_stmt 0
	li	a5,287051776
	addi	a5,a5,284
	sw	a5,44(s0)
	.loc 1 1156 16
	li	a5,4096
	addi	a5,a5,284
	.loc 1 1148 16
	sw	a0,84(s0)
	.loc 1 1149 3 is_stmt 1
	.loc 1 1156 16 is_stmt 0
	sh	a5,100(s0)
	.loc 1 1149 22
	addi	a0,a0,-1
.LVL151:
	.loc 1 1159 12
	li	a5,536
	.loc 1 1149 16
	sw	a0,72(s0)
	.loc 1 1150 3 is_stmt 1
	.loc 1 1150 16 is_stmt 0
	sw	a0,92(s0)
	.loc 1 1151 3 is_stmt 1
	.loc 1 1151 16 is_stmt 0
	sw	a0,96(s0)
	.loc 1 1154 3 is_stmt 1
	.loc 1 1155 3
	.loc 1 1159 12 is_stmt 0
	sh	a5,54(s0)
	.loc 1 1161 14
	addi	a2,s0,4
	mv	a1,s2
	.loc 1 1147 16
	sw	zero,40(s0)
	.loc 1 1155 27
	sw	zero,48(s0)
	.loc 1 1156 3 is_stmt 1
	.loc 1 1159 3
	.loc 1 1161 3
	.loc 1 1161 14 is_stmt 0
	li	a0,536
	call	tcp_eff_send_mss_netif
.LVL152:
	.loc 1 1163 13
	li	a5,1
	.loc 1 1161 12
	sh	a0,54(s0)
	.loc 1 1163 3 is_stmt 1
	.loc 1 1163 13 is_stmt 0
	sh	a5,76(s0)
	.loc 1 1165 3 is_stmt 1
	.loc 1 1165 18 is_stmt 0
	sw	s6,140(s0)
	.loc 1 1171 3 is_stmt 1
	.loc 1 1171 9 is_stmt 0
	li	a1,2
	mv	a0,s0
	call	tcp_enqueue_flags
.LVL153:
	mv	s1,a0
.LVL154:
	.loc 1 1172 3 is_stmt 1
	.loc 1 1172 6 is_stmt 0
	bne	a0,zero,.L186
	.loc 1 1174 5 is_stmt 1
	.loc 1 1174 16 is_stmt 0
	li	a5,2
	sw	a5,20(s0)
	.loc 1 1175 5 is_stmt 1
	.loc 1 1175 8 is_stmt 0
	beq	s5,zero,.L199
	.loc 1 1176 7 is_stmt 1
	.loc 1 1176 12
	.loc 1 1176 34 is_stmt 0
	lui	a4,%hi(tcp_bound_pcbs)
	lw	a5,%lo(tcp_bound_pcbs)(a4)
	.loc 1 1176 14
	bne	a5,s0,.L200
	.loc 1 1176 46 is_stmt 1 discriminator 1
	.loc 1 1176 67 is_stmt 0 discriminator 1
	lw	a5,12(s0)
	sw	a5,%lo(tcp_bound_pcbs)(a4)
.L199:
	.loc 1 1176 15 is_stmt 1 discriminator 11
	.loc 1 1178 5 discriminator 11
	.loc 1 1178 10 discriminator 11
	.loc 1 1178 15 discriminator 11
	.loc 1 1178 27 is_stmt 0 discriminator 11
	lui	a5,%hi(tcp_active_pcbs)
	lw	a4,%lo(tcp_active_pcbs)(a5)
	.loc 1 1178 68 discriminator 11
	sw	s0,%lo(tcp_active_pcbs)(a5)
	.loc 1 1178 27 discriminator 11
	sw	a4,12(s0)
	.loc 1 1178 48 is_stmt 1 discriminator 11
	.loc 1 1178 77 discriminator 11
	call	tcp_timer_needed
.LVL155:
	.loc 1 1178 105 discriminator 11
	.loc 1 1178 110 discriminator 11
	.loc 1 1178 134 is_stmt 0 discriminator 11
	lui	a5,%hi(tcp_active_pcbs_changed)
	li	a4,1
	.loc 1 1181 5 discriminator 11
	mv	a0,s0
	.loc 1 1178 134 discriminator 11
	sb	a4,%lo(tcp_active_pcbs_changed)(a5)
	.loc 1 1178 147 is_stmt 1 discriminator 11
	.loc 1 1179 5 discriminator 11
	.loc 1 1181 5 discriminator 11
	call	tcp_output
.LVL156:
	j	.L186
.LVL157:
.L198:
.LBB15:
	.loc 1 1133 11
	.loc 1 1133 14 is_stmt 0
	lhu	a4,26(a5)
	bne	a4,s5,.L197
	.loc 1 1133 53 discriminator 1
	lhu	a4,28(a5)
	bne	a4,s4,.L197
	.loc 1 1134 43
	lw	a3,0(a5)
	lw	a4,0(s0)
	bne	a3,a4,.L197
	.loc 1 1135 67
	lw	a3,4(a5)
	lw	a4,0(s3)
	beq	a3,a4,.L208
.L197:
	.loc 1 1132 53 is_stmt 1 discriminator 2
	.loc 1 1132 58 is_stmt 0 discriminator 2
	lw	a5,12(a5)
.LVL158:
	j	.L196
.LVL159:
.L209:
.LBE15:
.LBB16:
	mv	a5,a4
.LVL160:
.L200:
	.loc 1 1176 170 is_stmt 1 discriminator 8
	.loc 1 1176 133 is_stmt 0 discriminator 8
	beq	a5,zero,.L199
	.loc 1 1176 43 is_stmt 1 discriminator 9
	.loc 1 1176 57 is_stmt 0 discriminator 9
	lw	a4,12(a5)
	.loc 1 1176 45 discriminator 9
	bne	a4,s0,.L209
	.loc 1 1176 76 is_stmt 1 discriminator 5
	.loc 1 1176 101 is_stmt 0 discriminator 5
	lw	a4,12(s0)
	.loc 1 1176 94 discriminator 5
	sw	a4,12(a5)
	.loc 1 1176 109 is_stmt 1 discriminator 5
	.loc 1 1176 6 is_stmt 0 discriminator 5
	j	.L199
.LBE16:
	.cfi_endproc
.LFE25:
	.size	tcp_connect, .-tcp_connect
	.section	.text.tcp_debug_state_str,"ax",@progbits
	.align	1
	.globl	tcp_debug_state_str
	.type	tcp_debug_state_str, @function
tcp_debug_state_str:
.LFB54:
	.loc 1 2365 1 is_stmt 1
	.cfi_startproc
.LVL161:
	.loc 1 2366 3
	.loc 1 2366 23 is_stmt 0
	slli	a5,a0,2
	lui	a0,%hi(.LANCHOR3)
.LVL162:
	addi	a0,a0,%lo(.LANCHOR3)
	add	a0,a0,a5
	.loc 1 2367 1
	lw	a0,0(a0)
	ret
	.cfi_endproc
.LFE54:
	.size	tcp_debug_state_str, .-tcp_debug_state_str
	.section	.text.tcp_tcp_get_tcp_addrinfo,"ax",@progbits
	.align	1
	.globl	tcp_tcp_get_tcp_addrinfo
	.type	tcp_tcp_get_tcp_addrinfo, @function
tcp_tcp_get_tcp_addrinfo:
.LFB55:
	.loc 1 2371 1 is_stmt 1
	.cfi_startproc
.LVL163:
	.loc 1 2372 3
	.loc 1 2372 6 is_stmt 0
	beq	a0,zero,.L227
	.loc 1 2373 5 is_stmt 1
	.loc 1 2373 8 is_stmt 0
	beq	a1,zero,.L222
	.loc 1 2374 7 is_stmt 1
	.loc 1 2374 10 is_stmt 0
	beq	a2,zero,.L223
	.loc 1 2375 9 is_stmt 1
	.loc 1 2375 15 is_stmt 0
	lw	a5,0(a0)
	sw	a5,0(a2)
.L223:
	.loc 1 2377 7 is_stmt 1
	.loc 1 2377 10 is_stmt 0
	bne	a3,zero,.L224
.L237:
	.loc 1 2388 12
	li	a0,0
.LVL164:
	ret
.LVL165:
.L224:
	.loc 1 2378 9 is_stmt 1
	.loc 1 2378 20 is_stmt 0
	lhu	a5,26(a0)
.L238:
	.loc 1 2378 15
	sh	a5,0(a3)
	j	.L237
.L222:
	.loc 1 2381 7 is_stmt 1
	.loc 1 2381 10 is_stmt 0
	beq	a2,zero,.L225
	.loc 1 2382 9 is_stmt 1
	.loc 1 2382 15 is_stmt 0
	lw	a5,4(a0)
	sw	a5,0(a2)
.L225:
	.loc 1 2384 7 is_stmt 1
	.loc 1 2384 10 is_stmt 0
	beq	a3,zero,.L237
	.loc 1 2385 9 is_stmt 1
	.loc 1 2385 20 is_stmt 0
	lhu	a5,28(a0)
	j	.L238
.L227:
	.loc 1 2390 10
	li	a0,-6
.LVL166:
	.loc 1 2391 1
	ret
	.cfi_endproc
.LFE55:
	.size	tcp_tcp_get_tcp_addrinfo, .-tcp_tcp_get_tcp_addrinfo
	.section	.text.tcp_free_ooseq,"ax",@progbits
	.align	1
	.globl	tcp_free_ooseq
	.type	tcp_free_ooseq, @function
tcp_free_ooseq:
.LFB56:
	.loc 1 2397 1 is_stmt 1
	.cfi_startproc
.LVL167:
	.loc 1 2398 3
	.loc 1 2397 1 is_stmt 0
	addi	sp,sp,-16
	.cfi_def_cfa_offset 16
	sw	s0,8(sp)
	sw	ra,12(sp)
	.cfi_offset 8, -8
	.cfi_offset 1, -4
	.loc 1 2397 1
	mv	s0,a0
	.loc 1 2398 10
	lw	a0,120(a0)
.LVL168:
	.loc 1 2398 6
	beq	a0,zero,.L239
	.loc 1 2399 5 is_stmt 1
	call	tcp_segs_free
.LVL169:
	.loc 1 2400 5
	.loc 1 2400 16 is_stmt 0
	sw	zero,120(s0)
.L239:
	.loc 1 2405 1
	lw	ra,12(sp)
	.cfi_restore 1
	lw	s0,8(sp)
	.cfi_restore 8
.LVL170:
	addi	sp,sp,16
	.cfi_def_cfa_offset 0
	jr	ra
	.cfi_endproc
.LFE56:
	.size	tcp_free_ooseq, .-tcp_free_ooseq
	.section	.text.tcp_pcb_purge,"ax",@progbits
	.align	1
	.globl	tcp_pcb_purge
	.type	tcp_pcb_purge, @function
tcp_pcb_purge:
.LFB48:
	.loc 1 2138 1 is_stmt 1
	.cfi_startproc
.LVL171:
	.loc 1 2139 3
	.loc 1 2139 8
	.loc 1 2139 11 is_stmt 0
	beq	a0,zero,.L259
	.loc 1 2138 1 discriminator 2
	addi	sp,sp,-16
	.cfi_def_cfa_offset 16
	sw	s0,8(sp)
	sw	ra,12(sp)
	.cfi_offset 8, -8
	.cfi_offset 1, -4
	.loc 1 2141 10 discriminator 2
	lw	a5,20(a0)
	.loc 1 2141 6 discriminator 2
	li	a4,1
	mv	s0,a0
	.loc 1 2139 24 is_stmt 1 discriminator 2
	.loc 1 2141 3 discriminator 2
	.loc 1 2141 6 is_stmt 0 discriminator 2
	bleu	a5,a4,.L245
	.loc 1 2141 28 discriminator 1
	li	a4,10
	beq	a5,a4,.L245
.LVL172:
.LBB19:
.LBB20:
	.loc 1 2145 5 is_stmt 1
	.loc 1 2147 5
	.loc 1 2149 5
	.loc 1 2149 12 is_stmt 0
	lw	a0,124(a0)
.LVL173:
	.loc 1 2149 8
	beq	a0,zero,.L247
	.loc 1 2150 7 is_stmt 1
	.loc 1 2151 7
	call	pbuf_free
.LVL174:
	.loc 1 2152 7
	.loc 1 2152 25 is_stmt 0
	sw	zero,124(s0)
.L247:
	.loc 1 2154 5 is_stmt 1
	.loc 1 2155 7
	.loc 1 2157 5
	.loc 1 2158 7
	.loc 1 2161 5
	.loc 1 2161 8 is_stmt 0
	lw	a5,120(s0)
	beq	a5,zero,.L248
	.loc 1 2162 7 is_stmt 1
	.loc 1 2163 7
	mv	a0,s0
	call	tcp_free_ooseq
.LVL175:
.L248:
	.loc 1 2169 5
	.loc 1 2171 5 is_stmt 0
	lw	a0,112(s0)
	.loc 1 2169 16
	li	a5,-1
	sh	a5,52(s0)
	.loc 1 2171 5 is_stmt 1
	call	tcp_segs_free
.LVL176:
	.loc 1 2172 5
	lw	a0,116(s0)
	call	tcp_segs_free
.LVL177:
	.loc 1 2173 5
	.loc 1 2173 32 is_stmt 0
	sw	zero,112(s0)
	.loc 1 2173 18
	sw	zero,116(s0)
	.loc 1 2175 5 is_stmt 1
	.loc 1 2175 26 is_stmt 0
	sh	zero,108(s0)
.LVL178:
.L245:
.LBE20:
.LBE19:
	.loc 1 2178 1
	lw	ra,12(sp)
	.cfi_restore 1
	lw	s0,8(sp)
	.cfi_restore 8
.LVL179:
	addi	sp,sp,16
	.cfi_def_cfa_offset 0
	jr	ra
.LVL180:
.L259:
	ret
	.cfi_endproc
.LFE48:
	.size	tcp_pcb_purge, .-tcp_pcb_purge
	.section	.text.tcp_pcb_remove,"ax",@progbits
	.align	1
	.globl	tcp_pcb_remove
	.type	tcp_pcb_remove, @function
tcp_pcb_remove:
.LFB49:
	.loc 1 2188 1 is_stmt 1
	.cfi_startproc
.LVL181:
	.loc 1 2189 3
	.loc 1 2189 8
	.loc 1 2189 7
	.loc 1 2189 17
	.loc 1 2190 3
	.loc 1 2190 8
	.loc 1 2190 7
	.loc 1 2190 17
	.loc 1 2192 3
	.loc 1 2192 8
	.loc 1 2188 1 is_stmt 0
	addi	sp,sp,-16
	.cfi_def_cfa_offset 16
	sw	s0,8(sp)
	sw	ra,12(sp)
	.cfi_offset 8, -8
	.cfi_offset 1, -4
	.loc 1 2192 11
	lw	a5,0(a0)
	.loc 1 2188 1
	mv	s0,a1
	.loc 1 2192 10
	bne	a5,a1,.L263
	.loc 1 2192 34 is_stmt 1 discriminator 1
	.loc 1 2192 59 is_stmt 0 discriminator 1
	lw	a5,12(a1)
	.loc 1 2192 47 discriminator 1
	sw	a5,0(a0)
.L264:
	.loc 1 2192 118 is_stmt 1 discriminator 10
	.loc 1 2192 130 is_stmt 0 discriminator 10
	sw	zero,12(s0)
	.loc 1 2192 11 is_stmt 1 discriminator 10
	.loc 1 2194 3 discriminator 10
	mv	a0,s0
.LVL182:
	call	tcp_pcb_purge
.LVL183:
	.loc 1 2197 3 discriminator 10
	.loc 1 2197 11 is_stmt 0 discriminator 10
	lw	a5,20(s0)
	.loc 1 2197 6 discriminator 10
	li	a4,10
	beq	a5,a4,.L266
	.loc 1 2197 33 discriminator 1
	li	a4,1
	beq	a5,a4,.L266
	.loc 1 2199 11
	lhu	a5,30(s0)
	.loc 1 2198 30
	andi	a4,a5,1
	beq	a4,zero,.L266
	.loc 1 2200 5 is_stmt 1
	.loc 1 2200 10
	.loc 1 2200 25 is_stmt 0
	ori	a5,a5,2
	.loc 1 2200 23
	sh	a5,30(s0)
	.loc 1 2200 70 is_stmt 1
	.loc 1 2201 5
	mv	a0,s0
	call	tcp_output
.LVL184:
.L266:
	.loc 1 2204 3
	.loc 1 2208 9
	.loc 1 2208 19
	.loc 1 2212 3
	.loc 1 2217 1 is_stmt 0
	lw	ra,12(sp)
	.cfi_remember_state
	.cfi_restore 1
	.loc 1 2212 14
	sw	zero,20(s0)
	.loc 1 2214 3 is_stmt 1
	.loc 1 2214 19 is_stmt 0
	sh	zero,26(s0)
	.loc 1 2216 3 is_stmt 1
	.loc 1 2216 8
	.loc 1 2216 20
	.loc 1 2216 30
	.loc 1 2217 1 is_stmt 0
	lw	s0,8(sp)
	.cfi_restore 8
.LVL185:
	addi	sp,sp,16
	.cfi_def_cfa_offset 0
	jr	ra
.LVL186:
.L267:
	.cfi_restore_state
.LBB21:
	mv	a5,a4
.LVL187:
.L263:
	.loc 1 2192 134 is_stmt 1 discriminator 8
	.loc 1 2192 105 is_stmt 0 discriminator 8
	beq	a5,zero,.L264
	.loc 1 2192 39 is_stmt 1 discriminator 9
	.loc 1 2192 53 is_stmt 0 discriminator 9
	lw	a4,12(a5)
	.loc 1 2192 41 discriminator 9
	bne	a4,s0,.L267
	.loc 1 2192 72 is_stmt 1 discriminator 5
	.loc 1 2192 97 is_stmt 0 discriminator 5
	lw	a4,12(s0)
	.loc 1 2192 90 discriminator 5
	sw	a4,12(a5)
	.loc 1 2192 105 is_stmt 1 discriminator 5
	.loc 1 2192 2 is_stmt 0 discriminator 5
	j	.L264
.LBE21:
	.cfi_endproc
.LFE49:
	.size	tcp_pcb_remove, .-tcp_pcb_remove
	.section	.text.tcp_abandon,"ax",@progbits
	.align	1
	.globl	tcp_abandon
	.type	tcp_abandon, @function
tcp_abandon:
.LFB15:
	.loc 1 566 1 is_stmt 1
	.cfi_startproc
.LVL188:
	.loc 1 567 3
	.loc 1 569 3
	.loc 1 571 3
	.loc 1 573 3
	.loc 1 575 3
	.loc 1 575 8
	.loc 1 575 11 is_stmt 0
	beq	a0,zero,.L307
	.loc 1 566 1 discriminator 2
	addi	sp,sp,-32
	.cfi_def_cfa_offset 32
	sw	s0,24(sp)
	sw	ra,28(sp)
	sw	s1,20(sp)
	sw	s2,16(sp)
	sw	s3,12(sp)
	sw	s4,8(sp)
	sw	s5,4(sp)
	sw	s6,0(sp)
	.cfi_offset 8, -8
	.cfi_offset 1, -4
	.cfi_offset 9, -12
	.cfi_offset 18, -16
	.cfi_offset 19, -20
	.cfi_offset 20, -24
	.cfi_offset 21, -28
	.cfi_offset 22, -32
	.loc 1 578 17 discriminator 2
	lw	a5,20(a0)
	.loc 1 583 6 discriminator 2
	li	a4,10
	mv	s0,a0
	.loc 1 575 24 is_stmt 1 discriminator 2
	.loc 1 578 3 discriminator 2
	.loc 1 578 8 discriminator 2
	.loc 1 578 39 discriminator 2
	.loc 1 578 49 discriminator 2
	.loc 1 583 3 discriminator 2
	.loc 1 583 6 is_stmt 0 discriminator 2
	bne	a5,a4,.L276
	.loc 1 584 5 is_stmt 1
	mv	a1,a0
.LVL189:
	lui	a0,%hi(tcp_tw_pcbs)
.LVL190:
	addi	a0,a0,%lo(tcp_tw_pcbs)
	call	tcp_pcb_remove
.LVL191:
	.loc 1 585 5
	mv	a0,s0
	.loc 1 626 1 is_stmt 0
	lw	s0,24(sp)
	.cfi_remember_state
	.cfi_restore 8
.LVL192:
	lw	ra,28(sp)
	.cfi_restore 1
	lw	s1,20(sp)
	.cfi_restore 9
	lw	s2,16(sp)
	.cfi_restore 18
	lw	s3,12(sp)
	.cfi_restore 19
	lw	s4,8(sp)
	.cfi_restore 20
	lw	s5,4(sp)
	.cfi_restore 21
	lw	s6,0(sp)
	.cfi_restore 22
	addi	sp,sp,32
	.cfi_def_cfa_offset 0
	.loc 1 585 5
	tail	tcp_free
.LVL193:
.L276:
	.cfi_restore_state
.LBB22:
	.loc 1 587 5 is_stmt 1
	.loc 1 588 5
	.loc 1 589 5
	.loc 1 590 5
	.loc 1 590 11 is_stmt 0
	lw	s5,84(a0)
.LVL194:
	.loc 1 591 5 is_stmt 1
	.loc 1 591 11 is_stmt 0
	lw	s6,40(a0)
.LVL195:
	.loc 1 593 5 is_stmt 1
	.loc 1 593 10 is_stmt 0
	lw	s3,148(a0)
.LVL196:
	.loc 1 595 5 is_stmt 1
	.loc 1 595 14 is_stmt 0
	lw	s4,16(a0)
.LVL197:
	.loc 1 596 5 is_stmt 1
	.loc 1 597 14 is_stmt 0
	lhu	s2,26(a0)
	.loc 1 596 8
	bne	a5,zero,.L277
	.loc 1 597 7 is_stmt 1
	.loc 1 587 9 is_stmt 0
	li	s1,0
	.loc 1 597 10
	beq	s2,zero,.L278
	.loc 1 599 9 is_stmt 1
	.loc 1 599 14
	.loc 1 599 36 is_stmt 0
	lui	a4,%hi(tcp_bound_pcbs)
	lw	a5,%lo(tcp_bound_pcbs)(a4)
	.loc 1 599 16
	bne	a5,a0,.L279
	.loc 1 599 48 is_stmt 1 discriminator 1
	.loc 1 599 69 is_stmt 0 discriminator 1
	lw	a5,12(a0)
	sw	a5,%lo(tcp_bound_pcbs)(a4)
.L280:
	.loc 1 599 124 is_stmt 1 discriminator 10
	.loc 1 599 136 is_stmt 0 discriminator 10
	sw	zero,12(s0)
	.loc 1 588 11 discriminator 10
	li	s2,0
	.loc 1 587 9 discriminator 10
	li	s1,0
.LVL198:
.L278:
	.loc 1 604 88 is_stmt 1 discriminator 1
	.loc 1 606 5 discriminator 1
	.loc 1 606 12 is_stmt 0 discriminator 1
	lw	a0,116(s0)
	.loc 1 606 8 discriminator 1
	beq	a0,zero,.L282
	.loc 1 607 7 is_stmt 1
	call	tcp_segs_free
.LVL199:
.L282:
	.loc 1 609 5
	.loc 1 609 12 is_stmt 0
	lw	a0,112(s0)
	.loc 1 609 8
	beq	a0,zero,.L283
	.loc 1 610 7 is_stmt 1
	call	tcp_segs_free
.LVL200:
.L283:
	.loc 1 613 5
	.loc 1 613 12 is_stmt 0
	lw	a0,120(s0)
	.loc 1 613 8
	beq	a0,zero,.L284
	.loc 1 614 7 is_stmt 1
	call	tcp_segs_free
.LVL201:
.L284:
	.loc 1 617 5
	.loc 1 618 5
	.loc 1 618 8 is_stmt 0
	beq	s1,zero,.L285
	.loc 1 619 7 is_stmt 1
	.loc 1 620 7
	lhu	a6,28(s0)
	mv	a5,s2
	addi	a4,s0,4
	mv	a3,s0
	mv	a2,s6
	mv	a1,s5
	mv	a0,s0
	call	tcp_rst
.LVL202:
.L285:
	.loc 1 622 5
	.loc 1 623 5
	mv	a0,s0
	call	tcp_free
.LVL203:
	.loc 1 624 5
	.loc 1 624 10
	.loc 1 624 28
	.loc 1 624 30 is_stmt 0
	beq	s3,zero,.L273
	.loc 1 624 6 is_stmt 1 discriminator 1
.LBE22:
	.loc 1 626 1 is_stmt 0 discriminator 1
	lw	s0,24(sp)
	.cfi_remember_state
	.cfi_restore 8
.LVL204:
	lw	ra,28(sp)
	.cfi_restore 1
	lw	s1,20(sp)
	.cfi_restore 9
.LVL205:
	lw	s2,16(sp)
	.cfi_restore 18
.LVL206:
	lw	s5,4(sp)
	.cfi_restore 21
.LVL207:
	lw	s6,0(sp)
	.cfi_restore 22
.LVL208:
.LBB24:
	.loc 1 624 6 discriminator 1
	mv	a0,s4
	mv	a5,s3
.LBE24:
	.loc 1 626 1 discriminator 1
	lw	s4,8(sp)
	.cfi_restore 20
.LVL209:
	lw	s3,12(sp)
	.cfi_restore 19
.LVL210:
.LBB25:
	.loc 1 624 6 discriminator 1
	li	a1,-13
.LBE25:
	.loc 1 626 1 discriminator 1
	addi	sp,sp,32
	.cfi_def_cfa_offset 0
.LBB26:
	.loc 1 624 6 discriminator 1
	jr	a5
.LVL211:
.L288:
	.cfi_restore_state
.LBB23:
	mv	a5,a4
.LVL212:
.L279:
	.loc 1 599 172 is_stmt 1 discriminator 8
	.loc 1 599 135 is_stmt 0 discriminator 8
	beq	a5,zero,.L280
	.loc 1 599 45 is_stmt 1 discriminator 9
	.loc 1 599 59 is_stmt 0 discriminator 9
	lw	a4,12(a5)
	.loc 1 599 47 discriminator 9
	bne	a4,s0,.L288
	.loc 1 599 78 is_stmt 1 discriminator 5
	.loc 1 599 103 is_stmt 0 discriminator 5
	lw	a4,12(s0)
	.loc 1 599 96 discriminator 5
	sw	a4,12(a5)
	.loc 1 599 111 is_stmt 1 discriminator 5
	.loc 1 599 8 is_stmt 0 discriminator 5
	j	.L280
.LVL213:
.L277:
	mv	s1,a1
.LBE23:
	.loc 1 602 7 is_stmt 1
.LVL214:
	.loc 1 603 7
	.loc 1 604 7
	.loc 1 604 12
	mv	a1,a0
.LVL215:
	lui	a0,%hi(tcp_active_pcbs)
	addi	a0,a0,%lo(tcp_active_pcbs)
	call	tcp_pcb_remove
.LVL216:
	.loc 1 604 51
	.loc 1 604 75 is_stmt 0
	lui	a5,%hi(tcp_active_pcbs_changed)
	li	a4,1
	sb	a4,%lo(tcp_active_pcbs_changed)(a5)
	j	.L278
.LVL217:
.L273:
.LBE26:
	.loc 1 626 1
	lw	ra,28(sp)
	.cfi_restore 1
	lw	s0,24(sp)
	.cfi_restore 8
.LVL218:
	lw	s1,20(sp)
	.cfi_restore 9
.LVL219:
	lw	s2,16(sp)
	.cfi_restore 18
.LVL220:
	lw	s3,12(sp)
	.cfi_restore 19
.LVL221:
	lw	s4,8(sp)
	.cfi_restore 20
.LVL222:
	lw	s5,4(sp)
	.cfi_restore 21
.LVL223:
	lw	s6,0(sp)
	.cfi_restore 22
.LVL224:
	addi	sp,sp,32
	.cfi_def_cfa_offset 0
	jr	ra
.LVL225:
.L307:
	ret
	.cfi_endproc
.LFE15:
	.size	tcp_abandon, .-tcp_abandon
	.section	.text.tcp_abort,"ax",@progbits
	.align	1
	.globl	tcp_abort
	.type	tcp_abort, @function
tcp_abort:
.LFB16:
	.loc 1 641 1 is_stmt 1
	.cfi_startproc
.LVL226:
	.loc 1 642 3
	li	a1,1
	tail	tcp_abandon
.LVL227:
	.cfi_endproc
.LFE16:
	.size	tcp_abort, .-tcp_abort
	.section	.text.tcp_accept_null,"ax",@progbits
	.align	1
	.type	tcp_accept_null, @function
tcp_accept_null:
.LFB19:
	.loc 1 781 1
	.cfi_startproc
.LVL228:
	.loc 1 782 3
	.loc 1 783 3
	.loc 1 785 3
	.loc 1 785 8
	.loc 1 785 7
	.loc 1 785 17
	.loc 1 787 3
	.loc 1 781 1 is_stmt 0
	addi	sp,sp,-16
	.cfi_def_cfa_offset 16
	.loc 1 787 3
	mv	a0,a1
.LVL229:
	.loc 1 781 1
	sw	ra,12(sp)
	.cfi_offset 1, -4
	.loc 1 787 3
	call	tcp_abort
.LVL230:
	.loc 1 789 3 is_stmt 1
	.loc 1 790 1 is_stmt 0
	lw	ra,12(sp)
	.cfi_restore 1
	li	a0,-13
	addi	sp,sp,16
	.cfi_def_cfa_offset 0
	jr	ra
	.cfi_endproc
.LFE19:
	.size	tcp_accept_null, .-tcp_accept_null
	.section	.text.tcp_netif_ip_addr_changed_pcblist,"ax",@progbits
	.align	1
	.type	tcp_netif_ip_addr_changed_pcblist, @function
tcp_netif_ip_addr_changed_pcblist:
.LFB52:
	.loc 1 2310 1 is_stmt 1
	.cfi_startproc
.LVL231:
	addi	sp,sp,-16
	.cfi_def_cfa_offset 16
	sw	s0,8(sp)
	sw	ra,12(sp)
	.cfi_offset 8, -8
	.cfi_offset 1, -4
	mv	s0,a0
	sw	s1,4(sp)
	.cfi_offset 9, -12
	mv	a0,a1
.LVL232:
	.loc 1 2311 3
	.loc 1 2312 3
	.loc 1 2314 3
	.loc 1 2314 8
	.loc 1 2314 7
	.loc 1 2314 17
	.loc 1 2316 3
.L314:
	.loc 1 2316 9
	bne	a0,zero,.L316
	.loc 1 2333 1 is_stmt 0
	lw	ra,12(sp)
	.cfi_remember_state
	.cfi_restore 1
	lw	s0,8(sp)
	.cfi_restore 8
.LVL233:
	lw	s1,4(sp)
	.cfi_restore 9
	addi	sp,sp,16
	.cfi_def_cfa_offset 0
	jr	ra
.LVL234:
.L316:
	.cfi_restore_state
	.loc 1 2318 5 is_stmt 1
	.loc 1 2318 8 is_stmt 0
	lw	a4,0(a0)
	lw	a5,0(s0)
.LBB27:
	.loc 1 2325 23
	lw	s1,12(a0)
.LBE27:
	.loc 1 2318 8
	bne	a4,a5,.L315
.LBB28:
	.loc 1 2325 7 is_stmt 1
.LVL235:
	.loc 1 2326 7
	.loc 1 2327 7
	call	tcp_abort
.LVL236:
	.loc 1 2328 7
.L315:
.LBE28:
	.loc 1 2310 1 is_stmt 0
	mv	a0,s1
	j	.L314
	.cfi_endproc
.LFE52:
	.size	tcp_netif_ip_addr_changed_pcblist, .-tcp_netif_ip_addr_changed_pcblist
	.section	.text.tcp_netif_ip_addr_changed,"ax",@progbits
	.align	1
	.globl	tcp_netif_ip_addr_changed
	.type	tcp_netif_ip_addr_changed, @function
tcp_netif_ip_addr_changed:
.LFB53:
	.loc 1 2342 1 is_stmt 1
	.cfi_startproc
.LVL237:
	.loc 1 2343 3
	.loc 1 2345 3
	.loc 1 2345 6 is_stmt 0
	beq	a0,zero,.L334
	.loc 1 2342 1 discriminator 1
	addi	sp,sp,-16
	.cfi_def_cfa_offset 16
	sw	s0,8(sp)
	sw	ra,12(sp)
	sw	s1,4(sp)
	.cfi_offset 8, -8
	.cfi_offset 1, -4
	.cfi_offset 9, -12
	.loc 1 2345 7 discriminator 1
	lw	a5,0(a0)
	mv	s0,a0
	beq	a5,zero,.L318
	.loc 1 2346 5
	lui	a5,%hi(tcp_active_pcbs)
	mv	s1,a1
	.loc 1 2346 5 is_stmt 1
	lw	a1,%lo(tcp_active_pcbs)(a5)
.LVL238:
	call	tcp_netif_ip_addr_changed_pcblist
.LVL239:
	.loc 1 2347 5
	lui	a5,%hi(tcp_bound_pcbs)
	lw	a1,%lo(tcp_bound_pcbs)(a5)
	mv	a0,s0
	call	tcp_netif_ip_addr_changed_pcblist
.LVL240:
	.loc 1 2349 5
	.loc 1 2349 8 is_stmt 0
	beq	s1,zero,.L318
	.loc 1 2349 9 discriminator 1
	lw	a5,0(s1)
	beq	a5,zero,.L318
	.loc 1 2351 7 is_stmt 1
	.loc 1 2351 17 is_stmt 0
	lui	a5,%hi(tcp_listen_pcbs)
	lw	a5,%lo(tcp_listen_pcbs)(a5)
.LVL241:
.L321:
	.loc 1 2351 48 is_stmt 1 discriminator 1
	.loc 1 2351 7 is_stmt 0 discriminator 1
	bne	a5,zero,.L323
.LVL242:
.L318:
	.loc 1 2361 1
	lw	ra,12(sp)
	.cfi_remember_state
	.cfi_restore 1
	lw	s0,8(sp)
	.cfi_restore 8
.LVL243:
	lw	s1,4(sp)
	.cfi_restore 9
	addi	sp,sp,16
	.cfi_def_cfa_offset 0
	jr	ra
.LVL244:
.L323:
	.cfi_restore_state
	.loc 1 2353 9 is_stmt 1
	.loc 1 2353 12 is_stmt 0
	lw	a3,0(a5)
	lw	a4,0(s0)
	bne	a3,a4,.L322
	.loc 1 2356 11 is_stmt 1
	.loc 1 2356 47 is_stmt 0
	lw	a4,0(s1)
	.loc 1 2356 34
	sw	a4,0(a5)
.L322:
	.loc 1 2351 61 is_stmt 1 discriminator 2
	.loc 1 2351 66 is_stmt 0 discriminator 2
	lw	a5,12(a5)
.LVL245:
	j	.L321
.LVL246:
.L334:
	.cfi_def_cfa_offset 0
	.cfi_restore 1
	.cfi_restore 8
	.cfi_restore 9
	ret
	.cfi_endproc
.LFE53:
	.size	tcp_netif_ip_addr_changed, .-tcp_netif_ip_addr_changed
	.section	.text.tcp_kill_state,"ax",@progbits
	.align	1
	.type	tcp_kill_state, @function
tcp_kill_state:
.LFB36:
	.loc 1 1763 1 is_stmt 1
	.cfi_startproc
.LVL247:
	.loc 1 1764 3
	.loc 1 1765 3
	.loc 1 1767 3
	.loc 1 1767 8
	.loc 1 1767 60
	.loc 1 1767 70
	.loc 1 1769 3
	.loc 1 1770 3
	.loc 1 1773 3
	.loc 1 1773 12 is_stmt 0
	lui	a5,%hi(tcp_active_pcbs)
	.loc 1 1775 29
	lui	a4,%hi(tcp_ticks)
	.loc 1 1773 12
	lw	a5,%lo(tcp_active_pcbs)(a5)
.LVL248:
	.loc 1 1775 29
	lw	a1,%lo(tcp_ticks)(a4)
	.loc 1 1763 1
	mv	a3,a0
	.loc 1 1769 14
	li	a2,0
	.loc 1 1770 12
	li	a0,0
.LVL249:
.L338:
	.loc 1 1773 31 is_stmt 1 discriminator 1
	.loc 1 1773 3 is_stmt 0 discriminator 1
	bne	a5,zero,.L340
	.loc 1 1781 3 is_stmt 1
	.loc 1 1781 6 is_stmt 0
	beq	a0,zero,.L337
	.loc 1 1783 81 is_stmt 1
	.loc 1 1785 5
	li	a1,0
	tail	tcp_abandon
.LVL250:
.L340:
	.loc 1 1774 5
	.loc 1 1774 8 is_stmt 0
	lw	a4,20(a5)
	bne	a4,a3,.L339
	.loc 1 1775 7 is_stmt 1
	.loc 1 1775 29 is_stmt 0
	lw	a4,36(a5)
	sub	a4,a1,a4
	.loc 1 1775 10
	bltu	a4,a2,.L339
	mv	a2,a4
.LVL251:
	mv	a0,a5
.LVL252:
.L339:
	.loc 1 1773 43 is_stmt 1 discriminator 2
	.loc 1 1773 47 is_stmt 0 discriminator 2
	lw	a5,12(a5)
.LVL253:
	j	.L338
.L337:
	.loc 1 1787 1
	ret
	.cfi_endproc
.LFE36:
	.size	tcp_kill_state, .-tcp_kill_state
	.section	.text.tcp_alloc,"ax",@progbits
	.align	1
	.globl	tcp_alloc
	.type	tcp_alloc, @function
tcp_alloc:
.LFB39:
	.loc 1 1845 1 is_stmt 1
	.cfi_startproc
.LVL254:
	.loc 1 1846 3
	.loc 1 1848 3
	.loc 1 1850 3
	.loc 1 1845 1 is_stmt 0
	addi	sp,sp,-32
	.cfi_def_cfa_offset 32
	sw	s1,20(sp)
	.cfi_offset 9, -12
	mv	s1,a0
	.loc 1 1850 27
	li	a0,2
.LVL255:
	.loc 1 1845 1
	sw	s0,24(sp)
	sw	ra,28(sp)
	sw	s2,16(sp)
	sw	s3,12(sp)
	.cfi_offset 8, -8
	.cfi_offset 1, -4
	.cfi_offset 18, -16
	.cfi_offset 19, -20
	.loc 1 1850 27
	call	memp_malloc
.LVL256:
	.loc 1 1851 3 is_stmt 1
	mv	s0,a0
	.loc 1 1851 6 is_stmt 0
	bne	a0,zero,.L343
	.loc 1 1853 5 is_stmt 1
.LBB36:
.LBB37:
	.loc 1 1823 3
	.loc 1 1823 19 is_stmt 0
	lui	s3,%hi(tcp_active_pcbs)
	lw	a0,%lo(tcp_active_pcbs)(s3)
.LVL257:
	.loc 1 1825 3 is_stmt 1
.L344:
	.loc 1 1825 9
	bne	a0,zero,.L346
.LVL258:
.LBE37:
.LBE36:
	.loc 1 1856 5
	.loc 1 1857 5
.LBB40:
.LBB41:
	.loc 1 1796 3
	.loc 1 1797 3
	.loc 1 1799 3
	.loc 1 1800 3
	.loc 1 1802 3
	.loc 1 1802 12 is_stmt 0
	lui	a5,%hi(tcp_tw_pcbs)
	.loc 1 1803 27
	lui	s2,%hi(tcp_ticks)
	.loc 1 1802 12
	lw	a5,%lo(tcp_tw_pcbs)(a5)
.LVL259:
	.loc 1 1803 27
	lw	a2,%lo(tcp_ticks)(s2)
	.loc 1 1799 14
	li	a3,0
.LVL260:
.L347:
	.loc 1 1802 27 is_stmt 1
	.loc 1 1802 3 is_stmt 0
	bne	a5,zero,.L349
	.loc 1 1808 3 is_stmt 1
	.loc 1 1808 6 is_stmt 0
	beq	a0,zero,.L350
	.loc 1 1810 59 is_stmt 1
	.loc 1 1811 5
	call	tcp_abort
.LVL261:
.L350:
.LBE41:
.LBE40:
	.loc 1 1859 5
	.loc 1 1859 29 is_stmt 0
	li	a0,2
	call	memp_malloc
.LVL262:
	mv	s0,a0
.LVL263:
	.loc 1 1860 5 is_stmt 1
	.loc 1 1860 8 is_stmt 0
	bne	a0,zero,.L351
	.loc 1 1862 7 is_stmt 1
	.loc 1 1863 7
	li	a0,9
	call	tcp_kill_state
.LVL264:
	.loc 1 1865 7
	.loc 1 1865 31 is_stmt 0
	li	a0,2
	call	memp_malloc
.LVL265:
	mv	s0,a0
.LVL266:
	.loc 1 1866 7 is_stmt 1
	.loc 1 1866 10 is_stmt 0
	bne	a0,zero,.L352
	.loc 1 1868 9 is_stmt 1
	.loc 1 1869 9
	li	a0,8
	call	tcp_kill_state
.LVL267:
	.loc 1 1871 9
	.loc 1 1871 33 is_stmt 0
	li	a0,2
	call	memp_malloc
.LVL268:
	mv	s0,a0
.LVL269:
	.loc 1 1872 9 is_stmt 1
	.loc 1 1872 12 is_stmt 0
	bne	a0,zero,.L353
	.loc 1 1874 11 is_stmt 1
	.loc 1 1875 11
.LVL270:
.LBB43:
.LBB44:
	.loc 1 1718 3
	.loc 1 1719 3
	.loc 1 1720 3
	.loc 1 1722 3
	.loc 1 1722 9 is_stmt 0
	slli	a5,s1,24
	srai	a5,a5,24
	blt	a5,zero,.L361
.LVL271:
	.loc 1 1727 3 is_stmt 1
	mv	a5,s1
	.loc 1 1727 6 is_stmt 0
	bne	s1,zero,.L354
.LVL272:
.L355:
.LBE44:
.LBE43:
	.loc 1 1877 11 is_stmt 1
	.loc 1 1877 35 is_stmt 0
	li	a0,2
	call	memp_malloc
.LVL273:
	mv	s0,a0
.LVL274:
	.loc 1 1878 11 is_stmt 1
	.loc 1 1878 14 is_stmt 0
	beq	a0,zero,.L342
	.loc 1 1880 13 is_stmt 1
	.loc 1 1880 30 is_stmt 0
	lui	a5,%hi(lwip_stats+192)
	lw	a4,%lo(lwip_stats+192)(a5)
	.loc 1 1880 13
	lhu	a5,0(a4)
	addi	a5,a5,-1
	sh	a5,0(a4)
.L353:
	.loc 1 1883 9 is_stmt 1
	.loc 1 1885 11
	.loc 1 1885 28 is_stmt 0
	lui	a5,%hi(lwip_stats+192)
	lw	a4,%lo(lwip_stats+192)(a5)
	.loc 1 1885 11
	lhu	a5,0(a4)
	addi	a5,a5,-1
	sh	a5,0(a4)
.L352:
	.loc 1 1888 7 is_stmt 1
	.loc 1 1890 9
	.loc 1 1890 26 is_stmt 0
	lui	a5,%hi(lwip_stats+192)
	lw	a4,%lo(lwip_stats+192)(a5)
	.loc 1 1890 9
	lhu	a5,0(a4)
	addi	a5,a5,-1
	sh	a5,0(a4)
.L351:
	.loc 1 1893 5 is_stmt 1
	.loc 1 1895 7
	.loc 1 1895 24 is_stmt 0
	lui	a5,%hi(lwip_stats+192)
	lw	a4,%lo(lwip_stats+192)(a5)
	.loc 1 1895 7
	lhu	a5,0(a4)
	addi	a5,a5,-1
	sh	a5,0(a4)
.LVL275:
.L343:
	.loc 1 1898 3 is_stmt 1
	.loc 1 1900 5
	li	a2,168
	li	a1,0
	mv	a0,s0
	call	memset
.LVL276:
	.loc 1 1901 5
	.loc 1 1902 18 is_stmt 0
	li	a5,4096
	addi	a5,a5,284
	sh	a5,104(s0)
	.loc 1 1905 18
	li	a5,287051776
	addi	a5,a5,284
	sw	a5,44(s0)
	.loc 1 1906 14
	li	a5,64
	sb	a5,11(s0)
	.loc 1 1910 14
	li	a5,6
	sh	a5,68(s0)
	.loc 1 1911 13
	sh	a5,66(s0)
	.loc 1 1912 16
	li	a5,35192832
	addi	a5,a5,-1
	sw	a5,52(s0)
	.loc 1 1914 14
	lui	a5,%hi(tcp_ticks)
	lw	a5,%lo(tcp_ticks)(a5)
	.loc 1 1926 15
	lui	a4,%hi(tcp_recv_null)
	.loc 1 1901 15
	sb	s1,24(s0)
	.loc 1 1902 5 is_stmt 1
	.loc 1 1905 5
	.loc 1 1906 5
	.loc 1 1909 5
	.loc 1 1910 5
	.loc 1 1911 5
	.loc 1 1912 5
	.loc 1 1913 5
	.loc 1 1914 5
	.loc 1 1914 14 is_stmt 0
	sw	a5,36(s0)
	.loc 1 1915 5 is_stmt 1
	.loc 1 1915 21 is_stmt 0
	lui	a5,%hi(.LANCHOR4)
	lbu	a5,%lo(.LANCHOR4)(a5)
	.loc 1 1926 15
	addi	a4,a4,%lo(tcp_recv_null)
	.loc 1 1915 21
	sb	a5,34(s0)
	.loc 1 1923 5 is_stmt 1
	.loc 1 1913 15 is_stmt 0
	li	a5,287047680
	addi	a5,a5,1
	sw	a5,76(s0)
	.loc 1 1926 5 is_stmt 1
	.loc 1 1926 15 is_stmt 0
	addi	a5,s0,128
	sw	a4,8(a5)
	.loc 1 1930 5 is_stmt 1
	.loc 1 1930 20 is_stmt 0
	li	a4,7200768
	addi	a4,a4,-768
	sw	a4,24(a5)
	.loc 1 1933 5 is_stmt 1
	.loc 1 1933 21 is_stmt 0
	li	a4,73728
	addi	a4,a4,1272
	sw	a4,28(a5)
	.loc 1 1934 5 is_stmt 1
	.loc 1 1934 19 is_stmt 0
	li	a4,9
	sw	a4,32(a5)
.L342:
	.loc 1 1938 1
	lw	ra,28(sp)
	.cfi_remember_state
	.cfi_restore 1
	mv	a0,s0
	lw	s0,24(sp)
	.cfi_restore 8
.LVL277:
	lw	s1,20(sp)
	.cfi_restore 9
	lw	s2,16(sp)
	.cfi_restore 18
	lw	s3,12(sp)
	.cfi_restore 19
	addi	sp,sp,32
	.cfi_def_cfa_offset 0
	jr	ra
.LVL278:
.L346:
	.cfi_restore_state
.LBB46:
.LBB39:
.LBB38:
	.loc 1 1826 5 is_stmt 1
	.loc 1 1828 12 is_stmt 0
	lhu	a5,30(a0)
	.loc 1 1826 21
	lw	s0,12(a0)
.LVL279:
	.loc 1 1828 5 is_stmt 1
	.loc 1 1828 8 is_stmt 0
	andi	a4,a5,8
	beq	a4,zero,.L345
	.loc 1 1829 7 is_stmt 1
	.loc 1 1830 7
	.loc 1 1830 12
	.loc 1 1830 27 is_stmt 0
	andi	a5,a5,-9
	.loc 1 1830 25
	sh	a5,30(a0)
	.loc 1 1830 97 is_stmt 1
	.loc 1 1831 7
	call	tcp_close_shutdown_fin
.LVL280:
.L345:
.LBE38:
.LBE39:
.LBE46:
	.loc 1 1845 1 is_stmt 0
	mv	a0,s0
	j	.L344
.LVL281:
.L349:
.LBB47:
.LBB42:
	.loc 1 1803 5 is_stmt 1
	.loc 1 1803 27 is_stmt 0
	lw	a4,36(a5)
	sub	a4,a2,a4
	.loc 1 1803 8
	bltu	a4,a3,.L348
	mv	a3,a4
.LVL282:
	mv	a0,a5
.LVL283:
.L348:
	.loc 1 1802 39 is_stmt 1
	.loc 1 1802 43 is_stmt 0
	lw	a5,12(a5)
.LVL284:
	j	.L347
.LVL285:
.L361:
.LBE42:
.LBE47:
.LBB48:
.LBB45:
	.loc 1 1722 9
	li	a5,127
.L354:
	.loc 1 1736 3 is_stmt 1
	.loc 1 1740 12 is_stmt 0
	lw	a4,%lo(tcp_active_pcbs)(s3)
	.loc 1 1744 53
	lw	a0,%lo(tcp_ticks)(s2)
	.loc 1 1736 8
	addi	a5,a5,-1
	andi	a5,a5,0xff
.LVL286:
	.loc 1 1738 3 is_stmt 1
	.loc 1 1739 3
	.loc 1 1740 3
	.loc 1 1738 14 is_stmt 0
	li	a3,0
.LVL287:
.L356:
	.loc 1 1740 31 is_stmt 1
	.loc 1 1740 3 is_stmt 0
	bne	a4,zero,.L359
	.loc 1 1750 3 is_stmt 1
	.loc 1 1750 6 is_stmt 0
	beq	s0,zero,.L355
	.loc 1 1752 59 is_stmt 1
	.loc 1 1753 5
	mv	a0,s0
	call	tcp_abort
.LVL288:
	j	.L355
.LVL289:
.L359:
	.loc 1 1742 5
	.loc 1 1742 13 is_stmt 0
	lbu	a2,24(a4)
	.loc 1 1742 8
	bltu	a2,a5,.L357
	.loc 1 1742 29
	bne	a2,a5,.L358
	.loc 1 1744 53
	lw	a1,36(a4)
	sub	a1,a0,a1
	.loc 1 1744 31
	bltu	a1,a3,.L358
.L357:
	.loc 1 1745 7 is_stmt 1
	.loc 1 1745 18 is_stmt 0
	lw	a3,36(a4)
.LVL290:
	.loc 1 1742 13
	mv	a5,a2
.LVL291:
	.loc 1 1745 18
	mv	s0,a4
.LVL292:
	sub	a3,a0,a3
.LVL293:
	.loc 1 1746 7 is_stmt 1
	.loc 1 1747 7
.L358:
	.loc 1 1740 43
	.loc 1 1740 47 is_stmt 0
	lw	a4,12(a4)
.LVL294:
	j	.L356
.LBE45:
.LBE48:
	.cfi_endproc
.LFE39:
	.size	tcp_alloc, .-tcp_alloc
	.section	.text.tcp_new,"ax",@progbits
	.align	1
	.globl	tcp_new
	.type	tcp_new, @function
tcp_new:
.LFB40:
	.loc 1 1956 1 is_stmt 1
	.cfi_startproc
	.loc 1 1957 3
	.loc 1 1957 10 is_stmt 0
	li	a0,64
	tail	tcp_alloc
.LVL295:
	.cfi_endproc
.LFE40:
	.size	tcp_new, .-tcp_new
	.section	.text.tcp_new_ip_type,"ax",@progbits
	.align	1
	.globl	tcp_new_ip_type
	.type	tcp_new_ip_type, @function
tcp_new_ip_type:
.LFB41:
	.loc 1 1973 1 is_stmt 1
	.cfi_startproc
.LVL296:
	.loc 1 1974 3
	.loc 1 1975 3
	.loc 1 1975 9 is_stmt 0
	li	a0,64
.LVL297:
	tail	tcp_alloc
.LVL298:
	.cfi_endproc
.LFE41:
	.size	tcp_new_ip_type, .-tcp_new_ip_type
	.section	.text.tcp_close_shutdown,"ax",@progbits
	.align	1
	.type	tcp_close_shutdown, @function
tcp_close_shutdown:
.LFB11:
	.loc 1 351 1 is_stmt 1
	.cfi_startproc
.LVL299:
	.loc 1 352 3
	.loc 1 352 8
	.loc 1 352 7
	.loc 1 352 17
	.loc 1 354 3
	.loc 1 351 1 is_stmt 0
	addi	sp,sp,-16
	.cfi_def_cfa_offset 16
	sw	s0,8(sp)
	sw	ra,12(sp)
	sw	s1,4(sp)
	.cfi_offset 8, -8
	.cfi_offset 1, -4
	.cfi_offset 9, -12
	.loc 1 354 35
	lw	a5,20(a0)
	.loc 1 351 1
	mv	s0,a0
	.loc 1 354 6
	beq	a1,zero,.L382
	.loc 1 354 27 discriminator 1
	li	a4,4
	beq	a5,a4,.L383
	.loc 1 354 59 discriminator 2
	li	a4,7
	bne	a5,a4,.L382
.L383:
	.loc 1 355 5 is_stmt 1
	.loc 1 355 8 is_stmt 0
	lw	a4,124(s0)
	bne	a4,zero,.L384
	.loc 1 355 36 discriminator 1
	lhu	a3,44(s0)
	li	a4,4096
	addi	a4,a4,284
	beq	a3,a4,.L382
.L384:
	.loc 1 358 7 is_stmt 1
	.loc 1 358 12
	.loc 1 358 41
	.loc 1 358 51
	.loc 1 362 7
	lhu	a5,26(s0)
	lhu	a6,28(s0)
	lw	a2,40(s0)
	lw	a1,84(s0)
.LVL300:
	addi	a4,s0,4
	mv	a3,s0
	mv	a0,s0
.LVL301:
	call	tcp_rst
.LVL302:
	.loc 1 365 7
	mv	a0,s0
	call	tcp_pcb_purge
.LVL303:
	.loc 1 366 7
	.loc 1 366 12
	.loc 1 366 17
	.loc 1 366 40 is_stmt 0
	lui	a4,%hi(tcp_active_pcbs)
	lw	a5,%lo(tcp_active_pcbs)(a4)
	.loc 1 366 19
	bne	a5,s0,.L385
	.loc 1 366 52 is_stmt 1 discriminator 1
	.loc 1 366 74 is_stmt 0 discriminator 1
	lw	a5,12(s0)
	sw	a5,%lo(tcp_active_pcbs)(a4)
.L386:
	.loc 1 366 122 is_stmt 1 discriminator 10
	.loc 1 366 44 is_stmt 0 discriminator 10
	lui	a5,%hi(tcp_active_pcbs_changed)
	li	a4,1
	sb	a4,%lo(tcp_active_pcbs_changed)(a5)
	.loc 1 368 25 discriminator 10
	lui	a5,%hi(tcp_input_pcb)
	.loc 1 368 10 discriminator 10
	lw	a5,%lo(tcp_input_pcb)(a5)
	.loc 1 366 134 discriminator 10
	sw	zero,12(s0)
	.loc 1 366 15 is_stmt 1 discriminator 10
	.loc 1 366 20 discriminator 10
	.loc 1 366 57 discriminator 10
	.loc 1 368 7 discriminator 10
	.loc 1 368 10 is_stmt 0 discriminator 10
	bne	a5,s0,.L412
	.loc 1 370 9 is_stmt 1
	call	tcp_trigger_input_pcb_close
.LVL304:
.L389:
	.loc 1 408 1 is_stmt 0
	lw	ra,12(sp)
	.cfi_remember_state
	.cfi_restore 1
	lw	s0,8(sp)
	.cfi_restore 8
.LVL305:
	lw	s1,4(sp)
	.cfi_restore 9
	li	a0,0
	addi	sp,sp,16
	.cfi_def_cfa_offset 0
	jr	ra
.LVL306:
.L400:
	.cfi_restore_state
.LBB57:
	mv	a5,a4
.LVL307:
.L385:
	.loc 1 366 179 is_stmt 1 discriminator 8
	.loc 1 366 141 is_stmt 0 discriminator 8
	beq	a5,zero,.L386
	.loc 1 366 43 is_stmt 1 discriminator 9
	.loc 1 366 57 is_stmt 0 discriminator 9
	lw	a4,12(a5)
	.loc 1 366 45 discriminator 9
	bne	a4,s0,.L400
	.loc 1 366 76 is_stmt 1 discriminator 5
	.loc 1 366 101 is_stmt 0 discriminator 5
	lw	a4,12(s0)
	.loc 1 366 94 discriminator 5
	sw	a4,12(a5)
	.loc 1 366 109 is_stmt 1 discriminator 5
	.loc 1 366 6 is_stmt 0 discriminator 5
	j	.L386
.LVL308:
.L382:
.LBE57:
	.loc 1 380 3 is_stmt 1
	li	s1,1
	beq	a5,s1,.L390
	li	a4,2
	beq	a5,a4,.L391
	bne	a5,zero,.L392
	.loc 1 389 7
	.loc 1 389 10 is_stmt 0
	lhu	a5,26(s0)
	beq	a5,zero,.L412
	.loc 1 390 9 is_stmt 1
	.loc 1 390 14
	.loc 1 390 36 is_stmt 0
	lui	a4,%hi(tcp_bound_pcbs)
	lw	a5,%lo(tcp_bound_pcbs)(a4)
	.loc 1 390 16
	bne	a5,s0,.L393
	.loc 1 390 48 is_stmt 1 discriminator 1
	.loc 1 390 69 is_stmt 0 discriminator 1
	lw	a5,12(s0)
	sw	a5,%lo(tcp_bound_pcbs)(a4)
.L394:
	.loc 1 390 124 is_stmt 1 discriminator 10
	.loc 1 390 136 is_stmt 0 discriminator 10
	sw	zero,12(s0)
.LVL309:
.L412:
	.loc 1 400 88 is_stmt 1
	.loc 1 401 7
	mv	a0,s0
	call	tcp_free
.LVL310:
	.loc 1 402 7
	.loc 1 403 7
	j	.L389
.LVL311:
.L401:
.LBB58:
	mv	a5,a4
.LVL312:
.L393:
	.loc 1 390 172 discriminator 8
	.loc 1 390 135 is_stmt 0 discriminator 8
	beq	a5,zero,.L394
	.loc 1 390 45 is_stmt 1 discriminator 9
	.loc 1 390 59 is_stmt 0 discriminator 9
	lw	a4,12(a5)
	.loc 1 390 47 discriminator 9
	bne	a4,s0,.L401
	.loc 1 390 78 is_stmt 1 discriminator 5
	.loc 1 390 103 is_stmt 0 discriminator 5
	lw	a4,12(s0)
	.loc 1 390 96 discriminator 5
	sw	a4,12(a5)
	.loc 1 390 111 is_stmt 1 discriminator 5
	.loc 1 390 8 is_stmt 0 discriminator 5
	j	.L394
.LVL313:
.L390:
	lui	a5,%hi(.LANCHOR1)
	addi	a5,a5,%lo(.LANCHOR1)
	addi	a3,a5,12
.L399:
.LBE58:
.LBB59:
.LBB60:
	.loc 1 278 5 is_stmt 1
	lw	a4,4(a5)
	lw	a4,0(a4)
.LVL314:
.LBB61:
.LBB62:
	.loc 1 255 3
	.loc 1 257 3
	.loc 1 257 8
	.loc 1 257 7
	.loc 1 257 17
	.loc 1 259 3
.L396:
	.loc 1 259 20
	.loc 1 259 3 is_stmt 0
	bne	a4,zero,.L398
.LVL315:
.LBE62:
.LBE61:
	.loc 1 277 71 is_stmt 1
	.loc 1 277 15
	.loc 1 277 3 is_stmt 0
	addi	a5,a5,4
	bne	a3,a5,.L399
	.loc 1 281 3 is_stmt 1
.LBE60:
.LBE59:
	.loc 1 396 7
	lui	a0,%hi(tcp_listen_pcbs)
	mv	a1,s0
.LVL316:
	addi	a0,a0,%lo(tcp_listen_pcbs)
	call	tcp_pcb_remove
.LVL317:
	.loc 1 397 7
.LBB66:
.LBB67:
	.loc 1 225 3
	.loc 1 225 8
	.loc 1 225 39
	.loc 1 225 49
	.loc 1 229 3
	mv	a1,s0
	li	a0,3
	call	memp_free
.LVL318:
	.loc 1 230 1 is_stmt 0
	j	.L389
.LVL319:
.L398:
.LBE67:
.LBE66:
.LBB68:
.LBB65:
.LBB64:
.LBB63:
	.loc 1 260 5 is_stmt 1
	.loc 1 260 8 is_stmt 0
	lw	a2,128(a4)
	bne	s0,a2,.L397
	.loc 1 261 7 is_stmt 1
	.loc 1 261 21 is_stmt 0
	sw	zero,128(a4)
.L397:
	.loc 1 259 32 is_stmt 1
	.loc 1 259 36 is_stmt 0
	lw	a4,12(a4)
.LVL320:
	j	.L396
.LVL321:
.L391:
.LBE63:
.LBE64:
.LBE65:
.LBE68:
	.loc 1 400 7 is_stmt 1
	.loc 1 400 12
	lui	a0,%hi(tcp_active_pcbs)
	mv	a1,s0
.LVL322:
	addi	a0,a0,%lo(tcp_active_pcbs)
	call	tcp_pcb_remove
.LVL323:
	.loc 1 400 51
	.loc 1 400 75 is_stmt 0
	lui	a5,%hi(tcp_active_pcbs_changed)
	sb	s1,%lo(tcp_active_pcbs_changed)(a5)
	j	.L412
.LVL324:
.L392:
	.loc 1 405 7 is_stmt 1
	.loc 1 405 14 is_stmt 0
	mv	a0,s0
	.loc 1 408 1
	lw	s0,8(sp)
	.cfi_restore 8
.LVL325:
	lw	ra,12(sp)
	.cfi_restore 1
	lw	s1,4(sp)
	.cfi_restore 9
	addi	sp,sp,16
	.cfi_def_cfa_offset 0
	.loc 1 405 14
	tail	tcp_close_shutdown_fin
.LVL326:
	.cfi_endproc
.LFE11:
	.size	tcp_close_shutdown, .-tcp_close_shutdown
	.section	.text.tcp_close,"ax",@progbits
	.align	1
	.globl	tcp_close
	.type	tcp_close, @function
tcp_close:
.LFB13:
	.loc 1 487 1 is_stmt 1
	.cfi_startproc
.LVL327:
	.loc 1 488 3
	.loc 1 490 3
	.loc 1 490 8
	.loc 1 490 11 is_stmt 0
	beq	a0,zero,.L414
	.loc 1 490 32 is_stmt 1 discriminator 2
	.loc 1 491 3 discriminator 2
	.loc 1 493 3 discriminator 2
	.loc 1 495 3 discriminator 2
	.loc 1 495 6 is_stmt 0 discriminator 2
	lw	a4,20(a0)
	li	a5,1
	beq	a4,a5,.L415
	.loc 1 497 5 is_stmt 1
	.loc 1 497 10
	.loc 1 497 25 is_stmt 0
	lhu	a5,30(a0)
	ori	a5,a5,16
	.loc 1 497 23
	sh	a5,30(a0)
.L415:
	.loc 1 497 70 is_stmt 1 discriminator 1
	.loc 1 500 3 discriminator 1
	.loc 1 500 10 is_stmt 0 discriminator 1
	li	a1,1
	tail	tcp_close_shutdown
.LVL328:
.L414:
	.loc 1 501 1
	li	a0,-16
.LVL329:
	ret
	.cfi_endproc
.LFE13:
	.size	tcp_close, .-tcp_close
	.section	.text.tcp_recv_null,"ax",@progbits
	.align	1
	.globl	tcp_recv_null
	.type	tcp_recv_null, @function
tcp_recv_null:
.LFB34:
	.loc 1 1695 1 is_stmt 1
	.cfi_startproc
.LVL330:
	.loc 1 1696 3
	.loc 1 1698 3
	.loc 1 1698 8
	.loc 1 1698 11 is_stmt 0
	beq	a1,zero,.L419
	.loc 1 1695 1 discriminator 2
	addi	sp,sp,-16
	.cfi_def_cfa_offset 16
	sw	s0,8(sp)
	sw	ra,12(sp)
	.cfi_offset 8, -8
	.cfi_offset 1, -4
	mv	a0,a1
.LVL331:
	mv	s0,a2
	.loc 1 1698 32 is_stmt 1 discriminator 2
	.loc 1 1700 3 discriminator 2
	.loc 1 1700 6 is_stmt 0 discriminator 2
	beq	a2,zero,.L418
	.loc 1 1701 5 is_stmt 1
	lhu	a1,8(a2)
.LVL332:
	call	tcp_recved
.LVL333:
	.loc 1 1702 5
	mv	a0,s0
	call	pbuf_free
.LVL334:
	.loc 1 1706 10 is_stmt 0
	li	a5,0
.L417:
	.loc 1 1707 1
	lw	ra,12(sp)
	.cfi_remember_state
	.cfi_restore 1
	lw	s0,8(sp)
	.cfi_restore 8
.LVL335:
	mv	a0,a5
	addi	sp,sp,16
	.cfi_def_cfa_offset 0
	jr	ra
.LVL336:
.L418:
	.cfi_restore_state
.LBB71:
.LBB72:
	.loc 1 1703 10 is_stmt 1
	.loc 1 1706 10 is_stmt 0
	li	a5,0
	.loc 1 1703 13
	bne	a3,zero,.L417
	.loc 1 1704 5 is_stmt 1
.LBE72:
.LBE71:
	.loc 1 1707 1 is_stmt 0
	lw	s0,8(sp)
	.cfi_restore 8
.LVL337:
	lw	ra,12(sp)
	.cfi_restore 1
	addi	sp,sp,16
	.cfi_def_cfa_offset 0
.LBB74:
.LBB73:
	.loc 1 1704 12
	tail	tcp_close
.LVL338:
.L419:
.LBE73:
.LBE74:
	.loc 1 1698 16
	li	a5,-16
	.loc 1 1707 1
	mv	a0,a5
.LVL339:
	ret
	.cfi_endproc
.LFE34:
	.size	tcp_recv_null, .-tcp_recv_null
	.section	.text.tcp_process_refused_data,"ax",@progbits
	.align	1
	.globl	tcp_process_refused_data
	.type	tcp_process_refused_data, @function
tcp_process_refused_data:
.LFB29:
	.loc 1 1550 1 is_stmt 1
	.cfi_startproc
.LVL340:
	.loc 1 1555 3
	.loc 1 1555 8
	.loc 1 1550 1 is_stmt 0
	addi	sp,sp,-32
	.cfi_def_cfa_offset 32
	sw	s0,24(sp)
	sw	ra,28(sp)
	sw	s1,20(sp)
	sw	s2,16(sp)
	.cfi_offset 8, -8
	.cfi_offset 1, -4
	.cfi_offset 9, -12
	.cfi_offset 18, -16
	.loc 1 1555 16
	li	s0,-16
	.loc 1 1555 11
	beq	a0,zero,.L426
.LBB75:
	.loc 1 1562 29 discriminator 2
	lw	s1,124(a0)
	.loc 1 1574 18 discriminator 2
	lw	a5,136(a0)
	mv	a1,a0
.LBE75:
	.loc 1 1555 32 is_stmt 1 discriminator 2
.LBB76:
	.loc 1 1561 5 discriminator 2
	.loc 1 1562 5 discriminator 2
	.loc 1 1562 10 is_stmt 0 discriminator 2
	lbu	s2,13(s1)
.LVL341:
	.loc 1 1565 5 is_stmt 1 discriminator 2
	.loc 1 1570 5 discriminator 2
	.loc 1 1570 23 is_stmt 0 discriminator 2
	sw	zero,124(a0)
	.loc 1 1573 5 is_stmt 1 discriminator 2
	.loc 1 1574 5 discriminator 2
	.loc 1 1574 10 discriminator 2
	.loc 1 1574 16 is_stmt 0 discriminator 2
	li	a3,0
	mv	a2,s1
	.loc 1 1574 12 discriminator 2
	beq	a5,zero,.L427
	.loc 1 1574 8 is_stmt 1 discriminator 1
	.loc 1 1574 16 is_stmt 0 discriminator 1
	lw	a0,16(a0)
.LVL342:
	sw	a1,12(sp)
	jalr	a5
.LVL343:
.L439:
	.loc 1 1574 97 discriminator 2
	lw	a1,12(sp)
.LVL344:
	.loc 1 1574 50 is_stmt 1 discriminator 2
	.loc 1 1575 5 discriminator 2
	.loc 1 1574 97 is_stmt 0 discriminator 2
	mv	s0,a0
	.loc 1 1575 8 discriminator 2
	bne	a0,zero,.L429
	.loc 1 1577 7 is_stmt 1
	.loc 1 1577 10 is_stmt 0
	andi	s2,s2,32
.LVL345:
	beq	s2,zero,.L426
	.loc 1 1584 9 is_stmt 1
	.loc 1 1584 16 is_stmt 0
	lhu	a5,44(a1)
	.loc 1 1584 12
	li	a4,4096
	addi	a4,a4,284
	beq	a5,a4,.L431
	.loc 1 1585 11 is_stmt 1
	.loc 1 1585 23 is_stmt 0
	addi	a5,a5,1
	sh	a5,44(a1)
.L431:
	.loc 1 1587 9 is_stmt 1
	.loc 1 1587 14
	.loc 1 1587 23 is_stmt 0
	lw	a5,136(a1)
	.loc 1 1587 16
	beq	a5,zero,.L426
	.loc 1 1587 13 is_stmt 1 discriminator 1
	.loc 1 1587 21 is_stmt 0 discriminator 1
	lw	a0,16(a1)
.LVL346:
	li	a3,0
	li	a2,0
	jalr	a5
.LVL347:
	.loc 1 1587 53 is_stmt 1 discriminator 1
	.loc 1 1588 9 discriminator 1
	.loc 1 1588 12 is_stmt 0 discriminator 1
	li	a5,-13
	bne	a0,a5,.L426
.L433:
	.loc 1 1589 11 is_stmt 1
	.loc 1 1589 18 is_stmt 0
	li	s0,-13
.LVL348:
.L426:
.LBE76:
	.loc 1 1610 1
	lw	ra,28(sp)
	.cfi_remember_state
	.cfi_restore 1
	mv	a0,s0
	lw	s0,24(sp)
	.cfi_restore 8
	lw	s1,20(sp)
	.cfi_restore 9
	lw	s2,16(sp)
	.cfi_restore 18
	addi	sp,sp,32
	.cfi_def_cfa_offset 0
	jr	ra
.LVL349:
.L427:
	.cfi_restore_state
.LBB77:
	.loc 1 1574 89 is_stmt 1 discriminator 2
	.loc 1 1574 97 is_stmt 0 discriminator 2
	sw	a0,12(sp)
	li	a0,0
.LVL350:
	call	tcp_recv_null
.LVL351:
	j	.L439
.LVL352:
.L429:
	.loc 1 1592 12 is_stmt 1
	.loc 1 1592 15 is_stmt 0
	li	a5,-13
	beq	a0,a5,.L433
	.loc 1 1605 7 is_stmt 1
	.loc 1 1605 25 is_stmt 0
	sw	s1,124(a1)
	.loc 1 1606 7 is_stmt 1
	.loc 1 1606 14 is_stmt 0
	li	s0,-5
	j	.L426
.LBE77:
	.cfi_endproc
.LFE29:
	.size	tcp_process_refused_data, .-tcp_process_refused_data
	.section	.text.tcp_fasttmr,"ax",@progbits
	.align	1
	.globl	tcp_fasttmr
	.type	tcp_fasttmr, @function
tcp_fasttmr:
.LFB27:
	.loc 1 1490 1 is_stmt 1
	.cfi_startproc
	.loc 1 1491 3
	.loc 1 1493 3
	.loc 1 1490 1 is_stmt 0
	addi	sp,sp,-32
	.cfi_def_cfa_offset 32
	.loc 1 1493 3
	lui	a4,%hi(.LANCHOR4)
	.loc 1 1490 1
	sw	s2,16(sp)
	sw	s3,12(sp)
	sw	s4,8(sp)
	sw	ra,28(sp)
	sw	s0,24(sp)
	sw	s1,20(sp)
	.cfi_offset 18, -16
	.cfi_offset 19, -20
	.cfi_offset 20, -24
	.cfi_offset 1, -4
	.cfi_offset 8, -8
	.cfi_offset 9, -12
	.loc 1 1493 3
	addi	a3,a4,%lo(.LANCHOR4)
	lbu	a5,0(a3)
	addi	s2,a4,%lo(.LANCHOR4)
	.loc 1 1496 7
	lui	s4,%hi(tcp_active_pcbs)
	.loc 1 1493 3
	addi	a5,a5,1
	sb	a5,0(a3)
.LBB78:
	.loc 1 1520 33
	lui	s3,%hi(tcp_active_pcbs_changed)
.L441:
.LBE78:
	.loc 1 1496 3 is_stmt 1
	.loc 1 1496 7 is_stmt 0
	lw	s0,%lo(tcp_active_pcbs)(s4)
.LVL353:
	.loc 1 1498 3 is_stmt 1
.L442:
	.loc 1 1498 9
	bne	s0,zero,.L447
	.loc 1 1532 1 is_stmt 0
	lw	ra,28(sp)
	.cfi_remember_state
	.cfi_restore 1
	lw	s0,24(sp)
	.cfi_restore 8
.LVL354:
	lw	s1,20(sp)
	.cfi_restore 9
	lw	s2,16(sp)
	.cfi_restore 18
	lw	s3,12(sp)
	.cfi_restore 19
	lw	s4,8(sp)
	.cfi_restore 20
	addi	sp,sp,32
	.cfi_def_cfa_offset 0
	jr	ra
.LVL355:
.L447:
	.cfi_restore_state
	.loc 1 1499 5 is_stmt 1
	.loc 1 1499 25 is_stmt 0
	lbu	a5,0(s2)
	.loc 1 1499 8
	lbu	a4,34(s0)
	beq	a4,a5,.L443
.LBB79:
	.loc 1 1500 7 is_stmt 1
	.loc 1 1501 7
	.loc 1 1501 23 is_stmt 0
	sb	a5,34(s0)
	.loc 1 1503 7 is_stmt 1
	.loc 1 1503 14 is_stmt 0
	lhu	a5,30(s0)
	.loc 1 1503 10
	andi	a4,a5,1
	beq	a4,zero,.L444
	.loc 1 1504 9 is_stmt 1
	.loc 1 1505 9
	.loc 1 1505 14
	.loc 1 1505 29 is_stmt 0
	ori	a5,a5,2
	.loc 1 1505 27
	sh	a5,30(s0)
	.loc 1 1505 74 is_stmt 1
	.loc 1 1506 9
	mv	a0,s0
	call	tcp_output
.LVL356:
	.loc 1 1507 9
	.loc 1 1507 14
	.loc 1 1507 29 is_stmt 0
	lhu	a5,30(s0)
	andi	a5,a5,-4
	.loc 1 1507 27
	sh	a5,30(s0)
.L444:
	.loc 1 1507 107 is_stmt 1 discriminator 1
	.loc 1 1510 7 discriminator 1
	.loc 1 1510 14 is_stmt 0 discriminator 1
	lhu	a5,30(s0)
	.loc 1 1510 10 discriminator 1
	andi	a4,a5,8
	beq	a4,zero,.L445
	.loc 1 1511 9 is_stmt 1
	.loc 1 1512 9
	.loc 1 1512 14
	.loc 1 1512 29 is_stmt 0
	andi	a5,a5,-9
	.loc 1 1512 27
	sh	a5,30(s0)
	.loc 1 1512 99 is_stmt 1
	.loc 1 1513 9
	mv	a0,s0
	call	tcp_close_shutdown_fin
.LVL357:
.L445:
	.loc 1 1516 7
	.loc 1 1519 10 is_stmt 0
	lw	a5,124(s0)
	.loc 1 1516 12
	lw	s1,12(s0)
.LVL358:
	.loc 1 1519 7 is_stmt 1
	.loc 1 1519 10 is_stmt 0
	beq	a5,zero,.L446
	.loc 1 1520 9 is_stmt 1
	.loc 1 1521 9 is_stmt 0
	mv	a0,s0
	.loc 1 1520 33
	sb	zero,%lo(tcp_active_pcbs_changed)(s3)
	.loc 1 1521 9 is_stmt 1
	call	tcp_process_refused_data
.LVL359:
	.loc 1 1522 9
	.loc 1 1522 12 is_stmt 0
	lbu	a5,%lo(tcp_active_pcbs_changed)(s3)
	bne	a5,zero,.L441
.LVL360:
.L446:
.LBE79:
	.loc 1 1490 1
	mv	s0,s1
	j	.L442
.LVL361:
.L443:
	.loc 1 1529 7 is_stmt 1
	.loc 1 1529 11 is_stmt 0
	lw	s1,12(s0)
.LVL362:
	j	.L446
	.cfi_endproc
.LFE27:
	.size	tcp_fasttmr, .-tcp_fasttmr
	.section	.text.tcp_shutdown,"ax",@progbits
	.align	1
	.globl	tcp_shutdown
	.type	tcp_shutdown, @function
tcp_shutdown:
.LFB14:
	.loc 1 518 1 is_stmt 1
	.cfi_startproc
.LVL363:
	.loc 1 519 3
	.loc 1 521 3
	.loc 1 521 8
	.loc 1 521 11 is_stmt 0
	beq	a0,zero,.L467
	.loc 1 518 1 discriminator 2
	addi	sp,sp,-16
	.cfi_def_cfa_offset 16
	sw	s0,8(sp)
	sw	ra,12(sp)
	.cfi_offset 8, -8
	.cfi_offset 1, -4
	.loc 1 523 10 discriminator 2
	lw	a5,20(a0)
	.loc 1 523 6 discriminator 2
	li	a4,1
	mv	s0,a0
	.loc 1 521 32 is_stmt 1 discriminator 2
	.loc 1 523 3 discriminator 2
	.loc 1 523 6 is_stmt 0 discriminator 2
	beq	a5,a4,.L469
	.loc 1 526 3 is_stmt 1
	.loc 1 526 6 is_stmt 0
	beq	a1,zero,.L461
	.loc 1 528 5 is_stmt 1
	.loc 1 528 10
	.loc 1 528 25 is_stmt 0
	lhu	a5,30(a0)
	.loc 1 531 14
	li	a1,1
.LVL364:
	.loc 1 528 25
	ori	a5,a5,16
	.loc 1 528 23
	sh	a5,30(a0)
	.loc 1 528 70 is_stmt 1
	.loc 1 529 5
	.loc 1 529 8 is_stmt 0
	bne	a2,zero,.L478
	.loc 1 534 5 is_stmt 1
	.loc 1 534 12 is_stmt 0
	lw	a0,124(a0)
.LVL365:
	.loc 1 534 8
	bne	a0,zero,.L463
.LVL366:
.L477:
	.loc 1 553 10
	li	a0,0
.L460:
	.loc 1 554 1
	lw	ra,12(sp)
	.cfi_remember_state
	.cfi_restore 1
	lw	s0,8(sp)
	.cfi_restore 8
.LVL367:
	addi	sp,sp,16
	.cfi_def_cfa_offset 0
	jr	ra
.LVL368:
.L463:
	.cfi_restore_state
	.loc 1 535 7 is_stmt 1
	call	pbuf_free
.LVL369:
	.loc 1 536 7
	.loc 1 536 25 is_stmt 0
	sw	zero,124(s0)
	j	.L477
.LVL370:
.L461:
	.loc 1 539 3 is_stmt 1
	.loc 1 539 6 is_stmt 0
	beq	a2,zero,.L477
	.loc 1 542 5 is_stmt 1
	li	a4,4
	bgtu	a5,a4,.L465
	li	a4,2
	bgtu	a5,a4,.L466
.L469:
	li	a0,-11
	j	.L460
.L465:
	li	a4,7
	bne	a5,a4,.L469
.L466:
	.loc 1 546 9
	.loc 1 546 16 is_stmt 0
	li	a1,0
.LVL371:
	mv	a0,s0
.L478:
	.loc 1 554 1
	lw	s0,8(sp)
	.cfi_restore 8
.LVL372:
	lw	ra,12(sp)
	.cfi_restore 1
	addi	sp,sp,16
	.cfi_def_cfa_offset 0
	.loc 1 546 16
	tail	tcp_close_shutdown
.LVL373:
.L467:
	.loc 1 521 16
	li	a0,-16
.LVL374:
	.loc 1 554 1
	ret
	.cfi_endproc
.LFE14:
	.size	tcp_shutdown, .-tcp_shutdown
	.section	.text.tcp_slowtmr,"ax",@progbits
	.align	1
	.globl	tcp_slowtmr
	.type	tcp_slowtmr, @function
tcp_slowtmr:
.LFB26:
	.loc 1 1195 1 is_stmt 1
	.cfi_startproc
	.loc 1 1196 3
	.loc 1 1197 3
	.loc 1 1198 3
	.loc 1 1199 3
	.loc 1 1200 3
	.loc 1 1202 3
.LVL375:
	.loc 1 1204 3
	.loc 1 1195 1 is_stmt 0
	addi	sp,sp,-80
	.cfi_def_cfa_offset 80
	sw	s0,72(sp)
	.cfi_offset 8, -8
	.loc 1 1204 3
	lui	s0,%hi(tcp_ticks)
	lw	a5,%lo(tcp_ticks)(s0)
	.loc 1 1195 1
	sw	s2,64(sp)
	.cfi_offset 18, -16
	.loc 1 1205 3
	lui	s2,%hi(.LANCHOR4)
	.loc 1 1195 1
	sw	s5,52(sp)
	sw	s6,48(sp)
	sw	s8,40(sp)
	sw	ra,76(sp)
	sw	s1,68(sp)
	sw	s3,60(sp)
	sw	s4,56(sp)
	sw	s7,44(sp)
	sw	s9,36(sp)
	sw	s10,32(sp)
	sw	s11,28(sp)
	.cfi_offset 21, -28
	.cfi_offset 22, -32
	.cfi_offset 24, -40
	.cfi_offset 1, -4
	.cfi_offset 9, -12
	.cfi_offset 19, -20
	.cfi_offset 20, -24
	.cfi_offset 23, -36
	.cfi_offset 25, -44
	.cfi_offset 26, -48
	.cfi_offset 27, -52
	.loc 1 1204 3
	addi	a5,a5,1
	.loc 1 1205 3
	addi	a4,s2,%lo(.LANCHOR4)
	.loc 1 1204 3
	sw	a5,%lo(tcp_ticks)(s0)
	.loc 1 1205 3 is_stmt 1
	lbu	a5,0(a4)
.LBB80:
	.loc 1 1290 71 is_stmt 0
	lui	s5,%hi(.LANCHOR6)
.LBE80:
.LBB81:
	.loc 1 1243 16
	lui	s6,%hi(.LANCHOR5)
.LBE81:
	.loc 1 1205 3
	addi	a5,a5,1
	sb	a5,0(a4)
	addi	a5,s2,%lo(.LANCHOR4)
	sw	a5,8(sp)
	.loc 1 1273 12
	li	s8,32768
.LBB84:
	.loc 1 1290 71
	addi	s5,s5,%lo(.LANCHOR6)
.LBE84:
.LBB85:
	.loc 1 1243 16
	addi	s6,s6,%lo(.LANCHOR5)
.LVL376:
.L480:
.LBE85:
	.loc 1 1209 3 is_stmt 1
	.loc 1 1210 3
	.loc 1 1210 7 is_stmt 0
	lui	s3,%hi(tcp_active_pcbs)
	lw	s11,%lo(tcp_active_pcbs)(s3)
.LVL377:
	.loc 1 1211 3 is_stmt 1
	.loc 1 1212 5
	.loc 1 1214 3
	.loc 1 1209 8 is_stmt 0
	li	s1,0
.LBB86:
	.loc 1 1418 31
	lui	s4,%hi(tcp_active_pcbs_changed)
.LBE86:
	.loc 1 1273 12
	addi	s9,s8,-2
.LVL378:
.L481:
	.loc 1 1214 9 is_stmt 1
	bne	s11,zero,.L520
	.loc 1 1448 3
.LVL379:
	.loc 1 1449 3
	.loc 1 1449 7 is_stmt 0
	lui	a5,%hi(tcp_tw_pcbs)
	lw	a0,%lo(tcp_tw_pcbs)(a5)
.LVL380:
	.loc 1 1450 3 is_stmt 1
	mv	s1,a5
	.loc 1 1455 8 is_stmt 0
	li	s2,240
.LVL381:
.L521:
	.loc 1 1450 9 is_stmt 1
	bne	a0,zero,.L527
	.loc 1 1480 1 is_stmt 0
	lw	ra,76(sp)
	.cfi_remember_state
	.cfi_restore 1
	lw	s0,72(sp)
	.cfi_restore 8
	lw	s1,68(sp)
	.cfi_restore 9
	lw	s2,64(sp)
	.cfi_restore 18
	lw	s3,60(sp)
	.cfi_restore 19
	lw	s4,56(sp)
	.cfi_restore 20
	lw	s5,52(sp)
	.cfi_restore 21
	lw	s6,48(sp)
	.cfi_restore 22
	lw	s7,44(sp)
	.cfi_restore 23
	lw	s8,40(sp)
	.cfi_restore 24
	lw	s9,36(sp)
	.cfi_restore 25
	lw	s10,32(sp)
	.cfi_restore 26
	lw	s11,28(sp)
	.cfi_restore 27
.LVL382:
	addi	sp,sp,80
	.cfi_def_cfa_offset 0
	jr	ra
.LVL383:
.L520:
	.cfi_restore_state
	.loc 1 1215 5 is_stmt 1
	.loc 1 1216 5
	.loc 1 1216 10
	.loc 1 1216 41
	.loc 1 1216 51
	.loc 1 1217 5
	.loc 1 1217 10
	.loc 1 1217 41
	.loc 1 1217 51
	.loc 1 1218 5
	.loc 1 1218 10
	.loc 1 1218 44
	.loc 1 1218 54
	.loc 1 1219 5
	.loc 1 1219 25 is_stmt 0
	lw	a5,8(sp)
	.loc 1 1219 8
	lbu	a4,34(s11)
	.loc 1 1219 25
	lbu	a5,0(a5)
	.loc 1 1219 8
	bne	a4,a5,.L482
	.loc 1 1221 7 is_stmt 1
.LVL384:
	.loc 1 1222 7
	.loc 1 1222 11 is_stmt 0
	lw	s7,12(s11)
.LVL385:
	.loc 1 1223 7 is_stmt 1
.L483:
.LBB87:
	mv	s1,s11
	mv	s11,s7
.LVL386:
	j	.L481
.LVL387:
.L482:
.LBE87:
	.loc 1 1216 19 is_stmt 0
	lw	a2,20(s11)
	.loc 1 1225 5 is_stmt 1
	.loc 1 1225 21 is_stmt 0
	sb	a5,34(s11)
	.loc 1 1227 5 is_stmt 1
.LVL388:
	.loc 1 1228 5
	.loc 1 1230 5
	.loc 1 1230 8 is_stmt 0
	li	a4,2
	.loc 1 1230 38
	lbu	a5,70(s11)
	.loc 1 1230 8
	bne	a2,a4,.L484
	.loc 1 1230 32 discriminator 1
	li	a4,5
.L565:
	.loc 1 1231 7
	li	s7,1
	.loc 1 1233 15
	bgtu	a5,a4,.L485
	.loc 1 1237 7 is_stmt 1
	.loc 1 1237 14 is_stmt 0
	lbu	s7,165(s11)
	.loc 1 1237 10
	beq	s7,zero,.L487
	.loc 1 1238 9 is_stmt 1
	.loc 1 1238 14
	.loc 1 1238 13
	.loc 1 1238 23
	.loc 1 1239 9
	.loc 1 1239 14
	.loc 1 1239 13
	.loc 1 1239 23
	.loc 1 1240 9
	.loc 1 1240 12 is_stmt 0
	lbu	a4,166(s11)
	li	a5,11
	bgtu	a4,a5,.L530
.LBB88:
	.loc 1 1243 11 is_stmt 1
	.loc 1 1243 16 is_stmt 0
	add	s7,s6,s7
	lbu	a4,-1(s7)
.LVL389:
	.loc 1 1244 11 is_stmt 1
	.loc 1 1244 18 is_stmt 0
	lbu	a5,164(s11)
	.loc 1 1244 14
	bltu	a5,a4,.L488
.L491:
.LBB82:
	.loc 1 1248 13 is_stmt 1
.LVL390:
	.loc 1 1250 13
	.loc 1 1250 20 is_stmt 0
	lhu	a1,100(s11)
	.loc 1 1250 16
	beq	a1,zero,.L489
	.loc 1 1256 15 is_stmt 1
	.loc 1 1256 19 is_stmt 0
	mv	a0,s11
	call	tcp_split_unsent_seg
.LVL391:
	.loc 1 1256 18
	bne	a0,zero,.L494
	.loc 1 1257 17 is_stmt 1
	.loc 1 1257 21 is_stmt 0
	mv	a0,s11
	call	tcp_output
.LVL392:
	.loc 1 1257 20
	beq	a0,zero,.L566
	j	.L494
.LVL393:
.L484:
.LBE82:
.LBE88:
	.loc 1 1233 12 is_stmt 1
	.loc 1 1233 15 is_stmt 0
	li	a4,11
	j	.L565
.LVL394:
.L488:
.LBB89:
	.loc 1 1245 13 is_stmt 1
	.loc 1 1245 29 is_stmt 0
	addi	a5,a5,1
	andi	a5,a5,0xff
	sb	a5,164(s11)
	.loc 1 1247 11 is_stmt 1
	.loc 1 1247 14 is_stmt 0
	bgeu	a5,a4,.L491
.LVL395:
.L566:
.LBE89:
	.loc 1 1227 16
	li	s7,0
.L485:
.LVL396:
	.loc 1 1317 5 is_stmt 1
	.loc 1 1317 12 is_stmt 0
	lw	a4,20(s11)
	.loc 1 1317 8
	li	a5,6
	bne	a4,a5,.L502
	.loc 1 1319 7 is_stmt 1
	.loc 1 1319 10 is_stmt 0
	lhu	a5,30(s11)
	andi	a5,a5,16
	beq	a5,zero,.L502
	.loc 1 1322 9 is_stmt 1
	.loc 1 1322 31 is_stmt 0
	lw	a2,36(s11)
	lw	a5,%lo(tcp_ticks)(s0)
	sub	a5,a5,a2
	.loc 1 1322 12
	li	a2,40
	bleu	a5,a2,.L502
	.loc 1 1324 11 is_stmt 1
	addi	s7,s7,1
.LVL397:
	andi	s7,s7,0xff
.LVL398:
.L502:
	.loc 1 1325 11
	.loc 1 1331 5
	lbu	a5,9(s11)
	andi	s2,a5,8
	.loc 1 1331 8 is_stmt 0
	beq	s2,zero,.L503
	.loc 1 1331 39 discriminator 1
	li	a5,4
	beq	a4,a5,.L504
	.loc 1 1332 38
	li	a2,7
	.loc 1 1228 15
	li	s2,0
	.loc 1 1332 38
	bne	a4,a2,.L503
.L504:
	.loc 1 1334 7 is_stmt 1
	.loc 1 1334 29 is_stmt 0
	lw	a5,36(s11)
	lw	a2,%lo(tcp_ticks)(s0)
	.loc 1 1335 68
	li	a1,500
	.loc 1 1334 29
	sub	a2,a2,a5
	.loc 1 1335 15
	addi	a5,s11,128
	lw	a0,24(a5)
	.loc 1 1335 53
	lw	a6,28(a5)
	.loc 1 1335 46
	lw	a5,32(a5)
	mul	a5,a6,a5
	.loc 1 1335 27
	add	a5,a5,a0
	.loc 1 1335 68
	divu	a5,a5,a1
	.loc 1 1334 10
	bleu	a2,a5,.L505
	.loc 1 1336 9 is_stmt 1
	.loc 1 1337 9
	.loc 1 1338 9
	.loc 1 1340 9
	addi	s7,s7,1
.LVL399:
	andi	s7,s7,0xff
.LVL400:
	.loc 1 1341 9
	li	s2,1
.LVL401:
.L503:
	.loc 1 1356 5
	.loc 1 1356 8 is_stmt 0
	lw	a4,120(s11)
	beq	a4,zero,.L506
	.loc 1 1357 20 discriminator 1
	lw	a4,36(s11)
	lw	a2,%lo(tcp_ticks)(s0)
	.loc 1 1357 50 discriminator 1
	li	a1,6
	.loc 1 1357 20 discriminator 1
	sub	a2,a2,a4
	.loc 1 1357 34 discriminator 1
	lh	a4,68(s11)
	.loc 1 1357 50 discriminator 1
	mul	a4,a4,a1
	.loc 1 1356 27 discriminator 1
	bltu	a2,a4,.L506
	.loc 1 1358 7 is_stmt 1
	.loc 1 1359 7
	mv	a0,s11
	call	tcp_free_ooseq
.LVL402:
.L506:
	.loc 1 1364 5
	.loc 1 1364 12 is_stmt 0
	lw	a4,20(s11)
	.loc 1 1364 8
	li	a2,3
	bne	a4,a2,.L507
	.loc 1 1365 7 is_stmt 1
	.loc 1 1365 29 is_stmt 0
	lw	a2,36(s11)
	lw	a4,%lo(tcp_ticks)(s0)
	sub	a4,a4,a2
	.loc 1 1365 10
	li	a2,40
.L568:
	.loc 1 1382 10
	bgtu	a4,a2,.L508
.L509:
	.loc 1 1384 9 is_stmt 1
	.loc 1 1389 5
	.loc 1 1389 8 is_stmt 0
	beq	s7,zero,.L513
.L508:
.LVL403:
.LBB90:
	.loc 1 1390 7 is_stmt 1
	.loc 1 1392 7
	.loc 1 1396 7 is_stmt 0
	mv	a0,s11
	.loc 1 1392 18
	lw	s10,148(s11)
.LVL404:
	.loc 1 1394 7 is_stmt 1
	.loc 1 1395 7
	.loc 1 1396 7
	call	tcp_pcb_purge
.LVL405:
	.loc 1 1398 7
	lw	a4,12(s11)
	.loc 1 1398 10 is_stmt 0
	beq	s1,zero,.L514
	.loc 1 1399 9 is_stmt 1
	.loc 1 1399 14
	.loc 1 1399 47
	.loc 1 1399 57
	.loc 1 1400 9
	.loc 1 1400 20 is_stmt 0
	sw	a4,12(s1)
.L515:
	.loc 1 1407 7 is_stmt 1
	.loc 1 1407 10 is_stmt 0
	beq	s2,zero,.L516
	.loc 1 1408 9 is_stmt 1
	lhu	a6,28(s11)
	lhu	a5,26(s11)
	lw	a2,40(s11)
	lw	a1,84(s11)
	addi	a4,s11,4
	mv	a3,s11
	mv	a0,s11
	call	tcp_rst
.LVL406:
.L516:
	.loc 1 1412 7
	.loc 1 1412 15 is_stmt 0
	lw	a5,16(s11)
	.loc 1 1416 7
	mv	a0,s11
	.loc 1 1415 11
	lw	s7,12(s11)
	.loc 1 1412 15
	sw	a5,12(sp)
.LVL407:
	.loc 1 1413 7 is_stmt 1
	.loc 1 1414 7
	.loc 1 1415 7
	.loc 1 1416 7
	call	tcp_free
.LVL408:
	.loc 1 1418 7
	.loc 1 1418 31 is_stmt 0
	sb	zero,%lo(tcp_active_pcbs_changed)(s4)
	.loc 1 1419 7 is_stmt 1
	.loc 1 1419 12
	.loc 1 1419 30
	.loc 1 1419 32 is_stmt 0
	beq	s10,zero,.L535
	.loc 1 1419 8 is_stmt 1 discriminator 1
	lw	a5,12(sp)
	li	a1,-13
	mv	a0,a5
	jalr	s10
.LVL409:
	.loc 1 1419 48 discriminator 1
	.loc 1 1420 7 discriminator 1
	.loc 1 1420 10 is_stmt 0 discriminator 1
	lbu	a5,%lo(tcp_active_pcbs_changed)(s4)
	bne	a5,zero,.L480
.L535:
	mv	s11,s1
.LVL410:
	j	.L483
.LVL411:
.L489:
.LBE90:
.LBB91:
.LBB83:
	.loc 1 1251 15 is_stmt 1
	.loc 1 1251 19 is_stmt 0
	mv	a0,s11
	call	tcp_zero_window_probe
.LVL412:
	.loc 1 1251 18
	bne	a0,zero,.L566
.L494:
.LVL413:
	.loc 1 1264 15 is_stmt 1
	.loc 1 1265 22 is_stmt 0
	lbu	a5,165(s11)
	.loc 1 1264 32
	sb	zero,164(s11)
	.loc 1 1265 15 is_stmt 1
	.loc 1 1265 18 is_stmt 0
	li	a4,6
	bgtu	a5,a4,.L566
	.loc 1 1266 17 is_stmt 1
	.loc 1 1266 37 is_stmt 0
	addi	a5,a5,1
	sb	a5,165(s11)
	j	.L566
.LVL414:
.L487:
.LBE83:
.LBE91:
	.loc 1 1273 9 is_stmt 1
	.loc 1 1273 31 is_stmt 0
	lhu	a5,52(s11)
	.loc 1 1273 12
	bgtu	a5,s9,.L495
	.loc 1 1274 11 is_stmt 1
	addi	a5,a5,1
	sh	a5,52(s11)
.L495:
	.loc 1 1277 9
	.loc 1 1277 12 is_stmt 0
	lh	a4,52(s11)
	lh	a5,68(s11)
	blt	a4,a5,.L566
	.loc 1 1281 61 is_stmt 1
	.loc 1 1285 11
	.loc 1 1285 16 is_stmt 0
	mv	a0,s11
	call	tcp_rexmit_rto_prepare
.LVL415:
	.loc 1 1285 14
	beq	a0,zero,.L496
	.loc 1 1285 55 discriminator 1
	lw	a5,116(s11)
	bne	a5,zero,.L566
	.loc 1 1285 81 discriminator 2
	lw	a5,112(s11)
	beq	a5,zero,.L566
.L496:
	.loc 1 1288 13 is_stmt 1
	.loc 1 1288 16 is_stmt 0
	lw	a4,20(s11)
	li	a5,2
	beq	a4,a5,.L497
.LBB92:
	.loc 1 1289 15 is_stmt 1
.LVL416:
	.loc 1 1290 15
	.loc 1 1290 40 is_stmt 0
	lh	a5,64(s11)
	.loc 1 1290 51
	lh	a4,66(s11)
	.loc 1 1289 20
	li	a2,12
	.loc 1 1290 40
	srai	a5,a5,3
	.loc 1 1290 46
	add	a5,a5,a4
	.loc 1 1289 20
	lbu	a4,70(s11)
	andi	a1,a4,0xff
	bleu	a1,a2,.L498
	li	a4,12
.L498:
	.loc 1 1290 71
	andi	a4,a4,0xff
	add	a4,s5,a4
	lbu	a4,0(a4)
	.loc 1 1290 19
	sll	a5,a5,a4
.LVL417:
	.loc 1 1291 15 is_stmt 1
	.loc 1 1291 26 is_stmt 0
	ble	a5,s9,.L499
	li	a5,32768
.LVL418:
	addi	a5,a5,-1
.L499:
	.loc 1 1291 24 discriminator 4
	sh	a5,68(s11)
.LVL419:
.L497:
.LBE92:
	.loc 1 1295 13 is_stmt 1
	.loc 1 1298 21 is_stmt 0
	lhu	a4,76(s11)
	lhu	a5,100(s11)
	.loc 1 1295 24
	sh	zero,52(s11)
	.loc 1 1298 13 is_stmt 1
.LVL420:
	.loc 1 1299 13
	.loc 1 1298 21 is_stmt 0
	slli	a2,a4,16
	slli	a1,a5,16
	srli	a1,a1,16
	srli	a2,a2,16
	bleu	a1,a2,.L500
	mv	a5,a4
.L500:
	.loc 1 1300 52
	lhu	a2,54(s11)
	.loc 1 1299 27
	slli	a5,a5,16
	srli	a5,a5,16
	.loc 1 1300 33
	slli	a4,a2,1
	.loc 1 1299 27
	srli	a5,a5,1
	.loc 1 1300 33
	slli	a4,a4,16
	.loc 1 1299 27
	sh	a5,78(s11)
	.loc 1 1300 13 is_stmt 1
	.loc 1 1300 33 is_stmt 0
	srli	a4,a4,16
	.loc 1 1300 16
	bgeu	a5,a4,.L501
	.loc 1 1301 15 is_stmt 1
	.loc 1 1301 29 is_stmt 0
	sh	a4,78(s11)
.L501:
	.loc 1 1303 13 is_stmt 1
	.loc 1 1303 23 is_stmt 0
	sh	a2,76(s11)
.LVL421:
	.loc 1 1306 68 is_stmt 1
	.loc 1 1307 13
	.loc 1 1307 30 is_stmt 0
	sh	zero,110(s11)
	.loc 1 1311 13 is_stmt 1
	mv	a0,s11
	call	tcp_rexmit_rto_commit
.LVL422:
	j	.L485
.L530:
	.loc 1 1231 7 is_stmt 0
	li	s7,1
	j	.L485
.LVL423:
.L505:
	.loc 1 1342 14 is_stmt 1
	.loc 1 1343 39 is_stmt 0
	lbu	a4,167(s11)
	.loc 1 1228 15
	li	s2,0
	.loc 1 1343 55
	mul	a4,a4,a6
	.loc 1 1343 34
	add	a4,a4,a0
	.loc 1 1344 18
	divu	a4,a4,a1
	.loc 1 1342 17
	bleu	a2,a4,.L503
	.loc 1 1345 9 is_stmt 1
	.loc 1 1345 15 is_stmt 0
	mv	a0,s11
	call	tcp_keepalive
.LVL424:
	.loc 1 1346 9 is_stmt 1
	.loc 1 1346 12 is_stmt 0
	bne	a0,zero,.L503
	.loc 1 1347 11 is_stmt 1
	.loc 1 1347 29 is_stmt 0
	lbu	a4,167(s11)
	addi	a4,a4,1
	sb	a4,167(s11)
	j	.L503
.LVL425:
.L507:
	.loc 1 1368 9 is_stmt 1
	.loc 1 1373 5
	.loc 1 1373 8 is_stmt 0
	li	a2,9
	beq	a4,a2,.L510
	.loc 1 1376 9 is_stmt 1
	.loc 1 1381 5
	.loc 1 1381 8 is_stmt 0
	li	a2,5
	beq	a4,a2,.L511
	.loc 1 1381 34 discriminator 1
	li	a2,8
	bne	a4,a2,.L509
.L511:
	.loc 1 1382 7 is_stmt 1
	.loc 1 1382 29 is_stmt 0
	lw	a2,36(s11)
	lw	a4,%lo(tcp_ticks)(s0)
	sub	a4,a4,a2
	.loc 1 1382 10
	li	a2,10
	j	.L568
.L510:
	.loc 1 1374 7 is_stmt 1
	.loc 1 1374 29 is_stmt 0
	lw	a2,36(s11)
	lw	a4,%lo(tcp_ticks)(s0)
	sub	a4,a4,a2
	.loc 1 1374 10
	li	a2,240
	j	.L568
.LVL426:
.L514:
.LBB93:
	.loc 1 1403 9 is_stmt 1
	.loc 1 1403 14
	.loc 1 1403 47
	.loc 1 1403 57
	.loc 1 1404 9
	.loc 1 1404 25 is_stmt 0
	sw	a4,%lo(tcp_active_pcbs)(s3)
	j	.L515
.LVL427:
.L513:
.LBE93:
	.loc 1 1425 7 is_stmt 1
	.loc 1 1426 7
	.loc 1 1429 7 is_stmt 0
	lbu	a5,32(s11)
	.loc 1 1430 10
	lbu	a4,33(s11)
	.loc 1 1426 11
	lw	s7,12(s11)
.LVL428:
	.loc 1 1429 7 is_stmt 1
	addi	a5,a5,1
	andi	a5,a5,0xff
	sb	a5,32(s11)
	.loc 1 1430 7
	.loc 1 1430 10 is_stmt 0
	bgtu	a4,a5,.L483
	.loc 1 1431 9 is_stmt 1
	.loc 1 1434 23 is_stmt 0
	lw	a5,144(s11)
	.loc 1 1431 23
	sb	zero,32(s11)
	.loc 1 1432 9 is_stmt 1
	.loc 1 1433 9
	.loc 1 1433 33 is_stmt 0
	sb	zero,%lo(tcp_active_pcbs_changed)(s4)
	.loc 1 1434 9 is_stmt 1
	.loc 1 1434 14
	.loc 1 1434 16 is_stmt 0
	bne	a5,zero,.L518
.L519:
	.loc 1 1440 11 is_stmt 1
	mv	a0,s11
	call	tcp_output
.LVL429:
	j	.L483
.L518:
	.loc 1 1434 10 discriminator 1
	.loc 1 1434 18 is_stmt 0 discriminator 1
	lw	a0,16(s11)
	mv	a1,s11
	jalr	a5
.LVL430:
	.loc 1 1434 90 is_stmt 1 discriminator 1
	.loc 1 1435 9 discriminator 1
	.loc 1 1435 12 is_stmt 0 discriminator 1
	lbu	a5,%lo(tcp_active_pcbs_changed)(s4)
	bne	a5,zero,.L480
	.loc 1 1439 9 is_stmt 1
	.loc 1 1439 12 is_stmt 0
	bne	a0,zero,.L483
	j	.L519
.LVL431:
.L527:
	.loc 1 1451 5 is_stmt 1
	.loc 1 1451 10
	.loc 1 1451 44
	.loc 1 1451 54
	.loc 1 1452 5
	.loc 1 1455 5
	.loc 1 1455 27 is_stmt 0
	lw	a5,%lo(tcp_ticks)(s0)
	lw	a4,36(a0)
	sub	a5,a5,a4
	.loc 1 1455 8
	bleu	a5,s2,.L522
	.loc 1 1456 7 is_stmt 1
.LVL432:
	.loc 1 1460 5
.LBB94:
	.loc 1 1461 7
	.loc 1 1462 7
	sw	a0,8(sp)
	call	tcp_pcb_purge
.LVL433:
	.loc 1 1464 7
	lw	a0,8(sp)
	lw	a5,12(a0)
	.loc 1 1464 10 is_stmt 0
	bne	s11,zero,.L523
	.loc 1 1469 9 is_stmt 1
	.loc 1 1469 14
	.loc 1 1469 43
	.loc 1 1469 53
	.loc 1 1470 9
	.loc 1 1470 21 is_stmt 0
	sw	a5,%lo(tcp_tw_pcbs)(s1)
	j	.L526
.LVL434:
.L522:
.LBE94:
	.loc 1 1460 5 is_stmt 1
	.loc 1 1476 7
	.loc 1 1477 7
	.loc 1 1477 11 is_stmt 0
	mv	s11,a0
	lw	a0,12(a0)
.LVL435:
	j	.L521
.LVL436:
.L523:
.LBB95:
	.loc 1 1465 9 is_stmt 1
	.loc 1 1465 14
	.loc 1 1465 43
	.loc 1 1465 53
	.loc 1 1466 9
	.loc 1 1466 20 is_stmt 0
	sw	a5,12(s11)
.L526:
	.loc 1 1472 7 is_stmt 1
.LVL437:
	.loc 1 1473 7
	.loc 1 1473 11 is_stmt 0
	lw	s3,12(a0)
.LVL438:
	.loc 1 1474 7 is_stmt 1
	call	tcp_free
.LVL439:
	.loc 1 1473 11 is_stmt 0
	mv	a0,s3
.LBE95:
	j	.L521
	.cfi_endproc
.LFE26:
	.size	tcp_slowtmr, .-tcp_slowtmr
	.section	.text.tcp_tmr,"ax",@progbits
	.align	1
	.globl	tcp_tmr
	.type	tcp_tmr, @function
tcp_tmr:
.LFB8:
	.loc 1 237 1 is_stmt 1
	.cfi_startproc
	.loc 1 239 3
	.loc 1 237 1 is_stmt 0
	addi	sp,sp,-16
	.cfi_def_cfa_offset 16
	sw	ra,12(sp)
	.cfi_offset 1, -4
	.loc 1 239 3
	call	tcp_fasttmr
.LVL440:
	.loc 1 241 3 is_stmt 1
	.loc 1 241 7 is_stmt 0
	lui	a4,%hi(.LANCHOR7)
	addi	a4,a4,%lo(.LANCHOR7)
	lbu	a5,0(a4)
	addi	a5,a5,1
	andi	a5,a5,0xff
	.loc 1 241 6
	sb	a5,0(a4)
	andi	a5,a5,1
	beq	a5,zero,.L570
	.loc 1 244 5 is_stmt 1
	.loc 1 246 1 is_stmt 0
	lw	ra,12(sp)
	.cfi_remember_state
	.cfi_restore 1
	addi	sp,sp,16
	.cfi_def_cfa_offset 0
	.loc 1 244 5
	tail	tcp_slowtmr
.LVL441:
.L570:
	.cfi_restore_state
	.loc 1 246 1
	lw	ra,12(sp)
	.cfi_restore 1
	addi	sp,sp,16
	.cfi_def_cfa_offset 0
	jr	ra
	.cfi_endproc
.LFE8:
	.size	tcp_tmr, .-tcp_tmr
	.section	.text.tcp_get_pcbs,"ax",@progbits
	.align	1
	.globl	tcp_get_pcbs
	.type	tcp_get_pcbs, @function
tcp_get_pcbs:
.LFB57:
	.loc 1 2698 1 is_stmt 1
	.cfi_startproc
.LVL442:
	.loc 1 2699 3
	.loc 1 2699 9 is_stmt 0
	lui	a5,%hi(.LANCHOR1)
	addi	a5,a5,%lo(.LANCHOR1)
	sw	a5,0(a0)
	.loc 1 2700 3 is_stmt 1
	.loc 1 2701 1 is_stmt 0
	li	a0,4
.LVL443:
	ret
	.cfi_endproc
.LFE57:
	.size	tcp_get_pcbs, .-tcp_get_pcbs
	.comm	tcp_active_pcbs_changed,1,1
	.globl	tcp_pcb_lists
	.comm	tcp_tw_pcbs,4,4
	.comm	tcp_active_pcbs,4,4
	.comm	tcp_listen_pcbs,4,4
	.comm	tcp_bound_pcbs,4,4
	.comm	tcp_ticks,4,4
	.section	.rodata.str1.4,"aMS",@progbits,1
	.align	2
.LC1:
	.string	"CLOSED"
	.align	2
.LC2:
	.string	"LISTEN"
	.align	2
.LC3:
	.string	"SYN_SENT"
	.align	2
.LC4:
	.string	"SYN_RCVD"
	.align	2
.LC5:
	.string	"ESTABLISHED"
	.align	2
.LC6:
	.string	"FIN_WAIT_1"
	.align	2
.LC7:
	.string	"FIN_WAIT_2"
	.align	2
.LC8:
	.string	"CLOSE_WAIT"
	.align	2
.LC9:
	.string	"CLOSING"
	.align	2
.LC10:
	.string	"LAST_ACK"
	.align	2
.LC11:
	.string	"TIME_WAIT"
	.section	.rodata.tcp_backoff,"a"
	.align	2
	.set	.LANCHOR6,. + 0
	.type	tcp_backoff, @object
	.size	tcp_backoff, 13
tcp_backoff:
	.ascii	"\001\002\003\004\005\006\007\007\007\007\007\007\007"
	.section	.rodata.tcp_pcb_lists,"a"
	.align	2
	.set	.LANCHOR1,. + 0
	.type	tcp_pcb_lists, @object
	.size	tcp_pcb_lists, 16
tcp_pcb_lists:
	.word	tcp_listen_pcbs
	.word	tcp_bound_pcbs
	.word	tcp_active_pcbs
	.word	tcp_tw_pcbs
	.section	.rodata.tcp_state_str,"a"
	.align	2
	.set	.LANCHOR3,. + 0
	.type	tcp_state_str, @object
	.size	tcp_state_str, 44
tcp_state_str:
	.word	.LC1
	.word	.LC2
	.word	.LC3
	.word	.LC4
	.word	.LC5
	.word	.LC6
	.word	.LC7
	.word	.LC8
	.word	.LC9
	.word	.LC10
	.word	.LC11
	.section	.sbss.tcp_timer,"aw",@nobits
	.set	.LANCHOR7,. + 0
	.type	tcp_timer, @object
	.size	tcp_timer, 1
tcp_timer:
	.zero	1
	.section	.sbss.tcp_timer_ctr,"aw",@nobits
	.set	.LANCHOR4,. + 0
	.type	tcp_timer_ctr, @object
	.size	tcp_timer_ctr, 1
tcp_timer_ctr:
	.zero	1
	.section	.sdata.iss.0,"aw"
	.align	2
	.set	.LANCHOR2,. + 0
	.type	iss.0, @object
	.size	iss.0, 4
iss.0:
	.word	6510
	.section	.sdata.tcp_port,"aw"
	.align	1
	.set	.LANCHOR0,. + 0
	.type	tcp_port, @object
	.size	tcp_port, 2
tcp_port:
	.half	-16384
	.section	.srodata.tcp_persist_backoff,"a"
	.align	2
	.set	.LANCHOR5,. + 0
	.type	tcp_persist_backoff, @object
	.size	tcp_persist_backoff, 7
tcp_persist_backoff:
	.ascii	"\003\006\f\0300`x"
	.text
.Letext0:
	.file 2 "/mnt/d/GitHub/bl_iot_sdk_for_aithinker/toolchain/riscv/Linux/riscv64-unknown-elf/include/machine/_default_types.h"
	.file 3 "/mnt/d/GitHub/bl_iot_sdk_for_aithinker/toolchain/riscv/Linux/lib/gcc/riscv64-unknown-elf/10.2.0/include/stddef.h"
	.file 4 "/mnt/d/GitHub/bl_iot_sdk_for_aithinker/toolchain/riscv/Linux/riscv64-unknown-elf/include/sys/_stdint.h"
	.file 5 "/mnt/d/GitHub/bl_iot_sdk_for_aithinker/components/network/lwip/src/include/lwip/arch.h"
	.file 6 "/mnt/d/GitHub/bl_iot_sdk_for_aithinker/components/network/lwip/src/include/lwip/mem.h"
	.file 7 "/mnt/d/GitHub/bl_iot_sdk_for_aithinker/components/network/lwip/src/include/lwip/stats.h"
	.file 8 "/mnt/d/GitHub/bl_iot_sdk_for_aithinker/components/network/lwip/src/include/lwip/tcpbase.h"
	.file 9 "/mnt/d/GitHub/bl_iot_sdk_for_aithinker/components/network/lwip/src/include/lwip/memp.h"
	.file 10 "/mnt/d/GitHub/bl_iot_sdk_for_aithinker/components/network/lwip/src/include/lwip/err.h"
	.file 11 "/mnt/d/GitHub/bl_iot_sdk_for_aithinker/components/network/lwip/src/include/lwip/pbuf.h"
	.file 12 "/mnt/d/GitHub/bl_iot_sdk_for_aithinker/components/network/lwip/src/include/lwip/ip4_addr.h"
	.file 13 "/mnt/d/GitHub/bl_iot_sdk_for_aithinker/components/network/lwip/src/include/lwip/ip_addr.h"
	.file 14 "/mnt/d/GitHub/bl_iot_sdk_for_aithinker/components/network/lwip/src/include/lwip/netif.h"
	.file 15 "/mnt/d/GitHub/bl_iot_sdk_for_aithinker/components/network/lwip/src/include/lwip/tcp.h"
	.file 16 "/mnt/d/GitHub/bl_iot_sdk_for_aithinker/components/network/lwip/src/include/lwip/priv/tcp_priv.h"
	.file 17 "/mnt/d/GitHub/bl_iot_sdk_for_aithinker/components/network/lwip/src/include/lwip/prot/tcp.h"
	.file 18 "/mnt/d/GitHub/bl_iot_sdk_for_aithinker/toolchain/riscv/Linux/riscv64-unknown-elf/include/string.h"
	.file 19 "/mnt/d/GitHub/bl_iot_sdk_for_aithinker/components/network/lwip/src/include/lwip/ip4.h"
	.file 20 "/mnt/d/GitHub/bl_iot_sdk_for_aithinker/components/network/lwip/lwip-port/config/lwipopts.h"
	.file 21 "/mnt/d/GitHub/bl_iot_sdk_for_aithinker/toolchain/riscv/Linux/riscv64-unknown-elf/include/stdio.h"