	.file	"tcp_out.c"
	.option nopic
	.attribute arch, "rv32i2p0_m2p0_f2p0_c2p0"
	.attribute unaligned_access, 0
	.attribute stack_align, 16
	.text
.Ltext0:
	.cfi_sections	.debug_frame
	.section	.text.tcp_seg_add_chksum,"ax",@progbits
	.align	1
	.type	tcp_seg_add_chksum, @function
tcp_seg_add_chksum:
.LFB8:
	.file 1 "/mnt/d/GitHub/bl_iot_sdk_for_aithinker/components/network/lwip/src/core/tcp_out.c"
	.loc 1 285 1
	.cfi_startproc
.LVL0:
	.loc 1 286 3
	.loc 1 288 3
	.loc 1 288 21 is_stmt 0
	lhu	a5,0(a2)
.LVL1:
	.loc 1 289 3 is_stmt 1
	.loc 1 290 6 is_stmt 0
	andi	a1,a1,1
.LVL2:
	.loc 1 288 19
	add	a0,a0,a5
.LVL3:
	.loc 1 289 13
	srli	a5,a0,16
	.loc 1 289 10
	add	a0,a0,a5
	slli	a0,a0,16
	srli	a0,a0,16
.LVL4:
	.loc 1 290 3 is_stmt 1
	.loc 1 290 6 is_stmt 0
	beq	a1,zero,.L2
	.loc 1 291 5 is_stmt 1
	.loc 1 291 29 is_stmt 0
	lbu	a4,0(a3)
	li	a5,1
	sub	a5,a5,a4
	.loc 1 291 25
	sb	a5,0(a3)
	.loc 1 292 5 is_stmt 1
	slli	a5,a0,8
	srli	a0,a0,8
.LVL5:
	or	a0,a5,a0
	slli	a0,a0,16
	srli	a0,a0,16
.LVL6:
.L2:
	.loc 1 294 3
	.loc 1 294 15 is_stmt 0
	sh	a0,0(a2)
	.loc 1 295 1
	ret
	.cfi_endproc
.LFE8:
	.size	tcp_seg_add_chksum, .-tcp_seg_add_chksum
	.section	.text.tcp_create_segment,"ax",@progbits
	.align	1
	.type	tcp_create_segment, @function
tcp_create_segment:
.LFB6:
	.loc 1 159 1 is_stmt 1
	.cfi_startproc
.LVL7:
	.loc 1 160 3
	.loc 1 161 3
	.loc 1 163 3
	.loc 1 163 8
	.loc 1 163 7
	.loc 1 163 17
	.loc 1 164 3
	.loc 1 164 8
	.loc 1 164 7
	.loc 1 164 17
	.loc 1 166 3
	.loc 1 159 1 is_stmt 0
	addi	sp,sp,-32
	.cfi_def_cfa_offset 32
	sw	s5,4(sp)
	.cfi_offset 21, -28
	mv	s5,a0
	.loc 1 168 32
	li	a0,4
.LVL8:
	.loc 1 159 1
	sw	s0,24(sp)
	sw	s1,20(sp)
	sw	s2,16(sp)
	sw	s3,12(sp)
	sw	s4,8(sp)
	sw	s6,0(sp)
	sw	ra,28(sp)
	.cfi_offset 8, -8
	.cfi_offset 9, -12
	.cfi_offset 18, -16
	.cfi_offset 19, -20
	.cfi_offset 20, -24
	.cfi_offset 22, -32
	.cfi_offset 1, -4
	.loc 1 159 1
	mv	s3,a1
	mv	s2,a2
	mv	s4,a3
	mv	s6,a4
	.loc 1 166 42
	slli	s1,a4,2
.LVL9:
	.loc 1 168 3 is_stmt 1
	.loc 1 168 32 is_stmt 0
	call	memp_malloc
.LVL10:
	mv	s0,a0
.LVL11:
	.loc 1 168 6
	bne	a0,zero,.L7
	.loc 1 169 5 is_stmt 1
	.loc 1 170 5
	mv	a0,s3
	call	pbuf_free
.LVL12:
	.loc 1 171 5
.L6:
	.loc 1 205 1 is_stmt 0
	lw	ra,28(sp)
	.cfi_remember_state
	.cfi_restore 1
	mv	a0,s0
	lw	s0,24(sp)
	.cfi_restore 8
	lw	s1,20(sp)
	.cfi_restore 9
	lw	s2,16(sp)
	.cfi_restore 18
	lw	s3,12(sp)
	.cfi_restore 19
	lw	s4,8(sp)
	.cfi_restore 20
.LVL13:
	lw	s5,4(sp)
	.cfi_restore 21
.LVL14:
	lw	s6,0(sp)
	.cfi_restore 22
.LVL15:
	addi	sp,sp,32
	.cfi_def_cfa_offset 0
	jr	ra
.LVL16:
.L7:
	.cfi_restore_state
	.loc 1 173 14
	sb	s6,13(a0)
	.loc 1 174 13
	sw	zero,0(a0)
	.loc 1 175 10
	sw	s3,4(a0)
	.loc 1 177 25
	lhu	a5,8(s3)
	andi	s1,s1,4
.LVL17:
	.loc 1 173 3 is_stmt 1
	.loc 1 174 3
	.loc 1 175 3
	.loc 1 176 3
	.loc 1 176 8
	.loc 1 176 39
	.loc 1 176 49
	.loc 1 177 3
	.loc 1 182 15 is_stmt 0
	sh	zero,10(a0)
	.loc 1 177 25
	sub	a5,a5,s1
	.loc 1 177 12
	sh	a5,8(a0)
	.loc 1 182 3 is_stmt 1
	.loc 1 183 3
	.loc 1 183 23 is_stmt 0
	sb	zero,12(a0)
	.loc 1 185 3 is_stmt 1
	.loc 1 185 8
	.loc 1 185 48
	.loc 1 185 58
	.loc 1 190 3
	.loc 1 190 7 is_stmt 0
	li	a1,20
	mv	a0,s3
	call	pbuf_add_header
.LVL18:
	.loc 1 190 6
	beq	a0,zero,.L9
	.loc 1 191 5 is_stmt 1
	.loc 1 192 5
	lui	a5,%hi(lwip_stats)
	addi	a5,a5,%lo(lwip_stats)
	lhu	a4,168(a5)
	.loc 1 193 5 is_stmt 0
	mv	a0,s0
	.loc 1 194 11
	li	s0,0
.LVL19:
	.loc 1 192 5
	addi	a4,a4,1
	sh	a4,168(a5)
	.loc 1 193 5 is_stmt 1
	call	tcp_seg_free
.LVL20:
	.loc 1 194 5
	.loc 1 194 11 is_stmt 0
	j	.L6
.LVL21:
.L9:
	.loc 1 196 3 is_stmt 1
	.loc 1 196 41 is_stmt 0
	lw	a5,4(s0)
	lw	s3,4(a5)
.LVL22:
	.loc 1 196 15
	sw	s3,16(s0)
	.loc 1 197 3 is_stmt 1
	.loc 1 197 22 is_stmt 0
	lhu	a0,26(s5)
	call	lwip_htons
.LVL23:
	.loc 1 197 20
	srli	a5,a0,8
	sb	a5,1(s3)
	.loc 1 198 3 is_stmt 1
	.loc 1 197 20 is_stmt 0
	sb	a0,0(s3)
	.loc 1 198 23
	lhu	a0,28(s5)
	.loc 1 198 6
	lw	s3,16(s0)
	.loc 1 198 23
	call	lwip_htons
.LVL24:
	.loc 1 198 21
	sb	a0,2(s3)
	srli	a0,a0,8
	sb	a0,3(s3)
	.loc 1 199 3 is_stmt 1
	.loc 1 199 6 is_stmt 0
	lw	s3,16(s0)
	.loc 1 199 24
	mv	a0,s4
	call	lwip_htonl
.LVL25:
	.loc 1 199 22
	srli	a5,a0,8
	sb	a0,4(s3)
	sb	a5,5(s3)
	srli	a5,a0,16
	srli	a0,a0,24
	sb	a0,7(s3)
	.loc 1 201 3 is_stmt 1
	.loc 1 201 70 is_stmt 0
	srli	a0,s1,2
	.loc 1 199 22
	sb	a5,6(s3)
	.loc 1 201 70
	addi	a0,a0,5
	.loc 1 201 7
	lw	s3,16(s0)
	.loc 1 201 58
	slli	a0,a0,12
	.loc 1 201 47
	or	a0,a0,s2
	call	lwip_htons
.LVL26:
	.loc 1 201 37
	sb	a0,12(s3)
	srli	a0,a0,8
	sb	a0,13(s3)
	.loc 1 203 3 is_stmt 1
	.loc 1 203 6 is_stmt 0
	lw	a5,16(s0)
	.loc 1 203 21
	sb	zero,18(a5)
	sb	zero,19(a5)
	.loc 1 204 3 is_stmt 1
	.loc 1 204 10 is_stmt 0
	j	.L6
	.cfi_endproc
.LFE6:
	.size	tcp_create_segment, .-tcp_create_segment
	.section	.text.tcp_output_alloc_header_common.constprop.0,"ax",@progbits
	.align	1
	.type	tcp_output_alloc_header_common.constprop.0, @function
tcp_output_alloc_header_common.constprop.0:
.LFB33:
	.loc 1 1818 1 is_stmt 1
	.cfi_startproc
.LVL27:
	.loc 1 1822 3
	.loc 1 1823 3
	.loc 1 1825 3
	.loc 1 1825 7 is_stmt 0
	addi	a1,a1,20
.LVL28:
	.loc 1 1818 1
	addi	sp,sp,-48
	.cfi_def_cfa_offset 48
	.loc 1 1825 7
	slli	a1,a1,16
	.loc 1 1818 1
	sw	s1,36(sp)
	sw	s4,24(sp)
	.cfi_offset 9, -12
	.cfi_offset 20, -24
	mv	s1,a2
	mv	s4,a0
	.loc 1 1825 7
	li	a2,640
.LVL29:
	srli	a1,a1,16
	li	a0,162
.LVL30:
	.loc 1 1818 1
	sw	s2,32(sp)
	sw	s3,28(sp)
	sw	s5,20(sp)
	sw	s6,16(sp)
	sw	s7,12(sp)
	sw	ra,44(sp)
	sw	s0,40(sp)
	.cfi_offset 18, -16
	.cfi_offset 19, -20
	.cfi_offset 21, -28
	.cfi_offset 22, -32
	.cfi_offset 23, -36
	.cfi_offset 1, -4
	.cfi_offset 8, -8
	.loc 1 1818 1
	mv	s7,a3
	mv	s6,a4
	mv	s3,a5
	mv	s2,a6
	.loc 1 1825 7
	call	pbuf_alloc
.LVL31:
	mv	s5,a0
.LVL32:
	.loc 1 1826 3 is_stmt 1
	.loc 1 1826 6 is_stmt 0
	beq	a0,zero,.L11
	.loc 1 1827 5 is_stmt 1
	.loc 1 1827 10
	.loc 1 1827 44
	.loc 1 1827 54
	.loc 1 1829 5
	.loc 1 1829 12 is_stmt 0
	lw	s0,4(a0)
.LVL33:
	.loc 1 1830 5 is_stmt 1
	.loc 1 1830 19 is_stmt 0
	mv	a0,s7
.LVL34:
	call	lwip_htons
.LVL35:
	.loc 1 1830 17
	srli	a3,a0,8
	sb	a3,1(s0)
	.loc 1 1831 5 is_stmt 1
	.loc 1 1830 17 is_stmt 0
	sb	a0,0(s0)
	.loc 1 1831 20
	mv	a0,s6
	call	lwip_htons
.LVL36:
	.loc 1 1832 19
	srli	a5,s1,8
	.loc 1 1831 18
	srli	a4,a0,8
	.loc 1 1832 19
	sb	s1,4(s0)
	sb	a5,5(s0)
	srli	a5,s1,16
	srli	s1,s1,24
.LVL37:
	.loc 1 1831 18
	sb	a0,2(s0)
	sb	a4,3(s0)
	.loc 1 1832 5 is_stmt 1
	.loc 1 1832 19 is_stmt 0
	sb	a5,6(s0)
	sb	s1,7(s0)
	.loc 1 1833 5 is_stmt 1
	.loc 1 1833 21 is_stmt 0
	mv	a0,s4
	call	lwip_htonl
.LVL38:
	.loc 1 1833 19
	srli	a5,a0,8
	srli	a4,a0,24
	sb	a0,8(s0)
	sb	a5,9(s0)
	srli	a5,a0,16
	.loc 1 1834 44
	li	a0,20480
	.loc 1 1833 19
	sb	a5,10(s0)
	sb	a4,11(s0)
	.loc 1 1834 5 is_stmt 1
	.loc 1 1834 44 is_stmt 0
	or	a0,s3,a0
	call	lwip_htons
.LVL39:
	.loc 1 1834 34
	srli	a5,a0,8
	sb	a0,12(s0)
	sb	a5,13(s0)
	.loc 1 1835 5 is_stmt 1
	.loc 1 1835 19 is_stmt 0
	mv	a0,s2
	call	lwip_htons
.LVL40:
	.loc 1 1835 17
	srli	a5,a0,8
	sb	a0,14(s0)
	sb	a5,15(s0)
	.loc 1 1836 5 is_stmt 1
	.loc 1 1836 20 is_stmt 0
	sb	zero,16(s0)
	sb	zero,17(s0)
	.loc 1 1837 5 is_stmt 1
	.loc 1 1837 18 is_stmt 0
	sb	zero,18(s0)
	sb	zero,19(s0)
	.loc 1 1839 3 is_stmt 1
.LVL41:
.L11:
	.loc 1 1840 1 is_stmt 0
	lw	ra,44(sp)
	.cfi_restore 1
	lw	s0,40(sp)
	.cfi_restore 8
	lw	s1,36(sp)
	.cfi_restore 9
	lw	s2,32(sp)
	.cfi_restore 18
	lw	s3,28(sp)
	.cfi_restore 19
	lw	s4,24(sp)
	.cfi_restore 20
.LVL42:
	lw	s6,16(sp)
	.cfi_restore 22
	lw	s7,12(sp)
	.cfi_restore 23
	mv	a0,s5
	lw	s5,20(sp)
	.cfi_restore 21
.LVL43:
	addi	sp,sp,48
	.cfi_def_cfa_offset 0
	jr	ra
	.cfi_endproc
.LFE33:
	.size	tcp_output_alloc_header_common.constprop.0, .-tcp_output_alloc_header_common.constprop.0
	.section	.text.tcp_output_alloc_header.constprop.0,"ax",@progbits
	.align	1
	.type	tcp_output_alloc_header.constprop.0, @function
tcp_output_alloc_header.constprop.0:
.LFB34:
	.loc 1 1853 1 is_stmt 1
	.cfi_startproc
.LVL44:
	.loc 1 1856 3
	.loc 1 1858 3
	.loc 1 1858 8
	.loc 1 1858 7
	.loc 1 1858 17
	.loc 1 1860 3
	.loc 1 1853 1 is_stmt 0
	addi	sp,sp,-16
	.cfi_def_cfa_offset 16
	sw	s0,8(sp)
	sw	ra,12(sp)
	.cfi_offset 8, -8
	.cfi_offset 1, -4
	.loc 1 1860 7
	lhu	a6,46(a0)
	lhu	a4,28(a0)
	lhu	a3,26(a0)
	.loc 1 1853 1
	mv	s0,a0
	.loc 1 1860 7
	lw	a0,40(a0)
.LVL45:
	li	a5,16
	call	tcp_output_alloc_header_common.constprop.0
.LVL46:
	.loc 1 1863 3 is_stmt 1
	.loc 1 1863 6 is_stmt 0
	beq	a0,zero,.L17
	.loc 1 1865 5 is_stmt 1
	.loc 1 1865 49 is_stmt 0
	lhu	a4,46(s0)
	.loc 1 1865 44
	lw	a5,40(s0)
	add	a5,a5,a4
	.loc 1 1865 29
	sw	a5,48(s0)
	.loc 1 1867 3 is_stmt 1
.L17:
	.loc 1 1868 1 is_stmt 0
	lw	ra,12(sp)
	.cfi_restore 1
	lw	s0,8(sp)
	.cfi_restore 8
.LVL47:
	addi	sp,sp,16
	.cfi_def_cfa_offset 0
	jr	ra
	.cfi_endproc
.LFE34:
	.size	tcp_output_alloc_header.constprop.0, .-tcp_output_alloc_header.constprop.0
	.section	.text.tcp_output_control_segment,"ax",@progbits
	.align	1
	.type	tcp_output_control_segment, @function
tcp_output_control_segment:
.LFB25:
	.loc 1 1923 1 is_stmt 1
	.cfi_startproc
.LVL48:
	.loc 1 1924 3
	.loc 1 1925 3
	.loc 1 1927 3
	.loc 1 1927 8
	.loc 1 1927 7
	.loc 1 1927 17
	.loc 1 1929 3
	.loc 1 1923 1 is_stmt 0
	addi	sp,sp,-48
	.cfi_def_cfa_offset 48
	sw	s0,40(sp)
	sw	s1,36(sp)
	sw	s2,32(sp)
	sw	s4,24(sp)
	sw	ra,44(sp)
	sw	s3,28(sp)
	.cfi_offset 8, -8
	.cfi_offset 9, -12
	.cfi_offset 18, -16
	.cfi_offset 20, -24
	.cfi_offset 1, -4
	.cfi_offset 19, -20
	.loc 1 1923 1
	mv	s1,a0
	mv	s0,a1
	mv	s4,a2
.LVL49:
	mv	s2,a3
.LVL50:
.LBB15:
.LBB16:
	.loc 1 134 3 is_stmt 1
	.loc 1 136 3
	.loc 1 136 6 is_stmt 0
	beq	a0,zero,.L24
	.loc 1 136 27
	lbu	a0,8(a0)
.LVL51:
	.loc 1 136 20
	beq	a0,zero,.L24
	.loc 1 137 5 is_stmt 1
	.loc 1 137 12 is_stmt 0
	call	netif_get_by_index
.LVL52:
.L37:
.LBE16:
.LBE15:
	.loc 1 1930 3 is_stmt 1
	.loc 1 1930 6 is_stmt 0
	sw	a0,12(sp)
	.loc 1 1931 9
	li	s3,-4
	.loc 1 1930 6
	beq	a0,zero,.L26
.LBB18:
	.loc 1 1933 5 is_stmt 1
.LBB19:
	.loc 1 1936 7
	.loc 1 1937 24 is_stmt 0
	lhu	a2,8(s0)
	.loc 1 1936 23
	lw	s3,4(s0)
.LVL53:
	.loc 1 1937 7 is_stmt 1
	.loc 1 1937 24 is_stmt 0
	mv	a4,s2
	mv	a3,s4
	li	a1,6
	mv	a0,s0
.LVL54:
	call	ip_chksum_pseudo
.LVL55:
	.loc 1 1937 22
	sb	a0,16(s3)
	srli	a0,a0,8
	sb	a0,17(s3)
.LBE19:
	.loc 1 1941 5 is_stmt 1
	.loc 1 1941 8 is_stmt 0
	lw	a6,12(sp)
	beq	s1,zero,.L29
	.loc 1 1942 7 is_stmt 1
	.loc 1 1943 7
	.loc 1 1943 11 is_stmt 0
	lbu	a3,11(s1)
.LVL56:
	.loc 1 1944 7 is_stmt 1
	.loc 1 1944 11 is_stmt 0
	lbu	a4,10(s1)
.LVL57:
.L27:
	.loc 1 1950 5 is_stmt 1
	lui	a5,%hi(lwip_stats)
	addi	a5,a5,%lo(lwip_stats)
	lhu	a2,148(a5)
	.loc 1 1951 11 is_stmt 0
	mv	a1,s4
	mv	a0,s0
	.loc 1 1950 5
	addi	a2,a2,1
	sh	a2,148(a5)
	.loc 1 1951 5 is_stmt 1
	.loc 1 1951 11 is_stmt 0
	li	a5,6
	mv	a2,s2
	call	ip4_output_if
.LVL58:
	mv	s3,a0
.LVL59:
.L26:
	.loc 1 1952 5 is_stmt 1
.LBE18:
	.loc 1 1954 3
	mv	a0,s0
	call	pbuf_free
.LVL60:
	.loc 1 1955 3
	.loc 1 1956 1 is_stmt 0
	lw	ra,44(sp)
	.cfi_remember_state
	.cfi_restore 1
	lw	s0,40(sp)
	.cfi_restore 8
.LVL61:
	lw	s1,36(sp)
	.cfi_restore 9
.LVL62:
	lw	s2,32(sp)
	.cfi_restore 18
.LVL63:
	lw	s4,24(sp)
	.cfi_restore 20
.LVL64:
	mv	a0,s3
	lw	s3,28(sp)
	.cfi_restore 19
.LVL65:
	addi	sp,sp,48
	.cfi_def_cfa_offset 0
.LVL66:
	jr	ra
.LVL67:
.L24:
	.cfi_restore_state
.LBB20:
.LBB17:
	.loc 1 139 5 is_stmt 1
	.loc 1 139 12 is_stmt 0
	mv	a0,s2
	call	ip4_route
.LVL68:
	j	.L37
.LVL69:
.L29:
.LBE17:
.LBE20:
.LBB21:
	.loc 1 1948 11
	li	a4,0
	.loc 1 1947 11
	li	a3,64
	j	.L27
.LBE21:
	.cfi_endproc
.LFE25:
	.size	tcp_output_control_segment, .-tcp_output_control_segment
	.section	.text.tcp_write,"ax",@progbits
	.align	1
	.globl	tcp_write
	.type	tcp_write, @function
tcp_write:
.LFB10:
	.loc 1 391 1 is_stmt 1
	.cfi_startproc
.LVL70:
	.loc 1 392 3
	.loc 1 393 3
	.loc 1 394 3
	.loc 1 395 3
	.loc 1 396 3
	.loc 1 397 3
	.loc 1 399 3
	.loc 1 400 3
	.loc 1 405 3
	.loc 1 407 3
	.loc 1 408 3
	.loc 1 409 3
	.loc 1 411 3
	.loc 1 412 3
	.loc 1 414 3
	.loc 1 414 8
	.loc 1 391 1 is_stmt 0
	addi	sp,sp,-96
	.cfi_def_cfa_offset 96
	sw	s2,80(sp)
	sw	ra,92(sp)
	sw	s0,88(sp)
	sw	s1,84(sp)
	sw	s3,76(sp)
	sw	s4,72(sp)
	sw	s5,68(sp)
	sw	s6,64(sp)
	sw	s7,60(sp)
	sw	s8,56(sp)
	sw	s9,52(sp)
	sw	s10,48(sp)
	sw	s11,44(sp)
	.cfi_offset 18, -16
	.cfi_offset 1, -4
	.cfi_offset 8, -8
	.cfi_offset 9, -12
	.cfi_offset 19, -20
	.cfi_offset 20, -24
	.cfi_offset 21, -28
	.cfi_offset 22, -32
	.cfi_offset 23, -36
	.cfi_offset 24, -40
	.cfi_offset 25, -44
	.cfi_offset 26, -48
	.cfi_offset 27, -52
	.loc 1 391 1
	sw	a3,8(sp)
	.loc 1 414 16
	li	s2,-16
	.loc 1 414 11
	beq	a0,zero,.L39
	.loc 1 417 67 discriminator 2
	lhu	a5,102(a0)
	.loc 1 417 21 discriminator 2
	lhu	a4,54(a0)
	mv	s0,a0
	.loc 1 417 67 discriminator 2
	srli	a5,a5,1
	mv	s7,a1
	mv	s11,a2
	.loc 1 414 32 is_stmt 1 discriminator 2
	.loc 1 417 3 discriminator 2
	.loc 1 417 13 is_stmt 0 discriminator 2
	mv	a7,a5
	bleu	a5,a4,.L40
	mv	a7,a4
.L40:
	slli	s9,a7,16
	srli	s9,s9,16
.LVL71:
	.loc 1 418 3 is_stmt 1 discriminator 2
	.loc 1 418 13 is_stmt 0 discriminator 2
	bne	s9,zero,.L41
	.loc 1 418 13
	mv	s9,a4
.L41:
.LVL72:
	.loc 1 420 3 is_stmt 1 discriminator 4
	.loc 1 424 3 discriminator 4
	.loc 1 428 74 discriminator 4
	.loc 1 429 3 discriminator 4
	.loc 1 429 8 discriminator 4
	.loc 1 414 16 is_stmt 0 discriminator 4
	li	s2,-16
	.loc 1 429 11 discriminator 4
	beq	s7,zero,.L39
	.loc 1 429 24 is_stmt 1
	.loc 1 429 33
	.loc 1 432 3
.LVL73:
.LBB29:
.LBB30:
	.loc 1 307 3
	.loc 1 307 8
	.loc 1 307 7
	.loc 1 307 17
	.loc 1 310 3
	.loc 1 310 11 is_stmt 0
	lw	a5,20(s0)
	.loc 1 310 35
	li	a4,7
	beq	a5,a4,.L42
	.loc 1 311 34
	addi	a5,a5,-2
	li	a4,2
	.loc 1 315 12
	li	s2,-11
	.loc 1 311 34
	bgtu	a5,a4,.L39
.L42:
	.loc 1 316 10 is_stmt 1
	.loc 1 316 13 is_stmt 0
	beq	s11,zero,.L43
	.loc 1 321 3 is_stmt 1
	.loc 1 321 6 is_stmt 0
	lhu	a5,104(s0)
	bgeu	a5,s11,.L44
.L88:
	.loc 1 337 5 is_stmt 1
	.loc 1 337 10
	.loc 1 337 25 is_stmt 0
	lhu	a5,30(s0)
	ori	a5,a5,128
	.loc 1 337 23
	sh	a5,30(s0)
.LVL74:
.L89:
	.loc 1 337 70 is_stmt 1
	.loc 1 338 5
.LBE30:
.LBE29:
	.loc 1 433 3
.LBB33:
.LBB31:
	.loc 1 338 12 is_stmt 0
	li	s2,-1
.LVL75:
.L39:
.LBE31:
.LBE33:
	.loc 1 812 1
	lw	ra,92(sp)
	.cfi_remember_state
	.cfi_restore 1
	lw	s0,88(sp)
	.cfi_restore 8
	lw	s1,84(sp)
	.cfi_restore 9
	lw	s3,76(sp)
	.cfi_restore 19
	lw	s4,72(sp)
	.cfi_restore 20
	lw	s5,68(sp)
	.cfi_restore 21
	lw	s6,64(sp)
	.cfi_restore 22
	lw	s7,60(sp)
	.cfi_restore 23
	lw	s8,56(sp)
	.cfi_restore 24
	lw	s9,52(sp)
	.cfi_restore 25
	lw	s10,48(sp)
	.cfi_restore 26
	lw	s11,44(sp)
	.cfi_restore 27
	mv	a0,s2
	lw	s2,80(sp)
	.cfi_restore 18
	addi	sp,sp,96
	.cfi_def_cfa_offset 0
	jr	ra
.LVL76:
.L44:
	.cfi_restore_state
.LBB34:
.LBB32:
	.loc 1 328 3 is_stmt 1
	.loc 1 333 3
	.loc 1 333 6 is_stmt 0
	lhu	a4,106(s0)
	li	a5,5
	bleu	a4,a5,.L43
	.loc 1 335 61 is_stmt 1
	.loc 1 336 5
	lui	a5,%hi(lwip_stats)
	addi	a5,a5,%lo(lwip_stats)
	lhu	a4,160(a5)
	addi	a4,a4,1
	sh	a4,160(a5)
	j	.L88
.L43:
.LVL77:
.LBE32:
.LBE34:
	.loc 1 436 3
	.loc 1 476 10 is_stmt 0
	lw	s1,112(s0)
	.loc 1 436 12
	lhu	s8,106(s0)
.LVL78:
	.loc 1 449 5 is_stmt 1
	.loc 1 476 3
	.loc 1 476 6 is_stmt 0
	beq	s1,zero,.L67
.LVL79:
.L46:
.LBB35:
	.loc 1 481 37 is_stmt 1 discriminator 1
	mv	s6,s1
	.loc 1 481 48 is_stmt 0 discriminator 1
	lw	s1,0(s1)
.LVL80:
	.loc 1 481 5 discriminator 1
	bne	s1,zero,.L46
	.loc 1 485 5 is_stmt 1
	.loc 1 502 19 is_stmt 0
	lhu	s3,108(s0)
	.loc 1 485 34
	lbu	a3,13(s6)
.LVL81:
	.loc 1 486 5 is_stmt 1
	.loc 1 486 10
	.loc 1 486 40 is_stmt 0
	lhu	a4,8(s6)
	.loc 1 486 66 is_stmt 1
	.loc 1 486 76
	.loc 1 487 5
.LVL82:
	.loc 1 502 5
	.loc 1 503 5
.LBE35:
	.loc 1 394 9 is_stmt 0
	li	s2,0
.LBB36:
	.loc 1 503 8
	beq	s3,zero,.L45
	.loc 1 504 7 is_stmt 1
	.loc 1 504 12
	.loc 1 504 40
	.loc 1 504 50
	.loc 1 505 7
.LVL83:
	.loc 1 506 7
	.loc 1 485 61 is_stmt 0
	slli	a3,a3,2
.LVL84:
	.loc 1 485 19
	andi	a3,a3,4
	.loc 1 487 11
	sub	a4,s9,a4
.LVL85:
	sub	a4,a4,a3
	.loc 1 506 71
	mv	a3,s3
	bleu	s3,s11,.L47
	mv	a3,s11
.L47:
	.loc 1 506 21
	mv	s2,a4
	slli	a2,a3,16
.LVL86:
	slli	a4,a4,16
	srli	a4,a4,16
	srli	a2,a2,16
	bleu	a4,a2,.L48
	mv	s2,a3
.L48:
	slli	s2,s2,16
	srli	s2,s2,16
.LVL87:
	.loc 1 507 7 is_stmt 1
	.loc 1 508 7
	.loc 1 508 16 is_stmt 0
	sub	s3,s3,s2
.LVL88:
	slli	s3,s3,16
	srli	s3,s3,16
.LVL89:
	.loc 1 509 7 is_stmt 1
	.loc 1 508 16 is_stmt 0
	mv	s1,s6
.LVL90:
.L45:
.LBE36:
	.loc 1 394 9
	mv	s10,s2
	li	s4,0
	sw	zero,4(sp)
.LBB37:
	.loc 1 601 11
	sh	s9,12(sp)
	j	.L54
.LVL91:
.L57:
	.loc 1 598 5 is_stmt 1
	.loc 1 599 5
	.loc 1 600 5
	.loc 1 601 5
	.loc 1 599 11 is_stmt 0
	sub	a3,s11,s10
	.loc 1 601 11
	mv	a4,a3
	slli	a3,a3,16
	srli	a3,a3,16
	bleu	a3,s9,.L49
	lhu	a4,12(sp)
.L49:
.LBB38:
.LBB39:
	.loc 1 263 7
	li	a2,640
	mv	a1,s9
	li	a0,182
.LBE39:
.LBE38:
	.loc 1 601 11
	slli	s5,a4,16
	sh	a4,14(sp)
.LVL92:
	.loc 1 603 5 is_stmt 1
	.loc 1 603 11 is_stmt 0
	sh	zero,30(sp)
	.loc 1 604 5 is_stmt 1
	.loc 1 604 10 is_stmt 0
	sb	zero,29(sp)
	.loc 1 607 5 is_stmt 1
	.loc 1 610 7
.LVL93:
.LBB46:
.LBB40:
	.loc 1 229 3
	.loc 1 230 3
	.loc 1 232 3
	.loc 1 232 8
	.loc 1 232 7
	.loc 1 232 17
	.loc 1 233 3
	.loc 1 233 8
	.loc 1 233 7
	.loc 1 233 17
	.loc 1 236 3
	.loc 1 237 3
	.loc 1 238 3
	.loc 1 239 3
	.loc 1 240 3
	.loc 1 263 3
	.loc 1 263 7 is_stmt 0
	call	pbuf_alloc
.LVL94:
.LBE40:
.LBE46:
	.loc 1 601 11
	srli	s5,s5,16
.LBB47:
.LBB41:
	.loc 1 263 7
	mv	s1,a0
.LVL95:
	.loc 1 264 3 is_stmt 1
	.loc 1 264 6 is_stmt 0
	beq	a0,zero,.L52
	.loc 1 267 3 is_stmt 1
	.loc 1 267 8
	.loc 1 267 7
	.loc 1 267 17
	.loc 1 268 3
	.loc 1 270 23 is_stmt 0
	lhu	a4,14(sp)
	.loc 1 268 22
	lhu	s3,10(a0)
.LVL96:
.LBE41:
.LBE47:
	.loc 1 616 7
	mv	a2,s5
.LBB48:
.LBB42:
	.loc 1 270 23
	sh	a4,8(a0)
	.loc 1 270 10
	sh	a4,10(a0)
.LBE42:
.LBE48:
	.loc 1 616 7
	lw	a0,4(a0)
	add	a1,s7,s10
.LBB49:
.LBB43:
	.loc 1 268 22
	sub	s3,s3,s5
.LBE43:
.LBE49:
	.loc 1 616 7
	call	lwip_chksum_copy
.LVL97:
	addi	a3,sp,29
	addi	a2,sp,30
	mv	a1,s5
	call	tcp_seg_add_chksum
.LVL98:
	.loc 1 654 17
	mv	a0,s1
	call	pbuf_clen
.LVL99:
	.loc 1 654 14
	add	s8,s8,a0
.LVL100:
	slli	s8,s8,16
.LBB50:
.LBB44:
	.loc 1 268 22
	slli	s3,s3,16
.LBE44:
.LBE50:
	.loc 1 654 14
	srli	s8,s8,16
	.loc 1 659 8
	li	a5,6
.LBB51:
.LBB45:
	.loc 1 268 22
	srli	s3,s3,16
.LVL101:
	.loc 1 270 3 is_stmt 1
	.loc 1 271 3
.LBE45:
.LBE51:
	.loc 1 614 7
	.loc 1 614 12
	.loc 1 614 41
	.loc 1 614 51
	.loc 1 616 7
	.loc 1 616 140
	.loc 1 654 5
	.loc 1 659 5
	.loc 1 659 8 is_stmt 0
	bleu	s8,a5,.L51
	.loc 1 661 52 is_stmt 1
	.loc 1 662 7
	mv	a0,s1
	call	pbuf_free
.LVL102:
	.loc 1 663 7
.L52:
.LDL1:
.LBE37:
	.loc 1 797 3 discriminator 1
	.loc 1 797 8 discriminator 1
	.loc 1 797 23 is_stmt 0 discriminator 1
	lhu	a5,30(s0)
	ori	a5,a5,128
	.loc 1 797 21 discriminator 1
	sh	a5,30(s0)
	.loc 1 797 68 is_stmt 1 discriminator 1
	.loc 1 798 3 discriminator 1
	lui	a5,%hi(lwip_stats)
	addi	a5,a5,%lo(lwip_stats)
	lhu	a4,160(a5)
	addi	a4,a4,1
	sh	a4,160(a5)
	.loc 1 800 3 discriminator 1
	.loc 1 803 3 discriminator 1
	.loc 1 803 6 is_stmt 0 discriminator 1
	beq	s4,zero,.L89
	.loc 1 804 5 is_stmt 1
	mv	a0,s4
	call	tcp_segs_free
.LVL103:
	.loc 1 806 3
	j	.L89
.LVL104:
.L51:
.LBB52:
	.loc 1 666 5
	.loc 1 666 16 is_stmt 0
	lw	a3,96(s0)
	mv	a1,s1
	li	a4,0
	add	a3,s10,a3
	li	a2,0
	mv	a0,s0
	call	tcp_create_segment
.LVL105:
	mv	s1,a0
.LVL106:
	.loc 1 666 8
	beq	a0,zero,.L52
	.loc 1 673 5 is_stmt 1
	.loc 1 673 17 is_stmt 0
	lhu	a4,30(sp)
	sh	a4,10(a0)
	.loc 1 674 5 is_stmt 1
	.loc 1 674 25 is_stmt 0
	lbu	a4,29(sp)
	sb	a4,12(a0)
	.loc 1 675 5 is_stmt 1
	.loc 1 675 16 is_stmt 0
	lbu	a4,13(a0)
	ori	a4,a4,4
	sb	a4,13(a0)
	.loc 1 679 5 is_stmt 1
	.loc 1 679 8 is_stmt 0
	beq	s4,zero,.L69
	.loc 1 683 7 is_stmt 1 discriminator 1
	.loc 1 683 12 discriminator 1
	.loc 1 683 11 discriminator 1
	.loc 1 683 21 discriminator 1
	.loc 1 684 7 discriminator 1
	.loc 1 684 22 is_stmt 0 discriminator 1
	lw	a5,4(sp)
	sw	a0,0(a5)
.LVL107:
.L53:
	.loc 1 687 5 is_stmt 1
	.loc 1 691 67
	.loc 1 693 5
	.loc 1 693 9 is_stmt 0
	add	t1,s10,s5
	slli	s10,t1,16
.LVL108:
	srli	s10,s10,16
.LVL109:
	sw	s1,4(sp)
.LVL110:
.L54:
.LBE52:
	.loc 1 597 9 is_stmt 1
	bltu	s10,s11,.L57
	.loc 1 711 3
	.loc 1 711 6 is_stmt 0
	beq	s2,zero,.L58
.LBB53:
	.loc 1 712 5 is_stmt 1
	.loc 1 714 5
	.loc 1 714 12 is_stmt 0
	lw	s10,4(s6)
.LVL111:
	.loc 1 717 14
	addi	s5,s6,12
	addi	s9,s6,10
.LVL112:
.L59:
	.loc 1 714 30 is_stmt 1 discriminator 1
	.loc 1 714 5 is_stmt 0 discriminator 1
	bne	s10,zero,.L61
	.loc 1 721 5 is_stmt 1
	.loc 1 721 22 is_stmt 0
	lhu	a4,8(s6)
	add	s2,s2,a4
.LVL113:
	sh	s2,8(s6)
.LVL114:
.L58:
.LBE53:
	.loc 1 728 3 is_stmt 1
	.loc 1 728 24 is_stmt 0
	sh	s3,108(s0)
	.loc 1 735 3 is_stmt 1
	.loc 1 740 10
	.loc 1 753 3
	.loc 1 770 3
	.loc 1 770 6 is_stmt 0
	bne	s6,zero,.L62
	.loc 1 771 5 is_stmt 1
	.loc 1 771 17 is_stmt 0
	sw	s4,112(s0)
.L63:
	.loc 1 779 3 is_stmt 1
	.loc 1 779 16 is_stmt 0
	lw	a5,96(s0)
	.loc 1 780 16
	lhu	a2,104(s0)
	.loc 1 781 21
	sh	s8,106(s0)
	.loc 1 779 16
	add	a5,a5,s11
	.loc 1 780 16
	sub	a6,a2,s11
	.loc 1 779 16
	sw	a5,96(s0)
	.loc 1 780 3 is_stmt 1
	.loc 1 780 16 is_stmt 0
	sh	a6,104(s0)
	.loc 1 781 3 is_stmt 1
	.loc 1 784 51
	.loc 1 785 3
	.loc 1 786 9
	.loc 1 786 19
	.loc 1 791 3
	.loc 1 795 10 is_stmt 0
	li	s2,0
	.loc 1 791 6
	beq	s1,zero,.L39
	.loc 1 791 24 discriminator 1
	lw	a5,16(s1)
	.loc 1 791 18 discriminator 1
	beq	a5,zero,.L39
	.loc 1 791 41 discriminator 2
	lw	a4,8(sp)
	andi	s6,a4,2
.LVL115:
	bne	s6,zero,.L39
	.loc 1 792 5 is_stmt 1
	.loc 1 792 55 is_stmt 0
	lbu	a0,13(a5)
	lbu	s0,12(a5)
.LVL116:
	slli	a0,a0,8
	or	s0,a0,s0
	.loc 1 792 78
	li	a0,8
	call	lwip_htons
.LVL117:
	.loc 1 792 39
	or	a0,s0,a0
	.loc 1 792 9
	lw	a4,16(s1)
	.loc 1 792 39
	slli	a5,a0,16
	srli	a5,a5,16
	srli	a5,a5,8
	sb	a0,12(a4)
	sb	a5,13(a4)
	j	.L39
.LVL118:
.L69:
.LBB54:
	mv	s4,a0
.LVL119:
	j	.L53
.LVL120:
.L67:
.LBE54:
	.loc 1 393 19
	li	s6,0
	.loc 1 399 9
	li	s3,0
	.loc 1 394 9
	li	s2,0
	j	.L45
.LVL121:
.L61:
.LBB55:
	.loc 1 715 7 is_stmt 1
	.loc 1 715 18 is_stmt 0
	lhu	a4,8(s10)
	add	a4,s2,a4
	sh	a4,8(s10)
	.loc 1 716 7 is_stmt 1
	.loc 1 716 10 is_stmt 0
	lw	a4,0(s10)
	bne	a4,zero,.L60
	.loc 1 717 9 is_stmt 1
	.loc 1 717 14
	.loc 1 717 72 is_stmt 0
	lhu	a4,10(s10)
	.loc 1 717 14
	lw	a0,4(s10)
	mv	a2,s2
	mv	a1,s7
	add	a0,a0,a4
	call	lwip_chksum_copy
.LVL122:
	mv	a3,s5
	mv	a2,s9
	mv	a1,s2
	call	tcp_seg_add_chksum
.LVL123:
	.loc 1 717 168 is_stmt 1
	.loc 1 717 187 is_stmt 0
	lbu	a4,13(s6)
	ori	a4,a4,4
	sb	a4,13(s6)
	.loc 1 717 210 is_stmt 1
	.loc 1 718 9
	.loc 1 718 16 is_stmt 0
	lhu	a4,10(s10)
	add	a4,s2,a4
	sh	a4,10(s10)
.L60:
	.loc 1 714 33 is_stmt 1 discriminator 2
	.loc 1 714 35 is_stmt 0 discriminator 2
	lw	s10,0(s10)
.LVL124:
	j	.L59
.LVL125:
.L62:
.LBE55:
	.loc 1 773 5 is_stmt 1
	.loc 1 773 23 is_stmt 0
	sw	s4,0(s6)
	j	.L63
	.cfi_endproc
.LFE10:
	.size	tcp_write, .-tcp_write
	.section	.text.tcp_split_unsent_seg,"ax",@progbits
	.align	1
	.globl	tcp_split_unsent_seg
	.type	tcp_split_unsent_seg, @function
tcp_split_unsent_seg:
.LFB11:
	.loc 1 828 1 is_stmt 1
	.cfi_startproc
.LVL126:
	.loc 1 829 3
	.loc 1 830 3
	.loc 1 831 3
	.loc 1 832 3
	.loc 1 833 3
	.loc 1 834 3
	.loc 1 835 3
	.loc 1 836 3
	.loc 1 838 3
	.loc 1 828 1 is_stmt 0
	addi	sp,sp,-80
	.cfi_def_cfa_offset 80
	sw	ra,76(sp)
	sw	s0,72(sp)
	sw	s1,68(sp)
	sw	s2,64(sp)
	sw	s3,60(sp)
	sw	s4,56(sp)
	sw	s5,52(sp)
	sw	s6,48(sp)
	sw	s7,44(sp)
	.cfi_offset 1, -4
	.cfi_offset 8, -8
	.cfi_offset 9, -12
	.cfi_offset 18, -16
	.cfi_offset 19, -20
	.cfi_offset 20, -24
	.cfi_offset 21, -28
	.cfi_offset 22, -32
	.cfi_offset 23, -36
	.loc 1 845 8
	lw	s0,112(a0)
	.loc 1 838 9
	sh	zero,30(sp)
	.loc 1 839 3 is_stmt 1
	.loc 1 839 8 is_stmt 0
	sb	zero,29(sp)
	.loc 1 840 3 is_stmt 1
	.loc 1 843 3
	.loc 1 843 8
	.loc 1 843 7
	.loc 1 843 17
	.loc 1 845 3
.LVL127:
	.loc 1 846 3
	.loc 1 846 6 is_stmt 0
	bne	s0,zero,.L91
.LVL128:
.L122:
	.loc 1 989 10
	li	a0,-1
	j	.L92
.LVL129:
.L91:
	mv	s2,a0
	mv	s1,a1
	.loc 1 850 3 is_stmt 1
	.loc 1 852 12 is_stmt 0
	li	a0,-6
.LVL130:
	.loc 1 850 6
	beq	a1,zero,.L92
	.loc 1 855 3 is_stmt 1
	.loc 1 855 11 is_stmt 0
	lhu	s6,8(s0)
	.loc 1 855 6
	bgtu	s6,a1,.L93
.LVL131:
.L123:
	.loc 1 980 10
	li	a0,0
.LVL132:
.L92:
	.loc 1 990 1
	lw	ra,76(sp)
	.cfi_remember_state
	.cfi_restore 1
	lw	s0,72(sp)
	.cfi_restore 8
.LVL133:
	lw	s1,68(sp)
	.cfi_restore 9
	lw	s2,64(sp)
	.cfi_restore 18
	lw	s3,60(sp)
	.cfi_restore 19
	lw	s4,56(sp)
	.cfi_restore 20
	lw	s5,52(sp)
	.cfi_restore 21
	lw	s6,48(sp)
	.cfi_restore 22
	lw	s7,44(sp)
	.cfi_restore 23
	addi	sp,sp,80
	.cfi_def_cfa_offset 0
	jr	ra
.LVL134:
.L93:
	.cfi_restore_state
	.loc 1 859 3 is_stmt 1
	.loc 1 859 8
	.loc 1 859 36
	.loc 1 859 46
	.loc 1 860 3
	.loc 1 860 8
	.loc 1 860 32
	.loc 1 860 42
	.loc 1 866 3
	.loc 1 868 3
	.loc 1 868 12 is_stmt 0
	lbu	s3,13(s0)
.LVL135:
	.loc 1 871 3 is_stmt 1
	.loc 1 874 13 is_stmt 0
	sub	s7,s6,a1
	slli	s7,s7,16
	.loc 1 871 12
	andi	s3,s3,251
.LVL136:
	.loc 1 873 3 is_stmt 1
	.loc 1 873 42 is_stmt 0
	slli	s5,s3,2
	.loc 1 873 10
	andi	s5,s5,4
.LVL137:
	.loc 1 874 3 is_stmt 1
	.loc 1 874 13 is_stmt 0
	srli	s7,s7,16
.LVL138:
	.loc 1 877 3 is_stmt 1
	.loc 1 877 7 is_stmt 0
	add	a1,s7,s5
.LVL139:
	slli	a1,a1,16
	li	a2,640
	srli	a1,a1,16
	li	a0,182
	call	pbuf_alloc
.LVL140:
	mv	s4,a0
.LVL141:
	.loc 1 878 3 is_stmt 1
	.loc 1 878 6 is_stmt 0
	beq	a0,zero,.L94
	.loc 1 885 3 is_stmt 1
	.loc 1 885 16 is_stmt 0
	lw	a0,4(s0)
.LVL142:
	.loc 1 887 3 is_stmt 1
	.loc 1 885 29 is_stmt 0
	lhu	a5,8(s0)
	.loc 1 887 7
	lw	a1,4(s4)
	.loc 1 885 29
	lhu	a3,8(a0)
	.loc 1 887 7
	mv	a2,s7
	add	a1,a1,s5
	.loc 1 885 29
	sub	a3,a3,a5
	.loc 1 885 10
	add	a3,s1,a3
	.loc 1 887 7
	slli	a3,a3,16
	srli	a3,a3,16
	call	pbuf_copy_partial
.LVL143:
	mv	a1,a0
	.loc 1 887 6
	bne	a0,s7,.L94
	.loc 1 894 3 is_stmt 1
	.loc 1 894 23 is_stmt 0
	lw	a0,4(s4)
	sw	a1,12(sp)
	add	a0,a0,s5
	call	inet_chksum
.LVL144:
	.loc 1 894 3
	lw	a1,12(sp)
	not	a0,a0
	slli	a0,a0,16
	addi	a2,sp,30
	addi	a3,sp,29
	srli	a0,a0,16
	call	tcp_seg_add_chksum
.LVL145:
	.loc 1 901 3 is_stmt 1
	.loc 1 901 26 is_stmt 0
	lw	a5,16(s0)
	lbu	a0,12(a5)
	lbu	a5,13(a5)
	slli	a5,a5,8
	or	a0,a5,a0
	call	lwip_htons
.LVL146:
	andi	a2,a0,8
	.loc 1 901 18
	andi	s5,a0,0xff
.LVL147:
	.loc 1 902 3 is_stmt 1
	.loc 1 904 3
	.loc 1 904 6 is_stmt 0
	bne	a2,zero,.L95
	.loc 1 901 15
	andi	s5,s5,63
.LVL148:
.L96:
	.loc 1 908 3 is_stmt 1
	.loc 1 908 6 is_stmt 0
	andi	a5,s5,1
	beq	a5,zero,.L97
	.loc 1 909 5 is_stmt 1
	.loc 1 909 17 is_stmt 0
	andi	s5,s5,254
.LVL149:
	.loc 1 910 5 is_stmt 1
	.loc 1 910 21 is_stmt 0
	ori	a2,a2,1
.LVL150:
.L97:
	.loc 1 914 53
	lw	a4,16(s0)
	sw	a2,12(sp)
.LVL151:
	.loc 1 914 3 is_stmt 1
	.loc 1 914 53 is_stmt 0
	lbu	a0,5(a4)
	lbu	a5,4(a4)
	slli	a0,a0,8
	or	a0,a0,a5
	lbu	a5,6(a4)
	slli	a5,a5,16
	or	a5,a5,a0
	lbu	a0,7(a4)
	slli	a0,a0,24
	or	a0,a0,a5
	call	lwip_htonl
.LVL152:
	.loc 1 914 9
	lw	a2,12(sp)
	mv	a4,s3
	add	a3,s1,a0
	mv	a1,s4
	mv	a0,s2
	call	tcp_create_segment
.LVL153:
	mv	s3,a0
.LVL154:
	.loc 1 915 3 is_stmt 1
	.loc 1 915 6 is_stmt 0
	beq	a0,zero,.L94
	.loc 1 922 3 is_stmt 1
	.loc 1 922 15 is_stmt 0
	lhu	a5,30(sp)
	sub	s1,s1,s6
	slli	s1,s1,16
	sh	a5,10(a0)
	.loc 1 923 3 is_stmt 1
	.loc 1 923 23 is_stmt 0
	lbu	a5,29(sp)
	srli	s1,s1,16
	sb	a5,12(a0)
	.loc 1 924 3 is_stmt 1
	.loc 1 924 14 is_stmt 0
	lbu	a5,13(a0)
	ori	a5,a5,4
	sb	a5,13(a0)
	.loc 1 928 3 is_stmt 1
	.loc 1 928 24 is_stmt 0
	lw	a0,4(s0)
.LVL155:
	call	pbuf_clen
.LVL156:
	.loc 1 928 21
	lhu	a5,106(s2)
	sub	a5,a5,a0
	sh	a5,106(s2)
	.loc 1 932 3 is_stmt 1
	lw	a0,4(s0)
	lhu	a1,8(a0)
	add	a1,s1,a1
	slli	a1,a1,16
	srli	a1,a1,16
	call	pbuf_realloc
.LVL157:
	.loc 1 933 3
	.loc 1 933 13 is_stmt 0
	lhu	a5,8(s0)
	add	s1,s1,a5
	.loc 1 934 55
	lw	a5,16(s0)
	.loc 1 933 13
	sh	s1,8(s0)
	.loc 1 934 3 is_stmt 1
	.loc 1 934 55 is_stmt 0
	lbu	a0,13(a5)
	lbu	s1,12(a5)
	slli	a0,a0,8
	or	s1,a0,s1
	.loc 1 934 78
	mv	a0,s5
	call	lwip_htons
.LVL158:
	.loc 1 934 38
	or	a0,s1,a0
	.loc 1 934 8
	lw	a4,16(s0)
	.loc 1 934 38
	slli	a5,a0,16
	srli	a5,a5,16
	srli	a5,a5,8
	sb	a5,13(a4)
	.loc 1 941 3 is_stmt 1
	.loc 1 934 38 is_stmt 0
	sb	a0,12(a4)
	.loc 1 941 24
	lw	a0,4(s0)
	call	pbuf_clen
.LVL159:
	.loc 1 941 21
	lhu	a5,106(s2)
	add	a0,a0,a5
	sh	a0,106(s2)
	.loc 1 945 3 is_stmt 1
	.loc 1 947 5 is_stmt 0
	lw	s4,4(s0)
.LVL160:
	.loc 1 945 16
	sh	zero,10(s0)
	.loc 1 946 3 is_stmt 1
	.loc 1 946 24 is_stmt 0
	sb	zero,12(s0)
	.loc 1 947 3 is_stmt 1
.LVL161:
	.loc 1 948 3
	.loc 1 948 10 is_stmt 0
	lhu	s1,8(s4)
	lhu	a1,8(s0)
	sub	s1,s1,a1
	slli	s1,s1,16
	srli	s1,s1,16
.LVL162:
	.loc 1 951 3 is_stmt 1
	.loc 1 951 9
.L98:
	.loc 1 951 32 is_stmt 0 discriminator 1
	lhu	a1,10(s4)
	.loc 1 951 19 discriminator 1
	bltu	a1,s1,.L100
	.loc 1 958 5
	addi	s6,s0,12
	addi	s5,s0,10
.LVL163:
.L101:
	.loc 1 958 5 is_stmt 1 discriminator 2
	.loc 1 958 25 is_stmt 0 discriminator 2
	lhu	a1,10(s4)
	lw	a0,4(s4)
	sub	a1,a1,s1
	slli	a1,a1,16
	srli	a1,a1,16
	add	a0,a0,s1
	call	inet_chksum
.LVL164:
	.loc 1 958 5 discriminator 2
	lhu	a1,10(s4)
	not	a0,a0
	slli	a0,a0,16
	sub	a1,a1,s1
	slli	a1,a1,16
	mv	a3,s6
	mv	a2,s5
	srli	a1,a1,16
	srli	a0,a0,16
	call	tcp_seg_add_chksum
.LVL165:
	.loc 1 957 20 is_stmt 1 discriminator 2
	.loc 1 957 34 is_stmt 0 discriminator 2
	lw	s4,0(s4)
.LVL166:
	.loc 1 957 10 is_stmt 1 discriminator 2
	.loc 1 957 27 is_stmt 0 discriminator 2
	li	s1,0
	.loc 1 957 3 discriminator 2
	bne	s4,zero,.L101
	j	.L99
.LVL167:
.L95:
	.loc 1 905 5 is_stmt 1
	.loc 1 905 17 is_stmt 0
	andi	s5,s5,55
.LVL168:
	.loc 1 906 5 is_stmt 1
	.loc 1 906 21 is_stmt 0
	li	a2,8
	j	.L96
.LVL169:
.L100:
	.loc 1 952 5 is_stmt 1
	.loc 1 953 7 is_stmt 0
	lw	s4,0(s4)
.LVL170:
	.loc 1 952 12
	sub	s1,s1,a1
.LVL171:
	slli	s1,s1,16
	srli	s1,s1,16
.LVL172:
	.loc 1 953 5 is_stmt 1
	.loc 1 951 9
	bne	s4,zero,.L98
.LVL173:
.L99:
	.loc 1 966 3
	.loc 1 966 24 is_stmt 0
	lw	a0,4(s3)
	call	pbuf_clen
.LVL174:
	.loc 1 966 21
	lhu	a5,106(s2)
	add	a0,a0,a5
	sh	a0,106(s2)
	.loc 1 969 3 is_stmt 1
	.loc 1 969 19 is_stmt 0
	lw	a5,0(s0)
	.loc 1 969 13
	sw	a5,0(s3)
	.loc 1 970 3 is_stmt 1
	.loc 1 970 14 is_stmt 0
	sw	s3,0(s0)
	.loc 1 975 3 is_stmt 1
	.loc 1 975 6 is_stmt 0
	lw	a5,0(s3)
	bne	a5,zero,.L123
	.loc 1 976 5 is_stmt 1
	.loc 1 976 26 is_stmt 0
	sh	zero,108(s2)
	j	.L123
.LVL175:
.L94:
.LDL2:
	.loc 1 982 3 is_stmt 1
	lui	a5,%hi(lwip_stats)
	addi	a5,a5,%lo(lwip_stats)
	lhu	a4,160(a5)
	addi	a4,a4,1
	sh	a4,160(a5)
	.loc 1 984 3
	.loc 1 984 8
	.loc 1 984 7
	.loc 1 984 17
	.loc 1 985 3
	.loc 1 985 6 is_stmt 0
	beq	s4,zero,.L122
	.loc 1 986 5 is_stmt 1
	mv	a0,s4
	call	pbuf_free
.LVL176:
	j	.L122
	.cfi_endproc
.LFE11:
	.size	tcp_split_unsent_seg, .-tcp_split_unsent_seg
	.section	.text.tcp_enqueue_flags,"ax",@progbits
	.align	1
	.globl	tcp_enqueue_flags
	.type	tcp_enqueue_flags, @function
tcp_enqueue_flags:
.LFB13:
	.loc 1 1033 1
	.cfi_startproc
.LVL177:
	.loc 1 1034 3
	.loc 1 1035 3
	.loc 1 1036 3
	.loc 1 1037 3
	.loc 1 1039 3
	.loc 1 1041 3
	.loc 1 1041 8
	.loc 1 1049 6 is_stmt 0
	srli	a4,a1,1
	.loc 1 1033 1
	addi	sp,sp,-32
	.cfi_def_cfa_offset 32
	.loc 1 1049 6
	andi	a4,a4,1
	.loc 1 1033 1
	sw	s0,24(sp)
	sw	s1,20(sp)
	sw	s2,16(sp)
	.cfi_offset 8, -8
	.cfi_offset 9, -12
	.cfi_offset 18, -16
	mv	s0,a0
	mv	s1,a1
	andi	s2,a1,3
	.loc 1 1041 49 is_stmt 1
	.loc 1 1041 59
	.loc 1 1043 3
	.loc 1 1043 8
	.loc 1 1043 7
	.loc 1 1043 17
	.loc 1 1049 3
.LVL178:
	.loc 1 1073 3
	.loc 1 1076 3
	.loc 1 1076 12 is_stmt 0
	li	a2,640
	slli	a1,a4,2
.LVL179:
	li	a0,182
.LVL180:
	sw	a4,12(sp)
	.loc 1 1033 1
	sw	ra,28(sp)
	.cfi_offset 1, -4
	.loc 1 1076 12
	call	pbuf_alloc
.LVL181:
	.loc 1 1076 6
	lw	a4,12(sp)
	bne	a0,zero,.L125
.LVL182:
.L141:
	.loc 1 1086 5 is_stmt 1
	.loc 1 1086 10
	.loc 1 1086 25 is_stmt 0
	lhu	a5,30(s0)
	.loc 1 1088 12
	li	a0,-1
	.loc 1 1086 25
	ori	a5,a5,128
	.loc 1 1086 23
	sh	a5,30(s0)
	.loc 1 1086 70 is_stmt 1
	.loc 1 1087 5
	lui	a5,%hi(lwip_stats)
	addi	a5,a5,%lo(lwip_stats)
	lhu	a4,160(a5)
	addi	a4,a4,1
	sh	a4,160(a5)
	.loc 1 1088 5
.L126:
	.loc 1 1130 1 is_stmt 0
	lw	ra,28(sp)
	.cfi_remember_state
	.cfi_restore 1
	lw	s0,24(sp)
	.cfi_restore 8
.LVL183:
	lw	s1,20(sp)
	.cfi_restore 9
	lw	s2,16(sp)
	.cfi_restore 18
	addi	sp,sp,32
	.cfi_def_cfa_offset 0
.LVL184:
	jr	ra
.LVL185:
.L125:
	.cfi_restore_state
	.loc 1 1085 14
	lw	a3,96(s0)
	mv	a1,a0
	.loc 1 1081 3 is_stmt 1
	.loc 1 1081 8
	.loc 1 1081 37
	.loc 1 1081 47
	.loc 1 1085 3
	.loc 1 1085 14 is_stmt 0
	mv	a2,s1
	mv	a0,s0
.LVL186:
	call	tcp_create_segment
.LVL187:
	.loc 1 1085 6
	beq	a0,zero,.L141
	.loc 1 1090 3 is_stmt 1
	.loc 1 1090 8
	.loc 1 1090 76
	.loc 1 1090 86
	.loc 1 1091 3
	.loc 1 1091 8
	.loc 1 1091 32
	.loc 1 1091 42
	.loc 1 1097 30
	.loc 1 1100 3
	.loc 1 1100 10 is_stmt 0
	lw	a5,112(s0)
	.loc 1 1100 6
	bne	a5,zero,.L128
	.loc 1 1101 5 is_stmt 1
	.loc 1 1101 17 is_stmt 0
	sw	a0,112(s0)
.L129:
	.loc 1 1109 3 is_stmt 1
	.loc 1 1109 24 is_stmt 0
	sh	zero,108(s0)
	.loc 1 1113 3 is_stmt 1
	.loc 1 1113 6 is_stmt 0
	beq	s2,zero,.L130
	.loc 1 1114 5 is_stmt 1
	.loc 1 1114 17 is_stmt 0
	lw	a5,96(s0)
	addi	a5,a5,1
	sw	a5,96(s0)
.L130:
	.loc 1 1117 3 is_stmt 1
	.loc 1 1117 6 is_stmt 0
	andi	s1,s1,1
	beq	s1,zero,.L131
	.loc 1 1118 5 is_stmt 1
	.loc 1 1118 10
	.loc 1 1118 25 is_stmt 0
	lhu	a5,30(s0)
	ori	a5,a5,32
	.loc 1 1118 23
	sh	a5,30(s0)
.L131:
	.loc 1 1118 70 is_stmt 1 discriminator 1
	.loc 1 1122 3 discriminator 1
	.loc 1 1122 24 is_stmt 0 discriminator 1
	lw	a0,4(a0)
.LVL188:
	call	pbuf_clen
.LVL189:
	.loc 1 1122 21 discriminator 1
	lhu	a5,106(s0)
	add	a0,a0,a5
	sh	a0,106(s0)
	.loc 1 1123 3 is_stmt 1 discriminator 1
	.loc 1 1124 3 discriminator 1
	.loc 1 1129 10 is_stmt 0 discriminator 1
	li	a0,0
	j	.L126
.LVL190:
.L128:
.LBB56:
	.loc 1 1104 30 is_stmt 1 discriminator 1
	mv	a4,a5
	.loc 1 1104 34 is_stmt 0 discriminator 1
	lw	a5,0(a5)
.LVL191:
	.loc 1 1104 5 discriminator 1
	bne	a5,zero,.L128
	.loc 1 1105 5 is_stmt 1
	.loc 1 1105 16 is_stmt 0
	sw	a0,0(a4)
	j	.L129
.LBE56:
	.cfi_endproc
.LFE13:
	.size	tcp_enqueue_flags, .-tcp_enqueue_flags
	.section	.text.tcp_send_fin,"ax",@progbits
	.align	1
	.globl	tcp_send_fin
	.type	tcp_send_fin, @function
tcp_send_fin:
.LFB12:
	.loc 1 1002 1 is_stmt 1
	.cfi_startproc
.LVL192:
	.loc 1 1003 3
	.loc 1 1003 8
	.loc 1 1003 7
	.loc 1 1003 17
	.loc 1 1006 3
	.loc 1 1002 1 is_stmt 0
	addi	sp,sp,-16
	.cfi_def_cfa_offset 16
	sw	s1,4(sp)
	sw	ra,12(sp)
	sw	s0,8(sp)
	sw	s2,0(sp)
	.cfi_offset 9, -12
	.cfi_offset 1, -4
	.cfi_offset 8, -8
	.cfi_offset 18, -16
	.loc 1 1006 10
	lw	a5,112(a0)
	.loc 1 1002 1
	mv	s1,a0
	.loc 1 1006 6
	beq	a5,zero,.L143
.L144:
.LVL193:
.LBB57:
	.loc 1 1008 37 is_stmt 1 discriminator 1
	mv	s2,a5
	.loc 1 1008 48 is_stmt 0 discriminator 1
	lw	a5,0(a5)
.LVL194:
	.loc 1 1008 5 discriminator 1
	bne	a5,zero,.L144
	.loc 1 1011 5 is_stmt 1
	.loc 1 1011 19 is_stmt 0
	lw	a5,16(s2)
	lbu	a0,12(a5)
.LVL195:
	lbu	a5,13(a5)
	slli	a5,a5,8
	or	a0,a5,a0
	call	lwip_htons
.LVL196:
	.loc 1 1011 8
	andi	a0,a0,7
	beq	a0,zero,.L151
.LVL197:
.L143:
.LBE57:
	.loc 1 1019 3 is_stmt 1
	.loc 1 1020 1 is_stmt 0
	lw	s0,8(sp)
	.cfi_remember_state
	.cfi_restore 8
	lw	ra,12(sp)
	.cfi_restore 1
	lw	s2,0(sp)
	.cfi_restore 18
	.loc 1 1019 10
	mv	a0,s1
	.loc 1 1020 1
	lw	s1,4(sp)
	.cfi_restore 9
.LVL198:
	.loc 1 1019 10
	li	a1,1
	.loc 1 1020 1
	addi	sp,sp,16
	.cfi_def_cfa_offset 0
	.loc 1 1019 10
	tail	tcp_enqueue_flags
.LVL199:
.L151:
	.cfi_restore_state
.LBB58:
	.loc 1 1013 7 is_stmt 1
	.loc 1 1013 73 is_stmt 0
	lw	a4,16(s2)
	.loc 1 1013 96
	li	a0,1
	.loc 1 1013 73
	lbu	a5,13(a4)
	lbu	s0,12(a4)
	slli	a5,a5,8
	or	s0,a5,s0
	.loc 1 1013 96
	call	lwip_htons
.LVL200:
	.loc 1 1013 19
	lw	a3,16(s2)
	.loc 1 1013 49
	or	a5,s0,a0
	slli	a4,a5,16
	srli	a4,a4,16
	sb	a5,12(a3)
	srli	a5,a4,8
	sb	a5,13(a3)
	.loc 1 1014 7 is_stmt 1
	.loc 1 1014 12
	.loc 1 1014 27 is_stmt 0
	lhu	a5,30(s1)
.LBE58:
	.loc 1 1020 1
	lw	ra,12(sp)
	.cfi_restore 1
	lw	s0,8(sp)
	.cfi_restore 8
.LBB59:
	.loc 1 1014 27
	ori	a5,a5,32
	.loc 1 1014 25
	sh	a5,30(s1)
	.loc 1 1014 72 is_stmt 1
	.loc 1 1015 7
.LBE59:
	.loc 1 1020 1 is_stmt 0
	lw	s2,0(sp)
	.cfi_restore 18
.LVL201:
	lw	s1,4(sp)
	.cfi_restore 9
.LVL202:
	li	a0,0
	addi	sp,sp,16
	.cfi_def_cfa_offset 0
	jr	ra
	.cfi_endproc
.LFE12:
	.size	tcp_send_fin, .-tcp_send_fin
	.section	.text.tcp_rexmit_rto_prepare,"ax",@progbits
	.align	1
	.globl	tcp_rexmit_rto_prepare
	.type	tcp_rexmit_rto_prepare, @function
tcp_rexmit_rto_prepare:
.LFB17:
	.loc 1 1632 1 is_stmt 1
	.cfi_startproc
.LVL203:
	.loc 1 1633 3
	.loc 1 1635 3
	.loc 1 1635 8
	.loc 1 1635 7
	.loc 1 1635 17
	.loc 1 1637 3
	.loc 1 1637 10 is_stmt 0
	lw	a5,116(a0)
	.loc 1 1637 6
	beq	a5,zero,.L157
	.loc 1 1632 1
	addi	sp,sp,-32
	.cfi_def_cfa_offset 32
	sw	s0,24(sp)
	sw	ra,28(sp)
	sw	s1,20(sp)
	sw	s2,16(sp)
	sw	s3,12(sp)
	.cfi_offset 8, -8
	.cfi_offset 1, -4
	.cfi_offset 9, -12
	.cfi_offset 18, -16
	.cfi_offset 19, -20
	mv	s0,a0
.LBB64:
.LBB65:
	.loc 1 1439 6
	li	a3,1
.L155:
.LVL204:
.LBE65:
.LBE64:
	.loc 1 1645 28 is_stmt 1 discriminator 1
	mv	s2,a5
.LBB69:
.LBB66:
	.loc 1 1439 13 is_stmt 0 discriminator 1
	lw	a4,4(s2)
.LBE66:
.LBE69:
	.loc 1 1645 31 discriminator 1
	lw	a5,0(a5)
.LVL205:
.LBB70:
.LBB67:
	.loc 1 1439 13 discriminator 1
	lbu	a4,14(a4)
.LBE67:
.LBE70:
	.loc 1 1645 3 discriminator 1
	bne	a5,zero,.L156
	.loc 1 1651 3 is_stmt 1
.LVL206:
.LBB71:
.LBB72:
	.loc 1 1434 3
	.loc 1 1434 8
	.loc 1 1434 7
	.loc 1 1434 17
	.loc 1 1439 3
	.loc 1 1439 6 is_stmt 0
	li	a5,1
.LBE72:
.LBE71:
	.loc 1 1638 12
	li	a0,-6
.LVL207:
.LBB74:
.LBB73:
	.loc 1 1439 6
	bne	a4,a5,.L154
.LVL208:
.LBE73:
.LBE74:
	.loc 1 1656 3 is_stmt 1
	.loc 1 1656 18 is_stmt 0
	lw	a5,112(s0)
	.loc 1 1669 23
	li	a4,4096
	addi	a4,a4,-2048
	.loc 1 1656 13
	sw	a5,0(s2)
	.loc 1 1664 3 is_stmt 1
	.loc 1 1664 15 is_stmt 0
	lw	a5,116(s0)
	.loc 1 1666 16
	sw	zero,116(s0)
	.loc 1 1664 15
	sw	a5,112(s0)
	.loc 1 1666 3 is_stmt 1
	.loc 1 1669 3
	.loc 1 1669 8
	.loc 1 1669 23 is_stmt 0
	lhu	a5,30(s0)
	or	a5,a5,a4
	.loc 1 1669 21
	sh	a5,30(s0)
	.loc 1 1669 70 is_stmt 1
	.loc 1 1671 3
	.loc 1 1671 18 is_stmt 0
	lw	a4,16(s2)
	lbu	a0,5(a4)
	lbu	a5,4(a4)
	slli	a0,a0,8
	or	a0,a0,a5
	lbu	a5,6(a4)
	slli	a5,a5,16
	or	a5,a5,a0
	lbu	a0,7(a4)
	slli	a0,a0,24
	or	a0,a0,a5
	call	lwip_htonl
.LVL209:
	.loc 1 1671 77
	lw	a5,16(s2)
	.loc 1 1671 18
	mv	s1,a0
	.loc 1 1671 57
	lhu	s3,8(s2)
	.loc 1 1671 77
	lbu	a0,12(a5)
	lbu	a5,13(a5)
	slli	a5,a5,8
	or	a0,a5,a0
	call	lwip_htons
.LVL210:
	.loc 1 1671 166
	andi	a5,a0,3
	snez	a5,a5
	.loc 1 1671 49
	add	a0,s1,s3
	add	a0,a5,a0
	.loc 1 1671 16
	sw	a0,80(s0)
	.loc 1 1673 3 is_stmt 1
	.loc 1 1673 15 is_stmt 0
	sw	zero,56(s0)
	.loc 1 1675 3 is_stmt 1
	.loc 1 1675 10 is_stmt 0
	li	a0,0
.L154:
	.loc 1 1676 1
	lw	ra,28(sp)
	.cfi_remember_state
	.cfi_restore 1
	lw	s0,24(sp)
	.cfi_restore 8
.LVL211:
	lw	s1,20(sp)
	.cfi_restore 9
	lw	s2,16(sp)
	.cfi_restore 18
.LVL212:
	lw	s3,12(sp)
	.cfi_restore 19
	addi	sp,sp,32
	.cfi_def_cfa_offset 0
	jr	ra
.LVL213:
.L156:
	.cfi_restore_state
	.loc 1 1646 5 is_stmt 1
.LBB75:
.LBB68:
	.loc 1 1434 3
	.loc 1 1434 8
	.loc 1 1434 7
	.loc 1 1434 17
	.loc 1 1439 3
	.loc 1 1439 6 is_stmt 0
	beq	a4,a3,.L155
.LBE68:
.LBE75:
	.loc 1 1638 12
	li	a0,-6
	j	.L154
.LVL214:
.L157:
	.cfi_def_cfa_offset 0
	.cfi_restore 1
	.cfi_restore 8
	.cfi_restore 9
	.cfi_restore 18
	.cfi_restore 19
	li	a0,-6
.LVL215:
	.loc 1 1676 1
	ret
	.cfi_endproc
.LFE17:
	.size	tcp_rexmit_rto_prepare, .-tcp_rexmit_rto_prepare
	.section	.text.tcp_rexmit,"ax",@progbits
	.align	1
	.globl	tcp_rexmit
	.type	tcp_rexmit, @function
tcp_rexmit:
.LFB20:
	.loc 1 1725 1 is_stmt 1
	.cfi_startproc
.LVL216:
	.loc 1 1726 3
	.loc 1 1727 3
	.loc 1 1729 3
	.loc 1 1729 8
	.loc 1 1729 7
	.loc 1 1729 17
	.loc 1 1731 3
	.loc 1 1725 1 is_stmt 0
	addi	sp,sp,-32
	.cfi_def_cfa_offset 32
	sw	ra,28(sp)
	sw	s0,24(sp)
	sw	s1,20(sp)
	sw	s2,16(sp)
	sw	s3,12(sp)
	.cfi_offset 1, -4
	.cfi_offset 8, -8
	.cfi_offset 9, -12
	.cfi_offset 18, -16
	.cfi_offset 19, -20
	.loc 1 1731 10
	lw	s1,116(a0)
	.loc 1 1731 6
	beq	s1,zero,.L173
.LBB78:
.LBB79:
	.loc 1 1439 13
	lw	a5,4(s1)
	mv	s0,a0
.LBE79:
.LBE78:
	.loc 1 1735 3 is_stmt 1
.LVL217:
	.loc 1 1739 3
.LBB82:
.LBB80:
	.loc 1 1434 3
	.loc 1 1434 8
	.loc 1 1434 7
	.loc 1 1434 17
	.loc 1 1439 3
.LBE80:
.LBE82:
	.loc 1 1732 12 is_stmt 0
	li	a0,-6
.LVL218:
.LBB83:
.LBB81:
	.loc 1 1439 6
	lbu	a4,14(a5)
	li	a5,1
	bne	a4,a5,.L165
.LVL219:
.LBE81:
.LBE83:
	.loc 1 1746 3 is_stmt 1
	.loc 1 1746 21 is_stmt 0
	lw	a5,0(s1)
	.loc 1 1748 11
	addi	s2,s0,112
	.loc 1 1746 16
	sw	a5,116(s0)
	.loc 1 1748 3 is_stmt 1
.LVL220:
	.loc 1 1749 3
.L166:
	.loc 1 1749 9
	.loc 1 1749 10 is_stmt 0
	lw	a5,0(s2)
	.loc 1 1749 9
	bne	a5,zero,.L167
.L171:
	.loc 1 1753 3 is_stmt 1
	.loc 1 1753 15 is_stmt 0
	lw	a5,0(s2)
	.loc 1 1753 13
	sw	a5,0(s1)
	.loc 1 1754 3 is_stmt 1
	.loc 1 1754 12 is_stmt 0
	sw	s1,0(s2)
	.loc 1 1756 3 is_stmt 1
	.loc 1 1756 6 is_stmt 0
	lw	a5,0(s1)
	bne	a5,zero,.L169
	.loc 1 1758 5 is_stmt 1
	.loc 1 1758 26 is_stmt 0
	sh	zero,108(s0)
.L169:
	.loc 1 1762 3 is_stmt 1
	.loc 1 1762 10 is_stmt 0
	lbu	a5,70(s0)
	.loc 1 1762 6
	li	a4,255
	beq	a5,a4,.L172
	.loc 1 1763 5 is_stmt 1
	addi	a5,a5,1
	sb	a5,70(s0)
.L172:
	.loc 1 1767 3
	.loc 1 1767 15 is_stmt 0
	sw	zero,56(s0)
	.loc 1 1770 3 is_stmt 1
	.loc 1 1773 3
	.loc 1 1773 10 is_stmt 0
	li	a0,0
.LVL221:
.L165:
	.loc 1 1774 1
	lw	ra,28(sp)
	.cfi_remember_state
	.cfi_restore 1
	lw	s0,24(sp)
	.cfi_restore 8
	lw	s1,20(sp)
	.cfi_restore 9
	lw	s2,16(sp)
	.cfi_restore 18
	lw	s3,12(sp)
	.cfi_restore 19
	addi	sp,sp,32
	.cfi_def_cfa_offset 0
	jr	ra
.LVL222:
.L167:
	.cfi_restore_state
	.loc 1 1750 27 discriminator 1
	lw	a4,16(a5)
	lbu	a0,5(a4)
	lbu	a5,4(a4)
	slli	a0,a0,8
	or	a0,a0,a5
	lbu	a5,6(a4)
	slli	a5,a5,16
	or	a5,a5,a0
	lbu	a0,7(a4)
	slli	a0,a0,24
	or	a0,a0,a5
	call	lwip_htonl
.LVL223:
	.loc 1 1750 76 discriminator 1
	lw	a4,16(s1)
	.loc 1 1750 27 discriminator 1
	mv	s3,a0
	.loc 1 1750 76 discriminator 1
	lbu	a0,5(a4)
	lbu	a5,4(a4)
	slli	a0,a0,8
	or	a0,a0,a5
	lbu	a5,6(a4)
	slli	a5,a5,16
	or	a5,a5,a0
	lbu	a0,7(a4)
	slli	a0,a0,24
	or	a0,a0,a5
	call	lwip_htonl
.LVL224:
	.loc 1 1750 66 discriminator 1
	sub	s3,s3,a0
	.loc 1 1749 19 discriminator 1
	bge	s3,zero,.L171
	.loc 1 1751 5 is_stmt 1
	.loc 1 1751 18 is_stmt 0
	lw	s2,0(s2)
.LVL225:
	j	.L166
.LVL226:
.L173:
	.loc 1 1732 12
	li	a0,-6
.LVL227:
	j	.L165
	.cfi_endproc
.LFE20:
	.size	tcp_rexmit, .-tcp_rexmit
	.section	.text.tcp_rexmit_fast,"ax",@progbits
	.align	1
	.globl	tcp_rexmit_fast
	.type	tcp_rexmit_fast, @function
tcp_rexmit_fast:
.LFB21:
	.loc 1 1784 1 is_stmt 1
	.cfi_startproc
.LVL228:
	.loc 1 1785 3
	.loc 1 1785 8
	.loc 1 1785 7
	.loc 1 1785 17
	.loc 1 1787 3
	.loc 1 1787 6 is_stmt 0
	lw	a5,116(a0)
	beq	a5,zero,.L183
	.loc 1 1784 1 discriminator 1
	addi	sp,sp,-16
	.cfi_def_cfa_offset 16
	sw	s0,8(sp)
	sw	ra,12(sp)
	.cfi_offset 8, -8
	.cfi_offset 1, -4
	.loc 1 1787 27 discriminator 1
	lhu	a5,30(a0)
	mv	s0,a0
	andi	a5,a5,4
	bne	a5,zero,.L176
	.loc 1 1793 59 is_stmt 1
	.loc 1 1794 5
	.loc 1 1794 9 is_stmt 0
	call	tcp_rexmit
.LVL229:
	.loc 1 1794 8
	bne	a0,zero,.L176
	.loc 1 1797 7 is_stmt 1
	.loc 1 1797 69 is_stmt 0
	lhu	a4,76(s0)
	lhu	a5,100(s0)
	slli	a3,a4,16
	slli	a2,a5,16
	srli	a2,a2,16
	srli	a3,a3,16
	bleu	a2,a3,.L180
	mv	a5,a4
.L180:
	.loc 1 1800 36
	lhu	a4,54(s0)
	.loc 1 1797 69
	slli	a5,a5,16
	srli	a5,a5,16
	.loc 1 1797 87
	srai	a5,a5,1
	.loc 1 1797 21
	sh	a5,78(s0)
	.loc 1 1800 7 is_stmt 1
	.loc 1 1800 31 is_stmt 0
	slli	a3,a4,1
	.loc 1 1800 10
	bgeu	a5,a3,.L181
	.loc 1 1804 60 is_stmt 1
	.loc 1 1805 9
	.loc 1 1805 23 is_stmt 0
	sh	a3,78(s0)
.L181:
	.loc 1 1808 7 is_stmt 1
	.loc 1 1808 33 is_stmt 0
	li	a5,3
	mul	a4,a4,a5
	lhu	a5,78(s0)
	.loc 1 1812 18
	sh	zero,52(s0)
	.loc 1 1808 33
	add	a4,a4,a5
	.loc 1 1809 27
	lhu	a5,30(s0)
	.loc 1 1808 17
	sh	a4,76(s0)
	.loc 1 1809 7 is_stmt 1
	.loc 1 1809 12
	.loc 1 1809 27 is_stmt 0
	ori	a5,a5,4
	.loc 1 1809 25
	sh	a5,30(s0)
	.loc 1 1809 72 is_stmt 1
	.loc 1 1812 7
.L176:
	.loc 1 1815 1 is_stmt 0
	lw	ra,12(sp)
	.cfi_restore 1
	lw	s0,8(sp)
	.cfi_restore 8
.LVL230:
	addi	sp,sp,16
	.cfi_def_cfa_offset 0
	jr	ra
.LVL231:
.L183:
	ret
	.cfi_endproc
.LFE21:
	.size	tcp_rexmit_fast, .-tcp_rexmit_fast
	.section	.text.tcp_rst,"ax",@progbits
	.align	1
	.globl	tcp_rst
	.type	tcp_rst, @function
tcp_rst:
.LFB26:
	.loc 1 1983 1 is_stmt 1
	.cfi_startproc
.LVL232:
	.loc 1 1984 3
	.loc 1 1985 3
	.loc 1 1986 3
	.loc 1 1988 3
	.loc 1 1988 8
	.loc 1 1988 7
	.loc 1 1988 17
	.loc 1 1989 3
	.loc 1 1989 8
	.loc 1 1989 7
	.loc 1 1989 17
	.loc 1 1991 3
	.loc 1 1996 3
	.loc 1 1999 3
	.loc 1 1983 1 is_stmt 0
	addi	sp,sp,-48
	.cfi_def_cfa_offset 48
	sw	s0,40(sp)
	.cfi_offset 8, -8
	mv	s0,a0
	.loc 1 1999 7
	mv	a0,a1
.LVL233:
	.loc 1 1983 1
	sw	s1,36(sp)
	sw	s2,32(sp)
	sw	s3,28(sp)
	sw	ra,44(sp)
	.cfi_offset 9, -12
	.cfi_offset 18, -16
	.cfi_offset 19, -20
	.cfi_offset 1, -4
	.loc 1 1983 1
	mv	s3,a2
	mv	s1,a3
	mv	s2,a4
	sw	a5,12(sp)
	sw	a6,8(sp)
	.loc 1 1999 7
	call	lwip_htonl
.LVL234:
	lw	a4,8(sp)
	lw	a3,12(sp)
	li	a6,8192
	mv	a2,a0
	addi	a6,a6,-1007
	li	a5,20
	li	a1,0
	mv	a0,s3
	call	tcp_output_alloc_header_common.constprop.0
.LVL235:
	.loc 1 2001 3 is_stmt 1
	.loc 1 2001 6 is_stmt 0
	beq	a0,zero,.L186
	mv	a1,a0
	.loc 1 2005 3 is_stmt 1
.LVL236:
	.loc 1 1874 3
	.loc 1 1875 3
	.loc 1 1876 3
	.loc 1 1878 3
	.loc 1 1878 8
	.loc 1 1878 7
	.loc 1 1878 17
	.loc 1 1880 3
	.loc 1 1881 3
	.loc 1 1900 3
	.loc 1 1907 3
	.loc 1 1908 3
	.loc 1 1909 3
	.loc 1 1909 8
	.loc 1 1909 221
	.loc 1 1909 231
	.loc 1 1910 3
	.loc 1 1911 3
	.loc 1 2007 3
	.loc 1 2009 3
	mv	a0,s0
.LVL237:
	.loc 1 2011 1 is_stmt 0
	lw	s0,40(sp)
	.cfi_remember_state
	.cfi_restore 8
.LVL238:
	lw	ra,44(sp)
	.cfi_restore 1
	lw	s3,28(sp)
	.cfi_restore 19
.LVL239:
	.loc 1 2009 3
	mv	a3,s2
	mv	a2,s1
	.loc 1 2011 1
	lw	s2,32(sp)
	.cfi_restore 18
.LVL240:
	lw	s1,36(sp)
	.cfi_restore 9
.LVL241:
	addi	sp,sp,48
	.cfi_def_cfa_offset 0
	.loc 1 2009 3
	tail	tcp_output_control_segment
.LVL242:
.L186:
	.cfi_restore_state
	.loc 1 2011 1
	lw	ra,44(sp)
	.cfi_restore 1
	lw	s0,40(sp)
	.cfi_restore 8
.LVL243:
	lw	s1,36(sp)
	.cfi_restore 9
.LVL244:
	lw	s2,32(sp)
	.cfi_restore 18
.LVL245:
	lw	s3,28(sp)
	.cfi_restore 19
.LVL246:
	addi	sp,sp,48
	.cfi_def_cfa_offset 0
	jr	ra
	.cfi_endproc
.LFE26:
	.size	tcp_rst, .-tcp_rst
	.section	.text.tcp_send_empty_ack,"ax",@progbits
	.align	1
	.globl	tcp_send_empty_ack
	.type	tcp_send_empty_ack, @function
tcp_send_empty_ack:
.LFB27:
	.loc 1 2020 1 is_stmt 1
	.cfi_startproc
.LVL247:
	.loc 1 2021 3
	.loc 1 2022 3
	.loc 1 2023 3
	.loc 1 2024 3
	.loc 1 2026 3
	.loc 1 2026 8
	.loc 1 2026 7
	.loc 1 2026 17
	.loc 1 2033 3
	.loc 1 2042 3
	.loc 1 2020 1 is_stmt 0
	addi	sp,sp,-16
	.cfi_def_cfa_offset 16
	sw	s0,8(sp)
	sw	ra,12(sp)
	.cfi_offset 8, -8
	.cfi_offset 1, -4
	.loc 1 2020 1
	mv	s0,a0
	.loc 1 2042 7
	lw	a0,84(a0)
.LVL248:
	call	lwip_htonl
.LVL249:
	mv	a2,a0
	li	a1,0
	mv	a0,s0
	call	tcp_output_alloc_header.constprop.0
.LVL250:
	.loc 1 2043 3 is_stmt 1
	.loc 1 2043 6 is_stmt 0
	bne	a0,zero,.L190
	.loc 1 2045 5 is_stmt 1
	.loc 1 2045 10
	.loc 1 2045 25 is_stmt 0
	lhu	a5,30(s0)
	.loc 1 2047 12
	li	a0,-2
.LVL251:
	.loc 1 2045 25
	ori	a5,a5,3
	.loc 1 2045 23
	sh	a5,30(s0)
	.loc 1 2045 78 is_stmt 1
	.loc 1 2046 5
	.loc 1 2047 5
.L191:
	.loc 1 2067 1 is_stmt 0
	lw	ra,12(sp)
	.cfi_remember_state
	.cfi_restore 1
	lw	s0,8(sp)
	.cfi_restore 8
.LVL252:
	addi	sp,sp,16
	.cfi_def_cfa_offset 0
	jr	ra
.LVL253:
.L190:
	.cfi_restore_state
	mv	a1,a0
	.loc 1 2049 3 is_stmt 1
.LVL254:
	.loc 1 1874 3
	.loc 1 1875 3
	.loc 1 1876 3
	.loc 1 1878 3
	.loc 1 1878 8
	.loc 1 1878 7
	.loc 1 1878 17
	.loc 1 1880 3
	.loc 1 1881 3
	.loc 1 1900 3
	.loc 1 1907 3
	.loc 1 1908 3
	.loc 1 1909 3
	.loc 1 1909 8
	.loc 1 1909 221
	.loc 1 1909 231
	.loc 1 1910 3
	.loc 1 1911 3
	.loc 1 2056 72
	.loc 1 2057 3
	.loc 1 2057 9 is_stmt 0
	addi	a3,s0,4
	mv	a2,s0
	mv	a0,s0
.LVL255:
	call	tcp_output_control_segment
.LVL256:
	.loc 1 2058 3 is_stmt 1
	lhu	a5,30(s0)
	.loc 1 2058 6 is_stmt 0
	beq	a0,zero,.L192
	.loc 1 2060 5 is_stmt 1
	.loc 1 2060 10
	.loc 1 2060 25 is_stmt 0
	ori	a5,a5,3
.L194:
	.loc 1 2063 23
	sh	a5,30(s0)
	j	.L191
.L192:
	.loc 1 2063 5 is_stmt 1
	.loc 1 2063 10
	.loc 1 2063 25 is_stmt 0
	andi	a5,a5,-4
	j	.L194
	.cfi_endproc
.LFE27:
	.size	tcp_send_empty_ack, .-tcp_send_empty_ack
	.section	.text.tcp_output,"ax",@progbits
	.align	1
	.globl	tcp_output
	.type	tcp_output, @function
tcp_output:
.LFB14:
	.loc 1 1238 1 is_stmt 1
	.cfi_startproc
.LVL257:
	.loc 1 1239 3
	.loc 1 1240 3
	.loc 1 1241 3
	.loc 1 1242 3
	.loc 1 1247 3
	.loc 1 1249 3
	.loc 1 1249 8
	.loc 1 1249 7
	.loc 1 1249 17
	.loc 1 1251 3
	.loc 1 1251 8
	.loc 1 1251 39
	.loc 1 1251 49
	.loc 1 1258 3
	.loc 1 1258 21 is_stmt 0
	lui	a5,%hi(tcp_input_pcb)
	.loc 1 1258 6
	lw	a5,%lo(tcp_input_pcb)(a5)
	beq	a5,a0,.L233
	.loc 1 1238 1
	addi	sp,sp,-80
	.cfi_def_cfa_offset 80
	sw	s0,72(sp)
	sw	ra,76(sp)
	sw	s1,68(sp)
	sw	s2,64(sp)
	sw	s3,60(sp)
	sw	s4,56(sp)
	sw	s5,52(sp)
	sw	s6,48(sp)
	sw	s7,44(sp)
	sw	s8,40(sp)
	sw	s9,36(sp)
	sw	s10,32(sp)
	sw	s11,28(sp)
	.cfi_offset 8, -8
	.cfi_offset 1, -4
	.cfi_offset 9, -12
	.cfi_offset 18, -16
	.cfi_offset 19, -20
	.cfi_offset 20, -24
	.cfi_offset 21, -28
	.cfi_offset 22, -32
	.cfi_offset 23, -36
	.cfi_offset 24, -40
	.cfi_offset 25, -44
	.cfi_offset 26, -48
	.cfi_offset 27, -52
	.loc 1 1264 7
	lw	s1,112(a0)
	mv	s0,a0
	.loc 1 1262 3 is_stmt 1
.LVL258:
	.loc 1 1264 3
	.loc 1 1266 3
	.loc 1 1266 6 is_stmt 0
	bne	s1,zero,.L197
	.loc 1 1268 57 is_stmt 1
	.loc 1 1272 78
	.loc 1 1276 5
	.loc 1 1276 8 is_stmt 0
	lhu	a5,30(a0)
	andi	a5,a5,2
	beq	a5,zero,.L199
.LVL259:
.L272:
	.loc 1 1420 1
	lw	s0,72(sp)
	.cfi_remember_state
	.cfi_restore 8
	lw	ra,76(sp)
	.cfi_restore 1
	lw	s1,68(sp)
	.cfi_restore 9
.LVL260:
	lw	s2,64(sp)
	.cfi_restore 18
	lw	s3,60(sp)
	.cfi_restore 19
	lw	s4,56(sp)
	.cfi_restore 20
	lw	s5,52(sp)
	.cfi_restore 21
	lw	s6,48(sp)
	.cfi_restore 22
	lw	s7,44(sp)
	.cfi_restore 23
	lw	s8,40(sp)
	.cfi_restore 24
	lw	s9,36(sp)
	.cfi_restore 25
	lw	s10,32(sp)
	.cfi_restore 26
	lw	s11,28(sp)
	.cfi_restore 27
	addi	sp,sp,80
	.cfi_def_cfa_offset 0
	.loc 1 1319 14
	tail	tcp_send_empty_ack
.LVL261:
.L197:
	.cfi_restore_state
	.loc 1 1262 32
	lhu	s6,76(a0)
	.loc 1 1262 15
	lhu	s2,100(a0)
	.loc 1 1287 64 is_stmt 1
	.loc 1 1290 3
	.loc 1 1290 42 is_stmt 0
	addi	s5,a0,4
.LVL262:
.LBB94:
.LBB95:
	.loc 1 134 3 is_stmt 1
	.loc 1 136 3
	.loc 1 136 27 is_stmt 0
	lbu	a0,8(a0)
	.loc 1 136 20
	beq	a0,zero,.L200
	.loc 1 137 5 is_stmt 1
	.loc 1 137 12 is_stmt 0
	call	netif_get_by_index
.LVL263:
.L270:
	.loc 1 139 12
	mv	s3,a0
.LVL264:
.LBE95:
.LBE94:
	.loc 1 1291 3 is_stmt 1
	.loc 1 1291 6 is_stmt 0
	beq	a0,zero,.L234
	.loc 1 1296 3 is_stmt 1 discriminator 1
	.loc 1 1296 6 is_stmt 0 discriminator 1
	lw	a5,0(s0)
	bne	a5,zero,.L202
.LBB97:
	.loc 1 1297 5 is_stmt 1 discriminator 1
.LVL265:
	.loc 1 1298 5 discriminator 1
	.loc 1 1301 5 discriminator 1
	.loc 1 1301 40 is_stmt 0 discriminator 1
	lw	a5,4(a0)
	.loc 1 1301 27 discriminator 1
	sw	a5,0(s0)
.LVL266:
.L202:
.LBE97:
	.loc 1 1262 58
	mv	s4,s6
	bleu	s6,s2,.L203
	mv	s4,s2
.L203:
	.loc 1 1305 7
	lw	a4,16(s1)
	.loc 1 1262 58
	slli	s4,s4,16
	srli	s4,s4,16
	.loc 1 1305 3 is_stmt 1
	.loc 1 1305 7 is_stmt 0
	lbu	a0,5(a4)
.LVL267:
	lbu	a5,4(a4)
	slli	a0,a0,8
	or	a0,a0,a5
	lbu	a5,6(a4)
	slli	a5,a5,16
	or	a5,a5,a0
	lbu	a0,7(a4)
	slli	a0,a0,24
	or	a0,a0,a5
	call	lwip_htonl
.LVL268:
	.loc 1 1305 58
	lhu	a5,8(s1)
	.loc 1 1305 53
	lw	a4,72(s0)
	sub	a5,a5,a4
	add	a5,a5,a0
	.loc 1 1305 6
	bleu	a5,s4,.L204
	.loc 1 1312 5 is_stmt 1
	.loc 1 1312 8 is_stmt 0
	lhu	a5,100(s0)
	bne	a5,s4,.L205
	.loc 1 1312 29 discriminator 1
	lw	a5,116(s0)
	bne	a5,zero,.L205
	.loc 1 1312 52 discriminator 2
	lbu	a5,165(s0)
	bne	a5,zero,.L205
	.loc 1 1313 7 is_stmt 1
	.loc 1 1314 7
	.loc 1 1315 7
	.loc 1 1313 24 is_stmt 0
	li	a5,256
	sh	a5,164(s0)
	.loc 1 1315 26
	sb	zero,166(s0)
.L205:
	.loc 1 1318 5 is_stmt 1
	.loc 1 1318 8 is_stmt 0
	lhu	a5,30(s0)
	andi	a5,a5,2
	beq	a5,zero,.L199
	.loc 1 1319 7 is_stmt 1
	.loc 1 1319 14 is_stmt 0
	mv	a0,s0
	j	.L272
.LVL269:
.L200:
.LBB98:
.LBB96:
	.loc 1 139 5 is_stmt 1
	.loc 1 139 12 is_stmt 0
	mv	a0,s5
	call	ip4_route
.LVL270:
	j	.L270
.LVL271:
.L204:
.LBE96:
.LBE98:
	.loc 1 1324 3 is_stmt 1
	.loc 1 1327 8 is_stmt 0
	lw	s2,116(s0)
	.loc 1 1324 24
	sb	zero,165(s0)
	.loc 1 1327 3 is_stmt 1
.LVL272:
	.loc 1 1328 3
	.loc 1 1328 6 is_stmt 0
	beq	s2,zero,.L207
.LVL273:
.L208:
	.loc 1 1329 12 is_stmt 1 discriminator 1
	mv	a5,s2
	.loc 1 1329 16 is_stmt 0 discriminator 1
	lw	s2,0(s2)
.LVL274:
	.loc 1 1329 5 discriminator 1
	bne	s2,zero,.L208
	mv	s2,a5
.LVL275:
.L207:
.LBB99:
.LBB100:
	.loc 1 1604 3 discriminator 1
	lui	s6,%hi(lwip_stats)
.LBE100:
.LBE99:
	.loc 1 1343 81 discriminator 1
	li	s9,5
	.loc 1 1356 8 discriminator 1
	li	s7,2
.LBB113:
.LBB111:
.LBB101:
.LBB102:
	.loc 1 1439 6 discriminator 1
	li	s8,1
.LBE102:
.LBE101:
	.loc 1 1604 3 discriminator 1
	addi	s6,s6,%lo(lwip_stats)
	.loc 1 1539 17 discriminator 1
	lui	s10,%hi(tcp_ticks)
.LBB104:
	.loc 1 1504 35 discriminator 1
	li	s11,33816576
	j	.L230
.L209:
.LBE104:
.LBE111:
.LBE113:
	.loc 1 1356 5 is_stmt 1
	.loc 1 1356 8 is_stmt 0
	lw	a5,20(s0)
	beq	a5,s7,.L212
	.loc 1 1357 7 is_stmt 1
	.loc 1 1357 57 is_stmt 0
	lw	a4,16(s1)
	lbu	a0,13(a4)
	lbu	a5,12(a4)
	slli	a0,a0,8
	or	a5,a0,a5
	.loc 1 1357 80
	li	a0,16
	.loc 1 1357 57
	sw	a5,8(sp)
	.loc 1 1357 80
	call	lwip_htons
.LVL276:
	.loc 1 1357 41
	lw	a5,8(sp)
	.loc 1 1357 11
	lw	a4,16(s1)
	.loc 1 1357 41
	or	a0,a5,a0
	slli	a5,a0,16
	srli	a5,a5,16
	srli	a5,a5,8
	sb	a0,12(a4)
	sb	a5,13(a4)
.L212:
	.loc 1 1360 5 is_stmt 1
.LVL277:
.LBB114:
.LBB112:
	.loc 1 1457 3
	.loc 1 1458 3
	.loc 1 1459 3
	.loc 1 1461 3
	.loc 1 1464 3
	.loc 1 1464 8
	.loc 1 1464 7
	.loc 1 1464 17
	.loc 1 1465 3
	.loc 1 1465 8
	.loc 1 1465 7
	.loc 1 1465 17
	.loc 1 1466 3
	.loc 1 1466 8
	.loc 1 1466 7
	.loc 1 1466 17
	.loc 1 1468 3
.LBB105:
.LBB103:
	.loc 1 1434 3
	.loc 1 1434 8
	.loc 1 1434 7
	.loc 1 1434 17
	.loc 1 1439 3
	.loc 1 1439 13 is_stmt 0
	lw	a5,4(s1)
	.loc 1 1439 6
	lbu	a5,14(a5)
	bne	a5,s8,.L213
.LVL278:
.LBE103:
.LBE105:
	.loc 1 1477 3 is_stmt 1
	.loc 1 1477 6 is_stmt 0
	lw	a5,16(s1)
	.loc 1 1477 24
	lw	a0,40(s0)
	.loc 1 1477 6
	sw	a5,8(sp)
	.loc 1 1477 24
	call	lwip_htonl
.LVL279:
	.loc 1 1477 22
	lw	a5,8(sp)
	srli	a4,a0,8
	sb	a0,8(a5)
	sb	a4,9(a5)
	srli	a4,a0,16
	srli	a0,a0,24
	sb	a4,10(a5)
	sb	a0,11(a5)
	.loc 1 1488 5 is_stmt 1
	.loc 1 1488 8 is_stmt 0
	lw	a5,16(s1)
	.loc 1 1488 24
	lhu	a0,46(s0)
	.loc 1 1488 8
	sw	a5,8(sp)
	.loc 1 1488 24
	call	lwip_htons
.LVL280:
	.loc 1 1488 22
	lw	a5,8(sp)
	sb	a0,14(a5)
	srli	a0,a0,8
	sb	a0,15(a5)
	.loc 1 1491 3 is_stmt 1
	.loc 1 1491 47 is_stmt 0
	lhu	a4,46(s0)
	.loc 1 1491 42
	lw	a5,40(s0)
	add	a5,a5,a4
	.loc 1 1491 27
	sw	a5,48(s0)
	.loc 1 1496 3 is_stmt 1
.LVL281:
	.loc 1 1497 3
	.loc 1 1497 6 is_stmt 0
	lbu	a5,13(s1)
	andi	a5,a5,1
	beq	a5,zero,.L214
	.loc 1 1496 31
	lw	a5,16(s1)
.LBB106:
	.loc 1 1500 11
	mv	a2,s5
	mv	a1,s3
	li	a0,1460
.LBE106:
	.loc 1 1496 31
	sw	a5,8(sp)
.LBB107:
	.loc 1 1498 5 is_stmt 1
	.loc 1 1500 5
	.loc 1 1500 11 is_stmt 0
	call	tcp_eff_send_mss_netif
.LVL282:
	.loc 1 1504 5 is_stmt 1
	.loc 1 1504 13 is_stmt 0
	or	a0,a0,s11
.LVL283:
	call	lwip_htonl
.LVL284:
	.loc 1 1504 11
	lw	a5,8(sp)
	sw	a0,20(a5)
	.loc 1 1505 5 is_stmt 1
.LVL285:
.L214:
.LBE107:
	.loc 1 1534 3
	.loc 1 1534 6 is_stmt 0
	lh	a5,52(s0)
	bge	a5,zero,.L215
	.loc 1 1535 5 is_stmt 1
	.loc 1 1535 16 is_stmt 0
	sh	zero,52(s0)
.L215:
	.loc 1 1538 3 is_stmt 1
	.loc 1 1538 6 is_stmt 0
	lw	a5,56(s0)
	bne	a5,zero,.L216
	.loc 1 1539 5 is_stmt 1
	.loc 1 1539 17 is_stmt 0
	lw	a5,%lo(tcp_ticks)(s10)
	sw	a5,56(s0)
	.loc 1 1540 5 is_stmt 1
	.loc 1 1540 18 is_stmt 0
	lw	a4,16(s1)
	lbu	a0,5(a4)
	lbu	a5,4(a4)
	slli	a0,a0,8
	or	a0,a0,a5
	lbu	a5,6(a4)
	slli	a5,a5,16
	or	a5,a5,a0
	lbu	a0,7(a4)
	slli	a0,a0,24
	or	a0,a0,a5
	call	lwip_htonl
.LVL286:
	.loc 1 1540 16
	sw	a0,60(s0)
.L216:
	.loc 1 1542 5 is_stmt 1
	.loc 1 1546 44
	.loc 1 1548 3
	.loc 1 1548 50 is_stmt 0
	lw	a4,4(s1)
	.loc 1 1548 37
	lw	a5,16(s1)
	lw	a3,4(a4)
	sub	a5,a5,a3
	.loc 1 1554 15
	lhu	a3,10(a4)
	.loc 1 1548 7
	slli	a5,a5,16
	srli	a5,a5,16
.LVL287:
	.loc 1 1549 3 is_stmt 1
	.loc 1 1551 5
	.loc 1 1554 3
	.loc 1 1554 15 is_stmt 0
	sub	a3,a3,a5
	sh	a3,10(a4)
	.loc 1 1555 3 is_stmt 1
	.loc 1 1555 6 is_stmt 0
	lw	a3,4(s1)
	.loc 1 1555 19
	lhu	a4,8(a3)
	sub	a5,a4,a5
.LVL288:
	sh	a5,8(a3)
	.loc 1 1557 3 is_stmt 1
	.loc 1 1557 24 is_stmt 0
	lw	a5,16(s1)
	.loc 1 1557 6
	lw	a4,4(s1)
	.loc 1 1557 19
	sw	a5,4(a4)
	.loc 1 1559 3 is_stmt 1
	.loc 1 1559 23 is_stmt 0
	sb	zero,16(a5)
	sb	zero,17(a5)
	.loc 1 1564 3 is_stmt 1
	.loc 1 1564 8
	.loc 1 1564 218
	.loc 1 1564 228
.LBB108:
	.loc 1 1569 5
	.loc 1 1574 5
	.loc 1 1574 8 is_stmt 0
	lbu	a5,13(s1)
	andi	a5,a5,4
	bne	a5,zero,.L217
	.loc 1 1575 7 is_stmt 1
	.loc 1 1575 12
	.loc 1 1575 54 is_stmt 0
	lw	a5,16(s1)
	lbu	a0,12(a5)
	lbu	a5,13(a5)
	slli	a5,a5,8
	or	a0,a5,a0
	call	lwip_htons
.LVL289:
.L217:
	.loc 1 1575 119 is_stmt 1
	.loc 1 1575 129
	.loc 1 1580 5
	.loc 1 1580 11 is_stmt 0
	lw	a6,4(s1)
	.loc 1 1581 70
	lw	a5,16(s1)
	.loc 1 1580 11
	lhu	a2,8(a6)
	sw	a6,12(sp)
	sw	a2,8(sp)
	.loc 1 1581 70
	lbu	a0,12(a5)
	lbu	a5,13(a5)
	slli	a5,a5,8
	or	a0,a5,a0
	call	lwip_htons
.LVL290:
	.loc 1 1580 11
	lw	a6,12(sp)
	lw	a2,8(sp)
	.loc 1 1581 54
	srli	a3,a0,10
	.loc 1 1580 11
	mv	a5,s5
	mv	a4,s0
	andi	a3,a3,252
	li	a1,6
	mv	a0,a6
	call	ip_chksum_pseudo_partial
.LVL291:
	.loc 1 1583 5 is_stmt 1
	.loc 1 1583 8 is_stmt 0
	lbu	a5,12(s1)
.LBE108:
	.loc 1 1461 7
	li	a7,0
.LBB109:
	.loc 1 1583 8
	beq	a5,zero,.L218
	.loc 1 1584 7 is_stmt 1
.LVL292:
	.loc 1 1585 7
	.loc 1 1585 19 is_stmt 0
	lhu	a5,10(s1)
	.loc 1 1586 27
	sb	zero,12(s1)
	.loc 1 1584 30
	li	a7,1
	.loc 1 1585 19
	slli	a4,a5,8
	slli	a5,a5,16
	srli	a5,a5,16
	srli	a5,a5,8
	or	a5,a4,a5
	sh	a5,10(s1)
	.loc 1 1586 7 is_stmt 1
.LVL293:
.L218:
	.loc 1 1588 28 is_stmt 0
	lhu	a4,10(s1)
	.loc 1 1588 11
	not	a5,a0
	slli	a5,a5,16
	srli	a5,a5,16
	.loc 1 1588 23
	add	a5,a5,a4
	.loc 1 1589 51
	srli	a4,a5,16
	.loc 1 1589 36
	add	a5,a4,a5
	.loc 1 1589 8
	lw	a3,16(s1)
	.loc 1 1589 27
	not	a5,a5
	.loc 1 1589 25
	slli	a4,a5,16
	srli	a4,a4,16
	sb	a5,16(a3)
	srli	a5,a4,8
	sb	a5,17(a3)
.LBE109:
	.loc 1 1604 3
	lhu	a5,148(s6)
	.loc 1 1607 9
	mv	a6,s3
	mv	a2,s5
	.loc 1 1604 3
	addi	a5,a5,1
	sh	a5,148(s6)
	.loc 1 1607 9
	lbu	a4,10(s0)
	lbu	a3,11(s0)
	lw	a0,4(s1)
.LVL294:
	li	a5,6
	mv	a1,s0
	sw	a7,8(sp)
.LVL295:
.LBB110:
	.loc 1 1588 5 is_stmt 1
	.loc 1 1589 5
.LBE110:
	.loc 1 1604 3
	.loc 1 1606 3
	.loc 1 1607 3
	.loc 1 1607 9 is_stmt 0
	call	ip4_output_if
.LVL296:
	.loc 1 1609 3 is_stmt 1
	.loc 1 1612 3
	.loc 1 1612 6 is_stmt 0
	lw	a7,8(sp)
	beq	a7,zero,.L219
	.loc 1 1615 5 is_stmt 1
	.loc 1 1615 17 is_stmt 0
	lhu	a5,10(s1)
	.loc 1 1616 25
	sb	s8,12(s1)
	.loc 1 1615 17
	slli	a4,a5,8
	slli	a5,a5,16
	srli	a5,a5,16
	srli	a5,a5,8
	or	a5,a4,a5
	sh	a5,10(s1)
	.loc 1 1616 5 is_stmt 1
.L219:
.LVL297:
.LBE112:
.LBE114:
	.loc 1 1361 5
	.loc 1 1361 8 is_stmt 0
	beq	a0,zero,.L213
	.loc 1 1363 7 is_stmt 1
	.loc 1 1363 12
	.loc 1 1363 27 is_stmt 0
	lhu	a5,30(s0)
	ori	a5,a5,128
	.loc 1 1363 25
	sh	a5,30(s0)
	.loc 1 1363 72 is_stmt 1
	.loc 1 1364 7
.LVL298:
.L196:
	.loc 1 1420 1 is_stmt 0
	lw	ra,76(sp)
	.cfi_remember_state
	.cfi_restore 1
	lw	s0,72(sp)
	.cfi_restore 8
.LVL299:
	lw	s1,68(sp)
	.cfi_restore 9
.LVL300:
	lw	s2,64(sp)
	.cfi_restore 18
	lw	s3,60(sp)
	.cfi_restore 19
	lw	s4,56(sp)
	.cfi_restore 20
	lw	s5,52(sp)
	.cfi_restore 21
	lw	s6,48(sp)
	.cfi_restore 22
	lw	s7,44(sp)
	.cfi_restore 23
	lw	s8,40(sp)
	.cfi_restore 24
	lw	s9,36(sp)
	.cfi_restore 25
	lw	s10,32(sp)
	.cfi_restore 26
	lw	s11,28(sp)
	.cfi_restore 27
	addi	sp,sp,80
	.cfi_def_cfa_offset 0
	jr	ra
.LVL301:
.L213:
	.cfi_restore_state
	.loc 1 1369 5 is_stmt 1
	.loc 1 1369 22 is_stmt 0
	lw	a5,0(s1)
	.loc 1 1369 17
	sw	a5,112(s0)
	.loc 1 1370 5 is_stmt 1
	.loc 1 1370 8 is_stmt 0
	lw	a5,20(s0)
	beq	a5,s7,.L220
	.loc 1 1371 7 is_stmt 1
	.loc 1 1371 12
	.loc 1 1371 27 is_stmt 0
	lhu	a5,30(s0)
	andi	a5,a5,-4
	.loc 1 1371 25
	sh	a5,30(s0)
.L220:
	.loc 1 1371 105 is_stmt 1 discriminator 1
	.loc 1 1373 5 discriminator 1
	.loc 1 1373 15 is_stmt 0 discriminator 1
	lw	a4,16(s1)
	lbu	a0,5(a4)
	lbu	a5,4(a4)
	slli	a0,a0,8
	or	a0,a0,a5
	lbu	a5,6(a4)
	slli	a5,a5,16
	or	a5,a5,a0
	lbu	a0,7(a4)
	slli	a0,a0,24
	or	a0,a0,a5
	call	lwip_htonl
.LVL302:
	.loc 1 1373 54 discriminator 1
	lhu	a3,8(s1)
	.loc 1 1373 74 discriminator 1
	lw	a5,16(s1)
	.loc 1 1373 15 discriminator 1
	sw	a0,12(sp)
	.loc 1 1373 54 discriminator 1
	sw	a3,8(sp)
	.loc 1 1373 74 discriminator 1
	lbu	a0,12(a5)
	lbu	a5,13(a5)
	slli	a5,a5,8
	or	a0,a5,a0
	call	lwip_htons
.LVL303:
	.loc 1 1373 13 discriminator 1
	lw	a3,8(sp)
	lw	a4,12(sp)
	.loc 1 1373 163 discriminator 1
	andi	a5,a0,3
	snez	a5,a5
	.loc 1 1373 13 discriminator 1
	add	a0,a4,a3
	add	a0,a5,a0
.LVL304:
	.loc 1 1374 5 is_stmt 1 discriminator 1
	.loc 1 1374 40 is_stmt 0 discriminator 1
	lw	a5,84(s0)
	sub	a5,a5,a0
	.loc 1 1374 8 discriminator 1
	bge	a5,zero,.L221
	.loc 1 1375 7 is_stmt 1
	.loc 1 1375 20 is_stmt 0
	sw	a0,84(s0)
.L221:
	.loc 1 1378 5 is_stmt 1
	.loc 1 1378 15 is_stmt 0
	lhu	a4,8(s1)
	.loc 1 1378 35
	lw	a5,16(s1)
	.loc 1 1378 15
	sw	a4,8(sp)
	.loc 1 1378 35
	lbu	a0,12(a5)
.LVL305:
	lbu	a5,13(a5)
	slli	a5,a5,8
	or	a0,a5,a0
	call	lwip_htons
.LVL306:
	.loc 1 1378 21
	lw	a4,8(sp)
	.loc 1 1378 124
	andi	a0,a0,3
	snez	a0,a0
	.loc 1 1378 21
	add	a0,a0,a4
	.loc 1 1378 8
	beq	a0,zero,.L222
	.loc 1 1379 7 is_stmt 1
	.loc 1 1379 17 is_stmt 0
	sw	zero,0(s1)
	.loc 1 1381 7 is_stmt 1
	.loc 1 1381 10 is_stmt 0
	lw	a5,116(s0)
	bne	a5,zero,.L223
	.loc 1 1382 9 is_stmt 1
	.loc 1 1382 22 is_stmt 0
	sw	s1,116(s0)
	.loc 1 1383 9 is_stmt 1
.LVL307:
.L271:
	.loc 1 1401 11
	.loc 1 1400 22 is_stmt 0
	mv	s2,s1
	j	.L224
.LVL308:
.L223:
	.loc 1 1389 9 is_stmt 1
	.loc 1 1389 30 is_stmt 0
	lw	a4,16(s1)
	lbu	a0,5(a4)
	lbu	a5,4(a4)
	slli	a0,a0,8
	or	a0,a0,a5
	lbu	a5,6(a4)
	slli	a5,a5,16
	or	a5,a5,a0
	lbu	a0,7(a4)
	slli	a0,a0,24
	or	a0,a0,a5
	call	lwip_htonl
.LVL309:
	.loc 1 1389 72
	lw	a3,16(s2)
	.loc 1 1389 30
	sw	a0,8(sp)
	.loc 1 1389 72
	lbu	a0,5(a3)
	lbu	a4,4(a3)
	slli	a0,a0,8
	or	a0,a0,a4
	lbu	a4,6(a3)
	slli	a4,a4,16
	or	a4,a4,a0
	lbu	a0,7(a3)
	slli	a0,a0,24
	or	a0,a0,a4
	call	lwip_htonl
.LVL310:
	.loc 1 1389 62
	lw	a5,8(sp)
	sub	a5,a5,a0
	.loc 1 1389 12
	bge	a5,zero,.L225
.LBB115:
	.loc 1 1391 11 is_stmt 1
	.loc 1 1391 28 is_stmt 0
	addi	a5,s0,116
.LVL311:
	.loc 1 1392 11 is_stmt 1
.L226:
	.loc 1 1392 17
	.loc 1 1392 18 is_stmt 0
	lw	a4,0(a5)
	.loc 1 1392 17
	bne	a4,zero,.L227
.LVL312:
.L229:
	.loc 1 1396 11 is_stmt 1
	.loc 1 1396 24 is_stmt 0
	lw	a4,0(a5)
	.loc 1 1396 21
	sw	a4,0(s1)
	.loc 1 1397 11 is_stmt 1
	.loc 1 1397 22 is_stmt 0
	sw	s1,0(a5)
.L224:
.LBE115:
	.loc 1 1408 5 is_stmt 1
	.loc 1 1408 9 is_stmt 0
	lw	s1,112(s0)
.LVL313:
	.loc 1 1332 9 is_stmt 1
	beq	s1,zero,.L211
.L230:
	.loc 1 1333 10 is_stmt 0 discriminator 1
	lw	a4,16(s1)
	lbu	a0,5(a4)
	lbu	a5,4(a4)
	slli	a0,a0,8
	or	a0,a0,a5
	lbu	a5,6(a4)
	slli	a5,a5,16
	or	a5,a5,a0
	lbu	a0,7(a4)
	slli	a0,a0,24
	or	a0,a0,a5
	call	lwip_htonl
.LVL314:
	.loc 1 1333 41 discriminator 1
	lw	a5,72(s0)
	sub	a0,a0,a5
	.loc 1 1333 61 discriminator 1
	lhu	a5,8(s1)
	.loc 1 1333 56 discriminator 1
	add	a0,a0,a5
	.loc 1 1332 21 discriminator 1
	bgtu	a0,s4,.L232
	.loc 1 1334 5 is_stmt 1
	.loc 1 1334 10
	.loc 1 1334 26 is_stmt 0
	lw	a5,16(s1)
	lbu	a0,12(a5)
	lbu	a5,13(a5)
	slli	a5,a5,8
	or	a0,a5,a0
	call	lwip_htons
.LVL315:
	.loc 1 1334 101 is_stmt 1
	.loc 1 1334 111
	.loc 1 1343 5
	.loc 1 1343 178 is_stmt 0
	lw	a5,116(s0)
	beq	a5,zero,.L209
	.loc 1 1343 20 discriminator 2
	lhu	a5,30(s0)
	.loc 1 1343 11 discriminator 2
	andi	a4,a5,68
	bne	a4,zero,.L209
	.loc 1 1343 57 discriminator 4
	lw	a4,112(s0)
	.loc 1 1343 47 discriminator 4
	beq	a4,zero,.L210
	.loc 1 1343 11 discriminator 5
	lw	a3,0(a4)
	bne	a3,zero,.L209
	.loc 1 1343 11 discriminator 8
	lhu	a3,8(a4)
	lhu	a4,54(s0)
	bgeu	a3,a4,.L209
.L210:
	.loc 1 1343 178 discriminator 10
	lhu	a4,104(s0)
	beq	a4,zero,.L209
	.loc 1 1343 81 discriminator 12
	lhu	a4,106(s0)
	bgtu	a4,s9,.L209
	.loc 1 1343 189
	andi	a5,a5,160
	bne	a5,zero,.L209
.L232:
	.loc 1 1411 3 is_stmt 1
	.loc 1 1411 6 is_stmt 0
	lw	a5,112(s0)
	bne	a5,zero,.L199
.L211:
	.loc 1 1413 5 is_stmt 1
	.loc 1 1413 26 is_stmt 0
	sh	zero,108(s0)
.LVL316:
.L199:
	.loc 1 1418 3 is_stmt 1
	.loc 1 1418 8
	.loc 1 1418 23 is_stmt 0
	lhu	a5,30(s0)
	.loc 1 1419 10
	li	a0,0
	.loc 1 1418 23
	andi	a5,a5,-129
	.loc 1 1418 21
	sh	a5,30(s0)
	.loc 1 1418 93 is_stmt 1
	.loc 1 1419 3
	.loc 1 1419 10 is_stmt 0
	j	.L196
.LVL317:
.L227:
.LBB116:
	.loc 1 1393 35 discriminator 1
	lw	a3,16(a4)
	sw	a5,12(sp)
	lbu	a0,5(a3)
	lbu	a4,4(a3)
	slli	a0,a0,8
	or	a0,a0,a4
	lbu	a4,6(a3)
	slli	a4,a4,16
	or	a4,a4,a0
	lbu	a0,7(a3)
	slli	a0,a0,24
	or	a0,a0,a4
	call	lwip_htonl
.LVL318:
	.loc 1 1393 84 discriminator 1
	lw	a2,16(s1)
	.loc 1 1393 35 discriminator 1
	sw	a0,8(sp)
	.loc 1 1393 84 discriminator 1
	lbu	a0,5(a2)
	lbu	a3,4(a2)
	slli	a0,a0,8
	or	a0,a0,a3
	lbu	a3,6(a2)
	slli	a3,a3,16
	or	a3,a3,a0
	lbu	a0,7(a2)
	slli	a0,a0,24
	or	a0,a0,a3
	call	lwip_htonl
.LVL319:
	.loc 1 1393 74 discriminator 1
	lw	a4,8(sp)
	.loc 1 1392 27 discriminator 1
	lw	a5,12(sp)
	.loc 1 1393 74 discriminator 1
	sub	a4,a4,a0
	.loc 1 1392 27 discriminator 1
	bge	a4,zero,.L229
	.loc 1 1394 13 is_stmt 1
	.loc 1 1394 26 is_stmt 0
	lw	a5,0(a5)
.LVL320:
	j	.L226
.LVL321:
.L225:
.LBE116:
	.loc 1 1400 11 is_stmt 1
	.loc 1 1400 22 is_stmt 0
	sw	s1,0(s2)
	j	.L271
.L222:
	.loc 1 1406 7 is_stmt 1
	mv	a0,s1
	call	tcp_seg_free
.LVL322:
	j	.L224
.LVL323:
.L233:
	.cfi_def_cfa_offset 0
	.cfi_restore 1
	.cfi_restore 8
	.cfi_restore 9
	.cfi_restore 18
	.cfi_restore 19
	.cfi_restore 20
	.cfi_restore 21
	.cfi_restore 22
	.cfi_restore 23
	.cfi_restore 24
	.cfi_restore 25
	.cfi_restore 26
	.cfi_restore 27
	.loc 1 1259 12 is_stmt 0
	li	a0,0
.LVL324:
	.loc 1 1420 1
	ret
.LVL325:
.L234:
	.cfi_def_cfa_offset 80
	.cfi_offset 1, -4
	.cfi_offset 8, -8
	.cfi_offset 9, -12
	.cfi_offset 18, -16
	.cfi_offset 19, -20
	.cfi_offset 20, -24
	.cfi_offset 21, -28
	.cfi_offset 22, -32
	.cfi_offset 23, -36
	.cfi_offset 24, -40
	.cfi_offset 25, -44
	.cfi_offset 26, -48
	.cfi_offset 27, -52
	.loc 1 1292 12
	li	a0,-4
.LVL326:
	j	.L196
	.cfi_endproc
.LFE14:
	.size	tcp_output, .-tcp_output
	.section	.text.tcp_rexmit_rto_commit,"ax",@progbits
	.align	1
	.globl	tcp_rexmit_rto_commit
	.type	tcp_rexmit_rto_commit, @function
tcp_rexmit_rto_commit:
.LFB18:
	.loc 1 1687 1 is_stmt 1
	.cfi_startproc
.LVL327:
	.loc 1 1688 3
	.loc 1 1688 8
	.loc 1 1688 7
	.loc 1 1688 17
	.loc 1 1691 3
	.loc 1 1691 10 is_stmt 0
	lbu	a5,70(a0)
	.loc 1 1691 6
	li	a4,255
	beq	a5,a4,.L274
	.loc 1 1692 5 is_stmt 1
	addi	a5,a5,1
	sb	a5,70(a0)
.L274:
	.loc 1 1695 3
	tail	tcp_output
.LVL328:
	.cfi_endproc
.LFE18:
	.size	tcp_rexmit_rto_commit, .-tcp_rexmit_rto_commit
	.section	.text.tcp_rexmit_rto,"ax",@progbits
	.align	1
	.globl	tcp_rexmit_rto
	.type	tcp_rexmit_rto, @function
tcp_rexmit_rto:
.LFB19:
	.loc 1 1708 1
	.cfi_startproc
.LVL329:
	.loc 1 1709 3
	.loc 1 1709 8
	.loc 1 1709 7
	.loc 1 1709 17
	.loc 1 1711 3
	.loc 1 1708 1 is_stmt 0
	addi	sp,sp,-16
	.cfi_def_cfa_offset 16
	sw	s0,8(sp)
	sw	ra,12(sp)
	.cfi_offset 8, -8
	.cfi_offset 1, -4
	.loc 1 1708 1
	mv	s0,a0
	.loc 1 1711 7
	call	tcp_rexmit_rto_prepare
.LVL330:
	.loc 1 1711 6
	bne	a0,zero,.L275
	.loc 1 1712 5 is_stmt 1
	mv	a0,s0
	.loc 1 1714 1 is_stmt 0
	lw	s0,8(sp)
	.cfi_remember_state
	.cfi_restore 8
.LVL331:
	lw	ra,12(sp)
	.cfi_restore 1
	addi	sp,sp,16
	.cfi_def_cfa_offset 0
	.loc 1 1712 5
	tail	tcp_rexmit_rto_commit
.LVL332:
.L275:
	.cfi_restore_state
	.loc 1 1714 1
	lw	ra,12(sp)
	.cfi_restore 1
	lw	s0,8(sp)
	.cfi_restore 8
.LVL333:
	addi	sp,sp,16
	.cfi_def_cfa_offset 0
	jr	ra
	.cfi_endproc
.LFE19:
	.size	tcp_rexmit_rto, .-tcp_rexmit_rto
	.section	.text.tcp_keepalive,"ax",@progbits
	.align	1
	.globl	tcp_keepalive
	.type	tcp_keepalive, @function
tcp_keepalive:
.LFB28:
	.loc 1 2079 1 is_stmt 1
	.cfi_startproc
.LVL334:
	.loc 1 2080 3
	.loc 1 2081 3
	.loc 1 2082 3
	.loc 1 2084 3
	.loc 1 2084 8
	.loc 1 2084 7
	.loc 1 2084 17
	.loc 1 2086 3
	.loc 1 2087 3
	.loc 1 2088 3
	.loc 1 2091 75
	.loc 1 2093 3
	.loc 1 2079 1 is_stmt 0
	addi	sp,sp,-16
	.cfi_def_cfa_offset 16
	sw	s0,8(sp)
	sw	ra,12(sp)
	.cfi_offset 8, -8
	.cfi_offset 1, -4
	.loc 1 2079 1
	mv	s0,a0
	.loc 1 2093 7
	lw	a0,84(a0)
.LVL335:
	addi	a0,a0,-1
	call	lwip_htonl
.LVL336:
	mv	a2,a0
	li	a1,0
	mv	a0,s0
	call	tcp_output_alloc_header.constprop.0
.LVL337:
	.loc 1 2094 3 is_stmt 1
	.loc 1 2094 6 is_stmt 0
	beq	a0,zero,.L279
	mv	a1,a0
	.loc 1 2099 3 is_stmt 1
.LVL338:
	.loc 1 1874 3
	.loc 1 1875 3
	.loc 1 1876 3
	.loc 1 1878 3
	.loc 1 1878 8
	.loc 1 1878 7
	.loc 1 1878 17
	.loc 1 1880 3
	.loc 1 1881 3
	.loc 1 1900 3
	.loc 1 1907 3
	.loc 1 1908 3
	.loc 1 1909 3
	.loc 1 1909 8
	.loc 1 1909 221
	.loc 1 1909 231
	.loc 1 1910 3
	.loc 1 1911 3
	.loc 1 2100 3
	.loc 1 2100 9 is_stmt 0
	addi	a3,s0,4
	mv	a2,s0
	mv	a0,s0
.LVL339:
	.loc 1 2105 1
	lw	s0,8(sp)
	.cfi_remember_state
	.cfi_restore 8
.LVL340:
	lw	ra,12(sp)
	.cfi_restore 1
	addi	sp,sp,16
	.cfi_def_cfa_offset 0
	.loc 1 2100 9
	tail	tcp_output_control_segment
.LVL341:
.L279:
	.cfi_restore_state
	.loc 1 2105 1
	lw	ra,12(sp)
	.cfi_restore 1
	lw	s0,8(sp)
	.cfi_restore 8
.LVL342:
	li	a0,-1
.LVL343:
	addi	sp,sp,16
	.cfi_def_cfa_offset 0
	jr	ra
	.cfi_endproc
.LFE28:
	.size	tcp_keepalive, .-tcp_keepalive
	.section	.text.tcp_zero_window_probe,"ax",@progbits
	.align	1
	.globl	tcp_zero_window_probe
	.type	tcp_zero_window_probe, @function
tcp_zero_window_probe:
.LFB29:
	.loc 1 2117 1 is_stmt 1
	.cfi_startproc
.LVL344:
	.loc 1 2118 3
	.loc 1 2119 3
	.loc 1 2120 3
	.loc 1 2121 3
	.loc 1 2122 3
	.loc 1 2123 3
	.loc 1 2124 3
	.loc 1 2125 3
	.loc 1 2127 3
	.loc 1 2127 8
	.loc 1 2127 7
	.loc 1 2127 17
	.loc 1 2129 3
	.loc 1 2130 3
	.loc 1 2131 3
	.loc 1 2136 64
	.loc 1 2139 3
	.loc 1 2117 1 is_stmt 0
	addi	sp,sp,-32
	.cfi_def_cfa_offset 32
	sw	ra,28(sp)
	sw	s0,24(sp)
	sw	s1,20(sp)
	sw	s2,16(sp)
	sw	s3,12(sp)
	sw	s4,8(sp)
	.cfi_offset 1, -4
	.cfi_offset 8, -8
	.cfi_offset 9, -12
	.cfi_offset 18, -16
	.cfi_offset 19, -20
	.cfi_offset 20, -24
	.loc 1 2139 7
	lw	s2,112(a0)
.LVL345:
	.loc 1 2140 3 is_stmt 1
	.loc 1 2140 6 is_stmt 0
	beq	s2,zero,.L288
	.loc 1 2149 10
	lbu	a5,166(a0)
	.loc 1 2149 6
	li	a4,255
	mv	s1,a0
	.loc 1 2149 3 is_stmt 1
	.loc 1 2149 6 is_stmt 0
	beq	a5,a4,.L283
	.loc 1 2150 5 is_stmt 1
	addi	a5,a5,1
	sb	a5,166(a0)
.L283:
	.loc 1 2153 3
	.loc 1 2153 23 is_stmt 0
	lw	a5,16(s2)
	.loc 1 2153 95
	li	s0,0
	.loc 1 2153 23
	lbu	a0,12(a5)
.LVL346:
	lbu	a5,13(a5)
	slli	a5,a5,8
	or	a0,a5,a0
	call	lwip_htons
.LVL347:
	.loc 1 2153 95
	andi	a0,a0,1
	beq	a0,zero,.L284
	.loc 1 2153 95 discriminator 1
	lhu	s0,8(s2)
	seqz	s0,s0
.L284:
.LVL348:
	.loc 1 2155 3 is_stmt 1 discriminator 6
	.loc 1 2157 3 discriminator 6
	.loc 1 2157 7 is_stmt 0 discriminator 6
	lw	a4,16(s2)
	xori	a1,s0,1
	mv	a0,s1
	lbu	a2,5(a4)
	lbu	a5,4(a4)
	slli	a2,a2,8
	or	a2,a2,a5
	lbu	a5,6(a4)
	slli	a5,a5,16
	or	a5,a5,a2
	lbu	a2,7(a4)
	slli	a2,a2,24
	or	a2,a2,a5
	call	tcp_output_alloc_header.constprop.0
.LVL349:
	mv	s3,a0
.LVL350:
	.loc 1 2158 3 is_stmt 1 discriminator 6
	.loc 1 2158 6 is_stmt 0 discriminator 6
	beq	a0,zero,.L290
	.loc 1 2162 3 is_stmt 1
	.loc 1 2162 10 is_stmt 0
	lw	s4,4(a0)
.LVL351:
	.loc 1 2164 3 is_stmt 1
	.loc 1 2164 6 is_stmt 0
	beq	s0,zero,.L285
	.loc 1 2166 5 is_stmt 1
	.loc 1 2166 46 is_stmt 0
	lbu	a5,13(s4)
	lbu	s0,12(s4)
.LVL352:
	.loc 1 2166 155
	li	a0,17
.LVL353:
	.loc 1 2166 46
	slli	a5,a5,8
	or	a5,a5,s0
	.loc 1 2166 67
	li	s0,-16384
	addi	s0,s0,255
	and	a5,a5,s0
	slli	s0,a5,16
	srai	s0,s0,16
	.loc 1 2166 155
	call	lwip_htons
.LVL354:
	.loc 1 2166 153
	or	a5,s0,a0
	.loc 1 2166 34
	slli	a4,a5,16
	srli	a4,a4,16
	sb	a5,12(s4)
	srli	a5,a4,8
	sb	a5,13(s4)
.L286:
	.loc 1 2177 3 is_stmt 1
	.loc 1 2177 13 is_stmt 0
	lw	a4,16(s2)
	lbu	a0,5(a4)
	lbu	a5,4(a4)
	slli	a0,a0,8
	or	a0,a0,a5
	lbu	a5,6(a4)
	slli	a5,a5,16
	or	a5,a5,a0
	lbu	a0,7(a4)
	slli	a0,a0,24
	or	a0,a0,a5
	call	lwip_htonl
.LVL355:
	.loc 1 2178 38
	lw	a5,84(s1)
	.loc 1 2177 11
	addi	a0,a0,1
.LVL356:
	.loc 1 2178 3 is_stmt 1
	.loc 1 2178 38 is_stmt 0
	sub	a5,a5,a0
	.loc 1 2178 6
	bge	a5,zero,.L287
	.loc 1 2179 5 is_stmt 1
	.loc 1 2179 18 is_stmt 0
	sw	a0,84(s1)
.L287:
	.loc 1 2181 3 is_stmt 1
.LVL357:
	.loc 1 1874 3
	.loc 1 1875 3
	.loc 1 1876 3
	.loc 1 1878 3
	.loc 1 1878 8
	.loc 1 1878 7
	.loc 1 1878 17
	.loc 1 1880 3
	.loc 1 1881 3
	.loc 1 1900 3
	.loc 1 1907 3
	.loc 1 1908 3
	.loc 1 1909 3
	.loc 1 1909 8
	.loc 1 1909 221
	.loc 1 1909 231
	.loc 1 1910 3
	.loc 1 1911 3
	.loc 1 2183 3
	.loc 1 2189 1 is_stmt 0
	lw	s0,24(sp)
	.cfi_remember_state
	.cfi_restore 8
	lw	ra,28(sp)
	.cfi_restore 1
	lw	s2,16(sp)
	.cfi_restore 18
.LVL358:
	lw	s4,8(sp)
	.cfi_restore 20
.LVL359:
	.loc 1 2183 9
	addi	a3,s1,4
	mv	a2,s1
	mv	a1,s3
	mv	a0,s1
.LVL360:
	.loc 1 2189 1
	lw	s3,12(sp)
	.cfi_restore 19
.LVL361:
	lw	s1,20(sp)
	.cfi_restore 9
.LVL362:
	addi	sp,sp,32
	.cfi_def_cfa_offset 0
	.loc 1 2183 9
	tail	tcp_output_control_segment
.LVL363:
.L285:
	.cfi_restore_state
.LBB117:
	.loc 1 2169 5 is_stmt 1
	.loc 1 2173 5
	.loc 1 2173 26 is_stmt 0
	lw	a0,4(s2)
.LVL364:
	.loc 1 2173 5
	lhu	a5,8(s2)
	li	a2,1
	lhu	a3,8(a0)
	addi	a1,s4,20
.LVL365:
	sub	a3,a3,a5
	slli	a3,a3,16
	srli	a3,a3,16
	call	pbuf_copy_partial
.LVL366:
	j	.L286
.LVL367:
.L288:
.LBE117:
	.loc 1 2142 12
	li	a0,0
.LVL368:
.L282:
	.loc 1 2189 1
	lw	ra,28(sp)
	.cfi_remember_state
	.cfi_restore 1
	lw	s0,24(sp)
	.cfi_restore 8
	lw	s1,20(sp)
	.cfi_restore 9
	lw	s2,16(sp)
	.cfi_restore 18
.LVL369:
	lw	s3,12(sp)
	.cfi_restore 19
	lw	s4,8(sp)
	.cfi_restore 20
	addi	sp,sp,32
	.cfi_def_cfa_offset 0
	jr	ra
.LVL370:
.L290:
	.cfi_restore_state
	.loc 1 2160 12
	li	a0,-1
.LVL371:
	j	.L282
	.cfi_endproc
.LFE29:
	.size	tcp_zero_window_probe, .-tcp_zero_window_probe
	.text
.Letext0:
	.file 2 "/mnt/d/GitHub/bl_iot_sdk_for_aithinker/toolchain/riscv/Linux/riscv64-unknown-elf/include/machine/_default_types.h"
	.file 3 "/mnt/d/GitHub/bl_iot_sdk_for_aithinker/toolchain/riscv/Linux/riscv64-unknown-elf/include/sys/_stdint.h"
	.file 4 "/mnt/d/GitHub/bl_iot_sdk_for_aithinker/components/network/lwip/src/include/lwip/arch.h"
	.file 5 "/mnt/d/GitHub/bl_iot_sdk_for_aithinker/components/network/lwip/src/include/lwip/tcpbase.h"
	.file 6 "/mnt/d/GitHub/bl_iot_sdk_for_aithinker/components/network/lwip/src/include/lwip/mem.h"
	.file 7 "/mnt/d/GitHub/bl_iot_sdk_for_aithinker/components/network/lwip/src/include/lwip/err.h"
	.file 8 "/mnt/d/GitHub/bl_iot_sdk_for_aithinker/components/network/lwip/src/include/lwip/pbuf.h"
	.file 9 "/mnt/d/GitHub/bl_iot_sdk_for_aithinker/components/network/lwip/src/include/lwip/ip4_addr.h"
	.file 10 "/mnt/d/GitHub/bl_iot_sdk_for_aithinker/components/network/lwip/src/include/lwip/ip_addr.h"
	.file 11 "/mnt/d/GitHub/bl_iot_sdk_for_aithinker/components/network/lwip/src/include/lwip/memp.h"
	.file 12 "/mnt/d/GitHub/bl_iot_sdk_for_aithinker/components/network/lwip/src/include/lwip/stats.h"
	.file 13 "/mnt/d/GitHub/bl_iot_sdk_for_aithinker/components/network/lwip/src/include/lwip/netif.h"
	.file 14 "/mnt/d/GitHub/bl_iot_sdk_for_aithinker/components/network/lwip/src/include/lwip/tcp.h"
	.file 15 "/mnt/d/GitHub/bl_iot_sdk_for_aithinker/components/network/lwip/src/include/lwip/priv/tcp_priv.h"
	.file 16 "/mnt/d/GitHub/bl_iot_sdk_for_aithinker/components/network/lwip/src/include/lwip/prot/tcp.h"
	.file 17 "/mnt/d/GitHub/bl_iot_sdk_for_aithinker/components/network/lwip/src/include/lwip/def.h"
	.file 18 "/mnt/d/GitHub/bl_iot_sdk_for_aithinker/components/network/lwip/src/include/lwip/inet_chksum.h"
	.file 19 "/mnt/d/GitHub/bl_iot_sdk_for_aithinker/components/network/lwip/src/include/lwip/ip4.h"