	.file	"icmp.c"
	.option nopic
	.attribute arch, "rv32i2p0_m2p0_f2p0_c2p0"
	.attribute unaligned_access, 0
	.attribute stack_align, 16
	.text
.Ltext0:
	.cfi_sections	.debug_frame
	.section	.text.icmp_input,"ax",@progbits
	.align	1
	.globl	icmp_input
	.type	icmp_input, @function
icmp_input:
.LFB5:
	.file 1 "/mnt/d/GitHub/bl_iot_sdk_for_aithinker/components/network/lwip/src/core/ipv4/icmp.c"
	.loc 1 81 1
	.cfi_startproc
.LVL0:
	.loc 1 82 3
	.loc 1 86 3
	.loc 1 87 3
	.loc 1 88 3
	.loc 1 89 3
	.loc 1 91 3
	.loc 1 81 1 is_stmt 0
	addi	sp,sp,-64
	.cfi_def_cfa_offset 64
	sw	s2,48(sp)
	.cfi_offset 18, -16
	.loc 1 91 3
	lui	s2,%hi(lwip_stats)
	.loc 1 81 1
	sw	s0,56(sp)
	sw	s4,40(sp)
	sw	s6,32(sp)
	sw	ra,60(sp)
	sw	s1,52(sp)
	sw	s3,44(sp)
	sw	s5,36(sp)
	sw	s7,28(sp)
	.cfi_offset 8, -8
	.cfi_offset 20, -24
	.cfi_offset 22, -32
	.cfi_offset 1, -4
	.cfi_offset 9, -12
	.cfi_offset 19, -20
	.cfi_offset 21, -28
	.cfi_offset 23, -36
	.loc 1 91 3
	addi	s4,s2,%lo(lwip_stats)
	lhu	a5,74(s4)
	.loc 1 94 12
	lui	s6,%hi(ip_data)
	.loc 1 96 6
	li	a4,19
	.loc 1 91 3
	addi	a5,a5,1
	sh	a5,74(s4)
	.loc 1 92 3 is_stmt 1
	.loc 1 94 3
	.loc 1 94 12 is_stmt 0
	addi	a5,s6,%lo(ip_data)
	lw	s7,8(a5)
.LVL1:
	.loc 1 95 3 is_stmt 1
	.loc 1 81 1 is_stmt 0
	mv	s0,a0
	addi	s2,s2,%lo(lwip_stats)
	.loc 1 95 11
	lbu	s1,0(s7)
	andi	s1,s1,15
	slli	s1,s1,2
.LVL2:
	.loc 1 96 3 is_stmt 1
	.loc 1 96 6 is_stmt 0
	bleu	s1,a4,.L2
	.loc 1 100 3 is_stmt 1
	.loc 1 100 6 is_stmt 0
	lhu	a3,10(a0)
	li	a4,3
	bleu	a3,a4,.L2
	.loc 1 105 3 is_stmt 1
	.loc 1 105 8 is_stmt 0
	lw	a4,4(a0)
	lbu	a4,0(a4)
.LVL3:
	.loc 1 111 3 is_stmt 1
	beq	a4,zero,.L3
	li	a3,8
	bne	a4,a3,.L4
	.loc 1 118 7
	.loc 1 119 7
.LVL4:
	.loc 1 121 7
	.loc 1 121 44 is_stmt 0
	lw	a0,20(a5)
.LVL5:
	.loc 1 121 10
	li	a4,224
.LVL6:
	.loc 1 121 51
	andi	a3,a0,240
	.loc 1 121 10
	beq	a3,a4,.L10
	mv	s3,a1
	.loc 1 131 7 is_stmt 1
	.loc 1 131 11 is_stmt 0
	lw	a1,0(a5)
.LVL7:
	call	ip4_addr_isbroadcast_u32
.LVL8:
	.loc 1 131 10
	bne	a0,zero,.L10
	.loc 1 140 7 is_stmt 1
	.loc 1 141 7
	.loc 1 141 10 is_stmt 0
	lhu	a4,8(s0)
	li	a5,7
	bleu	a4,a5,.L2
	.loc 1 147 9 is_stmt 1
	.loc 1 147 13 is_stmt 0
	mv	a0,s0
	call	inet_chksum_pbuf
.LVL9:
	.loc 1 147 12
	beq	a0,zero,.L6
	.loc 1 148 11 is_stmt 1
	.loc 1 149 11
	mv	a0,s0
	call	pbuf_free
.LVL10:
	.loc 1 150 11
	lhu	a5,80(s4)
	addi	a5,a5,1
	sh	a5,80(s4)
	.loc 1 151 11
	.loc 1 152 11
.LVL11:
.L1:
	.loc 1 296 1 is_stmt 0
	lw	ra,60(sp)
	.cfi_remember_state
	.cfi_restore 1
	lw	s0,56(sp)
	.cfi_restore 8
.LVL12:
	lw	s1,52(sp)
	.cfi_restore 9
.LVL13:
	lw	s2,48(sp)
	.cfi_restore 18
	lw	s3,44(sp)
	.cfi_restore 19
	lw	s4,40(sp)
	.cfi_restore 20
	lw	s5,36(sp)
	.cfi_restore 21
	lw	s6,32(sp)
	.cfi_restore 22
	lw	s7,28(sp)
	.cfi_restore 23
.LVL14:
	addi	sp,sp,64
	.cfi_def_cfa_offset 0
	jr	ra
.LVL15:
.L6:
	.cfi_restore_state
	.loc 1 157 11
	addi	a1,s1,-114
	andi	a1,a1,0xff
	mv	a0,s0
	sw	a1,12(sp)
	.loc 1 95 8
	slli	s4,s1,16
	.loc 1 157 11
	call	pbuf_add_header
.LVL16:
	.loc 1 157 10
	lw	a1,12(sp)
	addi	s6,s6,%lo(ip_data)
	.loc 1 95 8
	srli	s4,s4,16
	.loc 1 157 7 is_stmt 1
	.loc 1 157 10 is_stmt 0
	beq	a0,zero,.L8
.LBB2:
	.loc 1 161 9 is_stmt 1
	.loc 1 162 9
	.loc 1 162 36 is_stmt 0
	lhu	a5,8(s0)
	.loc 1 162 15
	add	a1,a5,s4
	slli	a1,a1,16
	srli	a1,a1,16
.LVL17:
	.loc 1 163 9 is_stmt 1
	.loc 1 163 12 is_stmt 0
	bgtu	a5,a1,.L10
	.loc 1 168 9 is_stmt 1
	.loc 1 168 13 is_stmt 0
	li	a2,640
	li	a0,142
	call	pbuf_alloc
.LVL18:
	mv	s5,a0
.LVL19:
	.loc 1 169 9 is_stmt 1
	.loc 1 169 12 is_stmt 0
	beq	a0,zero,.L10
	.loc 1 173 9 is_stmt 1
	.loc 1 173 12 is_stmt 0
	lhu	a4,10(a0)
	addi	a5,s1,8
	bgeu	a4,a5,.L9
.L24:
	.loc 1 183 11 discriminator 1
	call	pbuf_free
.LVL20:
	.loc 1 184 11 is_stmt 1 discriminator 1
.L10:
.LBE2:
	.loc 1 291 3
	mv	a0,s0
	call	pbuf_free
.LVL21:
	.loc 1 292 3
	lhu	a5,92(s2)
	addi	a5,a5,1
	sh	a5,92(s2)
	.loc 1 293 3
	.loc 1 294 3
	j	.L1
.LVL22:
.L9:
.LBB3:
	.loc 1 179 9
	lw	a0,4(a0)
.LVL23:
	mv	a1,s7
	mv	a2,s1
	call	memcpy
.LVL24:
	.loc 1 181 9
	.loc 1 181 13 is_stmt 0
	mv	a1,s1
	mv	a0,s5
	call	pbuf_remove_header
.LVL25:
	.loc 1 181 12
	beq	a0,zero,.L11
.L25:
	.loc 1 182 11 is_stmt 1 discriminator 1
	.loc 1 182 16 discriminator 1
	.loc 1 182 28 discriminator 1
	.loc 1 182 38 discriminator 1
	.loc 1 183 11 discriminator 1
	mv	a0,s5
	j	.L24
.L11:
	.loc 1 187 9
	.loc 1 187 13 is_stmt 0
	mv	a1,s0
	mv	a0,s5
	call	pbuf_copy
.LVL26:
	.loc 1 187 12
	bne	a0,zero,.L25
	.loc 1 193 9 is_stmt 1
	mv	a0,s0
	call	pbuf_free
.LVL27:
	.loc 1 195 9
.LBE3:
	mv	s0,s5
.LVL28:
.L13:
	.loc 1 207 7
	.loc 1 208 11 is_stmt 0
	mv	a1,s1
	mv	a0,s0
	.loc 1 207 13
	lw	s5,4(s0)
.LVL29:
	.loc 1 208 7 is_stmt 1
	.loc 1 208 11 is_stmt 0
	call	pbuf_add_header
.LVL30:
	.loc 1 208 10
	bne	a0,zero,.L3
.LBB4:
	.loc 1 211 9 is_stmt 1
	.loc 1 212 9
	.loc 1 213 36 is_stmt 0
	lw	a5,20(s6)
	.loc 1 212 24
	lw	s1,4(s0)
.LVL31:
	.loc 1 213 9 is_stmt 1
	.loc 1 213 28 is_stmt 0
	srli	a4,a5,8
	sb	a5,12(s1)
	sb	a4,13(s1)
	srli	a4,a5,16
	srli	a5,a5,24
	sb	a4,14(s1)
	sb	a5,15(s1)
	.loc 1 214 9 is_stmt 1
	.loc 1 214 62 is_stmt 0
	lw	a5,16(s6)
	.loc 1 214 29
	srli	a4,a5,8
	sb	a5,16(s1)
	sb	a4,17(s1)
	srli	a4,a5,16
	srli	a5,a5,24
	sb	a4,18(s1)
	sb	a5,19(s1)
	.loc 1 215 9 is_stmt 1
	.loc 1 219 20 is_stmt 0
	lbu	a5,3(s5)
	lbu	a4,2(s5)
	.loc 1 215 24
	sb	zero,0(s5)
	.loc 1 219 11 is_stmt 1
	.loc 1 219 20 is_stmt 0
	slli	a5,a5,8
	or	a5,a5,a4
	.loc 1 219 14
	li	a4,65536
	addi	a4,a4,-9
	bleu	a5,a4,.L14
	.loc 1 220 13 is_stmt 1
	.loc 1 220 29 is_stmt 0
	addi	a5,a5,9
.L23:
	.loc 1 222 29
	slli	a5,a5,16
	srli	a5,a5,16
	sb	a5,2(s5)
	srli	a5,a5,8
	sb	a5,3(s5)
	.loc 1 235 9 is_stmt 1
	.loc 1 235 23 is_stmt 0
	li	a5,64
	sb	a5,8(s1)
	.loc 1 236 9 is_stmt 1
	.loc 1 239 31 is_stmt 0
	mv	a1,s4
	.loc 1 236 26
	sb	zero,10(s1)
	sb	zero,11(s1)
	.loc 1 239 11 is_stmt 1
	.loc 1 239 31 is_stmt 0
	mv	a0,s1
	call	inet_chksum
.LVL32:
	.loc 1 239 28
	sb	a0,10(s1)
	srli	a0,a0,8
	sb	a0,11(s1)
	.loc 1 243 9 is_stmt 1
	lhu	a5,72(s2)
	.loc 1 250 15 is_stmt 0
	lui	a1,%hi(ip_data+20)
	mv	a6,s3
	.loc 1 243 9
	addi	a5,a5,1
	sh	a5,72(s2)
	.loc 1 245 9 is_stmt 1
	.loc 1 247 9
	.loc 1 250 9
	.loc 1 250 15 is_stmt 0
	li	a4,0
	li	a5,1
	li	a3,64
	li	a2,0
	addi	a1,a1,%lo(ip_data+20)
	mv	a0,s0
	call	ip4_output_if
.LVL33:
	.loc 1 252 9 is_stmt 1
.L3:
.LBE4:
	.loc 1 282 3
	mv	a0,s0
	.loc 1 296 1 is_stmt 0
	lw	s0,56(sp)
	.cfi_remember_state
	.cfi_restore 8
.LVL34:
	lw	ra,60(sp)
	.cfi_restore 1
	lw	s1,52(sp)
	.cfi_restore 9
	lw	s2,48(sp)
	.cfi_restore 18
	lw	s3,44(sp)
	.cfi_restore 19
	lw	s4,40(sp)
	.cfi_restore 20
	lw	s5,36(sp)
	.cfi_restore 21
	lw	s6,32(sp)
	.cfi_restore 22
	lw	s7,28(sp)
	.cfi_restore 23
.LVL35:
	addi	sp,sp,64
	.cfi_def_cfa_offset 0
	.loc 1 282 3
	tail	pbuf_free
.LVL36:
.L8:
	.cfi_restore_state
	.loc 1 198 9 is_stmt 1
	.loc 1 198 13 is_stmt 0
	mv	a0,s0
	call	pbuf_remove_header
.LVL37:
	.loc 1 198 12
	beq	a0,zero,.L13
	j	.L10
.LVL38:
.L14:
.LBB5:
	.loc 1 222 13 is_stmt 1
	.loc 1 222 29 is_stmt 0
	addi	a5,a5,8
	j	.L23
.LVL39:
.L4:
.LBE5:
	.loc 1 258 7 is_stmt 1
	.loc 1 275 9
	.loc 1 278 58
	.loc 1 279 7
	lhu	a5,88(s4)
	addi	a5,a5,1
	sh	a5,88(s4)
	.loc 1 280 7
	lhu	a5,78(s4)
	addi	a5,a5,1
	sh	a5,78(s4)
	j	.L3
.LVL40:
.L2:
.LDL1:
	.loc 1 285 3
	mv	a0,s0
	call	pbuf_free
.LVL41:
	.loc 1 286 3
	lhu	a5,82(s2)
	addi	a5,a5,1
	sh	a5,82(s2)
	.loc 1 287 3
	.loc 1 288 3
	j	.L1
	.cfi_endproc
.LFE5:
	.size	icmp_input, .-icmp_input
	.section	.text.icmp_dest_unreach,"ax",@progbits
	.align	1
	.globl	icmp_dest_unreach
	.type	icmp_dest_unreach, @function
icmp_dest_unreach:
.LFB6:
	.loc 1 309 1
	.cfi_startproc
.LVL42:
	.loc 1 310 3
	.loc 1 311 3
	.loc 1 309 1 is_stmt 0
	addi	sp,sp,-64
	.cfi_def_cfa_offset 64
	sw	s3,44(sp)
	sw	s4,40(sp)
	.cfi_offset 19, -20
	.cfi_offset 20, -24
	mv	s3,a0
.LVL43:
	mv	s4,a1
.LVL44:
.LBB8:
.LBB9:
	.loc 1 342 3 is_stmt 1
	.loc 1 343 3
	.loc 1 345 3
	.loc 1 346 3
	.loc 1 347 3
	.loc 1 350 3
	.loc 1 353 3
	.loc 1 353 7 is_stmt 0
	li	a2,640
	li	a1,36
.LVL45:
	li	a0,162
.LVL46:
.LBE9:
.LBE8:
	.loc 1 309 1
	sw	ra,60(sp)
	sw	s0,56(sp)
	sw	s1,52(sp)
	sw	s2,48(sp)
	.cfi_offset 1, -4
	.cfi_offset 8, -8
	.cfi_offset 9, -12
	.cfi_offset 18, -16
.LBB12:
.LBB10:
	.loc 1 353 7
	call	pbuf_alloc
.LVL47:
	.loc 1 355 3 is_stmt 1
	.loc 1 355 6 is_stmt 0
	beq	a0,zero,.L26
	.loc 1 370 11
	lw	s0,4(a0)
	.loc 1 371 17
	li	a5,3
	.loc 1 363 9
	lw	s2,4(s3)
	.loc 1 371 17
	sb	a5,0(s0)
.LBE10:
.LBE12:
	.loc 1 311 3
	sb	s4,1(s0)
.LBB13:
.LBB11:
	.loc 1 373 15
	sb	zero,4(s0)
	sb	zero,5(s0)
	.loc 1 374 18
	sb	zero,6(s0)
	sb	zero,7(s0)
	mv	s1,a0
	.loc 1 360 3 is_stmt 1
	.loc 1 360 8
	.loc 1 360 70
	.loc 1 360 80
	.loc 1 363 3
.LVL48:
	.loc 1 364 3
	.loc 1 365 3
	.loc 1 366 3
	.loc 1 367 3
	.loc 1 368 3
	.loc 1 370 3
	.loc 1 371 3
	.loc 1 372 3
	.loc 1 373 3
	.loc 1 374 3
	.loc 1 377 3
	lw	a0,4(a0)
.LVL49:
	lw	a1,4(s3)
	li	a2,28
	addi	a0,a0,8
	call	memcpy
.LVL50:
	.loc 1 380 3
	.loc 1 380 35 is_stmt 0
	lbu	a4,13(s2)
	lbu	a5,12(s2)
	.loc 1 388 11
	addi	a0,sp,28
	.loc 1 380 35
	slli	a4,a4,8
	or	a4,a4,a5
	lbu	a5,14(s2)
	slli	a5,a5,16
	or	a4,a5,a4
	lbu	a5,15(s2)
	slli	a5,a5,24
	or	a5,a5,a4
	.loc 1 380 21
	sw	a5,28(sp)
	.loc 1 388 3 is_stmt 1
	.loc 1 388 11 is_stmt 0
	call	ip4_route
.LVL51:
	.loc 1 390 3 is_stmt 1
	.loc 1 390 6 is_stmt 0
	sw	a0,12(sp)
	beq	a0,zero,.L29
	.loc 1 392 5 is_stmt 1
	.loc 1 392 21 is_stmt 0
	sb	zero,2(s0)
	sb	zero,3(s0)
	.loc 1 395 7 is_stmt 1
	.loc 1 395 25 is_stmt 0
	lhu	a1,10(s1)
	mv	a0,s0
.LVL52:
	call	inet_chksum
.LVL53:
	.loc 1 395 23
	srli	a5,a0,8
	sb	a5,3(s0)
	.loc 1 398 5 is_stmt 1
	lui	a5,%hi(lwip_stats)
	.loc 1 395 23 is_stmt 0
	sb	a0,2(s0)
	.loc 1 398 5
	addi	a5,a5,%lo(lwip_stats)
	lhu	a4,72(a5)
	.loc 1 399 5
	lw	a6,12(sp)
	li	a3,64
	.loc 1 398 5
	addi	a4,a4,1
	sh	a4,72(a5)
	.loc 1 399 5 is_stmt 1
	addi	a2,sp,28
	li	a5,1
	li	a4,0
	li	a1,0
	mv	a0,s1
	call	ip4_output_if
.LVL54:
.L29:
	.loc 1 401 3
	mv	a0,s1
	call	pbuf_free
.LVL55:
.L26:
.LBE11:
.LBE13:
	.loc 1 312 1 is_stmt 0
	lw	ra,60(sp)
	.cfi_restore 1
	lw	s0,56(sp)
	.cfi_restore 8
	lw	s1,52(sp)
	.cfi_restore 9
	lw	s2,48(sp)
	.cfi_restore 18
	lw	s3,44(sp)
	.cfi_restore 19
.LVL56:
	lw	s4,40(sp)
	.cfi_restore 20
.LVL57:
	addi	sp,sp,64
	.cfi_def_cfa_offset 0
	jr	ra
	.cfi_endproc
.LFE6:
	.size	icmp_dest_unreach, .-icmp_dest_unreach
	.text
.Letext0:
	.file 2 "/mnt/d/GitHub/bl_iot_sdk_for_aithinker/toolchain/riscv/Linux/riscv64-unknown-elf/include/machine/_default_types.h"
	.file 3 "/mnt/d/GitHub/bl_iot_sdk_for_aithinker/toolchain/riscv/Linux/riscv64-unknown-elf/include/sys/_stdint.h"
	.file 4 "/mnt/d/GitHub/bl_iot_sdk_for_aithinker/components/network/lwip/src/include/lwip/arch.h"
	.file 5 "/mnt/d/GitHub/bl_iot_sdk_for_aithinker/components/network/lwip/src/include/lwip/err.h"
	.file 6 "/mnt/d/GitHub/bl_iot_sdk_for_aithinker/components/network/lwip/src/include/lwip/pbuf.h"
	.file 7 "/mnt/d/GitHub/bl_iot_sdk_for_aithinker/components/network/lwip/src/include/lwip/ip4_addr.h"
	.file 8 "/mnt/d/GitHub/bl_iot_sdk_for_aithinker/components/network/lwip/src/include/lwip/ip_addr.h"
	.file 9 "/mnt/d/GitHub/bl_iot_sdk_for_aithinker/components/network/lwip/src/include/lwip/mem.h"
	.file 10 "/mnt/d/GitHub/bl_iot_sdk_for_aithinker/components/network/lwip/src/include/lwip/stats.h"
	.file 11 "/mnt/d/GitHub/bl_iot_sdk_for_aithinker/components/network/lwip/src/include/lwip/netif.h"
	.file 12 "/mnt/d/GitHub/bl_iot_sdk_for_aithinker/components/network/lwip/src/include/lwip/prot/icmp.h"
	.file 13 "/mnt/d/GitHub/bl_iot_sdk_for_aithinker/components/network/lwip/src/include/lwip/icmp.h"
	.file 14 "/mnt/d/GitHub/bl_iot_sdk_for_aithinker/components/network/lwip/src/include/lwip/prot/ip4.h"
	.file 15 "/mnt/d/GitHub/bl_iot_sdk_for_aithinker/components/network/lwip/src/include/lwip/ip.h"
	.file 16 "/mnt/d/GitHub/bl_iot_sdk_for_aithinker/toolchain/riscv/Linux/riscv64-unknown-elf/include/string.h"
	.file 17 "/mnt/d/GitHub/bl_iot_sdk_for_aithinker/components/network/lwip/src/include/lwip/ip4.h"
	.file 18 "/mnt/d/GitHub/bl_iot_sdk_for_aithinker/components/network/lwip/src/include/lwip/inet_chksum.h"