	.file	"wps.c"
	.option nopic
	.attribute arch, "rv32i2p0_m2p0_f2p0_c2p0"
	.attribute unaligned_access, 0
	.attribute stack_align, 16
	.text
.Ltext0:
	.cfi_sections	.debug_frame
	.section	.text.wps_process_msg,"ax",@progbits
	.align	1
	.globl	wps_process_msg
	.type	wps_process_msg, @function
wps_process_msg:
.LFB79:
	.file 1 "/mnt/d/GitHub/bl_iot_sdk_for_aithinker/components/security/wpa_supplicant/src/wps/wps.c"
	.loc 1 39 1
	.cfi_startproc
.LVL0:
	.loc 1 40 5
	.loc 1 40 8 is_stmt 0
	lw	a5,4(a0)
	beq	a5,zero,.L2
	.loc 1 41 9 is_stmt 1
	.loc 1 41 16 is_stmt 0
	tail	wps_registrar_process_msg
.LVL1:
.L2:
	.loc 1 43 9 is_stmt 1
	.loc 1 43 16 is_stmt 0
	tail	wps_enrollee_process_msg
.LVL2:
	.cfi_endproc
.LFE79:
	.size	wps_process_msg, .-wps_process_msg
	.section	.text.wps_get_msg,"ax",@progbits
	.align	1
	.globl	wps_get_msg
	.type	wps_get_msg, @function
wps_get_msg:
.LFB80:
	.loc 1 57 1 is_stmt 1
	.cfi_startproc
.LVL3:
	.loc 1 58 5
	.loc 1 58 8 is_stmt 0
	lw	a5,4(a0)
	beq	a5,zero,.L4
	.loc 1 59 9 is_stmt 1
	.loc 1 59 16 is_stmt 0
	tail	wps_registrar_get_msg
.LVL4:
.L4:
	.loc 1 61 9 is_stmt 1
	.loc 1 61 16 is_stmt 0
	tail	wps_enrollee_get_msg
.LVL5:
	.cfi_endproc
.LFE80:
	.size	wps_get_msg, .-wps_get_msg
	.section	.text.wps_is_selected_pbc_registrar,"ax",@progbits
	.align	1
	.globl	wps_is_selected_pbc_registrar
	.type	wps_is_selected_pbc_registrar, @function
wps_is_selected_pbc_registrar:
.LFB81:
	.loc 1 71 1 is_stmt 1
	.cfi_startproc
.LVL6:
	.loc 1 72 2
	.loc 1 71 1 is_stmt 0
	addi	sp,sp,-32
	.cfi_def_cfa_offset 32
	sw	ra,28(sp)
	sw	s0,24(sp)
	sw	s1,20(sp)
	sw	s2,16(sp)
	sw	s4,8(sp)
	sw	s3,12(sp)
	.cfi_offset 1, -4
	.cfi_offset 8, -8
	.cfi_offset 9, -12
	.cfi_offset 18, -16
	.cfi_offset 20, -24
	.cfi_offset 19, -20
	.loc 1 71 1
	mv	s2,a0
	mv	s4,a1
	.loc 1 72 22
	call	wps_sm_get
.LVL7:
	.loc 1 73 60
	li	a1,500
	.loc 1 72 22
	mv	s1,a0
.LVL8:
	.loc 1 73 5 is_stmt 1
	.loc 1 73 60 is_stmt 0
	li	a0,1
	call	wpa_supplicant_zalloc
.LVL9:
	mv	s0,a0
.LVL10:
	.loc 1 74 5 is_stmt 1
	.loc 1 83 5
	.loc 1 83 9 is_stmt 0
	mv	a1,a0
	mv	a0,s2
	call	wps_parse_msg
.LVL11:
	.loc 1 83 8
	bge	a0,zero,.L6
.L23:
	.loc 1 90 7 is_stmt 1
	mv	a0,s0
.LVL12:
.L13:
	.loc 1 107 9
	call	wpa_supplicant_free
.LVL13:
	.loc 1 108 9
	.loc 1 108 16 is_stmt 0
	li	s1,0
	j	.L5
.LVL14:
.L6:
	.loc 1 88 5 is_stmt 1
	.loc 1 88 13 is_stmt 0
	lw	a5,144(s0)
	.loc 1 88 7
	beq	a5,zero,.L8
	.loc 1 88 34 discriminator 1
	lbu	a5,0(a5)
	bne	a5,zero,.L9
.L8:
	.loc 1 89 6 is_stmt 1
	.loc 1 89 9 is_stmt 0
	lbu	a5,597(s1)
	beq	a5,zero,.L23
	addi	s3,s1,598
	addi	s2,s1,658
.LVL15:
.L12:
	.loc 1 95 11 is_stmt 1
	.loc 1 95 20 is_stmt 0
	li	a2,6
	mv	a1,s4
	mv	a0,s3
	call	memcmp
.LVL16:
	mv	s1,a0
	.loc 1 95 14
	bne	a0,zero,.L11
	.loc 1 96 12 is_stmt 1
	.loc 1 96 16
	.loc 1 96 23
	.loc 1 98 12
	mv	a0,s0
	call	wpa_supplicant_free
.LVL17:
	.loc 1 99 12
.L5:
	.loc 1 113 1 is_stmt 0
	lw	ra,28(sp)
	.cfi_remember_state
	.cfi_restore 1
	lw	s0,24(sp)
	.cfi_restore 8
.LVL18:
	lw	s2,16(sp)
	.cfi_restore 18
	lw	s3,12(sp)
	.cfi_restore 19
	lw	s4,8(sp)
	.cfi_restore 20
.LVL19:
	mv	a0,s1
	lw	s1,20(sp)
	.cfi_restore 9
	addi	sp,sp,32
	.cfi_def_cfa_offset 0
	jr	ra
.LVL20:
.L11:
	.cfi_restore_state
	.loc 1 94 29 is_stmt 1 discriminator 2
	.loc 1 94 21 discriminator 2
	.loc 1 94 9 is_stmt 0 discriminator 2
	addi	s3,s3,6
	bne	s3,s2,.L12
.LVL21:
.L9:
	.loc 1 105 5 is_stmt 1
	.loc 1 105 14 is_stmt 0
	lw	a4,64(s0)
	.loc 1 107 9
	mv	a0,s0
	.loc 1 105 8
	beq	a4,zero,.L13
.LVL22:
	.file 2 "/mnt/d/GitHub/bl_iot_sdk_for_aithinker/components/security/wpa_supplicant/src/utils/common.h"
	.loc 2 127 2 is_stmt 1 discriminator 1
	.loc 1 105 32 is_stmt 0 discriminator 1
	lbu	a5,1(a4)
	lbu	a3,0(a4)
	slli	a5,a5,8
	or	a5,a5,a3
	slli	a4,a5,8
	srli	a5,a5,8
	or	a5,a4,a5
	slli	a5,a5,16
	srli	a5,a5,16
	li	a4,4
	bne	a5,a4,.L13
	.loc 1 111 5 is_stmt 1
	call	wpa_supplicant_free
.LVL23:
	.loc 1 112 5
	.loc 1 112 12 is_stmt 0
	li	s1,1
	j	.L5
	.cfi_endproc
.LFE81:
	.size	wps_is_selected_pbc_registrar, .-wps_is_selected_pbc_registrar
	.section	.text.wps_is_selected_pin_registrar,"ax",@progbits
	.align	1
	.globl	wps_is_selected_pin_registrar
	.type	wps_is_selected_pin_registrar, @function
wps_is_selected_pin_registrar:
.LFB83:
	.loc 1 165 1 is_stmt 1
	.cfi_startproc
.LVL24:
	.loc 1 166 5
	.loc 1 167 5
	.loc 1 169 5
	.loc 1 165 1 is_stmt 0
	addi	sp,sp,-32
	.cfi_def_cfa_offset 32
	sw	s1,20(sp)
	sw	s3,12(sp)
	.cfi_offset 9, -12
	.cfi_offset 19, -20
	mv	s1,a0
	mv	s3,a1
	.loc 1 169 37
	li	a0,1
.LVL25:
	li	a1,500
.LVL26:
	.loc 1 165 1
	sw	ra,28(sp)
	sw	s0,24(sp)
	sw	s2,16(sp)
	.cfi_offset 1, -4
	.cfi_offset 8, -8
	.cfi_offset 18, -16
	.loc 1 169 37
	call	wpa_supplicant_zalloc
.LVL27:
	.loc 1 170 5 is_stmt 1
	.loc 1 170 8 is_stmt 0
	beq	a0,zero,.L34
	mv	s0,a0
	.loc 1 173 5 is_stmt 1
	.loc 1 173 9 is_stmt 0
	mv	a1,a0
	mv	a0,s1
.LVL28:
	call	wps_parse_msg
.LVL29:
	.loc 1 173 8
	bge	a0,zero,.L26
	.loc 1 174 9 is_stmt 1
	mv	a0,s0
	call	wpa_supplicant_free
.LVL30:
	.loc 1 175 9
	.loc 1 175 16 is_stmt 0
	li	s1,0
.LVL31:
.L24:
	.loc 1 182 1
	lw	ra,28(sp)
	.cfi_remember_state
	.cfi_restore 1
	lw	s0,24(sp)
	.cfi_restore 8
	lw	s2,16(sp)
	.cfi_restore 18
	lw	s3,12(sp)
	.cfi_restore 19
.LVL32:
	mv	a0,s1
	lw	s1,20(sp)
	.cfi_restore 9
	addi	sp,sp,32
	.cfi_def_cfa_offset 0
	jr	ra
.LVL33:
.L26:
	.cfi_restore_state
	.loc 1 178 5 is_stmt 1
.LBB22:
.LBB23:
	.loc 1 119 2
	.loc 1 119 22 is_stmt 0
	call	wps_sm_get
.LVL34:
	.loc 1 120 2 is_stmt 1
	.loc 1 122 2
	.loc 1 122 5 is_stmt 0
	bne	a0,zero,.L27
.LVL35:
.L29:
	.loc 1 123 10
	li	s1,0
.L28:
.LVL36:
.LBE23:
.LBE22:
	.loc 1 179 5 is_stmt 1
	mv	a0,s0
	call	wpa_supplicant_free
.LVL37:
	.loc 1 181 5
	.loc 1 181 12 is_stmt 0
	j	.L24
.LVL38:
.L27:
.LBB26:
.LBB24:
	.loc 1 122 10
	beq	s3,zero,.L29
	.loc 1 133 5 is_stmt 1
	.loc 1 133 14 is_stmt 0
	lw	a5,144(s0)
	.loc 1 133 8
	beq	a5,zero,.L30
	.loc 1 133 35
	lbu	a5,0(a5)
	bne	a5,zero,.L31
.L30:
	.loc 1 134 6 is_stmt 1
	.loc 1 134 9 is_stmt 0
	lbu	a5,597(a0)
	beq	a5,zero,.L29
	addi	s2,a0,598
	addi	s1,a0,658
.LVL39:
.L32:
	.loc 1 139 11 is_stmt 1
	.loc 1 139 20 is_stmt 0
	li	a2,6
	mv	a1,s3
	mv	a0,s2
	call	memcmp
.LVL40:
	.loc 1 139 14
	beq	a0,zero,.L29
	.loc 1 138 27 is_stmt 1
	.loc 1 138 19
	.loc 1 138 7 is_stmt 0
	addi	s2,s2,6
	bne	s2,s1,.L32
.LVL41:
.L31:
	.loc 1 147 5 is_stmt 1
	.loc 1 147 13 is_stmt 0
	lw	a4,64(s0)
	.loc 1 147 8
	beq	a4,zero,.L33
.LVL42:
.LBE24:
.LBE26:
	.loc 2 127 2 is_stmt 1
.LBB27:
.LBB25:
	.loc 1 147 38 is_stmt 0
	lbu	a5,1(a4)
	lbu	a3,0(a4)
	slli	a5,a5,8
	or	a5,a5,a3
	slli	a4,a5,8
	srli	a5,a5,8
	or	a5,a4,a5
	slli	a5,a5,16
	srli	a5,a5,16
	li	a4,4
	beq	a5,a4,.L29
.L33:
	.loc 1 152 5 is_stmt 1
	.loc 1 152 8 is_stmt 0
	lw	s1,44(s0)
	snez	s1,s1
	j	.L28
.LVL43:
.L34:
.LBE25:
.LBE27:
	.loc 1 171 16
	li	s1,-99
.LVL44:
	j	.L24
	.cfi_endproc
.LFE83:
	.size	wps_is_selected_pin_registrar, .-wps_is_selected_pin_registrar
	.section	.text.wps_ap_priority_compar,"ax",@progbits
	.align	1
	.globl	wps_ap_priority_compar
	.type	wps_ap_priority_compar, @function
wps_ap_priority_compar:
.LFB84:
	.loc 1 195 1 is_stmt 1
	.cfi_startproc
.LVL45:
	.loc 1 196 5
	.loc 1 197 5
	.loc 1 198 5
	.loc 1 200 5
	.loc 1 195 1 is_stmt 0
	addi	sp,sp,-16
	.cfi_def_cfa_offset 16
	sw	s0,8(sp)
	sw	s2,0(sp)
	.cfi_offset 8, -8
	.cfi_offset 18, -16
	mv	s0,a0
	mv	s2,a1
	.loc 1 200 12
	li	a0,1
.LVL46:
	li	a1,500
.LVL47:
	.loc 1 195 1
	sw	ra,12(sp)
	sw	s1,4(sp)
	.cfi_offset 1, -4
	.cfi_offset 9, -12
	.loc 1 200 12
	call	wpa_supplicant_zalloc
.LVL48:
	.loc 1 202 5 is_stmt 1
	.loc 1 202 8 is_stmt 0
	beq	a0,zero,.L61
	mv	s1,a0
	.loc 1 205 5 is_stmt 1
	.loc 1 205 8 is_stmt 0
	beq	s0,zero,.L54
	.loc 1 205 25 discriminator 1
	mv	a1,a0
	mv	a0,s0
.LVL49:
	call	wps_parse_msg
.LVL50:
	.loc 1 205 22 discriminator 1
	blt	a0,zero,.L54
	.loc 1 209 5 is_stmt 1
	.loc 1 209 17 is_stmt 0
	lw	a5,144(s1)
	.loc 1 209 38
	li	s0,0
.LVL51:
	beq	a5,zero,.L55
	.loc 1 209 38 discriminator 1
	lbu	s0,0(a5)
	snez	s0,s0
.L55:
.LVL52:
	.loc 1 211 5 is_stmt 1 discriminator 6
	.loc 1 211 8 is_stmt 0 discriminator 6
	bne	s2,zero,.L56
.L58:
	.loc 1 212 13
	li	s0,-1
.LVL53:
.L57:
	.loc 1 227 5 is_stmt 1
	mv	a0,s1
	call	wpa_supplicant_free
.LVL54:
	.loc 1 228 5
.L52:
	.loc 1 229 1 is_stmt 0
	lw	ra,12(sp)
	.cfi_remember_state
	.cfi_restore 1
	mv	a0,s0
	lw	s0,8(sp)
	.cfi_restore 8
	lw	s1,4(sp)
	.cfi_restore 9
	lw	s2,0(sp)
	.cfi_restore 18
.LVL55:
	addi	sp,sp,16
	.cfi_def_cfa_offset 0
	jr	ra
.LVL56:
.L56:
	.cfi_restore_state
	.loc 1 211 25 discriminator 1
	mv	a1,s1
	mv	a0,s2
	call	wps_parse_msg
.LVL57:
	.loc 1 211 22 discriminator 1
	blt	a0,zero,.L58
	.loc 1 215 5 is_stmt 1
	.loc 1 215 17 is_stmt 0
	lw	a5,144(s1)
	.loc 1 215 38
	beq	a5,zero,.L59
	.loc 1 215 38 discriminator 1
	lbu	a5,0(a5)
	bne	a5,zero,.L60
.L59:
.LVL58:
	.loc 1 217 5 is_stmt 1
	.loc 1 217 8 is_stmt 0
	neg	s0,s0
.LVL59:
	j	.L57
.LVL60:
.L54:
	.loc 1 206 13
	li	s0,1
.LVL61:
	j	.L57
.LVL62:
.L61:
	.loc 1 203 13
	li	s0,0
.LVL63:
	j	.L52
.LVL64:
.L60:
	.loc 1 217 5 is_stmt 1
	.loc 1 217 8 is_stmt 0
	li	a5,1
	sub	s0,a5,s0
.LVL65:
	j	.L57
	.cfi_endproc
.LFE84:
	.size	wps_ap_priority_compar, .-wps_ap_priority_compar
	.section	.text.wps_get_uuid_e,"ax",@progbits
	.align	1
	.globl	wps_get_uuid_e
	.type	wps_get_uuid_e, @function
wps_get_uuid_e:
.LFB85:
	.loc 1 241 1 is_stmt 1
	.cfi_startproc
.LVL66:
	.loc 1 242 5
	.loc 1 243 5
	.loc 1 245 5
	.loc 1 241 1 is_stmt 0
	addi	sp,sp,-16
	.cfi_def_cfa_offset 16
	sw	s1,4(sp)
	.loc 1 245 37
	li	a1,500
	.cfi_offset 9, -12
	.loc 1 241 1
	mv	s1,a0
	.loc 1 245 37
	li	a0,1
.LVL67:
	.loc 1 241 1
	sw	s0,8(sp)
	sw	ra,12(sp)
	.cfi_offset 8, -8
	.cfi_offset 1, -4
	.loc 1 245 37
	call	wpa_supplicant_zalloc
.LVL68:
	mv	s0,a0
.LVL69:
	.loc 1 246 5 is_stmt 1
	.loc 1 246 8 is_stmt 0
	beq	a0,zero,.L70
	.loc 1 249 5 is_stmt 1
	.loc 1 249 9 is_stmt 0
	mv	a1,a0
	mv	a0,s1
	call	wps_parse_msg
.LVL70:
	.loc 1 250 16
	li	s1,0
.LVL71:
	.loc 1 249 8
	blt	a0,zero,.L72
	.loc 1 252 9 is_stmt 1
	.loc 1 252 16 is_stmt 0
	lw	s1,24(s0)
.LVL72:
.L72:
	.loc 1 254 5 is_stmt 1
	mv	a0,s0
	call	wpa_supplicant_free
.LVL73:
	.loc 1 255 5
	.loc 1 255 12 is_stmt 0
	mv	s0,s1
.LVL74:
.L70:
	.loc 1 256 1
	lw	ra,12(sp)
	.cfi_restore 1
	mv	a0,s0
	lw	s0,8(sp)
	.cfi_restore 8
	lw	s1,4(sp)
	.cfi_restore 9
	addi	sp,sp,16
	.cfi_def_cfa_offset 0
	jr	ra
	.cfi_endproc
.LFE85:
	.size	wps_get_uuid_e, .-wps_get_uuid_e
	.section	.text.wps_is_20,"ax",@progbits
	.align	1
	.globl	wps_is_20
	.type	wps_is_20, @function
wps_is_20:
.LFB86:
	.loc 1 263 1 is_stmt 1
	.cfi_startproc
.LVL75:
	.loc 1 264 5
	.loc 1 265 5
	.loc 1 267 5
	.loc 1 263 1 is_stmt 0
	addi	sp,sp,-16
	.cfi_def_cfa_offset 16
	sw	s1,4(sp)
	.loc 1 267 37
	li	a1,500
	.cfi_offset 9, -12
	.loc 1 263 1
	mv	s1,a0
	.loc 1 267 37
	li	a0,1
.LVL76:
	.loc 1 263 1
	sw	ra,12(sp)
	sw	s0,8(sp)
	.cfi_offset 1, -4
	.cfi_offset 8, -8
	.loc 1 267 37
	call	wpa_supplicant_zalloc
.LVL77:
	.loc 1 268 5 is_stmt 1
	.loc 1 268 8 is_stmt 0
	beq	a0,zero,.L83
	mv	s0,a0
	.loc 1 271 5 is_stmt 1
	.loc 1 271 8 is_stmt 0
	bne	s1,zero,.L80
.LVL78:
.L82:
	.loc 1 272 13
	li	s1,0
.LVL79:
.L81:
	.loc 1 276 5 is_stmt 1
	mv	a0,s0
	call	wpa_supplicant_free
.LVL80:
	.loc 1 277 5
.L78:
	.loc 1 278 1 is_stmt 0
	lw	ra,12(sp)
	.cfi_remember_state
	.cfi_restore 1
	lw	s0,8(sp)
	.cfi_restore 8
	mv	a0,s1
	lw	s1,4(sp)
	.cfi_restore 9
	addi	sp,sp,16
	.cfi_def_cfa_offset 0
	jr	ra
.LVL81:
.L80:
	.cfi_restore_state
	.loc 1 271 23 discriminator 1
	mv	a1,a0
	mv	a0,s1
	call	wps_parse_msg
.LVL82:
	.loc 1 271 20 discriminator 1
	blt	a0,zero,.L82
	.loc 1 274 9 is_stmt 1
	.loc 1 274 31 is_stmt 0
	lw	s1,4(s0)
.LVL83:
	snez	s1,s1
.LVL84:
	j	.L81
.LVL85:
.L83:
	.loc 1 269 16
	li	s1,0
.LVL86:
	j	.L78
	.cfi_endproc
.LFE86:
	.size	wps_is_20, .-wps_is_20
	.section	.text.wps_build_assoc_req_ie,"ax",@progbits
	.align	1
	.globl	wps_build_assoc_req_ie
	.type	wps_build_assoc_req_ie, @function
wps_build_assoc_req_ie:
.LFB87:
	.loc 1 289 1 is_stmt 1
	.cfi_startproc
.LVL87:
	.loc 1 290 5
	.loc 1 291 5
	.loc 1 293 5
	.loc 1 293 9
	.loc 1 293 16
	.loc 1 295 5
	.loc 1 289 1 is_stmt 0
	addi	sp,sp,-16
	.cfi_def_cfa_offset 16
	sw	s2,0(sp)
	.cfi_offset 18, -16
	mv	s2,a0
	.loc 1 295 10
	li	a0,100
.LVL88:
	.loc 1 289 1
	sw	s0,8(sp)
	sw	ra,12(sp)
	sw	s1,4(sp)
	.cfi_offset 8, -8
	.cfi_offset 1, -4
	.cfi_offset 9, -12
	.loc 1 295 10
	call	wpabuf_alloc
.LVL89:
	mv	s0,a0
.LVL90:
	.loc 1 296 5 is_stmt 1
	.loc 1 296 8 is_stmt 0
	beq	a0,zero,.L85
	.loc 1 299 5 is_stmt 1
.LVL91:
.LBB36:
.LBB37:
	.file 3 "/mnt/d/GitHub/bl_iot_sdk_for_aithinker/components/security/wpa_supplicant/include/utils/wpabuf.h"
	.loc 3 110 2
	.loc 3 110 12 is_stmt 0
	li	a1,1
	call	wpabuf_put
.LVL92:
	.loc 3 111 2 is_stmt 1
	.loc 3 111 7 is_stmt 0
	li	a5,-35
	sb	a5,0(a0)
.LVL93:
.LBE37:
.LBE36:
	.loc 1 300 5 is_stmt 1
	.loc 1 300 11 is_stmt 0
	li	a1,1
	mv	a0,s0
	call	wpabuf_put
.LVL94:
	mv	s1,a0
.LVL95:
	.loc 1 301 5 is_stmt 1
.LBB38:
.LBB39:
	.loc 3 140 2
	.loc 3 140 12 is_stmt 0
	li	a1,4
	mv	a0,s0
	call	wpabuf_put
.LVL96:
	.loc 3 141 2 is_stmt 1
.LBB40:
.LBB41:
	.loc 2 166 2
	.loc 2 167 7 is_stmt 0
	li	a4,80
	sb	a4,1(a0)
	.loc 2 168 7
	li	a4,-14
	sb	a4,2(a0)
	.loc 2 169 7
	li	a4,4
	.loc 2 166 7
	sb	zero,0(a0)
	.loc 2 167 2 is_stmt 1
	.loc 2 168 2
	.loc 2 169 2
	.loc 2 169 7 is_stmt 0
	sb	a4,3(a0)
.LVL97:
.LBE41:
.LBE40:
.LBE39:
.LBE38:
	.loc 1 303 5 is_stmt 1
	.loc 1 303 9 is_stmt 0
	mv	a0,s0
	call	wps_build_version
.LVL98:
	.loc 1 303 8
	beq	a0,zero,.L87
.L88:
	.loc 1 306 9 is_stmt 1
	mv	a0,s0
	call	wpabuf_free
.LVL99:
	.loc 1 307 9
	.loc 1 307 15 is_stmt 0
	li	s0,0
.LVL100:
.L85:
	.loc 1 313 1
	lw	ra,12(sp)
	.cfi_remember_state
	.cfi_restore 1
	mv	a0,s0
	lw	s0,8(sp)
	.cfi_restore 8
	lw	s1,4(sp)
	.cfi_restore 9
	lw	s2,0(sp)
	.cfi_restore 18
.LVL101:
	addi	sp,sp,16
	.cfi_def_cfa_offset 0
	jr	ra
.LVL102:
.L87:
	.cfi_restore_state
	.loc 1 304 9 discriminator 1
	mv	a1,s2
	mv	a0,s0
	call	wps_build_req_type
.LVL103:
	.loc 1 303 31 discriminator 1
	bne	a0,zero,.L88
	.loc 1 305 9
	li	a3,0
	li	a2,0
	li	a1,0
	mv	a0,s0
	call	wps_build_wfa_ext
.LVL104:
	.loc 1 304 42
	bne	a0,zero,.L88
	.loc 1 310 5 is_stmt 1
.LVL105:
.LBB42:
.LBB43:
	.loc 3 61 2
.LBE43:
.LBE42:
	.loc 1 310 27 is_stmt 0
	lw	a5,4(s0)
	addi	a5,a5,-2
	.loc 1 310 10
	sb	a5,0(s1)
	.loc 1 312 5 is_stmt 1
	.loc 1 312 12 is_stmt 0
	j	.L85
	.cfi_endproc
.LFE87:
	.size	wps_build_assoc_req_ie, .-wps_build_assoc_req_ie
	.section	.text.wps_build_assoc_resp_ie,"ax",@progbits
	.align	1
	.globl	wps_build_assoc_resp_ie
	.type	wps_build_assoc_resp_ie, @function
wps_build_assoc_resp_ie:
.LFB88:
	.loc 1 323 1 is_stmt 1
	.cfi_startproc
	.loc 1 324 5
	.loc 1 325 5
	.loc 1 327 5
	.loc 1 327 9
	.loc 1 327 16
	.loc 1 329 5
	.loc 1 323 1 is_stmt 0
	addi	sp,sp,-16
	.cfi_def_cfa_offset 16
	.loc 1 329 10
	li	a0,100
	.loc 1 323 1
	sw	s0,8(sp)
	sw	ra,12(sp)
	sw	s1,4(sp)
	.cfi_offset 8, -8
	.cfi_offset 1, -4
	.cfi_offset 9, -12
	.loc 1 329 10
	call	wpabuf_alloc
.LVL106:
	mv	s0,a0
.LVL107:
	.loc 1 330 5 is_stmt 1
	.loc 1 330 8 is_stmt 0
	beq	a0,zero,.L93
	.loc 1 333 5 is_stmt 1
.LVL108:
.LBB52:
.LBB53:
	.loc 3 110 2
	.loc 3 110 12 is_stmt 0
	li	a1,1
	call	wpabuf_put
.LVL109:
	.loc 3 111 2 is_stmt 1
	.loc 3 111 7 is_stmt 0
	li	a5,-35
	sb	a5,0(a0)
.LVL110:
.LBE53:
.LBE52:
	.loc 1 334 5 is_stmt 1
	.loc 1 334 11 is_stmt 0
	li	a1,1
	mv	a0,s0
	call	wpabuf_put
.LVL111:
	mv	s1,a0
.LVL112:
	.loc 1 335 5 is_stmt 1
.LBB54:
.LBB55:
	.loc 3 140 2
	.loc 3 140 12 is_stmt 0
	li	a1,4
	mv	a0,s0
	call	wpabuf_put
.LVL113:
	.loc 3 141 2 is_stmt 1
.LBB56:
.LBB57:
	.loc 2 166 2
	.loc 2 167 7 is_stmt 0
	li	a5,80
	sb	a5,1(a0)
	.loc 2 168 7
	li	a5,-14
	sb	a5,2(a0)
	.loc 2 169 7
	li	a5,4
	.loc 2 166 7
	sb	zero,0(a0)
	.loc 2 167 2 is_stmt 1
	.loc 2 168 2
	.loc 2 169 2
	.loc 2 169 7 is_stmt 0
	sb	a5,3(a0)
.LVL114:
.LBE57:
.LBE56:
.LBE55:
.LBE54:
	.loc 1 337 5 is_stmt 1
	.loc 1 337 9 is_stmt 0
	mv	a0,s0
	call	wps_build_version
.LVL115:
	.loc 1 337 8
	beq	a0,zero,.L95
.L96:
	.loc 1 340 9 is_stmt 1
	mv	a0,s0
	call	wpabuf_free
.LVL116:
	.loc 1 341 9
	.loc 1 341 15 is_stmt 0
	li	s0,0
.LVL117:
.L93:
	.loc 1 347 1
	lw	ra,12(sp)
	.cfi_remember_state
	.cfi_restore 1
	mv	a0,s0
	lw	s0,8(sp)
	.cfi_restore 8
	lw	s1,4(sp)
	.cfi_restore 9
	addi	sp,sp,16
	.cfi_def_cfa_offset 0
	jr	ra
.LVL118:
.L95:
	.cfi_restore_state
	.loc 1 338 9 discriminator 1
	li	a1,3
	mv	a0,s0
	call	wps_build_resp_type
.LVL119:
	.loc 1 337 31 discriminator 1
	bne	a0,zero,.L96
	.loc 1 339 9
	li	a3,0
	li	a2,0
	li	a1,0
	mv	a0,s0
	call	wps_build_wfa_ext
.LVL120:
	.loc 1 338 46
	bne	a0,zero,.L96
	.loc 1 344 5 is_stmt 1
.LVL121:
.LBB58:
.LBB59:
	.loc 3 61 2
.LBE59:
.LBE58:
	.loc 1 344 27 is_stmt 0
	lw	a5,4(s0)
	addi	a5,a5,-2
	.loc 1 344 10
	sb	a5,0(s1)
	.loc 1 346 5 is_stmt 1
	.loc 1 346 12 is_stmt 0
	j	.L93
	.cfi_endproc
.LFE88:
	.size	wps_build_assoc_resp_ie, .-wps_build_assoc_resp_ie
	.section	.text.wps_build_probe_req_ie,"ax",@progbits
	.align	1
	.globl	wps_build_probe_req_ie
	.type	wps_build_probe_req_ie, @function
wps_build_probe_req_ie:
.LFB89:
	.loc 1 369 1 is_stmt 1
	.cfi_startproc
.LVL122:
	.loc 1 370 5
	.loc 1 372 5
	.loc 1 372 9
	.loc 1 372 16
	.loc 1 374 5
	.loc 1 369 1 is_stmt 0
	addi	sp,sp,-32
	.cfi_def_cfa_offset 32
	sw	s5,4(sp)
	.cfi_offset 21, -28
	mv	s5,a0
	.loc 1 374 10
	li	a0,400
.LVL123:
	.loc 1 369 1
	sw	s1,20(sp)
	sw	s2,16(sp)
	sw	s3,12(sp)
	sw	s4,8(sp)
	sw	s6,0(sp)
	sw	ra,28(sp)
	sw	s0,24(sp)
	.cfi_offset 9, -12
	.cfi_offset 18, -16
	.cfi_offset 19, -20
	.cfi_offset 20, -24
	.cfi_offset 22, -32
	.cfi_offset 1, -4
	.cfi_offset 8, -8
	.loc 1 369 1
	mv	s1,a1
	mv	s6,a2
	mv	s2,a3
	mv	s3,a4
	mv	s4,a5
	.loc 1 374 10
	call	wpabuf_alloc
.LVL124:
	.loc 1 375 5 is_stmt 1
	.loc 1 375 8 is_stmt 0
	beq	a0,zero,.L101
	mv	s0,a0
	.loc 1 380 5 is_stmt 1
	.loc 1 380 9 is_stmt 0
	call	wps_build_version
.LVL125:
	.loc 1 380 8
	beq	a0,zero,.L103
.L104:
	.loc 1 400 9 is_stmt 1
	mv	a0,s0
	call	wpabuf_free
.LVL126:
	.loc 1 401 9
.L101:
	.loc 1 412 1 is_stmt 0
	lw	ra,28(sp)
	.cfi_remember_state
	.cfi_restore 1
	lw	s0,24(sp)
	.cfi_restore 8
	lw	s1,20(sp)
	.cfi_restore 9
.LVL127:
	lw	s2,16(sp)
	.cfi_restore 18
.LVL128:
	lw	s3,12(sp)
	.cfi_restore 19
.LVL129:
	lw	s4,8(sp)
	.cfi_restore 20
.LVL130:
	lw	s5,4(sp)
	.cfi_restore 21
	lw	s6,0(sp)
	.cfi_restore 22
.LVL131:
	li	a0,0
	addi	sp,sp,32
	.cfi_def_cfa_offset 0
	jr	ra
.LVL132:
.L103:
	.cfi_restore_state
	.loc 1 381 9 discriminator 1
	mv	a1,s2
	mv	a0,s0
	call	wps_build_req_type
.LVL133:
	.loc 1 380 31 discriminator 1
	bne	a0,zero,.L104
	.loc 1 382 9
	lhu	a1,86(s1)
	mv	a0,s0
	call	wps_build_config_methods
.LVL134:
	.loc 1 381 42
	bne	a0,zero,.L104
	.loc 1 383 9
	mv	a1,s6
	mv	a0,s0
	call	wps_build_uuid_e
.LVL135:
	.loc 1 382 59
	bne	a0,zero,.L104
	.loc 1 384 9
	mv	a1,s0
	mv	a0,s1
	call	wps_build_primary_dev_type
.LVL136:
	.loc 1 383 36
	bne	a0,zero,.L104
	.loc 1 385 9
	mv	a1,s0
	mv	a0,s1
	call	wps_build_rf_bands
.LVL137:
	.loc 1 384 45
	bne	a0,zero,.L104
	.loc 1 386 9
	mv	a1,s0
	call	wps_build_assoc_state
.LVL138:
	.loc 1 385 37
	bne	a0,zero,.L104
	.loc 1 387 9
	li	a1,0
	mv	a0,s0
	call	wps_build_config_error
.LVL139:
	.loc 1 386 40
	bne	a0,zero,.L104
	.loc 1 388 9
	mv	a1,s5
	mv	a0,s0
	call	wps_build_dev_password_id
.LVL140:
	.loc 1 387 54
	bne	a0,zero,.L104
	.loc 1 390 9
	mv	a1,s0
	mv	a0,s1
	call	wps_build_manufacturer
.LVL141:
	.loc 1 388 46
	bne	a0,zero,.L104
	.loc 1 391 9
	mv	a1,s0
	mv	a0,s1
	call	wps_build_model_name
.LVL142:
	.loc 1 390 41
	bne	a0,zero,.L104
	.loc 1 392 9
	mv	a1,s0
	mv	a0,s1
	call	wps_build_model_number
.LVL143:
	.loc 1 391 39
	bne	a0,zero,.L104
	.loc 1 393 9
	mv	a1,s0
	mv	a0,s1
	call	wps_build_dev_name
.LVL144:
	.loc 1 392 41
	bne	a0,zero,.L104
	.loc 1 394 9
	addi	a1,s2,-1
	li	a3,0
	li	a2,0
	seqz	a1,a1
	mv	a0,s0
	call	wps_build_wfa_ext
.LVL145:
	.loc 1 393 37
	bne	a0,zero,.L104
	.loc 1 396 9
	mv	a3,s4
	mv	a2,s3
	mv	a1,s0
	mv	a0,s1
	call	wps_build_req_dev_type
.LVL146:
	.loc 1 394 69
	bne	a0,zero,.L104
	.loc 1 398 9
	mv	a1,s0
	mv	a0,s1
	call	wps_build_secondary_dev_type
.LVL147:
	.loc 1 397 9
	bne	a0,zero,.L104
	.loc 1 411 5 is_stmt 1
	.loc 1 411 12 is_stmt 0
	mv	a0,s0
	.loc 1 412 1
	lw	s0,24(sp)
	.cfi_restore 8
.LVL148:
	lw	ra,28(sp)
	.cfi_restore 1
	lw	s1,20(sp)
	.cfi_restore 9
.LVL149:
	lw	s2,16(sp)
	.cfi_restore 18
.LVL150:
	lw	s3,12(sp)
	.cfi_restore 19
.LVL151:
	lw	s4,8(sp)
	.cfi_restore 20
.LVL152:
	lw	s5,4(sp)
	.cfi_restore 21
	lw	s6,0(sp)
	.cfi_restore 22
.LVL153:
	addi	sp,sp,32
	.cfi_def_cfa_offset 0
	.loc 1 411 12
	tail	wps_ie_encapsulate
.LVL154:
	.cfi_endproc
.LFE89:
	.size	wps_build_probe_req_ie, .-wps_build_probe_req_ie
	.section	.rodata.wps_attr_text.str1.4,"aMS",@progbits,1
	.align	2
.LC0:
	.string	"wps_state=unconfigured\n"
	.align	2
.LC1:
	.string	"wps_state=configured\n"
	.align	2
.LC2:
	.string	"wps_ap_setup_locked=1\n"
	.align	2
.LC3:
	.string	"wps_selected_registrar=1\n"
	.align	2
.LC4:
	.string	"wps_device_password_id=%u\n"
	.align	2
.LC5:
	.string	"wps_selected_registrar_config_methods=0x%04x\n"
	.align	2
.LC6:
	.string	"wps_primary_device_type=%s\n"
	.align	2
.LC7:
	.string	"wps_device_name=%s\n"
	.align	2
.LC8:
	.string	"wps_config_methods=0x%04x\n"
	.section	.text.wps_attr_text,"ax",@progbits
	.align	1
	.globl	wps_attr_text
	.type	wps_attr_text, @function
wps_attr_text:
.LFB90:
	.loc 1 431 1 is_stmt 1
	.cfi_startproc
.LVL155:
	.loc 1 432 5
	.loc 1 433 5
	.loc 1 431 1 is_stmt 0
	addi	sp,sp,-64
	.cfi_def_cfa_offset 64
	sw	s0,56(sp)
	sw	s3,44(sp)
	.cfi_offset 8, -8
	.cfi_offset 19, -20
	mv	s0,a0
	mv	s3,a1
.LVL156:
	.loc 1 434 5 is_stmt 1
	.loc 1 436 5
	.loc 1 436 37 is_stmt 0
	li	a0,1
.LVL157:
	li	a1,500
.LVL158:
	.loc 1 431 1
	sw	s1,52(sp)
	sw	s4,40(sp)
	sw	ra,60(sp)
	sw	s2,48(sp)
	sw	s5,36(sp)
	sw	s6,32(sp)
	.cfi_offset 9, -12
	.cfi_offset 20, -24
	.cfi_offset 1, -4
	.cfi_offset 18, -16
	.cfi_offset 21, -28
	.cfi_offset 22, -32
	.loc 1 431 1
	mv	s4,a2
	.loc 1 436 37
	call	wpa_supplicant_zalloc
.LVL159:
	.loc 1 437 5 is_stmt 1
	.loc 1 438 16 is_stmt 0
	li	s1,-99
	.loc 1 437 8
	beq	a0,zero,.L109
	.loc 1 440 9
	mv	a1,a0
	mv	s2,a0
	.loc 1 440 5 is_stmt 1
	.loc 1 440 9 is_stmt 0
	mv	a0,s0
.LVL160:
	call	wps_parse_msg
.LVL161:
	.loc 1 441 13
	li	s1,-1
	.loc 1 440 8
	blt	a0,zero,.L111
	.loc 1 445 5 is_stmt 1
	.loc 1 445 13 is_stmt 0
	lw	a5,72(s2)
	.loc 1 445 8
	beq	a5,zero,.L145
	.loc 1 446 9 is_stmt 1
	.loc 1 446 13 is_stmt 0
	lbu	a5,0(a5)
	.loc 1 446 12
	li	a4,1
	.loc 1 447 37
	sub	s0,s4,s3
.LVL162:
	.loc 1 446 12
	bne	a5,a4,.L113
	.loc 1 447 13 is_stmt 1
	.loc 1 447 19 is_stmt 0
	lui	a2,%hi(.LC0)
	addi	a2,a2,%lo(.LC0)
.L175:
	.loc 1 450 19
	mv	a1,s0
	mv	a0,s3
	call	snprintf
.LVL163:
	.loc 1 454 9 is_stmt 1
	.loc 1 454 12 is_stmt 0
	bge	a0,zero,.L115
.LVL164:
.L116:
	.loc 1 455 17
	li	s1,0
.LVL165:
.L111:
	.loc 1 554 5 is_stmt 1
	.loc 1 555 9
	mv	a0,s2
	call	wpa_supplicant_free
.LVL166:
	.loc 1 556 5
.L109:
	.loc 1 557 1 is_stmt 0
	lw	ra,60(sp)
	.cfi_remember_state
	.cfi_restore 1
	lw	s0,56(sp)
	.cfi_restore 8
	lw	s2,48(sp)
	.cfi_restore 18
	lw	s3,44(sp)
	.cfi_restore 19
.LVL167:
	lw	s4,40(sp)
	.cfi_restore 20
	lw	s5,36(sp)
	.cfi_restore 21
	lw	s6,32(sp)
	.cfi_restore 22
	mv	a0,s1
	lw	s1,52(sp)
	.cfi_restore 9
	addi	sp,sp,64
	.cfi_def_cfa_offset 0
	jr	ra
.LVL168:
.L113:
	.cfi_restore_state
	.loc 1 449 14 is_stmt 1
	.loc 1 449 17 is_stmt 0
	li	a4,2
	.loc 1 453 17
	li	a0,0
	.loc 1 449 17
	bne	a5,a4,.L115
	.loc 1 450 13 is_stmt 1
	.loc 1 450 19 is_stmt 0
	lui	a2,%hi(.LC1)
	addi	a2,a2,%lo(.LC1)
	j	.L175
.L115:
	.loc 1 454 21 discriminator 1
	bge	a0,s0,.L116
	.loc 1 458 9 is_stmt 1
	.loc 1 458 13 is_stmt 0
	add	s0,s3,a0
.LVL169:
.L112:
	.loc 1 461 5 is_stmt 1
	.loc 1 461 13 is_stmt 0
	lw	a5,156(s2)
	.loc 1 461 8
	beq	a5,zero,.L117
	.loc 1 461 31 discriminator 1
	lbu	a5,0(a5)
	beq	a5,zero,.L117
	.loc 1 462 9 is_stmt 1
	.loc 1 462 33 is_stmt 0
	sub	s1,s4,s0
	.loc 1 462 15
	lui	a2,%hi(.LC2)
	addi	a2,a2,%lo(.LC2)
	mv	a1,s1
	mv	a0,s0
	call	snprintf
.LVL170:
	.loc 1 464 9 is_stmt 1
	.loc 1 464 12 is_stmt 0
	blt	a0,zero,.L140
	.loc 1 464 21 discriminator 1
	bgt	s1,a0,.L119
.LVL171:
.L140:
	.loc 1 552 5 is_stmt 1
	.loc 1 552 9 is_stmt 0
	sub	s1,s0,s3
.LVL172:
	j	.L111
.LVL173:
.L145:
	.loc 1 433 11
	mv	s0,s3
.LVL174:
	j	.L112
.LVL175:
.L119:
	.loc 1 468 9 is_stmt 1
	.loc 1 468 13 is_stmt 0
	add	s0,s0,a0
.LVL176:
.L117:
	.loc 1 471 5 is_stmt 1
	.loc 1 471 13 is_stmt 0
	lw	a5,144(s2)
	.loc 1 471 8
	beq	a5,zero,.L120
	.loc 1 471 34 discriminator 1
	lbu	a5,0(a5)
	beq	a5,zero,.L120
	.loc 1 472 9 is_stmt 1
	.loc 1 472 33 is_stmt 0
	sub	s1,s4,s0
	.loc 1 472 15
	lui	a2,%hi(.LC3)
	addi	a2,a2,%lo(.LC3)
	mv	a1,s1
	mv	a0,s0
	call	snprintf
.LVL177:
	.loc 1 474 9 is_stmt 1
	.loc 1 474 12 is_stmt 0
	blt	a0,zero,.L140
	.loc 1 474 21 discriminator 1
	ble	s1,a0,.L140
	.loc 1 478 9 is_stmt 1
	.loc 1 478 13 is_stmt 0
	add	s0,s0,a0
.LVL178:
.L120:
	.loc 1 481 5 is_stmt 1
	.loc 1 481 13 is_stmt 0
	lw	a5,64(s2)
	.loc 1 481 8
	beq	a5,zero,.L123
	.loc 1 482 9 is_stmt 1
	.loc 1 482 15 is_stmt 0
	lbu	a3,1(a5)
	lbu	a4,0(a5)
	.loc 1 482 33
	sub	s1,s4,s0
.LVL179:
	.loc 2 127 2 is_stmt 1
	.loc 1 482 15 is_stmt 0
	slli	a3,a3,8
	or	a3,a3,a4
	slli	a5,a3,8
	srli	a3,a3,8
	or	a3,a5,a3
	slli	a3,a3,16
	lui	a2,%hi(.LC4)
	srli	a3,a3,16
	addi	a2,a2,%lo(.LC4)
	mv	a1,s1
	mv	a0,s0
	call	snprintf
.LVL180:
	.loc 1 485 9 is_stmt 1
	.loc 1 485 12 is_stmt 0
	blt	a0,zero,.L140
	.loc 1 485 21 discriminator 1
	ble	s1,a0,.L140
	.loc 1 489 9 is_stmt 1
	.loc 1 489 13 is_stmt 0
	add	s0,s0,a0
.LVL181:
.L123:
	.loc 1 492 5 is_stmt 1
	.loc 1 492 13 is_stmt 0
	lw	a5,44(s2)
	.loc 1 492 8
	beq	a5,zero,.L126
	.loc 1 493 9 is_stmt 1
	.loc 1 493 15 is_stmt 0
	lbu	a3,1(a5)
	lbu	a4,0(a5)
	.loc 1 493 33
	sub	s1,s4,s0
.LVL182:
	.loc 2 127 2 is_stmt 1
	.loc 1 493 15 is_stmt 0
	slli	a3,a3,8
	or	a3,a3,a4
	slli	a5,a3,8
	srli	a3,a3,8
	or	a3,a5,a3
	slli	a3,a3,16
	lui	a2,%hi(.LC5)
	srli	a3,a3,16
	addi	a2,a2,%lo(.LC5)
	mv	a1,s1
	mv	a0,s0
	call	snprintf
.LVL183:
	.loc 1 497 9 is_stmt 1
	.loc 1 497 12 is_stmt 0
	blt	a0,zero,.L140
	.loc 1 497 21 discriminator 1
	ble	s1,a0,.L140
	.loc 1 501 9 is_stmt 1
	.loc 1 501 13 is_stmt 0
	add	s0,s0,a0
.LVL184:
.L126:
	.loc 1 504 5 is_stmt 1
	.loc 1 504 13 is_stmt 0
	lw	a0,48(s2)
	.loc 1 504 8
	beq	a0,zero,.L129
.LBB60:
	.loc 1 505 9 is_stmt 1
	.loc 1 506 9
	.loc 1 506 15 is_stmt 0
	li	a2,21
	addi	a1,sp,8
	call	wps_dev_type_bin2str
.LVL185:
	.loc 1 506 33
	sub	s1,s4,s0
	.loc 1 506 15
	lui	a2,%hi(.LC6)
	mv	a3,a0
	addi	a2,a2,%lo(.LC6)
	mv	a1,s1
	mv	a0,s0
	call	snprintf
.LVL186:
	.loc 1 511 9 is_stmt 1
	.loc 1 511 12 is_stmt 0
	blt	a0,zero,.L140
	.loc 1 511 21 discriminator 1
	ble	s1,a0,.L140
	.loc 1 515 9 is_stmt 1
	.loc 1 515 13 is_stmt 0
	add	s0,s0,a0
.LVL187:
.L129:
.LBE60:
	.loc 1 518 5 is_stmt 1
	.loc 1 518 8 is_stmt 0
	lw	a5,208(s2)
	beq	a5,zero,.L132
.LBB61:
	.loc 1 519 9 is_stmt 1
	.loc 1 519 29 is_stmt 0
	lw	a0,212(s2)
	.loc 1 522 17
	sub	s1,s0,s3
	.loc 1 519 29
	addi	a0,a0,1
	call	wpa_supplicant_malloc
.LVL188:
	mv	s5,a0
.LVL189:
	.loc 1 520 9 is_stmt 1
	.loc 1 521 9
	.loc 1 521 12 is_stmt 0
	beq	a0,zero,.L111
	mv	a5,a0
	.loc 1 525 16
	li	a4,0
	.loc 1 526 16
	li	a2,31
	.loc 1 527 24
	li	a1,95
.L134:
.LVL190:
	.loc 1 525 21 is_stmt 1 discriminator 1
	.loc 1 525 9 is_stmt 0 discriminator 1
	lw	a3,212(s2)
	bgtu	a3,a4,.L137
	.loc 1 531 9 is_stmt 1
	.loc 1 532 33 is_stmt 0
	sub	s6,s4,s0
	.loc 1 532 15
	lui	a2,%hi(.LC7)
	.loc 1 531 16
	sb	zero,0(a5)
	.loc 1 532 9 is_stmt 1
	.loc 1 532 15 is_stmt 0
	mv	a3,s5
	addi	a2,a2,%lo(.LC7)
	mv	a1,s6
	mv	a0,s0
.LVL191:
	call	snprintf
.LVL192:
	mv	s1,a0
.LVL193:
	.loc 1 533 9 is_stmt 1
	mv	a0,s5
	call	wpa_supplicant_free
.LVL194:
	.loc 1 534 9
	.loc 1 534 12 is_stmt 0
	blt	s1,zero,.L140
	.loc 1 534 21 discriminator 1
	ble	s6,s1,.L140
	.loc 1 538 9 is_stmt 1
	.loc 1 538 13 is_stmt 0
	add	s0,s0,s1
.LVL195:
.L132:
.LBE61:
	.loc 1 541 5 is_stmt 1
	.loc 1 541 13 is_stmt 0
	lw	a5,40(s2)
	.loc 1 541 8
	beq	a5,zero,.L140
	.loc 1 542 9 is_stmt 1
	.loc 1 542 15 is_stmt 0
	lbu	a3,1(a5)
	lbu	a4,0(a5)
	.loc 1 542 33
	sub	s4,s4,s0
.LVL196:
	.loc 2 127 2 is_stmt 1
	.loc 1 542 15 is_stmt 0
	slli	a3,a3,8
	or	a3,a3,a4
	slli	a5,a3,8
	srli	a3,a3,8
	or	a3,a5,a3
	slli	a3,a3,16
	lui	a2,%hi(.LC8)
	srli	a3,a3,16
	addi	a2,a2,%lo(.LC8)
	mv	a1,s4
	mv	a0,s0
	call	snprintf
.LVL197:
	.loc 1 545 9 is_stmt 1
	.loc 1 545 12 is_stmt 0
	blt	a0,zero,.L140
	.loc 1 545 21 discriminator 1
	ble	s4,a0,.L140
	.loc 1 549 9 is_stmt 1
	.loc 1 549 13 is_stmt 0
	add	s0,s0,a0
.LVL198:
	j	.L140
.LVL199:
.L137:
.LBB62:
	.loc 1 526 13 is_stmt 1
	.loc 1 526 31 is_stmt 0
	lw	a3,208(s2)
	add	a3,a3,a4
	lbu	a3,0(a3)
	.loc 1 526 16
	bgtu	a3,a2,.L135
	.loc 1 527 17 is_stmt 1
	.loc 1 527 24 is_stmt 0
	sb	a1,0(a5)
.L136:
	.loc 1 525 45 is_stmt 1 discriminator 2
	.loc 1 525 46 is_stmt 0 discriminator 2
	addi	a4,a4,1
.LVL200:
	addi	a5,a5,1
	j	.L134
.L135:
	.loc 1 529 17 is_stmt 1
	.loc 1 529 24 is_stmt 0
	sb	a3,0(a5)
	j	.L136
.LBE62:
	.cfi_endproc
.LFE90:
	.size	wps_attr_text, .-wps_attr_text
	.text
.Letext0:
	.file 4 "/mnt/d/GitHub/bl_iot_sdk_for_aithinker/toolchain/riscv/Linux/lib/gcc/riscv64-unknown-elf/10.2.0/include/stddef.h"
	.file 5 "/mnt/d/GitHub/bl_iot_sdk_for_aithinker/toolchain/riscv/Linux/riscv64-unknown-elf/include/machine/_default_types.h"
	.file 6 "/mnt/d/GitHub/bl_iot_sdk_for_aithinker/toolchain/riscv/Linux/riscv64-unknown-elf/include/sys/_stdint.h"
	.file 7 "/mnt/d/GitHub/bl_iot_sdk_for_aithinker/components/network/wifi/include/supplicant_api.h"
	.file 8 "/mnt/d/GitHub/bl_iot_sdk_for_aithinker/components/platform/soc/bl602/freertos_riscv_ram/config/projdefs.h"
	.file 9 "/mnt/d/GitHub/bl_iot_sdk_for_aithinker/components/platform/soc/bl602/freertos_riscv_ram/portable/GCC/RISC-V/portmacro.h"
	.file 10 "/mnt/d/GitHub/bl_iot_sdk_for_aithinker/components/platform/soc/bl602/freertos_riscv_ram/config/FreeRTOS.h"
	.file 11 "/mnt/d/GitHub/bl_iot_sdk_for_aithinker/components/platform/soc/bl602/freertos_riscv_ram/config/task.h"
	.file 12 "/mnt/d/GitHub/bl_iot_sdk_for_aithinker/components/platform/soc/bl602/freertos_riscv_ram/config/queue.h"
	.file 13 "/mnt/d/GitHub/bl_iot_sdk_for_aithinker/components/platform/soc/bl602/freertos_riscv_ram/config/timers.h"
	.file 14 "/mnt/d/GitHub/bl_iot_sdk_for_aithinker/components/security/wpa_supplicant/src/wps/wps_defs.h"
	.file 15 "/mnt/d/GitHub/bl_iot_sdk_for_aithinker/components/security/wpa_supplicant/include/bl_supplicant/bl_wps.h"
	.file 16 "/mnt/d/GitHub/bl_iot_sdk_for_aithinker/components/security/wpa_supplicant/src/wps/wps.h"
	.file 17 "/mnt/d/GitHub/bl_iot_sdk_for_aithinker/components/security/wpa_supplicant/src/wps/wps_i.h"
	.file 18 "/mnt/d/GitHub/bl_iot_sdk_for_aithinker/components/security/wpa_supplicant/src/wps/wps_attr_parse.h"
	.file 19 "/mnt/d/GitHub/bl_iot_sdk_for_aithinker/toolchain/riscv/Linux/riscv64-unknown-elf/include/stdio.h"
	.file 20 "/mnt/d/GitHub/bl_iot_sdk_for_aithinker/components/security/wpa_supplicant/port/include/os.h"
	.file 21 "/mnt/d/GitHub/bl_iot_sdk_for_aithinker/components/security/wpa_supplicant/src/wps/wps_dev_attr.h"
	.file 22 "/mnt/d/GitHub/bl_iot_sdk_for_aithinker/toolchain/riscv/Linux/riscv64-unknown-elf/include/string.h"