	.file	"wps_common.c"
	.option nopic
	.attribute arch, "rv32i2p0_m2p0_f2p0_c2p0"
	.attribute unaligned_access, 0
	.attribute stack_align, 16
	.text
.Ltext0:
	.cfi_sections	.debug_frame
	.section	.text.wps_kdf,"ax",@progbits
	.align	1
	.globl	wps_kdf
	.type	wps_kdf, @function
wps_kdf:
.LFB69:
	.file 1 "/mnt/d/GitHub/bl_iot_sdk_for_aithinker/components/security/wpa_supplicant/src/wps/wps_common.c"
	.loc 1 24 1
	.cfi_startproc
.LVL0:
	.loc 1 25 2
	.loc 1 26 2
	.loc 1 27 2
	.loc 1 28 2
	.loc 1 29 2
	.loc 1 30 2
	.loc 1 32 2
	.loc 1 24 1 is_stmt 0
	addi	sp,sp,-112
	.cfi_def_cfa_offset 112
	sw	s1,100(sp)
	.cfi_offset 9, -12
	mv	s1,a5
	.loc 1 32 33
	slli	a5,a5,3
.LVL1:
.LBB24:
.LBB25:
	.file 2 "/mnt/d/GitHub/bl_iot_sdk_for_aithinker/components/security/wpa_supplicant/src/utils/common.h"
	.loc 2 166 2 is_stmt 1
.LBE25:
.LBE24:
	.loc 1 24 1 is_stmt 0
	sw	s2,96(sp)
	.cfi_offset 18, -16
	mv	s2,a4
.LBB28:
.LBB26:
	.loc 2 166 14
	srli	a4,a5,24
.LVL2:
	.loc 2 166 7
	sb	a4,12(sp)
	.loc 2 167 2 is_stmt 1
	.loc 2 167 14 is_stmt 0
	srli	a4,a5,16
	.loc 2 168 7
	slli	a5,a5,16
.LVL3:
	srli	a5,a5,16
	.loc 2 167 7
	sb	a4,13(sp)
	.loc 2 168 2 is_stmt 1
	.loc 2 169 2
	.loc 2 168 7 is_stmt 0
	srli	a5,a5,8
	slli	a4,s1,11
	or	a5,a4,a5
.LBE26:
.LBE28:
	.loc 1 24 1
	sw	s0,104(sp)
	sw	s4,88(sp)
	.cfi_offset 8, -8
	.cfi_offset 20, -24
	.loc 1 35 9
	li	s0,4
.LBB29:
.LBB27:
	.loc 2 168 7
	sh	a5,14(sp)
.LVL4:
.LBE27:
.LBE29:
	.loc 1 34 2 is_stmt 1
	.loc 1 24 1 is_stmt 0
	mv	s4,a0
	.loc 1 34 10
	addi	a5,sp,8
	.loc 1 24 1
	mv	a0,a3
.LVL5:
	sw	s3,92(sp)
	.loc 1 34 10
	sw	a5,16(sp)
	.loc 1 35 2 is_stmt 1
	.loc 1 35 9 is_stmt 0
	sw	s0,32(sp)
	.loc 1 36 2 is_stmt 1
	.loc 1 24 1 is_stmt 0
	sw	ra,108(sp)
	.cfi_offset 19, -20
	.cfi_offset 1, -4
	.loc 1 36 10
	sw	a1,20(sp)
	.loc 1 37 2 is_stmt 1
	.loc 1 37 9 is_stmt 0
	sw	a2,36(sp)
	.loc 1 38 2 is_stmt 1
	.loc 1 38 10 is_stmt 0
	sw	a3,24(sp)
	.loc 1 39 2 is_stmt 1
	.loc 1 39 11 is_stmt 0
	call	strlen
.LVL6:
	.loc 1 40 10
	addi	a5,sp,12
	.loc 1 43 23
	addi	s3,s1,31
	.loc 1 41 9
	sw	s0,44(sp)
	.loc 1 39 9
	sw	a0,40(sp)
	.loc 1 40 2 is_stmt 1
	.loc 1 40 10 is_stmt 0
	sw	a5,28(sp)
	.loc 1 41 2 is_stmt 1
	.loc 1 43 2
	.loc 1 43 28 is_stmt 0
	srli	s3,s3,5
.LVL7:
	.loc 1 44 2 is_stmt 1
	.loc 1 45 2
	.loc 1 47 2
	.loc 1 47 9 is_stmt 0
	li	s0,1
.LVL8:
.L2:
	.loc 1 47 14 is_stmt 1 discriminator 1
	.loc 1 47 2 is_stmt 0 discriminator 1
	ble	s0,s3,.L5
	.loc 1 57 1
	lw	ra,108(sp)
	.cfi_remember_state
	.cfi_restore 1
	lw	s0,104(sp)
	.cfi_restore 8
.LVL9:
	lw	s1,100(sp)
	.cfi_restore 9
.LVL10:
	lw	s2,96(sp)
	.cfi_restore 18
.LVL11:
	lw	s3,92(sp)
	.cfi_restore 19
.LVL12:
	lw	s4,88(sp)
	.cfi_restore 20
.LVL13:
	addi	sp,sp,112
	.cfi_def_cfa_offset 0
	jr	ra
.LVL14:
.L5:
	.cfi_restore_state
	.loc 1 48 3 is_stmt 1
.LBB30:
.LBB31:
	.loc 2 166 2
	.loc 2 166 14 is_stmt 0
	srli	a5,s0,24
	.loc 2 168 7
	slli	a4,s0,16
	.loc 2 166 7
	sb	a5,8(sp)
	.loc 2 167 2 is_stmt 1
	.loc 2 168 7 is_stmt 0
	srli	a4,a4,16
	.loc 2 167 14
	srli	a5,s0,16
	.loc 2 168 7
	srli	a4,a4,8
	.loc 2 167 7
	sb	a5,9(sp)
	.loc 2 168 2 is_stmt 1
	.loc 2 169 2
	.loc 2 168 7 is_stmt 0
	slli	a5,s0,8
	or	a5,a5,a4
	sh	a5,10(sp)
.LVL15:
.LBE31:
.LBE30:
	.loc 1 49 3 is_stmt 1
	addi	a4,sp,32
	addi	a5,sp,48
	addi	a3,sp,16
	li	a2,4
	li	a1,32
	mv	a0,s4
	call	hmac_sha256_vector
.LVL16:
	.loc 1 50 3
	.loc 1 50 6 is_stmt 0
	bge	s0,s3,.L3
	.loc 1 51 4 is_stmt 1
	mv	a0,s2
	li	a2,32
	addi	a1,sp,48
	call	memcpy
.LVL17:
	.loc 1 52 4
	.loc 1 52 9 is_stmt 0
	addi	s2,s2,32
.LVL18:
	.loc 1 53 4 is_stmt 1
	.loc 1 53 9 is_stmt 0
	addi	s1,s1,-32
.LVL19:
.L4:
	.loc 1 47 25 is_stmt 1 discriminator 2
	.loc 1 47 26 is_stmt 0 discriminator 2
	addi	s0,s0,1
.LVL20:
	j	.L2
.L3:
	.loc 1 55 4 is_stmt 1
	mv	a2,s1
	addi	a1,sp,48
	mv	a0,s2
	call	memcpy
.LVL21:
	j	.L4
	.cfi_endproc
.LFE69:
	.size	wps_kdf, .-wps_kdf
	.section	.rodata.wps_derive_keys.str1.4,"aMS",@progbits,1
	.align	2
.LC0:
	.string	"Wi-Fi Easy and Secure Key Derivation"
	.section	.text.wps_derive_keys,"ax",@progbits
	.align	1
	.globl	wps_derive_keys
	.type	wps_derive_keys, @function
wps_derive_keys:
.LFB70:
	.loc 1 61 1
	.cfi_startproc
.LVL22:
	.loc 1 62 2
	.loc 1 63 2
	.loc 1 64 2
	.loc 1 65 2
	.loc 1 66 2
	.loc 1 68 2
	.loc 1 68 9 is_stmt 0
	lw	a2,216(a0)
	.loc 1 68 5
	bne	a2,zero,.L8
	.loc 1 70 10
	li	a0,-1
.LVL23:
	.loc 1 134 1
	ret
.LVL24:
.L12:
	.cfi_def_cfa_offset 192
	.cfi_offset 1, -4
	.cfi_offset 8, -8
	.cfi_offset 9, -12
	.loc 1 70 10
	li	a0,-1
.L7:
	.loc 1 134 1
	lw	ra,188(sp)
	.cfi_restore 1
	lw	s0,184(sp)
	.cfi_restore 8
.LVL25:
	lw	s1,180(sp)
	.cfi_restore 9
	addi	sp,sp,192
	.cfi_def_cfa_offset 0
	jr	ra
.LVL26:
.L8:
	.loc 1 61 1
	addi	sp,sp,-192
	.cfi_def_cfa_offset 192
	sw	s0,184(sp)
	sw	ra,188(sp)
	sw	s1,180(sp)
	.cfi_offset 8, -8
	.cfi_offset 1, -4
	.cfi_offset 9, -12
	.loc 1 73 45
	lw	a5,4(a0)
	mv	s0,a0
	.loc 1 73 2 is_stmt 1
	.loc 1 73 45 is_stmt 0
	beq	a5,zero,.L10
.LVL27:
	.loc 1 73 45 discriminator 1
	lw	a1,220(a0)
.L11:
.LVL28:
	.loc 1 74 2 is_stmt 1 discriminator 4
	.loc 1 74 5 is_stmt 0 discriminator 4
	beq	a1,zero,.L12
	.loc 1 79 2 is_stmt 1
	.loc 1 79 6
	.loc 1 79 13
	.loc 1 80 2
	.loc 1 80 6
	.loc 1 80 13
	.loc 1 81 2
	.loc 1 81 14 is_stmt 0
	lw	a0,632(s0)
	call	dh5_derive_shared
.LVL29:
	mv	s1,a0
.LVL30:
	.loc 1 82 2 is_stmt 1
	lw	a0,632(s0)
	call	dh5_free
.LVL31:
	.loc 1 83 2
	.loc 1 84 14 is_stmt 0
	mv	a0,s1
	.loc 1 83 14
	sw	zero,632(s0)
	.loc 1 84 2 is_stmt 1
	.loc 1 84 14 is_stmt 0
	li	a1,192
	call	wpabuf_zeropad
.LVL32:
	mv	s1,a0
.LVL33:
	.loc 1 85 2 is_stmt 1
	.loc 1 85 5 is_stmt 0
	beq	a0,zero,.L12
	.loc 1 96 2 is_stmt 1
	lw	a0,216(s0)
	call	wpabuf_free
.LVL34:
	.loc 1 97 2
	.loc 1 97 18 is_stmt 0
	sw	zero,216(s0)
	.loc 1 100 2 is_stmt 1
	.loc 1 100 6
	.loc 1 100 13
	.loc 1 103 2
.LVL35:
.LBB36:
.LBB37:
	.file 3 "/mnt/d/GitHub/bl_iot_sdk_for_aithinker/components/security/wpa_supplicant/include/utils/wpabuf.h"
	.loc 3 81 2
	.loc 3 81 9 is_stmt 0
	lw	a5,8(s1)
	.loc 3 81 5
	bne	a5,zero,.L13
	.loc 3 83 2 is_stmt 1
	.loc 3 83 13 is_stmt 0
	addi	a5,s1,12
.L13:
.LVL36:
.LBE37:
.LBE36:
	.loc 1 103 10
	sw	a5,8(sp)
	.loc 1 104 2 is_stmt 1
.LVL37:
.LBB38:
.LBB39:
	.loc 3 61 2
.LBE39:
.LBE38:
	.loc 1 104 9 is_stmt 0
	lw	a5,4(s1)
	.loc 1 106 2
	addi	a3,sp,32
	addi	a2,sp,20
	addi	a1,sp,8
	li	a0,1
	.loc 1 104 9
	sw	a5,20(sp)
	.loc 1 106 2 is_stmt 1
	call	sha256_vector
.LVL38:
	.loc 1 107 2
	.loc 1 107 6
	.loc 1 107 13
	.loc 1 108 2
	mv	a0,s1
	call	wpabuf_free
.LVL39:
	.loc 1 111 2
	.loc 1 113 12 is_stmt 0
	addi	a4,s0,48
	.loc 1 111 12
	addi	a5,s0,54
	.loc 1 113 10
	sw	a4,12(sp)
	.loc 1 114 9
	li	a4,6
	.loc 1 111 10
	sw	a5,8(sp)
	.loc 1 112 2 is_stmt 1
	.loc 1 114 9 is_stmt 0
	sw	a4,24(sp)
	.loc 1 112 9
	li	a5,16
	.loc 1 115 12
	addi	a4,s0,70
	.loc 1 112 9
	sw	a5,20(sp)
	.loc 1 113 2 is_stmt 1
	.loc 1 114 2
	.loc 1 115 2
	.loc 1 115 10 is_stmt 0
	sw	a4,16(sp)
	.loc 1 116 2 is_stmt 1
	.loc 1 116 9 is_stmt 0
	sw	a5,28(sp)
	.loc 1 117 2 is_stmt 1
	addi	a4,sp,20
	addi	a5,sp,64
	addi	a3,sp,8
	li	a2,3
	li	a1,32
	addi	a0,sp,32
	call	hmac_sha256_vector
.LVL40:
	.loc 1 118 2
	.loc 1 118 6
	.loc 1 118 13
	.loc 1 120 2
	lui	a3,%hi(.LC0)
	li	a5,80
	addi	a4,sp,96
	addi	a3,a3,%lo(.LC0)
	li	a2,0
	li	a1,0
	addi	a0,sp,64
	call	wps_kdf
.LVL41:
	.loc 1 122 2
	li	a2,32
	addi	a1,sp,96
	addi	a0,s0,228
	call	memcpy
.LVL42:
	.loc 1 123 2
	li	a2,16
	addi	a1,sp,128
	addi	a0,s0,260
	call	memcpy
.LVL43:
	.loc 1 124 2
	li	a2,32
	addi	a1,sp,144
	addi	a0,s0,276
	call	memcpy
.LVL44:
	.loc 1 127 2
	.loc 1 127 6
	.loc 1 127 13
	.loc 1 129 2
	.loc 1 129 6
	.loc 1 129 13
	.loc 1 131 2
	.loc 1 131 6
	.loc 1 131 13
	.loc 1 133 2
	.loc 1 133 9 is_stmt 0
	li	a0,0
	j	.L7
.LVL45:
.L10:
	.loc 1 73 45 discriminator 2
	lw	a1,224(a0)
	j	.L11
	.cfi_endproc
.LFE70:
	.size	wps_derive_keys, .-wps_derive_keys
	.section	.text.wps_derive_psk,"ax",@progbits
	.align	1
	.globl	wps_derive_psk
	.type	wps_derive_psk, @function
wps_derive_psk:
.LFB71:
	.loc 1 139 1 is_stmt 1
	.cfi_startproc
.LVL46:
	.loc 1 140 2
	.loc 1 142 2
	.loc 1 139 1 is_stmt 0
	addi	sp,sp,-64
	.cfi_def_cfa_offset 64
	sw	s1,52(sp)
	.cfi_offset 9, -12
	.loc 1 143 48
	addi	s1,a2,1
	.loc 1 139 1
	sw	s4,40(sp)
	.loc 1 142 2
	srli	s1,s1,1
	.cfi_offset 20, -24
	.loc 1 142 17
	addi	s4,a0,228
	.loc 1 139 1
	sw	s0,56(sp)
	sw	s2,48(sp)
	sw	s3,44(sp)
	.cfi_offset 8, -8
	.cfi_offset 18, -16
	.cfi_offset 19, -20
	mv	s0,a0
	.loc 1 142 2
	mv	a4,sp
	mv	a3,s1
	.loc 1 139 1
	mv	s2,a1
	mv	s3,a2
	.loc 1 142 2
	mv	a0,s4
.LVL47:
	mv	a2,a1
.LVL48:
	li	a1,32
.LVL49:
	.loc 1 139 1
	sw	ra,60(sp)
	.cfi_offset 1, -4
	.loc 1 142 2
	call	hmac_sha256
.LVL50:
	.loc 1 144 2 is_stmt 1
	mv	a1,sp
	li	a2,16
	addi	a0,s0,86
	call	memcpy
.LVL51:
	.loc 1 145 2
	add	a2,s2,s1
	mv	a4,sp
	srli	a3,s3,1
	li	a1,32
	mv	a0,s4
	call	hmac_sha256
.LVL52:
	.loc 1 148 2
	mv	a1,sp
	addi	a0,s0,102
	li	a2,16
	call	memcpy
.LVL53:
	.loc 1 150 2
	.loc 1 150 6
	.loc 1 150 13
	.loc 1 152 2
	.loc 1 152 6
	.loc 1 152 13
	.loc 1 153 2
	.loc 1 153 6
	.loc 1 153 13
	.loc 1 154 1 is_stmt 0
	lw	ra,60(sp)
	.cfi_restore 1
	lw	s0,56(sp)
	.cfi_restore 8
.LVL54:
	lw	s1,52(sp)
	.cfi_restore 9
	lw	s2,48(sp)
	.cfi_restore 18
.LVL55:
	lw	s3,44(sp)
	.cfi_restore 19
.LVL56:
	lw	s4,40(sp)
	.cfi_restore 20
.LVL57:
	addi	sp,sp,64
	.cfi_def_cfa_offset 0
	jr	ra
	.cfi_endproc
.LFE71:
	.size	wps_derive_psk, .-wps_derive_psk
	.section	.text.wps_decrypt_encr_settings,"ax",@progbits
	.align	1
	.globl	wps_decrypt_encr_settings
	.type	wps_decrypt_encr_settings, @function
wps_decrypt_encr_settings:
.LFB72:
	.loc 1 159 1 is_stmt 1
	.cfi_startproc
.LVL58:
	.loc 1 160 2
	.loc 1 161 2
	.loc 1 162 2
	.loc 1 163 2
	.loc 1 164 2
	.loc 1 167 2
	.loc 1 159 1 is_stmt 0
	addi	sp,sp,-32
	.cfi_def_cfa_offset 32
	sw	ra,28(sp)
	sw	s0,24(sp)
	sw	s1,20(sp)
	sw	s2,16(sp)
	sw	s3,12(sp)
	.cfi_offset 1, -4
	.cfi_offset 8, -8
	.cfi_offset 9, -12
	.cfi_offset 18, -16
	.cfi_offset 19, -20
	.loc 1 167 5
	bne	a1,zero,.L26
.LVL59:
.L42:
	.loc 1 201 4 is_stmt 1
	.loc 1 201 10 is_stmt 0
	li	s0,0
.L25:
	.loc 1 207 1
	lw	ra,28(sp)
	.cfi_remember_state
	.cfi_restore 1
	mv	a0,s0
	lw	s0,24(sp)
	.cfi_restore 8
	lw	s1,20(sp)
	.cfi_restore 9
	lw	s2,16(sp)
	.cfi_restore 18
	lw	s3,12(sp)
	.cfi_restore 19
	addi	sp,sp,32
	.cfi_def_cfa_offset 0
	jr	ra
.LVL60:
.L26:
	.cfi_restore_state
	.loc 1 167 18 discriminator 1
	li	a5,31
	bleu	a2,a5,.L42
	.loc 1 167 59 discriminator 2
	andi	a5,a2,15
	.loc 1 167 47 discriminator 2
	bne	a5,zero,.L42
	.loc 1 173 14
	addi	s1,a2,-16
	mv	s2,a0
	mv	a0,s1
.LVL61:
	mv	s3,a1
	.loc 1 173 2 is_stmt 1
	.loc 1 173 14 is_stmt 0
	call	wpabuf_alloc
.LVL62:
	mv	s0,a0
.LVL63:
	.loc 1 174 2 is_stmt 1
	.loc 1 174 5 is_stmt 0
	beq	a0,zero,.L42
	.loc 1 177 2 is_stmt 1
	.loc 1 177 6
	.loc 1 177 13
	.loc 1 178 2
.LVL64:
.LBB52:
.LBB53:
	.loc 3 147 2
	.loc 3 148 3
	mv	a1,s1
	call	wpabuf_put
.LVL65:
	mv	a2,s1
	addi	a1,s3,16
.LVL66:
	call	memcpy
.LVL67:
.LBE53:
.LBE52:
	.loc 1 179 2
	.loc 1 179 6
	.loc 1 179 13
	.loc 1 180 2
.LBB54:
.LBB55:
	.loc 3 81 9 is_stmt 0
	lw	a2,8(s0)
.LBE55:
.LBE54:
	.loc 1 180 29
	addi	a0,s2,260
.LVL68:
.LBB57:
.LBB56:
	.loc 3 81 2 is_stmt 1
	.loc 3 81 5 is_stmt 0
	bne	a2,zero,.L29
	.loc 3 83 2 is_stmt 1
	.loc 3 83 13 is_stmt 0
	addi	a2,s0,12
.L29:
.LVL69:
.LBE56:
.LBE57:
.LBB58:
.LBB59:
	.loc 3 61 2 is_stmt 1
.LBE59:
.LBE58:
	.loc 1 180 6 is_stmt 0
	lw	a3,4(s0)
	mv	a1,s3
	call	aes_128_cbc_decrypt
.LVL70:
	.loc 1 180 5
	beq	a0,zero,.L30
.L41:
	.loc 1 198 4 is_stmt 1
	.loc 1 198 8
	.loc 1 198 15
	.loc 1 200 4
	mv	a0,s0
	call	wpabuf_free
.LVL71:
	j	.L42
.L30:
	.loc 1 186 2
	.loc 1 186 6
	.loc 1 186 13
	.loc 1 189 2
.LVL72:
	.loc 3 88 2
.LBB60:
.LBB61:
.LBB62:
	.loc 3 81 2
	.loc 3 81 9 is_stmt 0
	lw	a5,8(s0)
	.loc 3 81 5
	bne	a5,zero,.L31
	.loc 3 83 2 is_stmt 1
	.loc 3 83 13 is_stmt 0
	addi	a5,s0,12
.L31:
.LVL73:
.LBE62:
.LBE61:
.LBE60:
.LBB63:
.LBB64:
	.loc 3 61 2 is_stmt 1
	.loc 3 61 12 is_stmt 0
	lw	a4,4(s0)
.LVL74:
.LBE64:
.LBE63:
	.loc 1 189 58
	addi	a3,a4,-1
	.loc 1 189 6
	add	a5,a5,a3
.LVL75:
	.loc 1 190 2 is_stmt 1
	.loc 1 190 6 is_stmt 0
	lbu	a3,0(a5)
.LVL76:
	.loc 1 191 2 is_stmt 1
	.loc 3 61 2
	mv	a2,a5
	.loc 1 191 5 is_stmt 0
	bgtu	a3,a4,.L41
.LVL77:
.L32:
	.loc 1 196 14 is_stmt 1 discriminator 1
	.loc 1 196 2 is_stmt 0 discriminator 1
	sub	a1,a5,a2
.LVL78:
	bgtu	a3,a1,.L33
	.loc 1 204 2 is_stmt 1
	.loc 1 204 18 is_stmt 0
	sub	a4,a4,a3
	sw	a4,4(s0)
	.loc 1 206 2 is_stmt 1
	.loc 1 206 9 is_stmt 0
	j	.L25
.L33:
	.loc 1 197 3 is_stmt 1
	.loc 1 197 6 is_stmt 0
	lbu	a1,0(a2)
.LVL79:
	.loc 1 197 11
	addi	a2,a2,-1
.LVL80:
	.loc 1 197 6
	beq	a1,a3,.L32
	j	.L41
	.cfi_endproc
.LFE72:
	.size	wps_decrypt_encr_settings, .-wps_decrypt_encr_settings
	.section	.text.wps_pin_checksum,"ax",@progbits
	.align	1
	.globl	wps_pin_checksum
	.type	wps_pin_checksum, @function
wps_pin_checksum:
.LFB73:
	.loc 1 216 1 is_stmt 1
	.cfi_startproc
.LVL81:
	.loc 1 217 2
	.loc 1 218 2
	.loc 1 217 15 is_stmt 0
	li	a5,0
	.loc 1 220 7
	li	a4,10
	.loc 1 219 14
	li	a2,3
.LVL82:
.L44:
	.loc 1 218 8 is_stmt 1
	bne	a0,zero,.L45
	.loc 1 225 2
	.loc 1 225 21 is_stmt 0
	li	a0,10
.LVL83:
	remu	a5,a5,a0
.LVL84:
	.loc 1 225 13
	sub	a5,a0,a5
	.loc 1 226 1
	remu	a0,a5,a0
	ret
.LVL85:
.L45:
	.loc 1 219 3 is_stmt 1
	.loc 1 220 3
	.loc 1 220 7 is_stmt 0
	divu	a3,a0,a4
.LVL86:
	.loc 1 221 3 is_stmt 1
	.loc 1 219 21 is_stmt 0
	remu	a0,a0,a4
.LVL87:
	.loc 1 221 16
	remu	a1,a3,a4
	.loc 1 219 14
	mul	a0,a0,a2
	.loc 1 221 9
	add	a0,a0,a1
	add	a5,a5,a0
.LVL88:
	.loc 1 222 3 is_stmt 1
	.loc 1 222 7 is_stmt 0
	divu	a0,a3,a4
.LVL89:
	j	.L44
	.cfi_endproc
.LFE73:
	.size	wps_pin_checksum, .-wps_pin_checksum
	.section	.text.wps_pin_valid,"ax",@progbits
	.align	1
	.globl	wps_pin_valid
	.type	wps_pin_valid, @function
wps_pin_valid:
.LFB74:
	.loc 1 235 1 is_stmt 1
	.cfi_startproc
.LVL90:
	.loc 1 236 2
	.loc 1 235 1 is_stmt 0
	addi	sp,sp,-16
	.cfi_def_cfa_offset 16
	sw	s1,4(sp)
	.cfi_offset 9, -12
	.loc 1 236 9
	li	s1,10
	.loc 1 235 1
	sw	s0,8(sp)
	.cfi_offset 8, -8
	mv	s0,a0
	.loc 1 236 9
	divu	a0,a0,s1
.LVL91:
	.loc 1 235 1
	sw	ra,12(sp)
	.cfi_offset 1, -4
	.loc 1 236 9
	call	wps_pin_checksum
.LVL92:
	.loc 1 236 44
	remu	s0,s0,s1
.LVL93:
	.loc 1 237 1
	lw	ra,12(sp)
	.cfi_restore 1
	lw	s1,4(sp)
	.cfi_restore 9
	.loc 1 236 36
	sub	a0,s0,a0
	.loc 1 237 1
	lw	s0,8(sp)
	.cfi_restore 8
	seqz	a0,a0
	addi	sp,sp,16
	.cfi_def_cfa_offset 0
	jr	ra
	.cfi_endproc
.LFE74:
	.size	wps_pin_valid, .-wps_pin_valid
	.section	.text.wps_generate_pin,"ax",@progbits
	.align	1
	.globl	wps_generate_pin
	.type	wps_generate_pin, @function
wps_generate_pin:
.LFB75:
	.loc 1 245 1 is_stmt 1
	.cfi_startproc
	.loc 1 246 2
	.loc 1 249 2
	.loc 1 245 1 is_stmt 0
	addi	sp,sp,-32
	.cfi_def_cfa_offset 32
	.loc 1 249 6
	li	a1,4
	addi	a0,sp,12
	.loc 1 245 1
	sw	ra,28(sp)
	sw	s0,24(sp)
	.cfi_offset 1, -4
	.cfi_offset 8, -8
	.loc 1 249 6
	call	os_get_random
.LVL94:
	mv	a5,a0
	li	a0,-1
	.loc 1 249 5
	blt	a5,zero,.L48
	.loc 1 252 2 is_stmt 1
	.loc 1 252 6 is_stmt 0
	lw	s0,12(sp)
	li	a0,9998336
	addi	a0,a0,1664
	remu	s0,s0,a0
	.loc 1 255 2 is_stmt 1
	.loc 1 255 20 is_stmt 0
	mv	a0,s0
	call	wps_pin_checksum
.LVL95:
	.loc 1 255 13
	li	a5,10
	mul	s0,s0,a5
	.loc 1 255 18
	add	a0,s0,a0
.L48:
	.loc 1 256 1
	lw	ra,28(sp)
	.cfi_restore 1
	lw	s0,24(sp)
	.cfi_restore 8
	addi	sp,sp,32
	.cfi_def_cfa_offset 0
	jr	ra
	.cfi_endproc
.LFE75:
	.size	wps_generate_pin, .-wps_generate_pin
	.section	.text.wps_pin_str_valid,"ax",@progbits
	.align	1
	.globl	wps_pin_str_valid
	.type	wps_pin_str_valid, @function
wps_pin_str_valid:
.LFB76:
	.loc 1 260 1 is_stmt 1
	.cfi_startproc
.LVL96:
	.loc 1 261 2
	.loc 1 262 2
	.loc 1 264 2
	.loc 1 265 2
	.loc 1 260 1 is_stmt 0
	mv	a4,a0
	.loc 1 264 4
	mv	a5,a0
	.loc 1 265 8
	li	a1,9
.LVL97:
.L54:
	.loc 1 265 8 is_stmt 1
	.loc 1 265 9 is_stmt 0
	lbu	a2,0(a5)
	.loc 1 265 19
	addi	a3,a2,-48
	.loc 1 265 8
	andi	a3,a3,0xff
	bleu	a3,a1,.L55
	.loc 1 267 2 is_stmt 1
	.loc 1 268 10 is_stmt 0
	li	a0,0
.LVL98:
	.loc 1 267 5
	bne	a2,zero,.L53
	.loc 1 270 2 is_stmt 1
.LVL99:
	.loc 1 271 2
	.loc 1 270 10 is_stmt 0
	sub	a0,a5,a4
.LVL100:
	.loc 1 271 18
	addi	a0,a0,-4
.LVL101:
	andi	a0,a0,-5
.LVL102:
	seqz	a0,a0
.LVL103:
.L53:
	.loc 1 272 1
	ret
.LVL104:
.L55:
	.loc 1 266 3 is_stmt 1
	.loc 1 266 4 is_stmt 0
	addi	a5,a5,1
.LVL105:
	j	.L54
	.cfi_endproc
.LFE76:
	.size	wps_pin_str_valid, .-wps_pin_str_valid
	.section	.text.wps_fail_event,"ax",@progbits
	.align	1
	.globl	wps_fail_event
	.type	wps_fail_event, @function
wps_fail_event:
.LFB77:
	.loc 1 277 1 is_stmt 1
	.cfi_startproc
.LVL106:
	.loc 1 278 2
	.loc 1 280 9
	.loc 1 277 1 is_stmt 0
	addi	sp,sp,-32
	.cfi_def_cfa_offset 32
	sw	s1,20(sp)
	sw	s4,8(sp)
	.cfi_offset 9, -12
	.cfi_offset 20, -24
	mv	s1,a0
	mv	s4,a1
	.loc 1 280 40
	li	a0,1
.LVL107:
	li	a1,52
.LVL108:
	.loc 1 277 1
	sw	s2,16(sp)
	sw	s3,12(sp)
	sw	ra,28(sp)
	sw	s0,24(sp)
	.cfi_offset 18, -16
	.cfi_offset 19, -20
	.cfi_offset 1, -4
	.cfi_offset 8, -8
	.loc 1 277 1
	mv	s3,a2
	mv	s2,a3
	.loc 1 280 40
	call	wpa_supplicant_zalloc
.LVL109:
	.loc 1 281 2 is_stmt 1
	.loc 1 281 5 is_stmt 0
	beq	a0,zero,.L58
	.loc 1 284 2 is_stmt 1
	.loc 1 284 5 is_stmt 0
	lw	a5,300(s1)
	bne	a5,zero,.L60
.L62:
	.loc 1 295 1
	lw	s0,24(sp)
	.cfi_remember_state
	.cfi_restore 8
	lw	ra,28(sp)
	.cfi_restore 1
	lw	s1,20(sp)
	.cfi_restore 9
.LVL110:
	lw	s2,16(sp)
	.cfi_restore 18
	lw	s3,12(sp)
	.cfi_restore 19
	lw	s4,8(sp)
	.cfi_restore 20
.LVL111:
	addi	sp,sp,32
	.cfi_def_cfa_offset 0
	.loc 1 294 2
	tail	wpa_supplicant_free
.LVL112:
.L60:
	.cfi_restore_state
	mv	s0,a0
	.loc 1 289 2 is_stmt 1
	li	a2,52
	li	a1,0
	call	memset
.LVL113:
	.loc 1 290 2
	.loc 1 290 17 is_stmt 0
	sw	s4,0(s0)
	.loc 1 291 2 is_stmt 1
	.loc 1 291 26 is_stmt 0
	sh	s3,4(s0)
	.loc 1 292 2 is_stmt 1
	.loc 1 292 30 is_stmt 0
	sh	s2,6(s0)
	.loc 1 293 2 is_stmt 1
	lw	a0,304(s1)
	lw	a5,300(s1)
	mv	a2,s0
	li	a1,1
	jalr	a5
.LVL114:
	.loc 1 294 2
	mv	a0,s0
	j	.L62
.LVL115:
.L58:
	.loc 1 295 1 is_stmt 0
	lw	ra,28(sp)
	.cfi_restore 1
	lw	s0,24(sp)
	.cfi_restore 8
	lw	s1,20(sp)
	.cfi_restore 9
.LVL116:
	lw	s2,16(sp)
	.cfi_restore 18
	lw	s3,12(sp)
	.cfi_restore 19
	lw	s4,8(sp)
	.cfi_restore 20
.LVL117:
	addi	sp,sp,32
	.cfi_def_cfa_offset 0
	jr	ra
	.cfi_endproc
.LFE77:
	.size	wps_fail_event, .-wps_fail_event
	.section	.text.wps_success_event,"ax",@progbits
	.align	1
	.globl	wps_success_event
	.type	wps_success_event, @function
wps_success_event:
.LFB78:
	.loc 1 299 1 is_stmt 1
	.cfi_startproc
.LVL118:
	.loc 1 300 2
	.loc 1 300 9 is_stmt 0
	lw	a5,300(a0)
	.loc 1 300 5
	beq	a5,zero,.L63
	.loc 1 303 2 is_stmt 1
	lw	a0,304(a0)
.LVL119:
	li	a2,0
	li	a1,2
	jr	a5
.LVL120:
.L63:
	.loc 1 304 1 is_stmt 0
	ret
	.cfi_endproc
.LFE78:
	.size	wps_success_event, .-wps_success_event
	.section	.text.wps_pwd_auth_fail_event,"ax",@progbits
	.align	1
	.globl	wps_pwd_auth_fail_event
	.type	wps_pwd_auth_fail_event, @function
wps_pwd_auth_fail_event:
.LFB79:
	.loc 1 308 1 is_stmt 1
	.cfi_startproc
.LVL121:
	.loc 1 309 2
	.loc 1 311 9
	.loc 1 308 1 is_stmt 0
	addi	sp,sp,-32
	.cfi_def_cfa_offset 32
	sw	s1,20(sp)
	sw	s3,12(sp)
	.cfi_offset 9, -12
	.cfi_offset 19, -20
	mv	s1,a0
	mv	s3,a1
	.loc 1 311 40
	li	a0,1
.LVL122:
	li	a1,52
.LVL123:
	.loc 1 308 1
	sw	s2,16(sp)
	sw	ra,28(sp)
	sw	s0,24(sp)
	.cfi_offset 18, -16
	.cfi_offset 1, -4
	.cfi_offset 8, -8
	.loc 1 308 1
	mv	s2,a2
	.loc 1 311 40
	call	wpa_supplicant_zalloc
.LVL124:
	.loc 1 312 2 is_stmt 1
	.loc 1 312 5 is_stmt 0
	beq	a0,zero,.L65
	.loc 1 315 2 is_stmt 1
	.loc 1 315 5 is_stmt 0
	lw	a5,300(s1)
	bne	a5,zero,.L67
.L69:
	.loc 1 325 1
	lw	s0,24(sp)
	.cfi_remember_state
	.cfi_restore 8
	lw	ra,28(sp)
	.cfi_restore 1
	lw	s1,20(sp)
	.cfi_restore 9
.LVL125:
	lw	s2,16(sp)
	.cfi_restore 18
.LVL126:
	lw	s3,12(sp)
	.cfi_restore 19
.LVL127:
	addi	sp,sp,32
	.cfi_def_cfa_offset 0
	.loc 1 324 2
	tail	wpa_supplicant_free
.LVL128:
.L67:
	.cfi_restore_state
	mv	s0,a0
	.loc 1 320 2 is_stmt 1
	li	a2,52
	li	a1,0
	call	memset
.LVL129:
	.loc 1 321 2
	.loc 1 321 31 is_stmt 0
	sw	s3,0(s0)
	.loc 1 322 2 is_stmt 1
	.loc 1 322 27 is_stmt 0
	sw	s2,4(s0)
	.loc 1 323 2 is_stmt 1
	lw	a0,304(s1)
	lw	a5,300(s1)
	mv	a2,s0
	li	a1,3
	jalr	a5
.LVL130:
	.loc 1 324 2
	mv	a0,s0
	j	.L69
.LVL131:
.L65:
	.loc 1 325 1 is_stmt 0
	lw	ra,28(sp)
	.cfi_restore 1
	lw	s0,24(sp)
	.cfi_restore 8
	lw	s1,20(sp)
	.cfi_restore 9
.LVL132:
	lw	s2,16(sp)
	.cfi_restore 18
.LVL133:
	lw	s3,12(sp)
	.cfi_restore 19
.LVL134:
	addi	sp,sp,32
	.cfi_def_cfa_offset 0
	jr	ra
	.cfi_endproc
.LFE79:
	.size	wps_pwd_auth_fail_event, .-wps_pwd_auth_fail_event
	.section	.text.wps_pbc_overlap_event,"ax",@progbits
	.align	1
	.globl	wps_pbc_overlap_event
	.type	wps_pbc_overlap_event, @function
wps_pbc_overlap_event:
.LFB80:
	.loc 1 329 1 is_stmt 1
	.cfi_startproc
.LVL135:
	.loc 1 330 2
	.loc 1 330 9 is_stmt 0
	lw	a5,300(a0)
	.loc 1 330 5
	beq	a5,zero,.L70
	.loc 1 333 2 is_stmt 1
	lw	a0,304(a0)
.LVL136:
	li	a2,0
	li	a1,4
	jr	a5
.LVL137:
.L70:
	.loc 1 334 1 is_stmt 0
	ret
	.cfi_endproc
.LFE80:
	.size	wps_pbc_overlap_event, .-wps_pbc_overlap_event
	.section	.text.wps_pbc_timeout_event,"ax",@progbits
	.align	1
	.globl	wps_pbc_timeout_event
	.type	wps_pbc_timeout_event, @function
wps_pbc_timeout_event:
.LFB81:
	.loc 1 338 1 is_stmt 1
	.cfi_startproc
.LVL138:
	.loc 1 339 2
	.loc 1 339 9 is_stmt 0
	lw	a5,300(a0)
	.loc 1 339 5
	beq	a5,zero,.L72
	.loc 1 342 2 is_stmt 1
	lw	a0,304(a0)
.LVL139:
	li	a2,0
	li	a1,5
	jr	a5
.LVL140:
.L72:
	.loc 1 343 1 is_stmt 0
	ret
	.cfi_endproc
.LFE81:
	.size	wps_pbc_timeout_event, .-wps_pbc_timeout_event
	.section	.text.wps_dev_type_str2bin,"ax",@progbits
	.align	1
	.globl	wps_dev_type_str2bin
	.type	wps_dev_type_str2bin, @function
wps_dev_type_str2bin:
.LFB82:
	.loc 1 436 1 is_stmt 1
	.cfi_startproc
.LVL141:
	.loc 1 437 2
	.loc 1 440 2
	.loc 1 436 1 is_stmt 0
	addi	sp,sp,-16
	.cfi_def_cfa_offset 16
	sw	s0,8(sp)
	sw	s1,4(sp)
	.cfi_offset 8, -8
	.cfi_offset 9, -12
	mv	s0,a1
	sw	ra,12(sp)
	sw	s2,0(sp)
	.cfi_offset 1, -4
	.cfi_offset 18, -16
	.loc 1 436 1
	mv	s1,a0
	.loc 1 440 25
	call	atoi
.LVL142:
.LBB65:
.LBB66:
	.loc 2 132 2 is_stmt 1
	.loc 2 132 7 is_stmt 0
	slli	a5,a0,16
	srli	a5,a5,16
	srli	a5,a5,8
	.loc 2 133 7
	sb	a0,1(s0)
	.loc 2 132 7
	sb	a5,0(s0)
	.loc 2 133 2 is_stmt 1
.LVL143:
.LBE66:
.LBE65:
	.loc 1 441 2
	.loc 1 441 8 is_stmt 0
	li	a1,45
	mv	a0,s1
	call	strchr
.LVL144:
	.loc 1 442 2 is_stmt 1
	.loc 1 442 5 is_stmt 0
	bne	a0,zero,.L75
.LVL145:
.L77:
	.loc 1 443 10
	li	s2,-1
.L74:
	.loc 1 455 1
	lw	ra,12(sp)
	.cfi_remember_state
	.cfi_restore 1
	lw	s0,8(sp)
	.cfi_restore 8
.LVL146:
	lw	s1,4(sp)
	.cfi_restore 9
	mv	a0,s2
	lw	s2,0(sp)
	.cfi_restore 18
	addi	sp,sp,16
	.cfi_def_cfa_offset 0
	jr	ra
.LVL147:
.L75:
	.cfi_restore_state
	.loc 1 444 2 is_stmt 1
	.loc 1 444 5 is_stmt 0
	addi	s1,a0,1
.LVL148:
	.loc 1 445 2 is_stmt 1
	.loc 1 445 6 is_stmt 0
	li	a2,4
	addi	a1,s0,2
	mv	a0,s1
	call	hexstr2bin
.LVL149:
	mv	s2,a0
	.loc 1 445 5
	bne	a0,zero,.L77
	.loc 1 447 2 is_stmt 1
	.loc 1 447 8 is_stmt 0
	li	a1,45
	mv	a0,s1
	call	strchr
.LVL150:
	.loc 1 448 2 is_stmt 1
	.loc 1 448 5 is_stmt 0
	beq	a0,zero,.L77
	.loc 1 450 2 is_stmt 1
.LVL151:
	.loc 1 451 2
	.loc 1 451 29 is_stmt 0
	addi	a0,a0,1
.LVL152:
	call	atoi
.LVL153:
.LBB67:
.LBB68:
	.loc 2 132 2 is_stmt 1
	.loc 2 132 7 is_stmt 0
	slli	a5,a0,16
	srli	a5,a5,16
	srli	a5,a5,8
	sb	a5,6(s0)
	.loc 2 133 2 is_stmt 1
	.loc 2 133 7 is_stmt 0
	sb	a0,7(s0)
.LVL154:
.LBE68:
.LBE67:
	.loc 1 454 2 is_stmt 1
	.loc 1 454 9 is_stmt 0
	j	.L74
	.cfi_endproc
.LFE82:
	.size	wps_dev_type_str2bin, .-wps_dev_type_str2bin
	.section	.rodata.wps_dev_type_bin2str.str1.4,"aMS",@progbits,1
	.align	2
.LC1:
	.string	"%u-%08lX-%u"
	.section	.text.wps_dev_type_bin2str,"ax",@progbits
	.align	1
	.globl	wps_dev_type_bin2str
	.type	wps_dev_type_bin2str, @function
wps_dev_type_bin2str:
.LFB83:
	.loc 1 460 1 is_stmt 1
	.cfi_startproc
.LVL155:
	.loc 1 461 2
	.loc 1 463 2
	.loc 2 127 2
.LBB75:
.LBB76:
	.loc 2 161 2
.LBE76:
.LBE75:
	.loc 2 127 2
	.loc 1 460 1 is_stmt 0
	addi	sp,sp,-16
	.cfi_def_cfa_offset 16
	sw	s0,8(sp)
	sw	s1,4(sp)
	sw	ra,12(sp)
	.cfi_offset 8, -8
	.cfi_offset 9, -12
	.cfi_offset 1, -4
	.loc 1 463 8
	lbu	a5,7(a0)
	lbu	a4,6(a0)
.LBB84:
.LBB77:
	.loc 2 161 10
	lbu	a6,2(a0)
.LBE77:
.LBE84:
	.loc 1 463 8
	slli	a5,a5,8
	or	a5,a5,a4
	slli	a4,a5,8
	srli	a5,a5,8
	or	a5,a4,a5
.LBB85:
.LBB78:
	.loc 2 161 60
	lbu	a4,5(a0)
	.loc 2 161 21
	slli	a6,a6,24
.LBE78:
.LBE85:
	.loc 1 463 8
	lbu	a3,1(a0)
.LBB86:
.LBB79:
	.loc 2 161 57
	or	a6,a6,a4
	.loc 2 161 32
	lbu	a4,3(a0)
.LBE79:
.LBE86:
	.loc 1 460 1
	mv	s1,a2
	.loc 1 463 8
	lbu	a2,0(a0)
.LVL156:
.LBB87:
.LBB80:
	.loc 2 161 36
	slli	a4,a4,16
.LBE80:
.LBE87:
	.loc 1 463 8
	slli	a3,a3,8
.LBB88:
.LBB81:
	.loc 2 161 57
	or	a6,a6,a4
.LBE81:
.LBE88:
	.loc 1 463 8
	or	a3,a3,a2
.LBB89:
.LBB82:
	.loc 2 161 47
	lbu	a4,4(a0)
.LBE82:
.LBE89:
	.loc 1 463 8
	slli	a2,a3,8
	srli	a3,a3,8
	or	a3,a2,a3
	.loc 1 460 1
	mv	s0,a1
.LBB90:
.LBB83:
	.loc 2 161 51
	slli	a4,a4,8
.LBE83:
.LBE90:
	.loc 1 463 8
	slli	a5,a5,16
	slli	a3,a3,16
	lui	a2,%hi(.LC1)
	srli	a5,a5,16
	or	a4,a6,a4
	srli	a3,a3,16
	addi	a2,a2,%lo(.LC1)
	mv	a1,s1
.LVL157:
	mv	a0,s0
.LVL158:
	call	snprintf
.LVL159:
	.loc 1 466 2 is_stmt 1
	.loc 1 466 5 is_stmt 0
	blt	a0,zero,.L84
	.loc 1 466 14 discriminator 1
	bltu	a0,s1,.L83
.L84:
	.loc 1 467 9
	li	s0,0
.LVL160:
.L83:
	.loc 1 470 1
	lw	ra,12(sp)
	.cfi_restore 1
	mv	a0,s0
.LVL161:
	lw	s0,8(sp)
	.cfi_restore 8
	lw	s1,4(sp)
	.cfi_restore 9
.LVL162:
	addi	sp,sp,16
	.cfi_def_cfa_offset 0
	jr	ra
	.cfi_endproc
.LFE83:
	.size	wps_dev_type_bin2str, .-wps_dev_type_bin2str
	.section	.rodata.uuid_gen_mac_addr.str1.4,"aMS",@progbits,1
	.align	2
.LC2:
	.string	"Rd\200\370\311\233K\345\246UX\355_]`\204"
	.section	.text.uuid_gen_mac_addr,"ax",@progbits
	.align	1
	.globl	uuid_gen_mac_addr
	.type	uuid_gen_mac_addr, @function
uuid_gen_mac_addr:
.LFB84:
	.loc 1 474 1 is_stmt 1
	.cfi_startproc
.LVL163:
	.loc 1 475 2
	.loc 1 476 2
	.loc 1 477 2
	.loc 1 478 2
	.loc 1 474 1 is_stmt 0
	addi	sp,sp,-80
	.cfi_def_cfa_offset 80
	sw	s0,72(sp)
	.loc 1 478 5
	addi	a5,sp,28
	.cfi_offset 8, -8
	.loc 1 474 1
	mv	s0,a1
	.loc 1 478 5
	lui	a1,%hi(.LC2)
.LVL164:
	.loc 1 474 1
	sw	s1,68(sp)
	.loc 1 478 5
	li	a2,16
	.cfi_offset 9, -12
	.loc 1 474 1
	mv	s1,a0
	.loc 1 478 5
	addi	a1,a1,%lo(.LC2)
	mv	a0,a5
.LVL165:
	.loc 1 474 1
	sw	ra,76(sp)
	.cfi_offset 1, -4
	.loc 1 478 5
	call	memcpy
.LVL166:
	.loc 1 486 2 is_stmt 1
	.loc 1 487 9 is_stmt 0
	li	a5,16
	.loc 1 486 10
	sw	a0,12(sp)
	.loc 1 487 2 is_stmt 1
	.loc 1 487 9 is_stmt 0
	sw	a5,20(sp)
	.loc 1 488 2 is_stmt 1
	.loc 1 490 2 is_stmt 0
	addi	a3,sp,44
	.loc 1 489 9
	li	a5,6
	.loc 1 490 2
	addi	a2,sp,20
	addi	a1,sp,12
	li	a0,2
	.loc 1 489 9
	sw	a5,24(sp)
	.loc 1 488 10
	sw	s1,16(sp)
	.loc 1 489 2 is_stmt 1
	.loc 1 490 2
	call	sha1_vector
.LVL167:
	.loc 1 491 2
	addi	a1,sp,44
	mv	a0,s0
	li	a2,16
	call	memcpy
.LVL168:
	.loc 1 494 2
	.loc 1 494 32 is_stmt 0
	lbu	a5,6(s0)
	.loc 1 498 1
	lw	ra,76(sp)
	.cfi_restore 1
	lw	s1,68(sp)
	.cfi_restore 9
.LVL169:
	.loc 1 494 32
	andi	a5,a5,15
	.loc 1 494 21
	ori	a5,a5,80
	.loc 1 494 10
	sb	a5,6(s0)
	.loc 1 497 2 is_stmt 1
	.loc 1 497 28 is_stmt 0
	lbu	a5,8(s0)
	andi	a5,a5,63
	.loc 1 497 17
	ori	a5,a5,-128
	.loc 1 497 10
	sb	a5,8(s0)
	.loc 1 498 1
	lw	s0,72(sp)
	.cfi_restore 8
.LVL170:
	addi	sp,sp,80
	.cfi_def_cfa_offset 0
	jr	ra
	.cfi_endproc
.LFE84:
	.size	uuid_gen_mac_addr, .-uuid_gen_mac_addr
	.section	.rodata.wps_config_methods_str2bin.str1.4,"aMS",@progbits,1
	.align	2
.LC3:
	.string	"ethernet"
	.align	2
.LC4:
	.string	"label"
	.align	2
.LC5:
	.string	"display"
	.align	2
.LC6:
	.string	"ext_nfc_token"
	.align	2
.LC7:
	.string	"int_nfc_token"
	.align	2
.LC8:
	.string	"nfc_interface"
	.align	2
.LC9:
	.string	"push_button"
	.align	2
.LC10:
	.string	"keypad"
	.align	2
.LC11:
	.string	"virtual_display"
	.align	2
.LC12:
	.string	"physical_display"
	.align	2
.LC13:
	.string	"virtual_push_button"
	.align	2
.LC14:
	.string	"physical_push_button"
	.section	.text.wps_config_methods_str2bin,"ax",@progbits
	.align	1
	.globl	wps_config_methods_str2bin
	.type	wps_config_methods_str2bin, @function
wps_config_methods_str2bin:
.LFB85:
	.loc 1 502 1 is_stmt 1
	.cfi_startproc
.LVL171:
	.loc 1 503 2
	.loc 1 505 2
	.loc 1 502 1 is_stmt 0
	addi	sp,sp,-16
	.cfi_def_cfa_offset 16
	sw	ra,12(sp)
	sw	s0,8(sp)
	sw	s1,4(sp)
	.cfi_offset 1, -4
	.cfi_offset 8, -8
	.cfi_offset 9, -12
	.loc 1 505 5
	beq	a0,zero,.L101
	.loc 1 515 7
	lui	a1,%hi(.LC3)
	addi	a1,a1,%lo(.LC3)
	mv	s1,a0
	.loc 1 515 3 is_stmt 1
	.loc 1 515 7 is_stmt 0
	call	strstr
.LVL172:
	.loc 1 517 7
	lui	a1,%hi(.LC4)
	.loc 1 516 12
	snez	s0,a0
	.loc 1 517 7
	addi	a1,a1,%lo(.LC4)
	mv	a0,s1
	.loc 1 516 12
	slli	s0,s0,1
.LVL173:
	.loc 1 517 3 is_stmt 1
	.loc 1 517 7 is_stmt 0
	call	strstr
.LVL174:
	.loc 1 517 6
	beq	a0,zero,.L91
	.loc 1 518 4 is_stmt 1
	.loc 1 518 12 is_stmt 0
	ori	s0,s0,4
.LVL175:
.L91:
	.loc 1 519 3 is_stmt 1
	.loc 1 519 7 is_stmt 0
	lui	a1,%hi(.LC5)
	addi	a1,a1,%lo(.LC5)
	mv	a0,s1
	call	strstr
.LVL176:
	.loc 1 519 6
	beq	a0,zero,.L92
	.loc 1 520 4 is_stmt 1
	.loc 1 520 12 is_stmt 0
	ori	s0,s0,8
.LVL177:
.L92:
	.loc 1 521 3 is_stmt 1
	.loc 1 521 7 is_stmt 0
	lui	a1,%hi(.LC6)
	addi	a1,a1,%lo(.LC6)
	mv	a0,s1
	call	strstr
.LVL178:
	.loc 1 521 6
	beq	a0,zero,.L93
	.loc 1 522 4 is_stmt 1
	.loc 1 522 12 is_stmt 0
	ori	s0,s0,16
.LVL179:
.L93:
	.loc 1 523 3 is_stmt 1
	.loc 1 523 7 is_stmt 0
	lui	a1,%hi(.LC7)
	addi	a1,a1,%lo(.LC7)
	mv	a0,s1
	call	strstr
.LVL180:
	.loc 1 523 6
	beq	a0,zero,.L94
	.loc 1 524 4 is_stmt 1
	.loc 1 524 12 is_stmt 0
	ori	s0,s0,32
.LVL181:
.L94:
	.loc 1 525 3 is_stmt 1
	.loc 1 525 7 is_stmt 0
	lui	a1,%hi(.LC8)
	addi	a1,a1,%lo(.LC8)
	mv	a0,s1
	call	strstr
.LVL182:
	.loc 1 525 6
	beq	a0,zero,.L95
	.loc 1 526 4 is_stmt 1
	.loc 1 526 12 is_stmt 0
	ori	s0,s0,64
.LVL183:
.L95:
	.loc 1 527 3 is_stmt 1
	.loc 1 527 7 is_stmt 0
	lui	a1,%hi(.LC9)
	addi	a1,a1,%lo(.LC9)
	mv	a0,s1
	call	strstr
.LVL184:
	.loc 1 527 6
	beq	a0,zero,.L96
	.loc 1 528 4 is_stmt 1
	.loc 1 528 12 is_stmt 0
	ori	s0,s0,128
.LVL185:
.L96:
	.loc 1 529 3 is_stmt 1
	.loc 1 529 7 is_stmt 0
	lui	a1,%hi(.LC10)
	addi	a1,a1,%lo(.LC10)
	mv	a0,s1
	call	strstr
.LVL186:
	.loc 1 529 6
	beq	a0,zero,.L97
	.loc 1 530 4 is_stmt 1
	.loc 1 530 12 is_stmt 0
	ori	s0,s0,256
.LVL187:
.L97:
	.loc 1 532 3 is_stmt 1
	.loc 1 532 7 is_stmt 0
	lui	a1,%hi(.LC11)
	addi	a1,a1,%lo(.LC11)
	mv	a0,s1
	call	strstr
.LVL188:
	.loc 1 532 6
	beq	a0,zero,.L98
	.loc 1 533 4 is_stmt 1
	.loc 1 533 12 is_stmt 0
	li	a5,8192
	addi	a5,a5,8
	or	s0,s0,a5
.LVL189:
.L98:
	.loc 1 534 3 is_stmt 1
	.loc 1 534 7 is_stmt 0
	lui	a1,%hi(.LC12)
	addi	a1,a1,%lo(.LC12)
	mv	a0,s1
	call	strstr
.LVL190:
	.loc 1 534 6
	beq	a0,zero,.L99
	.loc 1 535 4 is_stmt 1
	.loc 1 535 12 is_stmt 0
	li	a5,16384
	addi	a5,a5,8
	or	s0,s0,a5
.LVL191:
.L99:
	.loc 1 536 3 is_stmt 1
	.loc 1 536 7 is_stmt 0
	lui	a1,%hi(.LC13)
	addi	a1,a1,%lo(.LC13)
	mv	a0,s1
	call	strstr
.LVL192:
	.loc 1 536 6
	beq	a0,zero,.L100
	.loc 1 537 4 is_stmt 1
	.loc 1 537 12 is_stmt 0
	ori	s0,s0,640
.LVL193:
.L100:
	.loc 1 538 3 is_stmt 1
	.loc 1 538 7 is_stmt 0
	lui	a1,%hi(.LC14)
	addi	a1,a1,%lo(.LC14)
	mv	a0,s1
	call	strstr
.LVL194:
	.loc 1 538 6
	beq	a0,zero,.L89
	.loc 1 539 4 is_stmt 1
	.loc 1 539 12 is_stmt 0
	ori	s0,s0,1152
.LVL195:
.L89:
	.loc 1 543 2 is_stmt 1
	.loc 1 544 1 is_stmt 0
	lw	ra,12(sp)
	.cfi_remember_state
	.cfi_restore 1
	mv	a0,s0
	lw	s0,8(sp)
	.cfi_restore 8
.LVL196:
	lw	s1,4(sp)
	.cfi_restore 9
	addi	sp,sp,16
	.cfi_def_cfa_offset 0
	jr	ra
.LVL197:
.L101:
	.cfi_restore_state
	.loc 1 509 11
	li	s0,8192
	addi	s0,s0,264
	j	.L89
	.cfi_endproc
.LFE85:
	.size	wps_config_methods_str2bin, .-wps_config_methods_str2bin
	.section	.text.wps_build_wsc_ack,"ax",@progbits
	.align	1
	.globl	wps_build_wsc_ack
	.type	wps_build_wsc_ack, @function
wps_build_wsc_ack:
.LFB86:
	.loc 1 548 1 is_stmt 1
	.cfi_startproc
.LVL198:
	.loc 1 549 2
	.loc 1 551 2
	.loc 1 551 6
	.loc 1 551 13
	.loc 1 553 2
	.loc 1 548 1 is_stmt 0
	addi	sp,sp,-16
	.cfi_def_cfa_offset 16
	sw	s1,4(sp)
	.cfi_offset 9, -12
	mv	s1,a0
	.loc 1 553 8
	li	a0,1000
.LVL199:
	.loc 1 548 1
	sw	s0,8(sp)
	sw	ra,12(sp)
	.cfi_offset 8, -8
	.cfi_offset 1, -4
	.loc 1 553 8
	call	wpabuf_alloc
.LVL200:
	mv	s0,a0
.LVL201:
	.loc 1 554 2 is_stmt 1
	.loc 1 554 5 is_stmt 0
	beq	a0,zero,.L137
	.loc 1 557 2 is_stmt 1
	.loc 1 557 6 is_stmt 0
	call	wps_build_version
.LVL202:
	.loc 1 557 5
	beq	a0,zero,.L139
.L140:
	.loc 1 562 3 is_stmt 1
	mv	a0,s0
	call	wpabuf_free
.LVL203:
	.loc 1 563 3
	.loc 1 563 9 is_stmt 0
	li	s0,0
.LVL204:
.L137:
	.loc 1 567 1
	lw	ra,12(sp)
	.cfi_remember_state
	.cfi_restore 1
	mv	a0,s0
	lw	s0,8(sp)
	.cfi_restore 8
	lw	s1,4(sp)
	.cfi_restore 9
.LVL205:
	addi	sp,sp,16
	.cfi_def_cfa_offset 0
	jr	ra
.LVL206:
.L139:
	.cfi_restore_state
	.loc 1 558 6 discriminator 1
	li	a1,13
	mv	a0,s0
	call	wps_build_msg_type
.LVL207:
	.loc 1 557 29 discriminator 1
	bne	a0,zero,.L140
	.loc 1 559 6
	mv	a1,s0
	mv	a0,s1
	call	wps_build_enrollee_nonce
.LVL208:
	.loc 1 558 43
	bne	a0,zero,.L140
	.loc 1 560 6
	mv	a1,s0
	mv	a0,s1
	call	wps_build_registrar_nonce
.LVL209:
	.loc 1 559 41
	bne	a0,zero,.L140
	.loc 1 561 6
	li	a3,0
	li	a2,0
	li	a1,0
	mv	a0,s0
	call	wps_build_wfa_ext
.LVL210:
	.loc 1 560 42
	beq	a0,zero,.L137
	j	.L140
	.cfi_endproc
.LFE86:
	.size	wps_build_wsc_ack, .-wps_build_wsc_ack
	.section	.text.wps_build_wsc_nack,"ax",@progbits
	.align	1
	.globl	wps_build_wsc_nack
	.type	wps_build_wsc_nack, @function
wps_build_wsc_nack:
.LFB87:
	.loc 1 571 1 is_stmt 1
	.cfi_startproc
.LVL211:
	.loc 1 572 2
	.loc 1 574 2
	.loc 1 574 6
	.loc 1 574 13
	.loc 1 576 2
	.loc 1 571 1 is_stmt 0
	addi	sp,sp,-16
	.cfi_def_cfa_offset 16
	sw	s1,4(sp)
	.cfi_offset 9, -12
	mv	s1,a0
	.loc 1 576 8
	li	a0,1000
.LVL212:
	.loc 1 571 1
	sw	s0,8(sp)
	sw	ra,12(sp)
	.cfi_offset 8, -8
	.cfi_offset 1, -4
	.loc 1 576 8
	call	wpabuf_alloc
.LVL213:
	mv	s0,a0
.LVL214:
	.loc 1 577 2 is_stmt 1
	.loc 1 577 5 is_stmt 0
	beq	a0,zero,.L145
	.loc 1 580 2 is_stmt 1
	.loc 1 580 6 is_stmt 0
	call	wps_build_version
.LVL215:
	.loc 1 580 5
	beq	a0,zero,.L147
.L148:
	.loc 1 586 3 is_stmt 1
	mv	a0,s0
	call	wpabuf_free
.LVL216:
	.loc 1 587 3
	.loc 1 587 9 is_stmt 0
	li	s0,0
.LVL217:
.L145:
	.loc 1 591 1
	lw	ra,12(sp)
	.cfi_remember_state
	.cfi_restore 1
	mv	a0,s0
	lw	s0,8(sp)
	.cfi_restore 8
	lw	s1,4(sp)
	.cfi_restore 9
.LVL218:
	addi	sp,sp,16
	.cfi_def_cfa_offset 0
	jr	ra
.LVL219:
.L147:
	.cfi_restore_state
	.loc 1 581 6 discriminator 1
	li	a1,14
	mv	a0,s0
	call	wps_build_msg_type
.LVL220:
	.loc 1 580 29 discriminator 1
	bne	a0,zero,.L148
	.loc 1 582 6
	mv	a1,s0
	mv	a0,s1
	call	wps_build_enrollee_nonce
.LVL221:
	.loc 1 581 44
	bne	a0,zero,.L148
	.loc 1 583 6
	mv	a1,s0
	mv	a0,s1
	call	wps_build_registrar_nonce
.LVL222:
	.loc 1 582 41
	bne	a0,zero,.L148
	.loc 1 584 6
	lhu	a1,616(s1)
	mv	a0,s0
	call	wps_build_config_error
.LVL223:
	.loc 1 583 42
	bne	a0,zero,.L148
	.loc 1 585 6
	li	a3,0
	li	a2,0
	li	a1,0
	mv	a0,s0
	call	wps_build_wfa_ext
.LVL224:
	.loc 1 584 53
	beq	a0,zero,.L145
	j	.L148
	.cfi_endproc
.LFE87:
	.size	wps_build_wsc_nack, .-wps_build_wsc_nack
	.text
.Letext0:
	.file 4 "/mnt/d/GitHub/bl_iot_sdk_for_aithinker/toolchain/riscv/Linux/lib/gcc/riscv64-unknown-elf/10.2.0/include/stddef.h"
	.file 5 "/mnt/d/GitHub/bl_iot_sdk_for_aithinker/toolchain/riscv/Linux/riscv64-unknown-elf/include/machine/_default_types.h"
	.file 6 "/mnt/d/GitHub/bl_iot_sdk_for_aithinker/toolchain/riscv/Linux/riscv64-unknown-elf/include/sys/_stdint.h"
	.file 7 "/mnt/d/GitHub/bl_iot_sdk_for_aithinker/components/security/wpa_supplicant/src/wps/wps_defs.h"
	.file 8 "/mnt/d/GitHub/bl_iot_sdk_for_aithinker/components/security/wpa_supplicant/src/wps/wps.h"
	.file 9 "/mnt/d/GitHub/bl_iot_sdk_for_aithinker/components/security/wpa_supplicant/src/wps/wps_i.h"
	.file 10 "/mnt/d/GitHub/bl_iot_sdk_for_aithinker/toolchain/riscv/Linux/riscv64-unknown-elf/include/string.h"
	.file 11 "/mnt/d/GitHub/bl_iot_sdk_for_aithinker/components/security/wpa_supplicant/src/crypto/crypto.h"
	.file 12 "/mnt/d/GitHub/bl_iot_sdk_for_aithinker/toolchain/riscv/Linux/riscv64-unknown-elf/include/stdio.h"
	.file 13 "/mnt/d/GitHub/bl_iot_sdk_for_aithinker/toolchain/riscv/Linux/riscv64-unknown-elf/include/stdlib.h"
	.file 14 "/mnt/d/GitHub/bl_iot_sdk_for_aithinker/components/security/wpa_supplicant/port/include/os.h"
	.file 15 "/mnt/d/GitHub/bl_iot_sdk_for_aithinker/components/security/wpa_supplicant/src/crypto/aes_wrap.h"
	.file 16 "/mnt/d/GitHub/bl_iot_sdk_for_aithinker/components/security/wpa_supplicant/src/crypto/sha256.h"
	.file 17 "/mnt/d/GitHub/bl_iot_sdk_for_aithinker/components/security/wpa_supplicant/src/crypto/dh_group5.h"
	.file 18 "<built-in>"