	.file	"wps_dev_attr.c"
	.option nopic
	.attribute arch, "rv32i2p0_m2p0_f2p0_c2p0"
	.attribute unaligned_access, 0
	.attribute stack_align, 16
	.text
.Ltext0:
	.cfi_sections	.debug_frame
	.section	.text.wpabuf_put_be16,"ax",@progbits
	.align	1
	.type	wpabuf_put_be16, @function
wpabuf_put_be16:
.LFB62:
	.file 1 "/mnt/d/GitHub/bl_iot_sdk_for_aithinker/components/security/wpa_supplicant/include/utils/wpabuf.h"
	.loc 1 127 1
	.cfi_startproc
.LVL0:
	.loc 1 128 2
	.loc 1 127 1 is_stmt 0
	addi	sp,sp,-16
	.cfi_def_cfa_offset 16
	sw	s0,8(sp)
	.cfi_offset 8, -8
	mv	s0,a1
	.loc 1 128 12
	li	a1,2
.LVL1:
	.loc 1 127 1
	sw	ra,12(sp)
	.cfi_offset 1, -4
	.loc 1 128 12
	call	wpabuf_put
.LVL2:
	.loc 1 129 2 is_stmt 1
.LBB10:
.LBB11:
	.file 2 "/mnt/d/GitHub/bl_iot_sdk_for_aithinker/components/security/wpa_supplicant/src/utils/common.h"
	.loc 2 132 2
	.loc 2 132 7 is_stmt 0
	srli	a5,s0,8
	sb	a5,0(a0)
	.loc 2 133 2 is_stmt 1
	.loc 2 133 7 is_stmt 0
	sb	s0,1(a0)
.LVL3:
.LBE11:
.LBE10:
	.loc 1 130 1
	lw	ra,12(sp)
	.cfi_restore 1
	lw	s0,8(sp)
	.cfi_restore 8
	addi	sp,sp,16
	.cfi_def_cfa_offset 0
	jr	ra
	.cfi_endproc
.LFE62:
	.size	wpabuf_put_be16, .-wpabuf_put_be16
	.section	.text.wpabuf_put_data,"ax",@progbits
	.align	1
	.type	wpabuf_put_data, @function
wpabuf_put_data:
.LFB65:
	.loc 1 146 1 is_stmt 1
	.cfi_startproc
.LVL4:
	.loc 1 147 2
	.loc 1 147 5 is_stmt 0
	beq	a1,zero,.L3
	.loc 1 146 1
	addi	sp,sp,-32
	.cfi_def_cfa_offset 32
	sw	s0,24(sp)
	.cfi_offset 8, -8
	mv	s0,a1
.LVL5:
.LBB14:
.LBB15:
	.loc 1 148 3 is_stmt 1
	mv	a1,a2
.LVL6:
.LBE15:
.LBE14:
	.loc 1 146 1 is_stmt 0
	sw	ra,28(sp)
	.cfi_offset 1, -4
.LBB19:
.LBB16:
	.loc 1 148 3
	sw	a2,12(sp)
	call	wpabuf_put
.LVL7:
	mv	a1,s0
.LBE16:
.LBE19:
	.loc 1 149 1
	lw	s0,24(sp)
	.cfi_restore 8
.LVL8:
.LBB20:
.LBB17:
	.loc 1 148 3
	lw	a2,12(sp)
.LBE17:
.LBE20:
	.loc 1 149 1
	lw	ra,28(sp)
	.cfi_restore 1
	addi	sp,sp,32
	.cfi_def_cfa_offset 0
.LVL9:
.LBB21:
.LBB18:
	.loc 1 148 3
	tail	memcpy
.LVL10:
.L3:
	ret
.LBE18:
.LBE21:
	.cfi_endproc
.LFE65:
	.size	wpabuf_put_data, .-wpabuf_put_data
	.section	.text.wps_build_manufacturer,"ax",@progbits
	.align	1
	.globl	wps_build_manufacturer
	.type	wps_build_manufacturer, @function
wps_build_manufacturer:
.LFB69:
	.file 3 "/mnt/d/GitHub/bl_iot_sdk_for_aithinker/components/security/wpa_supplicant/src/wps/wps_dev_attr.c"
	.loc 3 15 1 is_stmt 1
	.cfi_startproc
.LVL11:
	.loc 3 16 2
	.loc 3 17 2
	.loc 3 17 6
	.loc 3 17 13
	.loc 3 18 2
	.loc 3 15 1 is_stmt 0
	addi	sp,sp,-32
	.cfi_def_cfa_offset 32
	sw	s0,24(sp)
	.cfi_offset 8, -8
	mv	s0,a1
	.loc 3 18 2
	li	a1,4096
.LVL12:
	.loc 3 15 1
	sw	s1,20(sp)
	.loc 3 18 2
	addi	a1,a1,33
	.cfi_offset 9, -12
	.loc 3 15 1
	mv	s1,a0
	.loc 3 18 2
	mv	a0,s0
.LVL13:
	.loc 3 15 1
	sw	ra,28(sp)
	.cfi_offset 1, -4
	.loc 3 18 2
	call	wpabuf_put_be16
.LVL14:
	.loc 3 19 2 is_stmt 1
	.loc 3 19 11 is_stmt 0
	lw	a0,12(s1)
	.loc 3 19 54
	li	a2,0
	beq	a0,zero,.L9
	.loc 3 19 28 discriminator 1
	call	strlen
.LVL15:
	mv	a2,a0
.L9:
.LVL16:
	.loc 3 32 2 is_stmt 1 discriminator 4
	slli	a1,a2,16
	mv	a0,s0
	srli	a1,a1,16
	sw	a2,12(sp)
	call	wpabuf_put_be16
.LVL17:
	.loc 3 33 2 discriminator 4
	lw	a2,12(sp)
	lw	a1,12(s1)
	mv	a0,s0
	call	wpabuf_put_data
.LVL18:
	.loc 3 34 2 discriminator 4
	.loc 3 35 1 is_stmt 0 discriminator 4
	lw	ra,28(sp)
	.cfi_restore 1
	lw	s0,24(sp)
	.cfi_restore 8
.LVL19:
	lw	s1,20(sp)
	.cfi_restore 9
.LVL20:
	li	a0,0
	addi	sp,sp,32
	.cfi_def_cfa_offset 0
.LVL21:
	jr	ra
	.cfi_endproc
.LFE69:
	.size	wps_build_manufacturer, .-wps_build_manufacturer
	.section	.text.wps_build_model_name,"ax",@progbits
	.align	1
	.globl	wps_build_model_name
	.type	wps_build_model_name, @function
wps_build_model_name:
.LFB70:
	.loc 3 39 1 is_stmt 1
	.cfi_startproc
.LVL22:
	.loc 3 40 2
	.loc 3 41 2
	.loc 3 41 6
	.loc 3 41 13
	.loc 3 42 2
	.loc 3 39 1 is_stmt 0
	addi	sp,sp,-32
	.cfi_def_cfa_offset 32
	sw	s0,24(sp)
	.cfi_offset 8, -8
	mv	s0,a1
	.loc 3 42 2
	li	a1,4096
.LVL23:
	.loc 3 39 1
	sw	s1,20(sp)
	.loc 3 42 2
	addi	a1,a1,35
	.cfi_offset 9, -12
	.loc 3 39 1
	mv	s1,a0
	.loc 3 42 2
	mv	a0,s0
.LVL24:
	.loc 3 39 1
	sw	ra,28(sp)
	.cfi_offset 1, -4
	.loc 3 42 2
	call	wpabuf_put_be16
.LVL25:
	.loc 3 43 2 is_stmt 1
	.loc 3 43 11 is_stmt 0
	lw	a0,16(s1)
	.loc 3 43 50
	li	a2,0
	beq	a0,zero,.L13
	.loc 3 43 26 discriminator 1
	call	strlen
.LVL26:
	mv	a2,a0
.L13:
.LVL27:
	.loc 3 56 2 is_stmt 1 discriminator 4
	slli	a1,a2,16
	mv	a0,s0
	srli	a1,a1,16
	sw	a2,12(sp)
	call	wpabuf_put_be16
.LVL28:
	.loc 3 57 2 discriminator 4
	lw	a2,12(sp)
	lw	a1,16(s1)
	mv	a0,s0
	call	wpabuf_put_data
.LVL29:
	.loc 3 58 2 discriminator 4
	.loc 3 59 1 is_stmt 0 discriminator 4
	lw	ra,28(sp)
	.cfi_restore 1
	lw	s0,24(sp)
	.cfi_restore 8
.LVL30:
	lw	s1,20(sp)
	.cfi_restore 9
.LVL31:
	li	a0,0
	addi	sp,sp,32
	.cfi_def_cfa_offset 0
.LVL32:
	jr	ra
	.cfi_endproc
.LFE70:
	.size	wps_build_model_name, .-wps_build_model_name
	.section	.text.wps_build_model_number,"ax",@progbits
	.align	1
	.globl	wps_build_model_number
	.type	wps_build_model_number, @function
wps_build_model_number:
.LFB71:
	.loc 3 63 1 is_stmt 1
	.cfi_startproc
.LVL33:
	.loc 3 64 2
	.loc 3 65 2
	.loc 3 65 6
	.loc 3 65 13
	.loc 3 66 2
	.loc 3 63 1 is_stmt 0
	addi	sp,sp,-32
	.cfi_def_cfa_offset 32
	sw	s0,24(sp)
	.cfi_offset 8, -8
	mv	s0,a1
	.loc 3 66 2
	li	a1,4096
.LVL34:
	.loc 3 63 1
	sw	s1,20(sp)
	.loc 3 66 2
	addi	a1,a1,36
	.cfi_offset 9, -12
	.loc 3 63 1
	mv	s1,a0
	.loc 3 66 2
	mv	a0,s0
.LVL35:
	.loc 3 63 1
	sw	ra,28(sp)
	.cfi_offset 1, -4
	.loc 3 66 2
	call	wpabuf_put_be16
.LVL36:
	.loc 3 67 2 is_stmt 1
	.loc 3 67 11 is_stmt 0
	lw	a0,20(s1)
	.loc 3 67 54
	li	a2,0
	beq	a0,zero,.L17
	.loc 3 67 28 discriminator 1
	call	strlen
.LVL37:
	mv	a2,a0
.L17:
.LVL38:
	.loc 3 80 2 is_stmt 1 discriminator 4
	slli	a1,a2,16
	mv	a0,s0
	srli	a1,a1,16
	sw	a2,12(sp)
	call	wpabuf_put_be16
.LVL39:
	.loc 3 81 2 discriminator 4
	lw	a2,12(sp)
	lw	a1,20(s1)
	mv	a0,s0
	call	wpabuf_put_data
.LVL40:
	.loc 3 82 2 discriminator 4
	.loc 3 83 1 is_stmt 0 discriminator 4
	lw	ra,28(sp)
	.cfi_restore 1
	lw	s0,24(sp)
	.cfi_restore 8
.LVL41:
	lw	s1,20(sp)
	.cfi_restore 9
.LVL42:
	li	a0,0
	addi	sp,sp,32
	.cfi_def_cfa_offset 0
.LVL43:
	jr	ra
	.cfi_endproc
.LFE71:
	.size	wps_build_model_number, .-wps_build_model_number
	.section	.text.wps_build_primary_dev_type,"ax",@progbits
	.align	1
	.globl	wps_build_primary_dev_type
	.type	wps_build_primary_dev_type, @function
wps_build_primary_dev_type:
.LFB73:
	.loc 3 112 1 is_stmt 1
	.cfi_startproc
.LVL44:
	.loc 3 113 2
	.loc 3 113 6
	.loc 3 113 13
	.loc 3 114 2
	.loc 3 112 1 is_stmt 0
	addi	sp,sp,-16
	.cfi_def_cfa_offset 16
	sw	s0,8(sp)
	.cfi_offset 8, -8
	mv	s0,a1
	.loc 3 114 2
	li	a1,4096
.LVL45:
	.loc 3 112 1
	sw	s1,4(sp)
	.loc 3 114 2
	addi	a1,a1,84
	.cfi_offset 9, -12
	.loc 3 112 1
	mv	s1,a0
	.loc 3 114 2
	mv	a0,s0
.LVL46:
	.loc 3 112 1
	sw	ra,12(sp)
	.cfi_offset 1, -4
	.loc 3 114 2
	call	wpabuf_put_be16
.LVL47:
	.loc 3 115 2 is_stmt 1
	mv	a0,s0
	li	a1,8
	call	wpabuf_put_be16
.LVL48:
	.loc 3 116 2
	mv	a0,s0
	addi	a1,s1,28
	li	a2,8
	call	wpabuf_put_data
.LVL49:
	.loc 3 117 2
	.loc 3 118 1 is_stmt 0
	lw	ra,12(sp)
	.cfi_restore 1
	lw	s0,8(sp)
	.cfi_restore 8
.LVL50:
	lw	s1,4(sp)
	.cfi_restore 9
.LVL51:
	li	a0,0
	addi	sp,sp,16
	.cfi_def_cfa_offset 0
	jr	ra
	.cfi_endproc
.LFE73:
	.size	wps_build_primary_dev_type, .-wps_build_primary_dev_type
	.section	.text.wps_build_secondary_dev_type,"ax",@progbits
	.align	1
	.globl	wps_build_secondary_dev_type
	.type	wps_build_secondary_dev_type, @function
wps_build_secondary_dev_type:
.LFB74:
	.loc 3 123 1 is_stmt 1
	.cfi_startproc
.LVL52:
	.loc 3 124 2
	.loc 3 123 1 is_stmt 0
	addi	sp,sp,-32
	.cfi_def_cfa_offset 32
	sw	s0,24(sp)
	sw	ra,28(sp)
	.cfi_offset 8, -8
	.cfi_offset 1, -4
	.loc 3 124 5
	lbu	a5,76(a0)
	.loc 3 123 1
	mv	s0,a0
	.loc 3 124 5
	beq	a5,zero,.L23
	mv	a0,a1
.LVL53:
	.loc 3 127 2 is_stmt 1
	.loc 3 127 6
	.loc 3 127 13
	.loc 3 128 2
	li	a1,4096
.LVL54:
	addi	a1,a1,85
	sw	a0,12(sp)
	call	wpabuf_put_be16
.LVL55:
	.loc 3 129 2
	lbu	a1,76(s0)
	lw	a0,12(sp)
	slli	a1,a1,3
	call	wpabuf_put_be16
.LVL56:
	.loc 3 130 2
	.loc 3 131 11 is_stmt 0
	lbu	a2,76(s0)
	.loc 3 130 2
	lw	a0,12(sp)
	addi	a1,s0,36
	slli	a2,a2,3
	call	wpabuf_put_data
.LVL57:
	.loc 3 133 2 is_stmt 1
.L23:
	.loc 3 134 1 is_stmt 0
	lw	ra,28(sp)
	.cfi_restore 1
	lw	s0,24(sp)
	.cfi_restore 8
.LVL58:
	li	a0,0
	addi	sp,sp,32
	.cfi_def_cfa_offset 0
	jr	ra
	.cfi_endproc
.LFE74:
	.size	wps_build_secondary_dev_type, .-wps_build_secondary_dev_type
	.section	.text.wps_build_req_dev_type,"ax",@progbits
	.align	1
	.globl	wps_build_req_dev_type
	.type	wps_build_req_dev_type, @function
wps_build_req_dev_type:
.LFB75:
	.loc 3 140 1 is_stmt 1
	.cfi_startproc
.LVL59:
	.loc 3 141 2
	.loc 3 143 2
	.loc 3 140 1 is_stmt 0
	addi	sp,sp,-32
	.cfi_def_cfa_offset 32
	sw	s4,8(sp)
	.cfi_offset 20, -24
	.loc 3 147 3
	li	s4,4096
	.loc 3 140 1
	sw	s0,24(sp)
	sw	s1,20(sp)
	sw	s2,16(sp)
	sw	s3,12(sp)
	sw	ra,28(sp)
	.cfi_offset 8, -8
	.cfi_offset 9, -12
	.cfi_offset 18, -16
	.cfi_offset 19, -20
	.cfi_offset 1, -4
	.loc 3 140 1
	mv	s0,a1
	mv	s2,a2
	mv	s3,a3
	.loc 3 143 9
	li	s1,0
	.loc 3 147 3
	addi	s4,s4,106
.LVL60:
.L29:
	.loc 3 143 14 is_stmt 1 discriminator 1
	.loc 3 143 2 is_stmt 0 discriminator 1
	bne	s1,s2,.L30
	.loc 3 153 2 is_stmt 1
	.loc 3 154 1 is_stmt 0
	lw	ra,28(sp)
	.cfi_remember_state
	.cfi_restore 1
	lw	s0,24(sp)
	.cfi_restore 8
.LVL61:
	lw	s1,20(sp)
	.cfi_restore 9
.LVL62:
	lw	s2,16(sp)
	.cfi_restore 18
.LVL63:
	lw	s3,12(sp)
	.cfi_restore 19
.LVL64:
	lw	s4,8(sp)
	.cfi_restore 20
	li	a0,0
	addi	sp,sp,32
	.cfi_def_cfa_offset 0
	jr	ra
.LVL65:
.L30:
	.cfi_restore_state
	.loc 3 144 3 is_stmt 1 discriminator 3
	.loc 3 144 7 discriminator 3
	.loc 3 144 14 discriminator 3
	.loc 3 147 3 discriminator 3
	mv	a1,s4
	mv	a0,s0
	call	wpabuf_put_be16
.LVL66:
	.loc 3 148 3 discriminator 3
	li	a1,8
	mv	a0,s0
	call	wpabuf_put_be16
.LVL67:
	.loc 3 149 3 discriminator 3
	slli	a1,s1,3
	li	a2,8
	add	a1,s3,a1
	mv	a0,s0
	call	wpabuf_put_data
.LVL68:
	.loc 3 143 37 discriminator 3
	.loc 3 143 38 is_stmt 0 discriminator 3
	addi	s1,s1,1
.LVL69:
	j	.L29
	.cfi_endproc
.LFE75:
	.size	wps_build_req_dev_type, .-wps_build_req_dev_type
	.section	.text.wps_build_dev_name,"ax",@progbits
	.align	1
	.globl	wps_build_dev_name
	.type	wps_build_dev_name, @function
wps_build_dev_name:
.LFB76:
	.loc 3 158 1 is_stmt 1
	.cfi_startproc
.LVL70:
	.loc 3 159 2
	.loc 3 160 2
	.loc 3 160 6
	.loc 3 160 13
	.loc 3 161 2
	.loc 3 158 1 is_stmt 0
	addi	sp,sp,-32
	.cfi_def_cfa_offset 32
	sw	s0,24(sp)
	.cfi_offset 8, -8
	mv	s0,a1
	.loc 3 161 2
	li	a1,4096
.LVL71:
	.loc 3 158 1
	sw	s1,20(sp)
	.loc 3 161 2
	addi	a1,a1,17
	.cfi_offset 9, -12
	.loc 3 158 1
	mv	s1,a0
	.loc 3 161 2
	mv	a0,s0
.LVL72:
	.loc 3 158 1
	sw	ra,28(sp)
	.cfi_offset 1, -4
	.loc 3 161 2
	call	wpabuf_put_be16
.LVL73:
	.loc 3 162 2 is_stmt 1
	.loc 3 162 11 is_stmt 0
	lw	a0,8(s1)
	.loc 3 162 52
	li	a2,0
	beq	a0,zero,.L33
	.loc 3 162 27 discriminator 1
	call	strlen
.LVL74:
	mv	a2,a0
.L33:
.LVL75:
	.loc 3 175 2 is_stmt 1 discriminator 4
	slli	a1,a2,16
	mv	a0,s0
	srli	a1,a1,16
	sw	a2,12(sp)
	call	wpabuf_put_be16
.LVL76:
	.loc 3 176 2 discriminator 4
	lw	a2,12(sp)
	lw	a1,8(s1)
	mv	a0,s0
	call	wpabuf_put_data
.LVL77:
	.loc 3 177 2 discriminator 4
	.loc 3 178 1 is_stmt 0 discriminator 4
	lw	ra,28(sp)
	.cfi_restore 1
	lw	s0,24(sp)
	.cfi_restore 8
.LVL78:
	lw	s1,20(sp)
	.cfi_restore 9
.LVL79:
	li	a0,0
	addi	sp,sp,32
	.cfi_def_cfa_offset 0
.LVL80:
	jr	ra
	.cfi_endproc
.LFE76:
	.size	wps_build_dev_name, .-wps_build_dev_name
	.section	.text.wps_build_device_attrs,"ax",@progbits
	.align	1
	.globl	wps_build_device_attrs
	.type	wps_build_device_attrs, @function
wps_build_device_attrs:
.LFB77:
	.loc 3 182 1 is_stmt 1
	.cfi_startproc
.LVL81:
	.loc 3 183 2
	.loc 3 182 1 is_stmt 0
	addi	sp,sp,-32
	.cfi_def_cfa_offset 32
	sw	s0,24(sp)
	sw	s1,20(sp)
	sw	ra,28(sp)
	.cfi_offset 8, -8
	.cfi_offset 9, -12
	.cfi_offset 1, -4
	.loc 3 182 1
	mv	s1,a0
	mv	s0,a1
	.loc 3 183 6
	call	wps_build_manufacturer
.LVL82:
	.loc 3 183 5
	beq	a0,zero,.L37
.L39:
	.loc 3 189 10
	li	a0,-1
.L36:
	.loc 3 191 1
	lw	ra,28(sp)
	.cfi_remember_state
	.cfi_restore 1
	lw	s0,24(sp)
	.cfi_restore 8
.LVL83:
	lw	s1,20(sp)
	.cfi_restore 9
.LVL84:
	addi	sp,sp,32
	.cfi_def_cfa_offset 0
	jr	ra
.LVL85:
.L37:
	.cfi_restore_state
	.loc 3 184 6 discriminator 1
	mv	a1,s0
	mv	a0,s1
	call	wps_build_model_name
.LVL86:
	.loc 3 183 39 discriminator 1
	bne	a0,zero,.L39
	.loc 3 185 6
	mv	a1,s0
	mv	a0,s1
	call	wps_build_model_number
.LVL87:
	.loc 3 184 37
	bne	a0,zero,.L39
.LVL88:
.LBB24:
.LBB25:
	.loc 3 89 2 is_stmt 1
	.loc 3 90 2
	.loc 3 90 6
	.loc 3 90 13
	.loc 3 91 2
	li	a1,4096
	mv	a0,s0
	addi	a1,a1,66
	call	wpabuf_put_be16
.LVL89:
	.loc 3 92 2
	.loc 3 92 11 is_stmt 0
	lw	a0,24(s1)
	.loc 3 92 56
	li	a2,0
	beq	a0,zero,.L40
	.loc 3 92 29
	call	strlen
.LVL90:
	mv	a2,a0
.L40:
.LVL91:
	.loc 3 105 2 is_stmt 1
	slli	a1,a2,16
	srli	a1,a1,16
	mv	a0,s0
	sw	a2,12(sp)
	call	wpabuf_put_be16
.LVL92:
	.loc 3 106 2
	lw	a1,24(s1)
	lw	a2,12(sp)
	mv	a0,s0
	call	wpabuf_put_data
.LVL93:
	.loc 3 107 2
.LBE25:
.LBE24:
	.loc 3 187 6 is_stmt 0
	mv	a1,s0
	mv	a0,s1
	call	wps_build_primary_dev_type
.LVL94:
	.loc 3 186 40
	bne	a0,zero,.L39
	.loc 3 188 6
	mv	a1,s0
	mv	a0,s1
	call	wps_build_dev_name
.LVL95:
	.loc 3 187 43
	snez	a0,a0
	neg	a0,a0
	j	.L36
	.cfi_endproc
.LFE77:
	.size	wps_build_device_attrs, .-wps_build_device_attrs
	.section	.text.wps_build_os_version,"ax",@progbits
	.align	1
	.globl	wps_build_os_version
	.type	wps_build_os_version, @function
wps_build_os_version:
.LFB78:
	.loc 3 195 1 is_stmt 1
	.cfi_startproc
.LVL96:
	.loc 3 196 2
	.loc 3 196 6
	.loc 3 196 13
	.loc 3 197 2
	.loc 3 195 1 is_stmt 0
	addi	sp,sp,-16
	.cfi_def_cfa_offset 16
	sw	s1,4(sp)
	.cfi_offset 9, -12
	mv	s1,a1
	.loc 3 197 2
	li	a1,4096
.LVL97:
	.loc 3 195 1
	sw	s0,8(sp)
	.loc 3 197 2
	addi	a1,a1,45
	.cfi_offset 8, -8
	.loc 3 195 1
	mv	s0,a0
	.loc 3 197 2
	mv	a0,s1
.LVL98:
	.loc 3 195 1
	sw	ra,12(sp)
	.cfi_offset 1, -4
	.loc 3 197 2
	call	wpabuf_put_be16
.LVL99:
	.loc 3 198 2 is_stmt 1
	mv	a0,s1
	li	a1,4
	call	wpabuf_put_be16
.LVL100:
	.loc 3 199 2
	lw	a5,80(s0)
.LBB30:
.LBB31:
	.loc 1 140 12 is_stmt 0
	mv	a0,s1
.LBE31:
.LBE30:
	.loc 3 199 2
	li	s0,-2147483648
.LVL101:
.LBB36:
.LBB34:
	.loc 1 140 12
	li	a1,4
.LBE34:
.LBE36:
	.loc 3 199 2
	or	s0,s0,a5
.LVL102:
.LBB37:
.LBB35:
	.loc 1 140 2 is_stmt 1
	.loc 1 140 12 is_stmt 0
	call	wpabuf_put
.LVL103:
	.loc 1 141 2 is_stmt 1
.LBB32:
.LBB33:
	.loc 2 166 2
	.loc 2 166 14 is_stmt 0
	srli	a5,s0,24
	.loc 2 166 7
	sb	a5,0(a0)
	.loc 2 167 2 is_stmt 1
	.loc 2 167 14 is_stmt 0
	srli	a5,s0,16
	.loc 2 167 7
	sb	a5,1(a0)
	.loc 2 168 2 is_stmt 1
	.loc 2 168 14 is_stmt 0
	srli	a5,s0,8
	.loc 2 168 7
	sb	a5,2(a0)
	.loc 2 169 2 is_stmt 1
	.loc 2 169 7 is_stmt 0
	sb	s0,3(a0)
.LVL104:
.LBE33:
.LBE32:
.LBE35:
.LBE37:
	.loc 3 200 2 is_stmt 1
	.loc 3 201 1 is_stmt 0
	lw	ra,12(sp)
	.cfi_restore 1
	lw	s0,8(sp)
	.cfi_restore 8
	lw	s1,4(sp)
	.cfi_restore 9
.LVL105:
	li	a0,0
	addi	sp,sp,16
	.cfi_def_cfa_offset 0
	jr	ra
	.cfi_endproc
.LFE78:
	.size	wps_build_os_version, .-wps_build_os_version
	.section	.text.wps_build_vendor_ext_m1,"ax",@progbits
	.align	1
	.globl	wps_build_vendor_ext_m1
	.type	wps_build_vendor_ext_m1, @function
wps_build_vendor_ext_m1:
.LFB79:
	.loc 3 205 1 is_stmt 1
	.cfi_startproc
.LVL106:
	.loc 3 206 2
	.loc 3 206 5 is_stmt 0
	lw	a5,88(a0)
	beq	a5,zero,.L53
	.loc 3 205 1
	addi	sp,sp,-16
	.cfi_def_cfa_offset 16
	sw	s0,8(sp)
	.cfi_offset 8, -8
	mv	s0,a1
	.loc 3 207 3 is_stmt 1
	.loc 3 207 7
	.loc 3 207 14
	.loc 3 210 3
	li	a1,4096
.LVL107:
	.loc 3 205 1 is_stmt 0
	sw	s1,4(sp)
	.loc 3 210 3
	addi	a1,a1,73
	.cfi_offset 9, -12
	mv	s1,a0
	mv	a0,s0
.LVL108:
	.loc 3 205 1
	sw	ra,12(sp)
	.cfi_offset 1, -4
	.loc 3 210 3
	call	wpabuf_put_be16
.LVL109:
	.loc 3 211 3 is_stmt 1
.LBB46:
.LBB47:
	.loc 1 61 2
	.loc 1 61 12 is_stmt 0
	lw	a5,88(s1)
.LBE47:
.LBE46:
	.loc 3 211 3
	mv	a0,s0
	lhu	a1,4(a5)
	call	wpabuf_put_be16
.LVL110:
	.loc 3 212 3 is_stmt 1
	.loc 3 212 26 is_stmt 0
	lw	a5,88(s1)
.LVL111:
.LBB48:
.LBB49:
	.loc 1 154 2 is_stmt 1
.LBB50:
.LBB51:
	.loc 1 81 2
	.loc 1 81 9 is_stmt 0
	lw	a1,8(a5)
	.loc 1 81 5
	bne	a1,zero,.L48
	.loc 1 83 2 is_stmt 1
	.loc 1 83 13 is_stmt 0
	addi	a1,a5,12
.L48:
.LVL112:
.LBE51:
.LBE50:
.LBB52:
.LBB53:
	.loc 1 61 2 is_stmt 1
.LBE53:
.LBE52:
	.loc 1 154 2 is_stmt 0
	lw	a2,4(a5)
	mv	a0,s0
	call	wpabuf_put_data
.LVL113:
.LBE49:
.LBE48:
	.loc 3 214 2 is_stmt 1
	.loc 3 215 1 is_stmt 0
	lw	ra,12(sp)
	.cfi_restore 1
	lw	s0,8(sp)
	.cfi_restore 8
.LVL114:
	lw	s1,4(sp)
	.cfi_restore 9
.LVL115:
	li	a0,0
	addi	sp,sp,16
	.cfi_def_cfa_offset 0
	jr	ra
.LVL116:
.L53:
	.loc 3 214 2 is_stmt 1
	.loc 3 215 1 is_stmt 0
	li	a0,0
.LVL117:
	ret
	.cfi_endproc
.LFE79:
	.size	wps_build_vendor_ext_m1, .-wps_build_vendor_ext_m1
	.section	.text.wps_build_rf_bands,"ax",@progbits
	.align	1
	.globl	wps_build_rf_bands
	.type	wps_build_rf_bands, @function
wps_build_rf_bands:
.LFB80:
	.loc 3 219 1 is_stmt 1
	.cfi_startproc
.LVL118:
	.loc 3 220 2
	.loc 3 220 6
	.loc 3 220 13
	.loc 3 221 2
	.loc 3 219 1 is_stmt 0
	addi	sp,sp,-16
	.cfi_def_cfa_offset 16
	sw	s0,8(sp)
	.cfi_offset 8, -8
	mv	s0,a1
	.loc 3 221 2
	li	a1,4096
.LVL119:
	.loc 3 219 1
	sw	s1,4(sp)
	.loc 3 221 2
	addi	a1,a1,60
	.cfi_offset 9, -12
	.loc 3 219 1
	mv	s1,a0
	.loc 3 221 2
	mv	a0,s0
.LVL120:
	.loc 3 219 1
	sw	ra,12(sp)
	.cfi_offset 1, -4
	.loc 3 221 2
	call	wpabuf_put_be16
.LVL121:
	.loc 3 222 2 is_stmt 1
	mv	a0,s0
	li	a1,1
	call	wpabuf_put_be16
.LVL122:
	.loc 3 223 2
	lbu	s1,84(s1)
.LVL123:
.LBB56:
.LBB57:
	.loc 1 110 2
	.loc 1 110 12 is_stmt 0
	mv	a0,s0
	li	a1,1
	call	wpabuf_put
.LVL124:
	.loc 1 111 2 is_stmt 1
	.loc 1 111 7 is_stmt 0
	sb	s1,0(a0)
.LVL125:
.LBE57:
.LBE56:
	.loc 3 224 2 is_stmt 1
	.loc 3 225 1 is_stmt 0
	lw	ra,12(sp)
	.cfi_restore 1
	lw	s0,8(sp)
	.cfi_restore 8
.LVL126:
	lw	s1,4(sp)
	.cfi_restore 9
	li	a0,0
	addi	sp,sp,16
	.cfi_def_cfa_offset 0
	jr	ra
	.cfi_endproc
.LFE80:
	.size	wps_build_rf_bands, .-wps_build_rf_bands
	.section	.text.wps_build_vendor_ext,"ax",@progbits
	.align	1
	.globl	wps_build_vendor_ext
	.type	wps_build_vendor_ext, @function
wps_build_vendor_ext:
.LFB81:
	.loc 3 229 1 is_stmt 1
	.cfi_startproc
.LVL127:
	.loc 3 230 2
	.loc 3 232 2
	.loc 3 232 14
	.loc 3 229 1 is_stmt 0
	addi	sp,sp,-32
	.cfi_def_cfa_offset 32
	sw	s3,12(sp)
	.cfi_offset 19, -20
	.loc 3 238 3
	li	s3,4096
	.loc 3 229 1
	sw	s0,24(sp)
	sw	s1,20(sp)
	sw	s2,16(sp)
	sw	ra,28(sp)
	.cfi_offset 8, -8
	.cfi_offset 9, -12
	.cfi_offset 18, -16
	.cfi_offset 1, -4
	.loc 3 229 1
	mv	s2,a1
	addi	s1,a0,92
	addi	s0,a0,132
	.loc 3 238 3
	addi	s3,s3,73
.LVL128:
.L61:
	.loc 3 233 3 is_stmt 1
	.loc 3 233 6 is_stmt 0
	lw	a5,0(s1)
	beq	a5,zero,.L59
	.loc 3 235 3 is_stmt 1
	.loc 3 235 7
	.loc 3 235 14
	.loc 3 238 3
	mv	a1,s3
	mv	a0,s2
	call	wpabuf_put_be16
.LVL129:
	.loc 3 239 3
.LBB66:
.LBB67:
	.loc 1 61 2
	.loc 1 61 12 is_stmt 0
	lw	a5,0(s1)
.LBE67:
.LBE66:
	.loc 3 239 3
	mv	a0,s2
	lhu	a1,4(a5)
	call	wpabuf_put_be16
.LVL130:
	.loc 3 240 3 is_stmt 1
	.loc 3 240 38 is_stmt 0
	lw	a5,0(s1)
.LVL131:
.LBB68:
.LBB69:
	.loc 1 154 2 is_stmt 1
.LBB70:
.LBB71:
	.loc 1 81 2
	.loc 1 81 9 is_stmt 0
	lw	a1,8(a5)
	.loc 1 81 5
	bne	a1,zero,.L60
	.loc 1 83 2 is_stmt 1
	.loc 1 83 13 is_stmt 0
	addi	a1,a5,12
.L60:
.LVL132:
.LBE71:
.LBE70:
.LBB72:
.LBB73:
	.loc 1 61 2 is_stmt 1
.LBE73:
.LBE72:
	.loc 1 154 2 is_stmt 0
	lw	a2,4(a5)
	mv	a0,s2
	call	wpabuf_put_data
.LVL133:
.L59:
.LBE69:
.LBE68:
	.loc 3 232 22 is_stmt 1 discriminator 2
	.loc 3 232 14 discriminator 2
	.loc 3 232 2 is_stmt 0 discriminator 2
	addi	s1,s1,4
	bne	s1,s0,.L61
	.loc 3 243 2 is_stmt 1
	.loc 3 244 1 is_stmt 0
	lw	ra,28(sp)
	.cfi_restore 1
	lw	s0,24(sp)
	.cfi_restore 8
.LVL134:
	lw	s1,20(sp)
	.cfi_restore 9
	lw	s2,16(sp)
	.cfi_restore 18
.LVL135:
	lw	s3,12(sp)
	.cfi_restore 19
	li	a0,0
	addi	sp,sp,32
	.cfi_def_cfa_offset 0
	jr	ra
	.cfi_endproc
.LFE81:
	.size	wps_build_vendor_ext, .-wps_build_vendor_ext
	.section	.text.wps_process_device_attrs,"ax",@progbits
	.align	1
	.globl	wps_process_device_attrs
	.type	wps_process_device_attrs, @function
wps_process_device_attrs:
.LFB88:
	.loc 3 368 1 is_stmt 1
	.cfi_startproc
.LVL136:
	.loc 3 369 2
	.loc 3 368 1 is_stmt 0
	addi	sp,sp,-32
	.cfi_def_cfa_offset 32
	sw	s1,20(sp)
	sw	ra,28(sp)
	sw	s0,24(sp)
	sw	s2,16(sp)
	.cfi_offset 9, -12
	.cfi_offset 1, -4
	.cfi_offset 8, -8
	.cfi_offset 18, -16
	.loc 3 368 1
	mv	s1,a1
	.loc 3 369 6
	lw	a1,176(a1)
.LVL137:
	lw	s2,180(s1)
.LVL138:
.LBB86:
.LBB87:
	.loc 3 250 2 is_stmt 1
	.loc 3 250 5 is_stmt 0
	bne	a1,zero,.L68
.LVL139:
.L70:
.LBE87:
.LBE86:
	.loc 3 379 10
	li	a0,-1
.L67:
	.loc 3 381 1
	lw	ra,28(sp)
	.cfi_remember_state
	.cfi_restore 1
	lw	s0,24(sp)
	.cfi_restore 8
	lw	s1,20(sp)
	.cfi_restore 9
	lw	s2,16(sp)
	.cfi_restore 18
	addi	sp,sp,32
	.cfi_def_cfa_offset 0
	jr	ra
.LVL140:
.L68:
	.cfi_restore_state
	mv	s0,a0
.LBB89:
.LBB88:
	.loc 3 257 2
	lw	a0,12(a0)
.LVL141:
	sw	a1,12(sp)
	.loc 3 255 2 is_stmt 1
	.loc 3 255 6
	.loc 3 255 13
	.loc 3 257 2
	call	wpa_supplicant_free
.LVL142:
	.loc 3 258 2
	.loc 3 258 30 is_stmt 0
	addi	a0,s2,1
	call	wpa_supplicant_malloc
.LVL143:
	.loc 3 258 20
	sw	a0,12(s0)
	.loc 3 259 2 is_stmt 1
	.loc 3 259 5 is_stmt 0
	beq	a0,zero,.L70
	.loc 3 261 2 is_stmt 1
	lw	a1,12(sp)
	mv	a2,s2
	call	memcpy
.LVL144:
	.loc 3 262 2
	.loc 3 262 29 is_stmt 0
	lw	a2,12(s0)
	add	a2,a2,s2
	sb	zero,0(a2)
	.loc 3 264 2 is_stmt 1
.LVL145:
.LBE88:
.LBE89:
	.loc 3 371 6 is_stmt 0
	lw	a1,184(s1)
	lw	s2,188(s1)
.LVL146:
.LBB90:
.LBB91:
	.loc 3 271 2 is_stmt 1
	.loc 3 271 5 is_stmt 0
	sw	a1,12(sp)
	beq	a1,zero,.L70
	.loc 3 276 2 is_stmt 1
	.loc 3 276 6
	.loc 3 276 13
	.loc 3 278 2
	lw	a0,16(s0)
	call	wpa_supplicant_free
.LVL147:
	.loc 3 279 2
	.loc 3 279 28 is_stmt 0
	addi	a0,s2,1
	call	wpa_supplicant_malloc
.LVL148:
	.loc 3 279 18
	sw	a0,16(s0)
	.loc 3 280 2 is_stmt 1
	.loc 3 280 5 is_stmt 0
	beq	a0,zero,.L70
	.loc 3 282 2 is_stmt 1
	lw	a1,12(sp)
	mv	a2,s2
	call	memcpy
.LVL149:
	.loc 3 283 2
	.loc 3 283 27 is_stmt 0
	lw	a2,16(s0)
	add	a2,a2,s2
	sb	zero,0(a2)
	.loc 3 285 2 is_stmt 1
.LVL150:
.LBE91:
.LBE90:
	.loc 3 373 6 is_stmt 0
	lw	a1,192(s1)
	lw	s2,196(s1)
.LVL151:
.LBB92:
.LBB93:
	.loc 3 292 2 is_stmt 1
	.loc 3 292 5 is_stmt 0
	sw	a1,12(sp)
	beq	a1,zero,.L70
	.loc 3 297 2 is_stmt 1
	.loc 3 297 6
	.loc 3 297 13
	.loc 3 299 2
	lw	a0,20(s0)
	call	wpa_supplicant_free
.LVL152:
	.loc 3 300 2
	.loc 3 300 30 is_stmt 0
	addi	a0,s2,1
	call	wpa_supplicant_malloc
.LVL153:
	.loc 3 300 20
	sw	a0,20(s0)
	.loc 3 301 2 is_stmt 1
	.loc 3 301 5 is_stmt 0
	beq	a0,zero,.L70
	.loc 3 303 2 is_stmt 1
	lw	a1,12(sp)
	mv	a2,s2
	call	memcpy
.LVL154:
	.loc 3 304 2
	.loc 3 304 29 is_stmt 0
	lw	a2,20(s0)
	add	a2,a2,s2
	sb	zero,0(a2)
	.loc 3 306 2 is_stmt 1
.LVL155:
.LBE93:
.LBE92:
	.loc 3 375 6 is_stmt 0
	lw	a1,200(s1)
	lw	s2,204(s1)
.LVL156:
.LBB94:
.LBB95:
	.loc 3 313 2 is_stmt 1
	.loc 3 313 5 is_stmt 0
	sw	a1,12(sp)
	beq	a1,zero,.L70
	.loc 3 318 2 is_stmt 1
	.loc 3 318 6
	.loc 3 318 13
	.loc 3 320 2
	lw	a0,24(s0)
	call	wpa_supplicant_free
.LVL157:
	.loc 3 321 2
	.loc 3 321 31 is_stmt 0
	addi	a0,s2,1
	call	wpa_supplicant_malloc
.LVL158:
	.loc 3 321 21
	sw	a0,24(s0)
	.loc 3 322 2 is_stmt 1
	.loc 3 322 5 is_stmt 0
	beq	a0,zero,.L70
	.loc 3 324 2 is_stmt 1
	lw	a1,12(sp)
	mv	a2,s2
	call	memcpy
.LVL159:
	.loc 3 325 2
	.loc 3 325 30 is_stmt 0
	lw	a2,24(s0)
	add	a2,a2,s2
	sb	zero,0(a2)
	.loc 3 327 2 is_stmt 1
.LVL160:
.LBE95:
.LBE94:
	.loc 3 377 6 is_stmt 0
	lw	a1,48(s1)
.LVL161:
.LBB96:
.LBB97:
	.loc 3 355 2 is_stmt 1
	.loc 3 355 5 is_stmt 0
	beq	a1,zero,.L70
	.loc 3 360 2 is_stmt 1
	li	a2,8
	addi	a0,s0,28
	call	memcpy
.LVL162:
	.loc 3 362 2
.LBE97:
.LBE96:
	.loc 3 378 6 is_stmt 0
	lw	a1,208(s1)
	lw	s1,212(s1)
.LVL163:
.LBB98:
.LBB99:
	.loc 3 334 2 is_stmt 1
	.loc 3 334 5 is_stmt 0
	sw	a1,12(sp)
	beq	a1,zero,.L70
	.loc 3 339 2 is_stmt 1
	.loc 3 339 6
	.loc 3 339 13
	.loc 3 341 2
	lw	a0,8(s0)
	call	wpa_supplicant_free
.LVL164:
	.loc 3 342 2
	.loc 3 342 29 is_stmt 0
	addi	a0,s1,1
	call	wpa_supplicant_malloc
.LVL165:
	.loc 3 342 19
	sw	a0,8(s0)
	.loc 3 343 2 is_stmt 1
	.loc 3 343 5 is_stmt 0
	beq	a0,zero,.L70
	.loc 3 345 2 is_stmt 1
	lw	a1,12(sp)
	mv	a2,s1
	call	memcpy
.LVL166:
	.loc 3 346 2
	.loc 3 346 28 is_stmt 0
	lw	a2,8(s0)
.LBE99:
.LBE98:
	.loc 3 380 9
	li	a0,0
.LBB101:
.LBB100:
	.loc 3 346 28
	add	a2,a2,s1
	sb	zero,0(a2)
	.loc 3 348 2 is_stmt 1
.LVL167:
	j	.L67
.LBE100:
.LBE101:
	.cfi_endproc
.LFE88:
	.size	wps_process_device_attrs, .-wps_process_device_attrs
	.section	.text.wps_process_os_version,"ax",@progbits
	.align	1
	.globl	wps_process_os_version
	.type	wps_process_os_version, @function
wps_process_os_version:
.LFB89:
	.loc 3 385 1
	.cfi_startproc
.LVL168:
	.loc 3 386 2
	.loc 3 386 5 is_stmt 0
	beq	a1,zero,.L104
	.loc 3 391 2 is_stmt 1
.LVL169:
.LBB104:
.LBB105:
	.loc 2 161 2
	.loc 2 161 10 is_stmt 0
	lbu	a5,0(a1)
	.loc 2 161 60
	lbu	a4,3(a1)
	.loc 2 161 21
	slli	a5,a5,24
	.loc 2 161 57
	or	a5,a5,a4
	.loc 2 161 32
	lbu	a4,1(a1)
	.loc 2 161 36
	slli	a4,a4,16
	.loc 2 161 57
	or	a5,a5,a4
	.loc 2 161 47
	lbu	a4,2(a1)
	.loc 2 161 51
	slli	a4,a4,8
	.loc 2 161 57
	or	a5,a5,a4
.LBE105:
.LBE104:
	.loc 3 391 18
	sw	a5,80(a0)
	.loc 3 392 2 is_stmt 1
	.loc 3 392 6
	.loc 3 392 13
	.loc 3 394 2
	.loc 3 394 9 is_stmt 0
	li	a0,0
.LVL170:
	ret
.LVL171:
.L104:
	.loc 3 388 10
	li	a0,-1
.LVL172:
	.loc 3 395 1
	ret
	.cfi_endproc
.LFE89:
	.size	wps_process_os_version, .-wps_process_os_version
	.section	.text.wps_process_rf_bands,"ax",@progbits
	.align	1
	.globl	wps_process_rf_bands
	.type	wps_process_rf_bands, @function
wps_process_rf_bands:
.LFB90:
	.loc 3 399 1 is_stmt 1
	.cfi_startproc
.LVL173:
	.loc 3 400 2
	.loc 3 400 5 is_stmt 0
	beq	a1,zero,.L107
	.loc 3 405 2 is_stmt 1
	.loc 3 405 18 is_stmt 0
	lbu	a5,0(a1)
	.loc 3 405 16
	sb	a5,84(a0)
	.loc 3 406 2 is_stmt 1
	.loc 3 406 6
	.loc 3 406 13
	.loc 3 408 2
	.loc 3 408 9 is_stmt 0
	li	a0,0
.LVL174:
	ret
.LVL175:
.L107:
	.loc 3 402 10
	li	a0,-1
.LVL176:
	.loc 3 409 1
	ret
	.cfi_endproc
.LFE90:
	.size	wps_process_rf_bands, .-wps_process_rf_bands
	.section	.text.wps_device_data_dup,"ax",@progbits
	.align	1
	.globl	wps_device_data_dup
	.type	wps_device_data_dup, @function
wps_device_data_dup:
.LFB91:
	.loc 3 414 1 is_stmt 1
	.cfi_startproc
.LVL177:
	.loc 3 415 2
	.loc 3 414 1 is_stmt 0
	addi	sp,sp,-16
	.cfi_def_cfa_offset 16
	sw	s0,8(sp)
	sw	s1,4(sp)
	sw	ra,12(sp)
	.cfi_offset 8, -8
	.cfi_offset 9, -12
	.cfi_offset 1, -4
	.loc 3 414 1
	mv	s0,a0
	.loc 3 415 9
	lw	a0,8(a1)
.LVL178:
	.loc 3 414 1
	mv	s1,a1
	.loc 3 415 5
	beq	a0,zero,.L109
	.loc 3 416 3 is_stmt 1
	.loc 3 416 22 is_stmt 0
	call	strdup
.LVL179:
	.loc 3 416 20
	sw	a0,8(s0)
.L109:
	.loc 3 417 2 is_stmt 1
	.loc 3 417 9 is_stmt 0
	lw	a0,12(s1)
	.loc 3 417 5
	beq	a0,zero,.L110
	.loc 3 418 3 is_stmt 1
	.loc 3 418 23 is_stmt 0
	call	strdup
.LVL180:
	.loc 3 418 21
	sw	a0,12(s0)
.L110:
	.loc 3 419 2 is_stmt 1
	.loc 3 419 9 is_stmt 0
	lw	a0,16(s1)
	.loc 3 419 5
	beq	a0,zero,.L111
	.loc 3 420 3 is_stmt 1
	.loc 3 420 21 is_stmt 0
	call	strdup
.LVL181:
	.loc 3 420 19
	sw	a0,16(s0)
.L111:
	.loc 3 421 2 is_stmt 1
	.loc 3 421 9 is_stmt 0
	lw	a0,20(s1)
	.loc 3 421 5
	beq	a0,zero,.L112
	.loc 3 422 3 is_stmt 1
	.loc 3 422 23 is_stmt 0
	call	strdup
.LVL182:
	.loc 3 422 21
	sw	a0,20(s0)
.L112:
	.loc 3 423 2 is_stmt 1
	.loc 3 423 9 is_stmt 0
	lw	a0,24(s1)
	.loc 3 423 5
	beq	a0,zero,.L113
	.loc 3 424 3 is_stmt 1
	.loc 3 424 24 is_stmt 0
	call	strdup
.LVL183:
	.loc 3 424 22
	sw	a0,24(s0)
.L113:
	.loc 3 425 2 is_stmt 1
	addi	a1,s1,28
	addi	a0,s0,28
	li	a2,8
	call	memcpy
.LVL184:
	.loc 3 426 2
	.loc 3 426 23 is_stmt 0
	lw	a5,80(s1)
	.loc 3 428 1
	lw	ra,12(sp)
	.cfi_restore 1
	.loc 3 426 18
	sw	a5,80(s0)
	.loc 3 427 2 is_stmt 1
	.loc 3 427 21 is_stmt 0
	lbu	a5,84(s1)
	.loc 3 428 1
	lw	s1,4(sp)
	.cfi_restore 9
.LVL185:
	.loc 3 427 16
	sb	a5,84(s0)
	.loc 3 428 1
	lw	s0,8(sp)
	.cfi_restore 8
.LVL186:
	addi	sp,sp,16
	.cfi_def_cfa_offset 0
	jr	ra
	.cfi_endproc
.LFE91:
	.size	wps_device_data_dup, .-wps_device_data_dup
	.section	.text.wps_device_data_free,"ax",@progbits
	.align	1
	.globl	wps_device_data_free
	.type	wps_device_data_free, @function
wps_device_data_free:
.LFB92:
	.loc 3 432 1 is_stmt 1
	.cfi_startproc
.LVL187:
	.loc 3 433 2
	.loc 3 432 1 is_stmt 0
	addi	sp,sp,-16
	.cfi_def_cfa_offset 16
	sw	ra,12(sp)
	sw	s0,8(sp)
	.cfi_offset 1, -4
	.cfi_offset 8, -8
	.loc 3 432 1
	mv	s0,a0
	.loc 3 433 2
	lw	a0,8(a0)
.LVL188:
	call	wpa_supplicant_free
.LVL189:
	.loc 3 434 2 is_stmt 1
	.loc 3 435 2 is_stmt 0
	lw	a0,12(s0)
	.loc 3 434 19
	sw	zero,8(s0)
	.loc 3 435 2 is_stmt 1
	call	wpa_supplicant_free
.LVL190:
	.loc 3 436 2
	.loc 3 437 2 is_stmt 0
	lw	a0,16(s0)
	.loc 3 436 20
	sw	zero,12(s0)
	.loc 3 437 2 is_stmt 1
	call	wpa_supplicant_free
.LVL191:
	.loc 3 438 2
	.loc 3 439 2 is_stmt 0
	lw	a0,20(s0)
	.loc 3 438 18
	sw	zero,16(s0)
	.loc 3 439 2 is_stmt 1
	call	wpa_supplicant_free
.LVL192:
	.loc 3 440 2
	.loc 3 441 2 is_stmt 0
	lw	a0,24(s0)
	.loc 3 440 20
	sw	zero,20(s0)
	.loc 3 441 2 is_stmt 1
	call	wpa_supplicant_free
.LVL193:
	.loc 3 442 2
	.loc 3 443 1 is_stmt 0
	lw	ra,12(sp)
	.cfi_restore 1
	.loc 3 442 21
	sw	zero,24(s0)
	.loc 3 443 1
	lw	s0,8(sp)
	.cfi_restore 8
.LVL194:
	addi	sp,sp,16
	.cfi_def_cfa_offset 0
	jr	ra
	.cfi_endproc
.LFE92:
	.size	wps_device_data_free, .-wps_device_data_free
	.text
.Letext0:
	.file 4 "/mnt/d/GitHub/bl_iot_sdk_for_aithinker/toolchain/riscv/Linux/lib/gcc/riscv64-unknown-elf/10.2.0/include/stddef.h"
	.file 5 "/mnt/d/GitHub/bl_iot_sdk_for_aithinker/toolchain/riscv/Linux/riscv64-unknown-elf/include/machine/_default_types.h"
	.file 6 "/mnt/d/GitHub/bl_iot_sdk_for_aithinker/toolchain/riscv/Linux/riscv64-unknown-elf/include/sys/_stdint.h"
	.file 7 "/mnt/d/GitHub/bl_iot_sdk_for_aithinker/components/security/wpa_supplicant/src/wps/wps.h"
	.file 8 "/mnt/d/GitHub/bl_iot_sdk_for_aithinker/components/security/wpa_supplicant/src/wps/wps_attr_parse.h"
	.file 9 "/mnt/d/GitHub/bl_iot_sdk_for_aithinker/components/security/wpa_supplicant/port/include/os.h"
	.file 10 "/mnt/d/GitHub/bl_iot_sdk_for_aithinker/toolchain/riscv/Linux/riscv64-unknown-elf/include/string.h"
	.file 11 "/mnt/d/GitHub/bl_iot_sdk_for_aithinker/components/security/wpa_supplicant/src/wps/wps_defs.h"