	.file	"wps_attr_process.c"
	.option nopic
	.attribute arch, "rv32i2p0_m2p0_f2p0_c2p0"
	.attribute unaligned_access, 0
	.attribute stack_align, 16
	.text
.Ltext0:
	.cfi_sections	.debug_frame
	.section	.text.wps_workaround_cred_key,"ax",@progbits
	.align	1
	.type	wps_workaround_cred_key, @function
wps_workaround_cred_key:
.LFB83:
	.file 1 "/mnt/d/GitHub/bl_iot_sdk_for_aithinker/components/security/wpa_supplicant/src/wps/wps_attr_process.c"
	.loc 1 273 1
	.cfi_startproc
.LVL0:
	.loc 1 274 2
	.loc 1 274 5 is_stmt 0
	lhu	a4,36(a0)
	.loc 1 273 1
	mv	a5,a0
	.loc 1 274 5
	andi	a4,a4,34
	beq	a4,zero,.L3
.LVL1:
.LBB30:
.LBB31:
	.loc 1 275 10
	lw	a4,108(a0)
	.loc 1 274 42
	li	a3,54
.LBE31:
.LBE30:
	.loc 1 294 9
	li	a0,0
.LVL2:
.LBB33:
.LBB32:
	.loc 1 274 42
	addi	a2,a4,-9
	bgtu	a2,a3,.L1
	.loc 1 276 15
	add	a5,a5,a4
.LVL3:
	.loc 1 275 46
	lbu	a0,40(a5)
	seqz	a0,a0
	neg	a0,a0
	ret
.LVL4:
.L3:
.LBE32:
.LBE33:
	.loc 1 294 9
	li	a0,0
.LVL5:
.L1:
	.loc 1 295 1
	ret
	.cfi_endproc
.LFE83:
	.size	wps_workaround_cred_key, .-wps_workaround_cred_key
	.section	.text.wps_process_cred_ssid.part.0,"ax",@progbits
	.align	1
	.type	wps_process_cred_ssid.part.0, @function
wps_process_cred_ssid.part.0:
.LFB87:
	.loc 1 96 12 is_stmt 1
	.cfi_startproc
.LVL6:
	addi	sp,sp,-16
	.cfi_def_cfa_offset 16
	sw	s0,8(sp)
	sw	s1,4(sp)
	sw	ra,12(sp)
	.cfi_offset 8, -8
	.cfi_offset 9, -12
	.cfi_offset 1, -4
	mv	s1,a0
	mv	s0,a2
.LVL7:
.L7:
	.loc 1 106 8
	beq	s0,zero,.L6
	.loc 1 106 29 is_stmt 0
	addi	a5,s0,-1
	add	a4,a1,a5
	.loc 1 106 22
	lbu	a4,0(a4)
	beq	a4,zero,.L9
	.loc 1 109 2 is_stmt 1
	.loc 1 109 6
	.loc 1 109 13
	.loc 1 110 2
	.loc 1 110 5 is_stmt 0
	li	a5,32
	bgtu	s0,a5,.L8
.L6:
	.loc 1 111 3 is_stmt 1
	mv	a2,s0
	mv	a0,s1
.LVL8:
	call	memcpy
.LVL9:
	.loc 1 112 3
	.loc 1 112 18 is_stmt 0
	sw	s0,32(s1)
.L8:
	.loc 1 116 1
	lw	ra,12(sp)
	.cfi_remember_state
	.cfi_restore 1
	lw	s0,8(sp)
	.cfi_restore 8
.LVL10:
	lw	s1,4(sp)
	.cfi_restore 9
.LVL11:
	li	a0,0
	addi	sp,sp,16
	.cfi_def_cfa_offset 0
	jr	ra
.LVL12:
.L9:
	.cfi_restore_state
	.loc 1 107 11
	mv	s0,a5
.LVL13:
	j	.L7
	.cfi_endproc
.LFE87:
	.size	wps_process_cred_ssid.part.0, .-wps_process_cred_ssid.part.0
	.section	.text.wps_process_authenticator,"ax",@progbits
	.align	1
	.globl	wps_process_authenticator
	.type	wps_process_authenticator, @function
wps_process_authenticator:
.LFB69:
	.loc 1 17 1 is_stmt 1
	.cfi_startproc
.LVL14:
	.loc 1 18 2
	.loc 1 19 2
	.loc 1 20 2
	.loc 1 22 2
	.loc 1 22 5 is_stmt 0
	beq	a1,zero,.L18
	.loc 1 28 9
	lw	a5,308(a0)
	mv	a6,a0
	.loc 1 28 2 is_stmt 1
	.loc 1 25 10 is_stmt 0
	li	a0,-1
.LVL15:
	.loc 1 28 5
	beq	a5,zero,.L21
	.loc 1 17 1
	addi	sp,sp,-64
	.cfi_def_cfa_offset 64
	sw	s0,56(sp)
	sw	ra,60(sp)
	.cfi_offset 8, -8
	.cfi_offset 1, -4
.LBB42:
.LBB43:
	.file 2 "/mnt/d/GitHub/bl_iot_sdk_for_aithinker/components/security/wpa_supplicant/include/utils/wpabuf.h"
	.loc 2 81 9
	lw	a4,8(a5)
	mv	s0,a1
.LBE43:
.LBE42:
	.loc 1 37 2 is_stmt 1
.LVL16:
.LBB45:
.LBB44:
	.loc 2 81 2
	.loc 2 81 5 is_stmt 0
	bne	a4,zero,.L16
	.loc 2 83 2 is_stmt 1
	.loc 2 83 13 is_stmt 0
	addi	a4,a5,12
.L16:
.LVL17:
.LBE44:
.LBE45:
	.loc 1 38 9
	lw	a5,4(a5)
	.loc 1 37 10
	sw	a4,0(sp)
	.loc 1 38 2 is_stmt 1
.LBB46:
.LBB47:
	.loc 2 61 2
.LBE47:
.LBE46:
	.loc 1 38 9 is_stmt 0
	sw	a5,8(sp)
	.loc 1 39 2 is_stmt 1
.LVL18:
.LBB48:
.LBB49:
	.loc 2 81 2
	.loc 2 81 9 is_stmt 0
	lw	a5,8(a2)
	.loc 2 81 5
	bne	a5,zero,.L17
	.loc 2 83 2 is_stmt 1
	.loc 2 83 13 is_stmt 0
	addi	a5,a2,12
.L17:
.LVL19:
.LBE49:
.LBE48:
	.loc 1 39 10
	sw	a5,4(sp)
	.loc 1 40 2 is_stmt 1
.LVL20:
.LBB50:
.LBB51:
	.loc 2 61 2
.LBE51:
.LBE50:
	.loc 1 40 31 is_stmt 0
	lw	a5,4(a2)
	.loc 1 41 2
	addi	a4,sp,8
	mv	a3,sp
	.loc 1 40 31
	addi	a5,a5,-12
	.loc 1 40 9
	sw	a5,12(sp)
	.loc 1 41 2 is_stmt 1
	li	a2,2
.LVL21:
	addi	a5,sp,16
	li	a1,32
.LVL22:
	addi	a0,a6,228
	call	hmac_sha256_vector
.LVL23:
	.loc 1 42 2
	.loc 1 42 6 is_stmt 0
	mv	a1,s0
	addi	a0,sp,16
	li	a2,8
	call	memcmp
.LVL24:
	.loc 1 48 1
	lw	ra,60(sp)
	.cfi_restore 1
	lw	s0,56(sp)
	.cfi_restore 8
.LVL25:
	.loc 1 42 5
	snez	a0,a0
	neg	a0,a0
	.loc 1 48 1
	addi	sp,sp,64
	.cfi_def_cfa_offset 0
	jr	ra
.LVL26:
.L18:
	.loc 1 25 10
	li	a0,-1
.LVL27:
	ret
.LVL28:
.L21:
	.loc 1 48 1
	ret
	.cfi_endproc
.LFE69:
	.size	wps_process_authenticator, .-wps_process_authenticator
	.section	.text.wps_process_key_wrap_auth,"ax",@progbits
	.align	1
	.globl	wps_process_key_wrap_auth
	.type	wps_process_key_wrap_auth, @function
wps_process_key_wrap_auth:
.LFB70:
	.loc 1 53 1 is_stmt 1
	.cfi_startproc
.LVL29:
	.loc 1 54 2
	.loc 1 55 2
	.loc 1 56 2
	.loc 1 58 2
	.loc 1 58 5 is_stmt 0
	beq	a2,zero,.L27
	.loc 1 53 1
	addi	sp,sp,-48
	.cfi_def_cfa_offset 48
	sw	s0,40(sp)
	sw	ra,44(sp)
	.cfi_offset 8, -8
	.cfi_offset 1, -4
	mv	s0,a2
	.loc 1 63 2 is_stmt 1
.LVL30:
.LBB56:
.LBB57:
	.loc 2 81 2
	.loc 2 81 9 is_stmt 0
	lw	a2,8(a1)
.LVL31:
	mv	a5,a0
	.loc 2 81 5
	bne	a2,zero,.L26
	.loc 2 83 2 is_stmt 1
	.loc 2 83 13 is_stmt 0
	addi	a2,a1,12
.L26:
.LVL32:
.LBE57:
.LBE56:
	.loc 1 64 2 is_stmt 1
.LBB58:
.LBB59:
	.loc 2 61 2
.LBE59:
.LBE58:
	.loc 1 64 6 is_stmt 0
	lw	a3,4(a1)
	.loc 1 65 34
	addi	a4,s0,-4
	.loc 1 60 10
	li	a0,-1
.LVL33:
	.loc 1 64 6
	addi	a3,a3,-12
.LVL34:
	.loc 1 65 2 is_stmt 1
	.loc 1 65 11 is_stmt 0
	add	a1,a2,a3
.LVL35:
	.loc 1 65 5
	bne	a1,a4,.L24
	.loc 1 71 2 is_stmt 1
	mv	a4,sp
	li	a1,32
	addi	a0,a5,228
	call	hmac_sha256
.LVL36:
	.loc 1 72 2
	.loc 1 72 6 is_stmt 0
	li	a2,8
	mv	a1,s0
	mv	a0,sp
	call	memcmp
.LVL37:
	.loc 1 72 5
	snez	a0,a0
	neg	a0,a0
.L24:
	.loc 1 78 1
	lw	ra,44(sp)
	.cfi_restore 1
	lw	s0,40(sp)
	.cfi_restore 8
.LVL38:
	addi	sp,sp,48
	.cfi_def_cfa_offset 0
	jr	ra
.LVL39:
.L27:
	.loc 1 60 10
	li	a0,-1
.LVL40:
	.loc 1 78 1
	ret
	.cfi_endproc
.LFE70:
	.size	wps_process_key_wrap_auth, .-wps_process_key_wrap_auth
	.section	.text.wps_process_cred,"ax",@progbits
	.align	1
	.globl	wps_process_cred
	.type	wps_process_cred, @function
wps_process_cred:
.LFB84:
	.loc 1 300 1 is_stmt 1
	.cfi_startproc
.LVL41:
	.loc 1 301 2
	.loc 1 301 6
	.loc 1 301 13
	.loc 1 304 2
.LBB82:
.LBB83:
	.loc 1 84 2
	.loc 1 84 5 is_stmt 0
	lw	a5,124(a0)
	beq	a5,zero,.L60
.LBE83:
.LBE82:
	.loc 1 300 1
	addi	sp,sp,-16
	.cfi_def_cfa_offset 16
	sw	s0,8(sp)
.LVL42:
	sw	s1,4(sp)
	sw	ra,12(sp)
	sw	s2,0(sp)
	.cfi_offset 8, -8
	.cfi_offset 9, -12
	.cfi_offset 1, -4
	.cfi_offset 18, -16
	mv	s0,a1
.LVL43:
	.loc 1 305 6
	lw	a1,232(a0)
.LVL44:
	lw	a2,236(a0)
.LVL45:
.LBB84:
.LBB85:
	.loc 1 99 2 is_stmt 1
	mv	s1,a0
	.loc 1 99 5 is_stmt 0
	beq	a1,zero,.L35
	mv	a0,s0
.LVL46:
	call	wps_process_cred_ssid.part.0
.LVL47:
.LBE85:
.LBE84:
	.loc 1 304 60
	bne	a0,zero,.L35
	.loc 1 306 6
	lw	a4,116(s1)
.LVL48:
.LBB86:
.LBB87:
	.loc 1 122 2 is_stmt 1
	.loc 1 122 5 is_stmt 0
	beq	a4,zero,.L35
	.loc 1 128 2 is_stmt 1
.LVL49:
.LBE87:
.LBE86:
	.file 3 "/mnt/d/GitHub/bl_iot_sdk_for_aithinker/components/security/wpa_supplicant/src/utils/common.h"
	.loc 3 127 2
.LBB89:
.LBB88:
	.loc 1 128 18 is_stmt 0
	lbu	a5,1(a4)
	lbu	a3,0(a4)
	slli	a5,a5,8
	or	a5,a5,a3
	slli	a4,a5,8
.LVL50:
	srli	a5,a5,8
	or	a5,a4,a5
	sh	a5,36(s0)
.LVL51:
	.loc 1 129 2 is_stmt 1
	.loc 1 129 6
	.loc 1 129 13
	.loc 1 132 2
.LBE88:
.LBE89:
	.loc 1 307 6 is_stmt 0
	lw	a4,120(s1)
.LVL52:
.LBB90:
.LBB91:
	.loc 1 139 2 is_stmt 1
	.loc 1 139 5 is_stmt 0
	beq	a4,zero,.L35
	.loc 1 145 2 is_stmt 1
.LVL53:
.LBE91:
.LBE90:
	.loc 3 127 2
.LBB93:
.LBB92:
	.loc 1 145 18 is_stmt 0
	lbu	a5,1(a4)
	lbu	a3,0(a4)
	slli	a5,a5,8
	or	a5,a5,a3
	slli	a4,a5,8
.LVL54:
	srli	a5,a5,8
	or	a5,a4,a5
	sh	a5,38(s0)
.LVL55:
	.loc 1 146 2 is_stmt 1
	.loc 1 146 6
	.loc 1 146 13
	.loc 1 149 2
.LBE92:
.LBE93:
	.loc 1 308 6 is_stmt 0
	lw	a5,128(s1)
.LVL56:
.LBB94:
.LBB95:
	.loc 1 156 2 is_stmt 1
	.loc 1 156 5 is_stmt 0
	beq	a5,zero,.L37
	.loc 1 159 2 is_stmt 1
	.loc 1 159 6
	.loc 1 159 13
	.loc 1 160 2
	.loc 1 160 18 is_stmt 0
	lbu	a5,0(a5)
.LVL57:
	.loc 1 160 16
	sb	a5,40(s0)
.LVL58:
	.loc 1 162 2 is_stmt 1
.L37:
.LBE95:
.LBE94:
	.loc 1 309 6 is_stmt 0
	lw	a1,240(s1)
.LVL59:
.LBB96:
.LBB97:
	.loc 1 169 2 is_stmt 1
	.loc 1 169 5 is_stmt 0
	bne	a1,zero,.L38
	.loc 1 170 3 is_stmt 1
	.loc 1 170 7
	.loc 1 170 14
	.loc 1 172 3
	.loc 1 172 6 is_stmt 0
	lw	a4,36(s0)
	li	a5,65536
	addi	a5,a5,1
	beq	a4,a5,.L39
.LVL60:
.L35:
.LBE97:
.LBE96:
	.loc 1 322 1
	lw	ra,12(sp)
	.cfi_remember_state
	.cfi_restore 1
	lw	s0,8(sp)
	.cfi_restore 8
.LVL61:
	lw	s1,4(sp)
	.cfi_restore 9
.LVL62:
	lw	s2,0(sp)
	.cfi_restore 18
	li	a0,-1
	addi	sp,sp,16
	.cfi_def_cfa_offset 0
	jr	ra
.LVL63:
.L38:
	.cfi_restore_state
	.loc 1 309 6
	lw	s2,244(s1)
.LBB99:
.LBB98:
	.loc 1 182 2 is_stmt 1
	.loc 1 182 6
	.loc 1 182 13
	.loc 1 183 2
	.loc 1 183 5 is_stmt 0
	li	a5,64
	bgtu	s2,a5,.L39
	.loc 1 184 3 is_stmt 1
	mv	a2,s2
	addi	a0,s0,41
	call	memcpy
.LVL64:
	.loc 1 185 3
	.loc 1 185 17 is_stmt 0
	sw	s2,108(s0)
.LVL65:
.L39:
.LBE98:
.LBE99:
	.loc 1 311 6
	lw	a1,132(s1)
.LVL66:
.LBB100:
.LBB101:
	.loc 1 195 2 is_stmt 1
	.loc 1 195 5 is_stmt 0
	beq	a1,zero,.L35
	.loc 1 201 2 is_stmt 1
	.loc 1 201 6
	.loc 1 201 13
	.loc 1 202 2
	li	a2,6
	addi	a0,s0,112
	call	memcpy
.LVL67:
	.loc 1 204 2
.LBE101:
.LBE100:
	.loc 1 211 2
	.loc 1 224 2
	.loc 1 237 2
	.loc 1 250 2
	.loc 1 318 6 is_stmt 0
	lw	a4,172(s1)
.LVL68:
.LBB102:
.LBB103:
	.loc 1 262 2 is_stmt 1
	.loc 1 262 5 is_stmt 0
	beq	a4,zero,.L40
	.loc 1 265 2 is_stmt 1
.LVL69:
.LBE103:
.LBE102:
	.loc 3 127 2
.LBB105:
.LBB104:
	.loc 1 265 19 is_stmt 0
	lbu	a5,1(a4)
	lbu	a3,0(a4)
	slli	a5,a5,8
	or	a5,a5,a3
	slli	a4,a5,8
.LVL70:
	srli	a5,a5,8
	or	a5,a4,a5
	sh	a5,128(s0)
.LVL71:
	.loc 1 266 2 is_stmt 1
	.loc 1 266 6
	.loc 1 266 13
	.loc 1 268 2
.L40:
.LBE104:
.LBE105:
	.loc 1 321 2
	.loc 1 321 9 is_stmt 0
	mv	a0,s0
	.loc 1 322 1
	lw	s0,8(sp)
	.cfi_restore 8
.LVL72:
	lw	ra,12(sp)
	.cfi_restore 1
	lw	s1,4(sp)
	.cfi_restore 9
.LVL73:
	lw	s2,0(sp)
	.cfi_restore 18
	addi	sp,sp,16
	.cfi_def_cfa_offset 0
	.loc 1 321 9
	tail	wps_workaround_cred_key
.LVL74:
.L60:
	.loc 1 322 1
	li	a0,-1
.LVL75:
	ret
	.cfi_endproc
.LFE84:
	.size	wps_process_cred, .-wps_process_cred
	.section	.text.wps_process_ap_settings,"ax",@progbits
	.align	1
	.globl	wps_process_ap_settings
	.type	wps_process_ap_settings, @function
wps_process_ap_settings:
.LFB85:
	.loc 1 327 1 is_stmt 1
	.cfi_startproc
.LVL76:
	.loc 1 328 2
	.loc 1 328 6
	.loc 1 328 13
	.loc 1 329 2
	.loc 1 327 1 is_stmt 0
	addi	sp,sp,-16
	.cfi_def_cfa_offset 16
	sw	s0,8(sp)
	.cfi_offset 8, -8
	mv	s0,a1
	sw	s1,4(sp)
	.loc 1 329 2
	li	a2,132
	.cfi_offset 9, -12
	.loc 1 327 1
	mv	s1,a0
	.loc 1 329 2
	li	a1,0
.LVL77:
	mv	a0,s0
.LVL78:
	.loc 1 327 1
	sw	ra,12(sp)
	sw	s2,0(sp)
	.cfi_offset 1, -4
	.cfi_offset 18, -16
	.loc 1 329 2
	call	memset
.LVL79:
	.loc 1 331 2 is_stmt 1
	.loc 1 331 6 is_stmt 0
	lw	a1,232(s1)
	lw	a2,236(s1)
.LVL80:
.LBB122:
.LBB123:
	.loc 1 99 2 is_stmt 1
	.loc 1 99 5 is_stmt 0
	beq	a1,zero,.L65
	mv	a0,s0
	call	wps_process_cred_ssid.part.0
.LVL81:
.LBE123:
.LBE122:
	.loc 1 331 5
	bne	a0,zero,.L65
	.loc 1 332 6 discriminator 1
	lw	a4,116(s1)
.LVL82:
.LBB124:
.LBB125:
	.loc 1 122 2 is_stmt 1 discriminator 1
	.loc 1 122 5 is_stmt 0 discriminator 1
	beq	a4,zero,.L65
	.loc 1 128 2 is_stmt 1
.LVL83:
.LBE125:
.LBE124:
	.loc 3 127 2
.LBB127:
.LBB126:
	.loc 1 128 18 is_stmt 0
	lbu	a5,1(a4)
	lbu	a3,0(a4)
	slli	a5,a5,8
	or	a5,a5,a3
	slli	a4,a5,8
.LVL84:
	srli	a5,a5,8
	or	a5,a4,a5
	sh	a5,36(s0)
.LVL85:
	.loc 1 129 2 is_stmt 1
	.loc 1 129 6
	.loc 1 129 13
	.loc 1 132 2
.LBE126:
.LBE127:
	.loc 1 333 6 is_stmt 0
	lw	a4,120(s1)
.LVL86:
.LBB128:
.LBB129:
	.loc 1 139 2 is_stmt 1
	.loc 1 139 5 is_stmt 0
	beq	a4,zero,.L65
	.loc 1 145 2 is_stmt 1
.LVL87:
.LBE129:
.LBE128:
	.loc 3 127 2
.LBB131:
.LBB130:
	.loc 1 145 18 is_stmt 0
	lbu	a5,1(a4)
	lbu	a3,0(a4)
	slli	a5,a5,8
	or	a5,a5,a3
	slli	a4,a5,8
.LVL88:
	srli	a5,a5,8
	or	a5,a4,a5
	sh	a5,38(s0)
.LVL89:
	.loc 1 146 2 is_stmt 1
	.loc 1 146 6
	.loc 1 146 13
	.loc 1 149 2
.LBE130:
.LBE131:
	.loc 1 334 6 is_stmt 0
	lw	a5,128(s1)
.LVL90:
.LBB132:
.LBB133:
	.loc 1 156 2 is_stmt 1
	.loc 1 156 5 is_stmt 0
	beq	a5,zero,.L67
	.loc 1 159 2 is_stmt 1
	.loc 1 159 6
	.loc 1 159 13
	.loc 1 160 2
	.loc 1 160 18 is_stmt 0
	lbu	a5,0(a5)
.LVL91:
	.loc 1 160 16
	sb	a5,40(s0)
.LVL92:
	.loc 1 162 2 is_stmt 1
.L67:
.LBE133:
.LBE132:
	.loc 1 335 6 is_stmt 0
	lw	a1,240(s1)
.LVL93:
.LBB134:
.LBB135:
	.loc 1 169 2 is_stmt 1
	.loc 1 169 5 is_stmt 0
	bne	a1,zero,.L68
	.loc 1 170 3 is_stmt 1
	.loc 1 170 7
	.loc 1 170 14
	.loc 1 172 3
	.loc 1 172 6 is_stmt 0
	lw	a4,36(s0)
	li	a5,65536
	addi	a5,a5,1
	beq	a4,a5,.L69
.LVL94:
.L65:
.LBE135:
.LBE134:
	.loc 1 341 1
	lw	ra,12(sp)
	.cfi_remember_state
	.cfi_restore 1
	lw	s0,8(sp)
	.cfi_restore 8
.LVL95:
	lw	s1,4(sp)
	.cfi_restore 9
.LVL96:
	lw	s2,0(sp)
	.cfi_restore 18
	li	a0,-1
	addi	sp,sp,16
	.cfi_def_cfa_offset 0
	jr	ra
.LVL97:
.L68:
	.cfi_restore_state
	.loc 1 335 6
	lw	s2,244(s1)
.LBB137:
.LBB136:
	.loc 1 182 2 is_stmt 1
	.loc 1 182 6
	.loc 1 182 13
	.loc 1 183 2
	.loc 1 183 5 is_stmt 0
	li	a5,64
	bgtu	s2,a5,.L69
	.loc 1 184 3 is_stmt 1
	mv	a2,s2
	addi	a0,s0,41
	call	memcpy
.LVL98:
	.loc 1 185 3
	.loc 1 185 17 is_stmt 0
	sw	s2,108(s0)
.LVL99:
.L69:
.LBE136:
.LBE137:
	.loc 1 337 6
	lw	a1,132(s1)
.LVL100:
.LBB138:
.LBB139:
	.loc 1 195 2 is_stmt 1
	.loc 1 195 5 is_stmt 0
	beq	a1,zero,.L65
	.loc 1 201 2 is_stmt 1
	.loc 1 201 6
	.loc 1 201 13
	.loc 1 202 2
	addi	a0,s0,112
	li	a2,6
	call	memcpy
.LVL101:
	.loc 1 204 2
.LBE139:
.LBE138:
	.loc 1 340 2
	.loc 1 340 9 is_stmt 0
	mv	a0,s0
	.loc 1 341 1
	lw	s0,8(sp)
	.cfi_restore 8
.LVL102:
	lw	ra,12(sp)
	.cfi_restore 1
	lw	s1,4(sp)
	.cfi_restore 9
.LVL103:
	lw	s2,0(sp)
	.cfi_restore 18
	addi	sp,sp,16
	.cfi_def_cfa_offset 0
	.loc 1 340 9
	tail	wps_workaround_cred_key
.LVL104:
	.cfi_endproc
.LFE85:
	.size	wps_process_ap_settings, .-wps_process_ap_settings
	.text
.Letext0:
	.file 4 "/mnt/d/GitHub/bl_iot_sdk_for_aithinker/toolchain/riscv/Linux/lib/gcc/riscv64-unknown-elf/10.2.0/include/stddef.h"
	.file 5 "/mnt/d/GitHub/bl_iot_sdk_for_aithinker/toolchain/riscv/Linux/riscv64-unknown-elf/include/machine/_default_types.h"
	.file 6 "/mnt/d/GitHub/bl_iot_sdk_for_aithinker/toolchain/riscv/Linux/riscv64-unknown-elf/include/sys/_stdint.h"
	.file 7 "/mnt/d/GitHub/bl_iot_sdk_for_aithinker/components/security/wpa_supplicant/src/wps/wps.h"
	.file 8 "/mnt/d/GitHub/bl_iot_sdk_for_aithinker/components/security/wpa_supplicant/src/wps/wps_defs.h"
	.file 9 "/mnt/d/GitHub/bl_iot_sdk_for_aithinker/components/security/wpa_supplicant/src/wps/wps_i.h"
	.file 10 "/mnt/d/GitHub/bl_iot_sdk_for_aithinker/components/security/wpa_supplicant/src/wps/wps_attr_parse.h"
	.file 11 "/mnt/d/GitHub/bl_iot_sdk_for_aithinker/toolchain/riscv/Linux/riscv64-unknown-elf/include/string.h"
	.file 12 "/mnt/d/GitHub/bl_iot_sdk_for_aithinker/components/security/wpa_supplicant/src/crypto/sha256.h"