	.file	"wps_attr_build.c"
	.option nopic
	.attribute arch, "rv32i2p0_m2p0_f2p0_c2p0"
	.attribute unaligned_access, 0
	.attribute stack_align, 16
	.text
.Ltext0:
	.cfi_sections	.debug_frame
	.section	.text.wpabuf_put_be16,"ax",@progbits
	.align	1
	.type	wpabuf_put_be16, @function
wpabuf_put_be16:
.LFB62:
	.file 1 "/mnt/d/GitHub/bl_iot_sdk_for_aithinker/components/security/wpa_supplicant/include/utils/wpabuf.h"
	.loc 1 127 1
	.cfi_startproc
.LVL0:
	.loc 1 128 2
	.loc 1 127 1 is_stmt 0
	addi	sp,sp,-16
	.cfi_def_cfa_offset 16
	sw	s0,8(sp)
	.cfi_offset 8, -8
	mv	s0,a1
	.loc 1 128 12
	li	a1,2
.LVL1:
	.loc 1 127 1
	sw	ra,12(sp)
	.cfi_offset 1, -4
	.loc 1 128 12
	call	wpabuf_put
.LVL2:
	.loc 1 129 2 is_stmt 1
.LBB32:
.LBB33:
	.file 2 "/mnt/d/GitHub/bl_iot_sdk_for_aithinker/components/security/wpa_supplicant/src/utils/common.h"
	.loc 2 132 2
	.loc 2 132 7 is_stmt 0
	srli	a5,s0,8
	sb	a5,0(a0)
	.loc 2 133 2 is_stmt 1
	.loc 2 133 7 is_stmt 0
	sb	s0,1(a0)
.LVL3:
.LBE33:
.LBE32:
	.loc 1 130 1
	lw	ra,12(sp)
	.cfi_restore 1
	lw	s0,8(sp)
	.cfi_restore 8
	addi	sp,sp,16
	.cfi_def_cfa_offset 0
	jr	ra
	.cfi_endproc
.LFE62:
	.size	wpabuf_put_be16, .-wpabuf_put_be16
	.section	.text.wpabuf_put_u8,"ax",@progbits
	.align	1
	.type	wpabuf_put_u8, @function
wpabuf_put_u8:
.LFB59:
	.loc 1 109 1 is_stmt 1
	.cfi_startproc
.LVL4:
	.loc 1 110 2
	.loc 1 109 1 is_stmt 0
	addi	sp,sp,-16
	.cfi_def_cfa_offset 16
	sw	s0,8(sp)
	.cfi_offset 8, -8
	mv	s0,a1
	.loc 1 110 12
	li	a1,1
.LVL5:
	.loc 1 109 1
	sw	ra,12(sp)
	.cfi_offset 1, -4
	.loc 1 110 12
	call	wpabuf_put
.LVL6:
	.loc 1 111 2 is_stmt 1
	.loc 1 111 7 is_stmt 0
	sb	s0,0(a0)
	.loc 1 112 1
	lw	ra,12(sp)
	.cfi_restore 1
	lw	s0,8(sp)
	.cfi_restore 8
	addi	sp,sp,16
	.cfi_def_cfa_offset 0
	jr	ra
	.cfi_endproc
.LFE59:
	.size	wpabuf_put_u8, .-wpabuf_put_u8
	.section	.text.wpabuf_put_data.part.0,"ax",@progbits
	.align	1
	.type	wpabuf_put_data.part.0, @function
wpabuf_put_data.part.0:
.LFB89:
	.loc 1 144 20 is_stmt 1
	.cfi_startproc
.LVL7:
	.loc 1 148 3
	.loc 1 144 20 is_stmt 0
	addi	sp,sp,-32
	.cfi_def_cfa_offset 32
	sw	s0,24(sp)
	.cfi_offset 8, -8
	mv	s0,a1
	.loc 1 148 3
	mv	a1,a2
.LVL8:
	.loc 1 144 20
	sw	ra,28(sp)
	.cfi_offset 1, -4
	.loc 1 148 3
	sw	a2,12(sp)
	call	wpabuf_put
.LVL9:
	mv	a1,s0
	.loc 1 149 1
	lw	s0,24(sp)
	.cfi_restore 8
.LVL10:
	.loc 1 148 3
	lw	a2,12(sp)
	.loc 1 149 1
	lw	ra,28(sp)
	.cfi_restore 1
	addi	sp,sp,32
	.cfi_def_cfa_offset 0
.LVL11:
	.loc 1 148 3
	tail	memcpy
.LVL12:
	.cfi_endproc
.LFE89:
	.size	wpabuf_put_data.part.0, .-wpabuf_put_data.part.0
	.section	.text.wpabuf_put_data,"ax",@progbits
	.align	1
	.type	wpabuf_put_data, @function
wpabuf_put_data:
.LFB65:
	.loc 1 146 1 is_stmt 1
	.cfi_startproc
.LVL13:
	.loc 1 147 2
	.loc 1 147 5 is_stmt 0
	beq	a1,zero,.L7
	tail	wpabuf_put_data.part.0
.LVL14:
.L7:
	.loc 1 149 1
	ret
	.cfi_endproc
.LFE65:
	.size	wpabuf_put_data, .-wpabuf_put_data
	.section	.text.wps_build_public_key,"ax",@progbits
	.align	1
	.globl	wps_build_public_key
	.type	wps_build_public_key, @function
wps_build_public_key:
.LFB69:
	.file 3 "/mnt/d/GitHub/bl_iot_sdk_for_aithinker/components/security/wpa_supplicant/src/wps/wps_attr_build.c"
	.loc 3 22 1 is_stmt 1
	.cfi_startproc
.LVL15:
	.loc 3 23 2
	.loc 3 25 2
	.loc 3 22 1 is_stmt 0
	addi	sp,sp,-32
	.cfi_def_cfa_offset 32
	sw	s0,24(sp)
	sw	s1,20(sp)
	sw	ra,28(sp)
	sw	s2,16(sp)
	.cfi_offset 8, -8
	.cfi_offset 9, -12
	.cfi_offset 1, -4
	.cfi_offset 18, -16
	.loc 3 25 5
	li	a5,1
	.loc 3 22 1
	mv	s0,a0
	mv	s1,a1
	.loc 3 25 5
	bne	a2,a5,.L10
.LVL16:
.L20:
	.loc 3 76 3 is_stmt 1
	.loc 3 76 6 is_stmt 0
	lw	a5,4(s0)
	bne	a5,zero,.L11
	.loc 3 79 4 is_stmt 1
	.loc 3 79 16 is_stmt 0
	lw	a5,220(s0)
	j	.L21
.LVL17:
.L10:
	.loc 3 28 3
	lw	a0,216(a0)
	mv	s2,a2
	.loc 3 27 3 is_stmt 1
	.loc 3 27 7
	.loc 3 27 14
	.loc 3 28 3
	call	wpabuf_free
.LVL18:
	.loc 3 29 3
	.loc 3 29 6 is_stmt 0
	lhu	a5,320(s0)
	beq	a5,zero,.L13
	.loc 3 29 51 discriminator 1
	lw	a5,0(s0)
	lw	a0,208(a5)
	.loc 3 29 40 discriminator 1
	beq	a0,zero,.L13
	.loc 3 30 4 is_stmt 1
	.loc 3 30 8
	.loc 3 30 15
	.loc 3 31 4
	.loc 3 31 22 is_stmt 0
	call	wpabuf_dup
.LVL19:
	.loc 3 32 21
	lw	a5,0(s0)
	.loc 3 31 20
	sw	a0,216(s0)
	.loc 3 32 4 is_stmt 1
	.loc 3 32 26 is_stmt 0
	lw	a4,204(a5)
	.loc 3 32 16
	sw	a4,632(s0)
	.loc 3 33 4 is_stmt 1
	.loc 3 33 21 is_stmt 0
	sw	zero,204(a5)
	.loc 3 34 4 is_stmt 1
	.loc 3 34 32 is_stmt 0
	lw	a5,0(s0)
	.loc 3 34 13
	lw	a0,212(a5)
	call	wpabuf_dup
.LVL20:
.L37:
	.loc 3 56 6
	lw	a5,632(s0)
	.loc 3 54 11
	sw	a0,12(sp)
	.loc 3 56 3 is_stmt 1
	.loc 3 56 63 is_stmt 0
	lw	a0,12(sp)
	.loc 3 56 6
	beq	a5,zero,.L15
	.loc 3 56 26 discriminator 1
	lw	a5,216(s0)
	beq	a5,zero,.L15
	.loc 3 56 53 discriminator 2
	bne	a0,zero,.L16
.L15:
	.loc 3 57 4 is_stmt 1
	.loc 3 57 8
	.loc 3 57 15
	.loc 3 59 4
	call	wpabuf_free
.LVL21:
	.loc 3 60 4
	.loc 3 60 11 is_stmt 0
	li	a0,-1
.LVL22:
.L9:
	.loc 3 87 1
	lw	ra,28(sp)
	.cfi_remember_state
	.cfi_restore 1
	lw	s0,24(sp)
	.cfi_restore 8
.LVL23:
	lw	s1,20(sp)
	.cfi_restore 9
.LVL24:
	lw	s2,16(sp)
	.cfi_restore 18
	addi	sp,sp,32
	.cfi_def_cfa_offset 0
	jr	ra
.LVL25:
.L13:
	.cfi_restore_state
	.loc 3 44 4 is_stmt 1
	.loc 3 44 8
	.loc 3 44 15
	.loc 3 45 4
	.loc 3 46 4 is_stmt 0
	lw	a0,632(s0)
	.loc 3 45 20
	sw	zero,216(s0)
	.loc 3 46 4 is_stmt 1
	call	dh5_free
.LVL26:
	.loc 3 48 4
	.loc 3 48 8
	.loc 3 48 15
	.loc 3 50 4
	.loc 3 50 18 is_stmt 0
	addi	a1,sp,12
	addi	a0,s0,216
	call	dh5_init
.LVL27:
	.loc 3 50 16
	sw	a0,632(s0)
	.loc 3 52 4 is_stmt 1
	.loc 3 52 8
	.loc 3 52 15
	.loc 3 54 4
	.loc 3 54 13 is_stmt 0
	lw	a0,12(sp)
	li	a1,192
	call	wpabuf_zeropad
.LVL28:
	j	.L37
.L16:
	.loc 3 62 3 is_stmt 1
	.loc 3 62 7
	.loc 3 62 14
	.loc 3 63 3
	.loc 3 63 7
	.loc 3 63 14
	.loc 3 65 3
	.loc 3 65 6 is_stmt 0
	lw	a5,4(s0)
	beq	a5,zero,.L18
	.loc 3 66 4 is_stmt 1
	lw	a0,224(s0)
	call	wpabuf_free
.LVL29:
	.loc 3 67 4
	.loc 3 67 21 is_stmt 0
	lw	a5,12(sp)
	sw	a5,224(s0)
.L19:
	.loc 3 75 2 is_stmt 1
	.loc 3 75 5 is_stmt 0
	li	a5,2
	bne	s2,a5,.L20
.LVL30:
.L38:
	.loc 3 86 9
	li	a0,0
.LBB42:
.LBB43:
	.loc 1 155 1
	j	.L9
.LVL31:
.L18:
.LBE43:
.LBE42:
	.loc 3 69 4 is_stmt 1
	lw	a0,220(s0)
	call	wpabuf_free
.LVL32:
	.loc 3 70 4
	.loc 3 70 21 is_stmt 0
	lw	a5,12(sp)
	sw	a5,220(s0)
	j	.L19
.LVL33:
.L11:
	.loc 3 77 4 is_stmt 1
	.loc 3 77 16 is_stmt 0
	lw	a5,224(s0)
.L21:
	.loc 3 81 3
	li	a1,4096
	addi	a1,a1,50
	mv	a0,s1
	sw	a5,12(sp)
	.loc 3 81 3 is_stmt 1
	call	wpabuf_put_be16
.LVL34:
	.loc 3 82 3
.LBB49:
.LBB50:
	.loc 1 61 2
.LBE50:
.LBE49:
	.loc 3 82 3 is_stmt 0
	lw	a5,12(sp)
	mv	a0,s1
	lhu	a1,4(a5)
	call	wpabuf_put_be16
.LVL35:
	.loc 3 83 3 is_stmt 1
	lw	a5,12(sp)
.LVL36:
.LBB51:
.LBB48:
	.loc 1 154 2
.LBB44:
.LBB45:
	.loc 1 81 2
	.loc 1 81 9 is_stmt 0
	lw	a1,8(a5)
	.loc 1 81 5
	bne	a1,zero,.L22
	.loc 1 83 2 is_stmt 1
	.loc 1 83 13 is_stmt 0
	addi	a1,a5,12
.L22:
.LVL37:
.LBE45:
.LBE44:
.LBB46:
.LBB47:
	.loc 1 61 2 is_stmt 1
.LBE47:
.LBE46:
	.loc 1 154 2 is_stmt 0
	lw	a2,4(a5)
	mv	a0,s1
	call	wpabuf_put_data
.LVL38:
	j	.L38
.LBE48:
.LBE51:
	.cfi_endproc
.LFE69:
	.size	wps_build_public_key, .-wps_build_public_key
	.section	.text.wps_build_req_type,"ax",@progbits
	.align	1
	.globl	wps_build_req_type
	.type	wps_build_req_type, @function
wps_build_req_type:
.LFB70:
	.loc 3 91 1 is_stmt 1
	.cfi_startproc
.LVL39:
	.loc 3 92 2
	.loc 3 92 6
	.loc 3 92 13
	.loc 3 93 2
	.loc 3 91 1 is_stmt 0
	addi	sp,sp,-16
	.cfi_def_cfa_offset 16
	sw	s1,4(sp)
	.cfi_offset 9, -12
	mv	s1,a1
	.loc 3 93 2
	li	a1,4096
.LVL40:
	addi	a1,a1,58
	.loc 3 91 1
	sw	ra,12(sp)
	sw	s0,8(sp)
	.cfi_offset 1, -4
	.cfi_offset 8, -8
	.loc 3 91 1
	mv	s0,a0
	.loc 3 93 2
	call	wpabuf_put_be16
.LVL41:
	.loc 3 94 2 is_stmt 1
	mv	a0,s0
	li	a1,1
	call	wpabuf_put_be16
.LVL42:
	.loc 3 95 2
	mv	a0,s0
	andi	a1,s1,0xff
	call	wpabuf_put_u8
.LVL43:
	.loc 3 96 2
	.loc 3 97 1 is_stmt 0
	lw	ra,12(sp)
	.cfi_restore 1
	lw	s0,8(sp)
	.cfi_restore 8
.LVL44:
	lw	s1,4(sp)
	.cfi_restore 9
.LVL45:
	li	a0,0
	addi	sp,sp,16
	.cfi_def_cfa_offset 0
	jr	ra
	.cfi_endproc
.LFE70:
	.size	wps_build_req_type, .-wps_build_req_type
	.section	.text.wps_build_resp_type,"ax",@progbits
	.align	1
	.globl	wps_build_resp_type
	.type	wps_build_resp_type, @function
wps_build_resp_type:
.LFB71:
	.loc 3 101 1 is_stmt 1
	.cfi_startproc
.LVL46:
	.loc 3 102 2
	.loc 3 102 6
	.loc 3 102 13
	.loc 3 103 2
	.loc 3 101 1 is_stmt 0
	addi	sp,sp,-16
	.cfi_def_cfa_offset 16
	sw	s1,4(sp)
	.cfi_offset 9, -12
	mv	s1,a1
	.loc 3 103 2
	li	a1,4096
.LVL47:
	addi	a1,a1,59
	.loc 3 101 1
	sw	ra,12(sp)
	sw	s0,8(sp)
	.cfi_offset 1, -4
	.cfi_offset 8, -8
	.loc 3 101 1
	mv	s0,a0
	.loc 3 103 2
	call	wpabuf_put_be16
.LVL48:
	.loc 3 104 2 is_stmt 1
	mv	a0,s0
	li	a1,1
	call	wpabuf_put_be16
.LVL49:
	.loc 3 105 2
	mv	a0,s0
	andi	a1,s1,0xff
	call	wpabuf_put_u8
.LVL50:
	.loc 3 106 2
	.loc 3 107 1 is_stmt 0
	lw	ra,12(sp)
	.cfi_restore 1
	lw	s0,8(sp)
	.cfi_restore 8
.LVL51:
	lw	s1,4(sp)
	.cfi_restore 9
.LVL52:
	li	a0,0
	addi	sp,sp,16
	.cfi_def_cfa_offset 0
	jr	ra
	.cfi_endproc
.LFE71:
	.size	wps_build_resp_type, .-wps_build_resp_type
	.section	.text.wps_build_config_methods,"ax",@progbits
	.align	1
	.globl	wps_build_config_methods
	.type	wps_build_config_methods, @function
wps_build_config_methods:
.LFB72:
	.loc 3 111 1 is_stmt 1
	.cfi_startproc
.LVL53:
	.loc 3 112 2
	.loc 3 112 6
	.loc 3 112 13
	.loc 3 113 2
	.loc 3 111 1 is_stmt 0
	addi	sp,sp,-16
	.cfi_def_cfa_offset 16
	sw	s1,4(sp)
	.cfi_offset 9, -12
	mv	s1,a1
	.loc 3 113 2
	li	a1,4096
.LVL54:
	addi	a1,a1,8
	.loc 3 111 1
	sw	ra,12(sp)
	sw	s0,8(sp)
	.cfi_offset 1, -4
	.cfi_offset 8, -8
	.loc 3 111 1
	mv	s0,a0
	.loc 3 113 2
	call	wpabuf_put_be16
.LVL55:
	.loc 3 114 2 is_stmt 1
	mv	a0,s0
	li	a1,2
	call	wpabuf_put_be16
.LVL56:
	.loc 3 115 2
	mv	a0,s0
	mv	a1,s1
	call	wpabuf_put_be16
.LVL57:
	.loc 3 116 2
	.loc 3 117 1 is_stmt 0
	lw	ra,12(sp)
	.cfi_restore 1
	lw	s0,8(sp)
	.cfi_restore 8
.LVL58:
	lw	s1,4(sp)
	.cfi_restore 9
	li	a0,0
	addi	sp,sp,16
	.cfi_def_cfa_offset 0
	jr	ra
	.cfi_endproc
.LFE72:
	.size	wps_build_config_methods, .-wps_build_config_methods
	.section	.text.wps_build_uuid_e,"ax",@progbits
	.align	1
	.globl	wps_build_uuid_e
	.type	wps_build_uuid_e, @function
wps_build_uuid_e:
.LFB73:
	.loc 3 121 1 is_stmt 1
	.cfi_startproc
.LVL59:
	.loc 3 122 2
	.loc 3 122 6
	.loc 3 122 13
	.loc 3 123 2
	.loc 3 121 1 is_stmt 0
	addi	sp,sp,-16
	.cfi_def_cfa_offset 16
	sw	s1,4(sp)
	.cfi_offset 9, -12
	mv	s1,a1
	.loc 3 123 2
	li	a1,4096
.LVL60:
	addi	a1,a1,71
	.loc 3 121 1
	sw	ra,12(sp)
	sw	s0,8(sp)
	.cfi_offset 1, -4
	.cfi_offset 8, -8
	.loc 3 121 1
	mv	s0,a0
	.loc 3 123 2
	call	wpabuf_put_be16
.LVL61:
	.loc 3 124 2 is_stmt 1
	mv	a0,s0
	li	a1,16
	call	wpabuf_put_be16
.LVL62:
	.loc 3 125 2
	mv	a0,s0
	mv	a1,s1
	li	a2,16
	call	wpabuf_put_data
.LVL63:
	.loc 3 126 2
	.loc 3 127 1 is_stmt 0
	lw	ra,12(sp)
	.cfi_restore 1
	lw	s0,8(sp)
	.cfi_restore 8
.LVL64:
	lw	s1,4(sp)
	.cfi_restore 9
.LVL65:
	li	a0,0
	addi	sp,sp,16
	.cfi_def_cfa_offset 0
	jr	ra
	.cfi_endproc
.LFE73:
	.size	wps_build_uuid_e, .-wps_build_uuid_e
	.section	.text.wps_build_dev_password_id,"ax",@progbits
	.align	1
	.globl	wps_build_dev_password_id
	.type	wps_build_dev_password_id, @function
wps_build_dev_password_id:
.LFB74:
	.loc 3 131 1 is_stmt 1
	.cfi_startproc
.LVL66:
	.loc 3 132 2
	.loc 3 132 6
	.loc 3 132 13
	.loc 3 133 2
	.loc 3 131 1 is_stmt 0
	addi	sp,sp,-16
	.cfi_def_cfa_offset 16
	sw	s1,4(sp)
	.cfi_offset 9, -12
	mv	s1,a1
	.loc 3 133 2
	li	a1,4096
.LVL67:
	addi	a1,a1,18
	.loc 3 131 1
	sw	ra,12(sp)
	sw	s0,8(sp)
	.cfi_offset 1, -4
	.cfi_offset 8, -8
	.loc 3 131 1
	mv	s0,a0
	.loc 3 133 2
	call	wpabuf_put_be16
.LVL68:
	.loc 3 134 2 is_stmt 1
	mv	a0,s0
	li	a1,2
	call	wpabuf_put_be16
.LVL69:
	.loc 3 135 2
	mv	a0,s0
	mv	a1,s1
	call	wpabuf_put_be16
.LVL70:
	.loc 3 136 2
	.loc 3 137 1 is_stmt 0
	lw	ra,12(sp)
	.cfi_restore 1
	lw	s0,8(sp)
	.cfi_restore 8
.LVL71:
	lw	s1,4(sp)
	.cfi_restore 9
	li	a0,0
	addi	sp,sp,16
	.cfi_def_cfa_offset 0
	jr	ra
	.cfi_endproc
.LFE74:
	.size	wps_build_dev_password_id, .-wps_build_dev_password_id
	.section	.text.wps_build_config_error,"ax",@progbits
	.align	1
	.globl	wps_build_config_error
	.type	wps_build_config_error, @function
wps_build_config_error:
.LFB75:
	.loc 3 141 1 is_stmt 1
	.cfi_startproc
.LVL72:
	.loc 3 142 2
	.loc 3 142 6
	.loc 3 142 13
	.loc 3 143 2
	.loc 3 141 1 is_stmt 0
	addi	sp,sp,-16
	.cfi_def_cfa_offset 16
	sw	s1,4(sp)
	.cfi_offset 9, -12
	mv	s1,a1
	.loc 3 143 2
	li	a1,4096
.LVL73:
	addi	a1,a1,9
	.loc 3 141 1
	sw	ra,12(sp)
	sw	s0,8(sp)
	.cfi_offset 1, -4
	.cfi_offset 8, -8
	.loc 3 141 1
	mv	s0,a0
	.loc 3 143 2
	call	wpabuf_put_be16
.LVL74:
	.loc 3 144 2 is_stmt 1
	mv	a0,s0
	li	a1,2
	call	wpabuf_put_be16
.LVL75:
	.loc 3 145 2
	mv	a0,s0
	mv	a1,s1
	call	wpabuf_put_be16
.LVL76:
	.loc 3 146 2
	.loc 3 147 1 is_stmt 0
	lw	ra,12(sp)
	.cfi_restore 1
	lw	s0,8(sp)
	.cfi_restore 8
.LVL77:
	lw	s1,4(sp)
	.cfi_restore 9
	li	a0,0
	addi	sp,sp,16
	.cfi_def_cfa_offset 0
	jr	ra
	.cfi_endproc
.LFE75:
	.size	wps_build_config_error, .-wps_build_config_error
	.section	.text.wps_build_authenticator,"ax",@progbits
	.align	1
	.globl	wps_build_authenticator
	.type	wps_build_authenticator, @function
wps_build_authenticator:
.LFB76:
	.loc 3 151 1 is_stmt 1
	.cfi_startproc
.LVL78:
	.loc 3 152 2
	.loc 3 153 2
	.loc 3 154 2
	.loc 3 156 2
	.loc 3 156 9 is_stmt 0
	lw	a5,308(a0)
	.loc 3 156 5
	beq	a5,zero,.L55
	.loc 3 151 1
	addi	sp,sp,-64
	.cfi_def_cfa_offset 64
	sw	s0,56(sp)
	sw	ra,60(sp)
	.cfi_offset 8, -8
	.cfi_offset 1, -4
.LBB62:
.LBB63:
	.loc 1 81 9
	lw	a4,8(a5)
	mv	s0,a1
.LBE63:
.LBE62:
	.loc 3 165 2 is_stmt 1
.LVL79:
.LBB65:
.LBB64:
	.loc 1 81 2
	.loc 1 81 5 is_stmt 0
	bne	a4,zero,.L53
	.loc 1 83 2 is_stmt 1
	.loc 1 83 13 is_stmt 0
	addi	a4,a5,12
.L53:
.LVL80:
.LBE64:
.LBE65:
	.loc 3 166 9
	lw	a5,4(a5)
	.loc 3 165 10
	sw	a4,0(sp)
	.loc 3 166 2 is_stmt 1
.LBB66:
.LBB67:
	.loc 1 61 2
.LBE67:
.LBE66:
	.loc 3 166 9 is_stmt 0
	sw	a5,8(sp)
	.loc 3 167 2 is_stmt 1
.LVL81:
.LBB68:
.LBB69:
	.loc 1 81 2
	.loc 1 81 9 is_stmt 0
	lw	a5,8(s0)
	.loc 1 81 5
	bne	a5,zero,.L54
	.loc 1 83 2 is_stmt 1
	.loc 1 83 13 is_stmt 0
	addi	a5,s0,12
.L54:
.LVL82:
.LBE69:
.LBE68:
	.loc 3 167 10
	sw	a5,4(sp)
	.loc 3 168 2 is_stmt 1
.LVL83:
.LBB70:
.LBB71:
	.loc 1 61 2
.LBE71:
.LBE70:
	.loc 3 168 9 is_stmt 0
	lw	a5,4(s0)
	.loc 3 169 2
	addi	a4,sp,8
	mv	a3,sp
	li	a2,2
	.loc 3 168 9
	sw	a5,12(sp)
	.loc 3 169 2 is_stmt 1
	li	a1,32
.LVL84:
	addi	a5,sp,16
	addi	a0,a0,228
.LVL85:
	call	hmac_sha256_vector
.LVL86:
	.loc 3 170 2
	.loc 3 170 6
	.loc 3 170 13
	.loc 3 171 2
	li	a1,4096
	mv	a0,s0
	addi	a1,a1,5
	call	wpabuf_put_be16
.LVL87:
	.loc 3 172 2
	mv	a0,s0
	li	a1,8
	call	wpabuf_put_be16
.LVL88:
	.loc 3 173 2
.LBB72:
.LBB73:
	.loc 1 147 2
	mv	a0,s0
	addi	a1,sp,16
.LVL89:
	li	a2,8
	call	wpabuf_put_data.part.0
.LVL90:
.LBE73:
.LBE72:
	.loc 3 175 2
	.loc 3 176 1 is_stmt 0
	lw	ra,60(sp)
	.cfi_restore 1
	lw	s0,56(sp)
	.cfi_restore 8
.LVL91:
	.loc 3 175 9
	li	a0,0
	.loc 3 176 1
	addi	sp,sp,64
	.cfi_def_cfa_offset 0
	jr	ra
.LVL92:
.L55:
	.loc 3 159 10
	li	a0,-1
.LVL93:
	.loc 3 176 1
	ret
	.cfi_endproc
.LFE76:
	.size	wps_build_authenticator, .-wps_build_authenticator
	.section	.text.wps_build_version,"ax",@progbits
	.align	1
	.globl	wps_build_version
	.type	wps_build_version, @function
wps_build_version:
.LFB77:
	.loc 3 180 1 is_stmt 1
	.cfi_startproc
.LVL94:
	.loc 3 186 2
	.loc 3 186 6
	.loc 3 186 13
	.loc 3 187 2
	li	a1,4096
	.loc 3 180 1 is_stmt 0
	addi	sp,sp,-16
	.cfi_def_cfa_offset 16
	.loc 3 187 2
	addi	a1,a1,74
	.loc 3 180 1
	sw	ra,12(sp)
	sw	s0,8(sp)
	.cfi_offset 1, -4
	.cfi_offset 8, -8
	.loc 3 180 1
	mv	s0,a0
	.loc 3 187 2
	call	wpabuf_put_be16
.LVL95:
	.loc 3 188 2 is_stmt 1
	mv	a0,s0
	li	a1,1
	call	wpabuf_put_be16
.LVL96:
	.loc 3 189 2
	mv	a0,s0
	li	a1,16
	call	wpabuf_put_u8
.LVL97:
	.loc 3 190 2
	.loc 3 191 1 is_stmt 0
	lw	ra,12(sp)
	.cfi_restore 1
	lw	s0,8(sp)
	.cfi_restore 8
.LVL98:
	li	a0,0
	addi	sp,sp,16
	.cfi_def_cfa_offset 0
	jr	ra
	.cfi_endproc
.LFE77:
	.size	wps_build_version, .-wps_build_version
	.section	.text.wps_build_wfa_ext,"ax",@progbits
	.align	1
	.globl	wps_build_wfa_ext
	.type	wps_build_wfa_ext, @function
wps_build_wfa_ext:
.LFB78:
	.loc 3 196 1 is_stmt 1
	.cfi_startproc
.LVL99:
	.loc 3 198 2
	.loc 3 200 2
	.loc 3 196 1 is_stmt 0
	addi	sp,sp,-32
	.cfi_def_cfa_offset 32
	sw	s4,8(sp)
	.cfi_offset 20, -24
	mv	s4,a1
	.loc 3 200 2
	li	a1,4096
.LVL100:
	addi	a1,a1,73
	.loc 3 196 1
	sw	ra,28(sp)
	sw	s0,24(sp)
	sw	s1,20(sp)
	.cfi_offset 1, -4
	.cfi_offset 8, -8
	.cfi_offset 9, -12
	mv	s0,a0
	sw	s2,16(sp)
	sw	s3,12(sp)
	.cfi_offset 18, -16
	.cfi_offset 19, -20
	.loc 3 196 1
	mv	s2,a3
	mv	s3,a2
	.loc 3 200 2
	call	wpabuf_put_be16
.LVL101:
	.loc 3 201 2 is_stmt 1
	.loc 3 201 8 is_stmt 0
	li	a1,2
	mv	a0,s0
	call	wpabuf_put
.LVL102:
.LBB81:
.LBB82:
	.loc 1 134 12
	li	a1,3
.LBE82:
.LBE81:
	.loc 3 201 8
	mv	s1,a0
.LVL103:
	.loc 3 202 2 is_stmt 1
.LBB86:
.LBB85:
	.loc 1 134 2
	.loc 1 134 12 is_stmt 0
	mv	a0,s0
	call	wpabuf_put
.LVL104:
	.loc 1 135 2 is_stmt 1
.LBB83:
.LBB84:
	.loc 2 154 2
	.loc 2 155 7 is_stmt 0
	li	a5,55
	sb	a5,1(a0)
	.loc 2 156 7
	li	a5,42
	sb	a5,2(a0)
	.loc 2 154 7
	sb	zero,0(a0)
	.loc 2 155 2 is_stmt 1
	.loc 2 156 2
.LVL105:
.LBE84:
.LBE83:
.LBE85:
.LBE86:
	.loc 3 204 2
	.loc 3 204 6
	.loc 3 204 13
	.loc 3 205 2
	li	a1,0
	mv	a0,s0
	call	wpabuf_put_u8
.LVL106:
	.loc 3 206 2
	li	a1,1
	mv	a0,s0
	call	wpabuf_put_u8
.LVL107:
	.loc 3 207 2
	li	a1,32
	mv	a0,s0
	call	wpabuf_put_u8
.LVL108:
	.loc 3 209 2
	.loc 3 209 5 is_stmt 0
	beq	s4,zero,.L63
	.loc 3 210 3 is_stmt 1
	.loc 3 210 7
	.loc 3 210 14
	.loc 3 211 3
	li	a1,3
	mv	a0,s0
	call	wpabuf_put_u8
.LVL109:
	.loc 3 212 3
	li	a1,1
	mv	a0,s0
	call	wpabuf_put_u8
.LVL110:
	.loc 3 213 3
	li	a1,1
	mv	a0,s0
	call	wpabuf_put_u8
.LVL111:
.L63:
	.loc 3 216 2
	.loc 3 216 5 is_stmt 0
	beq	s3,zero,.L64
	.loc 3 216 16 discriminator 1
	beq	s2,zero,.L64
.LBB87:
	.loc 3 217 3 is_stmt 1
	.loc 3 218 3
	.loc 3 218 7
	.loc 3 218 14
	.loc 3 220 3
	li	a1,1
	mv	a0,s0
	call	wpabuf_put_u8
.LVL112:
	.loc 3 221 3
	li	a1,6
	mul	a1,s2,a1
	mv	a0,s0
	andi	a1,a1,254
	call	wpabuf_put_u8
.LVL113:
	.loc 3 222 3
	li	a2,6
	mul	a2,s2,a2
	mv	a1,s3
	mv	a0,s0
	call	wpabuf_put_data
.LVL114:
	.loc 3 223 3
	.loc 3 223 15
.L64:
.LBE87:
	.loc 3 228 2
	.loc 3 228 27 is_stmt 0
	mv	a0,s0
	li	a1,0
	call	wpabuf_put
.LVL115:
	.loc 3 228 46
	sub	a5,a0,s1
	.loc 3 228 2
	addi	a5,a5,-2
	slli	a5,a5,16
	srli	a5,a5,16
.LVL116:
.LBB88:
.LBB89:
	.loc 2 132 2 is_stmt 1
	.loc 2 132 7 is_stmt 0
	srli	a4,a5,8
	sb	a4,0(s1)
	.loc 2 133 2 is_stmt 1
	.loc 2 133 7 is_stmt 0
	sb	a5,1(s1)
.LVL117:
.LBE89:
.LBE88:
	.loc 3 240 2 is_stmt 1
	.loc 3 241 1 is_stmt 0
	lw	ra,28(sp)
	.cfi_restore 1
	lw	s0,24(sp)
	.cfi_restore 8
.LVL118:
	lw	s1,20(sp)
	.cfi_restore 9
.LVL119:
	lw	s2,16(sp)
	.cfi_restore 18
.LVL120:
	lw	s3,12(sp)
	.cfi_restore 19
.LVL121:
	lw	s4,8(sp)
	.cfi_restore 20
.LVL122:
	li	a0,0
	addi	sp,sp,32
	.cfi_def_cfa_offset 0
	jr	ra
	.cfi_endproc
.LFE78:
	.size	wps_build_wfa_ext, .-wps_build_wfa_ext
	.section	.text.wps_build_msg_type,"ax",@progbits
	.align	1
	.globl	wps_build_msg_type
	.type	wps_build_msg_type, @function
wps_build_msg_type:
.LFB79:
	.loc 3 245 1 is_stmt 1
	.cfi_startproc
.LVL123:
	.loc 3 246 2
	.loc 3 246 6
	.loc 3 246 13
	.loc 3 247 2
	.loc 3 245 1 is_stmt 0
	addi	sp,sp,-16
	.cfi_def_cfa_offset 16
	sw	s1,4(sp)
	.cfi_offset 9, -12
	mv	s1,a1
	.loc 3 247 2
	li	a1,4096
.LVL124:
	addi	a1,a1,34
	.loc 3 245 1
	sw	ra,12(sp)
	sw	s0,8(sp)
	.cfi_offset 1, -4
	.cfi_offset 8, -8
	.loc 3 245 1
	mv	s0,a0
	.loc 3 247 2
	call	wpabuf_put_be16
.LVL125:
	.loc 3 248 2 is_stmt 1
	mv	a0,s0
	li	a1,1
	call	wpabuf_put_be16
.LVL126:
	.loc 3 249 2
	mv	a0,s0
	andi	a1,s1,0xff
	call	wpabuf_put_u8
.LVL127:
	.loc 3 250 2
	.loc 3 251 1 is_stmt 0
	lw	ra,12(sp)
	.cfi_restore 1
	lw	s0,8(sp)
	.cfi_restore 8
.LVL128:
	lw	s1,4(sp)
	.cfi_restore 9
.LVL129:
	li	a0,0
	addi	sp,sp,16
	.cfi_def_cfa_offset 0
	jr	ra
	.cfi_endproc
.LFE79:
	.size	wps_build_msg_type, .-wps_build_msg_type
	.section	.text.wps_build_enrollee_nonce,"ax",@progbits
	.align	1
	.globl	wps_build_enrollee_nonce
	.type	wps_build_enrollee_nonce, @function
wps_build_enrollee_nonce:
.LFB80:
	.loc 3 255 1 is_stmt 1
	.cfi_startproc
.LVL130:
	.loc 3 256 2
	.loc 3 256 6
	.loc 3 256 13
	.loc 3 257 2
	.loc 3 255 1 is_stmt 0
	addi	sp,sp,-16
	.cfi_def_cfa_offset 16
	sw	s0,8(sp)
	.cfi_offset 8, -8
	mv	s0,a1
	.loc 3 257 2
	li	a1,4096
.LVL131:
	.loc 3 255 1
	sw	s1,4(sp)
	.loc 3 257 2
	addi	a1,a1,26
	.cfi_offset 9, -12
	.loc 3 255 1
	mv	s1,a0
	.loc 3 257 2
	mv	a0,s0
.LVL132:
	.loc 3 255 1
	sw	ra,12(sp)
	.cfi_offset 1, -4
	.loc 3 257 2
	call	wpabuf_put_be16
.LVL133:
	.loc 3 258 2 is_stmt 1
	mv	a0,s0
	li	a1,16
	call	wpabuf_put_be16
.LVL134:
	.loc 3 259 2
	mv	a0,s0
	addi	a1,s1,54
	li	a2,16
	call	wpabuf_put_data
.LVL135:
	.loc 3 260 2
	.loc 3 261 1 is_stmt 0
	lw	ra,12(sp)
	.cfi_restore 1
	lw	s0,8(sp)
	.cfi_restore 8
.LVL136:
	lw	s1,4(sp)
	.cfi_restore 9
.LVL137:
	li	a0,0
	addi	sp,sp,16
	.cfi_def_cfa_offset 0
	jr	ra
	.cfi_endproc
.LFE80:
	.size	wps_build_enrollee_nonce, .-wps_build_enrollee_nonce
	.section	.text.wps_build_registrar_nonce,"ax",@progbits
	.align	1
	.globl	wps_build_registrar_nonce
	.type	wps_build_registrar_nonce, @function
wps_build_registrar_nonce:
.LFB81:
	.loc 3 265 1 is_stmt 1
	.cfi_startproc
.LVL138:
	.loc 3 266 2
	.loc 3 266 6
	.loc 3 266 13
	.loc 3 267 2
	.loc 3 265 1 is_stmt 0
	addi	sp,sp,-16
	.cfi_def_cfa_offset 16
	sw	s0,8(sp)
	.cfi_offset 8, -8
	mv	s0,a1
	.loc 3 267 2
	li	a1,4096
.LVL139:
	.loc 3 265 1
	sw	s1,4(sp)
	.loc 3 267 2
	addi	a1,a1,57
	.cfi_offset 9, -12
	.loc 3 265 1
	mv	s1,a0
	.loc 3 267 2
	mv	a0,s0
.LVL140:
	.loc 3 265 1
	sw	ra,12(sp)
	.cfi_offset 1, -4
	.loc 3 267 2
	call	wpabuf_put_be16
.LVL141:
	.loc 3 268 2 is_stmt 1
	mv	a0,s0
	li	a1,16
	call	wpabuf_put_be16
.LVL142:
	.loc 3 269 2
	mv	a0,s0
	addi	a1,s1,70
	li	a2,16
	call	wpabuf_put_data
.LVL143:
	.loc 3 270 2
	.loc 3 271 1 is_stmt 0
	lw	ra,12(sp)
	.cfi_restore 1
	lw	s0,8(sp)
	.cfi_restore 8
.LVL144:
	lw	s1,4(sp)
	.cfi_restore 9
.LVL145:
	li	a0,0
	addi	sp,sp,16
	.cfi_def_cfa_offset 0
	jr	ra
	.cfi_endproc
.LFE81:
	.size	wps_build_registrar_nonce, .-wps_build_registrar_nonce
	.section	.text.wps_build_auth_type_flags,"ax",@progbits
	.align	1
	.globl	wps_build_auth_type_flags
	.type	wps_build_auth_type_flags, @function
wps_build_auth_type_flags:
.LFB82:
	.loc 3 275 1 is_stmt 1
	.cfi_startproc
.LVL146:
	.loc 3 276 2
	.loc 3 278 2
	.loc 3 280 2
	.loc 3 280 6
	.loc 3 280 13
	.loc 3 281 2
	.loc 3 275 1 is_stmt 0
	mv	a0,a1
.LVL147:
	.loc 3 281 2
	li	a1,4096
.LVL148:
	.loc 3 275 1
	addi	sp,sp,-32
	.cfi_def_cfa_offset 32
	.loc 3 281 2
	addi	a1,a1,4
	.loc 3 275 1
	sw	ra,28(sp)
	.cfi_offset 1, -4
	.loc 3 281 2
	sw	a0,12(sp)
	call	wpabuf_put_be16
.LVL149:
	.loc 3 282 2 is_stmt 1
	lw	a0,12(sp)
	li	a1,2
	call	wpabuf_put_be16
.LVL150:
	.loc 3 283 2
	lw	a0,12(sp)
	li	a1,59
	call	wpabuf_put_be16
.LVL151:
	.loc 3 284 2
	.loc 3 285 1 is_stmt 0
	lw	ra,28(sp)
	.cfi_restore 1
	li	a0,0
	addi	sp,sp,32
	.cfi_def_cfa_offset 0
.LVL152:
	jr	ra
	.cfi_endproc
.LFE82:
	.size	wps_build_auth_type_flags, .-wps_build_auth_type_flags
	.section	.text.wps_build_encr_type_flags,"ax",@progbits
	.align	1
	.globl	wps_build_encr_type_flags
	.type	wps_build_encr_type_flags, @function
wps_build_encr_type_flags:
.LFB83:
	.loc 3 289 1 is_stmt 1
	.cfi_startproc
.LVL153:
	.loc 3 290 2
	.loc 3 292 2
	.loc 3 294 2
	.loc 3 294 6
	.loc 3 294 13
	.loc 3 295 2
	.loc 3 289 1 is_stmt 0
	mv	a0,a1
.LVL154:
	.loc 3 295 2
	li	a1,4096
.LVL155:
	.loc 3 289 1
	addi	sp,sp,-32
	.cfi_def_cfa_offset 32
	.loc 3 295 2
	addi	a1,a1,16
	.loc 3 289 1
	sw	ra,28(sp)
	.cfi_offset 1, -4
	.loc 3 295 2
	sw	a0,12(sp)
	call	wpabuf_put_be16
.LVL156:
	.loc 3 296 2 is_stmt 1
	lw	a0,12(sp)
	li	a1,2
	call	wpabuf_put_be16
.LVL157:
	.loc 3 297 2
	lw	a0,12(sp)
	li	a1,13
	call	wpabuf_put_be16
.LVL158:
	.loc 3 298 2
	.loc 3 299 1 is_stmt 0
	lw	ra,28(sp)
	.cfi_restore 1
	li	a0,0
	addi	sp,sp,32
	.cfi_def_cfa_offset 0
.LVL159:
	jr	ra
	.cfi_endproc
.LFE83:
	.size	wps_build_encr_type_flags, .-wps_build_encr_type_flags
	.section	.text.wps_build_conn_type_flags,"ax",@progbits
	.align	1
	.globl	wps_build_conn_type_flags
	.type	wps_build_conn_type_flags, @function
wps_build_conn_type_flags:
.LFB84:
	.loc 3 303 1 is_stmt 1
	.cfi_startproc
.LVL160:
	.loc 3 304 2
	.loc 3 304 6
	.loc 3 304 13
	.loc 3 305 2
	.loc 3 303 1 is_stmt 0
	mv	a0,a1
.LVL161:
	.loc 3 305 2
	li	a1,4096
.LVL162:
	.loc 3 303 1
	addi	sp,sp,-32
	.cfi_def_cfa_offset 32
	.loc 3 305 2
	addi	a1,a1,13
	.loc 3 303 1
	sw	ra,28(sp)
	.cfi_offset 1, -4
	.loc 3 305 2
	sw	a0,12(sp)
	call	wpabuf_put_be16
.LVL163:
	.loc 3 306 2 is_stmt 1
	lw	a0,12(sp)
	li	a1,1
	call	wpabuf_put_be16
.LVL164:
	.loc 3 307 2
	lw	a0,12(sp)
	li	a1,1
	call	wpabuf_put_u8
.LVL165:
	.loc 3 308 2
	.loc 3 309 1 is_stmt 0
	lw	ra,28(sp)
	.cfi_restore 1
	li	a0,0
	addi	sp,sp,32
	.cfi_def_cfa_offset 0
.LVL166:
	jr	ra
	.cfi_endproc
.LFE84:
	.size	wps_build_conn_type_flags, .-wps_build_conn_type_flags
	.section	.text.wps_build_assoc_state,"ax",@progbits
	.align	1
	.globl	wps_build_assoc_state
	.type	wps_build_assoc_state, @function
wps_build_assoc_state:
.LFB85:
	.loc 3 313 1 is_stmt 1
	.cfi_startproc
.LVL167:
	.loc 3 314 2
	.loc 3 314 6
	.loc 3 314 13
	.loc 3 315 2
	.loc 3 313 1 is_stmt 0
	mv	a0,a1
.LVL168:
	.loc 3 315 2
	li	a1,4096
.LVL169:
	.loc 3 313 1
	addi	sp,sp,-32
	.cfi_def_cfa_offset 32
	.loc 3 315 2
	addi	a1,a1,2
	.loc 3 313 1
	sw	ra,28(sp)
	.cfi_offset 1, -4
	.loc 3 315 2
	sw	a0,12(sp)
	call	wpabuf_put_be16
.LVL170:
	.loc 3 316 2 is_stmt 1
	lw	a0,12(sp)
	li	a1,2
	call	wpabuf_put_be16
.LVL171:
	.loc 3 317 2
	lw	a0,12(sp)
	li	a1,0
	call	wpabuf_put_be16
.LVL172:
	.loc 3 318 2
	.loc 3 319 1 is_stmt 0
	lw	ra,28(sp)
	.cfi_restore 1
	li	a0,0
	addi	sp,sp,32
	.cfi_def_cfa_offset 0
.LVL173:
	jr	ra
	.cfi_endproc
.LFE85:
	.size	wps_build_assoc_state, .-wps_build_assoc_state
	.section	.text.wps_build_key_wrap_auth,"ax",@progbits
	.align	1
	.globl	wps_build_key_wrap_auth
	.type	wps_build_key_wrap_auth, @function
wps_build_key_wrap_auth:
.LFB86:
	.loc 3 323 1 is_stmt 1
	.cfi_startproc
.LVL174:
	.loc 3 324 2
	.loc 3 326 2
	.loc 3 326 6
	.loc 3 326 13
	.loc 3 327 2
	.loc 3 323 1 is_stmt 0
	addi	sp,sp,-48
	.cfi_def_cfa_offset 48
	sw	s0,40(sp)
	sw	ra,44(sp)
	.cfi_offset 8, -8
	.cfi_offset 1, -4
.LBB96:
.LBB97:
	.loc 1 81 9
	lw	a2,8(a1)
.LBE97:
.LBE96:
	.loc 3 323 1
	mv	s0,a1
	.loc 3 327 17
	addi	a0,a0,228
.LVL175:
.LBB99:
.LBB98:
	.loc 1 81 2 is_stmt 1
	.loc 1 81 5 is_stmt 0
	bne	a2,zero,.L90
	.loc 1 83 2 is_stmt 1
	.loc 1 83 13 is_stmt 0
	addi	a2,a1,12
.L90:
.LVL176:
.LBE98:
.LBE99:
.LBB100:
.LBB101:
	.loc 1 61 2 is_stmt 1
.LBE101:
.LBE100:
	.loc 3 327 2 is_stmt 0
	lw	a3,4(s0)
	mv	a4,sp
	li	a1,32
.LVL177:
	call	hmac_sha256
.LVL178:
	.loc 3 329 2 is_stmt 1
	li	a1,4096
	mv	a0,s0
	addi	a1,a1,30
	call	wpabuf_put_be16
.LVL179:
	.loc 3 330 2
	mv	a0,s0
	li	a1,8
	call	wpabuf_put_be16
.LVL180:
	.loc 3 331 2
.LBB102:
.LBB103:
	.loc 1 147 2
	mv	a0,s0
	mv	a1,sp
	li	a2,8
	call	wpabuf_put_data.part.0
.LVL181:
.LBE103:
.LBE102:
	.loc 3 332 2
	.loc 3 333 1 is_stmt 0
	lw	ra,44(sp)
	.cfi_restore 1
	lw	s0,40(sp)
	.cfi_restore 8
.LVL182:
	li	a0,0
	addi	sp,sp,48
	.cfi_def_cfa_offset 0
	jr	ra
	.cfi_endproc
.LFE86:
	.size	wps_build_key_wrap_auth, .-wps_build_key_wrap_auth
	.section	.text.wps_build_encr_settings,"ax",@progbits
	.align	1
	.globl	wps_build_encr_settings
	.type	wps_build_encr_settings, @function
wps_build_encr_settings:
.LFB87:
	.loc 3 338 1 is_stmt 1
	.cfi_startproc
.LVL183:
	.loc 3 339 2
	.loc 3 340 2
	.loc 3 341 2
	.loc 3 343 2
	.loc 3 343 6
	.loc 3 343 13
	.loc 3 346 2
.LBB116:
.LBB117:
	.loc 1 61 2
.LBE117:
.LBE116:
	.loc 3 338 1 is_stmt 0
	addi	sp,sp,-48
	.cfi_def_cfa_offset 48
	sw	ra,44(sp)
	sw	s0,40(sp)
	sw	s1,36(sp)
	sw	s2,32(sp)
	sw	s3,28(sp)
	sw	s4,24(sp)
	.cfi_offset 1, -4
	.cfi_offset 8, -8
	.cfi_offset 9, -12
	.cfi_offset 18, -16
	.cfi_offset 19, -20
	.cfi_offset 20, -24
	.loc 3 338 1
	mv	s0,a2
	.loc 3 346 43
	lw	a2,4(a2)
.LVL184:
	.loc 3 338 1
	mv	s1,a1
	mv	s2,a0
	.loc 3 346 43
	andi	a1,a2,15
.LVL185:
	.loc 3 346 10
	li	a2,16
	sub	a2,a2,a1
.LVL186:
	.loc 3 347 2 is_stmt 1
	mv	a1,a2
	mv	a0,s0
.LVL187:
	sw	a2,12(sp)
	call	wpabuf_put
.LVL188:
	lw	a2,12(sp)
	mv	a1,a2
	call	memset
.LVL189:
	.loc 3 349 2
	li	a1,4096
	addi	a1,a1,24
	mv	a0,s1
	call	wpabuf_put_be16
.LVL190:
	.loc 3 350 2
.LBB118:
.LBB119:
	.loc 1 61 2
.LBE119:
.LBE118:
	.loc 3 350 2 is_stmt 0
	lw	a1,4(s0)
	mv	a0,s1
	addi	a1,a1,16
	slli	a1,a1,16
	srli	a1,a1,16
	call	wpabuf_put_be16
.LVL191:
	.loc 3 352 2 is_stmt 1
	.loc 3 352 7 is_stmt 0
	li	a1,16
	mv	a0,s1
	call	wpabuf_put
.LVL192:
	.loc 3 353 6
	li	a1,16
	.loc 3 352 7
	mv	s3,a0
.LVL193:
	.loc 3 353 2 is_stmt 1
	.loc 3 353 6 is_stmt 0
	call	os_get_random
.LVL194:
	.loc 3 353 5
	blt	a0,zero,.L95
	.loc 3 356 2 is_stmt 1
	.loc 3 356 9 is_stmt 0
	li	a1,0
	mv	a0,s1
	call	wpabuf_put
.LVL195:
.LBB120:
.LBB121:
.LBB122:
.LBB123:
	.loc 1 81 9
	lw	a1,8(s0)
.LBE123:
.LBE122:
.LBE121:
.LBE120:
	.loc 3 356 9
	mv	s4,a0
.LVL196:
	.loc 3 357 2 is_stmt 1
.LBB129:
.LBB128:
	.loc 1 154 2
.LBB125:
.LBB124:
	.loc 1 81 2
	.loc 1 81 5 is_stmt 0
	bne	a1,zero,.L94
	.loc 1 83 2 is_stmt 1
	.loc 1 83 13 is_stmt 0
	addi	a1,s0,12
.L94:
.LVL197:
.LBE124:
.LBE125:
.LBB126:
.LBB127:
	.loc 1 61 2 is_stmt 1
.LBE127:
.LBE126:
	.loc 1 154 2 is_stmt 0
	lw	a2,4(s0)
	mv	a0,s1
.LVL198:
	call	wpabuf_put_data
.LVL199:
.LBE128:
.LBE129:
	.loc 3 358 2 is_stmt 1
	.loc 3 358 6
	.loc 3 358 13
	.loc 3 359 2
.LBB130:
.LBB131:
	.loc 1 61 2
.LBE131:
.LBE130:
	.loc 3 359 6 is_stmt 0
	lw	a3,4(s0)
	mv	a2,s4
	mv	a1,s3
	addi	a0,s2,260
	call	aes_128_cbc_encrypt
.LVL200:
	.loc 3 359 5
	snez	a0,a0
	neg	a0,a0
.LVL201:
.L92:
	.loc 3 362 1
	lw	ra,44(sp)
	.cfi_remember_state
	.cfi_restore 1
	lw	s0,40(sp)
	.cfi_restore 8
.LVL202:
	lw	s1,36(sp)
	.cfi_restore 9
.LVL203:
	lw	s2,32(sp)
	.cfi_restore 18
.LVL204:
	lw	s3,28(sp)
	.cfi_restore 19
.LVL205:
	lw	s4,24(sp)
	.cfi_restore 20
	addi	sp,sp,48
	.cfi_def_cfa_offset 0
.LVL206:
	jr	ra
.LVL207:
.L95:
	.cfi_restore_state
	.loc 3 354 10
	li	a0,-1
	j	.L92
	.cfi_endproc
.LFE87:
	.size	wps_build_encr_settings, .-wps_build_encr_settings
	.section	.text.wps_ie_encapsulate,"ax",@progbits
	.align	1
	.globl	wps_ie_encapsulate
	.type	wps_ie_encapsulate, @function
wps_ie_encapsulate:
.LFB88:
	.loc 3 390 1 is_stmt 1
	.cfi_startproc
.LVL208:
	.loc 3 391 2
	.loc 3 392 2
	.loc 3 394 2
.LBB143:
.LBB144:
	.loc 1 61 2
.LBE144:
.LBE143:
	.loc 3 390 1 is_stmt 0
	addi	sp,sp,-48
	.cfi_def_cfa_offset 48
	sw	s0,40(sp)
	sw	s1,36(sp)
	sw	ra,44(sp)
	sw	s2,32(sp)
	sw	s3,28(sp)
	sw	s4,24(sp)
	sw	s5,20(sp)
	sw	s6,16(sp)
	sw	s7,12(sp)
	.cfi_offset 8, -8
	.cfi_offset 9, -12
	.cfi_offset 1, -4
	.cfi_offset 18, -16
	.cfi_offset 19, -20
	.cfi_offset 20, -24
	.cfi_offset 21, -28
	.cfi_offset 22, -32
	.cfi_offset 23, -36
	.loc 3 390 1
	mv	s1,a0
	.loc 3 394 7
	lw	a0,4(a0)
.LVL209:
	addi	a0,a0,100
	call	wpabuf_alloc
.LVL210:
	mv	s0,a0
.LVL211:
	.loc 3 395 2 is_stmt 1
	.loc 3 395 5 is_stmt 0
	bne	a0,zero,.L98
.L105:
	.loc 3 414 2 is_stmt 1
	mv	a0,s1
	call	wpabuf_free
.LVL212:
	.loc 3 416 2
	.loc 3 417 1 is_stmt 0
	lw	ra,44(sp)
	.cfi_remember_state
	.cfi_restore 1
	mv	a0,s0
	lw	s0,40(sp)
	.cfi_restore 8
.LVL213:
	lw	s1,36(sp)
	.cfi_restore 9
.LVL214:
	lw	s2,32(sp)
	.cfi_restore 18
	lw	s3,28(sp)
	.cfi_restore 19
	lw	s4,24(sp)
	.cfi_restore 20
	lw	s5,20(sp)
	.cfi_restore 21
	lw	s6,16(sp)
	.cfi_restore 22
	lw	s7,12(sp)
	.cfi_restore 23
	addi	sp,sp,48
	.cfi_def_cfa_offset 0
	jr	ra
.LVL215:
.L98:
	.cfi_restore_state
	.loc 3 400 2 is_stmt 1
.LBB145:
.LBB146:
	.loc 1 81 2
	.loc 1 81 9 is_stmt 0
	lw	s2,8(s1)
	.loc 1 81 5
	bne	s2,zero,.L100
	.loc 1 83 2 is_stmt 1
	.loc 1 83 13 is_stmt 0
	addi	s2,s1,12
.L100:
.LVL216:
.LBE146:
.LBE145:
	.loc 3 401 2 is_stmt 1
.LBB147:
.LBB148:
	.loc 1 61 2
.LBE148:
.LBE147:
	.loc 3 401 6 is_stmt 0
	lw	s4,4(s1)
	li	s5,251
.LBB149:
.LBB150:
.LBB151:
.LBB152:
.LBB153:
	.loc 2 167 7
	li	s6,80
.LBE153:
.LBE152:
.LBE151:
.LBE150:
.LBE149:
	.loc 3 401 6
	add	s4,s2,s4
.LVL217:
	.loc 3 403 2 is_stmt 1
.LBB162:
.LBB160:
.LBB158:
.LBB156:
.LBB154:
	.loc 2 168 7 is_stmt 0
	li	s7,-14
.L101:
.LBE154:
.LBE156:
.LBE158:
.LBE160:
.LBE162:
	.loc 3 403 8 is_stmt 1
	bgeu	s2,s4,.L105
.LBB163:
	.loc 3 404 3
	.loc 3 404 25 is_stmt 0
	sub	s3,s4,s2
	.loc 3 405 3 is_stmt 1
	bleu	s3,s5,.L102
	li	s3,251
.L102:
.LVL218:
	.loc 3 407 3
	li	a1,221
	mv	a0,s0
	call	wpabuf_put_u8
.LVL219:
	.loc 3 408 3
	addi	a1,s3,4
	andi	a1,a1,0xff
	mv	a0,s0
	call	wpabuf_put_u8
.LVL220:
	.loc 3 409 3
.LBB161:
.LBB159:
	.loc 1 140 2
	.loc 1 140 12 is_stmt 0
	li	a1,4
	mv	a0,s0
	call	wpabuf_put
.LVL221:
	.loc 1 141 2 is_stmt 1
.LBB157:
.LBB155:
	.loc 2 166 2
	.loc 2 169 7 is_stmt 0
	li	a5,4
	.loc 2 166 7
	sb	zero,0(a0)
	.loc 2 167 2 is_stmt 1
	.loc 2 167 7 is_stmt 0
	sb	s6,1(a0)
	.loc 2 168 2 is_stmt 1
	.loc 2 168 7 is_stmt 0
	sb	s7,2(a0)
	.loc 2 169 2 is_stmt 1
	.loc 2 169 7 is_stmt 0
	sb	a5,3(a0)
.LVL222:
.LBE155:
.LBE157:
.LBE159:
.LBE161:
	.loc 3 410 3 is_stmt 1
	mv	a1,s2
	mv	a2,s3
	mv	a0,s0
	call	wpabuf_put_data
.LVL223:
	.loc 3 411 3
	.loc 3 411 7 is_stmt 0
	add	s2,s2,s3
.LVL224:
	j	.L101
.LBE163:
	.cfi_endproc
.LFE88:
	.size	wps_ie_encapsulate, .-wps_ie_encapsulate
	.text
.Letext0:
	.file 4 "/mnt/d/GitHub/bl_iot_sdk_for_aithinker/toolchain/riscv/Linux/lib/gcc/riscv64-unknown-elf/10.2.0/include/stddef.h"
	.file 5 "/mnt/d/GitHub/bl_iot_sdk_for_aithinker/toolchain/riscv/Linux/riscv64-unknown-elf/include/machine/_default_types.h"
	.file 6 "/mnt/d/GitHub/bl_iot_sdk_for_aithinker/toolchain/riscv/Linux/riscv64-unknown-elf/include/sys/_stdint.h"
	.file 7 "/mnt/d/GitHub/bl_iot_sdk_for_aithinker/components/security/wpa_supplicant/src/wps/wps_defs.h"
	.file 8 "/mnt/d/GitHub/bl_iot_sdk_for_aithinker/components/security/wpa_supplicant/src/wps/wps.h"
	.file 9 "/mnt/d/GitHub/bl_iot_sdk_for_aithinker/components/security/wpa_supplicant/src/wps/wps_i.h"
	.file 10 "/mnt/d/GitHub/bl_iot_sdk_for_aithinker/toolchain/riscv/Linux/riscv64-unknown-elf/include/string.h"
	.file 11 "/mnt/d/GitHub/bl_iot_sdk_for_aithinker/components/security/wpa_supplicant/port/include/os.h"
	.file 12 "/mnt/d/GitHub/bl_iot_sdk_for_aithinker/components/security/wpa_supplicant/src/crypto/aes_wrap.h"
	.file 13 "/mnt/d/GitHub/bl_iot_sdk_for_aithinker/components/security/wpa_supplicant/src/crypto/sha256.h"
	.file 14 "/mnt/d/GitHub/bl_iot_sdk_for_aithinker/components/security/wpa_supplicant/src/crypto/dh_group5.h"