	.file	"wps_attr_parse.c"
	.option nopic
	.attribute arch, "rv32i2p0_m2p0_f2p0_c2p0"
	.attribute unaligned_access, 0
	.attribute stack_align, 16
	.text
.Ltext0:
	.cfi_sections	.debug_frame
	.section	.text.wps_parse_msg,"ax",@progbits
	.align	1
	.globl	wps_parse_msg
	.type	wps_parse_msg, @function
wps_parse_msg:
.LFB74:
	.file 1 "/mnt/d/GitHub/bl_iot_sdk_for_aithinker/components/security/wpa_supplicant/src/wps/wps_attr_parse.c"
	.loc 1 597 1
	.cfi_startproc
.LVL0:
	.loc 1 598 2
	.loc 1 599 2
	.loc 1 604 2
	.loc 1 597 1 is_stmt 0
	addi	sp,sp,-48
	.cfi_def_cfa_offset 48
	sw	s0,40(sp)
	.cfi_offset 8, -8
	mv	s0,a1
	sw	s1,36(sp)
	.loc 1 604 2
	li	a2,500
	.cfi_offset 9, -12
	.loc 1 597 1
	mv	s1,a0
	.loc 1 604 2
	li	a1,0
.LVL1:
	mv	a0,s0
.LVL2:
	.loc 1 597 1
	sw	ra,44(sp)
	sw	s2,32(sp)
	sw	s3,28(sp)
	sw	s4,24(sp)
	sw	s5,20(sp)
	sw	s6,16(sp)
	sw	s7,12(sp)
	sw	s8,8(sp)
	.cfi_offset 1, -4
	.cfi_offset 18, -16
	.cfi_offset 19, -20
	.cfi_offset 20, -24
	.cfi_offset 21, -28
	.cfi_offset 22, -32
	.cfi_offset 23, -36
	.cfi_offset 24, -40
	.loc 1 604 2
	call	memset
.LVL3:
	.loc 1 605 2 is_stmt 1
.LBB28:
.LBB29:
	.file 2 "/mnt/d/GitHub/bl_iot_sdk_for_aithinker/components/security/wpa_supplicant/include/utils/wpabuf.h"
	.loc 2 81 2
	.loc 2 81 9 is_stmt 0
	lw	a3,8(s1)
	.loc 2 81 5
	bne	a3,zero,.L2
	.loc 2 83 2 is_stmt 1
	.loc 2 83 13 is_stmt 0
	addi	a3,s1,12
.L2:
.LVL4:
.LBE29:
.LBE28:
	.loc 1 606 2 is_stmt 1
.LBB30:
.LBB31:
	.loc 2 61 2
.LBE31:
.LBE30:
	.loc 1 606 6 is_stmt 0
	lw	a7,4(s1)
	li	t3,-4096
	lui	t4,%hi(.L9)
.LBB32:
.LBB33:
.LBB34:
.LBB35:
	.loc 1 102 2
	li	t5,12288
	lui	t0,%hi(.L71)
.LBE35:
.LBE34:
.LBE33:
.LBE32:
	.loc 1 606 6
	add	a7,a3,a7
.LVL5:
	.loc 1 608 2 is_stmt 1
	.loc 1 609 6 is_stmt 0
	li	s1,3
.LVL6:
	addi	t3,t3,-1
	li	s2,105
	addi	t4,t4,%lo(.L9)
.LBB58:
.LBB54:
	.loc 1 579 6
	li	a0,2
.LBB52:
.LBB50:
	.loc 1 102 2
	addi	t5,t5,1834
	.loc 1 112 5
	li	s3,1024
	.loc 1 118 5
	li	t6,9
	li	t2,4
	addi	t0,t0,%lo(.L71)
.LBB36:
.LBB37:
.LBB38:
.LBB39:
	.loc 1 54 6
	li	a2,1
.LBE39:
.LBE38:
.LBE37:
.LBE36:
.LBE50:
.LBE52:
	.loc 1 565 6
	li	s4,128
	.loc 1 550 6
	li	t1,8
	.loc 1 439 6
	li	s5,6
	.loc 1 391 6
	li	a6,16
.L3:
.LBE54:
.LBE58:
	.loc 1 608 8 is_stmt 1
	bltu	a3,a7,.L77
	.loc 1 673 9 is_stmt 0
	li	a0,0
	j	.L1
.L77:
	.loc 1 609 3 is_stmt 1
	.loc 1 609 11 is_stmt 0
	sub	a5,a7,a3
	.loc 1 609 6
	bgt	a5,s1,.L4
.LVL7:
.L6:
	.loc 1 613 11
	li	a0,-1
.L1:
	.loc 1 674 1
	lw	ra,44(sp)
	.cfi_remember_state
	.cfi_restore 1
	lw	s0,40(sp)
	.cfi_restore 8
.LVL8:
	lw	s1,36(sp)
	.cfi_restore 9
	lw	s2,32(sp)
	.cfi_restore 18
	lw	s3,28(sp)
	.cfi_restore 19
	lw	s4,24(sp)
	.cfi_restore 20
	lw	s5,20(sp)
	.cfi_restore 21
	lw	s6,16(sp)
	.cfi_restore 22
	lw	s7,12(sp)
	.cfi_restore 23
	lw	s8,8(sp)
	.cfi_restore 24
	addi	sp,sp,48
	.cfi_def_cfa_offset 0
	jr	ra
.LVL9:
.L4:
	.cfi_restore_state
	.loc 1 616 3 is_stmt 1
	.file 3 "/mnt/d/GitHub/bl_iot_sdk_for_aithinker/components/security/wpa_supplicant/src/utils/common.h"
	.loc 3 127 2
	lbu	a5,1(a3)
	lbu	a1,0(a3)
	lbu	a4,3(a3)
	slli	a5,a5,8
	or	a5,a5,a1
	slli	a1,a5,8
	srli	a5,a5,8
	or	a1,a1,a5
	lbu	a5,2(a3)
	slli	a4,a4,8
	slli	a1,a1,16
	or	a4,a4,a5
	slli	a5,a4,8
	srli	a4,a4,8
	or	a4,a5,a4
	slli	a5,a4,16
	.loc 1 619 7 is_stmt 0
	addi	a4,a3,4
	srli	a5,a5,16
	.loc 1 622 17
	sub	s6,a7,a4
	srli	a1,a1,16
.LVL10:
	.loc 1 617 3 is_stmt 1
	.loc 1 618 3
	.loc 3 127 2
	.loc 1 619 3
	.loc 1 620 3
	.loc 1 620 7
	.loc 1 620 14
	.loc 1 622 3
	.loc 1 622 6 is_stmt 0
	bgt	a5,s6,.L6
	.loc 1 664 3 is_stmt 1
.LVL11:
.LBB59:
.LBB55:
	.loc 1 165 2
	.loc 1 167 2
.LBE55:
.LBE59:
	.loc 1 133 2
	.loc 1 135 2
.LBB60:
.LBB56:
	.loc 1 169 2
	add	a1,a1,t3
	slli	a1,a1,16
	srli	a1,a1,16
	bgtu	a1,s2,.L7
	slli	a1,a1,2
	add	a1,a1,t4
	lw	a1,0(a1)
	jr	a1
	.section	.rodata.wps_parse_msg,"a",@progbits
	.align	2
	.align	2
.L9:
	.word	.L64
	.word	.L63
	.word	.L62
	.word	.L61
	.word	.L60
	.word	.L7
	.word	.L7
	.word	.L59
	.word	.L58
	.word	.L7
	.word	.L7
	.word	.L7
	.word	.L57
	.word	.L56
	.word	.L55
	.word	.L54
	.word	.L53
	.word	.L52
	.word	.L7
	.word	.L51
	.word	.L50
	.word	.L49
	.word	.L48
	.word	.L47
	.word	.L7
	.word	.L46
	.word	.L7
	.word	.L7
	.word	.L7
	.word	.L45
	.word	.L7
	.word	.L44
	.word	.L43
	.word	.L42
	.word	.L41
	.word	.L40
	.word	.L7
	.word	.L39
	.word	.L38
	.word	.L37
	.word	.L7
	.word	.L7
	.word	.L7
	.word	.L36
	.word	.L35
	.word	.L7
	.word	.L7
	.word	.L7
	.word	.L7
	.word	.L34
	.word	.L7
	.word	.L7
	.word	.L7
	.word	.L7
	.word	.L7
	.word	.L7
	.word	.L33
	.word	.L32
	.word	.L31
	.word	.L30
	.word	.L29
	.word	.L28
	.word	.L27
	.word	.L26
	.word	.L25
	.word	.L24
	.word	.L7
	.word	.L23
	.word	.L22
	.word	.L7
	.word	.L21
	.word	.L20
	.word	.L19
	.word	.L18
	.word	.L7
	.word	.L7
	.word	.L17
	.word	.L7
	.word	.L7
	.word	.L7
	.word	.L7
	.word	.L7
	.word	.L16
	.word	.L15
	.word	.L14
	.word	.L7
	.word	.L13
	.word	.L7
	.word	.L12
	.word	.L7
	.word	.L7
	.word	.L7
	.word	.L7
	.word	.L7
	.word	.L7
	.word	.L7
	.word	.L11
	.word	.L10
	.word	.L7
	.word	.L7
	.word	.L7
	.word	.L7
	.word	.L7
	.word	.L7
	.word	.L7
	.word	.L8
	.section	.text.wps_parse_msg
.L18:
	.loc 1 171 3
	.loc 1 171 6 is_stmt 0
	bne	a5,a2,.L6
	.loc 1 176 3 is_stmt 1
	.loc 1 176 17 is_stmt 0
	sw	a4,0(s0)
.LVL12:
	.loc 1 177 3 is_stmt 1
.L7:
.LBE56:
.LBE60:
	.loc 1 670 3
	.loc 1 670 7 is_stmt 0
	add	a3,a4,a5
.LVL13:
	j	.L3
.LVL14:
.L42:
.LBB61:
.LBB57:
	.loc 1 179 3 is_stmt 1
	.loc 1 179 6 is_stmt 0
	bne	a5,a2,.L6
	.loc 1 184 3 is_stmt 1
	.loc 1 184 18 is_stmt 0
	sw	a4,8(s0)
.LVL15:
	.loc 1 185 3 is_stmt 1
	j	.L7
.LVL16:
.L46:
	.loc 1 187 3
	.loc 1 187 6 is_stmt 0
	bne	a5,a6,.L6
	.loc 1 192 3 is_stmt 1
	.loc 1 192 24 is_stmt 0
	sw	a4,12(s0)
.LVL17:
	.loc 1 193 3 is_stmt 1
	j	.L7
.LVL18:
.L33:
	.loc 1 195 3
	.loc 1 195 6 is_stmt 0
	bne	a5,a6,.L6
	.loc 1 200 3 is_stmt 1
	.loc 1 200 25 is_stmt 0
	sw	a4,16(s0)
.LVL19:
	.loc 1 201 3 is_stmt 1
	j	.L7
.LVL20:
.L21:
	.loc 1 203 3
	.loc 1 203 6 is_stmt 0
	bne	a5,a6,.L6
	.loc 1 208 3 is_stmt 1
	.loc 1 208 16 is_stmt 0
	sw	a4,24(s0)
.LVL21:
	.loc 1 209 3 is_stmt 1
	j	.L7
.LVL22:
.L20:
	.loc 1 211 3
	.loc 1 211 6 is_stmt 0
	bne	a5,a6,.L6
	.loc 1 216 3 is_stmt 1
	.loc 1 216 16 is_stmt 0
	sw	a4,20(s0)
.LVL23:
	.loc 1 217 3 is_stmt 1
	j	.L7
.LVL24:
.L61:
	.loc 1 219 3
	.loc 1 219 6 is_stmt 0
	bne	a5,a0,.L6
	.loc 1 224 3 is_stmt 1
	.loc 1 224 25 is_stmt 0
	sw	a4,28(s0)
.LVL25:
	.loc 1 225 3 is_stmt 1
	j	.L7
.LVL26:
.L54:
	.loc 1 227 3
	.loc 1 227 6 is_stmt 0
	bne	a5,a0,.L6
	.loc 1 232 3 is_stmt 1
	.loc 1 232 25 is_stmt 0
	sw	a4,32(s0)
.LVL27:
	.loc 1 233 3 is_stmt 1
	j	.L7
.LVL28:
.L57:
	.loc 1 235 3
	.loc 1 235 6 is_stmt 0
	bne	a5,a2,.L6
	.loc 1 240 3 is_stmt 1
	.loc 1 240 25 is_stmt 0
	sw	a4,36(s0)
.LVL29:
	.loc 1 241 3 is_stmt 1
	j	.L7
.LVL30:
.L59:
	.loc 1 243 3
	.loc 1 243 6 is_stmt 0
	bne	a5,a0,.L6
	.loc 1 248 3 is_stmt 1
	.loc 1 248 24 is_stmt 0
	sw	a4,40(s0)
.LVL31:
	.loc 1 249 3 is_stmt 1
	j	.L7
.LVL32:
.L16:
	.loc 1 251 3
	.loc 1 251 6 is_stmt 0
	bne	a5,a0,.L6
	.loc 1 256 3 is_stmt 1
	.loc 1 256 32 is_stmt 0
	sw	a4,44(s0)
.LVL33:
	.loc 1 257 3 is_stmt 1
	j	.L7
.LVL34:
.L15:
	.loc 1 259 3
	.loc 1 259 6 is_stmt 0
	bne	a5,t1,.L6
	.loc 1 264 3 is_stmt 1
	.loc 1 264 26 is_stmt 0
	sw	a4,48(s0)
.LVL35:
	.loc 1 265 3 is_stmt 1
	j	.L7
.LVL36:
.L30:
	.loc 1 267 3
	.loc 1 267 6 is_stmt 0
	bne	a5,a2,.L6
	.loc 1 272 3 is_stmt 1
	.loc 1 272 18 is_stmt 0
	sw	a4,52(s0)
.LVL37:
	.loc 1 273 3 is_stmt 1
	j	.L7
.LVL38:
.L63:
	.loc 1 275 3
	.loc 1 275 6 is_stmt 0
	bne	a5,a0,.L6
	.loc 1 280 3 is_stmt 1
	.loc 1 280 21 is_stmt 0
	sw	a4,56(s0)
.LVL39:
	.loc 1 281 3 is_stmt 1
	j	.L7
.LVL40:
.L58:
	.loc 1 283 3
	.loc 1 283 6 is_stmt 0
	bne	a5,a0,.L6
	.loc 1 288 3 is_stmt 1
	.loc 1 288 22 is_stmt 0
	sw	a4,60(s0)
.LVL41:
	.loc 1 289 3 is_stmt 1
	j	.L7
.LVL42:
.L52:
	.loc 1 291 3
	.loc 1 291 6 is_stmt 0
	bne	a5,a0,.L6
	.loc 1 296 3 is_stmt 1
	.loc 1 296 25 is_stmt 0
	sw	a4,64(s0)
.LVL43:
	.loc 1 297 3 is_stmt 1
	j	.L7
.LVL44:
.L36:
	.loc 1 299 3
	.loc 1 300 10 is_stmt 0
	addi	a3,a5,-38
.LVL45:
	.loc 1 299 6
	slli	a3,a3,16
	srli	a3,a3,16
	bgtu	a3,a6,.L6
	.loc 1 307 3 is_stmt 1
	.loc 1 307 26 is_stmt 0
	sw	a4,280(s0)
.LVL46:
	.loc 1 308 3 is_stmt 1
	.loc 1 308 30 is_stmt 0
	sw	a5,284(s0)
	.loc 1 309 3 is_stmt 1
	j	.L7
.LVL47:
.L35:
	.loc 1 311 3
	.loc 1 311 6 is_stmt 0
	bne	a5,t2,.L6
	.loc 1 316 3 is_stmt 1
	.loc 1 316 20 is_stmt 0
	sw	a4,68(s0)
.LVL48:
	.loc 1 317 3 is_stmt 1
	j	.L7
.LVL49:
.L23:
	.loc 1 319 3
	.loc 1 319 6 is_stmt 0
	bne	a5,a2,.L6
	.loc 1 324 3 is_stmt 1
	.loc 1 324 19 is_stmt 0
	sw	a4,72(s0)
.LVL50:
	.loc 1 325 3 is_stmt 1
	j	.L7
.LVL51:
.L60:
	.loc 1 327 3
	.loc 1 327 6 is_stmt 0
	bne	a5,t1,.L6
	.loc 1 332 3 is_stmt 1
	.loc 1 332 23 is_stmt 0
	sw	a4,76(s0)
.LVL52:
	.loc 1 333 3 is_stmt 1
	j	.L7
.LVL53:
.L29:
	.loc 1 335 3
	.loc 1 335 6 is_stmt 0
	li	a3,32
.LVL54:
	bne	a5,a3,.L6
	.loc 1 340 3 is_stmt 1
	.loc 1 340 17 is_stmt 0
	sw	a4,80(s0)
.LVL55:
	.loc 1 341 3 is_stmt 1
	j	.L7
.LVL56:
.L28:
	.loc 1 343 3
	.loc 1 343 6 is_stmt 0
	li	a3,32
.LVL57:
	bne	a5,a3,.L6
	.loc 1 348 3 is_stmt 1
	.loc 1 348 17 is_stmt 0
	sw	a4,84(s0)
.LVL58:
	.loc 1 349 3 is_stmt 1
	j	.L7
.LVL59:
.L51:
	.loc 1 351 3
	.loc 1 351 6 is_stmt 0
	li	a3,32
.LVL60:
	bne	a5,a3,.L6
	.loc 1 356 3 is_stmt 1
	.loc 1 356 17 is_stmt 0
	sw	a4,88(s0)
.LVL61:
	.loc 1 357 3 is_stmt 1
	j	.L7
.LVL62:
.L50:
	.loc 1 359 3
	.loc 1 359 6 is_stmt 0
	li	a3,32
.LVL63:
	bne	a5,a3,.L6
	.loc 1 364 3 is_stmt 1
	.loc 1 364 17 is_stmt 0
	sw	a4,92(s0)
.LVL64:
	.loc 1 365 3 is_stmt 1
	j	.L7
.LVL65:
.L27:
	.loc 1 367 3
	.loc 1 367 6 is_stmt 0
	bne	a5,a6,.L6
	.loc 1 372 3 is_stmt 1
	.loc 1 372 19 is_stmt 0
	sw	a4,96(s0)
.LVL66:
	.loc 1 373 3 is_stmt 1
	j	.L7
.LVL67:
.L26:
	.loc 1 375 3
	.loc 1 375 6 is_stmt 0
	bne	a5,a6,.L6
	.loc 1 380 3 is_stmt 1
	.loc 1 380 19 is_stmt 0
	sw	a4,100(s0)
.LVL68:
	.loc 1 381 3 is_stmt 1
	j	.L7
.LVL69:
.L49:
	.loc 1 383 3
	.loc 1 383 6 is_stmt 0
	bne	a5,a6,.L6
	.loc 1 388 3 is_stmt 1
	.loc 1 388 19 is_stmt 0
	sw	a4,104(s0)
.LVL70:
	.loc 1 389 3 is_stmt 1
	j	.L7
.LVL71:
.L48:
	.loc 1 391 3
	.loc 1 391 6 is_stmt 0
	bne	a5,a6,.L6
	.loc 1 396 3 is_stmt 1
	.loc 1 396 19 is_stmt 0
	sw	a4,108(s0)
.LVL72:
	.loc 1 397 3 is_stmt 1
	j	.L7
.LVL73:
.L45:
	.loc 1 399 3
	.loc 1 399 6 is_stmt 0
	bne	a5,t1,.L6
	.loc 1 404 3 is_stmt 1
	.loc 1 404 23 is_stmt 0
	sw	a4,112(s0)
.LVL74:
	.loc 1 405 3 is_stmt 1
	j	.L7
.LVL75:
.L62:
	.loc 1 407 3
	.loc 1 407 6 is_stmt 0
	bne	a5,a0,.L6
	.loc 1 412 3 is_stmt 1
	.loc 1 412 19 is_stmt 0
	sw	a4,116(s0)
.LVL76:
	.loc 1 413 3 is_stmt 1
	j	.L7
.LVL77:
.L55:
	.loc 1 415 3
	.loc 1 415 6 is_stmt 0
	bne	a5,a0,.L6
	.loc 1 420 3 is_stmt 1
	.loc 1 420 19 is_stmt 0
	sw	a4,120(s0)
.LVL78:
	.loc 1 421 3 is_stmt 1
	j	.L7
.LVL79:
.L39:
	.loc 1 423 3
	.loc 1 423 6 is_stmt 0
	bne	a5,a2,.L6
	.loc 1 428 3 is_stmt 1
	.loc 1 428 21 is_stmt 0
	sw	a4,124(s0)
.LVL80:
	.loc 1 429 3 is_stmt 1
	j	.L7
.LVL81:
.L37:
	.loc 1 431 3
	.loc 1 431 6 is_stmt 0
	bne	a5,a2,.L6
	.loc 1 436 3 is_stmt 1
	.loc 1 436 25 is_stmt 0
	sw	a4,128(s0)
.LVL82:
	.loc 1 437 3 is_stmt 1
	j	.L7
.LVL83:
.L44:
	.loc 1 439 3
	.loc 1 439 6 is_stmt 0
	bne	a5,s5,.L6
	.loc 1 444 3 is_stmt 1
	.loc 1 444 18 is_stmt 0
	sw	a4,132(s0)
.LVL84:
	.loc 1 445 3 is_stmt 1
	j	.L7
.LVL85:
.L11:
	.loc 1 447 3
	.loc 1 447 6 is_stmt 0
	bne	a5,a2,.L6
	.loc 1 452 3 is_stmt 1
	.loc 1 452 23 is_stmt 0
	sw	a4,136(s0)
.LVL86:
	.loc 1 453 3 is_stmt 1
	j	.L7
.LVL87:
.L10:
	.loc 1 455 3
	.loc 1 455 6 is_stmt 0
	bne	a5,a2,.L6
	.loc 1 460 3 is_stmt 1
	.loc 1 460 23 is_stmt 0
	sw	a4,140(s0)
.LVL88:
	.loc 1 461 3 is_stmt 1
	j	.L7
.LVL89:
.L25:
	.loc 1 463 3
	.loc 1 463 6 is_stmt 0
	bne	a5,a2,.L6
	.loc 1 468 3 is_stmt 1
	.loc 1 468 28 is_stmt 0
	sw	a4,144(s0)
.LVL90:
	.loc 1 469 3 is_stmt 1
	j	.L7
.LVL91:
.L32:
	.loc 1 471 3
	.loc 1 471 6 is_stmt 0
	bne	a5,a2,.L6
	.loc 1 476 3 is_stmt 1
	.loc 1 476 22 is_stmt 0
	sw	a4,148(s0)
.LVL92:
	.loc 1 477 3 is_stmt 1
	j	.L7
.LVL93:
.L31:
	.loc 1 479 3
	.loc 1 479 6 is_stmt 0
	bne	a5,a2,.L6
	.loc 1 484 3 is_stmt 1
	.loc 1 484 23 is_stmt 0
	sw	a4,152(s0)
.LVL94:
	.loc 1 485 3 is_stmt 1
	j	.L7
.LVL95:
.L43:
	.loc 1 487 3
	.loc 1 487 22 is_stmt 0
	sw	a4,176(s0)
.LVL96:
	.loc 1 488 3 is_stmt 1
	.loc 1 488 26 is_stmt 0
	sw	a5,180(s0)
	.loc 1 489 3 is_stmt 1
	j	.L7
.LVL97:
.L41:
	.loc 1 491 3
	.loc 1 491 20 is_stmt 0
	sw	a4,184(s0)
.LVL98:
	.loc 1 492 3 is_stmt 1
	.loc 1 492 24 is_stmt 0
	sw	a5,188(s0)
	.loc 1 493 3 is_stmt 1
	j	.L7
.LVL99:
.L40:
	.loc 1 495 3
	.loc 1 495 22 is_stmt 0
	sw	a4,192(s0)
.LVL100:
	.loc 1 496 3 is_stmt 1
	.loc 1 496 26 is_stmt 0
	sw	a5,196(s0)
	.loc 1 497 3 is_stmt 1
	j	.L7
.LVL101:
.L24:
	.loc 1 499 3
	.loc 1 499 23 is_stmt 0
	sw	a4,200(s0)
.LVL102:
	.loc 1 500 3 is_stmt 1
	.loc 1 500 27 is_stmt 0
	sw	a5,204(s0)
	.loc 1 501 3 is_stmt 1
	j	.L7
.LVL103:
.L53:
	.loc 1 503 3
	.loc 1 503 18 is_stmt 0
	sw	a4,208(s0)
.LVL104:
	.loc 1 504 3 is_stmt 1
	.loc 1 504 22 is_stmt 0
	sw	a5,212(s0)
	.loc 1 505 3 is_stmt 1
	j	.L7
.LVL105:
.L34:
	.loc 1 507 3
	.loc 1 507 20 is_stmt 0
	sw	a4,216(s0)
.LVL106:
	.loc 1 508 3 is_stmt 1
	.loc 1 508 24 is_stmt 0
	sw	a5,220(s0)
	.loc 1 509 3 is_stmt 1
	j	.L7
.LVL107:
.L47:
	.loc 1 511 3
	.loc 1 511 23 is_stmt 0
	sw	a4,224(s0)
.LVL108:
	.loc 1 512 3 is_stmt 1
	.loc 1 512 27 is_stmt 0
	sw	a5,228(s0)
	.loc 1 513 3 is_stmt 1
	j	.L7
.LVL109:
.L56:
	.loc 1 515 3
	.loc 1 515 11 is_stmt 0
	lw	a3,368(s0)
.LVL110:
	.loc 1 515 6
	bgtu	a3,t6,.L7
	.loc 1 521 3 is_stmt 1
	slli	a1,a3,2
	add	a1,s0,a1
	.loc 1 521 30 is_stmt 0
	sw	a4,288(a1)
.LVL111:
	.loc 1 522 3 is_stmt 1
	.loc 1 308 30 is_stmt 0
	sw	a5,328(a1)
	.loc 1 523 3 is_stmt 1
	.loc 1 523 17 is_stmt 0
	addi	a3,a3,1
	sw	a3,368(s0)
	.loc 1 524 3 is_stmt 1
	j	.L7
.LVL112:
.L22:
	.loc 1 526 3
	.loc 1 526 14 is_stmt 0
	sw	a4,232(s0)
.LVL113:
	.loc 1 527 3 is_stmt 1
	.loc 1 527 18 is_stmt 0
	sw	a5,236(s0)
	.loc 1 528 3 is_stmt 1
	j	.L7
.LVL114:
.L38:
	.loc 1 530 3
	.loc 1 530 21 is_stmt 0
	sw	a4,240(s0)
.LVL115:
	.loc 1 531 3 is_stmt 1
	.loc 1 531 25 is_stmt 0
	sw	a5,244(s0)
	.loc 1 532 3 is_stmt 1
	j	.L7
.LVL116:
.L12:
	.loc 1 534 3
	.loc 1 534 18 is_stmt 0
	sw	a4,248(s0)
.LVL117:
	.loc 1 535 3 is_stmt 1
	.loc 1 535 22 is_stmt 0
	sw	a5,252(s0)
	.loc 1 536 3 is_stmt 1
	j	.L7
.LVL118:
.L17:
	.loc 1 538 3
	.loc 1 538 22 is_stmt 0
	sw	a4,256(s0)
.LVL119:
	.loc 1 539 3 is_stmt 1
	.loc 1 539 26 is_stmt 0
	sw	a5,260(s0)
	.loc 1 540 3 is_stmt 1
	j	.L7
.LVL120:
.L13:
	.loc 1 542 3
	.loc 1 542 6 is_stmt 0
	bne	a5,a2,.L6
	.loc 1 547 3 is_stmt 1
	.loc 1 547 25 is_stmt 0
	sw	a4,156(s0)
.LVL121:
	.loc 1 548 3 is_stmt 1
	j	.L7
.LVL122:
.L8:
	.loc 1 550 3
	.loc 1 550 6 is_stmt 0
	bne	a5,t1,.L6
	.loc 1 555 3 is_stmt 1
	.loc 1 555 11 is_stmt 0
	lw	a3,412(s0)
.LVL123:
	.loc 1 555 6
	bgtu	a3,t6,.L7
	.loc 1 561 3 is_stmt 1
	.loc 1 561 46 is_stmt 0
	addi	a1,a3,92
	slli	a1,a1,2
	add	a1,s0,a1
	sw	a4,4(a1)
.LVL124:
	.loc 1 562 3 is_stmt 1
	.loc 1 562 25 is_stmt 0
	addi	a3,a3,1
	sw	a3,412(s0)
	.loc 1 563 3 is_stmt 1
	j	.L7
.LVL125:
.L14:
	.loc 1 565 3
	.loc 1 565 6 is_stmt 0
	bgtu	a5,s4,.L6
	.loc 1 565 17
	andi	a3,a5,7
.LVL126:
	bne	a3,zero,.L6
	.loc 1 571 3 is_stmt 1
	.loc 1 571 27 is_stmt 0
	sw	a4,272(s0)
.LVL127:
	.loc 1 572 3 is_stmt 1
	.loc 1 572 31 is_stmt 0
	sw	a5,276(s0)
	.loc 1 573 3 is_stmt 1
	j	.L7
.LVL128:
.L19:
	.loc 1 575 3
.LBB53:
.LBB51:
	.loc 1 94 2
	.loc 1 96 2
	.loc 1 96 5 is_stmt 0
	bleu	a5,a0,.L7
	.loc 1 101 2 is_stmt 1
.LVL129:
.LBB44:
.LBB45:
	.loc 3 149 2
.LBE45:
.LBE44:
	.loc 1 102 2
.LBB47:
.LBB46:
	.loc 3 149 11 is_stmt 0
	lbu	a1,4(a3)
	.loc 3 149 26
	lbu	s6,5(a3)
	.loc 3 149 15
	slli	a1,a1,16
	.loc 3 149 30
	slli	s6,s6,8
	.loc 3 149 22
	or	a1,a1,s6
	.loc 3 149 39
	lbu	s6,6(a3)
	.loc 3 149 36
	or	a1,a1,s6
.LBE46:
.LBE47:
	.loc 1 102 2
	bne	a1,t5,.L67
	.loc 1 104 3 is_stmt 1
	.loc 1 104 10 is_stmt 0
	addi	s6,a5,-3
.LBB48:
.LBB42:
	.loc 1 74 22
	slli	s6,s6,16
.LBE42:
.LBE48:
	.loc 1 104 10
	addi	a3,a3,7
.LVL130:
.LBB49:
.LBB43:
	.loc 1 74 2 is_stmt 1
	.loc 1 74 22 is_stmt 0
	srli	s6,s6,16
	.loc 1 74 12
	add	s6,a3,s6
.LVL131:
	.loc 1 75 2 is_stmt 1
	.loc 1 77 2
.L68:
	.loc 1 77 8
	.loc 1 77 13 is_stmt 0
	addi	a1,a3,2
	.loc 1 77 8
	bleu	s6,a1,.L7
	.loc 1 78 3 is_stmt 1
.LVL132:
	.loc 1 79 8 is_stmt 0
	lbu	s7,1(a3)
	.loc 1 78 6
	lbu	s8,0(a3)
.LVL133:
	.loc 1 79 3 is_stmt 1
	.loc 1 80 3
	.loc 1 80 11 is_stmt 0
	add	a3,a1,s7
	.loc 1 80 6
	bltu	s6,a3,.L7
	.loc 1 82 3 is_stmt 1
.LVL134:
.LBB41:
.LBB40:
	.loc 1 22 2
	.loc 1 22 6
	.loc 1 22 13
	.loc 1 24 2
	bgtu	s8,t2,.L68
	slli	s8,s8,2
.LVL135:
	add	s8,s8,t0
	lw	s8,0(s8)
	jr	s8
	.section	.rodata.wps_parse_msg
	.align	2
	.align	2
.L71:
	.word	.L75
	.word	.L74
	.word	.L73
	.word	.L72
	.word	.L70
	.section	.text.wps_parse_msg
.L75:
	.loc 1 26 3
	.loc 1 26 6 is_stmt 0
	bne	s7,a2,.L6
	.loc 1 31 3 is_stmt 1
	.loc 1 31 18 is_stmt 0
	sw	a1,4(s0)
.LVL136:
	.loc 1 32 3 is_stmt 1
	j	.L68
.LVL137:
.L74:
	.loc 1 34 3
	.loc 1 34 25 is_stmt 0
	sw	a1,264(s0)
.LVL138:
	.loc 1 35 3 is_stmt 1
	.loc 1 35 29 is_stmt 0
	sw	s7,268(s0)
	.loc 1 36 3 is_stmt 1
.LVL139:
	j	.L68
.LVL140:
.L73:
	.loc 1 38 3
	.loc 1 38 6 is_stmt 0
	bne	s7,a2,.L6
	.loc 1 43 3 is_stmt 1
	.loc 1 43 31 is_stmt 0
	sw	a1,164(s0)
.LVL141:
	.loc 1 44 3 is_stmt 1
	j	.L68
.LVL142:
.L72:
	.loc 1 46 3
	.loc 1 46 6 is_stmt 0
	bne	s7,a2,.L6
	.loc 1 51 3 is_stmt 1
	.loc 1 51 27 is_stmt 0
	sw	a1,168(s0)
.LVL143:
	.loc 1 52 3 is_stmt 1
	j	.L68
.LVL144:
.L70:
	.loc 1 54 3
	.loc 1 54 6 is_stmt 0
	bne	s7,a2,.L6
	.loc 1 59 3 is_stmt 1
	.loc 1 59 29 is_stmt 0
	sw	a1,160(s0)
.LVL145:
	.loc 1 60 3 is_stmt 1
	j	.L68
.LVL146:
.L67:
.LBE40:
.LBE41:
.LBE43:
.LBE49:
	.loc 1 109 2
	.loc 1 109 6
	.loc 1 109 13
	.loc 1 112 2
	.loc 1 112 5 is_stmt 0
	bgtu	a5,s3,.L6
	.loc 1 118 2 is_stmt 1
	.loc 1 118 10 is_stmt 0
	lw	a3,496(s0)
.LVL147:
	.loc 1 118 5
	bgtu	a3,t6,.L6
	.loc 1 124 2 is_stmt 1
	slli	a1,a3,2
	add	a1,s0,a1
	.loc 1 124 41 is_stmt 0
	sw	a4,416(a1)
.LVL148:
	.loc 1 125 2 is_stmt 1
	.loc 1 125 45 is_stmt 0
	sw	a5,456(a1)
	.loc 1 126 2 is_stmt 1
	.loc 1 126 22 is_stmt 0
	addi	a3,a3,1
	sw	a3,496(s0)
	.loc 1 128 2 is_stmt 1
.LVL149:
	j	.L7
.LVL150:
.L64:
.LBE51:
.LBE53:
	.loc 1 579 3
	.loc 1 579 6 is_stmt 0
	bne	a5,a0,.L6
	.loc 1 584 3 is_stmt 1
	.loc 1 584 20 is_stmt 0
	sw	a4,172(s0)
.LVL151:
	.loc 1 585 3 is_stmt 1
	j	.L7
.LBE57:
.LBE61:
	.cfi_endproc
.LFE74:
	.size	wps_parse_msg, .-wps_parse_msg
	.text
.Letext0:
	.file 4 "/mnt/d/GitHub/bl_iot_sdk_for_aithinker/toolchain/riscv/Linux/lib/gcc/riscv64-unknown-elf/10.2.0/include/stddef.h"
	.file 5 "/mnt/d/GitHub/bl_iot_sdk_for_aithinker/toolchain/riscv/Linux/riscv64-unknown-elf/include/machine/_default_types.h"
	.file 6 "/mnt/d/GitHub/bl_iot_sdk_for_aithinker/toolchain/riscv/Linux/riscv64-unknown-elf/include/sys/_stdint.h"
	.file 7 "/mnt/d/GitHub/bl_iot_sdk_for_aithinker/components/security/wpa_supplicant/src/wps/wps_attr_parse.h"
	.file 8 "/mnt/d/GitHub/bl_iot_sdk_for_aithinker/components/security/wpa_supplicant/src/wps/wps_defs.h"
	.file 9 "/mnt/d/GitHub/bl_iot_sdk_for_aithinker/toolchain/riscv/Linux/riscv64-unknown-elf/include/string.h"