	.file	"ethernetif.c"
	.option nopic
	.attribute arch, "rv32i2p0_m2p0_f2p0_c2p0"
	.attribute unaligned_access, 0
	.attribute stack_align, 16
	.text
.Ltext0:
	.cfi_sections	.debug_frame
	.section	.rodata.low_level_output.str1.4,"aMS",@progbits,1
	.align	2
.LC0:
	.string	"---------------Sending packet(%d)\r\n"
	.section	.text.low_level_output,"ax",@progbits
	.align	1
	.type	low_level_output, @function
low_level_output:
.LFB6:
	.file 1 "/mnt/d/GitHub/bl_iot_sdk_for_aithinker/components/network/lwip/lwip-port/FreeRTOS/ethernetif.c"
	.loc 1 159 1
	.cfi_startproc
.LVL0:
	.loc 1 160 3
	.loc 1 162 3
	.loc 1 159 1 is_stmt 0
	addi	sp,sp,-16
	.cfi_def_cfa_offset 16
	.loc 1 162 3
	lui	a5,%hi(.LANCHOR0)
	.loc 1 159 1
	sw	ra,12(sp)
	.cfi_offset 1, -4
	.loc 1 162 3
	addi	a5,a5,%lo(.LANCHOR0)
	lw	a1,0(a5)
.LVL1:
	lui	a0,%hi(.LC0)
.LVL2:
	addi	a0,a0,%lo(.LC0)
	addi	a4,a1,1
	sw	a4,0(a5)
	call	printf
.LVL3:
	.loc 1 163 3 is_stmt 1
	.loc 1 164 1 is_stmt 0
	lw	ra,12(sp)
	.cfi_restore 1
	li	a0,0
	addi	sp,sp,16
	.cfi_def_cfa_offset 0
	jr	ra
	.cfi_endproc
.LFE6:
	.size	low_level_output, .-low_level_output
	.section	.rodata.ethernetif_init.str1.4,"aMS",@progbits,1
	.align	2
.LC1:
	.string	"lwip"
	.section	.text.ethernetif_init,"ax",@progbits
	.align	1
	.globl	ethernetif_init
	.type	ethernetif_init, @function
ethernetif_init:
.LFB7:
	.loc 1 179 1 is_stmt 1
	.cfi_startproc
.LVL4:
	.loc 1 180 3
	.loc 1 180 8
	.loc 1 180 8
	.loc 1 180 18
	.loc 1 184 3
	.loc 1 184 19 is_stmt 0
	lui	a5,%hi(.LC1)
	addi	a5,a5,%lo(.LC1)
	sw	a5,52(a0)
	.loc 1 187 3 is_stmt 1
	.loc 1 188 3
	.loc 1 190 3
	.loc 1 190 17 is_stmt 0
	lui	a5,%hi(etharp_output)
	addi	a5,a5,%lo(etharp_output)
	sw	a5,20(a0)
	.loc 1 191 3 is_stmt 1
	.loc 1 191 21 is_stmt 0
	lui	a5,%hi(low_level_output)
	addi	a5,a5,%lo(low_level_output)
	sw	a5,24(a0)
	.loc 1 194 3 is_stmt 1
.LVL5:
.LBB4:
.LBB5:
	.loc 1 80 3
	.loc 1 83 3
	.loc 1 84 3
	.loc 1 85 3
	.loc 1 86 3
	.loc 1 87 3
	.loc 1 88 3
	.loc 1 91 3
	.loc 1 94 3
	.loc 1 91 14 is_stmt 0
	li	a5,1342177280
	addi	a5,a5,1500
	sw	a5,56(a0)
	.loc 1 85 20
	li	a5,16830464
	addi	a5,a5,-1725
	sw	a5,60(a0)
	.loc 1 80 21
	li	a5,1953697792
	addi	a5,a5,-1530
	sw	a5,64(a0)
.LVL6:
.LBE5:
.LBE4:
	.loc 1 195 3 is_stmt 1
	.loc 1 196 1 is_stmt 0
	li	a0,0
.LVL7:
	ret
	.cfi_endproc
.LFE7:
	.size	ethernetif_init, .-ethernetif_init
	.section	.text.set_if,"ax",@progbits
	.align	1
	.globl	set_if
	.type	set_if, @function
set_if:
.LFB8:
	.loc 1 199 1 is_stmt 1
	.cfi_startproc
.LVL8:
	.loc 1 200 5
	.loc 1 201 5
	.loc 1 203 5
	.loc 1 199 1 is_stmt 0
	addi	sp,sp,-32
	.cfi_def_cfa_offset 32
.LVL9:
	.loc 1 206 5 is_stmt 1
	.loc 1 199 1 is_stmt 0
	sw	s0,24(sp)
	sw	s1,20(sp)
	sw	s2,16(sp)
	sw	ra,28(sp)
	.cfi_offset 8, -8
	.cfi_offset 9, -12
	.cfi_offset 18, -16
	.cfi_offset 1, -4
	.loc 1 199 1
	mv	s0,a0
	mv	s2,a2
	mv	s1,a3
	.loc 1 206 8
	beq	a1,zero,.L6
	mv	a0,a1
.LVL10:
	.loc 1 206 29 discriminator 1
	addi	a1,sp,12
.LVL11:
	call	ip4addr_aton
.LVL12:
	.loc 1 206 26 discriminator 1
	beq	a0,zero,.L6
	.loc 1 207 9 is_stmt 1
	addi	a1,sp,12
.LVL13:
	mv	a0,s0
	call	netif_set_ipaddr
.LVL14:
.L6:
	.loc 1 211 5
	.loc 1 211 8 is_stmt 0
	beq	s2,zero,.L9
	.loc 1 211 29 discriminator 1
	addi	a1,sp,12
.LVL15:
	mv	a0,s2
	call	ip4addr_aton
.LVL16:
	.loc 1 211 26 discriminator 1
	beq	a0,zero,.L9
	.loc 1 212 9 is_stmt 1
	addi	a1,sp,12
.LVL17:
	mv	a0,s0
	call	netif_set_gw
.LVL18:
.L9:
	.loc 1 216 5
	.loc 1 216 8 is_stmt 0
	beq	s1,zero,.L4
	.loc 1 216 29 discriminator 1
	addi	a1,sp,12
.LVL19:
	mv	a0,s1
	call	ip4addr_aton
.LVL20:
	.loc 1 216 26 discriminator 1
	beq	a0,zero,.L4
	.loc 1 217 9 is_stmt 1
	addi	a1,sp,12
.LVL21:
	mv	a0,s0
	call	netif_set_netmask
.LVL22:
.L4:
	.loc 1 219 1 is_stmt 0
	lw	ra,28(sp)
	.cfi_restore 1
	lw	s0,24(sp)
	.cfi_restore 8
.LVL23:
	lw	s1,20(sp)
	.cfi_restore 9
.LVL24:
	lw	s2,16(sp)
	.cfi_restore 18
.LVL25:
	addi	sp,sp,32
	.cfi_def_cfa_offset 0
.LVL26:
	jr	ra
	.cfi_endproc
.LFE8:
	.size	set_if, .-set_if
	.section	.sbss.count.0,"aw",@nobits
	.align	2
	.set	.LANCHOR0,. + 0
	.type	count.0, @object
	.size	count.0, 4
count.0:
	.zero	4
	.text
.Letext0:
	.file 2 "/mnt/d/GitHub/bl_iot_sdk_for_aithinker/toolchain/riscv/Linux/lib/gcc/riscv64-unknown-elf/10.2.0/include/stdint-gcc.h"
	.file 3 "/mnt/d/GitHub/bl_iot_sdk_for_aithinker/components/network/lwip/src/include/lwip/arch.h"
	.file 4 "/mnt/d/GitHub/bl_iot_sdk_for_aithinker/components/network/lwip/src/include/lwip/err.h"
	.file 5 "/mnt/d/GitHub/bl_iot_sdk_for_aithinker/components/network/lwip/src/include/lwip/pbuf.h"
	.file 6 "/mnt/d/GitHub/bl_iot_sdk_for_aithinker/components/network/lwip/src/include/lwip/ip4_addr.h"
	.file 7 "/mnt/d/GitHub/bl_iot_sdk_for_aithinker/components/network/lwip/src/include/lwip/ip_addr.h"
	.file 8 "/mnt/d/GitHub/bl_iot_sdk_for_aithinker/components/network/lwip/src/include/lwip/netif.h"
	.file 9 "/mnt/d/GitHub/bl_iot_sdk_for_aithinker/toolchain/riscv/Linux/riscv64-unknown-elf/include/stdio.h"