	.file	"easyflash_cli.c"
	.option nopic
	.attribute arch, "rv32i2p0_m2p0_f2p0_c2p0"
	.attribute unaligned_access, 0
	.attribute stack_align, 16
	.text
.Ltext0:
	.cfi_sections	.debug_frame
	.section	.rodata.psm_test_cmd.str1.4,"aMS",@progbits,1
	.align	2
.LC1:
	.string	"easyflash_cli.c"
	.align	2
.LC2:
	.string	"INFO  "
	.align	2
.LC3:
	.string	"[%10u][%s: %s:%4d] kvbin malloc %d byte error\r\n"
	.align	2
.LC4:
	.string	"1234567890123456789012345678901234567890123456789012345678901234"
	.align	2
.LC5:
	.string	"WARN  "
	.align	2
.LC6:
	.string	"[%10u][%s: %s:%4d] kvbin set/get %ld byte error, res1 = %ld, res2 = %d.\r\n"
	.align	2
.LC7:
	.string	"ERROR "
	.align	2
.LC8:
	.string	"[%10u][%s: %s:%4d] kvbin set/get %ld byte , res1 = %ld, res2 = %d. memcmp error\r\n"
	.align	2
.LC9:
	.string	"[%10u][%s: %s:%4d] kvbin set %ld byte bin -> read %ld byte -> memcmp success.\r\n"
	.section	.text.psm_test_cmd,"ax",@progbits
	.align	1
	.globl	psm_test_cmd
	.type	psm_test_cmd, @function
psm_test_cmd:
.LFB8:
	.file 1 "/mnt/d/GitHub/bl_iot_sdk_for_aithinker/components/stage/easyflash4/src/easyflash_cli.c"
	.loc 1 38 1
	.cfi_startproc
.LVL0:
	.loc 1 39 5
	.loc 1 40 5
	.loc 1 41 5
	.loc 1 42 5
	.loc 1 43 5
	.loc 1 38 1 is_stmt 0
	addi	sp,sp,-112
	.cfi_def_cfa_offset 112
	.loc 1 43 14
	lui	a1,%hi(.LANCHOR0)
.LVL1:
	li	a2,24
.LVL2:
	addi	a1,a1,%lo(.LANCHOR0)
	addi	a0,sp,24
.LVL3:
	.loc 1 38 1
	sw	s2,96(sp)
	sw	s4,88(sp)
	sw	s7,76(sp)
	sw	s8,72(sp)
	sw	s9,68(sp)
	sw	s10,64(sp)
	sw	s11,60(sp)
	sw	ra,108(sp)
	sw	s0,104(sp)
	sw	s1,100(sp)
	sw	s3,92(sp)
	sw	s5,84(sp)
	sw	s6,80(sp)
	.cfi_offset 18, -16
	.cfi_offset 20, -24
	.cfi_offset 23, -36
	.cfi_offset 24, -40
	.cfi_offset 25, -44
	.cfi_offset 26, -48
	.cfi_offset 27, -52
	.cfi_offset 1, -4
	.cfi_offset 8, -8
	.cfi_offset 9, -12
	.cfi_offset 19, -20
	.cfi_offset 21, -28
	.cfi_offset 22, -32
	addi	s2,sp,24
	.loc 1 43 14
	call	memcpy
.LVL4:
	.loc 1 44 5 is_stmt 1
	.loc 1 46 5
	.loc 1 47 5
	.loc 1 49 5
	.loc 1 49 17
	.loc 1 56 20 is_stmt 0
	lui	s4,%hi(.LC1)
	lui	s7,%hi(.LC2)
	.loc 1 67 16
	lui	s8,%hi(.LC4)
	.loc 1 72 20
	lui	s9,%hi(.LC6)
	.loc 1 81 16
	lui	s10,%hi(.LC9)
	.loc 1 77 20
	lui	s11,%hi(.LC7)
.LVL5:
.L20:
	.loc 1 50 9 is_stmt 1
	.loc 1 50 18 is_stmt 0
	lw	s6,0(s2)
.LVL6:
	.loc 1 51 9 is_stmt 1
	.loc 1 51 18 is_stmt 0
	sw	zero,20(sp)
	.loc 1 53 9 is_stmt 1
	.loc 1 53 42 is_stmt 0
	addi	s3,s6,1
	.loc 1 53 20
	mv	a0,s3
	call	pvPortMalloc
.LVL7:
	mv	s0,a0
.LVL8:
	.loc 1 54 9 is_stmt 1
	.loc 1 54 20 is_stmt 0
	mv	a0,s3
	call	pvPortMalloc
.LVL9:
	mv	s1,a0
.LVL10:
	.loc 1 55 9 is_stmt 1
	.loc 1 55 12 is_stmt 0
	beq	s0,zero,.L2
	.loc 1 55 31 discriminator 1
	bne	a0,zero,.L3
.L2:
	.loc 1 56 13 is_stmt 1
	.loc 1 56 18
	.loc 1 56 20
	.loc 1 56 87 is_stmt 0
	call	xPortIsInsideInterrupt
.LVL11:
	.loc 1 56 20
	beq	a0,zero,.L4
	.loc 1 56 114 discriminator 1
	call	xTaskGetTickCountFromISR
.LVL12:
.L29:
	.loc 1 56 20 discriminator 2
	lui	a5,%hi(.LC3)
	.loc 1 56 143 discriminator 2
	mv	a1,a0
	.loc 1 56 20 discriminator 2
	li	a4,56
	addi	a3,s4,%lo(.LC1)
	addi	a2,s7,%lo(.LC2)
	addi	a0,a5,%lo(.LC3)
	call	bl_printk
.LVL13:
	.loc 1 56 199 is_stmt 1 discriminator 2
	.loc 1 56 208 discriminator 2
	.loc 1 57 13 discriminator 2
.LDL1:
	.loc 1 81 247 discriminator 2
	.loc 1 81 256 discriminator 2
	.loc 1 83 9 discriminator 2
	.loc 1 83 12 is_stmt 0 discriminator 2
	beq	s0,zero,.L7
.L6:
	.loc 1 84 13 is_stmt 1
	mv	a0,s0
	call	vPortFree
.LVL14:
.L7:
	.loc 1 86 9
	.loc 1 86 12 is_stmt 0
	beq	s1,zero,.L19
	.loc 1 87 13 is_stmt 1
	mv	a0,s1
	call	vPortFree
.LVL15:
.L19:
	.loc 1 49 51 discriminator 2
	.loc 1 49 17 discriminator 2
	.loc 1 49 5 is_stmt 0 discriminator 2
	addi	s2,s2,4
	addi	a5,sp,48
	bne	a5,s2,.L20
	.loc 1 91 5 is_stmt 1
	lui	a0,%hi(.LC4)
	addi	a0,a0,%lo(.LC4)
	call	ef_del_env
.LVL16:
	.loc 1 92 1 is_stmt 0
	lw	ra,108(sp)
	.cfi_remember_state
	.cfi_restore 1
	lw	s0,104(sp)
	.cfi_restore 8
.LVL17:
	lw	s1,100(sp)
	.cfi_restore 9
.LVL18:
	lw	s2,96(sp)
	.cfi_restore 18
	lw	s3,92(sp)
	.cfi_restore 19
	lw	s4,88(sp)
	.cfi_restore 20
	lw	s5,84(sp)
	.cfi_restore 21
	lw	s6,80(sp)
	.cfi_restore 22
.LVL19:
	lw	s7,76(sp)
	.cfi_restore 23
	lw	s8,72(sp)
	.cfi_restore 24
	lw	s9,68(sp)
	.cfi_restore 25
	lw	s10,64(sp)
	.cfi_restore 26
	lw	s11,60(sp)
	.cfi_restore 27
	addi	sp,sp,112
	.cfi_def_cfa_offset 0
	jr	ra
.LVL20:
.L4:
	.cfi_restore_state
	.loc 1 56 143 discriminator 2
	call	xTaskGetTickCount
.LVL21:
	j	.L29
.L3:
	.loc 1 60 9 is_stmt 1
	mv	a2,s3
	li	a1,0
	mv	a0,s0
	call	memset
.LVL22:
	.loc 1 61 9
	mv	a2,s3
	li	a1,0
	mv	a0,s1
	call	memset
.LVL23:
	.loc 1 62 9
	.loc 1 62 16 is_stmt 0
	li	a2,0
	.loc 1 63 25
	li	a5,118
.LVL24:
.L8:
	.loc 1 62 21 is_stmt 1 discriminator 1
	.loc 1 62 9 is_stmt 0 discriminator 1
	bne	a2,s6,.L9
	.loc 1 67 9 is_stmt 1
	.loc 1 67 16 is_stmt 0
	mv	a1,s0
	addi	a0,s8,%lo(.LC4)
	sw	a2,12(sp)
	call	ef_set_env_blob
.LVL25:
	.loc 1 70 16
	lw	a2,12(sp)
	.loc 1 67 16
	mv	s5,a0
.LVL26:
	.loc 1 70 9 is_stmt 1
	.loc 1 70 16 is_stmt 0
	addi	a3,sp,20
	mv	a1,s1
	addi	a0,s8,%lo(.LC4)
.LVL27:
	call	ef_get_env_blob
.LVL28:
	mv	s3,a0
.LVL29:
	.loc 1 71 9 is_stmt 1
	.loc 1 71 12 is_stmt 0
	bne	s5,zero,.L10
	.loc 1 71 25 discriminator 1
	lw	a2,12(sp)
	beq	a2,a0,.L11
.L10:
	.loc 1 72 13 is_stmt 1
	.loc 1 72 18
	.loc 1 72 20
	.loc 1 72 113 is_stmt 0
	call	xPortIsInsideInterrupt
.LVL30:
	.loc 1 72 20
	beq	a0,zero,.L12
	.loc 1 72 140 discriminator 1
	call	xTaskGetTickCountFromISR
.LVL31:
.L30:
	.loc 1 72 20 discriminator 2
	lui	a2,%hi(.LC5)
	.loc 1 72 169 discriminator 2
	mv	a1,a0
	.loc 1 72 20 discriminator 2
	mv	a7,s3
	mv	a6,s5
	mv	a5,s6
	li	a4,72
	addi	a3,s4,%lo(.LC1)
	addi	a2,a2,%lo(.LC5)
	addi	a0,s9,%lo(.LC6)
.LVL32:
.L33:
	.loc 1 77 20 discriminator 4
	call	bl_printk
.LVL33:
	.loc 1 77 255 is_stmt 1 discriminator 4
	.loc 1 77 264 discriminator 4
	.loc 1 78 13 discriminator 4
	j	.L6
.LVL34:
.L9:
	.loc 1 63 13 discriminator 3
	.loc 1 63 25 is_stmt 0 discriminator 3
	add	a4,s0,a2
	sb	a5,0(a4)
	.loc 1 62 35 is_stmt 1 discriminator 3
	.loc 1 62 36 is_stmt 0 discriminator 3
	addi	a2,a2,1
.LVL35:
	j	.L8
.LVL36:
.L12:
	.loc 1 72 169 discriminator 2
	call	xTaskGetTickCount
.LVL37:
	j	.L30
.LVL38:
.L11:
	.loc 1 76 9 is_stmt 1
	.loc 1 76 13 is_stmt 0
	mv	a2,a0
	mv	a1,s0
	mv	a0,s1
.LVL39:
	call	memcmp
.LVL40:
	.loc 1 76 12
	beq	a0,zero,.L14
	.loc 1 77 13 is_stmt 1
	.loc 1 77 18
	.loc 1 77 20
	.loc 1 77 121 is_stmt 0
	call	xPortIsInsideInterrupt
.LVL41:
	.loc 1 77 20
	beq	a0,zero,.L15
	.loc 1 77 148 discriminator 1
	call	xTaskGetTickCountFromISR
.LVL42:
.L31:
	.loc 1 77 177 discriminator 2
	mv	a1,a0
	.loc 1 77 20 discriminator 2
	lui	a0,%hi(.LC8)
	mv	a7,s3
	li	a6,0
	mv	a5,s3
	li	a4,77
	addi	a3,s4,%lo(.LC1)
	addi	a2,s11,%lo(.LC7)
	addi	a0,a0,%lo(.LC8)
	j	.L33
.L15:
	.loc 1 77 177 discriminator 2
	call	xTaskGetTickCount
.LVL43:
	j	.L31
.L14:
	.loc 1 81 9 is_stmt 1
	.loc 1 81 14
	.loc 1 81 16
	.loc 1 81 115 is_stmt 0
	call	xPortIsInsideInterrupt
.LVL44:
	.loc 1 81 16
	beq	a0,zero,.L17
	.loc 1 81 142 discriminator 1
	call	xTaskGetTickCountFromISR
.LVL45:
.L32:
	.loc 1 81 171 discriminator 2
	mv	a1,a0
	.loc 1 81 16 discriminator 2
	mv	a6,s3
	mv	a5,s3
	li	a4,81
	addi	a3,s4,%lo(.LC1)
	addi	a2,s7,%lo(.LC2)
	addi	a0,s10,%lo(.LC9)
	call	bl_printk
.LVL46:
	j	.L6
.L17:
	.loc 1 81 171 discriminator 2
	call	xTaskGetTickCount
.LVL47:
	j	.L32
	.cfi_endproc
.LFE8:
	.size	psm_test_cmd, .-psm_test_cmd
	.section	.text.psm_erase_cmd,"ax",@progbits
	.align	1
	.type	psm_erase_cmd, @function
psm_erase_cmd:
.LFB7:
	.loc 1 33 1 is_stmt 1
	.cfi_startproc
.LVL48:
	.loc 1 34 5
	tail	ef_env_set_default
.LVL49:
	.cfi_endproc
.LFE7:
	.size	psm_erase_cmd, .-psm_erase_cmd
	.section	.text.psm_dump_cmd,"ax",@progbits
	.align	1
	.type	psm_dump_cmd, @function
psm_dump_cmd:
.LFB6:
	.loc 1 28 1
	.cfi_startproc
.LVL50:
	.loc 1 29 5
	tail	ef_print_env
.LVL51:
	.cfi_endproc
.LFE6:
	.size	psm_dump_cmd, .-psm_dump_cmd
	.section	.rodata.psm_unset_cmd.str1.4,"aMS",@progbits,1
	.align	2
.LC10:
	.string	"usage: psm_unset [key]\r\n"
	.section	.text.psm_unset_cmd,"ax",@progbits
	.align	1
	.type	psm_unset_cmd, @function
psm_unset_cmd:
.LFB5:
	.loc 1 18 1
	.cfi_startproc
.LVL52:
	.loc 1 19 5
	.loc 1 19 8 is_stmt 0
	li	a5,2
	beq	a2,a5,.L37
	.loc 1 20 9 is_stmt 1
	lui	a0,%hi(.LC10)
.LVL53:
	addi	a0,a0,%lo(.LC10)
	tail	printf
.LVL54:
.L37:
.LBB4:
.LBB5:
	.loc 1 23 5
	lw	a0,4(a3)
.LVL55:
.LBE5:
.LBE4:
	.loc 1 18 1 is_stmt 0
	addi	sp,sp,-16
	.cfi_def_cfa_offset 16
	sw	ra,12(sp)
	.cfi_offset 1, -4
.LBB8:
.LBB6:
	.loc 1 23 5
	call	ef_del_env
.LVL56:
	.loc 1 24 5 is_stmt 1
.LBE6:
.LBE8:
	.loc 1 25 1 is_stmt 0
	lw	ra,12(sp)
	.cfi_restore 1
	addi	sp,sp,16
	.cfi_def_cfa_offset 0
.LBB9:
.LBB7:
	.loc 1 24 5
	tail	ef_save_env
.LVL57:
.LBE7:
.LBE9:
	.cfi_endproc
.LFE5:
	.size	psm_unset_cmd, .-psm_unset_cmd
	.section	.rodata.psm_set_cmd.str1.4,"aMS",@progbits,1
	.align	2
.LC11:
	.string	"usage: psm_set [key] [value]\r\n"
	.section	.text.psm_set_cmd,"ax",@progbits
	.align	1
	.type	psm_set_cmd, @function
psm_set_cmd:
.LFB4:
	.loc 1 8 1 is_stmt 1
	.cfi_startproc
.LVL58:
	.loc 1 9 5
	.loc 1 9 8 is_stmt 0
	li	a5,3
	beq	a2,a5,.L41
	.loc 1 10 9 is_stmt 1
	lui	a0,%hi(.LC11)
.LVL59:
	addi	a0,a0,%lo(.LC11)
	tail	printf
.LVL60:
.L41:
.LBB12:
.LBB13:
	.loc 1 13 5
	lw	a1,8(a3)
.LVL61:
	lw	a0,4(a3)
.LVL62:
.LBE13:
.LBE12:
	.loc 1 8 1 is_stmt 0
	addi	sp,sp,-16
	.cfi_def_cfa_offset 16
	sw	ra,12(sp)
	.cfi_offset 1, -4
.LBB16:
.LBB14:
	.loc 1 13 5
	call	ef_set_env
.LVL63:
	.loc 1 14 5 is_stmt 1
.LBE14:
.LBE16:
	.loc 1 15 1 is_stmt 0
	lw	ra,12(sp)
	.cfi_restore 1
	addi	sp,sp,16
	.cfi_def_cfa_offset 0
.LBB17:
.LBB15:
	.loc 1 14 5
	tail	ef_save_env
.LVL64:
.LBE15:
.LBE17:
	.cfi_endproc
.LFE4:
	.size	psm_set_cmd, .-psm_set_cmd
	.section	.text.easyflash_cli_init,"ax",@progbits
	.align	1
	.globl	easyflash_cli_init
	.type	easyflash_cli_init, @function
easyflash_cli_init:
.LFB9:
	.loc 1 104 1 is_stmt 1
	.cfi_startproc
	.loc 1 109 5
	.loc 1 110 1 is_stmt 0
	li	a0,0
	ret
	.cfi_endproc
.LFE9:
	.size	easyflash_cli_init, .-easyflash_cli_init
	.section	.rodata.str1.4,"aMS",@progbits,1
	.align	2
.LC12:
	.string	"psm_set"
	.align	2
.LC13:
	.string	"psm set"
	.align	2
.LC14:
	.string	"psm_unset"
	.align	2
.LC15:
	.string	"psm unset"
	.align	2
.LC16:
	.string	"psm_dump"
	.align	2
.LC17:
	.string	"psm dump"
	.align	2
.LC18:
	.string	"psm_erase"
	.align	2
.LC19:
	.string	"psm_test"
	.align	2
.LC20:
	.string	"psm test"
	.section	.rodata
	.align	2
	.set	.LANCHOR0,. + 0
.LC0:
	.word	1
	.word	1024
	.word	2048
	.word	3978
	.word	3979
	.word	3980
	.section	.static_cli_cmds,"a"
	.align	2
	.type	cmds_user, @object
	.size	cmds_user, 60
cmds_user:
	.word	.LC12
	.word	.LC13
	.word	psm_set_cmd
	.word	.LC14
	.word	.LC15
	.word	psm_unset_cmd
	.word	.LC16
	.word	.LC17
	.word	psm_dump_cmd
	.word	.LC18
	.word	.LC17
	.word	psm_erase_cmd
	.word	.LC19
	.word	.LC20
	.word	psm_test_cmd
	.text
.Letext0:
	.file 2 "/mnt/d/GitHub/bl_iot_sdk_for_aithinker/toolchain/riscv/Linux/riscv64-unknown-elf/include/machine/_default_types.h"
	.file 3 "/mnt/d/GitHub/bl_iot_sdk_for_aithinker/toolchain/riscv/Linux/lib/gcc/riscv64-unknown-elf/10.2.0/include/stddef.h"
	.file 4 "/mnt/d/GitHub/bl_iot_sdk_for_aithinker/toolchain/riscv/Linux/riscv64-unknown-elf/include/sys/_stdint.h"
	.file 5 "/mnt/d/GitHub/bl_iot_sdk_for_aithinker/components/stage/cli/cli/include/cli.h"
	.file 6 "/mnt/d/GitHub/bl_iot_sdk_for_aithinker/components/platform/soc/bl602/freertos_riscv_ram/config/portable.h"
	.file 7 "/mnt/d/GitHub/bl_iot_sdk_for_aithinker/components/platform/soc/bl602/freertos_riscv_ram/portable/GCC/RISC-V/portmacro.h"
	.file 8 "/mnt/d/GitHub/bl_iot_sdk_for_aithinker/components/platform/soc/bl602/freertos_riscv_ram/config/task.h"
	.file 9 "/mnt/d/GitHub/bl_iot_sdk_for_aithinker/components/utils/include/utils_log.h"
	.file 10 "/mnt/d/GitHub/bl_iot_sdk_for_aithinker/components/stage/easyflash4/inc/easyflash.h"
	.file 11 "/mnt/d/GitHub/bl_iot_sdk_for_aithinker/toolchain/riscv/Linux/riscv64-unknown-elf/include/string.h"
	.file 12 "/mnt/d/GitHub/bl_iot_sdk_for_aithinker/toolchain/riscv/Linux/riscv64-unknown-elf/include/stdio.h"
	.file 13 "<built-in>"