	.file	"blog_testc1_diable.c"
	.option nopic
	.attribute arch, "rv32i2p0_m2p0_f2p0_c2p0"
	.attribute unaligned_access, 0
	.attribute stack_align, 16
	.text
.Ltext0:
	.cfi_sections	.debug_frame
	.section	.text.blog_testc1_entry,"ax",@progbits
	.align	1
	.globl	blog_testc1_entry
	.type	blog_testc1_entry, @function
blog_testc1_entry:
.LFB4:
	.file 1 "/mnt/d/GitHub/bl_iot_sdk_for_aithinker/components/stage/blog_testc/blog_testc1_diable.c"
	.loc 1 11 1
	.cfi_startproc
.LVL0:
	.loc 1 12 5
	.loc 1 11 1 is_stmt 0
	addi	sp,sp,-16
	.cfi_def_cfa_offset 16
	sw	s0,8(sp)
	.cfi_offset 8, -8
	.loc 1 12 5
	li	s0,4096
	addi	a0,s0,904
.LVL1:
	.loc 1 11 1
	sw	ra,12(sp)
	.cfi_offset 1, -4
	.loc 1 26 9
	addi	s0,s0,904
	.loc 1 12 5
	call	aos_msleep
.LVL2:
	.loc 1 14 5 is_stmt 1
	.loc 1 14 336
	.loc 1 14 347
	.loc 1 15 5
.L2:
	.loc 1 23 412 discriminator 13
	.loc 1 23 423 discriminator 13
	.loc 1 25 5 discriminator 13
	.loc 1 26 9 discriminator 13
	mv	a0,s0
	call	aos_msleep
.LVL3:
	.loc 1 27 9 discriminator 13
	.loc 1 27 340 discriminator 13
	.loc 1 27 351 discriminator 13
	.loc 1 28 9 discriminator 13
	j	.L2
	.cfi_endproc
.LFE4:
	.size	blog_testc1_entry, .-blog_testc1_entry
	.section	.rodata.blog_testc1_init.str1.4,"aMS",@progbits,1
	.align	2
.LC0:
	.string	"blog_testc1"
	.section	.text.blog_testc1_init,"ax",@progbits
	.align	1
	.globl	blog_testc1_init
	.type	blog_testc1_init, @function
blog_testc1_init:
.LFB5:
	.loc 1 41 1
	.cfi_startproc
	.loc 1 42 5
	li	a3,4096
	lui	a1,%hi(blog_testc1_entry)
	lui	a0,%hi(.LC0)
	.loc 1 41 1 is_stmt 0
	addi	sp,sp,-16
	.cfi_def_cfa_offset 16
	.loc 1 42 5
	addi	a3,a3,-2048
	li	a2,0
	addi	a1,a1,%lo(blog_testc1_entry)
	addi	a0,a0,%lo(.LC0)
	.loc 1 41 1
	sw	ra,12(sp)
	.cfi_offset 1, -4
	.loc 1 42 5
	call	aos_task_new
.LVL4:
	.loc 1 44 5 is_stmt 1
	.loc 1 45 1 is_stmt 0
	lw	ra,12(sp)
	.cfi_restore 1
	li	a0,0
	addi	sp,sp,16
	.cfi_def_cfa_offset 0
	jr	ra
	.cfi_endproc
.LFE5:
	.size	blog_testc1_init, .-blog_testc1_init
	.globl	_fsymp_info_blog_testc1
	.section	.rodata.str1.4,"aMS",@progbits,1
	.align	2
.LC1:
	.string	"blog_testc.blog_testc1_diable.blog_testc1"
	.comm	_fsymp_level_blog_testc1,4,4
	.globl	_fsymf_info_blog_testcblog_testc1_diable
	.align	2
.LC2:
	.string	"blog_testc.blog_testc1_diable"
	.comm	_fsymf_level_blog_testcblog_testc1_diable,4,4
	.align	2
.LC3:
	.string	"blog_testc"
	.weak	_fsymc_level_blog_testc
	.section	.sbss._fsymc_level_blog_testc,"aw",@nobits
	.align	2
	.type	_fsymc_level_blog_testc, @object
	.size	_fsymc_level_blog_testc, 4
_fsymc_level_blog_testc:
	.zero	4
	.section	.srodata.BLOG_HARD_DECLARE_DISABLE,"a"
	.align	2
	.type	BLOG_HARD_DECLARE_DISABLE, @object
	.size	BLOG_HARD_DECLARE_DISABLE, 4
BLOG_HARD_DECLARE_DISABLE:
	.zero	4
	.section	.static_blogcomponent_code.blog_testc,"a"
	.align	2
	.type	_fsymc_info_blog_testc, @object
	.size	_fsymc_info_blog_testc, 8
_fsymc_info_blog_testc:
	.word	_fsymc_level_blog_testc
	.word	.LC3
	.section	.static_blogfile_code.blog_testcblog_testc1_diable,"a"
	.align	2
	.type	_fsymf_info_blog_testcblog_testc1_diable, @object
	.size	_fsymf_info_blog_testcblog_testc1_diable, 8
_fsymf_info_blog_testcblog_testc1_diable:
	.word	_fsymf_level_blog_testcblog_testc1_diable
	.word	.LC2
	.section	.static_blogpri_code.blog_testc1,"a"
	.align	2
	.type	_fsymp_info_blog_testc1, @object
	.size	_fsymp_info_blog_testc1, 8
_fsymp_info_blog_testc1:
	.word	_fsymp_level_blog_testc1
	.word	.LC1
	.text
.Letext0:
	.file 2 "/mnt/d/GitHub/bl_iot_sdk_for_aithinker/toolchain/riscv/Linux/riscv64-unknown-elf/include/machine/_default_types.h"
	.file 3 "/mnt/d/GitHub/bl_iot_sdk_for_aithinker/toolchain/riscv/Linux/riscv64-unknown-elf/include/sys/_stdint.h"
	.file 4 "/mnt/d/GitHub/bl_iot_sdk_for_aithinker/components/stage/blog/blog_type.h"
	.file 5 "/mnt/d/GitHub/bl_iot_sdk_for_aithinker/components/stage/blog/blog.h"
	.file 6 "/mnt/d/GitHub/bl_iot_sdk_for_aithinker/components/stage/yloop/include/aos/kernel.h"