	.file	"aes-wrap.c"
	.option nopic
	.attribute arch, "rv32i2p0_m2p0_f2p0_c2p0"
	.attribute unaligned_access, 0
	.attribute stack_align, 16
	.text
.Ltext0:
	.cfi_sections	.debug_frame
	.section	.text.aes_wrap,"ax",@progbits
	.align	1
	.globl	aes_wrap
	.type	aes_wrap, @function
aes_wrap:
.LFB69:
	.file 1 "/mnt/d/GitHub/bl_iot_sdk_for_aithinker/components/security/wpa_supplicant/src/crypto/aes-wrap.c"
	.loc 1 41 1
	.cfi_startproc
.LVL0:
	.loc 1 42 2
	.loc 1 43 2
	.loc 1 44 2
	.loc 1 46 2
	.loc 1 47 2
	.loc 1 50 2
	.loc 1 41 1 is_stmt 0
	addi	sp,sp,-64
	.cfi_def_cfa_offset 64
	sw	s1,52(sp)
	sw	s2,48(sp)
	sw	s4,40(sp)
	.cfi_offset 9, -12
	.cfi_offset 18, -16
	.cfi_offset 20, -24
	mv	s1,a0
	mv	s4,a1
	mv	s2,a2
	.loc 1 50 2
	li	a1,166
.LVL1:
	li	a2,8
.LVL2:
	mv	a0,a3
.LVL3:
	.loc 1 41 1
	sw	ra,60(sp)
	sw	s0,56(sp)
	sw	s3,44(sp)
	.cfi_offset 1, -4
	.cfi_offset 8, -8
	.cfi_offset 19, -20
	mv	s0,a3
	sw	s5,36(sp)
	sw	s6,32(sp)
	sw	s7,28(sp)
	.cfi_offset 21, -28
	.cfi_offset 22, -32
	.cfi_offset 23, -36
	.loc 1 50 2
	call	memset
.LVL4:
	.loc 1 51 2 is_stmt 1
	mv	a1,s2
	slli	a2,s4,3
	addi	a0,s0,8
.LVL5:
	call	memcpy
.LVL6:
	.loc 1 53 2
	.loc 1 53 8 is_stmt 0
	li	a1,16
	mv	a0,s1
	call	wpa_aes_encrypt_init
.LVL7:
	.loc 1 54 2 is_stmt 1
	.loc 1 54 5 is_stmt 0
	beq	a0,zero,.L7
	mv	s1,a0
.LVL8:
	andi	s7,s4,0xff
	li	s3,0
	li	s6,6
.LVL9:
.L3:
	.loc 1 66 10
	li	s2,1
	j	.L6
.LVL10:
.L4:
	.loc 1 67 4 is_stmt 1 discriminator 3
	li	a2,8
	mv	a1,s0
	mv	a0,sp
	call	memcpy
.LVL11:
	.loc 1 68 4 discriminator 3
	li	a2,8
	mv	a1,s5
	addi	a0,sp,8
	call	memcpy
.LVL12:
	.loc 1 69 4 discriminator 3
	mv	a2,sp
	mv	a1,sp
	mv	a0,s1
	call	wpa_aes_encrypt
.LVL13:
	.loc 1 70 4 discriminator 3
	li	a2,8
	mv	a1,sp
	mv	a0,s0
	call	memcpy
.LVL14:
	.loc 1 71 4 discriminator 3
	.loc 1 71 9 is_stmt 0 discriminator 3
	lbu	a4,7(s0)
	add	a5,s3,s2
	.loc 1 72 4 discriminator 3
	li	a2,8
	.loc 1 71 9 discriminator 3
	xor	a5,a5,a4
	sb	a5,7(s0)
	.loc 1 72 4 is_stmt 1 discriminator 3
	addi	a1,sp,8
	mv	a0,s5
	call	memcpy
.LVL15:
	.loc 1 73 4 discriminator 3
	.loc 1 66 23 discriminator 3
	.loc 1 66 24 is_stmt 0 discriminator 3
	addi	s2,s2,1
.LVL16:
.L6:
	slli	s5,s2,3
	add	s5,s0,s5
.LVL17:
	.loc 1 66 15 is_stmt 1 discriminator 1
	.loc 1 66 3 is_stmt 0 discriminator 1
	ble	s2,s4,.L4
	.loc 1 64 22 is_stmt 1 discriminator 2
.LVL18:
	.loc 1 64 14 discriminator 2
	.loc 1 64 2 is_stmt 0 discriminator 2
	add	s3,s3,s7
	addi	s6,s6,-1
.LVL19:
	andi	s3,s3,0xff
	bne	s6,zero,.L3
	.loc 1 76 2 is_stmt 1
	mv	a0,s1
	call	wpa_aes_encrypt_deinit
.LVL20:
	.loc 1 84 2
	.loc 1 84 9 is_stmt 0
	li	a0,0
.LVL21:
.L1:
	.loc 1 85 1
	lw	ra,60(sp)
	.cfi_remember_state
	.cfi_restore 1
	lw	s0,56(sp)
	.cfi_restore 8
.LVL22:
	lw	s1,52(sp)
	.cfi_restore 9
	lw	s2,48(sp)
	.cfi_restore 18
	lw	s3,44(sp)
	.cfi_restore 19
	lw	s4,40(sp)
	.cfi_restore 20
.LVL23:
	lw	s5,36(sp)
	.cfi_restore 21
	lw	s6,32(sp)
	.cfi_restore 22
	lw	s7,28(sp)
	.cfi_restore 23
	addi	sp,sp,64
	.cfi_def_cfa_offset 0
	jr	ra
.LVL24:
.L7:
	.cfi_restore_state
	.loc 1 55 10
	li	a0,-1
.LVL25:
	j	.L1
	.cfi_endproc
.LFE69:
	.size	aes_wrap, .-aes_wrap
	.text
.Letext0:
	.file 2 "/mnt/d/GitHub/bl_iot_sdk_for_aithinker/toolchain/riscv/Linux/riscv64-unknown-elf/include/machine/_default_types.h"
	.file 3 "/mnt/d/GitHub/bl_iot_sdk_for_aithinker/toolchain/riscv/Linux/riscv64-unknown-elf/include/sys/_stdint.h"
	.file 4 "/mnt/d/GitHub/bl_iot_sdk_for_aithinker/toolchain/riscv/Linux/riscv64-unknown-elf/include/string.h"
	.file 5 "/mnt/d/GitHub/bl_iot_sdk_for_aithinker/components/security/wpa_supplicant/src/crypto/aes.h"
	.file 6 "/mnt/d/GitHub/bl_iot_sdk_for_aithinker/components/security/wpa_supplicant/src/utils/common.h"