	.file	"aes-omac1.c"
	.option nopic
	.attribute arch, "rv32i2p0_m2p0_f2p0_c2p0"
	.attribute unaligned_access, 0
	.attribute stack_align, 16
	.text
.Ltext0:
	.cfi_sections	.debug_frame
	.section	.text.gf_mulx,"ax",@progbits
	.align	1
	.type	gf_mulx, @function
gf_mulx:
.LFB46:
	.file 1 "/mnt/d/GitHub/bl_iot_sdk_for_aithinker/components/security/wpa_supplicant/src/crypto/aes-omac1.c"
	.loc 1 16 1
	.cfi_startproc
.LVL0:
	.loc 1 17 2
	.loc 1 19 2
	.loc 1 19 13 is_stmt 0
	lbu	a3,0(a0)
.LVL1:
	.loc 1 20 2 is_stmt 1
	.loc 1 20 14
	mv	a5,a0
	addi	a1,a0,15
.LVL2:
.L2:
	.loc 1 21 3 discriminator 3
	.loc 1 21 16 is_stmt 0 discriminator 3
	lbu	a4,0(a5)
	.loc 1 21 26 discriminator 3
	lbu	a2,1(a5)
	.loc 1 20 2 discriminator 3
	addi	a5,a5,1
.LVL3:
	.loc 1 21 20 discriminator 3
	slli	a4,a4,1
	.loc 1 21 26 discriminator 3
	srli	a2,a2,7
	or	a4,a4,a2
	.loc 1 21 10 discriminator 3
	sb	a4,-1(a5)
	.loc 1 20 26 is_stmt 1 discriminator 3
.LVL4:
	.loc 1 20 14 discriminator 3
	.loc 1 20 2 is_stmt 0 discriminator 3
	bne	a1,a5,.L2
	.loc 1 22 2 is_stmt 1
	.loc 1 22 14 is_stmt 0
	lbu	a5,15(a0)
	.loc 1 23 5
	slli	a4,a3,24
	srai	a4,a4,24
	.loc 1 22 14
	slli	a5,a5,1
	andi	a5,a5,0xff
	.loc 1 23 2 is_stmt 1
	.loc 1 23 5 is_stmt 0
	blt	a4,zero,.L3
.L6:
	.loc 1 24 15
	sb	a5,15(a0)
	.loc 1 25 1
	ret
.L3:
	.loc 1 24 3 is_stmt 1
	.loc 1 24 15 is_stmt 0
	xori	a5,a5,-121
	j	.L6
	.cfi_endproc
.LFE46:
	.size	gf_mulx, .-gf_mulx
	.section	.text.omac1_aes_vector,"ax",@progbits
	.align	1
	.globl	omac1_aes_vector
	.type	omac1_aes_vector, @function
omac1_aes_vector:
.LFB47:
	.loc 1 44 1 is_stmt 1
	.cfi_startproc
.LVL5:
	.loc 1 45 2
	.loc 1 46 2
	.loc 1 47 2
	.loc 1 48 2
	.loc 1 50 2
	.loc 1 44 1 is_stmt 0
	addi	sp,sp,-80
	.cfi_def_cfa_offset 80
	sw	s0,72(sp)
	sw	s5,52(sp)
	sw	s7,44(sp)
	sw	s8,40(sp)
	sw	ra,76(sp)
	sw	s1,68(sp)
	sw	s2,64(sp)
	sw	s3,60(sp)
	sw	s4,56(sp)
	sw	s6,48(sp)
	sw	s9,36(sp)
	sw	s10,32(sp)
	.cfi_offset 8, -8
	.cfi_offset 21, -28
	.cfi_offset 23, -36
	.cfi_offset 24, -40
	.cfi_offset 1, -4
	.cfi_offset 9, -12
	.cfi_offset 18, -16
	.cfi_offset 19, -20
	.cfi_offset 20, -24
	.cfi_offset 22, -32
	.cfi_offset 25, -44
	.cfi_offset 26, -48
	.loc 1 44 1
	mv	s0,a2
	mv	s7,a3
	mv	s5,a4
	mv	s8,a5
	.loc 1 50 8
	call	wpa_aes_encrypt_init
.LVL6:
	.loc 1 51 2 is_stmt 1
	.loc 1 51 5 is_stmt 0
	beq	a0,zero,.L23
	mv	s3,a0
	.loc 1 53 2 is_stmt 1
	li	a2,16
	li	a1,0
	mv	a0,sp
.LVL7:
	call	memset
.LVL8:
	.loc 1 55 2
	.loc 1 56 2
	.loc 1 55 12 is_stmt 0
	li	s6,0
	.loc 1 56 9
	li	a5,0
.LVL9:
.L9:
	.loc 1 56 14 is_stmt 1 discriminator 1
	.loc 1 56 2 is_stmt 0 discriminator 1
	bne	a5,s0,.L10
	.loc 1 58 2 is_stmt 1
.LVL10:
	.loc 1 60 2
	.loc 1 61 2
	.loc 1 61 6 is_stmt 0
	lw	s0,0(s7)
.LVL11:
	.loc 1 62 2 is_stmt 1
	.loc 1 62 6 is_stmt 0
	lw	s2,0(s5)
	.loc 1 64 8
	mv	s1,s6
	.loc 1 60 4
	li	s4,0
	.loc 1 62 6
	add	s2,s0,s2
.LVL12:
	.loc 1 64 2 is_stmt 1
	.loc 1 64 8 is_stmt 0
	li	s10,15
	.loc 1 72 21
	li	s9,16
.LVL13:
.L11:
	.loc 1 64 8 is_stmt 1
	bgtu	s1,s10,.L16
	li	a5,-16
	srli	s1,s6,4
.LVL14:
	mul	s1,s1,a5
	.loc 1 85 2 is_stmt 0
	li	a2,16
	li	a1,0
	addi	a0,sp,16
	call	memset
.LVL15:
	.loc 1 86 2
	addi	a2,sp,16
	mv	a0,s3
	mv	a1,a2
	call	wpa_aes_encrypt
.LVL16:
	.loc 1 87 2
	addi	a0,sp,16
	add	s1,s1,s6
	.loc 1 85 2 is_stmt 1
	.loc 1 86 2
	.loc 1 87 2
	call	gf_mulx
.LVL17:
	.loc 1 89 2
	.loc 1 89 5 is_stmt 0
	beq	s1,zero,.L17
	mv	a4,sp
.LVL18:
	.loc 1 90 15 is_stmt 1
	.loc 1 89 5 is_stmt 0
	li	a5,0
.LVL19:
.L18:
	.loc 1 91 4 is_stmt 1
	.loc 1 91 11 is_stmt 0
	lbu	a3,0(a4)
	lbu	a1,0(s0)
	.loc 1 91 18
	addi	a2,s0,1
.LVL20:
	.loc 1 97 11
	addi	a5,a5,1
.LVL21:
	.loc 1 91 11
	xor	a3,a3,a1
	sb	a3,0(a4)
	.loc 1 92 4 is_stmt 1
	.loc 1 92 7 is_stmt 0
	bltu	a2,s2,.L26
	.loc 1 97 5 is_stmt 1
	.loc 1 97 8 is_stmt 0
	beq	s1,a5,.L21
	.loc 1 99 5 is_stmt 1
	.loc 1 99 6 is_stmt 0
	addi	s4,s4,1
.LVL22:
	.loc 1 100 5 is_stmt 1
	.loc 1 100 15 is_stmt 0
	slli	a3,s4,2
	.loc 1 100 9
	add	a2,s7,a3
.LVL23:
	.loc 1 101 20
	add	a3,s5,a3
	.loc 1 100 9
	lw	s0,0(a2)
.LVL24:
	.loc 1 101 5 is_stmt 1
	.loc 1 101 9 is_stmt 0
	lw	s2,0(a3)
.LVL25:
	add	s2,s0,s2
.LVL26:
.L20:
	.loc 1 90 25 is_stmt 1 discriminator 2
	addi	a4,a4,1
.LVL27:
	.loc 1 90 15 discriminator 2
	.loc 1 90 3 is_stmt 0 discriminator 2
	bne	s1,a5,.L18
	j	.L21
.LVL28:
.L10:
	.loc 1 57 3 is_stmt 1 discriminator 3
	.loc 1 57 19 is_stmt 0 discriminator 3
	slli	a4,a5,2
	add	a4,s5,a4
	.loc 1 57 13 discriminator 3
	lw	a4,0(a4)
	.loc 1 56 29 discriminator 3
	addi	a5,a5,1
.LVL29:
	.loc 1 57 13 discriminator 3
	add	s6,s6,a4
.LVL30:
	.loc 1 56 28 is_stmt 1 discriminator 3
	j	.L9
.LVL31:
.L16:
	mv	a4,sp
	.loc 1 65 10 is_stmt 0
	li	a5,0
.L15:
.LVL32:
	.loc 1 66 4 is_stmt 1
	.loc 1 66 11 is_stmt 0
	lbu	a2,0(a4)
	lbu	a1,0(s0)
	.loc 1 66 18
	addi	a3,s0,1
.LVL33:
	.loc 1 66 11
	xor	a2,a2,a1
	sb	a2,0(a4)
	.loc 1 67 4 is_stmt 1
	.loc 1 67 7 is_stmt 0
	bltu	a3,s2,.L24
	.loc 1 72 5 is_stmt 1
	.loc 1 72 8 is_stmt 0
	bne	a5,s10,.L13
	.loc 1 72 21 discriminator 1
	beq	s1,s9,.L25
.L13:
	.loc 1 75 5 is_stmt 1
	.loc 1 75 6 is_stmt 0
	addi	s4,s4,1
.LVL34:
	.loc 1 76 5 is_stmt 1
	.loc 1 76 15 is_stmt 0
	slli	a3,s4,2
.LVL35:
	.loc 1 76 9
	add	a2,s7,a3
	.loc 1 77 20
	add	a3,s5,a3
	.loc 1 76 9
	lw	s0,0(a2)
.LVL36:
	.loc 1 77 5 is_stmt 1
	.loc 1 77 9 is_stmt 0
	lw	s2,0(a3)
.LVL37:
	add	s2,s0,s2
.LVL38:
.L12:
	.loc 1 65 23 is_stmt 1 discriminator 2
	.loc 1 65 24 is_stmt 0 discriminator 2
	addi	a5,a5,1
.LVL39:
	.loc 1 65 15 is_stmt 1 discriminator 2
	.loc 1 65 3 is_stmt 0 discriminator 2
	addi	a4,a4,1
	bne	a5,s9,.L15
	.loc 1 80 3 is_stmt 1
	.loc 1 80 6 is_stmt 0
	beq	s1,s9,.L14
	.loc 1 81 4 is_stmt 1
	mv	a2,sp
	mv	a1,sp
	mv	a0,s3
	call	wpa_aes_encrypt
.LVL40:
.L14:
	.loc 1 82 3
	.loc 1 82 8 is_stmt 0
	addi	s1,s1,-16
.LVL41:
	j	.L11
.LVL42:
.L24:
	mv	s0,a3
	j	.L12
.L25:
	mv	s0,a3
	j	.L14
.LVL43:
.L17:
	.loc 1 89 11 discriminator 1
	bne	s6,zero,.L19
.LVL44:
.L21:
	.loc 1 104 3 is_stmt 1
	.loc 1 104 13 is_stmt 0
	addi	a5,sp,32
	add	s1,a5,s1
	lbu	a5,-32(s1)
	.loc 1 105 3
	addi	a0,sp,16
	.loc 1 104 13
	xori	a5,a5,-128
	sb	a5,-32(s1)
	.loc 1 105 3 is_stmt 1
	call	gf_mulx
.LVL45:
.L19:
	addi	a4,sp,16
	li	a5,0
	.loc 1 108 2 is_stmt 0 discriminator 3
	li	a2,16
.L22:
.LVL46:
	.loc 1 109 3 is_stmt 1 discriminator 3
	.loc 1 109 16 is_stmt 0 discriminator 3
	add	a3,sp,a5
	.loc 1 109 10 discriminator 3
	lbu	a1,0(a4)
	lbu	a3,0(a3)
	.loc 1 108 23 discriminator 3
	addi	a5,a5,1
.LVL47:
	.loc 1 108 2 discriminator 3
	addi	a4,a4,1
	.loc 1 109 10 discriminator 3
	xor	a3,a3,a1
	sb	a3,-1(a4)
	.loc 1 108 22 is_stmt 1 discriminator 3
.LVL48:
	.loc 1 108 14 discriminator 3
	.loc 1 108 2 is_stmt 0 discriminator 3
	bne	a5,a2,.L22
	.loc 1 110 2 is_stmt 1
	mv	a2,s8
	addi	a1,sp,16
	mv	a0,s3
	call	wpa_aes_encrypt
.LVL49:
	.loc 1 111 2
	mv	a0,s3
	call	wpa_aes_encrypt_deinit
.LVL50:
	.loc 1 112 2
	.loc 1 112 9 is_stmt 0
	li	a0,0
.LVL51:
.L7:
	.loc 1 113 1
	lw	ra,76(sp)
	.cfi_remember_state
	.cfi_restore 1
	lw	s0,72(sp)
	.cfi_restore 8
	lw	s1,68(sp)
	.cfi_restore 9
	lw	s2,64(sp)
	.cfi_restore 18
	lw	s3,60(sp)
	.cfi_restore 19
	lw	s4,56(sp)
	.cfi_restore 20
	lw	s5,52(sp)
	.cfi_restore 21
.LVL52:
	lw	s6,48(sp)
	.cfi_restore 22
	lw	s7,44(sp)
	.cfi_restore 23
.LVL53:
	lw	s8,40(sp)
	.cfi_restore 24
.LVL54:
	lw	s9,36(sp)
	.cfi_restore 25
	lw	s10,32(sp)
	.cfi_restore 26
	addi	sp,sp,80
	.cfi_def_cfa_offset 0
	jr	ra
.LVL55:
.L26:
	.cfi_restore_state
	mv	s0,a2
	j	.L20
.LVL56:
.L23:
	.loc 1 52 10
	li	a0,-1
.LVL57:
	j	.L7
	.cfi_endproc
.LFE47:
	.size	omac1_aes_vector, .-omac1_aes_vector
	.section	.text.omac1_aes_128_vector,"ax",@progbits
	.align	1
	.globl	omac1_aes_128_vector
	.type	omac1_aes_128_vector, @function
omac1_aes_128_vector:
.LFB48:
	.loc 1 131 1 is_stmt 1
	.cfi_startproc
.LVL58:
	.loc 1 132 2
	.loc 1 131 1 is_stmt 0
	mv	a5,a4
	.loc 1 132 9
	mv	a4,a3
.LVL59:
	mv	a3,a2
.LVL60:
	mv	a2,a1
.LVL61:
	li	a1,16
.LVL62:
	tail	omac1_aes_vector
.LVL63:
	.cfi_endproc
.LFE48:
	.size	omac1_aes_128_vector, .-omac1_aes_128_vector
	.section	.text.omac1_aes_128,"ax",@progbits
	.align	1
	.globl	omac1_aes_128
	.type	omac1_aes_128, @function
omac1_aes_128:
.LFB49:
	.loc 1 149 1 is_stmt 1
	.cfi_startproc
.LVL64:
	.loc 1 150 2
	.loc 1 149 1 is_stmt 0
	addi	sp,sp,-32
	.cfi_def_cfa_offset 32
	sw	a1,12(sp)
	sw	a2,8(sp)
	mv	a4,a3
	.loc 1 150 9
	addi	a2,sp,12
.LVL65:
	addi	a3,sp,8
.LVL66:
	li	a1,1
.LVL67:
	.loc 1 149 1
	sw	ra,28(sp)
	.cfi_offset 1, -4
	.loc 1 150 9
	call	omac1_aes_128_vector
.LVL68:
	.loc 1 151 1
	lw	ra,28(sp)
	.cfi_restore 1
	addi	sp,sp,32
	.cfi_def_cfa_offset 0
	jr	ra
	.cfi_endproc
.LFE49:
	.size	omac1_aes_128, .-omac1_aes_128
	.section	.text.omac1_aes_256,"ax",@progbits
	.align	1
	.globl	omac1_aes_256
	.type	omac1_aes_256, @function
omac1_aes_256:
.LFB50:
	.loc 1 167 1 is_stmt 1
	.cfi_startproc
.LVL69:
	.loc 1 168 2
	.loc 1 167 1 is_stmt 0
	addi	sp,sp,-32
	.cfi_def_cfa_offset 32
	sw	a1,12(sp)
	sw	a2,8(sp)
	mv	a5,a3
	.loc 1 168 9
	addi	a4,sp,8
	addi	a3,sp,12
.LVL70:
	li	a2,1
.LVL71:
	li	a1,32
.LVL72:
	.loc 1 167 1
	sw	ra,28(sp)
	.cfi_offset 1, -4
	.loc 1 168 9
	call	omac1_aes_vector
.LVL73:
	.loc 1 169 1
	lw	ra,28(sp)
	.cfi_restore 1
	addi	sp,sp,32
	.cfi_def_cfa_offset 0
	jr	ra
	.cfi_endproc
.LFE50:
	.size	omac1_aes_256, .-omac1_aes_256
	.text
.Letext0:
	.file 2 "/mnt/d/GitHub/bl_iot_sdk_for_aithinker/toolchain/riscv/Linux/lib/gcc/riscv64-unknown-elf/10.2.0/include/stddef.h"
	.file 3 "/mnt/d/GitHub/bl_iot_sdk_for_aithinker/toolchain/riscv/Linux/riscv64-unknown-elf/include/machine/_default_types.h"
	.file 4 "/mnt/d/GitHub/bl_iot_sdk_for_aithinker/toolchain/riscv/Linux/riscv64-unknown-elf/include/sys/_stdint.h"
	.file 5 "/mnt/d/GitHub/bl_iot_sdk_for_aithinker/components/security/wpa_supplicant/src/crypto/aes.h"
	.file 6 "/mnt/d/GitHub/bl_iot_sdk_for_aithinker/toolchain/riscv/Linux/riscv64-unknown-elf/include/string.h"
	.file 7 "/mnt/d/GitHub/bl_iot_sdk_for_aithinker/components/security/wpa_supplicant/src/utils/common.h"