	.file	"aes-internal-bl.c"
	.option nopic
	.attribute arch, "rv32i2p0_m2p0_f2p0_c2p0"
	.attribute unaligned_access, 0
	.attribute stack_align, 16
	.text
.Ltext0:
	.cfi_sections	.debug_frame
	.section	.text.wpa_aes_encrypt_init,"ax",@progbits
	.align	1
	.globl	wpa_aes_encrypt_init
	.type	wpa_aes_encrypt_init, @function
wpa_aes_encrypt_init:
.LFB46:
	.file 1 "/mnt/d/GitHub/bl_iot_sdk_for_aithinker/components/security/wpa_supplicant/src/crypto/aes-internal-bl.c"
	.loc 1 5 1
	.cfi_startproc
.LVL0:
	.loc 1 6 5
	.loc 1 5 1 is_stmt 0
	addi	sp,sp,-32
	.cfi_def_cfa_offset 32
	sw	s0,24(sp)
	sw	s1,20(sp)
	sw	ra,28(sp)
	.cfi_offset 8, -8
	.cfi_offset 9, -12
	.cfi_offset 1, -4
	.loc 1 5 1
	sw	a0,12(sp)
	mv	s1,a1
	.loc 1 6 38
	call	blcrypto_suite_aes_init
.LVL1:
	mv	s0,a0
.LVL2:
	.loc 1 7 5 is_stmt 1
	.loc 1 7 8 is_stmt 0
	beq	a0,zero,.L1
	.loc 1 10 5 is_stmt 1
	lw	a2,12(sp)
	slli	a3,s1,3
	li	a1,0
	call	blcrypto_suite_aes_set_key
.LVL3:
	.loc 1 11 5
.L1:
	.loc 1 12 1 is_stmt 0
	lw	ra,28(sp)
	.cfi_restore 1
	mv	a0,s0
	lw	s0,24(sp)
	.cfi_restore 8
.LVL4:
	lw	s1,20(sp)
	.cfi_restore 9
.LVL5:
	addi	sp,sp,32
	.cfi_def_cfa_offset 0
.LVL6:
	jr	ra
	.cfi_endproc
.LFE46:
	.size	wpa_aes_encrypt_init, .-wpa_aes_encrypt_init
	.section	.text.wpa_aes_encrypt,"ax",@progbits
	.align	1
	.globl	wpa_aes_encrypt
	.type	wpa_aes_encrypt, @function
wpa_aes_encrypt:
.LFB47:
	.loc 1 16 1 is_stmt 1
	.cfi_startproc
.LVL7:
	.loc 1 17 5
	.loc 1 16 1 is_stmt 0
	mv	a3,a2
	.loc 1 17 5
	mv	a2,a1
.LVL8:
	li	a1,0
.LVL9:
	tail	blcrypto_suite_aes_crypt
.LVL10:
	.cfi_endproc
.LFE47:
	.size	wpa_aes_encrypt, .-wpa_aes_encrypt
	.section	.text.wpa_aes_encrypt_deinit,"ax",@progbits
	.align	1
	.globl	wpa_aes_encrypt_deinit
	.type	wpa_aes_encrypt_deinit, @function
wpa_aes_encrypt_deinit:
.LFB48:
	.loc 1 21 1 is_stmt 1
	.cfi_startproc
.LVL11:
	.loc 1 22 5
	.loc 1 21 1 is_stmt 0
	addi	sp,sp,-32
	.cfi_def_cfa_offset 32
	.loc 1 22 11
	sw	a0,12(sp)
	.loc 1 23 5 is_stmt 1
	addi	a0,sp,12
.LVL12:
	.loc 1 21 1 is_stmt 0
	sw	ra,28(sp)
	.cfi_offset 1, -4
	.loc 1 23 5
	call	blcrypto_suite_aes_deinit
.LVL13:
	.loc 1 24 1
	lw	ra,28(sp)
	.cfi_restore 1
	addi	sp,sp,32
	.cfi_def_cfa_offset 0
	jr	ra
	.cfi_endproc
.LFE48:
	.size	wpa_aes_encrypt_deinit, .-wpa_aes_encrypt_deinit
	.section	.text.wpa_aes_decrypt_init,"ax",@progbits
	.align	1
	.globl	wpa_aes_decrypt_init
	.type	wpa_aes_decrypt_init, @function
wpa_aes_decrypt_init:
.LFB49:
	.loc 1 27 1 is_stmt 1
	.cfi_startproc
.LVL14:
	.loc 1 28 5
	.loc 1 27 1 is_stmt 0
	addi	sp,sp,-32
	.cfi_def_cfa_offset 32
	sw	s0,24(sp)
	sw	s1,20(sp)
	sw	ra,28(sp)
	.cfi_offset 8, -8
	.cfi_offset 9, -12
	.cfi_offset 1, -4
	.loc 1 27 1
	sw	a0,12(sp)
	mv	s1,a1
	.loc 1 28 38
	call	blcrypto_suite_aes_init
.LVL15:
	mv	s0,a0
.LVL16:
	.loc 1 29 5 is_stmt 1
	.loc 1 29 8 is_stmt 0
	beq	a0,zero,.L10
	.loc 1 32 5 is_stmt 1
	lw	a2,12(sp)
	slli	a3,s1,3
	li	a1,1
	call	blcrypto_suite_aes_set_key
.LVL17:
	.loc 1 33 5
.L10:
	.loc 1 34 1 is_stmt 0
	lw	ra,28(sp)
	.cfi_restore 1
	mv	a0,s0
	lw	s0,24(sp)
	.cfi_restore 8
.LVL18:
	lw	s1,20(sp)
	.cfi_restore 9
.LVL19:
	addi	sp,sp,32
	.cfi_def_cfa_offset 0
.LVL20:
	jr	ra
	.cfi_endproc
.LFE49:
	.size	wpa_aes_decrypt_init, .-wpa_aes_decrypt_init
	.section	.text.wpa_aes_decrypt,"ax",@progbits
	.align	1
	.globl	wpa_aes_decrypt
	.type	wpa_aes_decrypt, @function
wpa_aes_decrypt:
.LFB50:
	.loc 1 37 1 is_stmt 1
	.cfi_startproc
.LVL21:
	.loc 1 38 5
	.loc 1 37 1 is_stmt 0
	mv	a3,a2
	.loc 1 38 5
	mv	a2,a1
.LVL22:
	li	a1,1
.LVL23:
	tail	blcrypto_suite_aes_crypt
.LVL24:
	.cfi_endproc
.LFE50:
	.size	wpa_aes_decrypt, .-wpa_aes_decrypt
	.section	.text.wpa_aes_decrypt_deinit,"ax",@progbits
	.align	1
	.globl	wpa_aes_decrypt_deinit
	.type	wpa_aes_decrypt_deinit, @function
wpa_aes_decrypt_deinit:
.LFB51:
	.loc 1 42 1 is_stmt 1
	.cfi_startproc
.LVL25:
	.loc 1 43 5
	tail	wpa_aes_encrypt_deinit
.LVL26:
	.cfi_endproc
.LFE51:
	.size	wpa_aes_decrypt_deinit, .-wpa_aes_decrypt_deinit
	.text
.Letext0:
	.file 2 "/mnt/d/GitHub/bl_iot_sdk_for_aithinker/toolchain/riscv/Linux/lib/gcc/riscv64-unknown-elf/10.2.0/include/stddef.h"
	.file 3 "/mnt/d/GitHub/bl_iot_sdk_for_aithinker/toolchain/riscv/Linux/riscv64-unknown-elf/include/machine/_default_types.h"
	.file 4 "/mnt/d/GitHub/bl_iot_sdk_for_aithinker/toolchain/riscv/Linux/riscv64-unknown-elf/include/sys/_stdint.h"
	.file 5 "/mnt/d/GitHub/bl_iot_sdk_for_aithinker/components/security/blcrypto_suite/inc/blcrypto_suite/blcrypto_suite_aes.h"
	.file 6 "/mnt/d/GitHub/bl_iot_sdk_for_aithinker/components/security/wpa_supplicant/src/utils/common.h"