	.file	"aes-unwrap.c"
	.option nopic
	.attribute arch, "rv32i2p0_m2p0_f2p0_c2p0"
	.attribute unaligned_access, 0
	.attribute stack_align, 16
	.text
.Ltext0:
	.cfi_sections	.debug_frame
	.section	.text.aes_unwrap,"ax",@progbits
	.align	1
	.globl	aes_unwrap
	.type	aes_unwrap, @function
aes_unwrap:
.LFB69:
	.file 1 "/mnt/d/GitHub/bl_iot_sdk_for_aithinker/components/security/wpa_supplicant/src/crypto/aes-unwrap.c"
	.loc 1 48 1
	.cfi_startproc
.LVL0:
	addi	sp,sp,-80
	.cfi_def_cfa_offset 80
	sw	s2,64(sp)
	.cfi_offset 18, -16
	mv	s2,a2
	.loc 1 49 2
	.loc 1 50 2
	.loc 1 51 2
	.loc 1 54 2
	.loc 1 48 1 is_stmt 0
	sw	s3,60(sp)
	sw	s4,56(sp)
	.cfi_offset 19, -20
	.cfi_offset 20, -24
	mv	s3,a1
	mv	s4,a0
	.loc 1 54 2
	li	a2,8
.LVL1:
	mv	a1,s2
.LVL2:
	addi	a0,sp,8
.LVL3:
	.loc 1 48 1
	sw	ra,76(sp)
	sw	s0,72(sp)
	sw	s1,68(sp)
	.cfi_offset 1, -4
	.cfi_offset 8, -8
	.cfi_offset 9, -12
	mv	s0,a3
	sw	s5,52(sp)
	sw	s6,48(sp)
	sw	s7,44(sp)
	.cfi_offset 21, -28
	.cfi_offset 22, -32
	.cfi_offset 23, -36
	.loc 1 56 31
	slli	s1,s3,3
	.loc 1 54 2
	call	memcpy
.LVL4:
	.loc 1 55 2 is_stmt 1
	.loc 1 56 2
	addi	a1,s2,8
	mv	a2,s1
	mv	a0,s0
	call	memcpy
.LVL5:
	.loc 1 58 2
	.loc 1 58 8 is_stmt 0
	li	a1,16
	mv	a0,s4
	call	wpa_aes_decrypt_init
.LVL6:
	.loc 1 59 2 is_stmt 1
	.loc 1 59 5 is_stmt 0
	beq	a0,zero,.L2
	.loc 1 70 23
	addi	s1,s1,-8
	.loc 1 70 5
	add	s1,s0,s1
	andi	s7,s3,0xff
	li	s0,5
.LVL7:
	mul	s0,s7,s0
	mv	s2,a0
.LVL8:
	li	s6,6
	andi	s0,s0,0xff
.LVL9:
.L5:
	.loc 1 70 3 is_stmt 1
	.loc 1 71 3
	.loc 1 71 10 is_stmt 0
	mv	s4,s3
	.loc 1 70 5
	mv	s5,s1
.LVL10:
.L3:
	.loc 1 71 15 is_stmt 1 discriminator 1
	.loc 1 71 3 is_stmt 0 discriminator 1
	bgt	s4,zero,.L4
	.loc 1 69 22 is_stmt 1 discriminator 2
.LVL11:
	.loc 1 69 14 discriminator 2
	.loc 1 69 2 is_stmt 0 discriminator 2
	sub	s0,s0,s7
	addi	s6,s6,-1
.LVL12:
	andi	s0,s0,0xff
	bne	s6,zero,.L5
	.loc 1 82 2 is_stmt 1
	mv	a0,s2
	call	wpa_aes_decrypt_deinit
.LVL13:
	.loc 1 89 2
	.loc 1 89 14
	.loc 1 89 9 is_stmt 0
	li	a5,0
	.loc 1 90 6
	li	a3,166
	.loc 1 89 2
	li	a4,8
.LVL14:
.L6:
	.loc 1 90 3 is_stmt 1
	.loc 1 90 8 is_stmt 0
	addi	a2,sp,8
	add	a2,a2,a5
	.loc 1 90 6
	lbu	a2,0(a2)
	bne	a2,a3,.L2
	.loc 1 89 21 is_stmt 1 discriminator 2
	.loc 1 89 22 is_stmt 0 discriminator 2
	addi	a5,a5,1
.LVL15:
	.loc 1 89 14 is_stmt 1 discriminator 2
	.loc 1 89 2 is_stmt 0 discriminator 2
	bne	a5,a4,.L6
	.loc 1 94 9
	li	a0,0
.LVL16:
.L1:
	.loc 1 95 1
	lw	ra,76(sp)
	.cfi_remember_state
	.cfi_restore 1
	lw	s0,72(sp)
	.cfi_restore 8
	lw	s1,68(sp)
	.cfi_restore 9
	lw	s2,64(sp)
	.cfi_restore 18
	lw	s3,60(sp)
	.cfi_restore 19
.LVL17:
	lw	s4,56(sp)
	.cfi_restore 20
	lw	s5,52(sp)
	.cfi_restore 21
	lw	s6,48(sp)
	.cfi_restore 22
	lw	s7,44(sp)
	.cfi_restore 23
	addi	sp,sp,80
	.cfi_def_cfa_offset 0
	jr	ra
.LVL18:
.L4:
	.cfi_restore_state
	.loc 1 72 4 is_stmt 1 discriminator 3
	li	a2,8
	addi	a1,sp,8
	addi	a0,sp,16
	call	memcpy
.LVL19:
	.loc 1 73 4 discriminator 3
	.loc 1 73 9 is_stmt 0 discriminator 3
	lbu	a4,23(sp)
	add	a5,s0,s4
	.loc 1 75 4 discriminator 3
	mv	a1,s5
	.loc 1 73 9 discriminator 3
	xor	a5,a5,a4
	.loc 1 75 4 discriminator 3
	li	a2,8
	addi	a0,sp,24
	.loc 1 73 9 discriminator 3
	sb	a5,23(sp)
	.loc 1 75 4 is_stmt 1 discriminator 3
	call	memcpy
.LVL20:
	.loc 1 76 4 discriminator 3
	addi	a2,sp,16
	mv	a1,a2
	mv	a0,s2
	call	wpa_aes_decrypt
.LVL21:
	.loc 1 77 4 discriminator 3
	li	a2,8
	addi	a1,sp,16
	addi	a0,sp,8
	call	memcpy
.LVL22:
	.loc 1 78 4 discriminator 3
	mv	a0,s5
	li	a2,8
	addi	a1,sp,24
	call	memcpy
.LVL23:
	.loc 1 79 4 discriminator 3
	.loc 1 79 6 is_stmt 0 discriminator 3
	addi	s5,s5,-8
.LVL24:
	.loc 1 71 23 is_stmt 1 discriminator 3
	.loc 1 71 24 is_stmt 0 discriminator 3
	addi	s4,s4,-1
.LVL25:
	j	.L3
.LVL26:
.L2:
	.loc 1 60 10
	li	a0,-1
	j	.L1
	.cfi_endproc
.LFE69:
	.size	aes_unwrap, .-aes_unwrap
	.text
.Letext0:
	.file 2 "/mnt/d/GitHub/bl_iot_sdk_for_aithinker/toolchain/riscv/Linux/riscv64-unknown-elf/include/machine/_default_types.h"
	.file 3 "/mnt/d/GitHub/bl_iot_sdk_for_aithinker/toolchain/riscv/Linux/riscv64-unknown-elf/include/sys/_stdint.h"
	.file 4 "/mnt/d/GitHub/bl_iot_sdk_for_aithinker/toolchain/riscv/Linux/riscv64-unknown-elf/include/string.h"
	.file 5 "/mnt/d/GitHub/bl_iot_sdk_for_aithinker/components/security/wpa_supplicant/src/crypto/aes.h"
	.file 6 "/mnt/d/GitHub/bl_iot_sdk_for_aithinker/components/security/wpa_supplicant/src/utils/common.h"