	.file	"md5-internal.c"
	.option nopic
	.attribute arch, "rv32i2p0_m2p0_f2p0_c2p0"
	.attribute unaligned_access, 0
	.attribute stack_align, 16
	.text
.Ltext0:
	.cfi_sections	.debug_frame
	.section	.text.MD5Transform,"ax",@progbits
	.align	1
	.type	MD5Transform, @function
MD5Transform:
.LFB73:
	.file 1 "/mnt/d/GitHub/bl_iot_sdk_for_aithinker/components/security/wpa_supplicant/src/crypto/md5-internal.c"
	.loc 1 217 1
	.cfi_startproc
.LVL0:
	.loc 1 218 5
	.loc 1 220 5
	.loc 1 217 1 is_stmt 0
	addi	sp,sp,-48
	.cfi_def_cfa_offset 48
	sw	s4,28(sp)
	sw	s7,16(sp)
	sw	s8,12(sp)
	sw	s9,8(sp)
	sw	s10,4(sp)
	sw	s11,0(sp)
	sw	s0,44(sp)
	sw	s1,40(sp)
	sw	s2,36(sp)
	sw	s3,32(sp)
	sw	s5,24(sp)
	sw	s6,20(sp)
	.cfi_offset 20, -20
	.cfi_offset 23, -32
	.cfi_offset 24, -36
	.cfi_offset 25, -40
	.cfi_offset 26, -44
	.cfi_offset 27, -48
	.cfi_offset 8, -4
	.cfi_offset 9, -8
	.cfi_offset 18, -12
	.cfi_offset 19, -16
	.cfi_offset 21, -24
	.cfi_offset 22, -28
	.loc 1 225 36
	lw	s6,0(a1)
	.loc 1 222 7
	lw	s7,8(a0)
	.loc 1 223 7
	lw	s8,12(a0)
	.loc 1 220 7
	lw	s9,0(a0)
.LVL1:
	.loc 1 221 5 is_stmt 1
	li	a5,-680878080
	.loc 1 221 7 is_stmt 0
	lw	a6,4(a0)
.LVL2:
	.loc 1 222 5 is_stmt 1
	.loc 1 223 5
	.loc 1 225 5
	addi	a5,a5,1144
	add	a5,s6,a5
	add	a4,a5,s9
	.loc 1 225 25 is_stmt 0
	xor	a5,s7,s8
	.loc 1 225 20
	and	a5,a5,a6
	.loc 1 226 36
	lw	t2,4(a1)
	.loc 1 225 15
	xor	a5,a5,s8
	.loc 1 225 9
	add	a5,a5,a4
.LVL3:
	li	a2,-389566464
	.loc 1 225 56
	slli	a4,a5,7
	addi	a2,a2,1878
	srli	a5,a5,25
.LVL4:
	add	a2,t2,a2
	or	a5,a5,a4
.LVL5:
	.loc 1 225 78
	add	a5,a6,a5
.LVL6:
	.loc 1 226 5 is_stmt 1
	add	a4,a2,s8
	.loc 1 226 25 is_stmt 0
	xor	a2,a6,s7
	.loc 1 226 20
	and	a2,a2,a5
	.loc 1 227 36
	lw	t1,8(a1)
	.loc 1 226 15
	xor	a2,a2,s7
	.loc 1 226 9
	add	a2,a2,a4
.LVL7:
	li	a3,606105600
	.loc 1 226 56
	slli	a4,a2,12
	addi	a3,a3,219
	srli	a2,a2,20
.LVL8:
	or	a2,a2,a4
.LVL9:
	add	a3,t1,a3
	.loc 1 226 80
	add	a2,a5,a2
.LVL10:
	.loc 1 227 5 is_stmt 1
	add	a4,a3,s7
	.loc 1 227 25 is_stmt 0
	xor	a3,a6,a5
	.loc 1 227 20
	and	a3,a3,a2
	.loc 1 227 15
	xor	a3,a3,a6
	.loc 1 227 9
	add	a3,a3,a4
.LVL11:
	.loc 1 228 36
	lw	s1,12(a1)
	.loc 1 227 56
	srli	a4,a3,15
	slli	a3,a3,17
.LVL12:
	or	a3,a3,a4
.LVL13:
	li	a4,-1044525056
	addi	a4,a4,-274
	add	a4,s1,a4
	.loc 1 227 80
	add	a3,a2,a3
.LVL14:
	.loc 1 228 5 is_stmt 1
	add	a7,a4,a6
	.loc 1 228 25 is_stmt 0
	xor	a4,a5,a2
	.loc 1 228 20
	and	a4,a4,a3
	.loc 1 228 15
	xor	a4,a4,a5
	.loc 1 228 9
	add	a4,a4,a7
.LVL15:
	.loc 1 229 36
	lw	t4,16(a1)
	.loc 1 228 56
	srli	a7,a4,10
	slli	a4,a4,22
.LVL16:
	or	a4,a4,a7
.LVL17:
	li	a7,-176418816
	addi	a7,a7,-81
	add	a7,t4,a7
	.loc 1 228 80
	add	a4,a3,a4
.LVL18:
	.loc 1 229 5 is_stmt 1
	add	a7,a7,a5
	.loc 1 229 25 is_stmt 0
	xor	a5,a2,a3
.LVL19:
	.loc 1 229 20
	and	a5,a5,a4
	.loc 1 229 15
	xor	a5,a5,a2
	.loc 1 229 9
	add	a5,a5,a7
.LVL20:
	.loc 1 230 36
	lw	s3,20(a1)
	.loc 1 229 56
	slli	a7,a5,7
	srli	a5,a5,25
.LVL21:
	or	a5,a5,a7
.LVL22:
	li	a7,1200078848
	addi	a7,a7,1578
	add	a7,s3,a7
	.loc 1 229 78
	add	a5,a4,a5
.LVL23:
	.loc 1 230 5 is_stmt 1
	add	a7,a7,a2
	.loc 1 230 25 is_stmt 0
	xor	a2,a3,a4
.LVL24:
	.loc 1 230 20
	and	a2,a2,a5
	.loc 1 230 15
	xor	a2,a2,a3
	.loc 1 230 9
	add	a2,a2,a7
.LVL25:
	.loc 1 231 36
	lw	t6,24(a1)
	.loc 1 230 56
	slli	a7,a2,12
	srli	a2,a2,20
.LVL26:
	or	a2,a2,a7
.LVL27:
	li	a7,-1473232896
	addi	a7,a7,1555
	add	a7,t6,a7
	.loc 1 230 80
	add	a2,a5,a2
.LVL28:
	.loc 1 231 5 is_stmt 1
	add	a7,a7,a3
	.loc 1 231 25 is_stmt 0
	xor	a3,a4,a5
.LVL29:
	.loc 1 231 20
	and	a3,a3,a2
	.loc 1 231 15
	xor	a3,a3,a4
	.loc 1 231 9
	add	a3,a3,a7
.LVL30:
	.loc 1 232 36
	lw	s5,28(a1)
	.loc 1 231 56
	srli	a7,a3,15
	slli	a3,a3,17
.LVL31:
	or	a3,a3,a7
.LVL32:
	li	a7,-45707264
	addi	a7,a7,1281
	add	a7,s5,a7
	.loc 1 231 80
	add	a3,a2,a3
.LVL33:
	.loc 1 232 5 is_stmt 1
	add	a7,a7,a4
	.loc 1 232 25 is_stmt 0
	xor	a4,a5,a2
.LVL34:
	.loc 1 232 20
	and	a4,a4,a3
	.loc 1 232 15
	xor	a4,a4,a5
	.loc 1 232 9
	add	a4,a4,a7
.LVL35:
	.loc 1 233 36
	lw	t0,32(a1)
	.loc 1 232 56
	srli	a7,a4,10
	slli	a4,a4,22
.LVL36:
	or	a4,a4,a7
.LVL37:
	li	a7,1770037248
	addi	a7,a7,-1832
	add	a7,t0,a7
	.loc 1 232 80
	add	a4,a3,a4
.LVL38:
	.loc 1 233 5 is_stmt 1
	add	a7,a7,a5
	.loc 1 233 25 is_stmt 0
	xor	a5,a2,a3
.LVL39:
	.loc 1 233 20
	and	a5,a5,a4
	.loc 1 233 15
	xor	a5,a5,a2
	.loc 1 233 9
	add	a5,a5,a7
.LVL40:
	.loc 1 233 56
	slli	a7,a5,7
	srli	a5,a5,25
.LVL41:
	or	a5,a5,a7
.LVL42:
	.loc 1 234 36
	lw	a7,36(a1)
	li	t3,-1958416384
	addi	t3,t3,1967
	add	t3,a7,t3
	.loc 1 233 78
	add	a5,a4,a5
.LVL43:
	.loc 1 234 5 is_stmt 1
	add	t3,t3,a2
	.loc 1 234 25 is_stmt 0
	xor	a2,a3,a4
.LVL44:
	.loc 1 234 20
	and	a2,a2,a5
	.loc 1 234 15
	xor	a2,a2,a3
	.loc 1 234 9
	add	a2,a2,t3
.LVL45:
	.loc 1 235 36
	lw	s0,40(a1)
	.loc 1 234 56
	slli	t3,a2,12
	srli	a2,a2,20
.LVL46:
	or	a2,a2,t3
.LVL47:
	li	t3,-40960
	addi	t3,t3,-1103
	add	t3,s0,t3
	.loc 1 234 80
	add	a2,a5,a2
.LVL48:
	.loc 1 235 5 is_stmt 1
	add	t3,t3,a3
	.loc 1 235 25 is_stmt 0
	xor	a3,a4,a5
.LVL49:
	.loc 1 235 20
	and	a3,a3,a2
	.loc 1 235 15
	xor	a3,a3,a4
	.loc 1 235 9
	add	a3,a3,t3
.LVL50:
	.loc 1 235 57
	srli	t3,a3,15
	slli	a3,a3,17
.LVL51:
	or	a3,a3,t3
.LVL52:
	.loc 1 236 36
	lw	t3,44(a1)
	li	t5,-1990406144
	addi	t5,t5,1982
	add	t5,t3,t5
	.loc 1 235 81
	add	a3,a2,a3
.LVL53:
	.loc 1 236 5 is_stmt 1
	add	t5,t5,a4
	.loc 1 236 25 is_stmt 0
	xor	a4,a5,a2
.LVL54:
	.loc 1 236 20
	and	a4,a4,a3
	.loc 1 236 15
	xor	a4,a4,a5
	.loc 1 236 9
	add	a4,a4,t5
.LVL55:
	.loc 1 237 36
	lw	s2,48(a1)
	.loc 1 236 57
	srli	t5,a4,10
	slli	a4,a4,22
.LVL56:
	or	a4,a4,t5
.LVL57:
	li	t5,1804603392
	addi	t5,t5,290
	add	t5,s2,t5
	.loc 1 236 81
	add	a4,a3,a4
.LVL58:
	.loc 1 237 5 is_stmt 1
	add	t5,t5,a5
	.loc 1 237 25 is_stmt 0
	xor	a5,a2,a3
.LVL59:
	.loc 1 237 20
	and	a5,a5,a4
	.loc 1 237 15
	xor	a5,a5,a2
	.loc 1 237 9
	add	a5,a5,t5
.LVL60:
	.loc 1 237 57
	slli	t5,a5,7
	srli	a5,a5,25
.LVL61:
	or	a5,a5,t5
.LVL62:
	.loc 1 238 36
	lw	t5,52(a1)
	li	s4,-40341504
	addi	s4,s4,403
	add	s4,t5,s4
	.loc 1 237 79
	add	a5,a4,a5
.LVL63:
	.loc 1 238 5 is_stmt 1
	add	s4,s4,a2
	.loc 1 238 25 is_stmt 0
	xor	a2,a3,a4
.LVL64:
	.loc 1 238 20
	and	a2,a2,a5
	.loc 1 238 15
	xor	a2,a2,a3
	.loc 1 238 9
	add	a2,a2,s4
.LVL65:
	.loc 1 238 57
	slli	s4,a2,12
	srli	a2,a2,20
.LVL66:
	or	a2,a2,s4
.LVL67:
	.loc 1 239 36
	lw	s4,56(a1)
	li	s10,-1502003200
	addi	s10,s10,910
	add	s10,s4,s10
	.loc 1 238 81
	add	a2,a5,a2
.LVL68:
	.loc 1 239 5 is_stmt 1
	add	s10,s10,a3
	.loc 1 239 25 is_stmt 0
	xor	a3,a4,a5
.LVL69:
	.loc 1 239 20
	and	a3,a3,a2
	.loc 1 239 15
	xor	a3,a3,a4
	.loc 1 239 9
	add	a3,a3,s10
.LVL70:
	.loc 1 240 36
	lw	a1,60(a1)
.LVL71:
	.loc 1 239 57
	srli	s10,a3,15
	slli	a3,a3,17
.LVL72:
	or	a3,a3,s10
.LVL73:
	li	s10,1236537344
	addi	s10,s10,-2015
	add	s10,a1,s10
	.loc 1 239 81
	add	a3,a2,a3
.LVL74:
	.loc 1 240 5 is_stmt 1
	add	s10,s10,a4
	.loc 1 240 25 is_stmt 0
	xor	a4,a5,a2
.LVL75:
	.loc 1 240 20
	and	a4,a4,a3
	.loc 1 240 15
	xor	a4,a4,a5
	.loc 1 240 9
	add	a4,a4,s10
.LVL76:
	.loc 1 240 57
	srli	s10,a4,10
	slli	a4,a4,22
.LVL77:
	or	a4,a4,s10
.LVL78:
	li	s10,-165797888
	addi	s10,s10,1378
	.loc 1 240 81
	add	a4,a3,a4
.LVL79:
	.loc 1 242 5 is_stmt 1
	add	s10,t2,s10
	add	s10,s10,a5
	.loc 1 242 25 is_stmt 0
	xor	a5,a3,a4
.LVL80:
	.loc 1 242 20
	and	a5,a5,a2
	.loc 1 242 15
	xor	a5,a5,a3
	.loc 1 242 9
	add	a5,a5,s10
.LVL81:
	.loc 1 242 56
	slli	s10,a5,5
	srli	a5,a5,27
.LVL82:
	or	a5,a5,s10
.LVL83:
	li	s10,-1069502464
	addi	s10,s10,832
	.loc 1 242 78
	add	a5,a4,a5
.LVL84:
	.loc 1 243 5 is_stmt 1
	add	s10,t6,s10
	add	s10,s10,a2
	.loc 1 243 25 is_stmt 0
	xor	a2,a4,a5
.LVL85:
	.loc 1 243 20
	and	a2,a2,a3
	.loc 1 243 15
	xor	a2,a2,a4
	.loc 1 243 9
	add	a2,a2,s10
.LVL86:
	.loc 1 243 56
	slli	s10,a2,9
	srli	a2,a2,23
.LVL87:
	or	a2,a2,s10
.LVL88:
	li	s10,643719168
	addi	s10,s10,-1455
	.loc 1 243 78
	add	a2,a5,a2
.LVL89:
	.loc 1 244 5 is_stmt 1
	add	s10,t3,s10
	add	s10,s10,a3
	.loc 1 244 25 is_stmt 0
	xor	a3,a5,a2
.LVL90:
	.loc 1 244 20
	and	a3,a3,a4
	.loc 1 244 15
	xor	a3,a3,a5
	.loc 1 244 9
	add	a3,a3,s10
.LVL91:
	.loc 1 244 57
	slli	s10,a3,14
	srli	a3,a3,18
.LVL92:
	or	a3,a3,s10
.LVL93:
	li	s10,-373899264
	addi	s10,s10,1962
	.loc 1 244 81
	add	a3,a2,a3
.LVL94:
	.loc 1 245 5 is_stmt 1
	add	s10,s6,s10
	add	s10,s10,a4
	.loc 1 245 25 is_stmt 0
	xor	a4,a2,a3
.LVL95:
	.loc 1 245 20
	and	a4,a4,a5
	.loc 1 245 15
	xor	a4,a4,a2
	.loc 1 245 9
	add	a4,a4,s10
.LVL96:
	.loc 1 245 56
	srli	s10,a4,12
	slli	a4,a4,20
.LVL97:
	or	a4,a4,s10
.LVL98:
	li	s10,-701558784
	addi	s10,s10,93
	.loc 1 245 80
	add	a4,a3,a4
.LVL99:
	.loc 1 246 5 is_stmt 1
	add	s10,s3,s10
	add	s10,s10,a5
	.loc 1 246 25 is_stmt 0
	xor	a5,a3,a4
.LVL100:
	.loc 1 246 20
	and	a5,a5,a2
	.loc 1 246 15
	xor	a5,a5,a3
	.loc 1 246 9
	add	a5,a5,s10
.LVL101:
	.loc 1 246 56
	slli	s10,a5,5
	srli	a5,a5,27
.LVL102:
	or	a5,a5,s10
.LVL103:
	li	s10,38014976
	addi	s10,s10,1107
	.loc 1 246 78
	add	a5,a4,a5
.LVL104:
	.loc 1 247 5 is_stmt 1
	add	s10,s0,s10
	add	s10,s10,a2
	.loc 1 247 25 is_stmt 0
	xor	a2,a4,a5
.LVL105:
	.loc 1 247 20
	and	a2,a2,a3
	.loc 1 247 15
	xor	a2,a2,a4
	.loc 1 247 9
	add	a2,a2,s10
.LVL106:
	.loc 1 247 57
	slli	s10,a2,9
	srli	a2,a2,23
.LVL107:
	or	a2,a2,s10
.LVL108:
	li	s10,-660480000
	addi	s10,s10,1665
	.loc 1 247 79
	add	a2,a5,a2
.LVL109:
	.loc 1 248 5 is_stmt 1
	add	s10,a1,s10
	add	s10,s10,a3
	.loc 1 248 25 is_stmt 0
	xor	a3,a5,a2
.LVL110:
	.loc 1 248 20
	and	a3,a3,a4
	.loc 1 248 15
	xor	a3,a3,a5
	.loc 1 248 9
	add	a3,a3,s10
.LVL111:
	.loc 1 248 57
	slli	s10,a3,14
	srli	a3,a3,18
.LVL112:
	or	a3,a3,s10
.LVL113:
	li	s10,-405536768
	addi	s10,s10,-1080
	.loc 1 248 81
	add	a3,a2,a3
.LVL114:
	.loc 1 249 5 is_stmt 1
	add	s10,t4,s10
	add	s10,s10,a4
	.loc 1 249 25 is_stmt 0
	xor	a4,a2,a3
.LVL115:
	.loc 1 249 20
	and	a4,a4,a5
	.loc 1 249 15
	xor	a4,a4,a2
	.loc 1 249 9
	add	a4,a4,s10
.LVL116:
	.loc 1 249 56
	srli	s10,a4,12
	slli	a4,a4,20
.LVL117:
	or	a4,a4,s10
.LVL118:
	li	s10,568446976
	addi	s10,s10,-538
	.loc 1 249 80
	add	a4,a3,a4
.LVL119:
	.loc 1 250 5 is_stmt 1
	add	s10,a7,s10
	add	s10,s10,a5
	.loc 1 250 25 is_stmt 0
	xor	a5,a3,a4
.LVL120:
	.loc 1 250 20
	and	a5,a5,a2
	.loc 1 250 15
	xor	a5,a5,a3
	.loc 1 250 9
	add	a5,a5,s10
.LVL121:
	.loc 1 250 56
	slli	s10,a5,5
	srli	a5,a5,27
.LVL122:
	or	a5,a5,s10
.LVL123:
	li	s10,-1019805696
	addi	s10,s10,2006
	.loc 1 250 78
	add	a5,a4,a5
.LVL124:
	.loc 1 251 5 is_stmt 1
	add	s10,s4,s10
	add	s10,s10,a2
	.loc 1 251 25 is_stmt 0
	xor	a2,a4,a5
.LVL125:
	.loc 1 251 20
	and	a2,a2,a3
	.loc 1 251 15
	xor	a2,a2,a4
	.loc 1 251 9
	add	a2,a2,s10
.LVL126:
	.loc 1 251 57
	slli	s10,a2,9
	srli	a2,a2,23
.LVL127:
	or	a2,a2,s10
.LVL128:
	li	s10,-187363328
	addi	s10,s10,-633
	.loc 1 251 79
	add	a2,a5,a2
.LVL129:
	.loc 1 252 5 is_stmt 1
	add	s10,s1,s10
	add	s10,s10,a3
	.loc 1 252 25 is_stmt 0
	xor	a3,a5,a2
.LVL130:
	.loc 1 252 20
	and	a3,a3,a4
	.loc 1 252 15
	xor	a3,a3,a5
	.loc 1 252 9
	add	a3,a3,s10
.LVL131:
	.loc 1 252 56
	slli	s10,a3,14
	srli	a3,a3,18
.LVL132:
	or	a3,a3,s10
.LVL133:
	li	s10,1163530240
	addi	s10,s10,1261
	.loc 1 252 80
	add	a3,a2,a3
.LVL134:
	.loc 1 253 5 is_stmt 1
	add	s10,t0,s10
	add	s10,s10,a4
	.loc 1 253 25 is_stmt 0
	xor	a4,a2,a3
.LVL135:
	.loc 1 253 20
	and	a4,a4,a5
	.loc 1 253 15
	xor	a4,a4,a2
	.loc 1 253 9
	add	a4,a4,s10
.LVL136:
	.loc 1 253 56
	srli	s10,a4,12
	slli	a4,a4,20
.LVL137:
	or	a4,a4,s10
.LVL138:
	li	s10,-1444679680
	addi	s10,s10,-1787
	.loc 1 253 80
	add	a4,a3,a4
.LVL139:
	.loc 1 254 5 is_stmt 1
	add	s10,t5,s10
	add	s10,s10,a5
	.loc 1 254 25 is_stmt 0
	xor	a5,a3,a4
.LVL140:
	.loc 1 254 20
	and	a5,a5,a2
	.loc 1 254 15
	xor	a5,a5,a3
	.loc 1 254 9
	add	a5,a5,s10
.LVL141:
	.loc 1 254 57
	slli	s10,a5,5
	srli	a5,a5,27
.LVL142:
	or	a5,a5,s10
.LVL143:
	li	s10,-51404800
	addi	s10,s10,1016
	.loc 1 254 79
	add	a5,a4,a5
.LVL144:
	.loc 1 255 5 is_stmt 1
	add	s10,t1,s10
	add	s10,s10,a2
	.loc 1 255 25 is_stmt 0
	xor	a2,a4,a5
.LVL145:
	.loc 1 255 20
	and	a2,a2,a3
	.loc 1 255 15
	xor	a2,a2,a4
	.loc 1 255 9
	add	a2,a2,s10
.LVL146:
	.loc 1 255 56
	slli	s10,a2,9
	srli	a2,a2,23
.LVL147:
	or	a2,a2,s10
.LVL148:
	li	s10,1735327744
	addi	s10,s10,729
	.loc 1 255 78
	add	a2,a5,a2
.LVL149:
	.loc 1 256 5 is_stmt 1
	add	s10,s5,s10
	add	s10,s10,a3
	.loc 1 256 25 is_stmt 0
	xor	a3,a5,a2
.LVL150:
	.loc 1 256 20
	and	a3,a3,a4
	.loc 1 256 15
	xor	a3,a3,a5
	.loc 1 256 9
	add	a3,a3,s10
.LVL151:
	.loc 1 256 56
	slli	s10,a3,14
	srli	a3,a3,18
.LVL152:
	or	a3,a3,s10
.LVL153:
	li	s11,-1926606848
	.loc 1 256 80
	add	a3,a2,a3
.LVL154:
	.loc 1 257 5 is_stmt 1
	addi	s11,s11,-886
	.loc 1 257 25 is_stmt 0
	xor	s10,a2,a3
	add	s11,s2,s11
	add	s11,s11,a4
	.loc 1 257 20
	and	a4,s10,a5
.LVL155:
	.loc 1 257 15
	xor	a4,a4,a2
	.loc 1 257 9
	add	a4,a4,s11
.LVL156:
	.loc 1 257 57
	srli	s11,a4,12
	slli	a4,a4,20
.LVL157:
	or	a4,a4,s11
.LVL158:
	li	s11,-376832
	addi	s11,s11,-1726
	.loc 1 257 81
	add	a4,a3,a4
.LVL159:
	.loc 1 259 5 is_stmt 1
	add	s11,s3,s11
	add	s11,s11,a5
	.loc 1 259 19 is_stmt 0
	xor	a5,s10,a4
.LVL160:
	.loc 1 259 9
	add	a5,a5,s11
.LVL161:
	.loc 1 259 48
	slli	s10,a5,4
	srli	a5,a5,28
.LVL162:
	or	a5,a5,s10
.LVL163:
	li	s10,-2022576128
	addi	s10,s10,1665
	add	s10,t0,s10
	.loc 1 259 70
	add	a5,a4,a5
.LVL164:
	.loc 1 260 5 is_stmt 1
	add	s10,s10,a2
	.loc 1 260 19 is_stmt 0
	xor	a2,a3,a4
.LVL165:
	xor	a2,a2,a5
	.loc 1 260 9
	add	a2,a2,s10
.LVL166:
	.loc 1 260 48
	slli	s10,a2,11
	srli	a2,a2,21
.LVL167:
	or	a2,a2,s10
.LVL168:
	li	s10,1839030272
	addi	s10,s10,290
	add	s10,t3,s10
	.loc 1 260 72
	add	a2,a5,a2
.LVL169:
	.loc 1 261 5 is_stmt 1
	add	s10,s10,a3
	.loc 1 261 19 is_stmt 0
	xor	a3,a4,a5
.LVL170:
	xor	a3,a3,a2
	.loc 1 261 9
	add	a3,a3,s10
.LVL171:
	.loc 1 261 49
	slli	s10,a3,16
	srli	a3,a3,16
.LVL172:
	or	a3,a3,s10
.LVL173:
	li	s10,-35307520
	addi	s10,s10,-2036
	add	s10,s4,s10
	.loc 1 261 73
	add	a3,a2,a3
.LVL174:
	.loc 1 262 5 is_stmt 1
	add	s10,s10,a4
	.loc 1 262 19 is_stmt 0
	xor	a4,a5,a2
.LVL175:
	xor	a4,a4,a3
	.loc 1 262 9
	add	a4,a4,s10
.LVL176:
	.loc 1 262 49
	srli	s10,a4,9
	slli	a4,a4,23
.LVL177:
	or	a4,a4,s10
.LVL178:
	li	s10,-1530990592
	addi	s10,s10,-1468
	add	s10,t2,s10
	.loc 1 262 73
	add	a4,a3,a4
.LVL179:
	.loc 1 263 5 is_stmt 1
	add	a5,s10,a5
.LVL180:
	.loc 1 263 19 is_stmt 0
	xor	s10,a2,a3
	xor	s10,s10,a4
	.loc 1 263 9
	add	s10,s10,a5
.LVL181:
	.loc 1 263 48
	slli	a5,s10,4
	srli	s10,s10,28
.LVL182:
	or	s10,s10,a5
.LVL183:
	li	a5,1272893440
	addi	a5,a5,-87
	add	a5,t4,a5
	.loc 1 263 70
	add	s10,a4,s10
.LVL184:
	.loc 1 264 5 is_stmt 1
	add	a2,a5,a2
.LVL185:
	.loc 1 264 19 is_stmt 0
	xor	a5,a3,a4
	xor	a5,a5,s10
	.loc 1 264 9
	add	a5,a5,a2
.LVL186:
	.loc 1 264 48
	slli	a2,a5,11
	srli	a5,a5,21
.LVL187:
	or	a5,a5,a2
.LVL188:
	li	a2,-155496448
	addi	a2,a2,-1184
	add	a2,s5,a2
	.loc 1 264 72
	add	a5,s10,a5
.LVL189:
	.loc 1 265 5 is_stmt 1
	add	a3,a2,a3
.LVL190:
	.loc 1 265 19 is_stmt 0
	xor	a2,a4,s10
	xor	a2,a2,a5
	.loc 1 265 9
	add	a2,a2,a3
.LVL191:
	li	s11,-1094729728
	.loc 1 265 48
	slli	a3,a2,16
	addi	s11,s11,-912
	srli	a2,a2,16
.LVL192:
	add	s11,s0,s11
	or	a2,a2,a3
.LVL193:
	.loc 1 265 72
	add	a2,a5,a2
.LVL194:
	.loc 1 266 5 is_stmt 1
	add	a4,s11,a4
.LVL195:
	.loc 1 266 19 is_stmt 0
	xor	s11,s10,a5
	xor	s11,s11,a2
	.loc 1 266 9
	add	s11,s11,a4
.LVL196:
	.loc 1 266 49
	srli	a4,s11,9
	slli	s11,s11,23
.LVL197:
	or	s11,s11,a4
.LVL198:
	li	a4,681279488
	addi	a4,a4,-314
	add	a4,t5,a4
	.loc 1 266 73
	add	s11,a2,s11
.LVL199:
	.loc 1 267 5 is_stmt 1
	add	s10,a4,s10
.LVL200:
	.loc 1 267 19 is_stmt 0
	xor	a4,a5,a2
	xor	a4,a4,s11
	.loc 1 267 9
	add	a4,a4,s10
.LVL201:
	.loc 1 267 49
	slli	a3,a4,4
	srli	a4,a4,28
.LVL202:
	or	a4,a4,a3
.LVL203:
	li	a3,-358539264
	addi	a3,a3,2042
	add	a3,s6,a3
	.loc 1 267 71
	add	a4,s11,a4
.LVL204:
	.loc 1 268 5 is_stmt 1
	add	a5,a3,a5
.LVL205:
	.loc 1 268 19 is_stmt 0
	xor	a3,a2,s11
	xor	a3,a3,a4
	.loc 1 268 9
	add	a3,a3,a5
.LVL206:
	.loc 1 268 48
	slli	a5,a3,11
	srli	a3,a3,21
.LVL207:
	or	a3,a3,a5
.LVL208:
	li	a5,-722522112
	addi	a5,a5,133
	add	a5,s1,a5
	.loc 1 268 72
	add	a3,a4,a3
.LVL209:
	.loc 1 269 5 is_stmt 1
	add	a5,a5,a2
	.loc 1 269 19 is_stmt 0
	xor	a2,s11,a4
.LVL210:
	xor	a2,a2,a3
	.loc 1 269 9
	add	a2,a2,a5
.LVL211:
	.loc 1 269 48
	slli	a5,a2,16
	srli	a2,a2,16
.LVL212:
	or	a2,a2,a5
.LVL213:
	li	a5,76029952
	addi	a5,a5,-763
	add	a5,t6,a5
	.loc 1 269 72
	add	a2,a3,a2
.LVL214:
	.loc 1 270 5 is_stmt 1
	add	s11,a5,s11
.LVL215:
	.loc 1 270 19 is_stmt 0
	xor	a5,a4,a3
	xor	a5,a5,a2
	.loc 1 270 9
	add	a5,a5,s11
.LVL216:
	.loc 1 270 48
	srli	s10,a5,9
	slli	a5,a5,23
.LVL217:
	or	a5,a5,s10
.LVL218:
	li	s10,-640364544
	addi	s10,s10,57
	add	s10,a7,s10
	.loc 1 270 72
	add	a5,a2,a5
.LVL219:
	.loc 1 271 5 is_stmt 1
	add	s10,s10,a4
	.loc 1 271 19 is_stmt 0
	xor	a4,a3,a2
.LVL220:
	xor	a4,a4,a5
	.loc 1 271 9
	add	a4,a4,s10
.LVL221:
	.loc 1 271 48
	slli	s10,a4,4
	srli	a4,a4,28
.LVL222:
	or	a4,a4,s10
.LVL223:
	li	s10,-421814272
	addi	s10,s10,-1563
	add	s10,s2,s10
	.loc 1 271 70
	add	a4,a5,a4
.LVL224:
	.loc 1 272 5 is_stmt 1
	add	a3,s10,a3
.LVL225:
	.loc 1 272 19 is_stmt 0
	xor	s10,a2,a5
	xor	s10,s10,a4
	.loc 1 272 9
	add	s10,s10,a3
.LVL226:
	.loc 1 272 49
	slli	a3,s10,11
	srli	s10,s10,21
.LVL227:
	or	s10,s10,a3
.LVL228:
	li	a3,530743296
	addi	a3,a3,-776
	add	a3,a1,a3
	.loc 1 272 73
	add	s10,a4,s10
.LVL229:
	.loc 1 273 5 is_stmt 1
	add	a2,a3,a2
.LVL230:
	.loc 1 273 19 is_stmt 0
	xor	a3,a5,a4
	xor	a3,a3,s10
	.loc 1 273 9
	add	a3,a3,a2
.LVL231:
	.loc 1 273 49
	slli	a2,a3,16
	srli	a3,a3,16
.LVL232:
	or	a3,a3,a2
.LVL233:
	li	a2,-995340288
	addi	a2,a2,1637
	add	a2,t1,a2
	.loc 1 273 73
	add	a3,s10,a3
.LVL234:
	.loc 1 274 5 is_stmt 1
	add	a2,a2,a5
	.loc 1 274 19 is_stmt 0
	xor	a5,a4,s10
.LVL235:
	xor	a5,a5,a3
	.loc 1 274 9
	add	a5,a5,a2
.LVL236:
	.loc 1 274 48
	srli	a2,a5,9
	slli	a5,a5,23
.LVL237:
	or	a5,a5,a2
.LVL238:
	li	a2,-198631424
	addi	a2,a2,580
	add	s6,s6,a2
	.loc 1 274 72
	add	a5,a3,a5
.LVL239:
	.loc 1 276 5 is_stmt 1
	add	a4,s6,a4
.LVL240:
	.loc 1 276 22 is_stmt 0
	not	s6,s10
	.loc 1 276 20
	or	s6,s6,a5
	.loc 1 276 15
	xor	s6,s6,a3
	.loc 1 276 9
	add	s6,s6,a4
.LVL241:
	.loc 1 276 51
	slli	a4,s6,6
	srli	s6,s6,26
.LVL242:
	or	s6,s6,a4
.LVL243:
	li	a4,1126891520
	addi	a4,a4,-105
	add	a4,s5,a4
	.loc 1 276 73
	add	s6,a5,s6
.LVL244:
	.loc 1 277 5 is_stmt 1
	add	s10,a4,s10
.LVL245:
	.loc 1 277 22 is_stmt 0
	not	a4,a3
	.loc 1 277 20
	or	a4,a4,s6
	.loc 1 277 15
	xor	a4,a4,a5
	.loc 1 277 9
	add	a4,a4,s10
.LVL246:
	.loc 1 277 51
	slli	a2,a4,10
	srli	a4,a4,22
.LVL247:
	or	a4,a4,a2
.LVL248:
	li	a2,-1416355840
	addi	a2,a2,935
	add	s4,s4,a2
	.loc 1 277 75
	add	a4,s6,a4
.LVL249:
	.loc 1 278 5 is_stmt 1
	add	s4,s4,a3
	.loc 1 278 22 is_stmt 0
	not	a3,a5
.LVL250:
	.loc 1 278 20
	or	a3,a3,a4
	.loc 1 278 15
	xor	a3,a3,s6
	.loc 1 278 9
	add	a3,a3,s4
.LVL251:
	.loc 1 278 52
	slli	a2,a3,15
	srli	a3,a3,17
.LVL252:
	or	a3,a3,a2
.LVL253:
	li	a2,-57434112
	addi	a2,a2,57
	add	a2,s3,a2
	.loc 1 278 76
	add	a3,a4,a3
.LVL254:
	.loc 1 279 5 is_stmt 1
	add	a5,a2,a5
.LVL255:
	.loc 1 279 22 is_stmt 0
	not	a2,s6
	.loc 1 279 20
	or	a2,a2,a3
	.loc 1 279 15
	xor	a2,a2,a4
	.loc 1 279 9
	add	a2,a2,a5
.LVL256:
	.loc 1 279 51
	srli	a5,a2,11
	slli	a2,a2,21
.LVL257:
	or	a2,a2,a5
.LVL258:
	li	a5,1700487168
	addi	a5,a5,-1597
	add	a5,s2,a5
	.loc 1 279 75
	add	a2,a3,a2
.LVL259:
	.loc 1 280 5 is_stmt 1
	add	s6,a5,s6
.LVL260:
	.loc 1 280 22 is_stmt 0
	not	a5,a4
	.loc 1 280 20
	or	a5,a5,a2
	.loc 1 280 15
	xor	a5,a5,a3
	.loc 1 280 9
	add	a5,a5,s6
.LVL261:
	.loc 1 280 52
	slli	s2,a5,6
	srli	a5,a5,26
.LVL262:
	or	a5,a5,s2
.LVL263:
	li	s2,-1894985728
	addi	s2,s2,-878
	add	s1,s1,s2
	.loc 1 280 74
	add	a5,a2,a5
.LVL264:
	.loc 1 281 5 is_stmt 1
	add	s1,s1,a4
	.loc 1 281 22 is_stmt 0
	not	a4,a3
.LVL265:
	.loc 1 281 20
	or	a4,a4,a5
	.loc 1 281 15
	xor	a4,a4,a2
	.loc 1 281 9
	add	a4,a4,s1
.LVL266:
	.loc 1 281 51
	slli	s1,a4,10
	srli	a4,a4,22
.LVL267:
	or	a4,a4,s1
.LVL268:
	li	s1,-1052672
	addi	s1,s1,1149
	add	s0,s0,s1
	.loc 1 281 75
	add	a4,a5,a4
.LVL269:
	.loc 1 282 5 is_stmt 1
	add	s0,s0,a3
	.loc 1 282 22 is_stmt 0
	not	a3,a2
.LVL270:
	.loc 1 282 20
	or	a3,a3,a4
	.loc 1 282 15
	xor	a3,a3,a5
	.loc 1 282 9
	add	a3,a3,s0
.LVL271:
	.loc 1 282 52
	slli	s0,a3,15
	srli	a3,a3,17
.LVL272:
	or	a3,a3,s0
.LVL273:
	li	s0,-2054922240
	addi	s0,s0,-559
	add	t2,t2,s0
	.loc 1 282 76
	add	a3,a4,a3
.LVL274:
	.loc 1 283 5 is_stmt 1
	add	t2,t2,a2
	.loc 1 283 22 is_stmt 0
	not	a2,a5
.LVL275:
	.loc 1 283 20
	or	a2,a2,a3
	.loc 1 283 15
	xor	a2,a2,a4
	.loc 1 283 9
	add	a2,a2,t2
.LVL276:
	.loc 1 283 51
	srli	t2,a2,11
	slli	a2,a2,21
.LVL277:
	or	a2,a2,t2
.LVL278:
	li	t2,1873313792
	addi	t2,t2,-433
	add	t2,t0,t2
	.loc 1 283 75
	add	a2,a3,a2
.LVL279:
	.loc 1 284 5 is_stmt 1
	add	a5,t2,a5
.LVL280:
	.loc 1 284 22 is_stmt 0
	not	t2,a4
	.loc 1 284 20
	or	t2,t2,a2
	.loc 1 284 15
	xor	t2,t2,a3
	.loc 1 284 9
	add	t2,t2,a5
.LVL281:
	li	t0,-30613504
	.loc 1 284 51
	slli	a5,t2,6
	addi	t0,t0,1760
	srli	t2,t2,26
.LVL282:
	add	t0,a1,t0
	or	t2,t2,a5
.LVL283:
	.loc 1 284 73
	add	t2,a2,t2
.LVL284:
	.loc 1 285 5 is_stmt 1
	add	a4,t0,a4
.LVL285:
	.loc 1 285 22 is_stmt 0
	not	t0,a3
	.loc 1 285 20
	or	t0,t0,t2
	.loc 1 285 15
	xor	t0,t0,a2
	.loc 1 285 9
	add	t0,t0,a4
.LVL286:
	li	a1,-1560199168
	.loc 1 285 52
	slli	a5,t0,10
	addi	a1,a1,788
	srli	t0,t0,22
.LVL287:
	or	t0,t0,a5
.LVL288:
	add	a1,t6,a1
	.loc 1 285 76
	add	t0,t2,t0
.LVL289:
	.loc 1 286 5 is_stmt 1
	add	a3,a1,a3
.LVL290:
	.loc 1 286 22 is_stmt 0
	not	a1,a2
	.loc 1 286 20
	or	a1,a1,t0
	.loc 1 286 15
	xor	a1,a1,t2
	.loc 1 286 9
	add	a1,a1,a3
.LVL291:
	.loc 1 286 51
	slli	a5,a1,15
	srli	a1,a1,17
.LVL292:
	or	a1,a1,a5
.LVL293:
	li	a5,1309151232
	addi	a5,a5,417
	add	t5,t5,a5
	.loc 1 286 75
	add	a1,t0,a1
.LVL294:
	.loc 1 287 5 is_stmt 1
	add	t5,t5,a2
	.loc 1 287 22 is_stmt 0
	not	a2,t2
.LVL295:
	.loc 1 287 20
	or	a2,a2,a1
	.loc 1 287 15
	xor	a2,a2,t0
	.loc 1 287 9
	add	a2,a2,t5
.LVL296:
	.loc 1 287 52
	srli	a5,a2,11
	slli	a2,a2,21
.LVL297:
	or	a2,a2,a5
.LVL298:
	li	a5,-145522688
	addi	a5,a5,-382
	add	a5,t4,a5
	.loc 1 287 76
	add	a2,a1,a2
.LVL299:
	.loc 1 288 5 is_stmt 1
	add	t2,a5,t2
.LVL300:
	.loc 1 288 22 is_stmt 0
	not	a5,t0
	.loc 1 288 20
	or	a5,a5,a2
	.loc 1 288 15
	xor	a5,a5,a1
	.loc 1 288 9
	add	a5,a5,t2
.LVL301:
	.loc 1 288 51
	slli	a4,a5,6
	srli	a5,a5,26
.LVL302:
	or	a5,a5,a4
.LVL303:
	li	a4,-1120210944
	addi	a4,a4,565
	add	a4,t3,a4
	.loc 1 288 73
	add	a5,a2,a5
.LVL304:
	.loc 1 289 5 is_stmt 1
	add	t0,a4,t0
.LVL305:
	.loc 1 289 22 is_stmt 0
	not	a4,a1
	.loc 1 289 20
	or	a4,a4,a5
	.loc 1 289 15
	xor	a4,a4,a2
	.loc 1 289 9
	add	a4,a4,t0
.LVL306:
	.loc 1 289 52
	slli	a3,a4,10
	srli	a4,a4,22
.LVL307:
	or	a4,a4,a3
.LVL308:
	li	a3,718786560
	addi	a3,a3,699
	add	a3,t1,a3
	.loc 1 289 76
	add	a4,a5,a4
.LVL309:
	.loc 1 290 5 is_stmt 1
	add	a1,a3,a1
.LVL310:
	.loc 1 290 22 is_stmt 0
	not	a3,a2
	.loc 1 290 20
	or	a3,a3,a4
	.loc 1 290 15
	xor	a3,a3,a5
	.loc 1 290 9
	add	a3,a3,a1
.LVL311:
	.loc 1 290 51
	slli	a1,a3,15
	srli	a3,a3,17
.LVL312:
	or	a3,a3,a1
.LVL313:
	li	a1,-343486464
	addi	a1,a1,913
	add	a7,a7,a1
	.loc 1 290 75
	add	a3,a4,a3
.LVL314:
	.loc 1 291 5 is_stmt 1
	add	a7,a7,a2
	.loc 1 291 22 is_stmt 0
	not	a2,a5
.LVL315:
	.loc 1 291 20
	or	a2,a2,a3
	.loc 1 291 15
	xor	a2,a2,a4
	.loc 1 293 12
	add	a5,s9,a5
.LVL316:
	.loc 1 291 9
	add	a2,a2,a7
.LVL317:
	.loc 1 293 5 is_stmt 1
	.loc 1 293 12 is_stmt 0
	sw	a5,0(a0)
	.loc 1 294 5 is_stmt 1
	.loc 1 291 51 is_stmt 0
	srli	a5,a2,11
	slli	a2,a2,21
.LVL318:
	.loc 1 297 1
	lw	s0,44(sp)
	.cfi_restore 8
	.loc 1 294 12
	add	a6,a6,a3
	.loc 1 291 51
	or	a2,a5,a2
	.loc 1 295 12
	add	a3,s7,a3
.LVL319:
	.loc 1 296 12
	add	a4,s8,a4
.LVL320:
	.loc 1 294 12
	add	a6,a2,a6
	sw	a6,4(a0)
	.loc 1 295 5 is_stmt 1
	.loc 1 295 12 is_stmt 0
	sw	a3,8(a0)
	.loc 1 296 5 is_stmt 1
	.loc 1 296 12 is_stmt 0
	sw	a4,12(a0)
	.loc 1 297 1
	lw	s1,40(sp)
	.cfi_restore 9
	lw	s2,36(sp)
	.cfi_restore 18
	lw	s3,32(sp)
	.cfi_restore 19
	lw	s4,28(sp)
	.cfi_restore 20
	lw	s5,24(sp)
	.cfi_restore 21
	lw	s6,20(sp)
	.cfi_restore 22
	lw	s7,16(sp)
	.cfi_restore 23
	lw	s8,12(sp)
	.cfi_restore 24
	lw	s9,8(sp)
	.cfi_restore 25
	lw	s10,4(sp)
	.cfi_restore 26
	lw	s11,0(sp)
	.cfi_restore 27
	addi	sp,sp,48
	.cfi_def_cfa_offset 0
	jr	ra
	.cfi_endproc
.LFE73:
	.size	MD5Transform, .-MD5Transform
	.section	.text.MD5Init,"ax",@progbits
	.align	1
	.globl	MD5Init
	.type	MD5Init, @function
MD5Init:
.LFB70:
	.loc 1 93 1 is_stmt 1
	.cfi_startproc
.LVL321:
	.loc 1 94 5
	.loc 1 94 17 is_stmt 0
	li	a5,1732583424
	addi	a5,a5,769
	sw	a5,0(a0)
	.loc 1 95 5 is_stmt 1
	.loc 1 95 17 is_stmt 0
	li	a5,-271732736
	addi	a5,a5,-1143
	sw	a5,4(a0)
	.loc 1 96 5 is_stmt 1
	.loc 1 96 17 is_stmt 0
	li	a5,-1732583424
	addi	a5,a5,-770
	sw	a5,8(a0)
	.loc 1 97 5 is_stmt 1
	.loc 1 97 17 is_stmt 0
	li	a5,271732736
	addi	a5,a5,1142
	sw	a5,12(a0)
	.loc 1 99 5 is_stmt 1
	.loc 1 99 18 is_stmt 0
	sw	zero,16(a0)
	.loc 1 100 5 is_stmt 1
	.loc 1 100 18 is_stmt 0
	sw	zero,20(a0)
	.loc 1 101 1
	ret
	.cfi_endproc
.LFE70:
	.size	MD5Init, .-MD5Init
	.section	.text.MD5Update,"ax",@progbits
	.align	1
	.globl	MD5Update
	.type	MD5Update, @function
MD5Update:
.LFB71:
	.loc 1 109 1 is_stmt 1
	.cfi_startproc
.LVL322:
	.loc 1 110 5
	.loc 1 114 5
	.loc 1 109 1 is_stmt 0
	addi	sp,sp,-32
	.cfi_def_cfa_offset 32
	sw	s0,24(sp)
	sw	s1,20(sp)
	sw	s3,12(sp)
	sw	ra,28(sp)
	sw	s2,16(sp)
	sw	s4,8(sp)
	sw	s5,4(sp)
	sw	s6,0(sp)
	.cfi_offset 8, -8
	.cfi_offset 9, -12
	.cfi_offset 19, -20
	.cfi_offset 1, -4
	.cfi_offset 18, -16
	.cfi_offset 20, -24
	.cfi_offset 21, -28
	.cfi_offset 22, -32
	.loc 1 114 7
	lw	s2,16(a0)
.LVL323:
	.loc 1 115 5 is_stmt 1
	.loc 1 115 40 is_stmt 0
	slli	a5,a2,3
	.loc 1 109 1
	mv	s1,a0
	.loc 1 115 27
	add	a5,a5,s2
	.loc 1 115 23
	sw	a5,16(a0)
	.loc 1 109 1
	mv	s3,a1
	mv	s0,a2
	.loc 1 115 8
	bgeu	a5,s2,.L5
	.loc 1 116 2 is_stmt 1
	.loc 1 116 14 is_stmt 0
	lw	a5,20(a0)
	addi	a5,a5,1
	sw	a5,20(a0)
.L5:
	.loc 1 117 5 is_stmt 1
	.loc 1 117 18 is_stmt 0
	lw	a4,20(s1)
	.loc 1 117 25
	srli	a5,s0,29
	.loc 1 119 12
	srli	s2,s2,3
.LVL324:
	.loc 1 117 18
	add	a5,a4,a5
	sw	a5,20(s1)
	.loc 1 119 5 is_stmt 1
	.loc 1 119 7 is_stmt 0
	andi	s2,s2,63
.LVL325:
	.loc 1 123 5 is_stmt 1
.LBB2:
	.loc 1 124 39 is_stmt 0
	addi	s4,s1,24
.LBE2:
	.loc 1 123 8
	beq	s2,zero,.L6
.LBB3:
	.loc 1 124 2 is_stmt 1
	.loc 1 126 4 is_stmt 0
	li	s5,64
	sub	s5,s5,s2
	.loc 1 124 17
	add	a0,s4,s2
.LVL326:
	.loc 1 126 2 is_stmt 1
	.loc 1 127 2
	.loc 1 127 5 is_stmt 0
	bgeu	s0,s5,.L7
	.loc 1 128 6 is_stmt 1
	mv	a2,s0
.LVL327:
	mv	a1,s3
.LVL328:
.L14:
.LBE3:
	.loc 1 150 1 is_stmt 0
	lw	s0,24(sp)
	.cfi_remember_state
	.cfi_restore 8
	lw	ra,28(sp)
	.cfi_restore 1
	lw	s1,20(sp)
	.cfi_restore 9
.LVL329:
	lw	s2,16(sp)
	.cfi_restore 18
	lw	s3,12(sp)
	.cfi_restore 19
	lw	s4,8(sp)
	.cfi_restore 20
.LVL330:
	lw	s5,4(sp)
	.cfi_restore 21
	lw	s6,0(sp)
	.cfi_restore 22
	addi	sp,sp,32
	.cfi_def_cfa_offset 0
	.loc 1 149 5
	tail	memcpy
.LVL331:
.L7:
	.cfi_restore_state
.LBB4:
	.loc 1 131 2 is_stmt 1
	mv	a1,s3
.LVL332:
	mv	a2,s5
	call	memcpy
.LVL333:
	.loc 1 132 2
	.loc 1 133 2
	mv	a1,s4
	mv	a0,s1
	addi	s0,s0,-64
.LVL334:
	call	MD5Transform
.LVL335:
	.loc 1 134 2
	.loc 1 134 6 is_stmt 0
	add	s3,s3,s5
.LVL336:
	.loc 1 135 2 is_stmt 1
	.loc 1 135 6 is_stmt 0
	add	s0,s0,s2
.LVL337:
.L6:
.LBE4:
	.loc 1 109 1
	mv	s2,s0
	add	s6,s3,s0
	.loc 1 139 11
	li	s5,63
.LVL338:
.L8:
	sub	a1,s6,s2
.LVL339:
	.loc 1 139 11 is_stmt 1
	bgtu	s2,s5,.L9
	srli	a1,s0,6
.LVL340:
	.loc 1 149 5
	li	a2,-64
	mul	a2,a1,a2
	slli	a1,a1,6
	add	a1,s3,a1
	mv	a0,s4
	add	a2,a2,s0
	j	.L14
.LVL341:
.L9:
	.loc 1 140 2
	li	a2,64
	mv	a0,s4
	call	memcpy
.LVL342:
	.loc 1 141 2
	.loc 1 142 2
	mv	a1,s4
	mv	a0,s1
	call	MD5Transform
.LVL343:
	.loc 1 143 2
	.loc 1 144 2
	.loc 1 144 6 is_stmt 0
	addi	s2,s2,-64
.LVL344:
	j	.L8
	.cfi_endproc
.LFE71:
	.size	MD5Update, .-MD5Update
	.section	.text.MD5Final,"ax",@progbits
	.align	1
	.globl	MD5Final
	.type	MD5Final, @function
MD5Final:
.LFB72:
	.loc 1 158 1 is_stmt 1
	.cfi_startproc
.LVL345:
	.loc 1 159 5
	.loc 1 160 5
	.loc 1 163 5
	.loc 1 158 1 is_stmt 0
	addi	sp,sp,-16
	.cfi_def_cfa_offset 16
	sw	s0,8(sp)
	sw	s1,4(sp)
	sw	s2,0(sp)
	sw	ra,12(sp)
	.cfi_offset 8, -8
	.cfi_offset 9, -12
	.cfi_offset 18, -16
	.cfi_offset 1, -4
	.loc 1 163 27
	lw	a5,16(a1)
	.loc 1 167 9
	addi	s1,a1,24
	.loc 1 168 10
	li	a3,-128
	.loc 1 163 27
	srli	a5,a5,3
	.loc 1 163 11
	andi	a5,a5,63
.LVL346:
	.loc 1 167 5 is_stmt 1
	.loc 1 167 7 is_stmt 0
	add	a4,s1,a5
.LVL347:
	.loc 1 168 5 is_stmt 1
	.loc 1 171 11 is_stmt 0
	li	a2,63
	.loc 1 158 1
	mv	s2,a0
	.loc 1 168 10
	sb	a3,0(a4)
	.loc 1 168 7
	addi	a0,a4,1
.LVL348:
	.loc 1 171 5 is_stmt 1
	.loc 1 171 11 is_stmt 0
	sub	a2,a2,a5
.LVL349:
	.loc 1 174 5 is_stmt 1
	.loc 1 174 8 is_stmt 0
	li	a4,7
	.loc 1 158 1
	mv	s0,a1
	.loc 1 174 8
	bgtu	a2,a4,.L16
	.loc 1 176 2 is_stmt 1
	li	a1,0
.LVL350:
	call	memset
.LVL351:
	.loc 1 177 2
	.loc 1 178 2
	mv	a1,s1
	mv	a0,s0
	call	MD5Transform
.LVL352:
	.loc 1 181 2
	li	a2,56
	li	a1,0
	mv	a0,s1
.L19:
	.loc 1 184 2 is_stmt 0
	call	memset
.LVL353:
	.loc 1 186 5 is_stmt 1
	.loc 1 189 5
	.loc 1 189 27 is_stmt 0
	lw	a5,16(s0)
	.loc 1 192 5
	mv	a1,s1
	mv	a0,s0
	.loc 1 189 27
	sw	a5,80(s0)
	.loc 1 190 5 is_stmt 1
	.loc 1 190 27 is_stmt 0
	lw	a5,20(s0)
	sw	a5,84(s0)
	.loc 1 192 5 is_stmt 1
	call	MD5Transform
.LVL354:
	.loc 1 193 5
	.loc 1 194 5
	mv	a1,s0
	li	a2,16
	mv	a0,s2
	call	memcpy
.LVL355:
	.loc 1 195 5
	mv	a0,s0
	.loc 1 196 1 is_stmt 0
	lw	s0,8(sp)
	.cfi_remember_state
	.cfi_restore 8
.LVL356:
	lw	ra,12(sp)
	.cfi_restore 1
	lw	s1,4(sp)
	.cfi_restore 9
	lw	s2,0(sp)
	.cfi_restore 18
.LVL357:
	.loc 1 195 5
	li	a2,88
	.loc 1 196 1
	.loc 1 195 5
	li	a1,0
	.loc 1 196 1
	addi	sp,sp,16
	.cfi_def_cfa_offset 0
	.loc 1 195 5
	tail	memset
.LVL358:
.L16:
	.cfi_restore_state
	.loc 1 184 2 is_stmt 1
	li	a2,55
.LVL359:
	sub	a2,a2,a5
	li	a1,0
	j	.L19
	.cfi_endproc
.LFE72:
	.size	MD5Final, .-MD5Final
	.section	.text.md5_vector,"ax",@progbits
	.align	1
	.globl	md5_vector
	.type	md5_vector, @function
md5_vector:
.LFB69:
	.loc 1 39 1
	.cfi_startproc
.LVL360:
	.loc 1 40 2
	.loc 1 41 2
	.loc 1 43 2
	.loc 1 39 1 is_stmt 0
	addi	sp,sp,-128
	.cfi_def_cfa_offset 128
	sw	s2,112(sp)
	.cfi_offset 18, -16
	mv	s2,a0
	.loc 1 43 2
	addi	a0,sp,8
.LVL361:
	.loc 1 39 1
	sw	s0,120(sp)
	sw	s1,116(sp)
	sw	s3,108(sp)
	sw	s4,104(sp)
	sw	ra,124(sp)
	.cfi_offset 8, -8
	.cfi_offset 9, -12
	.cfi_offset 19, -20
	.cfi_offset 20, -24
	.cfi_offset 1, -4
	.loc 1 39 1
	mv	s3,a1
	mv	s4,a2
	mv	s1,a3
	.loc 1 44 9
	li	s0,0
	.loc 1 43 2
	call	MD5Init
.LVL362:
	.loc 1 44 2 is_stmt 1
.L21:
	.loc 1 44 14 discriminator 1
	.loc 1 44 2 is_stmt 0 discriminator 1
	bne	s0,s2,.L22
	.loc 1 46 2 is_stmt 1
	mv	a0,s1
	addi	a1,sp,8
	call	MD5Final
.LVL363:
	.loc 1 47 2
	.loc 1 48 1 is_stmt 0
	lw	ra,124(sp)
	.cfi_remember_state
	.cfi_restore 1
	lw	s0,120(sp)
	.cfi_restore 8
.LVL364:
	lw	s1,116(sp)
	.cfi_restore 9
.LVL365:
	lw	s2,112(sp)
	.cfi_restore 18
.LVL366:
	lw	s3,108(sp)
	.cfi_restore 19
.LVL367:
	lw	s4,104(sp)
	.cfi_restore 20
.LVL368:
	li	a0,0
	addi	sp,sp,128
	.cfi_def_cfa_offset 0
	jr	ra
.LVL369:
.L22:
	.cfi_restore_state
	.loc 1 45 3 is_stmt 1 discriminator 3
	slli	a5,s0,2
	add	a4,s4,a5
	add	a5,s3,a5
	lw	a2,0(a4)
	lw	a1,0(a5)
	addi	a0,sp,8
	.loc 1 44 29 is_stmt 0 discriminator 3
	addi	s0,s0,1
.LVL370:
	.loc 1 45 3 discriminator 3
	call	MD5Update
.LVL371:
	.loc 1 44 28 is_stmt 1 discriminator 3
	j	.L21
	.cfi_endproc
.LFE69:
	.size	md5_vector, .-md5_vector
	.text
.Letext0:
	.file 2 "/mnt/d/GitHub/bl_iot_sdk_for_aithinker/toolchain/riscv/Linux/lib/gcc/riscv64-unknown-elf/10.2.0/include/stddef.h"
	.file 3 "/mnt/d/GitHub/bl_iot_sdk_for_aithinker/toolchain/riscv/Linux/riscv64-unknown-elf/include/machine/_default_types.h"
	.file 4 "/mnt/d/GitHub/bl_iot_sdk_for_aithinker/toolchain/riscv/Linux/riscv64-unknown-elf/include/sys/_stdint.h"
	.file 5 "/mnt/d/GitHub/bl_iot_sdk_for_aithinker/components/security/wpa_supplicant/src/utils/common.h"
	.file 6 "/mnt/d/GitHub/bl_iot_sdk_for_aithinker/components/security/wpa_supplicant/src/crypto/md5_i.h"
	.file 7 "/mnt/d/GitHub/bl_iot_sdk_for_aithinker/toolchain/riscv/Linux/riscv64-unknown-elf/include/string.h"