	.file	"md5.c"
	.option nopic
	.attribute arch, "rv32i2p0_m2p0_f2p0_c2p0"
	.attribute unaligned_access, 0
	.attribute stack_align, 16
	.text
.Ltext0:
	.cfi_sections	.debug_frame
	.section	.text.hmac_md5_vector,"ax",@progbits
	.align	1
	.globl	hmac_md5_vector
	.type	hmac_md5_vector, @function
hmac_md5_vector:
.LFB69:
	.file 1 "/mnt/d/GitHub/bl_iot_sdk_for_aithinker/components/security/wpa_supplicant/src/crypto/md5.c"
	.loc 1 35 1
	.cfi_startproc
.LVL0:
	.loc 1 36 2
	.loc 1 37 2
	.loc 1 38 2
	.loc 1 39 2
	.loc 1 41 2
	.loc 1 35 1 is_stmt 0
	addi	sp,sp,-176
	.cfi_def_cfa_offset 176
	sw	s0,168(sp)
	sw	ra,172(sp)
	.cfi_offset 8, -8
	.cfi_offset 1, -4
	mv	s0,a5
	sw	s1,164(sp)
	sw	s2,160(sp)
	sw	s3,156(sp)
	sw	s4,152(sp)
	sw	s5,148(sp)
	sw	s6,144(sp)
	.cfi_offset 9, -12
	.cfi_offset 18, -16
	.cfi_offset 19, -20
	.cfi_offset 20, -24
	.cfi_offset 21, -28
	.cfi_offset 22, -32
	.loc 1 35 1
	sw	a0,12(sp)
	sw	a1,8(sp)
	.loc 1 41 5
	li	a5,5
.LVL1:
	bleu	a2,a5,.L2
.LVL2:
.L5:
	.loc 1 46 10
	li	a0,-1
.L1:
	.loc 1 96 1
	lw	ra,172(sp)
	.cfi_remember_state
	.cfi_restore 1
	lw	s0,168(sp)
	.cfi_restore 8
.LVL3:
	lw	s1,164(sp)
	.cfi_restore 9
	lw	s2,160(sp)
	.cfi_restore 18
	lw	s3,156(sp)
	.cfi_restore 19
	lw	s4,152(sp)
	.cfi_restore 20
	lw	s5,148(sp)
	.cfi_restore 21
	lw	s6,144(sp)
	.cfi_restore 22
	addi	sp,sp,176
	.cfi_def_cfa_offset 0
	jr	ra
.LVL4:
.L2:
	.cfi_restore_state
	.loc 1 50 12
	li	a5,64
	mv	s2,a2
	mv	s3,a3
	mv	s4,a4
	.loc 1 50 9 is_stmt 1
	.loc 1 50 12 is_stmt 0
	bleu	a1,a5,.L4
	.loc 1 51 3 is_stmt 1
	.loc 1 51 7 is_stmt 0
	addi	s1,sp,16
	mv	a3,s1
.LVL5:
	addi	a2,sp,8
.LVL6:
	addi	a1,sp,12
.LVL7:
	li	a0,1
.LVL8:
	call	md5_vector
.LVL9:
	.loc 1 51 6
	bne	a0,zero,.L5
	.loc 1 53 3 is_stmt 1
	.loc 1 54 11 is_stmt 0
	li	a5,16
	.loc 1 53 7
	sw	s1,12(sp)
	.loc 1 54 3 is_stmt 1
	.loc 1 54 11 is_stmt 0
	sw	a5,8(sp)
.L4:
	.loc 1 67 2 is_stmt 1
	li	a2,64
	li	a1,0
	addi	a0,sp,80
	call	memset
.LVL10:
	.loc 1 68 2
	lw	a2,8(sp)
	lw	a1,12(sp)
	addi	a0,sp,80
	addi	s1,sp,80
	call	memcpy
.LVL11:
	.loc 1 71 2
	.loc 1 71 14
	.loc 1 68 2 is_stmt 0
	mv	a5,s1
.LVL12:
.L6:
	.loc 1 72 3 is_stmt 1 discriminator 3
	.loc 1 72 12 is_stmt 0 discriminator 3
	lbu	a4,0(a5)
	.loc 1 71 2 discriminator 3
	addi	a5,a5,1
.LVL13:
	.loc 1 72 12 discriminator 3
	xori	a4,a4,54
	sb	a4,-1(a5)
	.loc 1 71 22 is_stmt 1 discriminator 3
.LVL14:
	.loc 1 71 14 discriminator 3
	.loc 1 71 2 is_stmt 0 discriminator 3
	addi	a4,sp,144
	bne	a5,a4,.L6
	.loc 1 75 2 is_stmt 1
	.loc 1 75 11 is_stmt 0
	addi	a5,sp,80
	sw	a5,32(sp)
	.loc 1 76 2 is_stmt 1
	addi	a1,sp,32
	.loc 1 76 10 is_stmt 0
	li	a5,64
	addi	a2,sp,56
	sw	a5,56(sp)
	.loc 1 77 2 is_stmt 1
.LVL15:
	slli	a4,s2,2
	li	a5,0
	mv	s5,a1
	mv	s6,a2
.LVL16:
.L7:
	.loc 1 77 14 discriminator 1
	.loc 1 77 2 is_stmt 0 discriminator 1
	addi	a1,a1,4
	addi	a2,a2,4
	bne	a5,a4,.L8
	.loc 1 81 2 is_stmt 1
	.loc 1 81 6 is_stmt 0
	mv	a3,s0
	mv	a2,s6
	mv	a1,s5
	addi	a0,s2,1
	call	md5_vector
.LVL17:
	.loc 1 81 5
	bne	a0,zero,.L5
	.loc 1 84 2 is_stmt 1
	li	a2,64
	li	a1,0
	addi	a0,sp,80
	call	memset
.LVL18:
	.loc 1 85 2
	lw	a2,8(sp)
	lw	a1,12(sp)
	addi	a0,sp,80
	call	memcpy
.LVL19:
	.loc 1 87 2
	.loc 1 87 14
.L9:
	.loc 1 88 3 discriminator 3
	.loc 1 88 12 is_stmt 0 discriminator 3
	lbu	a5,0(s1)
	.loc 1 87 2 discriminator 3
	addi	s1,s1,1
.LVL20:
	.loc 1 88 12 discriminator 3
	xori	a5,a5,92
	sb	a5,-1(s1)
	.loc 1 87 22 is_stmt 1 discriminator 3
.LVL21:
	.loc 1 87 14 discriminator 3
	.loc 1 87 2 is_stmt 0 discriminator 3
	addi	a5,sp,144
	bne	s1,a5,.L9
	.loc 1 91 2 is_stmt 1
	.loc 1 91 11 is_stmt 0
	addi	a5,sp,80
	sw	a5,32(sp)
	.loc 1 92 2 is_stmt 1
	.loc 1 92 10 is_stmt 0
	li	a5,64
	sw	a5,56(sp)
	.loc 1 93 2 is_stmt 1
	.loc 1 95 9 is_stmt 0
	mv	a3,s0
	.loc 1 94 10
	li	a5,16
	.loc 1 95 9
	mv	a2,s6
	mv	a1,s5
	li	a0,2
	.loc 1 93 11
	sw	s0,36(sp)
	.loc 1 94 2 is_stmt 1
	.loc 1 94 10 is_stmt 0
	sw	a5,60(sp)
	.loc 1 95 2 is_stmt 1
	.loc 1 95 9 is_stmt 0
	call	md5_vector
.LVL22:
	j	.L1
.L8:
	.loc 1 78 3 is_stmt 1 discriminator 3
	.loc 1 78 22 is_stmt 0 discriminator 3
	add	a3,s3,a5
	.loc 1 78 16 discriminator 3
	lw	a3,0(a3)
	sw	a3,0(a1)
	.loc 1 79 3 is_stmt 1 discriminator 3
	.loc 1 79 20 is_stmt 0 discriminator 3
	add	a3,s4,a5
	.loc 1 79 15 discriminator 3
	lw	a3,0(a3)
	addi	a5,a5,4
	sw	a3,0(a2)
	.loc 1 77 28 is_stmt 1 discriminator 3
	j	.L7
	.cfi_endproc
.LFE69:
	.size	hmac_md5_vector, .-hmac_md5_vector
	.section	.text.hmac_md5,"ax",@progbits
	.align	1
	.globl	hmac_md5
	.type	hmac_md5, @function
hmac_md5:
.LFB70:
	.loc 1 111 1
	.cfi_startproc
.LVL23:
	.loc 1 112 2
	.loc 1 111 1 is_stmt 0
	addi	sp,sp,-32
	.cfi_def_cfa_offset 32
	sw	a2,12(sp)
	sw	a3,8(sp)
	mv	a5,a4
	.loc 1 112 9
	addi	a3,sp,12
.LVL24:
	addi	a4,sp,8
.LVL25:
	li	a2,1
.LVL26:
	.loc 1 111 1
	sw	ra,28(sp)
	.cfi_offset 1, -4
	.loc 1 112 9
	call	hmac_md5_vector
.LVL27:
	.loc 1 113 1
	lw	ra,28(sp)
	.cfi_restore 1
	addi	sp,sp,32
	.cfi_def_cfa_offset 0
	jr	ra
	.cfi_endproc
.LFE70:
	.size	hmac_md5, .-hmac_md5
	.text
.Letext0:
	.file 2 "/mnt/d/GitHub/bl_iot_sdk_for_aithinker/toolchain/riscv/Linux/lib/gcc/riscv64-unknown-elf/10.2.0/include/stddef.h"
	.file 3 "/mnt/d/GitHub/bl_iot_sdk_for_aithinker/toolchain/riscv/Linux/riscv64-unknown-elf/include/machine/_default_types.h"
	.file 4 "/mnt/d/GitHub/bl_iot_sdk_for_aithinker/toolchain/riscv/Linux/riscv64-unknown-elf/include/sys/_stdint.h"
	.file 5 "/mnt/d/GitHub/bl_iot_sdk_for_aithinker/components/security/wpa_supplicant/src/crypto/crypto.h"
	.file 6 "/mnt/d/GitHub/bl_iot_sdk_for_aithinker/toolchain/riscv/Linux/riscv64-unknown-elf/include/string.h"
	.file 7 "/mnt/d/GitHub/bl_iot_sdk_for_aithinker/components/security/wpa_supplicant/src/utils/common.h"