	.file	"sha1.c"
	.option nopic
	.attribute arch, "rv32i2p0_m2p0_f2p0_c2p0"
	.attribute unaligned_access, 0
	.attribute stack_align, 16
	.text
.Ltext0:
	.cfi_sections	.debug_frame
	.section	.text.hmac_sha1_vector,"ax",@progbits
	.align	1
	.globl	hmac_sha1_vector
	.type	hmac_sha1_vector, @function
hmac_sha1_vector:
.LFB69:
	.file 1 "/mnt/d/GitHub/bl_iot_sdk_for_aithinker/components/security/wpa_supplicant/src/crypto/sha1.c"
	.loc 1 35 1
	.cfi_startproc
.LVL0:
	.loc 1 36 2
	.loc 1 37 2
	.loc 1 38 2
	.loc 1 39 2
	.loc 1 41 2
	.loc 1 35 1 is_stmt 0
	addi	sp,sp,-192
	.cfi_def_cfa_offset 192
	sw	s0,184(sp)
	sw	ra,188(sp)
	.cfi_offset 8, -8
	.cfi_offset 1, -4
	mv	s0,a5
	sw	s1,180(sp)
	sw	s2,176(sp)
	sw	s3,172(sp)
	sw	s4,168(sp)
	sw	s5,164(sp)
	sw	s6,160(sp)
	.cfi_offset 9, -12
	.cfi_offset 18, -16
	.cfi_offset 19, -20
	.cfi_offset 20, -24
	.cfi_offset 21, -28
	.cfi_offset 22, -32
	.loc 1 35 1
	sw	a0,12(sp)
	sw	a1,8(sp)
	.loc 1 41 5
	li	a5,5
.LVL1:
	bleu	a2,a5,.L2
.LVL2:
.L5:
	.loc 1 46 10
	li	a0,-1
.L1:
	.loc 1 95 1
	lw	ra,188(sp)
	.cfi_remember_state
	.cfi_restore 1
	lw	s0,184(sp)
	.cfi_restore 8
.LVL3:
	lw	s1,180(sp)
	.cfi_restore 9
	lw	s2,176(sp)
	.cfi_restore 18
	lw	s3,172(sp)
	.cfi_restore 19
	lw	s4,168(sp)
	.cfi_restore 20
	lw	s5,164(sp)
	.cfi_restore 21
	lw	s6,160(sp)
	.cfi_restore 22
	addi	sp,sp,192
	.cfi_def_cfa_offset 0
	jr	ra
.LVL4:
.L2:
	.cfi_restore_state
	.loc 1 50 12
	li	a5,64
	mv	s2,a2
	mv	s3,a3
	mv	s4,a4
	.loc 1 50 9 is_stmt 1
	.loc 1 50 12 is_stmt 0
	bleu	a1,a5,.L4
	.loc 1 51 3 is_stmt 1
	.loc 1 51 7 is_stmt 0
	addi	s1,sp,28
	mv	a3,s1
.LVL5:
	addi	a2,sp,8
.LVL6:
	addi	a1,sp,12
.LVL7:
	li	a0,1
.LVL8:
	call	sha1_vector
.LVL9:
	.loc 1 51 6
	bne	a0,zero,.L5
	.loc 1 53 3 is_stmt 1
	.loc 1 54 11 is_stmt 0
	li	a5,20
	.loc 1 53 7
	sw	s1,12(sp)
	.loc 1 54 3 is_stmt 1
	.loc 1 54 11 is_stmt 0
	sw	a5,8(sp)
.L4:
	.loc 1 67 2 is_stmt 1
	li	a2,64
	li	a1,0
	addi	a0,sp,96
	call	memset
.LVL10:
	.loc 1 68 2
	lw	a2,8(sp)
	lw	a1,12(sp)
	addi	a0,sp,96
	addi	s1,sp,96
	call	memcpy
.LVL11:
	.loc 1 70 2
	.loc 1 70 14
	.loc 1 68 2 is_stmt 0
	mv	a5,s1
.LVL12:
.L6:
	.loc 1 71 3 is_stmt 1 discriminator 3
	.loc 1 71 12 is_stmt 0 discriminator 3
	lbu	a4,0(a5)
	.loc 1 70 2 discriminator 3
	addi	a5,a5,1
.LVL13:
	.loc 1 71 12 discriminator 3
	xori	a4,a4,54
	sb	a4,-1(a5)
	.loc 1 70 22 is_stmt 1 discriminator 3
.LVL14:
	.loc 1 70 14 discriminator 3
	.loc 1 70 2 is_stmt 0 discriminator 3
	addi	a4,sp,160
	bne	a5,a4,.L6
	.loc 1 74 2 is_stmt 1
	.loc 1 74 11 is_stmt 0
	addi	a5,sp,96
	sw	a5,48(sp)
	.loc 1 75 2 is_stmt 1
	addi	a1,sp,48
	.loc 1 75 10 is_stmt 0
	li	a5,64
	addi	a2,sp,72
	sw	a5,72(sp)
	.loc 1 76 2 is_stmt 1
.LVL15:
	slli	a4,s2,2
	li	a5,0
	mv	s5,a1
	mv	s6,a2
.LVL16:
.L7:
	.loc 1 76 14 discriminator 1
	.loc 1 76 2 is_stmt 0 discriminator 1
	addi	a1,a1,4
	addi	a2,a2,4
	bne	a5,a4,.L8
	.loc 1 80 2 is_stmt 1
	.loc 1 80 6 is_stmt 0
	mv	a3,s0
	mv	a2,s6
	mv	a1,s5
	addi	a0,s2,1
	call	sha1_vector
.LVL17:
	.loc 1 80 5
	bne	a0,zero,.L5
	.loc 1 83 2 is_stmt 1
	li	a2,64
	li	a1,0
	addi	a0,sp,96
	call	memset
.LVL18:
	.loc 1 84 2
	lw	a2,8(sp)
	lw	a1,12(sp)
	addi	a0,sp,96
	call	memcpy
.LVL19:
	.loc 1 86 2
	.loc 1 86 14
.L9:
	.loc 1 87 3 discriminator 3
	.loc 1 87 12 is_stmt 0 discriminator 3
	lbu	a5,0(s1)
	.loc 1 86 2 discriminator 3
	addi	s1,s1,1
.LVL20:
	.loc 1 87 12 discriminator 3
	xori	a5,a5,92
	sb	a5,-1(s1)
	.loc 1 86 22 is_stmt 1 discriminator 3
.LVL21:
	.loc 1 86 14 discriminator 3
	.loc 1 86 2 is_stmt 0 discriminator 3
	addi	a5,sp,160
	bne	s1,a5,.L9
	.loc 1 90 2 is_stmt 1
	.loc 1 90 11 is_stmt 0
	addi	a5,sp,96
	sw	a5,48(sp)
	.loc 1 91 2 is_stmt 1
	.loc 1 91 10 is_stmt 0
	li	a5,64
	sw	a5,72(sp)
	.loc 1 92 2 is_stmt 1
	.loc 1 94 9 is_stmt 0
	mv	a3,s0
	.loc 1 93 10
	li	a5,20
	.loc 1 94 9
	mv	a2,s6
	mv	a1,s5
	li	a0,2
	.loc 1 92 11
	sw	s0,52(sp)
	.loc 1 93 2 is_stmt 1
	.loc 1 93 10 is_stmt 0
	sw	a5,76(sp)
	.loc 1 94 2 is_stmt 1
	.loc 1 94 9 is_stmt 0
	call	sha1_vector
.LVL22:
	j	.L1
.L8:
	.loc 1 77 3 is_stmt 1 discriminator 3
	.loc 1 77 22 is_stmt 0 discriminator 3
	add	a3,s3,a5
	.loc 1 77 16 discriminator 3
	lw	a3,0(a3)
	sw	a3,0(a1)
	.loc 1 78 3 is_stmt 1 discriminator 3
	.loc 1 78 20 is_stmt 0 discriminator 3
	add	a3,s4,a5
	.loc 1 78 15 discriminator 3
	lw	a3,0(a3)
	addi	a5,a5,4
	sw	a3,0(a2)
	.loc 1 76 28 is_stmt 1 discriminator 3
	j	.L7
	.cfi_endproc
.LFE69:
	.size	hmac_sha1_vector, .-hmac_sha1_vector
	.section	.text.hmac_sha1,"ax",@progbits
	.align	1
	.globl	hmac_sha1
	.type	hmac_sha1, @function
hmac_sha1:
.LFB70:
	.loc 1 110 1
	.cfi_startproc
.LVL23:
	.loc 1 111 2
	.loc 1 110 1 is_stmt 0
	addi	sp,sp,-32
	.cfi_def_cfa_offset 32
	sw	a2,12(sp)
	sw	a3,8(sp)
	mv	a5,a4
	.loc 1 111 9
	addi	a3,sp,12
.LVL24:
	addi	a4,sp,8
.LVL25:
	li	a2,1
.LVL26:
	.loc 1 110 1
	sw	ra,28(sp)
	.cfi_offset 1, -4
	.loc 1 111 9
	call	hmac_sha1_vector
.LVL27:
	.loc 1 112 1
	lw	ra,28(sp)
	.cfi_restore 1
	addi	sp,sp,32
	.cfi_def_cfa_offset 0
	jr	ra
	.cfi_endproc
.LFE70:
	.size	hmac_sha1, .-hmac_sha1
	.section	.text.sha1_prf,"ax",@progbits
	.align	1
	.globl	sha1_prf
	.type	sha1_prf, @function
sha1_prf:
.LFB71:
	.loc 1 131 1 is_stmt 1
	.cfi_startproc
.LVL28:
	.loc 1 132 2
	.loc 1 131 1 is_stmt 0
	addi	sp,sp,-80
	.cfi_def_cfa_offset 80
	sw	s2,64(sp)
	.cfi_offset 18, -16
	mv	s2,a0
	.loc 1 135 21
	mv	a0,a2
.LVL29:
	.loc 1 131 1
	sw	s0,72(sp)
	sw	s1,68(sp)
	sw	s3,60(sp)
	.cfi_offset 8, -8
	.cfi_offset 9, -12
	.cfi_offset 19, -20
	mv	s1,a2
	sw	s4,56(sp)
	sw	s5,52(sp)
	sw	s6,48(sp)
	.cfi_offset 20, -24
	.cfi_offset 21, -28
	.cfi_offset 22, -32
	mv	s5,a4
	mv	s6,a3
	mv	s4,a5
	sw	ra,76(sp)
	.cfi_offset 1, -4
	.loc 1 131 1
	mv	s3,a1
	mv	s0,a6
	.loc 1 132 5
	sb	zero,3(sp)
	.loc 1 133 2 is_stmt 1
	.loc 1 134 2
	.loc 1 135 2
	.loc 1 135 21 is_stmt 0
	call	strlen
.LVL30:
	.loc 1 136 2 is_stmt 1
	.loc 1 137 2
	.loc 1 139 2
	.loc 1 143 10 is_stmt 0
	addi	a5,sp,3
	.loc 1 135 9
	addi	a0,a0,1
.LVL31:
	.loc 1 143 10
	sw	a5,12(sp)
	.loc 1 144 9
	li	a5,1
	.loc 1 139 10
	sw	s1,4(sp)
	.loc 1 140 2 is_stmt 1
	.loc 1 141 10 is_stmt 0
	sw	s6,8(sp)
	.loc 1 140 9
	sw	a0,16(sp)
	.loc 1 141 2 is_stmt 1
	.loc 1 142 2
	.loc 1 142 9 is_stmt 0
	sw	s5,20(sp)
	.loc 1 143 2 is_stmt 1
	.loc 1 144 2
	.loc 1 144 9 is_stmt 0
	sw	a5,24(sp)
	.loc 1 146 2 is_stmt 1
.LVL32:
	.loc 1 147 2
	.loc 1 146 6 is_stmt 0
	li	s1,0
.LVL33:
	.loc 1 149 6
	li	s6,19
.LVL34:
.L16:
	.loc 1 147 8 is_stmt 1
	bltu	s1,s0,.L21
	.loc 1 164 9 is_stmt 0
	li	s0,0
.LVL35:
	j	.L15
.LVL36:
.L21:
	.loc 1 148 3 is_stmt 1
	sub	s5,s0,s1
.LVL37:
	.loc 1 149 3
	.loc 1 149 6 is_stmt 0
	bleu	s5,s6,.L17
	.loc 1 150 4 is_stmt 1
	.loc 1 150 8 is_stmt 0
	add	a5,s4,s1
	addi	a4,sp,16
	addi	a3,sp,4
	li	a2,3
	mv	a1,s3
	mv	a0,s2
	call	hmac_sha1_vector
.LVL38:
	.loc 1 150 7
	beq	a0,zero,.L18
.LVL39:
.L20:
	.loc 1 152 12
	li	s0,-1
.LVL40:
.L15:
	.loc 1 165 1
	lw	ra,76(sp)
	.cfi_remember_state
	.cfi_restore 1
	mv	a0,s0
	lw	s0,72(sp)
	.cfi_restore 8
	lw	s1,68(sp)
	.cfi_restore 9
.LVL41:
	lw	s2,64(sp)
	.cfi_restore 18
.LVL42:
	lw	s3,60(sp)
	.cfi_restore 19
.LVL43:
	lw	s4,56(sp)
	.cfi_restore 20
.LVL44:
	lw	s5,52(sp)
	.cfi_restore 21
	lw	s6,48(sp)
	.cfi_restore 22
	addi	sp,sp,80
	.cfi_def_cfa_offset 0
	jr	ra
.LVL45:
.L18:
	.cfi_restore_state
	.loc 1 153 4 is_stmt 1
	.loc 1 161 10 is_stmt 0
	lbu	a5,3(sp)
	.loc 1 153 8
	addi	s1,s1,20
.LVL46:
	.loc 1 161 3 is_stmt 1
	.loc 1 161 10 is_stmt 0
	addi	a5,a5,1
	sb	a5,3(sp)
	j	.L16
.L17:
	.loc 1 155 4 is_stmt 1
	.loc 1 155 8 is_stmt 0
	addi	a5,sp,28
	addi	a4,sp,16
	addi	a3,sp,4
	li	a2,3
	mv	a1,s3
	mv	a0,s2
	call	hmac_sha1_vector
.LVL47:
	mv	s0,a0
.LVL48:
	.loc 1 155 7
	bne	a0,zero,.L20
	.loc 1 158 4 is_stmt 1
	mv	a2,s5
	addi	a1,sp,28
	add	a0,s4,s1
	call	memcpy
.LVL49:
	.loc 1 159 4
	j	.L15
	.cfi_endproc
.LFE71:
	.size	sha1_prf, .-sha1_prf
	.text
.Letext0:
	.file 2 "/mnt/d/GitHub/bl_iot_sdk_for_aithinker/toolchain/riscv/Linux/lib/gcc/riscv64-unknown-elf/10.2.0/include/stddef.h"
	.file 3 "/mnt/d/GitHub/bl_iot_sdk_for_aithinker/toolchain/riscv/Linux/riscv64-unknown-elf/include/machine/_default_types.h"
	.file 4 "/mnt/d/GitHub/bl_iot_sdk_for_aithinker/toolchain/riscv/Linux/riscv64-unknown-elf/include/sys/_stdint.h"
	.file 5 "/mnt/d/GitHub/bl_iot_sdk_for_aithinker/toolchain/riscv/Linux/riscv64-unknown-elf/include/string.h"
	.file 6 "/mnt/d/GitHub/bl_iot_sdk_for_aithinker/components/security/wpa_supplicant/src/crypto/crypto.h"
	.file 7 "/mnt/d/GitHub/bl_iot_sdk_for_aithinker/components/security/wpa_supplicant/src/utils/common.h"