	.file	"sha1-internal.c"
	.option nopic
	.attribute arch, "rv32i2p0_m2p0_f2p0_c2p0"
	.attribute unaligned_access, 0
	.attribute stack_align, 16
	.text
.Ltext0:
	.cfi_sections	.debug_frame
	.section	.text.sha1_vector,"ax",@progbits
	.align	1
	.globl	sha1_vector
	.type	sha1_vector, @function
sha1_vector:
.LFB69:
	.file 1 "/mnt/d/GitHub/bl_iot_sdk_for_aithinker/components/security/wpa_supplicant/src/crypto/sha1-internal.c"
	.loc 1 47 1
	.cfi_startproc
.LVL0:
	.loc 1 58 5
	.loc 1 59 5
	.loc 1 60 5
	.loc 1 47 1 is_stmt 0
	addi	sp,sp,-192
	.cfi_def_cfa_offset 192
	sw	ra,188(sp)
	sw	s0,184(sp)
	sw	s1,180(sp)
	sw	s2,176(sp)
	sw	s3,172(sp)
	sw	s4,168(sp)
	.cfi_offset 1, -4
	.cfi_offset 8, -8
	.cfi_offset 9, -12
	.cfi_offset 18, -16
	.cfi_offset 19, -20
	.cfi_offset 20, -24
	.loc 1 47 1
	mv	s3,a1
	mv	s4,a2
	mv	s1,a3
	mv	s2,a0
	.loc 1 60 5
	call	bl_sha_mutex_take
.LVL1:
	.loc 1 61 5 is_stmt 1
	li	a1,2
	addi	a0,sp,12
	call	bl_sha_init
.LVL2:
	.loc 1 62 5
	.loc 1 62 12 is_stmt 0
	li	s0,0
.LVL3:
.L2:
	.loc 1 62 17 is_stmt 1 discriminator 1
	.loc 1 62 5 is_stmt 0 discriminator 1
	bne	s0,s2,.L3
	.loc 1 64 5 is_stmt 1
	mv	a1,s1
	addi	a0,sp,12
	call	bl_sha_finish
.LVL4:
	.loc 1 65 5
	call	bl_sha_mutex_give
.LVL5:
	.loc 1 66 5
	.loc 1 67 1 is_stmt 0
	lw	ra,188(sp)
	.cfi_remember_state
	.cfi_restore 1
	lw	s0,184(sp)
	.cfi_restore 8
.LVL6:
	lw	s1,180(sp)
	.cfi_restore 9
.LVL7:
	lw	s2,176(sp)
	.cfi_restore 18
.LVL8:
	lw	s3,172(sp)
	.cfi_restore 19
.LVL9:
	lw	s4,168(sp)
	.cfi_restore 20
.LVL10:
	li	a0,0
	addi	sp,sp,192
	.cfi_def_cfa_offset 0
	jr	ra
.LVL11:
.L3:
	.cfi_restore_state
	.loc 1 63 9 is_stmt 1 discriminator 3
	slli	a5,s0,2
	add	a4,s4,a5
	add	a5,s3,a5
	lw	a2,0(a4)
	lw	a1,0(a5)
	addi	a0,sp,12
	.loc 1 62 32 is_stmt 0 discriminator 3
	addi	s0,s0,1
.LVL12:
	.loc 1 63 9 discriminator 3
	call	bl_sha_update
.LVL13:
	.loc 1 62 31 is_stmt 1 discriminator 3
	j	.L2
	.cfi_endproc
.LFE69:
	.size	sha1_vector, .-sha1_vector
	.section	.text.SHA1Transform,"ax",@progbits
	.align	1
	.globl	SHA1Transform
	.type	SHA1Transform, @function
SHA1Transform:
.LFB70:
	.loc 1 242 1
	.cfi_startproc
.LVL14:
	.loc 1 243 2
	.loc 1 244 2
	.loc 1 248 2
	.loc 1 250 2
	.loc 1 251 2
	.loc 1 242 1 is_stmt 0
	addi	sp,sp,-128
	.cfi_def_cfa_offset 128
.LVL15:
	.loc 1 252 2 is_stmt 1
	.loc 1 242 1 is_stmt 0
	sw	s8,88(sp)
	.loc 1 252 2
	li	a2,64
	.cfi_offset 24, -40
	.loc 1 242 1
	mv	s8,a0
	.loc 1 252 2
	mv	a0,sp
.LVL16:
	.loc 1 242 1
	sw	ra,124(sp)
	sw	s0,120(sp)
	sw	s1,116(sp)
	sw	s2,112(sp)
	sw	s3,108(sp)
	sw	s4,104(sp)
	sw	s5,100(sp)
	sw	s6,96(sp)
	sw	s7,92(sp)
	sw	s9,84(sp)
	sw	s10,80(sp)
	sw	s11,76(sp)
	.cfi_offset 1, -4
	.cfi_offset 8, -8
	.cfi_offset 9, -12
	.cfi_offset 18, -16
	.cfi_offset 19, -20
	.cfi_offset 20, -24
	.cfi_offset 21, -28
	.cfi_offset 22, -32
	.cfi_offset 23, -36
	.cfi_offset 25, -44
	.cfi_offset 26, -48
	.cfi_offset 27, -52
	.loc 1 252 2
	call	memcpy
.LVL17:
	.loc 1 257 2 is_stmt 1
	.loc 1 263 56 is_stmt 0
	lw	a5,0(sp)
	.loc 1 263 104
	li	s2,-16711680
	.loc 1 263 178
	li	s1,16711680
	.loc 1 263 70
	slli	a4,a5,24
	srli	t1,a5,8
	or	t1,t1,a4
	.loc 1 263 145
	slli	a4,a5,8
	srli	a5,a5,24
	.loc 1 263 104
	addi	s2,s2,-256
	.loc 1 263 178
	addi	s1,s1,255
	.loc 1 263 145
	or	a5,a4,a5
	.loc 1 263 178
	and	a5,a5,s1
	.loc 1 263 104
	and	t1,t1,s2
	.loc 1 257 4
	lw	s3,0(s8)
.LVL18:
	.loc 1 258 2 is_stmt 1
	.loc 1 259 2
	.loc 1 260 2
	.loc 1 261 2
	.loc 1 263 2
	.loc 1 263 118 is_stmt 0
	or	t1,t1,a5
	lw	a5,16(s8)
	li	s0,1518501888
	addi	s0,s0,-1639
	.loc 1 263 222
	srli	a3,s3,27
	add	a5,t1,a5
	slli	a4,s3,5
	add	a5,a5,s0
	or	a4,a4,a3
	add	a4,a5,a4
	.loc 1 263 16
	lw	a3,12(s8)
	lw	a5,8(s8)
	xor	a5,a5,a3
	.loc 1 263 11
	lw	a3,4(s8)
	and	a5,a5,a3
	.loc 1 263 22
	lw	a3,12(s8)
	xor	a5,a5,a3
	.loc 1 263 4
	add	a5,a5,a4
.LVL19:
	.loc 1 263 246 is_stmt 1
	.loc 1 263 248 is_stmt 0
	lw	a3,4(s8)
	lw	a4,4(s8)
	.loc 1 263 511
	srli	a0,a5,27
	.loc 1 263 248
	slli	a3,a3,30
	srli	a4,a4,2
	or	a3,a3,a4
.LVL20:
	.loc 1 263 289 is_stmt 1
	.loc 1 263 291
	.loc 1 263 345 is_stmt 0
	lw	a4,4(sp)
	.loc 1 263 359
	slli	a2,a4,24
	srli	a1,a4,8
	or	a1,a1,a2
	.loc 1 263 434
	slli	a2,a4,8
	srli	a4,a4,24
	or	a4,a2,a4
	.loc 1 263 467
	and	a4,a4,s1
	.loc 1 263 393
	and	a1,a1,s2
	.loc 1 263 407
	or	a1,a1,a4
	.loc 1 263 305
	lw	a4,8(s8)
	xor	a2,a4,a3
	.loc 1 263 300
	and	a2,a2,s3
	.loc 1 263 311
	xor	a2,a2,a4
	lw	a4,12(s8)
	add	a4,a1,a4
	add	a4,a4,s0
	add	a4,a2,a4
	.loc 1 263 511
	slli	a2,a5,5
	or	a2,a2,a0
	.loc 1 263 293
	add	a2,a2,a4
.LVL21:
	.loc 1 263 535 is_stmt 1
	.loc 1 263 537 is_stmt 0
	srli	a0,s3,2
	slli	a4,s3,30
	or	a4,a4,a0
.LVL22:
	.loc 1 263 578 is_stmt 1
	.loc 1 263 580
	.loc 1 263 634 is_stmt 0
	lw	a0,8(sp)
	.loc 1 263 594
	xor	t0,a3,a4
	.loc 1 263 589
	and	t0,t0,a5
	.loc 1 263 648
	slli	a6,a0,24
	srli	ra,a0,8
	or	ra,ra,a6
	.loc 1 263 723
	slli	a6,a0,8
	srli	a0,a0,24
	or	a0,a6,a0
	.loc 1 263 756
	and	a0,a0,s1
	.loc 1 263 682
	and	ra,ra,s2
	.loc 1 263 696
	or	ra,ra,a0
	lw	a0,8(s8)
	.loc 1 263 600
	xor	t0,t0,a3
	.loc 1 263 800
	srli	a6,a2,27
	add	a0,ra,a0
	add	a0,a0,s0
	add	a0,t0,a0
	slli	t0,a2,5
	or	t0,t0,a6
	.loc 1 263 582
	add	t0,t0,a0
.LVL23:
	.loc 1 263 824 is_stmt 1
	.loc 1 263 826 is_stmt 0
	srli	a0,a5,2
	slli	a5,a5,30
.LVL24:
	or	a5,a5,a0
.LVL25:
	.loc 1 263 867 is_stmt 1
	.loc 1 263 869
	.loc 1 263 923 is_stmt 0
	lw	a0,12(sp)
	.loc 1 263 883
	xor	t5,a4,a5
	.loc 1 263 878
	and	t5,t5,a2
	.loc 1 263 937
	slli	a6,a0,24
	srli	t2,a0,8
	or	t2,t2,a6
	.loc 1 263 1012
	slli	a6,a0,8
	srli	a0,a0,24
	or	a0,a6,a0
	.loc 1 263 1045
	and	a0,a0,s1
	.loc 1 263 971
	and	t2,t2,s2
	.loc 1 263 985
	or	t2,t2,a0
	add	a0,t2,s0
	.loc 1 263 889
	xor	t5,t5,a4
	add	a3,a0,a3
.LVL26:
	add	a3,t5,a3
	.loc 1 263 1089
	srli	a0,t0,27
	slli	t5,t0,5
	or	t5,t5,a0
	.loc 1 263 871
	add	t5,t5,a3
.LVL27:
	.loc 1 263 1113 is_stmt 1
	.loc 1 263 1115 is_stmt 0
	srli	a3,a2,2
	slli	a2,a2,30
.LVL28:
	or	a2,a2,a3
.LVL29:
	.loc 1 263 1156 is_stmt 1
	.loc 1 264 2
	.loc 1 264 56 is_stmt 0
	lw	a3,16(sp)
	.loc 1 264 16
	xor	t3,a5,a2
	.loc 1 264 11
	and	t3,t3,t0
	.loc 1 264 70
	slli	a0,a3,24
	srli	t6,a3,8
	or	t6,t6,a0
	.loc 1 264 145
	slli	a0,a3,8
	srli	a3,a3,24
	or	a3,a0,a3
	.loc 1 264 178
	and	a3,a3,s1
	.loc 1 264 104
	and	t6,t6,s2
	.loc 1 264 118
	or	t6,t6,a3
	add	a3,t6,s0
	.loc 1 264 22
	xor	t3,t3,a5
	add	a4,a3,a4
.LVL30:
	add	a4,t3,a4
	.loc 1 264 222
	srli	a3,t5,27
	slli	t3,t5,5
	or	t3,t3,a3
	.loc 1 264 4
	add	t3,t3,a4
.LVL31:
	.loc 1 264 246 is_stmt 1
	.loc 1 264 248 is_stmt 0
	srli	a4,t0,2
	slli	t0,t0,30
.LVL32:
	or	t0,t0,a4
.LVL33:
	.loc 1 264 289 is_stmt 1
	.loc 1 264 291
	.loc 1 264 345 is_stmt 0
	lw	a4,20(sp)
	.loc 1 264 305
	xor	a6,a2,t0
	.loc 1 264 300
	and	a6,a6,t5
	.loc 1 264 359
	slli	a3,a4,24
	srli	t4,a4,8
	or	t4,t4,a3
	.loc 1 264 434
	slli	a3,a4,8
	srli	a4,a4,24
	or	a4,a3,a4
	.loc 1 264 467
	and	a4,a4,s1
	.loc 1 264 393
	and	t4,t4,s2
	.loc 1 264 407
	or	t4,t4,a4
	add	a4,t4,s0
	.loc 1 264 311
	xor	a6,a6,a2
	add	a5,a4,a5
.LVL34:
	add	a5,a6,a5
	.loc 1 264 511
	srli	a4,t3,27
	slli	a6,t3,5
	or	a6,a6,a4
	.loc 1 264 293
	add	a6,a6,a5
.LVL35:
	.loc 1 264 535 is_stmt 1
	.loc 1 264 537 is_stmt 0
	srli	a5,t5,2
	slli	t5,t5,30
.LVL36:
	or	t5,t5,a5
.LVL37:
	.loc 1 264 578 is_stmt 1
	.loc 1 264 580
	.loc 1 264 634 is_stmt 0
	lw	a5,24(sp)
	.loc 1 264 594
	xor	a3,t0,t5
	.loc 1 264 589
	and	a3,a3,t3
	.loc 1 264 648
	slli	a4,a5,24
	srli	a7,a5,8
	or	a7,a7,a4
	.loc 1 264 723
	slli	a4,a5,8
	srli	a5,a5,24
	or	a5,a4,a5
	.loc 1 264 756
	and	a5,a5,s1
	.loc 1 264 682
	and	a7,a7,s2
	.loc 1 264 696
	or	a7,a7,a5
	add	a5,a7,s0
	.loc 1 264 600
	xor	a3,a3,t0
	add	a2,a5,a2
.LVL38:
	add	a2,a3,a2
	.loc 1 264 800
	srli	a5,a6,27
	slli	a3,a6,5
	or	a3,a3,a5
	.loc 1 264 826
	srli	a5,t3,2
	slli	t3,t3,30
.LVL39:
	or	t3,t3,a5
	.loc 1 264 923
	lw	a5,28(sp)
	.loc 1 264 582
	add	a3,a3,a2
.LVL40:
	.loc 1 264 824 is_stmt 1
	.loc 1 264 867
	.loc 1 264 869
	.loc 1 267 130 is_stmt 0
	xor	t1,t1,ra
	.loc 1 264 937
	slli	a4,a5,24
	srli	a2,a5,8
	or	a2,a2,a4
	.loc 1 264 1012
	slli	a4,a5,8
	srli	a5,a5,24
	or	a5,a4,a5
	.loc 1 264 1045
	and	a5,a5,s1
	.loc 1 264 971
	and	a2,a2,s2
	.loc 1 264 985
	or	a2,a2,a5
	.loc 1 264 883
	xor	a4,t5,t3
	add	a5,a2,s0
	.loc 1 264 878
	and	a4,a4,a6
	.loc 1 264 889
	xor	a4,a4,t5
	add	t0,a5,t0
.LVL41:
	add	t0,a4,t0
	.loc 1 264 1089
	srli	a5,a3,27
	slli	a4,a3,5
	or	a4,a4,a5
	.loc 1 264 1115
	srli	a5,a6,2
	slli	a6,a6,30
.LVL42:
	or	a6,a6,a5
	.loc 1 265 56
	lw	a5,32(sp)
	.loc 1 264 871
	add	a4,a4,t0
.LVL43:
	.loc 1 264 1113 is_stmt 1
	.loc 1 264 1156
	.loc 1 265 2
	.loc 1 267 504 is_stmt 0
	xor	a1,a1,t2
	.loc 1 265 70
	slli	a0,a5,24
	srli	t0,a5,8
	or	t0,t0,a0
	.loc 1 265 145
	slli	a0,a5,8
	srli	a5,a5,24
	or	a5,a0,a5
	.loc 1 265 178
	and	a5,a5,s1
	.loc 1 265 104
	and	t0,t0,s2
	.loc 1 265 118
	or	t0,t0,a5
	.loc 1 265 16
	xor	a5,t3,a6
	add	a0,t0,s0
	.loc 1 265 11
	and	a5,a5,a3
	.loc 1 265 22
	xor	a5,a5,t3
	add	t5,a0,t5
.LVL44:
	add	t5,a5,t5
	.loc 1 265 222
	srli	a0,a4,27
	slli	a5,a4,5
	or	a5,a5,a0
	.loc 1 265 248
	srli	a0,a3,2
	slli	a3,a3,30
.LVL45:
	or	a3,a3,a0
	.loc 1 265 345
	lw	a0,36(sp)
	.loc 1 265 4
	add	a5,a5,t5
.LVL46:
	.loc 1 265 246 is_stmt 1
	.loc 1 265 289
	.loc 1 265 291
	.loc 1 265 305 is_stmt 0
	xor	s9,a6,a3
	.loc 1 265 359
	slli	s4,a0,24
	srli	t5,a0,8
	or	t5,t5,s4
	.loc 1 265 434
	slli	s4,a0,8
	srli	a0,a0,24
	or	a0,s4,a0
	.loc 1 265 467
	and	a0,a0,s1
	.loc 1 265 393
	and	t5,t5,s2
	.loc 1 265 407
	or	t5,t5,a0
	add	a0,t5,s0
	.loc 1 265 300
	and	s9,s9,a4
	.loc 1 265 311
	xor	s9,s9,a6
	add	t3,a0,t3
.LVL47:
	add	t3,s9,t3
	.loc 1 265 511
	srli	a0,a5,27
	slli	s9,a5,5
	or	s9,s9,a0
	.loc 1 265 537
	srli	a0,a4,2
	slli	a4,a4,30
.LVL48:
	or	a4,a4,a0
	.loc 1 265 635
	lw	a0,40(sp)
	.loc 1 265 293
	add	s9,s9,t3
.LVL49:
	.loc 1 265 535 is_stmt 1
	.loc 1 265 578
	.loc 1 265 580
	.loc 1 267 130 is_stmt 0
	xor	t1,t1,t0
	.loc 1 265 650
	slli	s4,a0,24
	srli	t3,a0,8
	or	t3,t3,s4
	.loc 1 265 685
	and	s4,t3,s2
	.loc 1 265 727
	slli	t3,a0,8
	srli	a0,a0,24
	or	a0,t3,a0
	.loc 1 265 761
	and	a0,a0,s1
	.loc 1 265 699
	or	t3,s4,a0
	.loc 1 265 594
	xor	a0,a3,a4
	add	s4,t3,s0
	.loc 1 265 589
	and	a0,a0,a5
	.loc 1 265 600
	xor	a0,a0,a3
	add	a6,s4,a6
.LVL50:
	add	a6,a0,a6
	.loc 1 265 805
	srli	s4,s9,27
	slli	a0,s9,5
	or	a0,a0,s4
	.loc 1 265 929
	lw	s4,44(sp)
	.loc 1 265 582
	add	a0,a0,a6
.LVL51:
	.loc 1 265 829 is_stmt 1
	.loc 1 265 831 is_stmt 0
	srli	a6,a5,2
	slli	a5,a5,30
.LVL52:
	or	a5,a5,a6
.LVL53:
	.loc 1 265 872 is_stmt 1
	.loc 1 265 874
	.loc 1 265 944 is_stmt 0
	slli	s5,s4,24
	srli	a6,s4,8
	or	a6,a6,s5
	.loc 1 265 1021
	slli	s5,s4,8
	srli	s4,s4,24
	or	s4,s5,s4
	.loc 1 265 1055
	and	s4,s4,s1
	.loc 1 265 979
	and	a6,a6,s2
	.loc 1 265 993
	or	a6,a6,s4
	.loc 1 265 888
	xor	s7,a4,a5
	add	s4,a6,s0
	.loc 1 265 883
	and	s7,s7,s9
	.loc 1 265 894
	xor	s7,s7,a4
	add	a3,s4,a3
.LVL54:
	add	a3,s7,a3
	.loc 1 265 1099
	srli	s4,a0,27
	slli	s7,a0,5
	or	s7,s7,s4
	.loc 1 266 57
	lw	s4,48(sp)
	.loc 1 265 876
	add	s7,s7,a3
.LVL55:
	.loc 1 265 1123 is_stmt 1
	.loc 1 265 1125 is_stmt 0
	srli	a3,s9,2
	slli	s9,s9,30
.LVL56:
	or	s9,s9,a3
.LVL57:
	.loc 1 265 1166 is_stmt 1
	.loc 1 266 2
	.loc 1 266 72 is_stmt 0
	slli	s5,s4,24
	srli	a3,s4,8
	or	a3,a3,s5
	.loc 1 266 149
	slli	s5,s4,8
	srli	s4,s4,24
	or	s4,s5,s4
	.loc 1 266 183
	and	s4,s4,s1
	.loc 1 266 107
	and	a3,a3,s2
	.loc 1 266 121
	or	a3,a3,s4
	add	s4,a3,s0
	.loc 1 266 16
	xor	s5,a5,s9
	.loc 1 266 11
	and	s5,s5,a0
	add	a4,s4,a4
.LVL58:
	.loc 1 266 227
	slli	s6,s7,5
	srli	s4,s7,27
	.loc 1 266 22
	xor	s5,s5,a5
	.loc 1 266 227
	or	s6,s6,s4
	.loc 1 266 351
	lw	s4,52(sp)
	add	a4,s5,a4
	.loc 1 266 4
	add	s6,s6,a4
.LVL59:
	.loc 1 266 251 is_stmt 1
	.loc 1 266 253 is_stmt 0
	srli	a4,a0,2
	slli	a0,a0,30
.LVL60:
	or	a0,a0,a4
.LVL61:
	.loc 1 266 294 is_stmt 1
	.loc 1 266 296
	.loc 1 266 366 is_stmt 0
	slli	s5,s4,24
	srli	a4,s4,8
	or	a4,a4,s5
	.loc 1 266 443
	slli	s5,s4,8
	srli	s4,s4,24
	or	s4,s5,s4
	.loc 1 266 477
	and	s4,s4,s1
	.loc 1 266 401
	and	a4,a4,s2
	.loc 1 266 415
	or	a4,a4,s4
	add	s4,a4,s0
	.loc 1 266 310
	xor	s10,s9,a0
	.loc 1 266 305
	and	s10,s10,s7
	add	a5,s4,a5
.LVL62:
	.loc 1 266 521
	slli	s5,s6,5
	srli	s4,s6,27
	.loc 1 266 316
	xor	s10,s10,s9
	.loc 1 266 521
	or	s5,s5,s4
	.loc 1 266 645
	lw	s4,56(sp)
	add	a5,s10,a5
	.loc 1 266 298
	add	s5,s5,a5
.LVL63:
	.loc 1 266 545 is_stmt 1
	.loc 1 266 547 is_stmt 0
	srli	a5,s7,2
	slli	s7,s7,30
.LVL64:
	or	s7,s7,a5
.LVL65:
	.loc 1 266 588 is_stmt 1
	.loc 1 266 590
	.loc 1 266 660 is_stmt 0
	slli	s10,s4,24
	srli	a5,s4,8
	or	a5,a5,s10
	.loc 1 266 737
	slli	s10,s4,8
	srli	s4,s4,24
	or	s4,s10,s4
	.loc 1 266 771
	and	s4,s4,s1
	.loc 1 266 695
	and	a5,a5,s2
	.loc 1 266 709
	or	a5,a5,s4
	.loc 1 266 604
	xor	s11,a0,s7
	add	s10,a5,s0
	.loc 1 266 599
	and	s11,s11,s6
	.loc 1 266 610
	xor	s11,s11,a0
	add	s9,s10,s9
.LVL66:
	.loc 1 266 815
	slli	s4,s5,5
	srli	s10,s5,27
	add	s9,s11,s9
	or	s4,s4,s10
	.loc 1 266 592
	add	s4,s4,s9
.LVL67:
	.loc 1 266 839 is_stmt 1
	.loc 1 266 841 is_stmt 0
	srli	s9,s6,2
	slli	s6,s6,30
.LVL68:
	or	s6,s6,s9
.LVL69:
	.loc 1 266 882 is_stmt 1
	.loc 1 266 884
	.loc 1 266 939 is_stmt 0
	lw	s9,60(sp)
	.loc 1 267 130
	xor	t1,t1,a4
	.loc 1 267 504
	xor	a1,a1,t5
	.loc 1 266 954
	slli	s11,s9,24
	srli	s10,s9,8
	or	s10,s10,s11
	.loc 1 266 989
	and	s10,s10,s2
	.loc 1 266 1031
	slli	s2,s9,8
	srli	s9,s9,24
	or	s9,s2,s9
	.loc 1 266 1065
	and	s2,s9,s1
	.loc 1 266 898
	xor	s1,s7,s6
	.loc 1 266 1003
	or	s2,s10,s2
	.loc 1 266 893
	and	s1,s1,s5
	.loc 1 266 904
	xor	s9,s1,s7
	add	s1,s2,s0
	add	a0,s1,a0
.LVL70:
	add	s1,s9,a0
	.loc 1 266 1109
	srli	s9,s4,27
	slli	a0,s4,5
	or	a0,a0,s9
	.loc 1 266 886
	add	a0,a0,s1
.LVL71:
	.loc 1 266 1133 is_stmt 1
	.loc 1 266 1135 is_stmt 0
	srli	s1,s5,2
	slli	s5,s5,30
.LVL72:
	or	s5,s5,s1
.LVL73:
	.loc 1 266 1176 is_stmt 1
	.loc 1 267 2
	.loc 1 267 159 is_stmt 0
	slli	s1,t1,1
	srli	t1,t1,31
	or	t1,t1,s1
	.loc 1 267 16
	xor	s1,s6,s5
	.loc 1 267 11
	and	s1,s1,s4
	.loc 1 267 22
	xor	s9,s1,s6
	add	s1,t1,s0
	add	s7,s1,s7
.LVL74:
	add	s1,s9,s7
	.loc 1 267 307
	srli	s9,a0,27
	slli	s7,a0,5
	or	s7,s7,s9
	.loc 1 267 4
	add	s7,s7,s1
.LVL75:
	.loc 1 267 331 is_stmt 1
	.loc 1 267 504 is_stmt 0
	xor	a1,a1,a5
	.loc 1 267 333
	srli	s1,s4,2
	slli	s4,s4,30
.LVL76:
	or	s4,s4,s1
.LVL77:
	.loc 1 267 374 is_stmt 1
	.loc 1 267 376
	.loc 1 267 533 is_stmt 0
	slli	s1,a1,1
	srli	a1,a1,31
	or	a1,a1,s1
	.loc 1 267 390
	xor	s1,s5,s4
	.loc 1 267 385
	and	s1,s1,a0
	.loc 1 267 396
	xor	s9,s1,s5
	add	s1,a1,s0
	add	s6,s1,s6
.LVL78:
	add	s1,s9,s6
	.loc 1 267 878
	xor	ra,ra,t6
	.loc 1 267 681
	srli	s9,s7,27
	slli	s6,s7,5
	or	s6,s6,s9
	.loc 1 267 878
	xor	ra,ra,t3
	.loc 1 267 378
	add	s6,s6,s1
.LVL79:
	.loc 1 267 705 is_stmt 1
	.loc 1 267 878 is_stmt 0
	xor	ra,ra,s2
	.loc 1 267 707
	srli	s1,a0,2
	slli	a0,a0,30
.LVL80:
	or	a0,a0,s1
.LVL81:
	.loc 1 267 748 is_stmt 1
	.loc 1 267 750
	.loc 1 267 907 is_stmt 0
	slli	s1,ra,1
	srli	ra,ra,31
	or	ra,ra,s1
	.loc 1 267 764
	xor	s9,s4,a0
	add	s1,ra,s0
	.loc 1 267 759
	and	s9,s9,s7
	.loc 1 267 770
	xor	s9,s9,s4
	add	s5,s1,s5
.LVL82:
	add	s5,s9,s5
	.loc 1 267 1055
	slli	s1,s6,5
	srli	s9,s6,27
	.loc 1 267 1252
	xor	t2,t2,t4
	.loc 1 267 1055
	or	s1,s1,s9
	.loc 1 267 1252
	xor	t2,t2,a6
	.loc 1 267 752
	add	s5,s1,s5
.LVL83:
	.loc 1 267 1079 is_stmt 1
	.loc 1 267 1252 is_stmt 0
	xor	t2,t2,t1
	.loc 1 267 1081
	srli	s1,s7,2
	slli	s7,s7,30
.LVL84:
	or	s7,s7,s1
.LVL85:
	.loc 1 267 1122 is_stmt 1
	.loc 1 267 1124
	.loc 1 267 1281 is_stmt 0
	slli	s1,t2,1
	srli	t2,t2,31
	or	t2,t2,s1
	.loc 1 267 1138
	xor	s1,a0,s7
	add	s0,t2,s0
	.loc 1 267 1133
	and	s1,s1,s6
	.loc 1 267 1144
	xor	s1,s1,a0
	add	s4,s0,s4
.LVL86:
	add	s4,s1,s4
	.loc 1 267 1429
	slli	s0,s5,5
	srli	s1,s5,27
	.loc 1 268 122
	xor	t6,t6,a7
	.loc 1 267 1429
	or	s0,s0,s1
	.loc 1 268 122
	xor	t6,t6,a3
	.loc 1 267 1126
	add	s4,s0,s4
.LVL87:
	.loc 1 267 1453 is_stmt 1
	.loc 1 268 122 is_stmt 0
	xor	t6,t6,a1
	.loc 1 267 1455
	srli	s0,s6,2
	slli	s6,s6,30
.LVL88:
	or	s6,s6,s0
.LVL89:
	.loc 1 267 1496 is_stmt 1
	.loc 1 268 2
	.loc 1 268 151 is_stmt 0
	slli	s0,t6,1
	srli	t6,t6,31
	or	t6,t6,s0
	li	s0,1859776512
	addi	s0,s0,-1119
	add	s1,t6,s0
	.loc 1 268 14
	xor	s9,s7,s6
	xor	s9,s9,s5
	add	a0,s1,a0
.LVL90:
	add	a0,s9,a0
	.loc 1 268 299
	slli	s1,s4,5
	srli	s9,s4,27
	.loc 1 268 488
	xor	t4,t4,a2
	.loc 1 268 299
	or	s1,s1,s9
	.loc 1 268 488
	xor	t4,t4,a4
	.loc 1 268 4
	add	a0,s1,a0
.LVL91:
	.loc 1 268 323 is_stmt 1
	.loc 1 268 488 is_stmt 0
	xor	t4,t4,ra
	.loc 1 268 325
	srli	s1,s5,2
	slli	s5,s5,30
.LVL92:
	or	s5,s5,s1
.LVL93:
	.loc 1 268 366 is_stmt 1
	.loc 1 268 368
	.loc 1 268 517 is_stmt 0
	slli	s1,t4,1
	srli	t4,t4,31
	or	t4,t4,s1
	add	s1,t4,s0
	.loc 1 268 380
	xor	s9,s6,s5
	xor	s9,s9,s4
	add	s7,s1,s7
.LVL94:
	add	s7,s9,s7
	.loc 1 268 665
	slli	s1,a0,5
	srli	s9,a0,27
	.loc 1 268 854
	xor	a7,a7,t0
	.loc 1 268 665
	or	s1,s1,s9
	.loc 1 268 854
	xor	a7,a7,a5
	.loc 1 268 370
	add	s7,s1,s7
.LVL95:
	.loc 1 268 689 is_stmt 1
	.loc 1 268 854 is_stmt 0
	xor	a7,a7,t2
	.loc 1 268 691
	srli	s1,s4,2
	slli	s4,s4,30
.LVL96:
	or	s4,s4,s1
.LVL97:
	.loc 1 268 732 is_stmt 1
	.loc 1 268 734
	.loc 1 268 883 is_stmt 0
	slli	s1,a7,1
	srli	a7,a7,31
	or	a7,a7,s1
	add	s1,a7,s0
	.loc 1 268 746
	xor	s9,s5,s4
	xor	s9,s9,a0
	add	s6,s1,s6
.LVL98:
	add	s6,s9,s6
	.loc 1 268 1031
	slli	s1,s7,5
	srli	s9,s7,27
	.loc 1 268 1220
	xor	a2,a2,t5
	.loc 1 268 1031
	or	s1,s1,s9
	.loc 1 268 1220
	xor	a2,a2,s2
	.loc 1 268 736
	add	s6,s1,s6
.LVL99:
	.loc 1 268 1055 is_stmt 1
	.loc 1 268 1220 is_stmt 0
	xor	a2,a2,t6
	.loc 1 268 1057
	srli	s1,a0,2
	slli	a0,a0,30
.LVL100:
	or	a0,a0,s1
.LVL101:
	.loc 1 268 1098 is_stmt 1
	.loc 1 268 1100
	.loc 1 268 1249 is_stmt 0
	slli	s1,a2,1
	srli	a2,a2,31
	or	a2,a2,s1
	add	s1,a2,s0
	.loc 1 268 1112
	xor	s9,s4,a0
	xor	s9,s9,s7
	add	s5,s1,s5
.LVL102:
	add	s5,s9,s5
	.loc 1 268 1397
	slli	s1,s6,5
	srli	s9,s6,27
	.loc 1 269 122
	xor	t0,t0,t3
	.loc 1 268 1397
	or	s1,s1,s9
	.loc 1 269 122
	xor	t0,t0,t1
	.loc 1 268 1102
	add	s5,s1,s5
.LVL103:
	.loc 1 268 1421 is_stmt 1
	.loc 1 269 122 is_stmt 0
	xor	t0,t0,t4
	.loc 1 268 1423
	srli	s1,s7,2
	slli	s7,s7,30
.LVL104:
	or	s7,s7,s1
.LVL105:
	.loc 1 268 1464 is_stmt 1
	.loc 1 269 2
	.loc 1 269 151 is_stmt 0
	slli	s1,t0,1
	srli	t0,t0,31
	or	t0,t0,s1
	add	s1,t0,s0
	.loc 1 269 14
	xor	s9,a0,s7
	xor	s9,s9,s6
	add	s4,s1,s4
.LVL106:
	add	s4,s9,s4
	.loc 1 269 299
	slli	s1,s5,5
	srli	s9,s5,27
	.loc 1 269 488
	xor	t5,t5,a6
	.loc 1 269 299
	or	s1,s1,s9
	.loc 1 269 488
	xor	t5,t5,a1
	.loc 1 269 4
	add	s4,s1,s4
.LVL107:
	.loc 1 269 323 is_stmt 1
	.loc 1 269 488 is_stmt 0
	xor	t5,t5,a7
	.loc 1 269 325
	srli	s1,s6,2
	slli	s6,s6,30
.LVL108:
	or	s6,s6,s1
.LVL109:
	.loc 1 269 366 is_stmt 1
	.loc 1 269 368
	.loc 1 269 517 is_stmt 0
	slli	s1,t5,1
	srli	t5,t5,31
	or	t5,t5,s1
	add	s1,t5,s0
	.loc 1 269 380
	xor	s9,s7,s6
	xor	s9,s9,s5
	add	a0,s1,a0
.LVL110:
	add	a0,s9,a0
	.loc 1 269 665
	slli	s1,s4,5
	srli	s9,s4,27
	.loc 1 269 854
	xor	t3,t3,a3
	.loc 1 269 665
	or	s1,s1,s9
	.loc 1 269 854
	xor	t3,t3,ra
	.loc 1 269 370
	add	a0,s1,a0
.LVL111:
	.loc 1 269 689 is_stmt 1
	.loc 1 269 854 is_stmt 0
	xor	t3,t3,a2
	.loc 1 269 691
	srli	s1,s5,2
	slli	s5,s5,30
.LVL112:
	or	s5,s5,s1
.LVL113:
	.loc 1 269 732 is_stmt 1
	.loc 1 269 734
	.loc 1 269 883 is_stmt 0
	slli	s1,t3,1
	srli	t3,t3,31
	or	t3,t3,s1
	add	s1,t3,s0
	.loc 1 269 746
	xor	s9,s6,s5
	xor	s9,s9,s4
	add	s7,s1,s7
.LVL114:
	add	s7,s9,s7
	.loc 1 269 1031
	slli	s1,a0,5
	srli	s9,a0,27
	.loc 1 269 1220
	xor	a6,a6,a4
	.loc 1 269 1031
	or	s1,s1,s9
	.loc 1 269 1220
	xor	a6,a6,t2
	.loc 1 269 736
	add	s7,s1,s7
.LVL115:
	.loc 1 269 1055 is_stmt 1
	.loc 1 269 1220 is_stmt 0
	xor	a6,a6,t0
	.loc 1 269 1057
	srli	s1,s4,2
	slli	s4,s4,30
.LVL116:
	or	s4,s4,s1
.LVL117:
	.loc 1 269 1098 is_stmt 1
	.loc 1 269 1100
	.loc 1 269 1249 is_stmt 0
	slli	s1,a6,1
	srli	a6,a6,31
	or	a6,a6,s1
	add	s1,a6,s0
	.loc 1 269 1112
	xor	s9,s5,s4
	xor	s9,s9,a0
	add	s6,s1,s6
.LVL118:
	add	s6,s9,s6
	.loc 1 269 1397
	slli	s1,s7,5
	srli	s9,s7,27
	.loc 1 270 122
	xor	a3,a3,a5
	.loc 1 269 1397
	or	s1,s1,s9
	.loc 1 270 122
	xor	a3,a3,t6
	.loc 1 269 1102
	add	s6,s1,s6
.LVL119:
	.loc 1 269 1421 is_stmt 1
	.loc 1 270 122 is_stmt 0
	xor	a3,a3,t5
	.loc 1 269 1423
	srli	s1,a0,2
	slli	a0,a0,30
.LVL120:
	or	a0,a0,s1
.LVL121:
	.loc 1 269 1464 is_stmt 1
	.loc 1 270 2
	.loc 1 270 151 is_stmt 0
	slli	s1,a3,1
	srli	a3,a3,31
	or	a3,a3,s1
	add	s1,a3,s0
	.loc 1 270 14
	xor	s9,s4,a0
	xor	s9,s9,s7
	add	s5,s1,s5
.LVL122:
	add	s5,s9,s5
	.loc 1 270 299
	slli	s1,s6,5
	srli	s9,s6,27
	or	s1,s1,s9
	.loc 1 270 488
	xor	s9,a4,s2
	xor	s9,s9,t4
	.loc 1 270 4
	add	s5,s1,s5
.LVL123:
	.loc 1 270 323 is_stmt 1
	.loc 1 270 488 is_stmt 0
	xor	s9,s9,t3
	.loc 1 270 325
	srli	s1,s7,2
	slli	s7,s7,30
.LVL124:
	or	s7,s7,s1
.LVL125:
	.loc 1 270 366 is_stmt 1
	.loc 1 270 368
	.loc 1 270 517 is_stmt 0
	slli	s1,s9,1
	srli	s9,s9,31
	or	s9,s9,s1
	add	a4,s9,s0
	.loc 1 270 380
	xor	s1,a0,s7
	xor	s1,s1,s6
	add	s4,a4,s4
.LVL126:
	add	s4,s1,s4
	.loc 1 270 665
	slli	a4,s5,5
	srli	s1,s5,27
	or	a4,a4,s1
	.loc 1 270 370
	add	s4,a4,s4
.LVL127:
	.loc 1 270 689 is_stmt 1
	.loc 1 270 691 is_stmt 0
	srli	a4,s6,2
	slli	s6,s6,30
.LVL128:
	or	s6,s6,a4
.LVL129:
	.loc 1 270 732 is_stmt 1
	.loc 1 270 734
	.loc 1 270 854 is_stmt 0
	xor	a4,a5,t1
	xor	a4,a4,a7
	xor	a4,a4,a6
	.loc 1 270 883
	slli	s1,a4,1
	srli	a4,a4,31
	or	a4,a4,s1
	add	a5,a4,s0
	.loc 1 270 746
	xor	s1,s7,s6
	xor	s1,s1,s5
	add	a0,a5,a0
.LVL130:
	add	a0,s1,a0
	.loc 1 270 1031
	slli	a5,s4,5
	srli	s1,s4,27
	or	a5,a5,s1
	.loc 1 270 736
	add	a0,a5,a0
.LVL131:
	.loc 1 270 1055 is_stmt 1
	.loc 1 270 1057 is_stmt 0
	srli	a5,s5,2
	slli	s5,s5,30
.LVL132:
	or	s5,s5,a5
.LVL133:
	.loc 1 270 1098 is_stmt 1
	.loc 1 270 1100
	.loc 1 270 1220 is_stmt 0
	xor	a5,s2,a1
	xor	a5,a5,a2
	xor	a5,a5,a3
	.loc 1 270 1249
	slli	s1,a5,1
	srli	a5,a5,31
	or	a5,a5,s1
	add	s1,a5,s0
	.loc 1 270 1112
	xor	s2,s6,s5
	xor	s2,s2,s4
	add	s7,s1,s7
.LVL134:
	add	s7,s2,s7
	.loc 1 270 1397
	slli	s1,a0,5
	srli	s2,a0,27
	.loc 1 271 122
	xor	t1,t1,ra
	.loc 1 270 1397
	or	s1,s1,s2
	.loc 1 271 122
	xor	t1,t1,t0
	.loc 1 270 1102
	add	s7,s1,s7
.LVL135:
	.loc 1 270 1421 is_stmt 1
	.loc 1 271 122 is_stmt 0
	xor	t1,t1,s9
	.loc 1 270 1423
	srli	s1,s4,2
	slli	s4,s4,30
.LVL136:
	or	s4,s4,s1
.LVL137:
	.loc 1 270 1464 is_stmt 1
	.loc 1 271 2
	.loc 1 271 151 is_stmt 0
	slli	s1,t1,1
	srli	t1,t1,31
	or	t1,t1,s1
	add	s1,t1,s0
	.loc 1 271 14
	xor	s2,s5,s4
	xor	s2,s2,a0
	add	s6,s1,s6
.LVL138:
	add	s6,s2,s6
	.loc 1 271 299
	slli	s1,s7,5
	srli	s2,s7,27
	.loc 1 271 488
	xor	a1,a1,t2
	.loc 1 271 299
	or	s1,s1,s2
	.loc 1 271 488
	xor	a1,a1,t5
	.loc 1 271 4
	add	s6,s1,s6
.LVL139:
	.loc 1 271 323 is_stmt 1
	.loc 1 271 488 is_stmt 0
	xor	a1,a1,a4
	.loc 1 271 325
	srli	s1,a0,2
	slli	a0,a0,30
.LVL140:
	or	a0,a0,s1
.LVL141:
	.loc 1 271 366 is_stmt 1
	.loc 1 271 368
	.loc 1 271 517 is_stmt 0
	slli	s1,a1,1
	srli	a1,a1,31
	or	a1,a1,s1
	add	s1,a1,s0
	.loc 1 271 380
	xor	s2,s4,a0
	xor	s2,s2,s7
	add	s5,s1,s5
.LVL142:
	add	s5,s2,s5
	.loc 1 271 665
	slli	s1,s6,5
	srli	s2,s6,27
	.loc 1 271 854
	xor	ra,ra,t6
	.loc 1 271 665
	or	s1,s1,s2
	.loc 1 271 854
	xor	ra,ra,t3
	.loc 1 271 370
	add	s5,s1,s5
.LVL143:
	.loc 1 271 689 is_stmt 1
	.loc 1 271 854 is_stmt 0
	xor	ra,ra,a5
	.loc 1 271 691
	srli	s1,s7,2
	slli	s7,s7,30
.LVL144:
	or	s7,s7,s1
.LVL145:
	.loc 1 271 732 is_stmt 1
	.loc 1 271 734
	.loc 1 271 883 is_stmt 0
	slli	s1,ra,1
	srli	ra,ra,31
	or	ra,ra,s1
	add	s1,ra,s0
	.loc 1 271 746
	xor	s2,a0,s7
	xor	s2,s2,s6
	add	s4,s1,s4
.LVL146:
	add	s4,s2,s4
	.loc 1 271 1031
	slli	s1,s5,5
	srli	s2,s5,27
	.loc 1 271 1220
	xor	t2,t2,t4
	.loc 1 271 1031
	or	s1,s1,s2
	.loc 1 271 1220
	xor	t2,t2,a6
	.loc 1 271 736
	add	s4,s1,s4
.LVL147:
	.loc 1 271 1055 is_stmt 1
	.loc 1 271 1220 is_stmt 0
	xor	t2,t2,t1
	.loc 1 271 1057
	srli	s1,s6,2
	slli	s6,s6,30
.LVL148:
	or	s6,s6,s1
.LVL149:
	.loc 1 271 1098 is_stmt 1
	.loc 1 271 1100
	.loc 1 271 1249 is_stmt 0
	slli	s1,t2,1
	srli	t2,t2,31
	or	t2,t2,s1
	add	s1,t2,s0
	.loc 1 271 1112
	xor	s2,s7,s6
	xor	s2,s2,s5
	add	a0,s1,a0
.LVL150:
	add	a0,s2,a0
	.loc 1 271 1397
	slli	s1,s4,5
	srli	s2,s4,27
	.loc 1 272 122
	xor	t6,t6,a7
	.loc 1 271 1397
	or	s1,s1,s2
	.loc 1 272 122
	xor	t6,t6,a3
	.loc 1 271 1102
	add	a0,s1,a0
.LVL151:
	.loc 1 271 1421 is_stmt 1
	.loc 1 272 122 is_stmt 0
	xor	t6,t6,a1
	.loc 1 271 1423
	srli	s1,s5,2
	slli	s5,s5,30
.LVL152:
	or	s5,s5,s1
.LVL153:
	.loc 1 271 1464 is_stmt 1
	.loc 1 272 2
	.loc 1 272 151 is_stmt 0
	slli	s1,t6,1
	srli	t6,t6,31
	or	t6,t6,s1
	add	s1,t6,s0
	.loc 1 272 14
	xor	s2,s6,s5
	xor	s2,s2,s4
	add	s7,s1,s7
.LVL154:
	add	s7,s2,s7
	.loc 1 272 299
	slli	s1,a0,5
	srli	s2,a0,27
	.loc 1 272 488
	xor	t4,t4,a2
	.loc 1 272 299
	or	s1,s1,s2
	.loc 1 272 488
	xor	t4,t4,s9
	.loc 1 272 4
	add	s7,s1,s7
.LVL155:
	.loc 1 272 323 is_stmt 1
	.loc 1 272 488 is_stmt 0
	xor	t4,t4,ra
	.loc 1 272 325
	srli	s1,s4,2
	slli	s4,s4,30
.LVL156:
	or	s4,s4,s1
.LVL157:
	.loc 1 272 366 is_stmt 1
	.loc 1 272 368
	.loc 1 272 517 is_stmt 0
	slli	s1,t4,1
	srli	t4,t4,31
	or	t4,t4,s1
	add	s1,t4,s0
	.loc 1 272 380
	xor	s2,s5,s4
	xor	s2,s2,a0
	add	s6,s1,s6
.LVL158:
	add	s6,s2,s6
	.loc 1 272 665
	slli	s1,s7,5
	srli	s2,s7,27
	.loc 1 272 854
	xor	a7,a7,t0
	.loc 1 272 665
	or	s1,s1,s2
	.loc 1 272 854
	xor	a7,a7,a4
	.loc 1 272 370
	add	s6,s1,s6
.LVL159:
	.loc 1 272 689 is_stmt 1
	.loc 1 272 854 is_stmt 0
	xor	a7,a7,t2
	.loc 1 272 691
	srli	s1,a0,2
	slli	a0,a0,30
.LVL160:
	or	a0,a0,s1
.LVL161:
	.loc 1 272 732 is_stmt 1
	.loc 1 272 734
	.loc 1 272 883 is_stmt 0
	slli	s1,a7,1
	srli	a7,a7,31
	or	a7,a7,s1
	add	s1,a7,s0
	.loc 1 272 746
	xor	s2,s4,a0
	xor	s2,s2,s7
	add	s5,s1,s5
.LVL162:
	add	s5,s2,s5
	.loc 1 272 1031
	slli	s1,s6,5
	srli	s2,s6,27
	.loc 1 272 1220
	xor	a2,a2,t5
	.loc 1 272 1031
	or	s1,s1,s2
	.loc 1 272 1220
	xor	a2,a2,a5
	.loc 1 272 736
	add	s5,s1,s5
.LVL163:
	.loc 1 272 1055 is_stmt 1
	.loc 1 272 1220 is_stmt 0
	xor	a2,a2,t6
	.loc 1 272 1057
	srli	s1,s7,2
	slli	s7,s7,30
.LVL164:
	or	s7,s7,s1
.LVL165:
	.loc 1 272 1098 is_stmt 1
	.loc 1 272 1100
	.loc 1 272 1249 is_stmt 0
	slli	s1,a2,1
	srli	a2,a2,31
	or	a2,a2,s1
	add	s0,a2,s0
	.loc 1 272 1112
	xor	s1,a0,s7
	xor	s1,s1,s6
	add	s4,s0,s4
.LVL166:
	add	s4,s1,s4
	.loc 1 272 1397
	slli	s0,s5,5
	srli	s1,s5,27
	or	s0,s0,s1
	.loc 1 273 136
	xor	t0,t0,t3
	.loc 1 272 1102
	add	s4,s0,s4
.LVL167:
	.loc 1 272 1421 is_stmt 1
	.loc 1 273 136 is_stmt 0
	xor	t0,t0,t1
	.loc 1 272 1423
	srli	s0,s6,2
	slli	s6,s6,30
.LVL168:
	or	s6,s6,s0
.LVL169:
	.loc 1 272 1464 is_stmt 1
	.loc 1 273 2
	.loc 1 273 136 is_stmt 0
	xor	t0,t0,t4
	.loc 1 273 165
	slli	s0,t0,1
	.loc 1 273 12
	or	s2,s5,s6
	.loc 1 273 165
	srli	t0,t0,31
	or	t0,t0,s0
	.loc 1 273 17
	and	s2,s2,s7
	.loc 1 273 27
	and	s0,s5,s6
	.loc 1 273 22
	or	s2,s2,s0
	li	s0,-1894006784
	addi	s0,s0,-804
	add	s1,t0,s0
	add	a0,s1,a0
.LVL170:
	add	a0,s2,a0
	.loc 1 273 313
	slli	s1,s4,5
	srli	s2,s4,27
	or	s1,s1,s2
	.loc 1 273 516
	xor	t5,t5,a6
	.loc 1 273 4
	add	a0,s1,a0
.LVL171:
	.loc 1 273 337 is_stmt 1
	.loc 1 273 516 is_stmt 0
	xor	t5,t5,a1
	.loc 1 273 339
	srli	s1,s5,2
	slli	s5,s5,30
.LVL172:
	or	s5,s5,s1
.LVL173:
	.loc 1 273 380 is_stmt 1
	.loc 1 273 382
	.loc 1 273 516 is_stmt 0
	xor	t5,t5,a7
	.loc 1 273 392
	or	s2,s4,s5
	.loc 1 273 545
	slli	s1,t5,1
	srli	t5,t5,31
	or	t5,t5,s1
	.loc 1 273 397
	and	s1,s2,s6
	.loc 1 273 407
	and	s2,s4,s5
	.loc 1 273 402
	or	s2,s1,s2
	add	s1,t5,s0
	add	s7,s1,s7
.LVL174:
	add	s7,s2,s7
	.loc 1 273 693
	slli	s1,a0,5
	srli	s2,a0,27
	or	s1,s1,s2
	.loc 1 273 896
	xor	t3,t3,a3
	.loc 1 273 384
	add	s7,s1,s7
.LVL175:
	.loc 1 273 717 is_stmt 1
	.loc 1 273 896 is_stmt 0
	xor	t3,t3,ra
	.loc 1 273 719
	srli	s1,s4,2
	slli	s4,s4,30
.LVL176:
	or	s4,s4,s1
.LVL177:
	.loc 1 273 760 is_stmt 1
	.loc 1 273 762
	.loc 1 273 896 is_stmt 0
	xor	t3,t3,a2
	.loc 1 273 772
	or	s2,a0,s4
	.loc 1 273 925
	slli	s1,t3,1
	srli	t3,t3,31
	or	t3,t3,s1
	.loc 1 273 777
	and	s1,s2,s5
	.loc 1 273 787
	and	s2,a0,s4
	.loc 1 273 782
	or	s2,s1,s2
	add	s1,t3,s0
	add	s6,s1,s6
.LVL178:
	add	s6,s2,s6
	.loc 1 273 1073
	slli	s1,s7,5
	srli	s2,s7,27
	or	s1,s1,s2
	.loc 1 273 1276
	xor	a6,a6,s9
	.loc 1 273 764
	add	s6,s1,s6
.LVL179:
	.loc 1 273 1097 is_stmt 1
	.loc 1 273 1276 is_stmt 0
	xor	a6,a6,t2
	.loc 1 273 1099
	srli	s1,a0,2
	slli	a0,a0,30
.LVL180:
	or	a0,a0,s1
.LVL181:
	.loc 1 273 1140 is_stmt 1
	.loc 1 273 1142
	.loc 1 273 1276 is_stmt 0
	xor	a6,a6,t0
	.loc 1 273 1152
	or	s2,s7,a0
	.loc 1 273 1305
	slli	s1,a6,1
	srli	a6,a6,31
	or	a6,a6,s1
	.loc 1 273 1157
	and	s1,s2,s4
	.loc 1 273 1167
	and	s2,s7,a0
	.loc 1 273 1162
	or	s2,s1,s2
	add	s1,a6,s0
	add	s5,s1,s5
.LVL182:
	add	s5,s2,s5
	.loc 1 273 1453
	slli	s1,s6,5
	srli	s2,s6,27
	or	s1,s1,s2
	.loc 1 274 136
	xor	a3,a3,a4
	.loc 1 273 1144
	add	s5,s1,s5
.LVL183:
	.loc 1 273 1477 is_stmt 1
	.loc 1 274 136 is_stmt 0
	xor	a3,a3,t6
	.loc 1 273 1479
	srli	s1,s7,2
	slli	s7,s7,30
.LVL184:
	or	s7,s7,s1
.LVL185:
	.loc 1 273 1520 is_stmt 1
	.loc 1 274 2
	.loc 1 274 136 is_stmt 0
	xor	a3,a3,t5
	.loc 1 274 12
	or	s2,s6,s7
	.loc 1 274 165
	slli	s1,a3,1
	srli	a3,a3,31
	or	a3,a3,s1
	.loc 1 274 17
	and	s1,s2,a0
	.loc 1 274 27
	and	s2,s6,s7
	.loc 1 274 22
	or	s2,s1,s2
	add	s1,a3,s0
	add	s4,s1,s4
.LVL186:
	add	s4,s2,s4
	.loc 1 274 313
	slli	s1,s5,5
	srli	s2,s5,27
	or	s1,s1,s2
	.loc 1 274 516
	xor	s9,s9,a5
	.loc 1 274 4
	add	s4,s1,s4
.LVL187:
	.loc 1 274 337 is_stmt 1
	.loc 1 274 516 is_stmt 0
	xor	s9,s9,t4
	.loc 1 274 339
	srli	s1,s6,2
	slli	s6,s6,30
.LVL188:
	or	s6,s6,s1
.LVL189:
	.loc 1 274 380 is_stmt 1
	.loc 1 274 382
	.loc 1 274 516 is_stmt 0
	xor	s9,s9,t3
	.loc 1 274 392
	or	s2,s5,s6
	.loc 1 274 545
	slli	s1,s9,1
	srli	s9,s9,31
	or	s9,s9,s1
	.loc 1 274 397
	and	s1,s2,s7
	.loc 1 274 407
	and	s2,s5,s6
	.loc 1 274 402
	or	s2,s1,s2
	add	s1,s9,s0
	add	a0,s1,a0
.LVL190:
	add	a0,s2,a0
	.loc 1 274 693
	slli	s1,s4,5
	srli	s2,s4,27
	or	s1,s1,s2
	.loc 1 274 896
	xor	a4,a4,t1
	.loc 1 274 384
	add	a0,s1,a0
.LVL191:
	.loc 1 274 717 is_stmt 1
	.loc 1 274 896 is_stmt 0
	xor	a4,a4,a7
	.loc 1 274 719
	srli	s1,s5,2
	slli	s5,s5,30
.LVL192:
	or	s5,s5,s1
.LVL193:
	.loc 1 274 760 is_stmt 1
	.loc 1 274 762
	.loc 1 274 896 is_stmt 0
	xor	a4,a4,a6
	.loc 1 274 772
	or	s2,s4,s5
	.loc 1 274 925
	slli	s1,a4,1
	srli	a4,a4,31
	or	a4,a4,s1
	.loc 1 274 777
	and	s1,s2,s6
	.loc 1 274 787
	and	s2,s4,s5
	.loc 1 274 782
	or	s2,s1,s2
	add	s1,a4,s0
	add	s7,s1,s7
.LVL194:
	add	s7,s2,s7
	.loc 1 274 1073
	slli	s1,a0,5
	srli	s2,a0,27
	or	s1,s1,s2
	.loc 1 274 1276
	xor	a5,a5,a1
	.loc 1 274 764
	add	s7,s1,s7
.LVL195:
	.loc 1 274 1097 is_stmt 1
	.loc 1 274 1276 is_stmt 0
	xor	a5,a5,a2
	.loc 1 274 1099
	srli	s1,s4,2
	slli	s4,s4,30
.LVL196:
	or	s4,s4,s1
.LVL197:
	.loc 1 274 1140 is_stmt 1
	.loc 1 274 1142
	.loc 1 274 1276 is_stmt 0
	xor	a5,a5,a3
	.loc 1 274 1152
	or	s2,a0,s4
	.loc 1 274 1305
	slli	s1,a5,1
	srli	a5,a5,31
	or	a5,a5,s1
	.loc 1 274 1157
	and	s1,s2,s5
	.loc 1 274 1167
	and	s2,a0,s4
	.loc 1 274 1162
	or	s2,s1,s2
	add	s1,a5,s0
	add	s6,s1,s6
.LVL198:
	add	s6,s2,s6
	.loc 1 274 1453
	slli	s1,s7,5
	srli	s2,s7,27
	or	s1,s1,s2
	.loc 1 275 136
	xor	t1,t1,ra
	.loc 1 274 1144
	add	s6,s1,s6
.LVL199:
	.loc 1 274 1477 is_stmt 1
	.loc 1 275 136 is_stmt 0
	xor	t1,t1,t0
	.loc 1 274 1479
	srli	s1,a0,2
	slli	a0,a0,30
.LVL200:
	or	a0,a0,s1
.LVL201:
	.loc 1 274 1520 is_stmt 1
	.loc 1 275 2
	.loc 1 275 136 is_stmt 0
	xor	t1,t1,s9
	.loc 1 275 12
	or	s2,s7,a0
	.loc 1 275 165
	slli	s1,t1,1
	srli	t1,t1,31
	or	t1,t1,s1
	.loc 1 275 17
	and	s1,s2,s4
	.loc 1 275 27
	and	s2,s7,a0
	.loc 1 275 22
	or	s2,s1,s2
	add	s1,t1,s0
	add	s5,s1,s5
.LVL202:
	add	s5,s2,s5
	.loc 1 275 313
	slli	s1,s6,5
	srli	s2,s6,27
	or	s1,s1,s2
	.loc 1 275 516
	xor	a1,a1,t2
	.loc 1 275 4
	add	s5,s1,s5
.LVL203:
	.loc 1 275 337 is_stmt 1
	.loc 1 275 516 is_stmt 0
	xor	a1,a1,t5
	.loc 1 275 339
	srli	s1,s7,2
	slli	s7,s7,30
.LVL204:
	or	s7,s7,s1
.LVL205:
	.loc 1 275 380 is_stmt 1
	.loc 1 275 382
	.loc 1 275 516 is_stmt 0
	xor	a1,a1,a4
	.loc 1 275 392
	or	s2,s6,s7
	.loc 1 275 545
	slli	s1,a1,1
	srli	a1,a1,31
	or	a1,a1,s1
	.loc 1 275 397
	and	s1,s2,a0
	.loc 1 275 407
	and	s2,s6,s7
	.loc 1 275 402
	or	s2,s1,s2
	add	s1,a1,s0
	add	s4,s1,s4
.LVL206:
	add	s4,s2,s4
	.loc 1 275 693
	slli	s1,s5,5
	srli	s2,s5,27
	or	s1,s1,s2
	.loc 1 275 896
	xor	ra,ra,t6
	.loc 1 275 384
	add	s4,s1,s4
.LVL207:
	.loc 1 275 717 is_stmt 1
	.loc 1 275 896 is_stmt 0
	xor	ra,ra,t3
	.loc 1 275 719
	srli	s1,s6,2
	slli	s6,s6,30
.LVL208:
	or	s6,s6,s1
.LVL209:
	.loc 1 275 760 is_stmt 1
	.loc 1 275 762
	.loc 1 275 896 is_stmt 0
	xor	ra,ra,a5
	.loc 1 275 772
	or	s2,s5,s6
	.loc 1 275 925
	slli	s1,ra,1
	srli	ra,ra,31
	or	ra,ra,s1
	.loc 1 275 777
	and	s1,s2,s7
	.loc 1 275 787
	and	s2,s5,s6
	.loc 1 275 782
	or	s2,s1,s2
	add	s1,ra,s0
	add	a0,s1,a0
.LVL210:
	add	a0,s2,a0
	.loc 1 275 1073
	slli	s1,s4,5
	srli	s2,s4,27
	or	s1,s1,s2
	.loc 1 275 1276
	xor	t2,t2,t4
	.loc 1 275 764
	add	a0,s1,a0
.LVL211:
	.loc 1 275 1097 is_stmt 1
	.loc 1 275 1276 is_stmt 0
	xor	t2,t2,a6
	.loc 1 275 1099
	srli	s1,s5,2
	slli	s5,s5,30
.LVL212:
	or	s5,s5,s1
.LVL213:
	.loc 1 275 1140 is_stmt 1
	.loc 1 275 1142
	.loc 1 275 1276 is_stmt 0
	xor	t2,t2,t1
	.loc 1 275 1152
	or	s2,s4,s5
	.loc 1 275 1305
	slli	s1,t2,1
	srli	t2,t2,31
	or	t2,t2,s1
	.loc 1 275 1157
	and	s1,s2,s6
	.loc 1 275 1167
	and	s2,s4,s5
	.loc 1 275 1162
	or	s2,s1,s2
	add	s1,t2,s0
	add	s7,s1,s7
.LVL214:
	add	s7,s2,s7
	.loc 1 275 1453
	slli	s1,a0,5
	srli	s2,a0,27
	or	s1,s1,s2
	.loc 1 276 136
	xor	t6,t6,a7
	.loc 1 275 1144
	add	s7,s1,s7
.LVL215:
	.loc 1 275 1477 is_stmt 1
	.loc 1 276 136 is_stmt 0
	xor	t6,t6,a3
	.loc 1 275 1479
	srli	s1,s4,2
	slli	s4,s4,30
.LVL216:
	or	s4,s4,s1
.LVL217:
	.loc 1 275 1520 is_stmt 1
	.loc 1 276 2
	.loc 1 276 136 is_stmt 0
	xor	t6,t6,a1
	.loc 1 276 12
	or	s2,a0,s4
	.loc 1 276 165
	slli	s1,t6,1
	srli	t6,t6,31
	or	t6,t6,s1
	.loc 1 276 17
	and	s1,s2,s5
	.loc 1 276 27
	and	s2,a0,s4
	.loc 1 276 22
	or	s2,s1,s2
	add	s1,t6,s0
	add	s6,s1,s6
.LVL218:
	add	s6,s2,s6
	.loc 1 276 313
	slli	s1,s7,5
	srli	s2,s7,27
	or	s1,s1,s2
	.loc 1 276 516
	xor	t4,t4,a2
	.loc 1 276 4
	add	s6,s1,s6
.LVL219:
	.loc 1 276 337 is_stmt 1
	.loc 1 276 516 is_stmt 0
	xor	t4,t4,s9
	.loc 1 276 339
	srli	s1,a0,2
	slli	a0,a0,30
.LVL220:
	or	a0,a0,s1
.LVL221:
	.loc 1 276 380 is_stmt 1
	.loc 1 276 382
	.loc 1 276 516 is_stmt 0
	xor	t4,t4,ra
	.loc 1 276 392
	or	s2,s7,a0
	.loc 1 276 545
	slli	s1,t4,1
	srli	t4,t4,31
	or	t4,t4,s1
	.loc 1 276 397
	and	s1,s2,s4
	.loc 1 276 407
	and	s2,s7,a0
	.loc 1 276 402
	or	s2,s1,s2
	add	s1,t4,s0
	add	s5,s1,s5
.LVL222:
	add	s5,s2,s5
	.loc 1 276 693
	slli	s1,s6,5
	srli	s2,s6,27
	or	s1,s1,s2
	.loc 1 276 896
	xor	a7,a7,t0
	.loc 1 276 384
	add	s5,s1,s5
.LVL223:
	.loc 1 276 717 is_stmt 1
	.loc 1 276 896 is_stmt 0
	xor	a7,a7,a4
	.loc 1 276 719
	srli	s1,s7,2
	slli	s7,s7,30
.LVL224:
	or	s7,s7,s1
.LVL225:
	.loc 1 276 760 is_stmt 1
	.loc 1 276 762
	.loc 1 276 896 is_stmt 0
	xor	a7,a7,t2
	.loc 1 276 772
	or	s2,s6,s7
	.loc 1 276 925
	slli	s1,a7,1
	srli	a7,a7,31
	or	a7,a7,s1
	.loc 1 276 777
	and	s1,s2,a0
	.loc 1 276 787
	and	s2,s6,s7
	.loc 1 276 782
	or	s2,s1,s2
	add	s1,a7,s0
	add	s4,s1,s4
.LVL226:
	add	s4,s2,s4
	.loc 1 276 1073
	slli	s1,s5,5
	srli	s2,s5,27
	or	s1,s1,s2
	.loc 1 276 1276
	xor	a2,a2,t5
	.loc 1 276 764
	add	s4,s1,s4
.LVL227:
	.loc 1 276 1097 is_stmt 1
	.loc 1 276 1276 is_stmt 0
	xor	a2,a2,a5
	.loc 1 276 1099
	srli	s1,s6,2
	slli	s6,s6,30
.LVL228:
	or	s6,s6,s1
.LVL229:
	.loc 1 276 1140 is_stmt 1
	.loc 1 276 1142
	.loc 1 276 1276 is_stmt 0
	xor	a2,a2,t6
	.loc 1 276 1152
	or	s2,s5,s6
	.loc 1 276 1305
	slli	s1,a2,1
	srli	a2,a2,31
	or	a2,a2,s1
	.loc 1 276 1157
	and	s1,s2,s7
	.loc 1 276 1167
	and	s2,s5,s6
	.loc 1 276 1162
	or	s2,s1,s2
	add	s1,a2,s0
	add	a0,s1,a0
.LVL230:
	add	a0,s2,a0
	.loc 1 276 1453
	slli	s1,s4,5
	srli	s2,s4,27
	or	s1,s1,s2
	.loc 1 277 136
	xor	t0,t0,t3
	.loc 1 276 1144
	add	a0,s1,a0
.LVL231:
	.loc 1 276 1477 is_stmt 1
	.loc 1 277 136 is_stmt 0
	xor	t0,t0,t1
	.loc 1 276 1479
	srli	s1,s5,2
	slli	s5,s5,30
.LVL232:
	or	s5,s5,s1
.LVL233:
	.loc 1 276 1520 is_stmt 1
	.loc 1 277 2
	.loc 1 277 136 is_stmt 0
	xor	t0,t0,t4
	.loc 1 277 12
	or	s2,s4,s5
	.loc 1 277 165
	slli	s1,t0,1
	srli	t0,t0,31
	or	t0,t0,s1
	.loc 1 277 17
	and	s1,s2,s6
	.loc 1 277 27
	and	s2,s4,s5
	.loc 1 277 22
	or	s2,s1,s2
	add	s1,t0,s0
	add	s7,s1,s7
.LVL234:
	add	s7,s2,s7
	.loc 1 277 313
	slli	s1,a0,5
	srli	s2,a0,27
	or	s1,s1,s2
	.loc 1 277 516
	xor	t5,t5,a6
	.loc 1 277 4
	add	s7,s1,s7
.LVL235:
	.loc 1 277 337 is_stmt 1
	.loc 1 277 516 is_stmt 0
	xor	t5,t5,a1
	.loc 1 277 339
	srli	s1,s4,2
	slli	s4,s4,30
.LVL236:
	or	s4,s4,s1
.LVL237:
	.loc 1 277 380 is_stmt 1
	.loc 1 277 382
	.loc 1 277 516 is_stmt 0
	xor	t5,t5,a7
	.loc 1 277 392
	or	s2,a0,s4
	.loc 1 277 545
	slli	s1,t5,1
	srli	t5,t5,31
	or	t5,t5,s1
	.loc 1 277 397
	and	s1,s2,s5
	.loc 1 277 407
	and	s2,a0,s4
	.loc 1 277 402
	or	s2,s1,s2
	add	s1,t5,s0
	add	s6,s1,s6
.LVL238:
	add	s6,s2,s6
	.loc 1 277 693
	slli	s1,s7,5
	srli	s2,s7,27
	or	s1,s1,s2
	.loc 1 277 896
	xor	t3,t3,a3
	.loc 1 277 384
	add	s6,s1,s6
.LVL239:
	.loc 1 277 717 is_stmt 1
	.loc 1 277 896 is_stmt 0
	xor	t3,t3,ra
	.loc 1 277 719
	srli	s1,a0,2
	slli	a0,a0,30
.LVL240:
	or	a0,a0,s1
.LVL241:
	.loc 1 277 760 is_stmt 1
	.loc 1 277 762
	.loc 1 277 896 is_stmt 0
	xor	t3,t3,a2
	.loc 1 277 772
	or	s2,s7,a0
	.loc 1 277 925
	slli	s1,t3,1
	srli	t3,t3,31
	or	t3,t3,s1
	.loc 1 277 777
	and	s1,s2,s4
	.loc 1 277 787
	and	s2,s7,a0
	.loc 1 277 782
	or	s2,s1,s2
	add	s1,t3,s0
	add	s5,s1,s5
.LVL242:
	add	s5,s2,s5
	.loc 1 277 1073
	slli	s1,s6,5
	srli	s2,s6,27
	.loc 1 277 1276
	xor	a6,a6,s9
	.loc 1 277 1073
	or	s1,s1,s2
	.loc 1 277 1276
	xor	a6,a6,t2
	.loc 1 277 764
	add	s5,s1,s5
.LVL243:
	.loc 1 277 1097 is_stmt 1
	.loc 1 277 1276 is_stmt 0
	xor	a6,a6,t0
	.loc 1 277 1099
	srli	s1,s7,2
	slli	s7,s7,30
.LVL244:
	or	s7,s7,s1
.LVL245:
	.loc 1 277 1140 is_stmt 1
	.loc 1 277 1142
	.loc 1 277 1305 is_stmt 0
	slli	s1,a6,1
	srli	a6,a6,31
	or	a6,a6,s1
	.loc 1 277 1152
	or	s2,s6,s7
	.loc 1 277 1167
	and	s1,s6,s7
	add	s0,a6,s0
	.loc 1 277 1157
	and	s2,s2,a0
	add	s4,s0,s4
.LVL246:
	.loc 1 277 1162
	or	s2,s2,s1
	add	s1,s2,s4
	.loc 1 277 1453
	srli	s0,s5,27
	slli	s4,s5,5
	or	s4,s4,s0
	.loc 1 277 1479
	srli	s0,s6,2
	slli	s6,s6,30
.LVL247:
	or	s6,s6,s0
	.loc 1 278 122
	xor	s0,a3,a4
	xor	s0,s0,t6
	xor	s0,s0,t5
	.loc 1 277 1144
	add	s4,s4,s1
.LVL248:
	.loc 1 277 1477 is_stmt 1
	.loc 1 277 1520
	.loc 1 278 2
	.loc 1 278 151 is_stmt 0
	slli	s1,s0,1
	srli	s0,s0,31
	or	s0,s0,s1
	li	s1,-899497984
	addi	s1,s1,470
	add	a3,s0,s1
	.loc 1 278 14
	xor	s2,s7,s6
	xor	s2,s2,s5
	add	a0,a3,a0
.LVL249:
	add	a0,s2,a0
	.loc 1 278 299
	slli	a3,s4,5
	srli	s2,s4,27
	or	a3,a3,s2
	.loc 1 278 4
	add	a0,a3,a0
.LVL250:
	.loc 1 278 323 is_stmt 1
	.loc 1 278 324 is_stmt 0
	srli	a3,s5,2
	slli	s5,s5,30
.LVL251:
	or	s5,s5,a3
.LVL252:
	.loc 1 278 364 is_stmt 1
	.loc 1 278 366
	.loc 1 278 486 is_stmt 0
	xor	a3,s9,a5
	xor	a3,a3,t4
	xor	a3,a3,t3
	.loc 1 278 515
	slli	s2,a3,1
	srli	a3,a3,31
	or	a3,a3,s2
	add	s2,a3,s1
	.loc 1 278 378
	xor	s9,s6,s5
	xor	s9,s9,s4
	add	s7,s2,s7
.LVL253:
	add	s7,s9,s7
	.loc 1 278 663
	slli	s2,a0,5
	srli	s9,a0,27
	.loc 1 278 850
	xor	a4,a4,t1
	.loc 1 278 663
	or	s2,s2,s9
	.loc 1 278 850
	xor	a4,a4,a7
	.loc 1 278 368
	add	s7,s2,s7
.LVL254:
	.loc 1 278 687 is_stmt 1
	.loc 1 278 850 is_stmt 0
	xor	a4,a4,a6
	.loc 1 278 688
	srli	s2,s4,2
	slli	s4,s4,30
.LVL255:
	or	s4,s4,s2
.LVL256:
	.loc 1 278 728 is_stmt 1
	.loc 1 278 730
	.loc 1 278 879 is_stmt 0
	slli	s2,a4,1
	srli	a4,a4,31
	or	a4,a4,s2
	add	s2,a4,s1
	.loc 1 278 742
	xor	s9,s5,s4
	xor	s9,s9,a0
	add	s6,s2,s6
.LVL257:
	add	s6,s9,s6
	.loc 1 278 1027
	slli	s2,s7,5
	srli	s9,s7,27
	.loc 1 278 1214
	xor	a5,a5,a1
	.loc 1 278 1027
	or	s2,s2,s9
	.loc 1 278 1214
	xor	a5,a5,a2
	.loc 1 278 732
	add	s6,s2,s6
.LVL258:
	.loc 1 278 1051 is_stmt 1
	.loc 1 278 1214 is_stmt 0
	xor	a5,a5,s0
	.loc 1 278 1052
	srli	s2,a0,2
	slli	a0,a0,30
.LVL259:
	or	a0,a0,s2
.LVL260:
	.loc 1 278 1092 is_stmt 1
	.loc 1 278 1094
	.loc 1 278 1243 is_stmt 0
	slli	s2,a5,1
	srli	a5,a5,31
	or	a5,a5,s2
	add	s2,a5,s1
	.loc 1 278 1106
	xor	s9,s4,a0
	xor	s9,s9,s7
	add	s5,s2,s5
.LVL261:
	add	s5,s9,s5
	.loc 1 278 1391
	slli	s2,s6,5
	srli	s9,s6,27
	.loc 1 279 122
	xor	t1,t1,ra
	.loc 1 278 1391
	or	s2,s2,s9
	.loc 1 279 122
	xor	t1,t1,t0
	.loc 1 278 1096
	add	s5,s2,s5
.LVL262:
	.loc 1 278 1415 is_stmt 1
	.loc 1 279 122 is_stmt 0
	xor	t1,t1,a3
	.loc 1 278 1416
	srli	s2,s7,2
	slli	s7,s7,30
.LVL263:
	or	s7,s7,s2
.LVL264:
	.loc 1 278 1456 is_stmt 1
	.loc 1 279 2
	.loc 1 279 151 is_stmt 0
	slli	s2,t1,1
	srli	t1,t1,31
	or	t1,t1,s2
	add	s2,t1,s1
	.loc 1 279 14
	xor	s9,a0,s7
	xor	s9,s9,s6
	add	s4,s2,s4
.LVL265:
	add	s4,s9,s4
	.loc 1 279 299
	slli	s2,s5,5
	srli	s9,s5,27
	.loc 1 279 486
	xor	a1,a1,t2
	.loc 1 279 299
	or	s2,s2,s9
	.loc 1 279 486
	xor	a1,a1,t5
	.loc 1 279 4
	add	s4,s2,s4
.LVL266:
	.loc 1 279 323 is_stmt 1
	.loc 1 279 486 is_stmt 0
	xor	a1,a1,a4
	.loc 1 279 324
	srli	s2,s6,2
	slli	s6,s6,30
.LVL267:
	or	s6,s6,s2
.LVL268:
	.loc 1 279 364 is_stmt 1
	.loc 1 279 366
	.loc 1 279 515 is_stmt 0
	slli	s2,a1,1
	srli	a1,a1,31
	or	a1,a1,s2
	add	s2,a1,s1
	.loc 1 279 378
	xor	s9,s7,s6
	xor	s9,s9,s5
	add	a0,s2,a0
.LVL269:
	add	a0,s9,a0
	.loc 1 279 663
	slli	s2,s4,5
	srli	s9,s4,27
	.loc 1 279 850
	xor	ra,ra,t6
	.loc 1 279 663
	or	s2,s2,s9
	.loc 1 279 850
	xor	ra,ra,t3
	.loc 1 279 368
	add	a0,s2,a0
.LVL270:
	.loc 1 279 687 is_stmt 1
	.loc 1 279 850 is_stmt 0
	xor	ra,ra,a5
	.loc 1 279 688
	srli	s2,s5,2
	slli	s5,s5,30
.LVL271:
	or	s5,s5,s2
.LVL272:
	.loc 1 279 728 is_stmt 1
	.loc 1 279 730
	.loc 1 279 879 is_stmt 0
	slli	s2,ra,1
	srli	ra,ra,31
	or	ra,ra,s2
	add	s2,ra,s1
	.loc 1 279 742
	xor	s9,s6,s5
	xor	s9,s9,s4
	add	s7,s2,s7
.LVL273:
	add	s7,s9,s7
	.loc 1 279 1027
	slli	s2,a0,5
	srli	s9,a0,27
	.loc 1 279 1214
	xor	t2,t2,t4
	.loc 1 279 1027
	or	s2,s2,s9
	.loc 1 279 1214
	xor	t2,t2,a6
	.loc 1 279 732
	add	s7,s2,s7
.LVL274:
	.loc 1 279 1051 is_stmt 1
	.loc 1 279 1214 is_stmt 0
	xor	t2,t2,t1
	.loc 1 279 1052
	srli	s2,s4,2
	slli	s4,s4,30
.LVL275:
	or	s4,s4,s2
.LVL276:
	.loc 1 279 1092 is_stmt 1
	.loc 1 279 1094
	.loc 1 279 1243 is_stmt 0
	slli	s2,t2,1
	srli	t2,t2,31
	or	t2,t2,s2
	add	s2,t2,s1
	.loc 1 279 1106
	xor	s9,s5,s4
	xor	s9,s9,a0
	add	s6,s2,s6
.LVL277:
	add	s6,s9,s6
	.loc 1 279 1391
	slli	s2,s7,5
	srli	s9,s7,27
	.loc 1 280 122
	xor	t6,t6,a7
	.loc 1 279 1391
	or	s2,s2,s9
	.loc 1 280 122
	xor	t6,t6,s0
	.loc 1 279 1096
	add	s6,s2,s6
.LVL278:
	.loc 1 279 1415 is_stmt 1
	.loc 1 280 122 is_stmt 0
	xor	t6,t6,a1
	.loc 1 279 1416
	srli	s2,a0,2
	slli	a0,a0,30
.LVL279:
	or	a0,a0,s2
.LVL280:
	.loc 1 279 1456 is_stmt 1
	.loc 1 280 2
	.loc 1 280 151 is_stmt 0
	slli	s2,t6,1
	srli	t6,t6,31
	or	t6,t6,s2
	add	s2,t6,s1
	.loc 1 280 14
	xor	s9,s4,a0
	xor	s9,s9,s7
	add	s5,s2,s5
.LVL281:
	add	s5,s9,s5
	.loc 1 280 299
	slli	s2,s6,5
	srli	s9,s6,27
	.loc 1 280 486
	xor	t4,t4,a2
	.loc 1 280 299
	or	s2,s2,s9
	.loc 1 280 486
	xor	t4,t4,a3
	.loc 1 280 4
	add	s5,s2,s5
.LVL282:
	.loc 1 280 323 is_stmt 1
	.loc 1 280 486 is_stmt 0
	xor	t4,t4,ra
	.loc 1 280 324
	srli	s2,s7,2
	slli	s7,s7,30
.LVL283:
	or	s7,s7,s2
.LVL284:
	.loc 1 280 364 is_stmt 1
	.loc 1 280 366
	.loc 1 280 515 is_stmt 0
	slli	s2,t4,1
	srli	t4,t4,31
	or	t4,t4,s2
	add	s2,t4,s1
	.loc 1 280 378
	xor	s9,a0,s7
	xor	s9,s9,s6
	add	s4,s2,s4
.LVL285:
	add	s4,s9,s4
	.loc 1 280 663
	slli	s2,s5,5
	srli	s9,s5,27
	.loc 1 280 850
	xor	a7,a7,t0
	.loc 1 280 663
	or	s2,s2,s9
	.loc 1 280 850
	xor	a7,a7,a4
	.loc 1 280 368
	add	s4,s2,s4
	.loc 1 280 850
	xor	a7,a7,t2
	.loc 1 280 688
	srli	s2,s6,2
	slli	s6,s6,30
.LVL286:
	or	s6,s6,s2
	.loc 1 280 879
	slli	s2,a7,1
	srli	a7,a7,31
	or	a7,a7,s2
	add	s2,a7,s1
	.loc 1 280 742
	xor	s9,s7,s6
	xor	s9,s9,s5
	add	a0,s2,a0
.LVL287:
	add	a0,s9,a0
	.loc 1 280 1027
	slli	s2,s4,5
	srli	s9,s4,27
	.loc 1 280 1214
	xor	a2,a2,t5
	.loc 1 280 1027
	or	s2,s2,s9
	.loc 1 280 1214
	xor	a2,a2,a5
	.loc 1 280 732
	add	a0,s2,a0
	.loc 1 280 1214
	xor	a2,a2,t6
	.loc 1 280 1052
	srli	s2,s5,2
	slli	s5,s5,30
.LVL288:
	or	s5,s5,s2
	.loc 1 280 1243
	slli	s2,a2,1
	srli	a2,a2,31
	or	a2,a2,s2
	add	s2,a2,s1
	.loc 1 280 1106
	xor	s9,s6,s5
	xor	s9,s9,s4
	add	s7,s2,s7
.LVL289:
	add	s7,s9,s7
	.loc 1 280 1391
	slli	s2,a0,5
	srli	s9,a0,27
	.loc 1 281 122
	xor	t0,t0,t3
	.loc 1 280 1391
	or	s2,s2,s9
	.loc 1 281 122
	xor	t0,t0,t1
	.loc 1 280 1096
	add	s7,s2,s7
	.loc 1 281 122
	xor	t0,t0,t4
	.loc 1 280 1416
	srli	s2,s4,2
	slli	s4,s4,30
	or	s4,s4,s2
	.loc 1 281 151
	slli	s2,t0,1
	srli	t0,t0,31
	or	t0,t0,s2
	add	s2,t0,s1
	.loc 1 281 14
	xor	s9,s5,s4
	xor	s9,s9,a0
	add	s6,s2,s6
	add	s6,s9,s6
	.loc 1 281 299
	slli	s2,s7,5
	srli	s9,s7,27
	.loc 1 281 486
	xor	t5,t5,a6
	.loc 1 281 299
	or	s2,s2,s9
	.loc 1 281 486
	xor	t5,t5,a1
	.loc 1 281 4
	add	s6,s2,s6
	.loc 1 281 486
	xor	t5,t5,a7
	.loc 1 281 324
	srli	s2,a0,2
	slli	a0,a0,30
	or	a0,a0,s2
	.loc 1 281 515
	slli	s2,t5,1
	srli	t5,t5,31
	or	t5,t5,s2
	add	s2,t5,s1
	.loc 1 281 378
	xor	s9,s4,a0
	xor	s9,s9,s7
	add	s5,s2,s5
	.loc 1 281 850
	xor	t3,t3,s0
	add	s5,s9,s5
	.loc 1 281 663
	slli	s2,s6,5
	srli	s9,s6,27
	.loc 1 279 768
	sw	ra,8(sp)
	.loc 1 281 663
	or	s2,s2,s9
	.loc 1 281 850
	xor	ra,t3,ra
	.loc 1 281 368
	add	s5,s2,s5
	.loc 1 281 850
	xor	ra,ra,a2
	.loc 1 281 688
	srli	s2,s7,2
	slli	s7,s7,30
	or	s7,s7,s2
	.loc 1 281 879
	slli	s2,ra,1
	srli	ra,ra,31
	or	ra,ra,s2
	add	t3,ra,s1
	.loc 1 281 742
	xor	s2,a0,s7
	xor	s2,s2,s6
	.loc 1 281 1214
	xor	a6,a6,a3
	add	s4,t3,s4
	.loc 1 279 40
	sw	t1,0(sp)
	.loc 1 279 404
	sw	a1,4(sp)
	.loc 1 279 1132
	sw	t2,12(sp)
	.loc 1 280 40
	sw	t6,16(sp)
	.loc 1 281 1214
	xor	t2,a6,t2
	add	s4,s2,s4
	.loc 1 281 1027
	slli	t3,s5,5
	srli	s2,s5,27
	.loc 1 280 404
	sw	t4,20(sp)
	.loc 1 280 687 is_stmt 1
	.loc 1 280 728
	.loc 1 280 730
	.loc 1 280 1051
	.loc 1 280 1092
	.loc 1 280 1094
	.loc 1 280 1415
	.loc 1 280 1456
	.loc 1 281 2
.LVL290:
	.loc 1 281 323
	.loc 1 281 364
	.loc 1 281 366
	.loc 1 281 687
	.loc 1 281 728
	.loc 1 281 730
	.loc 1 281 1027 is_stmt 0
	or	t3,t3,s2
	.loc 1 281 40
	sw	t0,32(sp)
	.loc 1 281 1214
	xor	t0,t2,t0
	.loc 1 281 732
	add	s4,t3,s4
.LVL291:
	.loc 1 281 1051 is_stmt 1
	.loc 1 281 1243 is_stmt 0
	slli	a6,t0,1
	.loc 1 281 1052
	srli	t3,s6,2
	.loc 1 281 1243
	srli	t0,t0,31
	.loc 1 281 1052
	slli	s6,s6,30
.LVL292:
	.loc 1 281 1243
	or	t0,t0,a6
	.loc 1 281 1052
	or	s6,s6,t3
.LVL293:
	.loc 1 281 1092 is_stmt 1
	.loc 1 281 1094
	.loc 1 281 1106 is_stmt 0
	xor	a6,s7,s6
	add	t3,t0,s1
	xor	a6,a6,s5
	add	a0,t3,a0
.LVL294:
	.loc 1 282 122
	xor	s0,s0,a4
	.loc 1 281 1391
	srli	t3,s4,27
	add	a0,a6,a0
	slli	a6,s4,5
	or	a6,a6,t3
	.loc 1 282 122
	xor	t6,s0,t6
	.loc 1 281 1096
	add	a0,a6,a0
.LVL295:
	.loc 1 281 1415 is_stmt 1
	.loc 1 281 404 is_stmt 0
	sw	t5,36(sp)
	.loc 1 281 1416
	srli	a6,s5,2
	.loc 1 282 122
	xor	t5,t6,t5
	.loc 1 281 1416
	slli	s5,s5,30
.LVL296:
	or	s5,s5,a6
.LVL297:
	.loc 1 281 1456 is_stmt 1
	.loc 1 282 2
	.loc 1 282 151 is_stmt 0
	slli	a6,t5,1
	srli	t5,t5,31
	or	t5,t5,a6
	add	t3,t5,s1
	.loc 1 282 14
	xor	a6,s6,s5
	xor	a6,a6,s4
	.loc 1 282 486
	xor	a3,a3,a5
	add	s7,t3,s7
.LVL298:
	xor	t4,a3,t4
	.loc 1 282 299
	srli	t3,a0,27
	add	s7,a6,s7
	slli	a6,a0,5
	.loc 1 281 768
	sw	ra,40(sp)
	.loc 1 282 299
	or	a6,a6,t3
	.loc 1 282 486
	xor	ra,t4,ra
	.loc 1 282 4
	add	s7,a6,s7
.LVL299:
	.loc 1 282 323 is_stmt 1
	.loc 1 282 515 is_stmt 0
	slli	a3,ra,1
	.loc 1 282 324
	srli	a6,s4,2
	.loc 1 282 515
	srli	ra,ra,31
	.loc 1 282 324
	slli	s4,s4,30
.LVL300:
	or	s4,s4,a6
.LVL301:
	.loc 1 282 364 is_stmt 1
	.loc 1 282 366
	.loc 1 282 515 is_stmt 0
	or	ra,ra,a3
	.loc 1 282 404
	sw	ra,52(sp)
	.loc 1 282 378
	xor	a3,s5,s4
	add	ra,ra,s1
	.loc 1 282 850
	xor	t1,a4,t1
	.loc 1 280 768
	sw	a7,24(sp)
	.loc 1 282 378
	xor	a3,a3,a0
	add	s6,ra,s6
.LVL302:
	.loc 1 282 850
	xor	a7,t1,a7
	xor	a7,a7,t0
	add	s6,a3,s6
	.loc 1 282 663
	slli	ra,s7,5
	srli	a3,s7,27
	or	ra,ra,a3
	.loc 1 282 879
	slli	a4,a7,1
	.loc 1 282 688
	srli	a3,a0,2
	.loc 1 282 879
	srli	a7,a7,31
	.loc 1 282 688
	slli	a0,a0,30
.LVL303:
	or	a0,a0,a3
	.loc 1 282 879
	or	a7,a7,a4
	.loc 1 282 1214
	xor	a5,a5,a1
	.loc 1 280 1132
	sw	a2,28(sp)
	.loc 1 282 768
	sw	a7,56(sp)
	.loc 1 282 742
	xor	a4,s4,a0
	add	a7,a7,s1
	.loc 1 282 1214
	xor	a2,a5,a2
	.loc 1 282 368
	add	s6,ra,s6
.LVL304:
	.loc 1 282 687 is_stmt 1
	.loc 1 282 728
	.loc 1 282 730
	.loc 1 282 40 is_stmt 0
	sw	t5,48(sp)
	.loc 1 282 742
	xor	a4,a4,s7
	.loc 1 282 1214
	xor	t5,a2,t5
	add	s5,a7,s5
.LVL305:
	.loc 1 282 1243
	slli	a5,t5,1
	add	s5,a4,s5
	.loc 1 282 1027
	slli	a7,s6,5
	srli	a4,s6,27
	.loc 1 282 1243
	srli	t5,t5,31
	.loc 1 282 1027
	or	a7,a7,a4
	.loc 1 282 1243
	or	t5,t5,a5
	.loc 1 282 1052
	srli	a4,s7,2
	.loc 1 284 11
	add	s1,s3,s1
	.loc 1 282 1052
	slli	s7,s7,30
.LVL306:
	or	s7,s7,a4
	.loc 1 282 1132
	sw	t5,60(sp)
	.loc 1 284 11
	add	t5,s1,t5
	add	s4,t5,s4
.LVL307:
	.loc 1 282 1106
	xor	t5,a0,s7
	.loc 1 282 732
	add	s5,a7,s5
.LVL308:
	.loc 1 282 1051 is_stmt 1
	.loc 1 282 1092
	.loc 1 282 1094
	.loc 1 282 1415
	.loc 1 282 1456
	.loc 1 284 2
	.loc 1 282 1106 is_stmt 0
	xor	t5,t5,s6
	.loc 1 282 1391
	srli	a5,s5,27
	.loc 1 284 11
	add	s4,s4,t5
	.loc 1 282 1391
	slli	t5,s5,5
	or	t5,t5,a5
	.loc 1 285 11
	lw	a5,4(s8)
	.loc 1 284 11
	add	s4,s4,t5
	sw	s4,0(s8)
	.loc 1 285 2 is_stmt 1
	.loc 1 285 11 is_stmt 0
	add	s5,a5,s5
.LVL309:
	.loc 1 282 1416
	srli	a5,s6,2
	slli	s6,s6,30
.LVL310:
	or	s6,a5,s6
	.loc 1 286 11
	lw	a5,8(s8)
	.loc 1 285 11
	sw	s5,4(s8)
	.loc 1 286 2 is_stmt 1
	.loc 1 292 2 is_stmt 0
	li	a2,64
	.loc 1 286 11
	add	s6,s6,a5
	.loc 1 287 11
	lw	a5,12(s8)
	.loc 1 286 11
	sw	s6,8(s8)
	.loc 1 287 2 is_stmt 1
	.loc 1 292 2 is_stmt 0
	li	a1,0
	.loc 1 287 11
	add	s7,a5,s7
.LVL311:
	.loc 1 288 11
	lw	a5,16(s8)
	.loc 1 287 11
	sw	s7,12(s8)
	.loc 1 288 2 is_stmt 1
	.loc 1 281 1132 is_stmt 0
	sw	t0,44(sp)
	.loc 1 288 11
	add	a0,a5,a0
.LVL312:
	sw	a0,16(s8)
	.loc 1 290 2 is_stmt 1
.LVL313:
	.loc 1 292 2
	mv	a0,sp
	call	memset
.LVL314:
	.loc 1 294 1 is_stmt 0
	lw	ra,124(sp)
	.cfi_restore 1
	lw	s0,120(sp)
	.cfi_restore 8
	lw	s1,116(sp)
	.cfi_restore 9
	lw	s2,112(sp)
	.cfi_restore 18
	lw	s3,108(sp)
	.cfi_restore 19
	lw	s4,104(sp)
	.cfi_restore 20
	lw	s5,100(sp)
	.cfi_restore 21
	lw	s6,96(sp)
	.cfi_restore 22
	lw	s7,92(sp)
	.cfi_restore 23
	lw	s8,88(sp)
	.cfi_restore 24
.LVL315:
	lw	s9,84(sp)
	.cfi_restore 25
	lw	s10,80(sp)
	.cfi_restore 26
	lw	s11,76(sp)
	.cfi_restore 27
	addi	sp,sp,128
	.cfi_def_cfa_offset 0
.LVL316:
	jr	ra
	.cfi_endproc
.LFE70:
	.size	SHA1Transform, .-SHA1Transform
	.section	.text.SHA1Init,"ax",@progbits
	.align	1
	.globl	SHA1Init
	.type	SHA1Init, @function
SHA1Init:
.LFB71:
	.loc 1 301 1 is_stmt 1
	.cfi_startproc
.LVL317:
	.loc 1 303 2
	.loc 1 303 20 is_stmt 0
	li	a5,1732583424
	addi	a5,a5,769
	sw	a5,0(a0)
	.loc 1 304 2 is_stmt 1
	.loc 1 304 20 is_stmt 0
	li	a5,-271732736
	addi	a5,a5,-1143
	sw	a5,4(a0)
	.loc 1 305 2 is_stmt 1
	.loc 1 305 20 is_stmt 0
	li	a5,-1732583424
	addi	a5,a5,-770
	sw	a5,8(a0)
	.loc 1 306 2 is_stmt 1
	.loc 1 306 20 is_stmt 0
	li	a5,271732736
	addi	a5,a5,1142
	sw	a5,12(a0)
	.loc 1 307 2 is_stmt 1
	.loc 1 307 20 is_stmt 0
	li	a5,-1009590272
	addi	a5,a5,496
	sw	a5,16(a0)
	.loc 1 308 2 is_stmt 1
	.loc 1 308 40 is_stmt 0
	sw	zero,24(a0)
	.loc 1 308 20
	sw	zero,20(a0)
	.loc 1 309 1
	ret
	.cfi_endproc
.LFE71:
	.size	SHA1Init, .-SHA1Init
	.section	.text.SHA1Update,"ax",@progbits
	.align	1
	.globl	SHA1Update
	.type	SHA1Update, @function
SHA1Update:
.LFB72:
	.loc 1 316 1 is_stmt 1
	.cfi_startproc
.LVL318:
	.loc 1 317 2
	.loc 1 318 2
	.loc 1 316 1 is_stmt 0
	addi	sp,sp,-32
	.cfi_def_cfa_offset 32
	sw	s0,24(sp)
	sw	s2,16(sp)
	sw	s3,12(sp)
	sw	ra,28(sp)
	sw	s1,20(sp)
	.cfi_offset 8, -8
	.cfi_offset 18, -16
	.cfi_offset 19, -20
	.cfi_offset 1, -4
	.cfi_offset 9, -12
	.loc 1 323 21
	lw	a5,20(a0)
	.loc 1 324 32
	slli	a4,a2,3
	.loc 1 316 1
	mv	s0,a0
	.loc 1 323 25
	srli	a0,a5,3
.LVL319:
	.loc 1 324 25
	add	a5,a5,a4
	sw	a5,20(s0)
	.loc 1 316 1
	mv	s3,a1
.LVL320:
	.loc 1 323 2 is_stmt 1
	.loc 1 316 1 is_stmt 0
	mv	s2,a2
	.loc 1 323 4
	andi	a0,a0,63
.LVL321:
	.loc 1 324 2 is_stmt 1
	.loc 1 324 5 is_stmt 0
	bleu	a4,a5,.L9
	.loc 1 325 3 is_stmt 1
	.loc 1 325 20 is_stmt 0
	lw	a5,24(s0)
	addi	a5,a5,1
	sw	a5,24(s0)
.L9:
	.loc 1 326 2 is_stmt 1
	.loc 1 326 20 is_stmt 0
	lw	a4,24(s0)
	.loc 1 326 28
	srli	a5,s2,29
	.loc 1 335 9
	li	s1,0
	.loc 1 326 20
	add	a5,a4,a5
	sw	a5,24(s0)
	.loc 1 327 2 is_stmt 1
	.loc 1 327 5 is_stmt 0
	li	a4,63
	.loc 1 327 9
	add	a5,a0,s2
	.loc 1 327 5
	bleu	a5,a4,.L10
	.loc 1 328 3 is_stmt 1
	.loc 1 328 45 is_stmt 0
	li	s1,64
	sub	s1,s1,a0
.LVL322:
	.loc 1 328 11
	addi	a0,a0,28
.LVL323:
	.loc 1 328 3
	mv	a1,s3
.LVL324:
	mv	a2,s1
.LVL325:
	add	a0,s0,a0
.LVL326:
	call	memcpy
.LVL327:
	.loc 1 329 3 is_stmt 1
	addi	a1,s0,28
	mv	a0,s0
	call	SHA1Transform
.LVL328:
	.loc 1 330 3
.L11:
	.loc 1 330 11 discriminator 1
	.loc 1 330 3 is_stmt 0 discriminator 1
	addi	a5,s1,63
	add	a1,s3,s1
	bgtu	s2,a5,.L12
	.loc 1 333 5
	li	a0,0
.LVL329:
.L10:
	.loc 1 336 2 is_stmt 1
	.loc 1 336 10 is_stmt 0
	addi	a0,a0,28
.LVL330:
	.loc 1 336 2
	add	a0,s0,a0
.LVL331:
	.loc 1 340 1
	lw	s0,24(sp)
	.cfi_remember_state
	.cfi_restore 8
.LVL332:
	lw	ra,28(sp)
	.cfi_restore 1
	.loc 1 336 2
	sub	a2,s2,s1
	add	a1,s3,s1
	.loc 1 340 1
	lw	s2,16(sp)
	.cfi_restore 18
.LVL333:
	lw	s1,20(sp)
	.cfi_restore 9
.LVL334:
	lw	s3,12(sp)
	.cfi_restore 19
.LVL335:
	addi	sp,sp,32
	.cfi_def_cfa_offset 0
	.loc 1 336 2
	tail	memcpy
.LVL336:
.L12:
	.cfi_restore_state
	.loc 1 331 4 is_stmt 1 discriminator 2
	mv	a0,s0
	call	SHA1Transform
.LVL337:
	.loc 1 330 25 discriminator 2
	.loc 1 330 27 is_stmt 0 discriminator 2
	addi	s1,s1,64
.LVL338:
	j	.L11
	.cfi_endproc
.LFE72:
	.size	SHA1Update, .-SHA1Update
	.section	.rodata.SHA1Final.str1.4,"aMS",@progbits,1
	.align	2
.LC0:
	.string	"\200"
	.section	.text.SHA1Final,"ax",@progbits
	.align	1
	.globl	SHA1Final
	.type	SHA1Final, @function
SHA1Final:
.LFB73:
	.loc 1 347 1 is_stmt 1
	.cfi_startproc
.LVL339:
	.loc 1 348 2
	.loc 1 349 2
	.loc 1 351 2
	.loc 1 351 14
	.loc 1 347 1 is_stmt 0
	addi	sp,sp,-48
	.cfi_def_cfa_offset 48
	sw	s0,40(sp)
	sw	s1,36(sp)
	sw	ra,44(sp)
	sw	s2,32(sp)
	sw	s3,28(sp)
	.cfi_offset 8, -8
	.cfi_offset 9, -12
	.cfi_offset 1, -4
	.cfi_offset 18, -16
	.cfi_offset 19, -20
	.loc 1 347 1
	mv	s1,a0
	mv	s0,a1
	.loc 1 351 9
	li	a4,0
	.loc 1 351 2
	li	a2,8
.LVL340:
.L16:
	.loc 1 352 3 is_stmt 1 discriminator 3
	.loc 1 352 17 is_stmt 0 discriminator 3
	addi	a5,sp,8
	add	a1,a5,a4
	.loc 1 353 33 discriminator 3
	sltiu	a5,a4,4
	.loc 1 353 20 discriminator 3
	addi	a5,a5,4
	slli	a5,a5,2
	add	a5,s0,a5
	.loc 1 354 9 discriminator 3
	not	a3,a4
	.loc 1 353 39 discriminator 3
	lw	a5,4(a5)
	.loc 1 354 9 discriminator 3
	andi	a3,a3,3
	.loc 1 354 19 discriminator 3
	slli	a3,a3,3
	.loc 1 353 39 discriminator 3
	srl	a3,a5,a3
	.loc 1 352 19 discriminator 3
	sb	a3,0(a1)
	.loc 1 351 21 is_stmt 1 discriminator 3
	.loc 1 351 22 is_stmt 0 discriminator 3
	addi	a4,a4,1
.LVL341:
	.loc 1 351 14 is_stmt 1 discriminator 3
	.loc 1 351 2 is_stmt 0 discriminator 3
	bne	a4,a2,.L16
	.loc 1 356 2 is_stmt 1
	lui	a1,%hi(.LC0)
	li	a2,1
	addi	a1,a1,%lo(.LC0)
	mv	a0,s0
.LVL342:
	call	SHA1Update
.LVL343:
	.loc 1 357 2
	.loc 1 357 8 is_stmt 0
	li	s2,448
	.loc 1 358 3
	lui	s3,%hi(.LC1)
.L17:
	.loc 1 357 8 is_stmt 1
	.loc 1 357 28 is_stmt 0
	lw	a5,20(s0)
	andi	a5,a5,504
	.loc 1 357 8
	bne	a5,s2,.L18
	.loc 1 360 2 is_stmt 1
	li	a2,8
	addi	a1,sp,8
	mv	a0,s0
	call	SHA1Update
.LVL344:
	.loc 1 362 2
	.loc 1 362 14
	.loc 1 362 9 is_stmt 0
	li	a5,0
	.loc 1 362 2
	li	a2,20
.LVL345:
.L19:
	.loc 1 363 3 is_stmt 1 discriminator 3
	.loc 1 364 20 is_stmt 0 discriminator 3
	andi	a3,a5,-4
	add	a3,s0,a3
	.loc 1 364 29 discriminator 3
	lw	a3,0(a3)
	.loc 1 364 36 discriminator 3
	not	a4,a5
	andi	a4,a4,3
	.loc 1 364 47 discriminator 3
	slli	a4,a4,3
	.loc 1 363 13 discriminator 3
	add	a1,s1,a5
	.loc 1 364 29 discriminator 3
	srl	a4,a3,a4
	.loc 1 363 15 discriminator 3
	sb	a4,0(a1)
	.loc 1 362 22 is_stmt 1 discriminator 3
	.loc 1 362 23 is_stmt 0 discriminator 3
	addi	a5,a5,1
.LVL346:
	.loc 1 362 14 is_stmt 1 discriminator 3
	.loc 1 362 2 is_stmt 0 discriminator 3
	bne	a5,a2,.L19
	.loc 1 368 2 is_stmt 1
.LVL347:
	.loc 1 369 2
	li	a2,64
	li	a1,0
	addi	a0,s0,28
	call	memset
.LVL348:
	.loc 1 370 2
	li	a2,20
	li	a1,0
	mv	a0,s0
	call	memset
.LVL349:
	.loc 1 371 2
	li	a2,8
	li	a1,0
	addi	a0,s0,20
	call	memset
.LVL350:
	.loc 1 372 2
	addi	a0,sp,8
	li	a2,8
	li	a1,0
	call	memset
.LVL351:
	.loc 1 373 1 is_stmt 0
	lw	ra,44(sp)
	.cfi_remember_state
	.cfi_restore 1
	lw	s0,40(sp)
	.cfi_restore 8
.LVL352:
	lw	s1,36(sp)
	.cfi_restore 9
.LVL353:
	lw	s2,32(sp)
	.cfi_restore 18
	lw	s3,28(sp)
	.cfi_restore 19
	addi	sp,sp,48
	.cfi_def_cfa_offset 0
	jr	ra
.LVL354:
.L18:
	.cfi_restore_state
	.loc 1 358 3 is_stmt 1
	li	a2,1
	addi	a1,s3,%lo(.LC1)
	mv	a0,s0
	call	SHA1Update
.LVL355:
	j	.L17
	.cfi_endproc
.LFE73:
	.size	SHA1Final, .-SHA1Final
	.section	.rodata
	.align	2
.LC1:
	.string	""
	.string	""
	.text
.Letext0:
	.file 2 "/mnt/d/GitHub/bl_iot_sdk_for_aithinker/toolchain/riscv/Linux/lib/gcc/riscv64-unknown-elf/10.2.0/include/stddef.h"
	.file 3 "/mnt/d/GitHub/bl_iot_sdk_for_aithinker/toolchain/riscv/Linux/riscv64-unknown-elf/include/machine/_default_types.h"
	.file 4 "/mnt/d/GitHub/bl_iot_sdk_for_aithinker/toolchain/riscv/Linux/riscv64-unknown-elf/include/sys/_stdint.h"
	.file 5 "/mnt/d/GitHub/bl_iot_sdk_for_aithinker/components/security/wpa_supplicant/src/utils/common.h"
	.file 6 "/mnt/d/GitHub/bl_iot_sdk_for_aithinker/components/security/wpa_supplicant/src/crypto/sha1_i.h"
	.file 7 "/mnt/d/GitHub/bl_iot_sdk_for_aithinker/components/platform/hosal/bl602_hal/bl_sec.h"
	.file 8 "/mnt/d/GitHub/bl_iot_sdk_for_aithinker/toolchain/riscv/Linux/riscv64-unknown-elf/include/string.h"