	.file	"sha1-pbkdf2.c"
	.option nopic
	.attribute arch, "rv32i2p0_m2p0_f2p0_c2p0"
	.attribute unaligned_access, 0
	.attribute stack_align, 16
	.text
.Ltext0:
	.cfi_sections	.debug_frame
	.section	.text.pbkdf2_sha1,"ax",@progbits
	.align	1
	.globl	pbkdf2_sha1
	.type	pbkdf2_sha1, @function
pbkdf2_sha1:
.LFB70:
	.file 1 "/mnt/d/GitHub/bl_iot_sdk_for_aithinker/components/security/wpa_supplicant/src/crypto/sha1-pbkdf2.c"
	.loc 1 136 1
	.cfi_startproc
.LVL0:
	.loc 1 137 2
	.loc 1 138 2
	.loc 1 136 1 is_stmt 0
	addi	sp,sp,-128
	.cfi_def_cfa_offset 128
	sw	s0,120(sp)
	sw	s2,112(sp)
	sw	s3,108(sp)
	sw	s4,104(sp)
	sw	s6,96(sp)
	sw	s7,92(sp)
	sw	s8,88(sp)
	sw	s9,84(sp)
	sw	ra,124(sp)
	sw	s1,116(sp)
	sw	s5,100(sp)
	sw	s10,80(sp)
	.cfi_offset 8, -8
	.cfi_offset 18, -16
	.cfi_offset 19, -20
	.cfi_offset 20, -24
	.cfi_offset 22, -32
	.cfi_offset 23, -36
	.cfi_offset 24, -40
	.cfi_offset 25, -44
	.cfi_offset 1, -4
	.cfi_offset 9, -12
	.cfi_offset 21, -28
	.cfi_offset 26, -48
	.loc 1 136 1
	mv	s4,a0
	mv	s6,a1
	mv	s7,a2
	mv	s8,a3
	mv	s3,a4
.LVL1:
	.loc 1 139 2 is_stmt 1
	.loc 1 136 1 is_stmt 0
	mv	s0,a5
.LVL2:
	.loc 1 140 2 is_stmt 1
	.loc 1 142 2
	.loc 1 137 15 is_stmt 0
	li	s2,0
.LBB4:
.LBB5:
	.loc 1 89 9
	li	s9,4
.LVL3:
.L2:
.LBE5:
.LBE4:
	.loc 1 142 8 is_stmt 1
	bne	s0,zero,.L10
	.loc 1 153 9 is_stmt 0
	li	a0,0
	j	.L1
.L10:
	.loc 1 143 3 is_stmt 1
.LBB10:
.LBB6:
	.loc 1 84 26 is_stmt 0
	mv	a0,s4
	call	strlen
.LVL4:
.LBE6:
.LBE10:
	.loc 1 143 8
	addi	s2,s2,1
.LVL5:
	.loc 1 144 3 is_stmt 1
.LBB11:
.LBB7:
	.loc 1 79 2
	.loc 1 80 2
	.loc 1 81 2
	.loc 1 82 2
	.loc 1 83 2
	.loc 1 84 2
	.loc 1 97 31 is_stmt 0
	srli	a5,s2,24
	.loc 1 99 15
	slli	a4,s2,16
	.loc 1 97 15
	sb	a5,0(sp)
	.loc 1 99 15
	srli	a4,a4,16
	.loc 1 98 24
	srli	a5,s2,16
	.loc 1 99 15
	srli	a4,a4,8
	.loc 1 98 15
	sb	a5,1(sp)
	.loc 1 99 15
	slli	a5,s2,8
	or	a5,a5,a4
	.loc 1 84 26
	mv	s5,a0
.LVL6:
	.loc 1 86 2 is_stmt 1
	.loc 1 99 15 is_stmt 0
	sh	a5,2(sp)
	.loc 1 101 6
	mv	a1,a0
	addi	a5,sp,40
	addi	a4,sp,12
	addi	a3,sp,4
	li	a2,2
	mv	a0,s4
.LVL7:
	.loc 1 86 10
	sw	s6,4(sp)
	.loc 1 87 2 is_stmt 1
	.loc 1 87 9 is_stmt 0
	sw	s7,12(sp)
	.loc 1 88 2 is_stmt 1
	.loc 1 88 10 is_stmt 0
	sw	sp,8(sp)
	.loc 1 89 2 is_stmt 1
	.loc 1 89 9 is_stmt 0
	sw	s9,16(sp)
	.loc 1 97 2 is_stmt 1
	.loc 1 98 2
	.loc 1 99 2
	.loc 1 100 2
	.loc 1 101 2
	.loc 1 101 6 is_stmt 0
	call	hmac_sha1_vector
.LVL8:
	.loc 1 101 5
	beq	a0,zero,.L3
.L6:
.LVL9:
.LBE7:
.LBE11:
	.loc 1 146 11
	li	a0,-1
.L1:
	.loc 1 154 1
	lw	ra,124(sp)
	.cfi_remember_state
	.cfi_restore 1
	lw	s0,120(sp)
	.cfi_restore 8
.LVL10:
	lw	s1,116(sp)
	.cfi_restore 9
	lw	s2,112(sp)
	.cfi_restore 18
.LVL11:
	lw	s3,108(sp)
	.cfi_restore 19
.LVL12:
	lw	s4,104(sp)
	.cfi_restore 20
.LVL13:
	lw	s5,100(sp)
	.cfi_restore 21
	lw	s6,96(sp)
	.cfi_restore 22
.LVL14:
	lw	s7,92(sp)
	.cfi_restore 23
.LVL15:
	lw	s8,88(sp)
	.cfi_restore 24
.LVL16:
	lw	s9,84(sp)
	.cfi_restore 25
	lw	s10,80(sp)
	.cfi_restore 26
	addi	sp,sp,128
	.cfi_def_cfa_offset 0
	jr	ra
.LVL17:
.L3:
	.cfi_restore_state
.LBB12:
.LBB8:
	.loc 1 104 2 is_stmt 1
	li	a2,20
	addi	a1,sp,40
	addi	a0,sp,20
.LVL18:
	call	memcpy
.LVL19:
	.loc 1 106 2
	.loc 1 106 9 is_stmt 0
	li	s10,1
.LVL20:
.L5:
	.loc 1 106 14 is_stmt 1
	.loc 1 106 2 is_stmt 0
	bgt	s8,s10,.L8
.LVL21:
.LBE8:
.LBE12:
	.loc 1 147 3 is_stmt 1
	.loc 1 147 8 is_stmt 0
	li	a5,20
	mv	s1,s0
	bleu	s0,a5,.L11
	li	s1,20
.L11:
.LVL22:
	.loc 1 148 3 is_stmt 1
	mv	a0,s3
	mv	a2,s1
	addi	a1,sp,20
	call	memcpy
.LVL23:
	.loc 1 149 3
	.loc 1 149 7 is_stmt 0
	add	s3,s3,s1
.LVL24:
	.loc 1 150 3 is_stmt 1
	.loc 1 150 8 is_stmt 0
	sub	s0,s0,s1
.LVL25:
	j	.L2
.LVL26:
.L8:
.LBB13:
.LBB9:
	.loc 1 107 3 is_stmt 1
	.loc 1 107 7 is_stmt 0
	addi	a4,sp,60
	li	a3,20
	addi	a2,sp,40
	mv	a1,s5
	mv	a0,s4
	call	hmac_sha1
.LVL27:
	mv	s1,a0
	.loc 1 107 6
	bne	a0,zero,.L6
	.loc 1 110 3 is_stmt 1
	li	a2,20
	addi	a1,sp,60
	addi	a0,sp,40
	call	memcpy
.LVL28:
	.loc 1 111 3
	.loc 1 111 15
	addi	a5,sp,20
.LVL29:
	.loc 1 111 3 is_stmt 0
	li	a3,20
.LVL30:
.L7:
	.loc 1 112 4 is_stmt 1
	.loc 1 112 21 is_stmt 0
	addi	a4,sp,60
	add	a4,a4,s1
	.loc 1 112 14
	lbu	a2,0(a5)
	lbu	a4,0(a4)
	.loc 1 111 24
	addi	s1,s1,1
.LVL31:
	.loc 1 111 3
	addi	a5,a5,1
	.loc 1 112 14
	xor	a4,a4,a2
	sb	a4,-1(a5)
	.loc 1 111 23 is_stmt 1
.LVL32:
	.loc 1 111 15
	.loc 1 111 3 is_stmt 0
	bne	s1,a3,.L7
	.loc 1 106 30 is_stmt 1
	.loc 1 106 31 is_stmt 0
	addi	s10,s10,1
.LVL33:
	j	.L5
.LBE9:
.LBE13:
	.cfi_endproc
.LFE70:
	.size	pbkdf2_sha1, .-pbkdf2_sha1
	.text
.Letext0:
	.file 2 "/mnt/d/GitHub/bl_iot_sdk_for_aithinker/toolchain/riscv/Linux/lib/gcc/riscv64-unknown-elf/10.2.0/include/stddef.h"
	.file 3 "/mnt/d/GitHub/bl_iot_sdk_for_aithinker/toolchain/riscv/Linux/riscv64-unknown-elf/include/machine/_default_types.h"
	.file 4 "/mnt/d/GitHub/bl_iot_sdk_for_aithinker/toolchain/riscv/Linux/riscv64-unknown-elf/include/sys/_stdint.h"
	.file 5 "/mnt/d/GitHub/bl_iot_sdk_for_aithinker/toolchain/riscv/Linux/riscv64-unknown-elf/include/string.h"
	.file 6 "/mnt/d/GitHub/bl_iot_sdk_for_aithinker/components/security/wpa_supplicant/src/crypto/sha1.h"
	.file 7 "/mnt/d/GitHub/bl_iot_sdk_for_aithinker/components/security/wpa_supplicant/src/utils/common.h"