	.file	"sha256-internal.c"
	.option nopic
	.attribute arch, "rv32i2p0_m2p0_f2p0_c2p0"
	.attribute unaligned_access, 0
	.attribute stack_align, 16
	.text
.Ltext0:
	.cfi_sections	.debug_frame
	.section	.text.sha256_vector,"ax",@progbits
	.align	1
	.globl	sha256_vector
	.type	sha256_vector, @function
sha256_vector:
.LFB69:
	.file 1 "/mnt/d/GitHub/bl_iot_sdk_for_aithinker/components/security/wpa_supplicant/src/crypto/sha256-internal.c"
	.loc 1 56 1
	.cfi_startproc
.LVL0:
	.loc 1 57 5
	.loc 1 59 5
	.loc 1 56 1 is_stmt 0
	addi	sp,sp,-192
	.cfi_def_cfa_offset 192
	sw	ra,188(sp)
	sw	s0,184(sp)
	sw	s1,180(sp)
	sw	s2,176(sp)
	sw	s3,172(sp)
	sw	s4,168(sp)
	.cfi_offset 1, -4
	.cfi_offset 8, -8
	.cfi_offset 9, -12
	.cfi_offset 18, -16
	.cfi_offset 19, -20
	.cfi_offset 20, -24
	.loc 1 56 1
	mv	s3,a1
	mv	s4,a2
	mv	s1,a3
	mv	s2,a0
	.loc 1 59 5
	call	bl_sha_mutex_take
.LVL1:
	.loc 1 60 5 is_stmt 1
	li	a1,0
	addi	a0,sp,12
	call	bl_sha_init
.LVL2:
	.loc 1 61 5
.LBB2:
	.loc 1 61 10
	.loc 1 61 17 is_stmt 0
	li	s0,0
.LVL3:
.L2:
	.loc 1 61 24 is_stmt 1 discriminator 1
	.loc 1 61 5 is_stmt 0 discriminator 1
	bne	s0,s2,.L3
.LBE2:
	.loc 1 64 5 is_stmt 1
	mv	a1,s1
	addi	a0,sp,12
	call	bl_sha_finish
.LVL4:
	.loc 1 65 5
	call	bl_sha_mutex_give
.LVL5:
	.loc 1 66 5
	.loc 1 67 1 is_stmt 0
	lw	ra,188(sp)
	.cfi_remember_state
	.cfi_restore 1
	lw	s0,184(sp)
	.cfi_restore 8
.LVL6:
	lw	s1,180(sp)
	.cfi_restore 9
.LVL7:
	lw	s2,176(sp)
	.cfi_restore 18
.LVL8:
	lw	s3,172(sp)
	.cfi_restore 19
.LVL9:
	lw	s4,168(sp)
	.cfi_restore 20
.LVL10:
	li	a0,0
	addi	sp,sp,192
	.cfi_def_cfa_offset 0
	jr	ra
.LVL11:
.L3:
	.cfi_restore_state
.LBB3:
	.loc 1 62 9 is_stmt 1 discriminator 3
	slli	a5,s0,2
	add	a4,s4,a5
	add	a5,s3,a5
	lw	a2,0(a4)
	lw	a1,0(a5)
	addi	a0,sp,12
	.loc 1 61 39 is_stmt 0 discriminator 3
	addi	s0,s0,1
.LVL12:
	.loc 1 62 9 discriminator 3
	call	bl_sha_update
.LVL13:
	.loc 1 61 38 is_stmt 1 discriminator 3
	j	.L2
.LBE3:
	.cfi_endproc
.LFE69:
	.size	sha256_vector, .-sha256_vector
	.text
.Letext0:
	.file 2 "/mnt/d/GitHub/bl_iot_sdk_for_aithinker/toolchain/riscv/Linux/lib/gcc/riscv64-unknown-elf/10.2.0/include/stddef.h"
	.file 3 "/mnt/d/GitHub/bl_iot_sdk_for_aithinker/toolchain/riscv/Linux/riscv64-unknown-elf/include/machine/_default_types.h"
	.file 4 "/mnt/d/GitHub/bl_iot_sdk_for_aithinker/toolchain/riscv/Linux/riscv64-unknown-elf/include/sys/_stdint.h"
	.file 5 "/mnt/d/GitHub/bl_iot_sdk_for_aithinker/components/platform/hosal/bl602_hal/bl_sec.h"
	.file 6 "/mnt/d/GitHub/bl_iot_sdk_for_aithinker/components/security/wpa_supplicant/src/utils/common.h"