	.file	"bl_cmds.c"
	.option nopic
	.attribute arch, "rv32i2p0_m2p0_f2p0_c2p0"
	.attribute unaligned_access, 0
	.attribute stack_align, 16
	.text
.Ltext0:
	.cfi_sections	.debug_frame
	.section	.text.cmd_mgr_print,"ax",@progbits
	.align	1
	.type	cmd_mgr_print, @function
cmd_mgr_print:
.LFB35:
	.file 1 "/mnt/d/GitHub/bl_iot_sdk_for_aithinker/components/network/wifi_manager/bl60x_wifi_driver/bl_cmds.c"
	.loc 1 139 1
	.cfi_startproc
.LVL0:
	.loc 1 140 5
	.loc 1 142 5
	.loc 1 139 1 is_stmt 0
	addi	sp,sp,-16
	.cfi_def_cfa_offset 16
	sw	s1,4(sp)
	.cfi_offset 9, -12
	.loc 1 142 19
	lui	s1,%hi(g_bl_ops_funcs)
	.loc 1 139 1
	sw	s0,8(sp)
	sw	ra,12(sp)
	.cfi_offset 8, -8
	.cfi_offset 1, -4
	.loc 1 142 19
	addi	a5,s1,%lo(g_bl_ops_funcs)
	.loc 1 139 1
	mv	s0,a0
	.loc 1 142 5
	lw	a5,156(a5)
	lw	a0,24(a0)
.LVL1:
	addi	s1,s1,%lo(g_bl_ops_funcs)
	jalr	a5
.LVL2:
	.loc 1 143 5 is_stmt 1
	.loc 1 143 9
	.loc 1 143 17
	.loc 1 146 5
	.loc 1 146 14 is_stmt 0
	lw	a5,16(s0)
.LVL3:
	.loc 1 146 23
	addi	a4,s0,16
.L2:
	.loc 1 146 8 is_stmt 1 discriminator 1
	.loc 1 146 5 is_stmt 0 discriminator 1
	bne	a5,a4,.L3
	.loc 1 150 5 is_stmt 1
	lw	a0,24(s0)
	.loc 1 151 1 is_stmt 0
	lw	s0,8(sp)
	.cfi_remember_state
	.cfi_restore 8
.LVL4:
	.loc 1 150 5
	lw	a5,160(s1)
.LVL5:
	.loc 1 151 1
	lw	ra,12(sp)
	.cfi_restore 1
	lw	s1,4(sp)
	.cfi_restore 9
	addi	sp,sp,16
	.cfi_def_cfa_offset 0
	.loc 1 150 5
	jr	a5
.LVL6:
.L3:
	.cfi_restore_state
	.loc 1 147 9 is_stmt 1 discriminator 3
	.loc 1 16 5 discriminator 3
	.loc 1 16 10 discriminator 3
	.loc 1 16 18 discriminator 3
	.loc 1 18 91 discriminator 3
	.loc 1 146 40 discriminator 3
	.loc 1 146 44 is_stmt 0 discriminator 3
	lw	a5,0(a5)
.LVL7:
	j	.L2
	.cfi_endproc
.LFE35:
	.size	cmd_mgr_print, .-cmd_mgr_print
	.section	.text.cmd_complete,"ax",@progbits
	.align	1
	.type	cmd_complete, @function
cmd_complete:
.LFB33:
	.loc 1 22 1 is_stmt 1
	.cfi_startproc
.LVL8:
	.loc 1 23 5
	.loc 1 23 10
	.loc 1 23 18
	.loc 1 23 22
	.loc 1 25 5
	.loc 1 22 1 is_stmt 0
	mv	a5,a0
	.loc 1 25 22
	lw	a4,8(a5)
	.loc 1 22 1
	mv	a0,a1
.LVL9:
	.loc 1 25 22
	addi	a4,a4,-1
	sw	a4,8(a5)
	.loc 1 26 5 is_stmt 1
.LVL10:
.LBB27:
.LBB28:
	.file 2 "/mnt/d/GitHub/bl_iot_sdk_for_aithinker/components/network/wifi_manager/bl60x_wifi_driver/list.h"
	.loc 2 138 2
	lw	a5,4(a1)
.LVL11:
	lw	a4,0(a1)
.LVL12:
.LBB29:
.LBB30:
	.loc 2 126 2
	.loc 2 126 13 is_stmt 0
	sw	a5,4(a4)
	.loc 2 127 2 is_stmt 1
	.loc 2 127 13 is_stmt 0
	sw	a4,0(a5)
.LVL13:
.LBE30:
.LBE29:
	.loc 2 139 2 is_stmt 1
	.loc 2 139 14 is_stmt 0
	li	a5,1048576
	addi	a5,a5,256
	sw	a5,0(a1)
	.loc 2 140 2 is_stmt 1
	.loc 2 140 14 is_stmt 0
	li	a5,2097152
	addi	a5,a5,512
	sw	a5,4(a1)
.LVL14:
.LBE28:
.LBE27:
	.loc 1 27 5 is_stmt 1
	.loc 1 27 16 is_stmt 0
	lhu	a5,28(a1)
	ori	a4,a5,32
	sh	a4,28(a1)
	.loc 1 28 5 is_stmt 1
	.loc 1 28 8 is_stmt 0
	andi	a4,a5,1
	beq	a4,zero,.L6
	.loc 1 29 9 is_stmt 1
	.loc 1 29 14
	.loc 1 29 22
	.loc 1 29 26
	.loc 1 30 9
	.loc 1 30 23 is_stmt 0
	lui	a5,%hi(g_bl_ops_funcs+188)
	.loc 1 30 9
	lw	a5,%lo(g_bl_ops_funcs+188)(a5)
	jr	a5
.LVL15:
.L6:
	.loc 1 32 9 is_stmt 1
	.loc 1 32 12 is_stmt 0
	andi	a5,a5,24
	bne	a5,zero,.L5
.LVL16:
.LBB31:
.LBB32:
	.loc 1 33 13 is_stmt 1
	.loc 1 33 18
	.loc 1 33 26
	.loc 1 33 30
	.loc 1 34 13
	.loc 1 34 25 is_stmt 0
	sw	zero,36(a1)
	.loc 1 35 13 is_stmt 1
	.loc 1 35 27 is_stmt 0
	lui	a5,%hi(g_bl_ops_funcs+44)
	.loc 1 35 13
	lw	a5,%lo(g_bl_ops_funcs+44)(a5)
	lw	a0,32(a0)
.LVL17:
	li	a1,1
.LVL18:
	jr	a5
.LVL19:
.L5:
.LBE32:
.LBE31:
	.loc 1 38 1
	ret
	.cfi_endproc
.LFE33:
	.size	cmd_complete, .-cmd_complete
	.section	.text.cmd_mgr_msgind,"ax",@progbits
	.align	1
	.type	cmd_mgr_msgind, @function
cmd_mgr_msgind:
.LFB38:
	.loc 1 221 1 is_stmt 1
	.cfi_startproc
.LVL20:
	.loc 1 222 5
	.loc 1 221 1 is_stmt 0
	addi	sp,sp,-32
	.cfi_def_cfa_offset 32
	sw	s4,8(sp)
	.cfi_offset 20, -24
	.loc 1 226 19
	lui	s4,%hi(g_bl_ops_funcs)
	.loc 1 221 1
	sw	s0,24(sp)
	sw	s1,20(sp)
	sw	s2,16(sp)
	sw	s3,12(sp)
	sw	s5,4(sp)
	sw	s6,0(sp)
	sw	ra,28(sp)
	.cfi_offset 8, -8
	.cfi_offset 9, -12
	.cfi_offset 18, -16
	.cfi_offset 19, -20
	.cfi_offset 21, -28
	.cfi_offset 22, -32
	.cfi_offset 1, -4
	.loc 1 226 19
	addi	a5,s4,%lo(g_bl_ops_funcs)
	.loc 1 221 1
	mv	s1,a0
	.loc 1 226 5
	lw	a5,156(a5)
	.loc 1 222 19
	addi	s5,a0,-4
.LVL21:
	.loc 1 223 5 is_stmt 1
	.loc 1 224 4
	.loc 1 226 5
	lw	a0,24(a0)
.LVL22:
	.loc 1 221 1 is_stmt 0
	mv	s2,a1
	mv	s3,a2
	.loc 1 226 5
	jalr	a5
.LVL23:
	.loc 1 227 5 is_stmt 1
	.loc 1 227 14 is_stmt 0
	lw	s0,16(s1)
.LVL24:
	addi	s4,s4,%lo(g_bl_ops_funcs)
	.loc 1 227 23
	addi	s6,s1,16
.L9:
	.loc 1 227 8 is_stmt 1 discriminator 1
	.loc 1 227 5 is_stmt 0 discriminator 1
	bne	s0,s6,.L16
	.loc 1 224 9
	li	s6,0
	j	.L15
.L16:
	.loc 1 228 9 is_stmt 1
	.loc 1 228 12 is_stmt 0
	lw	a4,12(s0)
	lw	a5,0(s2)
	bne	a4,a5,.L10
	.loc 1 228 35 discriminator 1
	lhu	a5,28(s0)
	andi	a5,a5,16
	beq	a5,zero,.L10
	.loc 1 230 13 is_stmt 1
	.loc 1 230 18
	.loc 1 230 26
	.loc 1 230 30
	.loc 1 231 13
	.loc 1 231 16 is_stmt 0
	bne	s3,zero,.L11
.L14:
	.loc 1 232 17 is_stmt 1
	.loc 1 232 22
	.loc 1 232 30
	.loc 1 232 34
	.loc 1 233 17
.LVL25:
	.loc 1 234 17
	.loc 1 234 28 is_stmt 0
	lhu	a5,28(s0)
	.loc 1 236 24
	lw	a0,20(s0)
	.loc 1 234 28
	andi	a5,a5,-17
	sh	a5,28(s0)
	.loc 1 236 17 is_stmt 1
	.loc 1 236 20 is_stmt 0
	bne	a0,zero,.L12
.L13:
	.loc 1 242 17 is_stmt 1
	.loc 1 242 20 is_stmt 0
	lhu	a5,28(s0)
	.loc 1 233 23
	li	s6,1
	.loc 1 242 20
	andi	a5,a5,24
	bne	a5,zero,.L15
	.loc 1 243 21 is_stmt 1
	mv	a1,s0
	mv	a0,s1
	call	cmd_complete
.LVL26:
.L15:
	.loc 1 252 5
	lw	a5,160(s4)
	lw	a0,24(s1)
	jalr	a5
.LVL27:
	.loc 1 254 5
	.loc 1 254 8 is_stmt 0
	bne	s6,zero,.L17
.LVL28:
	.loc 1 254 16 discriminator 1
	beq	s3,zero,.L17
	.loc 1 255 9 is_stmt 1
	mv	a2,s2
	li	a1,0
	mv	a0,s5
	jalr	s3
.LVL29:
.L17:
	.loc 1 257 5
	.loc 1 258 1 is_stmt 0
	lw	ra,28(sp)
	.cfi_remember_state
	.cfi_restore 1
	lw	s0,24(sp)
	.cfi_restore 8
.LVL30:
	lw	s1,20(sp)
	.cfi_restore 9
.LVL31:
	lw	s2,16(sp)
	.cfi_restore 18
.LVL32:
	lw	s3,12(sp)
	.cfi_restore 19
.LVL33:
	lw	s4,8(sp)
	.cfi_restore 20
	lw	s5,4(sp)
	.cfi_restore 21
.LVL34:
	lw	s6,0(sp)
	.cfi_restore 22
	li	a0,0
	addi	sp,sp,32
	.cfi_def_cfa_offset 0
	jr	ra
.LVL35:
.L11:
	.cfi_restore_state
	.loc 1 231 32 discriminator 2
	mv	a2,s2
	mv	a1,s0
	mv	a0,s5
	jalr	s3
.LVL36:
	.loc 1 231 28 discriminator 2
	beq	a0,zero,.L14
.L10:
	.loc 1 227 40 is_stmt 1
	.loc 1 227 44 is_stmt 0
	lw	s0,0(s0)
.LVL37:
	j	.L9
.LVL38:
.L12:
	.loc 1 236 40 discriminator 1
	lw	a2,12(s2)
	.loc 1 236 34 discriminator 1
	beq	a2,zero,.L13
	.loc 1 237 21 is_stmt 1
	.loc 1 237 26
	.loc 1 237 34
	.loc 1 238 63
	.loc 1 239 21
	addi	a1,s2,16
	call	memcpy
.LVL39:
	j	.L13
	.cfi_endproc
.LFE38:
	.size	cmd_mgr_msgind, .-cmd_mgr_msgind
	.section	.rodata.cmd_mgr_llind.str1.4,"aMS",@progbits,1
	.align	2
.LC0:
	.string	"%s:%d\r\n"
	.section	.text.cmd_mgr_llind,"ax",@progbits
	.align	1
	.type	cmd_mgr_llind, @function
cmd_mgr_llind:
.LFB37:
	.loc 1 171 1
	.cfi_startproc
.LVL40:
	.loc 1 172 5
	.loc 1 174 5
	.loc 1 174 9
	.loc 1 174 17
	.loc 1 176 5
	.loc 1 171 1 is_stmt 0
	addi	sp,sp,-48
	.cfi_def_cfa_offset 48
	sw	s3,28(sp)
	.cfi_offset 19, -20
	.loc 1 176 19
	lui	s3,%hi(g_bl_ops_funcs)
	.loc 1 171 1
	sw	s0,40(sp)
	sw	s1,36(sp)
	sw	s2,32(sp)
	sw	s4,24(sp)
	sw	s6,16(sp)
	sw	s7,12(sp)
	sw	s8,8(sp)
	sw	s9,4(sp)
	sw	s10,0(sp)
	sw	ra,44(sp)
	sw	s5,20(sp)
	.cfi_offset 8, -8
	.cfi_offset 9, -12
	.cfi_offset 18, -16
	.cfi_offset 20, -24
	.cfi_offset 22, -32
	.cfi_offset 23, -36
	.cfi_offset 24, -40
	.cfi_offset 25, -44
	.cfi_offset 26, -48
	.cfi_offset 1, -4
	.cfi_offset 21, -28
	.loc 1 176 19
	addi	a5,s3,%lo(g_bl_ops_funcs)
	.loc 1 171 1
	mv	s1,a0
	.loc 1 176 5
	lw	a5,156(a5)
	lw	a0,24(a0)
.LVL41:
	.loc 1 171 1
	mv	s2,a1
	.loc 1 172 26
	li	s4,0
	.loc 1 176 5
	jalr	a5
.LVL42:
	.loc 1 177 5 is_stmt 1
	.loc 1 177 14 is_stmt 0
	lw	s0,16(s1)
.LVL43:
	addi	s3,s3,%lo(g_bl_ops_funcs)
	.loc 1 177 23
	addi	s6,s1,16
.LBB33:
.LBB34:
	.loc 1 183 116
	lui	s7,%hi(.LANCHOR0)
	.loc 1 183 150
	lui	s8,%hi(.LANCHOR1)
	lui	s9,%hi(.LC0)
.LBE34:
	.loc 1 183 230
	li	s10,1
.LVL44:
.L33:
.LBE33:
	.loc 1 177 8 is_stmt 1 discriminator 1
	.loc 1 177 5 is_stmt 0 discriminator 1
	bne	s0,s6,.L37
	.loc 1 196 5 is_stmt 1
	.loc 1 172 40 is_stmt 0
	li	s0,0
.LVL45:
	.loc 1 196 8
	bne	s4,zero,.L42
	j	.L41
.LVL46:
.L37:
	.loc 1 178 9 is_stmt 1
	.loc 1 178 14
	.loc 1 178 22
	.loc 1 178 26
	.loc 1 179 9
	.loc 1 179 12 is_stmt 0
	bne	s4,zero,.L34
	.loc 1 180 13 is_stmt 1
	.loc 1 180 18
	.loc 1 180 26
	.loc 1 180 30
	.loc 1 181 13
	.loc 1 181 16 is_stmt 0
	lw	a4,24(s0)
	lw	a5,24(s2)
	bne	a4,a5,.L34
	.loc 1 182 17 is_stmt 1
	.loc 1 182 22
	.loc 1 182 30
	.loc 1 182 34
	.loc 1 183 17
.LBB36:
	.loc 1 183 24
	.loc 1 183 30
.LVL47:
	.loc 1 183 68
	mv	s4,s0
.LVL48:
	.loc 1 183 71 is_stmt 0
	beq	s0,s2,.L35
	.loc 1 183 89 is_stmt 1 discriminator 1
.LBB35:
	.loc 1 183 96 discriminator 1
.LVL49:
	.loc 1 183 131 discriminator 1
	.loc 1 183 116 is_stmt 0 discriminator 1
	addi	s5,s7,%lo(.LANCHOR0)
	.loc 1 183 134 discriminator 1
	lbu	a5,0(s5)
	bne	a5,zero,.L35
	.loc 1 183 150 is_stmt 1 discriminator 3
	lw	a5,4(s3)
	li	a2,183
	addi	a1,s8,%lo(.LANCHOR1)
	addi	a0,s9,%lo(.LC0)
	jalr	a5
.LVL50:
	.loc 1 183 202 discriminator 3
.LBE35:
	.loc 1 183 221 discriminator 3
	.loc 1 183 230 is_stmt 0 discriminator 3
	sb	s10,0(s5)
.LVL51:
.L35:
.LBE36:
	.loc 1 177 40 is_stmt 1 discriminator 2
	.loc 1 177 44 is_stmt 0 discriminator 2
	lw	s0,0(s0)
.LVL52:
	j	.L33
.L34:
	.loc 1 190 9 is_stmt 1
	.loc 1 190 12 is_stmt 0
	lhu	a5,28(s0)
	andi	a5,a5,4
	beq	a5,zero,.L35
.LVL53:
	.loc 1 196 5 is_stmt 1
	.loc 1 196 8 is_stmt 0
	beq	s4,zero,.L40
.LVL54:
.L42:
	.loc 1 199 9 is_stmt 1
	.loc 1 199 20 is_stmt 0
	lhu	a5,28(s2)
	andi	a4,a5,-9
	sh	a4,28(s2)
	.loc 1 200 9 is_stmt 1
	.loc 1 200 12 is_stmt 0
	andi	a5,a5,16
	bne	a5,zero,.L39
	.loc 1 201 13 is_stmt 1
	.loc 1 201 18
	.loc 1 201 26
	.loc 1 201 30
	.loc 1 202 13
	mv	a1,s2
	mv	a0,s1
	call	cmd_complete
.LVL55:
.L39:
	.loc 1 204 13
	.loc 1 204 18
	.loc 1 204 26
	.loc 1 204 30
	.loc 1 207 5
	.loc 1 207 8 is_stmt 0
	beq	s0,zero,.L41
.L40:
.LBB37:
	.loc 1 208 9 is_stmt 1
.LVL56:
	.loc 1 209 9
	.loc 1 209 21 is_stmt 0
	lhu	a5,28(s0)
	.loc 1 211 9
	mv	a1,s0
	.loc 1 209 21
	andi	a5,a5,-5
	sh	a5,28(s0)
	.loc 1 210 9 is_stmt 1
	.loc 1 210 14
	.loc 1 210 22
	.loc 1 210 26
	.loc 1 211 9
	.loc 1 212 66 is_stmt 0
	lw	a5,16(s0)
	.loc 1 211 9
	lw	a0,48(s1)
	lw	a2,12(a5)
	addi	a2,a2,16
	slli	a2,a2,16
	srli	a2,a2,16
	call	ipc_host_msg_push
.LVL57:
	.loc 1 213 9 is_stmt 1
	lw	a5,188(s3)
	lw	a0,16(s0)
	jalr	a5
.LVL58:
.L41:
.LBE37:
	.loc 1 215 5
	lw	a5,160(s3)
	lw	a0,24(s1)
	jalr	a5
.LVL59:
	.loc 1 217 5
	.loc 1 218 1 is_stmt 0
	lw	ra,44(sp)
	.cfi_restore 1
	lw	s0,40(sp)
	.cfi_restore 8
	lw	s1,36(sp)
	.cfi_restore 9
.LVL60:
	lw	s2,32(sp)
	.cfi_restore 18
.LVL61:
	lw	s3,28(sp)
	.cfi_restore 19
	lw	s4,24(sp)
	.cfi_restore 20
.LVL62:
	lw	s5,20(sp)
	.cfi_restore 21
	lw	s6,16(sp)
	.cfi_restore 22
.LVL63:
	lw	s7,12(sp)
	.cfi_restore 23
	lw	s8,8(sp)
	.cfi_restore 24
	lw	s9,4(sp)
	.cfi_restore 25
	lw	s10,0(sp)
	.cfi_restore 26
	li	a0,0
	addi	sp,sp,48
	.cfi_def_cfa_offset 0
	jr	ra
	.cfi_endproc
.LFE37:
	.size	cmd_mgr_llind, .-cmd_mgr_llind
	.section	.text.cmd_mgr_queue,"ax",@progbits
	.align	1
	.type	cmd_mgr_queue, @function
cmd_mgr_queue:
.LFB34:
	.loc 1 41 1 is_stmt 1
	.cfi_startproc
.LVL64:
	.loc 1 42 5
	.loc 1 43 5
	.loc 1 44 4
	.loc 1 45 5
	.loc 1 47 5
	.loc 1 47 9
	.loc 1 47 17
	.loc 1 49 5
	.loc 1 41 1 is_stmt 0
	addi	sp,sp,-32
	.cfi_def_cfa_offset 32
	sw	s2,16(sp)
	.cfi_offset 18, -16
	.loc 1 49 19
	lui	s2,%hi(g_bl_ops_funcs)
	.loc 1 41 1
	sw	s0,24(sp)
	sw	s1,20(sp)
	sw	s3,12(sp)
	sw	ra,28(sp)
	sw	s4,8(sp)
	.cfi_offset 8, -8
	.cfi_offset 9, -12
	.cfi_offset 19, -20
	.cfi_offset 1, -4
	.cfi_offset 20, -24
	.loc 1 49 19
	addi	s3,s2,%lo(g_bl_ops_funcs)
	.loc 1 49 5
	lw	a5,156(s3)
	.loc 1 41 1
	mv	s1,a0
	.loc 1 49 5
	lw	a0,24(a0)
.LVL65:
	.loc 1 41 1
	mv	s0,a1
	.loc 1 49 5
	jalr	a5
.LVL66:
	.loc 1 51 5 is_stmt 1
	.loc 1 51 8 is_stmt 0
	lw	a4,0(s1)
	li	a5,2
	bne	a4,a5,.L56
	.loc 1 52 9 is_stmt 1
	.loc 1 52 14
	.loc 1 52 22
	.loc 1 52 26
	.loc 1 53 9
	.loc 1 53 21 is_stmt 0
	li	a5,32
	sw	a5,36(s0)
	.loc 1 54 9 is_stmt 1
	.loc 1 54 13
	.loc 1 54 21
	.loc 1 55 9
	lw	a5,160(s3)
	lw	a0,24(s1)
	jalr	a5
.LVL67:
	.loc 1 56 9
	.loc 1 56 16 is_stmt 0
	li	a0,-32
.LVL68:
.L55:
	.loc 1 136 1
	lw	ra,28(sp)
	.cfi_remember_state
	.cfi_restore 1
	lw	s0,24(sp)
	.cfi_restore 8
.LVL69:
	lw	s1,20(sp)
	.cfi_restore 9
.LVL70:
	lw	s2,16(sp)
	.cfi_restore 18
	lw	s3,12(sp)
	.cfi_restore 19
	lw	s4,8(sp)
	.cfi_restore 20
	addi	sp,sp,32
	.cfi_def_cfa_offset 0
	jr	ra
.LVL71:
.L56:
	.cfi_restore_state
	.loc 1 59 8
	lw	a5,16(s1)
	.loc 1 59 21
	addi	s4,s1,16
	addi	s2,s2,%lo(g_bl_ops_funcs)
	.loc 1 59 5 is_stmt 1
.LVL72:
.LBB38:
.LBB39:
	.loc 2 184 2
.LBE39:
.LBE38:
	.loc 1 59 8 is_stmt 0
	beq	s4,a5,.L67
	.loc 1 60 9 is_stmt 1
	.loc 1 60 12 is_stmt 0
	lw	a4,8(s1)
	lw	a5,12(s1)
	bne	a4,a5,.L59
	.loc 1 61 13 is_stmt 1
	.loc 1 61 18
	.loc 1 61 26
	.loc 1 62 42
	.loc 1 63 13
	.loc 1 63 25 is_stmt 0
	li	a5,12
	sw	a5,36(s0)
	.loc 1 64 13 is_stmt 1
	.loc 1 64 17
	.loc 1 64 25
	.loc 1 65 13
	lw	a5,160(s3)
	lw	a0,24(s1)
	jalr	a5
.LVL73:
	.loc 1 66 13
	.loc 1 66 20 is_stmt 0
	li	a0,-12
	j	.L55
.L59:
	.loc 1 68 9 is_stmt 1
.LVL74:
	.loc 1 71 9
	.loc 1 71 17 is_stmt 0
	lw	a5,20(s1)
	.loc 1 44 9
	li	s3,0
	.loc 1 71 12
	lhu	a5,28(a5)
	andi	a5,a5,12
	beq	a5,zero,.L58
	.loc 1 81 13 is_stmt 1
	.loc 1 81 24 is_stmt 0
	lhu	a5,28(s0)
	.loc 1 82 24
	li	s3,1
	.loc 1 81 24
	ori	a5,a5,4
	sh	a5,28(s0)
.LVL75:
	.loc 1 82 13 is_stmt 1
.L58:
	.loc 1 87 5
	.loc 1 87 16 is_stmt 0
	lhu	a5,28(s0)
	.loc 1 88 5 is_stmt 1
	.loc 1 88 8 is_stmt 0
	andi	a4,a5,2
	bne	a4,zero,.L60
	.loc 1 87 16
	ori	a5,a5,8
.L71:
	.loc 1 89 20
	sh	a5,28(s0)
	.loc 1 91 5 is_stmt 1
	.loc 1 91 23 is_stmt 0
	lw	a5,4(s1)
	.loc 1 91 33
	addi	a4,a5,1
	sw	a4,4(s1)
	.loc 1 91 14
	sw	a5,24(s0)
	.loc 1 92 5 is_stmt 1
	.loc 1 92 17 is_stmt 0
	li	a5,4
	sw	a5,36(s0)
	.loc 1 94 5 is_stmt 1
	.loc 1 94 8 is_stmt 0
	lhu	a5,28(s0)
	andi	a5,a5,1
	bne	a5,zero,.L62
	.loc 1 95 9 is_stmt 1
	.loc 1 95 25 is_stmt 0
	lw	a5,36(s2)
	jalr	a5
.LVL76:
	.loc 1 95 23
	sw	a0,32(s0)
.L62:
	.loc 1 99 5 is_stmt 1
.LVL77:
.LBB40:
.LBB41:
	.loc 2 113 2
	lw	a5,20(s1)
.LVL78:
.LBB42:
.LBB43:
	.loc 2 84 2
	.loc 2 84 13 is_stmt 0
	sw	s0,20(s1)
	.loc 2 85 2 is_stmt 1
	.loc 2 85 12 is_stmt 0
	sw	s4,0(s0)
	.loc 2 86 2 is_stmt 1
	.loc 2 86 12 is_stmt 0
	sw	a5,4(s0)
	.loc 2 87 2 is_stmt 1
	.loc 2 87 13 is_stmt 0
	sw	s0,0(a5)
.LVL79:
.LBE43:
.LBE42:
.LBE41:
.LBE40:
	.loc 1 100 5 is_stmt 1
	.loc 1 100 22 is_stmt 0
	lw	a5,8(s1)
	.loc 1 101 5
	lw	a0,24(s1)
	.loc 1 100 22
	addi	a5,a5,1
	sw	a5,8(s1)
	.loc 1 101 5 is_stmt 1
	lw	a5,160(s2)
	jalr	a5
.LVL80:
	.loc 1 103 5
	.loc 1 103 8 is_stmt 0
	bne	s3,zero,.L63
	.loc 1 104 9 is_stmt 1
	.loc 1 104 14
	.loc 1 104 22
	.loc 1 104 26
	.loc 1 105 9
	.loc 1 105 86 is_stmt 0
	lw	a5,16(s0)
	.loc 1 105 9
	lw	a0,48(s1)
	mv	a1,s0
	lw	a2,12(a5)
	addi	a2,a2,16
	slli	a2,a2,16
	srli	a2,a2,16
	call	ipc_host_msg_push
.LVL81:
	.loc 1 106 9 is_stmt 1
	lw	a5,188(s2)
	lw	a0,16(s0)
	jalr	a5
.LVL82:
.L63:
	.loc 1 109 5
	.loc 1 109 8 is_stmt 0
	lhu	a5,28(s0)
	andi	a5,a5,1
	bne	a5,zero,.L64
	.loc 1 110 9 is_stmt 1
	.loc 1 110 14
	.loc 1 110 22
	.loc 1 110 26
	.loc 1 111 9
	.loc 1 111 13 is_stmt 0
	lw	a5,48(s2)
	lw	a0,32(s0)
	li	a4,-1
	li	a3,0
	li	a2,1
	li	a1,1
	jalr	a5
.LVL83:
	.loc 1 116 9 is_stmt 1
	.loc 1 116 15 is_stmt 0
	andi	a0,a0,1
.LVL84:
	.loc 1 116 12
	bne	a0,zero,.L65
	.loc 1 119 13 is_stmt 1
	.loc 1 119 18
	.loc 1 119 26
	.loc 1 119 30
	.loc 1 120 13
.LVL85:
	.loc 1 16 5
	.loc 1 16 10
	.loc 1 16 18
	.loc 1 18 91
	.loc 1 121 13
	lw	a5,156(s2)
	lw	a0,24(s1)
	jalr	a5
.LVL86:
	.loc 1 122 13
	.loc 1 122 28 is_stmt 0
	li	a5,2
	sw	a5,0(s1)
	.loc 1 123 13 is_stmt 1
	.loc 1 123 16 is_stmt 0
	lhu	a5,28(s0)
	andi	a5,a5,32
	bne	a5,zero,.L66
	.loc 1 124 17 is_stmt 1
	.loc 1 124 29 is_stmt 0
	li	a5,110
	sw	a5,36(s0)
	.loc 1 125 17 is_stmt 1
	mv	a1,s0
	mv	a0,s1
	call	cmd_complete
.LVL87:
.L66:
	.loc 1 127 13
	lw	a5,160(s2)
	lw	a0,24(s1)
	jalr	a5
.LVL88:
.L65:
	.loc 1 129 9
	lw	a5,40(s2)
	lw	a0,32(s0)
	jalr	a5
.LVL89:
.L72:
	.loc 1 135 12 is_stmt 0
	li	a0,0
	j	.L55
.LVL90:
.L67:
	.loc 1 44 9
	li	s3,0
	j	.L58
.LVL91:
.L60:
	.loc 1 89 9 is_stmt 1
	.loc 1 89 20 is_stmt 0
	ori	a5,a5,24
	j	.L71
.L64:
	.loc 1 131 9 is_stmt 1
	.loc 1 131 14
	.loc 1 131 22
	.loc 1 131 26
	.loc 1 132 9
	.loc 1 132 21 is_stmt 0
	sw	zero,36(s0)
	j	.L72
	.cfi_endproc
.LFE34:
	.size	cmd_mgr_queue, .-cmd_mgr_queue
	.section	.text.cmd_mgr_drain,"ax",@progbits
	.align	1
	.type	cmd_mgr_drain, @function
cmd_mgr_drain:
.LFB36:
	.loc 1 154 1 is_stmt 1
	.cfi_startproc
.LVL92:
	.loc 1 155 5
	.loc 1 157 5
	.loc 1 157 9
	.loc 1 157 17
	.loc 1 159 5
	.loc 1 154 1 is_stmt 0
	addi	sp,sp,-32
	.cfi_def_cfa_offset 32
	sw	s1,20(sp)
	.cfi_offset 9, -12
	.loc 1 159 19
	lui	s1,%hi(g_bl_ops_funcs)
	.loc 1 154 1
	sw	s0,24(sp)
	sw	s2,16(sp)
	sw	s3,12(sp)
	sw	s4,8(sp)
	sw	s5,4(sp)
	sw	ra,28(sp)
	.cfi_offset 8, -8
	.cfi_offset 18, -16
	.cfi_offset 19, -20
	.cfi_offset 20, -24
	.cfi_offset 21, -28
	.cfi_offset 1, -4
	.loc 1 159 19
	addi	a5,s1,%lo(g_bl_ops_funcs)
	.loc 1 154 1
	mv	s0,a0
	.loc 1 159 5
	lw	a5,156(a5)
	lw	a0,24(a0)
.LVL93:
.LBB48:
.LBB49:
	.loc 2 139 14
	li	s3,1048576
	.loc 2 140 14
	li	s4,2097152
.LBE49:
.LBE48:
	.loc 1 159 5
	jalr	a5
.LVL94:
	.loc 1 160 5 is_stmt 1
	.loc 1 160 14 is_stmt 0
	lw	a5,16(s0)
.LVL95:
	addi	s1,s1,%lo(g_bl_ops_funcs)
	.loc 1 160 23
	addi	s5,s0,16
	.loc 1 160 12
	lw	s2,0(a5)
.LVL96:
.LBB54:
.LBB52:
	.loc 2 139 14
	addi	s3,s3,256
	.loc 2 140 14
	addi	s4,s4,512
.L74:
.LBE52:
.LBE54:
	.loc 1 160 8 is_stmt 1 discriminator 1
	.loc 1 160 5 is_stmt 0 discriminator 1
	bne	a5,s5,.L76
	.loc 1 167 5 is_stmt 1
	lw	a0,24(s0)
	.loc 1 168 1 is_stmt 0
	lw	s0,24(sp)
	.cfi_remember_state
	.cfi_restore 8
.LVL97:
	.loc 1 167 5
	lw	a5,160(s1)
.LVL98:
	.loc 1 168 1
	lw	ra,28(sp)
	.cfi_restore 1
	lw	s1,20(sp)
	.cfi_restore 9
	lw	s2,16(sp)
	.cfi_restore 18
.LVL99:
	lw	s3,12(sp)
	.cfi_restore 19
	lw	s4,8(sp)
	.cfi_restore 20
	lw	s5,4(sp)
	.cfi_restore 21
.LVL100:
	addi	sp,sp,32
	.cfi_def_cfa_offset 0
	.loc 1 167 5
	jr	a5
.LVL101:
.L76:
	.cfi_restore_state
	.loc 1 161 9 is_stmt 1
.LBB55:
.LBB53:
	.loc 2 138 2
	lw	a4,4(a5)
	lw	a3,0(a5)
.LVL102:
.LBB50:
.LBB51:
	.loc 2 126 2
	.loc 2 126 13 is_stmt 0
	sw	a4,4(a3)
	.loc 2 127 2 is_stmt 1
	.loc 2 127 13 is_stmt 0
	sw	a3,0(a4)
.LVL103:
.LBE51:
.LBE50:
	.loc 2 139 2 is_stmt 1
	.loc 2 139 14 is_stmt 0
	sw	s3,0(a5)
	.loc 2 140 2 is_stmt 1
	.loc 2 140 14 is_stmt 0
	sw	s4,4(a5)
.LVL104:
.LBE53:
.LBE55:
	.loc 1 162 9 is_stmt 1
	.loc 1 162 26 is_stmt 0
	lw	a4,8(s0)
	addi	a4,a4,-1
	sw	a4,8(s0)
	.loc 1 163 9 is_stmt 1
	.loc 1 163 12 is_stmt 0
	lhu	a4,28(a5)
	andi	a4,a4,1
	bne	a4,zero,.L75
	.loc 1 164 13 is_stmt 1
	lw	a4,44(s1)
	lw	a0,32(a5)
	li	a1,1
	jalr	a4
.LVL105:
.L75:
	.loc 1 160 40 discriminator 2
	.loc 1 160 55 is_stmt 0 discriminator 2
	mv	a5,s2
	lw	s2,0(s2)
.LVL106:
	j	.L74
	.cfi_endproc
.LFE36:
	.size	cmd_mgr_drain, .-cmd_mgr_drain
	.section	.rodata.bl_cmd_mgr_init.str1.4,"aMS",@progbits,1
	.align	2
.LC1:
	.string	"((void *)0) != cmd_mgr->lock"
	.align	2
.LC2:
	.string	"/mnt/d/GitHub/bl_iot_sdk_for_aithinker/components/network/wifi_manager/bl60x_wifi_driver/bl_cmds.c"
	.section	.text.bl_cmd_mgr_init,"ax",@progbits
	.align	1
	.globl	bl_cmd_mgr_init
	.type	bl_cmd_mgr_init, @function
bl_cmd_mgr_init:
.LFB39:
	.loc 1 261 1 is_stmt 1
	.cfi_startproc
.LVL107:
	.loc 1 262 5
	.loc 1 262 10
	.loc 1 261 1 is_stmt 0
	addi	sp,sp,-16
	.cfi_def_cfa_offset 16
	sw	s0,8(sp)
	sw	s1,4(sp)
	.loc 1 262 36
	addi	a5,a0,16
	.loc 1 261 1
	sw	ra,12(sp)
	.cfi_offset 8, -8
	.cfi_offset 9, -12
	.cfi_offset 1, -4
	.loc 1 263 35
	lui	s1,%hi(g_bl_ops_funcs)
	.loc 1 262 33
	sw	a5,16(a0)
	.loc 1 262 53 is_stmt 1
	.loc 1 262 76 is_stmt 0
	sw	a5,20(a0)
	.loc 1 262 104 is_stmt 1
	.loc 1 263 5
	.loc 1 263 35 is_stmt 0
	addi	s1,s1,%lo(g_bl_ops_funcs)
	.loc 1 263 21
	lw	a5,148(s1)
	.loc 1 261 1
	mv	s0,a0
	.loc 1 263 21
	jalr	a5
.LVL108:
	.loc 1 263 19
	sw	a0,24(s0)
	.loc 1 264 5 is_stmt 1
	.loc 1 264 10
	.loc 1 264 13 is_stmt 0
	bne	a0,zero,.L79
	.loc 1 264 25 is_stmt 1 discriminator 1
	lw	a5,12(s1)
	lui	a3,%hi(.LC1)
	lui	a2,%hi(.LANCHOR2)
	lui	a0,%hi(.LC2)
	addi	a3,a3,%lo(.LC1)
	addi	a2,a2,%lo(.LANCHOR2)
	li	a1,264
	addi	a0,a0,%lo(.LC2)
	jalr	a5
.LVL109:
.L79:
	.loc 1 264 212 discriminator 3
	.loc 1 266 5 discriminator 3
	.loc 1 266 27 is_stmt 0 discriminator 3
	li	a5,8
	sw	a5,12(s0)
	.loc 1 267 5 is_stmt 1 discriminator 3
	.loc 1 267 20 is_stmt 0 discriminator 3
	lui	a5,%hi(cmd_mgr_queue)
	addi	a5,a5,%lo(cmd_mgr_queue)
	sw	a5,28(s0)
	.loc 1 268 5 is_stmt 1 discriminator 3
	.loc 1 268 20 is_stmt 0 discriminator 3
	lui	a5,%hi(cmd_mgr_print)
	addi	a5,a5,%lo(cmd_mgr_print)
	sw	a5,40(s0)
	.loc 1 269 5 is_stmt 1 discriminator 3
	.loc 1 269 20 is_stmt 0 discriminator 3
	lui	a5,%hi(cmd_mgr_drain)
	addi	a5,a5,%lo(cmd_mgr_drain)
	sw	a5,44(s0)
	.loc 1 270 5 is_stmt 1 discriminator 3
	.loc 1 270 20 is_stmt 0 discriminator 3
	lui	a5,%hi(cmd_mgr_llind)
	addi	a5,a5,%lo(cmd_mgr_llind)
	sw	a5,32(s0)
	.loc 1 271 5 is_stmt 1 discriminator 3
	.loc 1 271 21 is_stmt 0 discriminator 3
	lui	a5,%hi(cmd_mgr_msgind)
	addi	a5,a5,%lo(cmd_mgr_msgind)
	.loc 1 272 1 discriminator 3
	lw	ra,12(sp)
	.cfi_restore 1
	.loc 1 271 21 discriminator 3
	sw	a5,36(s0)
	.loc 1 272 1 discriminator 3
	lw	s0,8(sp)
	.cfi_restore 8
.LVL110:
	lw	s1,4(sp)
	.cfi_restore 9
	addi	sp,sp,16
	.cfi_def_cfa_offset 0
	jr	ra
	.cfi_endproc
.LFE39:
	.size	bl_cmd_mgr_init, .-bl_cmd_mgr_init
	.comm	cfg_start_req_u_tlv_t,12,4
	.section	.rodata.__FUNCTION__.2,"a"
	.align	2
	.set	.LANCHOR2,. + 0
	.type	__FUNCTION__.2, @object
	.size	__FUNCTION__.2, 16
__FUNCTION__.2:
	.string	"bl_cmd_mgr_init"
	.section	.rodata.__func__.0,"a"
	.align	2
	.set	.LANCHOR1,. + 0
	.type	__func__.0, @object
	.size	__func__.0, 14
__func__.0:
	.string	"cmd_mgr_llind"
	.section	.sbss.__warned.1,"aw",@nobits
	.set	.LANCHOR0,. + 0
	.type	__warned.1, @object
	.size	__warned.1, 1
__warned.1:
	.zero	1
	.text
.Letext0:
	.file 3 "/mnt/d/GitHub/bl_iot_sdk_for_aithinker/toolchain/riscv/Linux/riscv64-unknown-elf/include/machine/_default_types.h"
	.file 4 "/mnt/d/GitHub/bl_iot_sdk_for_aithinker/toolchain/riscv/Linux/riscv64-unknown-elf/include/sys/_stdint.h"
	.file 5 "/mnt/d/GitHub/bl_iot_sdk_for_aithinker/components/os/bl_os_adapter/bl_os_adapter/include/bl_os_adapter/bl_os_type.h"
	.file 6 "/mnt/d/GitHub/bl_iot_sdk_for_aithinker/components/os/bl_os_adapter/bl_os_adapter/include/bl_os_adapter/bl_os_adapter.h"
	.file 7 "/mnt/d/GitHub/bl_iot_sdk_for_aithinker/components/network/wifi_manager/bl60x_wifi_driver/lmac_types.h"
	.file 8 "/mnt/d/GitHub/bl_iot_sdk_for_aithinker/components/network/wifi/include/bl60x_fw_api.h"
	.file 9 "/mnt/d/GitHub/bl_iot_sdk_for_aithinker/components/network/wifi_manager/bl60x_wifi_driver/lmac_mac.h"
	.file 10 "/mnt/d/GitHub/bl_iot_sdk_for_aithinker/components/network/wifi_manager/bl60x_wifi_driver/lmac_msg.h"
	.file 11 "/mnt/d/GitHub/bl_iot_sdk_for_aithinker/components/network/wifi_manager/bl60x_wifi_driver/ipc_shared.h"
	.file 12 "/mnt/d/GitHub/bl_iot_sdk_for_aithinker/components/network/wifi_manager/bl60x_wifi_driver/bl_cmds.h"
	.file 13 "/mnt/d/GitHub/bl_iot_sdk_for_aithinker/components/network/wifi_manager/bl60x_wifi_driver/bl_defs.h"
	.file 14 "/mnt/d/GitHub/bl_iot_sdk_for_aithinker/components/network/wifi_manager/bl60x_wifi_driver/ipc_host.h"
	.file 15 "/mnt/d/GitHub/bl_iot_sdk_for_aithinker/components/network/wifi_manager/bl60x_wifi_driver/ieee80211.h"
	.file 16 "/mnt/d/GitHub/bl_iot_sdk_for_aithinker/components/network/wifi_manager/bl60x_wifi_driver/cfg80211.h"
	.file 17 "/mnt/d/GitHub/bl_iot_sdk_for_aithinker/components/network/wifi_manager/bl60x_wifi_driver/bl_mod_params.h"
	.file 18 "/mnt/d/GitHub/bl_iot_sdk_for_aithinker/toolchain/riscv/Linux/riscv64-unknown-elf/include/string.h"