	.file	"bl_irqs.c"
	.option nopic
	.attribute arch, "rv32i2p0_m2p0_f2p0_c2p0"
	.attribute unaligned_access, 0
	.attribute stack_align, 16
	.text
.Ltext0:
	.cfi_sections	.debug_frame
	.section	.text.bl_irqs_init,"ax",@progbits
	.align	1
	.globl	bl_irqs_init
	.type	bl_irqs_init, @function
bl_irqs_init:
.LFB28:
	.file 1 "/mnt/d/GitHub/bl_iot_sdk_for_aithinker/components/network/wifi_manager/bl60x_wifi_driver/bl_irqs.c"
	.loc 1 36 1
	.cfi_startproc
.LVL0:
	.loc 1 37 5
	.loc 1 39 5
	.loc 1 40 1 is_stmt 0
	li	a0,0
.LVL1:
	ret
	.cfi_endproc
.LFE28:
	.size	bl_irqs_init, .-bl_irqs_init
	.section	.text.bl_irqs_enable,"ax",@progbits
	.align	1
	.globl	bl_irqs_enable
	.type	bl_irqs_enable, @function
bl_irqs_enable:
.LFB29:
	.loc 1 43 1 is_stmt 1
	.cfi_startproc
	.loc 1 44 5
	.loc 1 45 1 is_stmt 0
	li	a0,0
	ret
	.cfi_endproc
.LFE29:
	.size	bl_irqs_enable, .-bl_irqs_enable
	.section	.text.bl_irqs_disable,"ax",@progbits
	.align	1
	.globl	bl_irqs_disable
	.type	bl_irqs_disable, @function
bl_irqs_disable:
.LFB33:
	.cfi_startproc
	li	a0,0
	ret
	.cfi_endproc
.LFE33:
	.size	bl_irqs_disable, .-bl_irqs_disable
	.section	.text.bl_irq_bottomhalf,"ax",@progbits
	.align	1
	.globl	bl_irq_bottomhalf
	.type	bl_irq_bottomhalf, @function
bl_irq_bottomhalf:
.LFB31:
	.loc 1 53 1 is_stmt 1
	.cfi_startproc
.LVL2:
	.loc 1 54 5
	.loc 1 59 5
	.loc 1 59 9
	.loc 1 59 15
	.loc 1 60 5
	.loc 1 53 1 is_stmt 0
	addi	sp,sp,-16
	.cfi_def_cfa_offset 16
	sw	s0,8(sp)
	sw	ra,12(sp)
	.cfi_offset 8, -8
	.cfi_offset 1, -4
	.loc 1 53 1
	mv	s0,a0
	.loc 1 60 14
	lw	a0,52(a0)
.LVL3:
.L9:
	.loc 1 68 18
	call	ipc_host_get_rawstatus
.LVL4:
	mv	a1,a0
.LVL5:
.L5:
	.loc 1 63 11 is_stmt 1
	.loc 1 67 9 is_stmt 0
	lw	a0,52(s0)
.LVL6:
	.loc 1 63 11
	bne	a1,zero,.L6
	.loc 1 81 5 is_stmt 1
	.loc 1 81 9
	.loc 1 81 15
	.loc 1 83 5
	li	a1,2047
.LVL7:
	call	ipc_host_enable_irq
.LVL8:
	.loc 1 85 5
	.loc 1 85 14 is_stmt 0
	lw	a0,52(s0)
	call	ipc_host_get_rawstatus
.LVL9:
	mv	a1,a0
.LVL10:
	.loc 1 86 5 is_stmt 1
	.loc 1 86 8 is_stmt 0
	bne	a0,zero,.L5
	.loc 1 89 1
	lw	ra,12(sp)
	.cfi_remember_state
	.cfi_restore 1
	lw	s0,8(sp)
	.cfi_restore 8
.LVL11:
	addi	sp,sp,16
	.cfi_def_cfa_offset 0
	jr	ra
.LVL12:
.L6:
	.cfi_restore_state
	.loc 1 64 9 is_stmt 1
	.loc 1 67 9
	call	ipc_host_irq
.LVL13:
	.loc 1 68 9
	.loc 1 68 18 is_stmt 0
	lw	a0,52(s0)
	j	.L9
	.cfi_endproc
.LFE31:
	.size	bl_irq_bottomhalf, .-bl_irq_bottomhalf
	.comm	cfg_start_req_u_tlv_t,12,4
	.text
.Letext0:
	.file 2 "/mnt/d/GitHub/bl_iot_sdk_for_aithinker/toolchain/riscv/Linux/lib/gcc/riscv64-unknown-elf/10.2.0/include/stdint-gcc.h"
	.file 3 "/mnt/d/GitHub/bl_iot_sdk_for_aithinker/components/os/bl_os_adapter/bl_os_adapter/include/bl_os_adapter/bl_os_type.h"
	.file 4 "/mnt/d/GitHub/bl_iot_sdk_for_aithinker/components/network/wifi/include/bl60x_fw_api.h"
	.file 5 "/mnt/d/GitHub/bl_iot_sdk_for_aithinker/components/network/wifi_manager/bl60x_wifi_driver/lmac_types.h"
	.file 6 "/mnt/d/GitHub/bl_iot_sdk_for_aithinker/components/network/wifi_manager/bl60x_wifi_driver/lmac_mac.h"
	.file 7 "/mnt/d/GitHub/bl_iot_sdk_for_aithinker/components/network/wifi_manager/bl60x_wifi_driver/ipc_shared.h"
	.file 8 "/mnt/d/GitHub/bl_iot_sdk_for_aithinker/components/network/wifi_manager/bl60x_wifi_driver/ipc_host.h"
	.file 9 "/mnt/d/GitHub/bl_iot_sdk_for_aithinker/components/network/wifi_manager/bl60x_wifi_driver/list.h"
	.file 10 "/mnt/d/GitHub/bl_iot_sdk_for_aithinker/components/network/wifi_manager/bl60x_wifi_driver/lmac_msg.h"
	.file 11 "/mnt/d/GitHub/bl_iot_sdk_for_aithinker/components/network/wifi_manager/bl60x_wifi_driver/bl_cmds.h"
	.file 12 "/mnt/d/GitHub/bl_iot_sdk_for_aithinker/components/network/wifi_manager/bl60x_wifi_driver/bl_defs.h"
	.file 13 "/mnt/d/GitHub/bl_iot_sdk_for_aithinker/components/network/wifi_manager/bl60x_wifi_driver/ieee80211.h"
	.file 14 "/mnt/d/GitHub/bl_iot_sdk_for_aithinker/components/network/wifi_manager/bl60x_wifi_driver/cfg80211.h"
	.file 15 "/mnt/d/GitHub/bl_iot_sdk_for_aithinker/components/network/wifi_manager/bl60x_wifi_driver/bl_mod_params.h"