	.file	"bl_main.c"
	.option nopic
	.attribute arch, "rv32i2p0_m2p0_f2p0_c2p0"
	.attribute unaligned_access, 0
	.attribute stack_align, 16
	.text
.Ltext0:
	.cfi_sections	.debug_frame
	.section	.text.bl_open,"ax",@progbits
	.align	1
	.globl	bl_open
	.type	bl_open, @function
bl_open:
.LFB56:
	.file 1 "/mnt/d/GitHub/bl_iot_sdk_for_aithinker/components/network/wifi_manager/bl60x_wifi_driver/bl_main.c"
	.loc 1 70 1
	.cfi_startproc
.LVL0:
	.loc 1 156 5
	.loc 1 158 1 is_stmt 0
	li	a0,0
.LVL1:
	ret
	.cfi_endproc
.LFE56:
	.size	bl_open, .-bl_open
	.section	.text.bl_main_disconnect,"ax",@progbits
	.align	1
	.globl	bl_main_disconnect
	.type	bl_main_disconnect, @function
bl_main_disconnect:
.LFB58:
	.loc 1 191 1 is_stmt 1
	.cfi_startproc
	.loc 1 192 5
	lui	a0,%hi(wifi_hw)
	.loc 1 191 1 is_stmt 0
	addi	sp,sp,-16
	.cfi_def_cfa_offset 16
	.loc 1 192 5
	addi	a0,a0,%lo(wifi_hw)
	.loc 1 191 1
	sw	ra,12(sp)
	.cfi_offset 1, -4
	.loc 1 192 5
	call	bl_send_sm_disconnect_req
.LVL2:
	.loc 1 193 5 is_stmt 1
	.loc 1 194 1 is_stmt 0
	lw	ra,12(sp)
	.cfi_restore 1
	li	a0,0
	addi	sp,sp,16
	.cfi_def_cfa_offset 0
	jr	ra
	.cfi_endproc
.LFE58:
	.size	bl_main_disconnect, .-bl_main_disconnect
	.section	.text.bl_main_powersaving,"ax",@progbits
	.align	1
	.globl	bl_main_powersaving
	.type	bl_main_powersaving, @function
bl_main_powersaving:
.LFB59:
	.loc 1 197 1 is_stmt 1
	.cfi_startproc
.LVL3:
	.loc 1 198 5
	.loc 1 197 1 is_stmt 0
	mv	a1,a0
	.loc 1 198 12
	lui	a0,%hi(wifi_hw)
.LVL4:
	addi	a0,a0,%lo(wifi_hw)
	tail	bl_send_mm_powersaving_req
.LVL5:
	.cfi_endproc
.LFE59:
	.size	bl_main_powersaving, .-bl_main_powersaving
	.section	.text.bl_main_denoise,"ax",@progbits
	.align	1
	.globl	bl_main_denoise
	.type	bl_main_denoise, @function
bl_main_denoise:
.LFB60:
	.loc 1 202 1 is_stmt 1
	.cfi_startproc
.LVL6:
	.loc 1 203 5
	.loc 1 202 1 is_stmt 0
	mv	a1,a0
	.loc 1 203 12
	lui	a0,%hi(wifi_hw)
.LVL7:
	addi	a0,a0,%lo(wifi_hw)
	tail	bl_send_mm_denoise_req
.LVL8:
	.cfi_endproc
.LFE60:
	.size	bl_main_denoise, .-bl_main_denoise
	.section	.text.bl_main_monitor,"ax",@progbits
	.align	1
	.globl	bl_main_monitor
	.type	bl_main_monitor, @function
bl_main_monitor:
.LFB61:
	.loc 1 207 1 is_stmt 1
	.cfi_startproc
	.loc 1 208 5
	.loc 1 210 5
	.loc 1 207 1 is_stmt 0
	addi	sp,sp,-64
	.cfi_def_cfa_offset 64
	.loc 1 210 5
	li	a2,40
	li	a1,0
	addi	a0,sp,8
	.loc 1 207 1
	sw	ra,60(sp)
	.cfi_offset 1, -4
	.loc 1 210 5
	call	memset
.LVL9:
	.loc 1 211 5 is_stmt 1
	lui	a0,%hi(wifi_hw)
	addi	a1,sp,8
	addi	a0,a0,%lo(wifi_hw)
	call	bl_send_monitor_enable
.LVL10:
	.loc 1 212 5
	.loc 1 213 1 is_stmt 0
	lw	ra,60(sp)
	.cfi_restore 1
	li	a0,0
	addi	sp,sp,64
	.cfi_def_cfa_offset 0
	jr	ra
	.cfi_endproc
.LFE61:
	.size	bl_main_monitor, .-bl_main_monitor
	.section	.text.bl_main_phy_up,"ax",@progbits
	.align	1
	.globl	bl_main_phy_up
	.type	bl_main_phy_up, @function
bl_main_phy_up:
.LFB62:
	.loc 1 216 1 is_stmt 1
	.cfi_startproc
	.loc 1 217 5
.LVL11:
	.loc 1 219 5
	.loc 1 219 13 is_stmt 0
	lui	a0,%hi(wifi_hw)
	.loc 1 216 1
	addi	sp,sp,-16
	.cfi_def_cfa_offset 16
	.loc 1 219 13
	addi	a0,a0,%lo(wifi_hw)
	.loc 1 216 1
	sw	ra,12(sp)
	.cfi_offset 1, -4
	.loc 1 219 13
	call	bl_send_start
.LVL12:
	.loc 1 220 5 is_stmt 1
	.loc 1 225 1 is_stmt 0
	lw	ra,12(sp)
	.cfi_restore 1
	.loc 1 220 8
	snez	a0,a0
.LVL13:
	.loc 1 225 1
	neg	a0,a0
	addi	sp,sp,16
	.cfi_def_cfa_offset 0
	jr	ra
	.cfi_endproc
.LFE62:
	.size	bl_main_phy_up, .-bl_main_phy_up
	.section	.text.bl_main_channel_set,"ax",@progbits
	.align	1
	.globl	bl_main_channel_set
	.type	bl_main_channel_set, @function
bl_main_channel_set:
.LFB63:
	.loc 1 228 1 is_stmt 1
	.cfi_startproc
.LVL14:
	.loc 1 229 5
	.loc 1 228 1 is_stmt 0
	mv	a1,a0
	.loc 1 229 5
	lui	a0,%hi(wifi_hw)
.LVL15:
	.loc 1 228 1
	addi	sp,sp,-16
	.cfi_def_cfa_offset 16
	.loc 1 229 5
	addi	a0,a0,%lo(wifi_hw)
	.loc 1 228 1
	sw	ra,12(sp)
	.cfi_offset 1, -4
	.loc 1 229 5
	call	bl_send_channel_set_req
.LVL16:
	.loc 1 231 5 is_stmt 1
	.loc 1 232 1 is_stmt 0
	lw	ra,12(sp)
	.cfi_restore 1
	li	a0,0
	addi	sp,sp,16
	.cfi_def_cfa_offset 0
	jr	ra
	.cfi_endproc
.LFE63:
	.size	bl_main_channel_set, .-bl_main_channel_set
	.section	.text.bl_main_monitor_channel_set,"ax",@progbits
	.align	1
	.globl	bl_main_monitor_channel_set
	.type	bl_main_monitor_channel_set, @function
bl_main_monitor_channel_set:
.LFB64:
	.loc 1 235 1 is_stmt 1
	.cfi_startproc
.LVL17:
	.loc 1 236 5
	.loc 1 238 5
	.loc 1 235 1 is_stmt 0
	addi	sp,sp,-64
	.cfi_def_cfa_offset 64
	mv	a2,a0
	.loc 1 238 5
	lui	a0,%hi(wifi_hw)
.LVL18:
	.loc 1 235 1
	mv	a3,a1
	.loc 1 238 5
	addi	a0,a0,%lo(wifi_hw)
	addi	a1,sp,8
.LVL19:
	.loc 1 235 1
	sw	ra,60(sp)
	.cfi_offset 1, -4
	.loc 1 238 5
	call	bl_send_monitor_channel_set
.LVL20:
	.loc 1 240 5 is_stmt 1
	.loc 1 241 1 is_stmt 0
	lw	ra,60(sp)
	.cfi_restore 1
	li	a0,0
	addi	sp,sp,64
	.cfi_def_cfa_offset 0
	jr	ra
	.cfi_endproc
.LFE64:
	.size	bl_main_monitor_channel_set, .-bl_main_monitor_channel_set
	.section	.text.bl_main_beacon_interval_set,"ax",@progbits
	.align	1
	.globl	bl_main_beacon_interval_set
	.type	bl_main_beacon_interval_set, @function
bl_main_beacon_interval_set:
.LFB65:
	.loc 1 244 1 is_stmt 1
	.cfi_startproc
.LVL21:
	.loc 1 245 5
	.loc 1 247 5
	.loc 1 244 1 is_stmt 0
	addi	sp,sp,-32
	.cfi_def_cfa_offset 32
	mv	a2,a0
	.loc 1 247 5
	lui	a0,%hi(wifi_hw)
.LVL22:
	addi	a1,sp,12
	addi	a0,a0,%lo(wifi_hw)
	.loc 1 244 1
	sw	ra,28(sp)
	.cfi_offset 1, -4
	.loc 1 247 5
	call	bl_send_beacon_interval_set
.LVL23:
	.loc 1 249 5 is_stmt 1
	.loc 1 250 1 is_stmt 0
	lw	ra,28(sp)
	.cfi_restore 1
	li	a0,0
	addi	sp,sp,32
	.cfi_def_cfa_offset 0
	jr	ra
	.cfi_endproc
.LFE65:
	.size	bl_main_beacon_interval_set, .-bl_main_beacon_interval_set
	.section	.rodata.bl_main_if_remove.str1.4,"aMS",@progbits,1
	.align	2
.LC0:
	.string	"[WF] MM_REMOVE_IF_REQ Sending with vif_index %u...\r\n"
	.align	2
.LC1:
	.string	"[WF] MM_REMOVE_IF_REQ Done\r\n"
	.section	.text.bl_main_if_remove,"ax",@progbits
	.align	1
	.globl	bl_main_if_remove
	.type	bl_main_if_remove, @function
bl_main_if_remove:
.LFB66:
	.loc 1 253 1 is_stmt 1
	.cfi_startproc
.LVL24:
	.loc 1 254 5
	.loc 1 253 1 is_stmt 0
	addi	sp,sp,-32
	.cfi_def_cfa_offset 32
	sw	s0,24(sp)
	.cfi_offset 8, -8
	.loc 1 254 19
	lui	s0,%hi(g_bl_ops_funcs)
	addi	s0,s0,%lo(g_bl_ops_funcs)
	.loc 1 254 5
	lw	a5,4(s0)
	.loc 1 253 1
	mv	a1,a0
	.loc 1 254 5
	sw	a0,12(sp)
	lui	a0,%hi(.LC0)
.LVL25:
	.loc 1 253 1
	sw	ra,28(sp)
	.cfi_offset 1, -4
	.loc 1 254 5
	addi	a0,a0,%lo(.LC0)
	jalr	a5
.LVL26:
	.loc 1 255 5 is_stmt 1
	lw	a1,12(sp)
	lui	a0,%hi(wifi_hw)
	addi	a0,a0,%lo(wifi_hw)
	call	bl_send_remove_if
.LVL27:
	.loc 1 256 5
	lw	a5,4(s0)
	lui	a0,%hi(.LC1)
	addi	a0,a0,%lo(.LC1)
	jalr	a5
.LVL28:
	.loc 1 257 5
	.loc 1 258 1 is_stmt 0
	lw	ra,28(sp)
	.cfi_restore 1
	lw	s0,24(sp)
	.cfi_restore 8
	li	a0,0
	addi	sp,sp,32
	.cfi_def_cfa_offset 0
	jr	ra
	.cfi_endproc
.LFE66:
	.size	bl_main_if_remove, .-bl_main_if_remove
	.section	.text.bl_main_raw_send,"ax",@progbits
	.align	1
	.globl	bl_main_raw_send
	.type	bl_main_raw_send, @function
bl_main_raw_send:
.LFB67:
	.loc 1 261 1 is_stmt 1
	.cfi_startproc
.LVL29:
	.loc 1 262 5
	.loc 1 261 1 is_stmt 0
	mv	a2,a1
	.loc 1 262 12
	mv	a1,a0
.LVL30:
	lui	a0,%hi(wifi_hw)
.LVL31:
	addi	a0,a0,%lo(wifi_hw)
	tail	bl_send_scanu_raw_send
.LVL32:
	.cfi_endproc
.LFE67:
	.size	bl_main_raw_send, .-bl_main_raw_send
	.section	.text.bl_main_rate_config,"ax",@progbits
	.align	1
	.globl	bl_main_rate_config
	.type	bl_main_rate_config, @function
bl_main_rate_config:
.LFB68:
	.loc 1 266 1 is_stmt 1
	.cfi_startproc
.LVL33:
	.loc 1 267 5
	.loc 1 266 1 is_stmt 0
	mv	a2,a1
	.loc 1 267 12
	mv	a1,a0
.LVL34:
	lui	a0,%hi(wifi_hw)
.LVL35:
	addi	a0,a0,%lo(wifi_hw)
	tail	bl_send_me_rate_config_req
.LVL36:
	.cfi_endproc
.LFE68:
	.size	bl_main_rate_config, .-bl_main_rate_config
	.section	.rodata.bl_main_set_country_code.str1.4,"aMS",@progbits,1
	.align	2
.LC2:
	.string	"%s: country code: %s\r\n"
	.align	2
.LC3:
	.string	"bl_main.c"
	.section	.text.bl_main_set_country_code,"ax",@progbits
	.align	1
	.globl	bl_main_set_country_code
	.type	bl_main_set_country_code, @function
bl_main_set_country_code:
.LFB69:
	.loc 1 271 1 is_stmt 1
	.cfi_startproc
.LVL37:
	.loc 1 272 5
	.loc 1 272 19 is_stmt 0
	lui	a5,%hi(g_bl_ops_funcs+204)
	.loc 1 272 5
	lw	a7,%lo(g_bl_ops_funcs+204)(a5)
	.loc 1 271 1
	addi	sp,sp,-16
	.cfi_def_cfa_offset 16
	.loc 1 272 5
	lui	a5,%hi(.LANCHOR0)
	lui	a4,%hi(.LC2)
	lui	a2,%hi(.LC3)
	.loc 1 271 1
	sw	ra,12(sp)
	sw	s0,8(sp)
	.cfi_offset 1, -4
	.cfi_offset 8, -8
	.loc 1 272 5
	mv	a6,a0
	.loc 1 271 1
	mv	s0,a0
	.loc 1 272 5
	addi	a5,a5,%lo(.LANCHOR0)
	addi	a4,a4,%lo(.LC2)
	li	a3,272
	addi	a2,a2,%lo(.LC3)
	li	a1,0
	li	a0,2
.LVL38:
	jalr	a7
.LVL39:
	.loc 1 272 76 is_stmt 1
	.loc 1 273 5
	mv	a0,s0
	call	bl_msg_update_channel_cfg
.LVL40:
	.loc 1 274 5
	lui	a0,%hi(wifi_hw)
	addi	a0,a0,%lo(wifi_hw)
	call	bl_send_me_chan_config_req
.LVL41:
	.loc 1 276 5
	.loc 1 277 1 is_stmt 0
	lw	ra,12(sp)
	.cfi_restore 1
	lw	s0,8(sp)
	.cfi_restore 8
.LVL42:
	li	a0,0
	addi	sp,sp,16
	.cfi_def_cfa_offset 0
	jr	ra
	.cfi_endproc
.LFE69:
	.size	bl_main_set_country_code, .-bl_main_set_country_code
	.section	.text.bl_main_get_channel_nums,"ax",@progbits
	.align	1
	.globl	bl_main_get_channel_nums
	.type	bl_main_get_channel_nums, @function
bl_main_get_channel_nums:
.LFB70:
	.loc 1 280 1 is_stmt 1
	.cfi_startproc
	.loc 1 281 5
	.loc 1 281 12 is_stmt 0
	tail	bl_msg_get_channel_nums
.LVL43:
	.cfi_endproc
.LFE70:
	.size	bl_main_get_channel_nums, .-bl_main_get_channel_nums
	.section	.rodata.bl_main_if_add.str1.4,"aMS",@progbits,1
	.align	2
.LC4:
	.string	"STA"
	.align	2
.LC5:
	.string	"AP"
	.align	2
.LC6:
	.string	"[WF] MM_ADD_IF_REQ Sending: %s\r\n"
	.align	2
.LC7:
	.string	"[WF] MM_ADD_IF_REQ Done\r\n"
	.align	2
.LC8:
	.string	"add_if"
	.align	2
.LC9:
	.string	"%s: Status Error(%d)\n"
	.align	2
.LC10:
	.string	"[WF] vif_index from LAMC is %d\r\n"
	.section	.text.bl_main_if_add,"ax",@progbits
	.align	1
	.globl	bl_main_if_add
	.type	bl_main_if_add, @function
bl_main_if_add:
.LFB71:
	.loc 1 285 1 is_stmt 1
	.cfi_startproc
.LVL44:
	.loc 1 286 5
	.loc 1 287 5
	.loc 1 289 5
	.loc 1 285 1 is_stmt 0
	addi	sp,sp,-48
	.cfi_def_cfa_offset 48
	sw	s1,36(sp)
	.cfi_offset 9, -12
	.loc 1 289 19
	lui	s1,%hi(g_bl_ops_funcs)
	.loc 1 285 1
	sw	s3,28(sp)
	sw	s4,24(sp)
	sw	s5,20(sp)
	.loc 1 289 19
	addi	a5,s1,%lo(g_bl_ops_funcs)
	.loc 1 285 1
	sw	ra,44(sp)
	sw	s0,40(sp)
	sw	s2,32(sp)
	.cfi_offset 19, -20
	.cfi_offset 20, -24
	.cfi_offset 21, -28
	.cfi_offset 1, -4
	.cfi_offset 8, -8
	.cfi_offset 18, -16
	.loc 1 289 19
	lw	a4,4(a5)
	.loc 1 285 1
	mv	s3,a0
	mv	s4,a1
	mv	s5,a2
	addi	s1,s1,%lo(g_bl_ops_funcs)
	.loc 1 289 5
	bne	a0,zero,.L30
	lui	a5,%hi(.LC5)
	addi	a1,a5,%lo(.LC5)
.LVL45:
.L24:
	.loc 1 289 5 discriminator 4
	lui	a0,%hi(.LC6)
.LVL46:
	addi	a0,a0,%lo(.LC6)
	jalr	a4
.LVL47:
	.loc 1 290 5 is_stmt 1 discriminator 4
	.loc 1 290 13 is_stmt 0 discriminator 4
	seqz	a2,s3
	lui	s0,%hi(wifi_hw)
	addi	a4,sp,12
	li	a3,0
	addi	a2,a2,2
	addi	a1,s4,58
	addi	a0,s0,%lo(wifi_hw)
	call	bl_send_add_if
.LVL48:
	.loc 1 297 5 discriminator 4
	lw	a5,4(s1)
	.loc 1 290 13 discriminator 4
	mv	s2,a0
.LVL49:
	.loc 1 297 5 is_stmt 1 discriminator 4
	lui	a0,%hi(.LC7)
.LVL50:
	addi	a0,a0,%lo(.LC7)
	jalr	a5
.LVL51:
	.loc 1 298 5 discriminator 4
	.loc 1 298 8 is_stmt 0 discriminator 4
	bne	s2,zero,.L23
	.loc 1 302 5 is_stmt 1
	.loc 1 302 19 is_stmt 0
	lbu	a2,12(sp)
	.loc 1 302 8
	beq	a2,zero,.L27
	.loc 1 303 9 is_stmt 1
	lw	a5,4(s1)
	lui	a1,%hi(.LC8)
	lui	a0,%hi(.LC9)
	addi	a1,a1,%lo(.LC8)
	addi	a0,a0,%lo(.LC9)
	jalr	a5
.LVL52:
	.loc 1 304 9
	.loc 1 304 16 is_stmt 0
	li	s2,-5
.LVL53:
.L23:
	.loc 1 319 1
	lw	ra,44(sp)
	.cfi_remember_state
	.cfi_restore 1
	lw	s0,40(sp)
	.cfi_restore 8
	lw	s1,36(sp)
	.cfi_restore 9
	lw	s3,28(sp)
	.cfi_restore 19
.LVL54:
	lw	s4,24(sp)
	.cfi_restore 20
.LVL55:
	lw	s5,20(sp)
	.cfi_restore 21
.LVL56:
	mv	a0,s2
	lw	s2,32(sp)
	.cfi_restore 18
	addi	sp,sp,48
	.cfi_def_cfa_offset 0
	jr	ra
.LVL57:
.L30:
	.cfi_restore_state
	.loc 1 289 5
	lui	a5,%hi(.LC4)
	addi	a1,a5,%lo(.LC4)
.LVL58:
	j	.L24
.LVL59:
.L27:
	.loc 1 307 5 is_stmt 1
	.loc 1 308 43 is_stmt 0
	lbu	a1,13(sp)
	addi	s0,s0,%lo(wifi_hw)
	.loc 1 307 8
	beq	s3,zero,.L28
	.loc 1 308 9 is_stmt 1
	.loc 1 308 31 is_stmt 0
	sw	a1,460(s0)
.L29:
	.loc 1 312 5 is_stmt 1
	.loc 1 312 16 is_stmt 0
	sb	a1,0(s5)
	.loc 1 314 5 is_stmt 1
	lw	a5,4(s1)
	lui	a0,%hi(.LC10)
	addi	a0,a0,%lo(.LC10)
	jalr	a5
.LVL60:
	.loc 1 315 5
	.loc 1 315 33 is_stmt 0
	lbu	a5,13(sp)
	.loc 1 315 48
	li	a4,28
	mul	a5,a5,a4
	add	s0,s0,a5
	.loc 1 316 47
	li	a5,1
	.loc 1 315 48
	sw	s4,72(s0)
	.loc 1 316 5 is_stmt 1
	.loc 1 316 47 is_stmt 0
	sb	a5,76(s0)
	.loc 1 318 5 is_stmt 1
	.loc 1 318 12 is_stmt 0
	j	.L23
.L28:
	.loc 1 310 9 is_stmt 1
	.loc 1 310 30 is_stmt 0
	sw	a1,464(s0)
	j	.L29
	.cfi_endproc
.LFE71:
	.size	bl_main_if_add, .-bl_main_if_add
	.section	.rodata.bl_main_apm_start.str1.4,"aMS",@progbits,1
	.align	2
.LC11:
	.string	"[WF] APM_START_REQ Sending with vif_index %u\r\n"
	.align	2
.LC12:
	.string	"[WF] APM_START_REQ Done\r\n"
	.align	2
.LC13:
	.string	"[WF] status is %02X\r\n"
	.align	2
.LC14:
	.string	"[WF] vif_idx is %02X\r\n"
	.align	2
.LC15:
	.string	"[WF] ch_idx is %02X\r\n"
	.align	2
.LC16:
	.string	"[WF] bcmc_idx is %02X\r\n"
	.section	.text.bl_main_apm_start,"ax",@progbits
	.align	1
	.globl	bl_main_apm_start
	.type	bl_main_apm_start, @function
bl_main_apm_start:
.LFB72:
	.loc 1 322 1 is_stmt 1
	.cfi_startproc
.LVL61:
	.loc 1 323 5
	.loc 1 324 5
	.loc 1 326 5
	.loc 1 322 1 is_stmt 0
	addi	sp,sp,-64
	.cfi_def_cfa_offset 64
	sw	s0,56(sp)
	sw	s2,48(sp)
	sw	s3,44(sp)
	sw	s4,40(sp)
	.cfi_offset 8, -8
	.cfi_offset 18, -16
	.cfi_offset 19, -20
	.cfi_offset 20, -24
	mv	s2,a0
	mv	s3,a1
	mv	s4,a2
	.loc 1 326 5
	li	a1,0
.LVL62:
	li	a2,4
.LVL63:
	addi	a0,sp,28
.LVL64:
	.loc 1 327 19
	lui	s0,%hi(g_bl_ops_funcs)
	.loc 1 322 1
	sw	ra,60(sp)
	sw	s1,52(sp)
	.cfi_offset 1, -4
	.cfi_offset 9, -12
	.loc 1 327 19
	addi	s0,s0,%lo(g_bl_ops_funcs)
	.loc 1 322 1
	mv	s1,a3
	sw	a4,12(sp)
	sw	a5,8(sp)
	.loc 1 326 5
	call	memset
.LVL65:
	.loc 1 327 5 is_stmt 1
	lw	a5,4(s0)
	lui	a0,%hi(.LC11)
	mv	a1,s1
	addi	a0,a0,%lo(.LC11)
	jalr	a5
.LVL66:
	.loc 1 328 5
	.loc 1 328 13 is_stmt 0
	lw	a7,8(sp)
	lw	a6,12(sp)
	mv	a5,s1
	lui	s1,%hi(wifi_hw)
	mv	a4,s4
	mv	a3,s3
	mv	a2,s2
	addi	a1,sp,28
	addi	a0,s1,%lo(wifi_hw)
	call	bl_send_apm_start_req
.LVL67:
	.loc 1 329 5
	lw	a5,4(s0)
	.loc 1 328 13
	mv	s2,a0
.LVL68:
	.loc 1 329 5 is_stmt 1
	lui	a0,%hi(.LC12)
.LVL69:
	addi	a0,a0,%lo(.LC12)
	jalr	a5
.LVL70:
	.loc 1 330 5
	lw	a5,4(s0)
	lbu	a1,28(sp)
	lui	a0,%hi(.LC13)
	addi	a0,a0,%lo(.LC13)
	jalr	a5
.LVL71:
	.loc 1 331 5
	lw	a5,4(s0)
	lbu	a1,29(sp)
	lui	a0,%hi(.LC14)
	addi	a0,a0,%lo(.LC14)
	jalr	a5
.LVL72:
	.loc 1 332 5
	lw	a5,4(s0)
	lbu	a1,30(sp)
	lui	a0,%hi(.LC15)
	addi	a0,a0,%lo(.LC15)
	jalr	a5
.LVL73:
	.loc 1 333 5
	lw	a5,4(s0)
	lbu	a1,31(sp)
	lui	a0,%hi(.LC16)
	addi	a0,a0,%lo(.LC16)
	jalr	a5
.LVL74:
	.loc 1 334 5
	.loc 1 334 39 is_stmt 0
	lbu	a5,31(sp)
	.loc 1 334 25
	addi	s1,s1,%lo(wifi_hw)
	.loc 1 337 1
	mv	a0,s2
	.loc 1 334 39
	sw	a5,472(s1)
	.loc 1 336 5 is_stmt 1
	.loc 1 337 1 is_stmt 0
	lw	ra,60(sp)
	.cfi_restore 1
	lw	s0,56(sp)
	.cfi_restore 8
	lw	s1,52(sp)
	.cfi_restore 9
	lw	s2,48(sp)
	.cfi_restore 18
.LVL75:
	lw	s3,44(sp)
	.cfi_restore 19
.LVL76:
	lw	s4,40(sp)
	.cfi_restore 20
.LVL77:
	addi	sp,sp,64
	.cfi_def_cfa_offset 0
	jr	ra
	.cfi_endproc
.LFE72:
	.size	bl_main_apm_start, .-bl_main_apm_start
	.section	.rodata.bl_main_apm_stop.str1.4,"aMS",@progbits,1
	.align	2
.LC17:
	.string	"[WF] APM_STOP_REQ Sending with vif_index %u\r\n"
	.align	2
.LC18:
	.string	"[WF] APM_STOP_REQ Done\r\n"
	.section	.text.bl_main_apm_stop,"ax",@progbits
	.align	1
	.globl	bl_main_apm_stop
	.type	bl_main_apm_stop, @function
bl_main_apm_stop:
.LFB73:
	.loc 1 340 1 is_stmt 1
	.cfi_startproc
.LVL78:
	.loc 1 341 5
	.loc 1 343 5
	.loc 1 340 1 is_stmt 0
	addi	sp,sp,-32
	.cfi_def_cfa_offset 32
	sw	s0,24(sp)
	.cfi_offset 8, -8
	.loc 1 343 19
	lui	s0,%hi(g_bl_ops_funcs)
	addi	s0,s0,%lo(g_bl_ops_funcs)
	.loc 1 343 5
	lw	a5,4(s0)
	.loc 1 340 1
	mv	a1,a0
	.loc 1 343 5
	sw	a0,12(sp)
	lui	a0,%hi(.LC17)
.LVL79:
	.loc 1 340 1
	sw	ra,28(sp)
	sw	s1,20(sp)
	.cfi_offset 1, -4
	.cfi_offset 9, -12
	.loc 1 343 5
	addi	a0,a0,%lo(.LC17)
	jalr	a5
.LVL80:
	.loc 1 344 5 is_stmt 1
	.loc 1 344 13 is_stmt 0
	lw	a1,12(sp)
	lui	a0,%hi(wifi_hw)
	addi	a0,a0,%lo(wifi_hw)
	call	bl_send_apm_stop_req
.LVL81:
	.loc 1 345 5
	lw	a5,4(s0)
	.loc 1 344 13
	mv	s1,a0
.LVL82:
	.loc 1 345 5 is_stmt 1
	lui	a0,%hi(.LC18)
	addi	a0,a0,%lo(.LC18)
	jalr	a5
.LVL83:
	.loc 1 347 5
	.loc 1 348 1 is_stmt 0
	lw	ra,28(sp)
	.cfi_restore 1
	lw	s0,24(sp)
	.cfi_restore 8
	mv	a0,s1
	lw	s1,20(sp)
	.cfi_restore 9
.LVL84:
	addi	sp,sp,32
	.cfi_def_cfa_offset 0
	jr	ra
	.cfi_endproc
.LFE73:
	.size	bl_main_apm_stop, .-bl_main_apm_stop
	.section	.rodata.bl_main_apm_sta_cnt_get.str1.4,"aMS",@progbits,1
	.align	2
.LC19:
	.string	"Max limit sta cnt = %u, valid sta cnt = %u\r\n"
	.section	.text.bl_main_apm_sta_cnt_get,"ax",@progbits
	.align	1
	.globl	bl_main_apm_sta_cnt_get
	.type	bl_main_apm_sta_cnt_get, @function
bl_main_apm_sta_cnt_get:
.LFB74:
	.loc 1 351 1 is_stmt 1
	.cfi_startproc
.LVL85:
	.loc 1 352 5
	.loc 1 353 5
	.loc 1 354 5
	.loc 1 355 5
	.loc 1 357 5
	.loc 1 357 17
	lui	a5,%hi(wifi_hw)
	.loc 1 351 1 is_stmt 0
	addi	sp,sp,-16
	.cfi_def_cfa_offset 16
	addi	a5,a5,%lo(wifi_hw)
	sw	ra,12(sp)
	.cfi_offset 1, -4
	addi	a4,a5,168
	.loc 1 353 13
	li	a6,0
.LVL86:
.L39:
	.loc 1 358 9 is_stmt 1
	.loc 1 359 9
	.loc 1 359 12 is_stmt 0
	lbu	a3,266(a5)
	beq	a3,zero,.L38
	.loc 1 363 9 is_stmt 1
	.loc 1 363 12 is_stmt 0
	addi	a6,a6,1
.LVL87:
	andi	a6,a6,0xff
.LVL88:
.L38:
	.loc 1 357 36 is_stmt 1 discriminator 2
	.loc 1 357 17 discriminator 2
	.loc 1 357 5 is_stmt 0 discriminator 2
	addi	a5,a5,24
.LVL89:
	bne	a5,a4,.L39
	.loc 1 365 5 is_stmt 1
	.loc 1 365 16 is_stmt 0
	li	a5,7
.LVL90:
	sb	a5,0(a0)
	.loc 1 366 5 is_stmt 1
	.loc 1 366 19 is_stmt 0
	lui	a5,%hi(g_bl_ops_funcs+204)
	.loc 1 366 5
	lw	a7,%lo(g_bl_ops_funcs+204)(a5)
	lui	a4,%hi(.LC19)
	lui	a2,%hi(.LC3)
	li	a0,2
.LVL91:
	li	a5,7
	addi	a4,a4,%lo(.LC19)
	li	a3,366
	addi	a2,a2,%lo(.LC3)
	li	a1,0
	jalr	a7
.LVL92:
	.loc 1 366 94 is_stmt 1
	.loc 1 367 5
	.loc 1 368 1 is_stmt 0
	lw	ra,12(sp)
	.cfi_restore 1
	li	a0,0
	addi	sp,sp,16
	.cfi_def_cfa_offset 0
	jr	ra
	.cfi_endproc
.LFE74:
	.size	bl_main_apm_sta_cnt_get, .-bl_main_apm_sta_cnt_get
	.section	.text.bl_main_apm_sta_info_get,"ax",@progbits
	.align	1
	.globl	bl_main_apm_sta_info_get
	.type	bl_main_apm_sta_info_get, @function
bl_main_apm_sta_info_get:
.LFB75:
	.loc 1 371 1 is_stmt 1
	.cfi_startproc
.LVL93:
	.loc 1 372 5
	.loc 1 373 5
	.loc 1 375 5
	.loc 1 376 5
	.loc 1 376 17 is_stmt 0
	li	a4,24
	mul	a4,a1,a4
	lui	a3,%hi(wifi_hw)
	addi	a3,a3,%lo(wifi_hw)
	add	a5,a3,a4
	.loc 1 376 8
	lbu	a2,266(a5)
	beq	a2,zero,.L51
	.loc 1 380 5 is_stmt 1
	.loc 1 371 1 is_stmt 0
	addi	sp,sp,-16
	.cfi_def_cfa_offset 16
	sw	ra,12(sp)
	.cfi_offset 1, -4
	.loc 1 380 32
	lbu	a2,267(a5)
	.loc 1 386 48
	addi	a4,a4,260
	.loc 1 386 5
	add	a1,a3,a4
.LVL94:
	.loc 1 380 27
	sb	a2,0(a0)
	.loc 1 381 5 is_stmt 1
	.loc 1 381 32 is_stmt 0
	lbu	a2,266(a5)
	.loc 1 381 27
	sb	a2,1(a0)
	.loc 1 382 5 is_stmt 1
	.loc 1 382 29 is_stmt 0
	lb	a2,271(a5)
	sw	a2,16(a0)
	.loc 1 383 5 is_stmt 1
	.loc 1 383 30 is_stmt 0
	lw	a2,276(a5)
	.loc 1 383 25
	sw	a2,12(a0)
	.loc 1 384 5 is_stmt 1
	.loc 1 384 30 is_stmt 0
	lw	a2,280(a5)
	.loc 1 384 25
	sw	a2,8(a0)
	.loc 1 385 5 is_stmt 1
	.loc 1 385 34 is_stmt 0
	lbu	a5,272(a5)
	.loc 1 386 5
	li	a2,6
	addi	a0,a0,2
.LVL95:
	.loc 1 385 29
	sb	a5,18(a0)
	.loc 1 386 5 is_stmt 1
	call	memcpy
.LVL96:
	.loc 1 388 5
	.loc 1 389 1 is_stmt 0
	lw	ra,12(sp)
	.cfi_restore 1
	li	a0,0
	addi	sp,sp,16
	.cfi_def_cfa_offset 0
	jr	ra
.LVL97:
.L51:
	li	a0,0
.LVL98:
	ret
	.cfi_endproc
.LFE75:
	.size	bl_main_apm_sta_info_get, .-bl_main_apm_sta_info_get
	.section	.rodata.bl_main_apm_sta_delete.str1.4,"aMS",@progbits,1
	.align	2
.LC20:
	.string	"[WF] APM_STA_DEL_REQ: sta_idx = %u, vif_idx = %u\r\n"
	.align	2
.LC21:
	.string	"del sta failure, cfm status = 0x%x\r\n"
	.section	.text.bl_main_apm_sta_delete,"ax",@progbits
	.align	1
	.globl	bl_main_apm_sta_delete
	.type	bl_main_apm_sta_delete, @function
bl_main_apm_sta_delete:
.LFB76:
	.loc 1 392 1 is_stmt 1
	.cfi_startproc
.LVL99:
	.loc 1 393 5
	.loc 1 394 5
	.loc 1 395 5
	.loc 1 396 5
	.loc 1 398 5
	.loc 1 392 1 is_stmt 0
	addi	sp,sp,-64
	.cfi_def_cfa_offset 64
	sw	s1,52(sp)
	.cfi_offset 9, -12
	.loc 1 398 9
	li	s1,24
	.loc 1 392 1
	sw	s2,48(sp)
	.cfi_offset 18, -16
	.loc 1 398 9
	mul	s2,a0,s1
	.loc 1 392 1
	sw	s4,40(sp)
	.cfi_offset 20, -24
	.loc 1 398 9
	lui	s4,%hi(wifi_hw)
	.loc 1 392 1
	sw	s0,56(sp)
	sw	s3,44(sp)
	.cfi_offset 8, -8
	.cfi_offset 19, -20
	mv	s0,a0
	.loc 1 398 9
	addi	s1,s4,%lo(wifi_hw)
	.loc 1 402 5
	li	a2,3
	li	a1,0
	addi	a0,sp,28
.LVL100:
	.loc 1 398 9
	addi	s3,s2,260
	.loc 1 392 1
	sw	ra,60(sp)
	.cfi_offset 1, -4
	.loc 1 398 9
	add	s3,s3,s1
.LVL101:
	.loc 1 399 5 is_stmt 1
	.loc 1 402 5
	call	memset
.LVL102:
	.loc 1 403 5
	.loc 1 403 13 is_stmt 0
	add	s1,s1,s2
	lbu	a3,268(s1)
.LVL103:
	.loc 1 404 5 is_stmt 1
	.loc 1 404 19 is_stmt 0
	lui	s1,%hi(g_bl_ops_funcs)
	addi	s1,s1,%lo(g_bl_ops_funcs)
	.loc 1 404 5
	lw	a5,4(s1)
	lui	a0,%hi(.LC20)
	mv	a2,a3
	mv	a1,s0
	addi	a0,a0,%lo(.LC20)
	sw	a3,12(sp)
	jalr	a5
.LVL104:
	.loc 1 406 5 is_stmt 1
	lw	a3,12(sp)
	mv	a2,s0
	addi	a1,sp,28
	addi	a0,s4,%lo(wifi_hw)
	call	bl_send_apm_sta_del_req
.LVL105:
	.loc 1 407 5
	.loc 1 407 20 is_stmt 0
	lbu	a5,28(sp)
	.loc 1 407 8
	beq	a5,zero,.L55
	.loc 1 408 9 is_stmt 1
	lw	a6,204(s1)
	lui	a4,%hi(.LC21)
	lui	a2,%hi(.LC3)
	li	a0,2
	addi	a4,a4,%lo(.LC21)
	li	a3,408
	addi	a2,a2,%lo(.LC3)
	li	a1,0
	jalr	a6
.LVL106:
	.loc 1 408 90
	.loc 1 409 9
	.loc 1 409 16 is_stmt 0
	li	a0,-1
.L54:
	.loc 1 414 1
	lw	ra,60(sp)
	.cfi_remember_state
	.cfi_restore 1
	lw	s0,56(sp)
	.cfi_restore 8
	lw	s1,52(sp)
	.cfi_restore 9
	lw	s2,48(sp)
	.cfi_restore 18
	lw	s3,44(sp)
	.cfi_restore 19
.LVL107:
	lw	s4,40(sp)
	.cfi_restore 20
	addi	sp,sp,64
	.cfi_def_cfa_offset 0
.LVL108:
	jr	ra
.LVL109:
.L55:
	.cfi_restore_state
	.loc 1 412 5 is_stmt 1
	li	a2,24
	li	a1,0
	mv	a0,s3
	call	memset
.LVL110:
	.loc 1 413 5
	.loc 1 413 12 is_stmt 0
	li	a0,0
	j	.L54
	.cfi_endproc
.LFE76:
	.size	bl_main_apm_sta_delete, .-bl_main_apm_sta_delete
	.section	.rodata.bl_main_apm_remove_all_sta.str1.4,"aMS",@progbits,1
	.align	2
.LC22:
	.string	"del sta[%u]\r\n"
	.section	.text.bl_main_apm_remove_all_sta,"ax",@progbits
	.align	1
	.globl	bl_main_apm_remove_all_sta
	.type	bl_main_apm_remove_all_sta, @function
bl_main_apm_remove_all_sta:
.LFB77:
	.loc 1 417 1 is_stmt 1
	.cfi_startproc
	.loc 1 418 5
.LVL111:
	.loc 1 419 5
	.loc 1 420 5
	.loc 1 421 5
	.loc 1 423 5
	.loc 1 423 17
	.loc 1 417 1 is_stmt 0
	addi	sp,sp,-48
	.cfi_def_cfa_offset 48
	sw	s1,36(sp)
	sw	s2,32(sp)
	.cfi_offset 9, -12
	.cfi_offset 18, -16
	lui	s1,%hi(wifi_hw)
	.loc 1 426 27
	lui	s2,%hi(g_bl_ops_funcs)
	.loc 1 417 1
	sw	s0,40(sp)
	sw	s3,28(sp)
	sw	s4,24(sp)
	sw	s5,20(sp)
	sw	s6,16(sp)
	sw	ra,44(sp)
	sw	s7,12(sp)
	.cfi_offset 8, -8
	.cfi_offset 19, -20
	.cfi_offset 20, -24
	.cfi_offset 21, -28
	.cfi_offset 22, -32
	.cfi_offset 1, -4
	.cfi_offset 23, -36
	addi	s1,s1,%lo(wifi_hw)
	.loc 1 417 1
	li	s0,0
	.loc 1 425 12
	li	s4,1
	.loc 1 426 27
	addi	s2,s2,%lo(g_bl_ops_funcs)
	.loc 1 426 13
	lui	s5,%hi(.LC22)
	lui	s6,%hi(.LC3)
	.loc 1 423 5
	li	s3,7
.LVL112:
.L60:
	.loc 1 425 12
	lbu	a5,266(s1)
	andi	s7,s0,0xff
.LVL113:
	.loc 1 424 9 is_stmt 1
	.loc 1 425 9
	.loc 1 425 12 is_stmt 0
	bne	a5,s4,.L59
	.loc 1 426 13 is_stmt 1
	lw	a6,204(s2)
	li	a0,2
	mv	a5,s0
	addi	a4,s5,%lo(.LC22)
	li	a3,426
	addi	a2,s6,%lo(.LC3)
	li	a1,0
	jalr	a6
.LVL114:
	.loc 1 426 54
	.loc 1 427 13
	mv	a0,s7
	call	bl_main_apm_sta_delete
.LVL115:
.L59:
	.loc 1 423 36 discriminator 2
	.loc 1 423 17 discriminator 2
	.loc 1 423 5 is_stmt 0 discriminator 2
	addi	s0,s0,1
.LVL116:
	addi	s1,s1,24
	bne	s0,s3,.L60
	.loc 1 430 5 is_stmt 1
	.loc 1 431 1 is_stmt 0
	lw	ra,44(sp)
	.cfi_restore 1
	lw	s0,40(sp)
	.cfi_restore 8
.LVL117:
	lw	s1,36(sp)
	.cfi_restore 9
	lw	s2,32(sp)
	.cfi_restore 18
	lw	s3,28(sp)
	.cfi_restore 19
	lw	s4,24(sp)
	.cfi_restore 20
	lw	s5,20(sp)
	.cfi_restore 21
	lw	s6,16(sp)
	.cfi_restore 22
	lw	s7,12(sp)
	.cfi_restore 23
.LVL118:
	li	a0,0
	addi	sp,sp,48
	.cfi_def_cfa_offset 0
	jr	ra
	.cfi_endproc
.LFE77:
	.size	bl_main_apm_remove_all_sta, .-bl_main_apm_remove_all_sta
	.section	.text.bl_main_conf_max_sta,"ax",@progbits
	.align	1
	.globl	bl_main_conf_max_sta
	.type	bl_main_conf_max_sta, @function
bl_main_conf_max_sta:
.LFB78:
	.loc 1 434 1 is_stmt 1
	.cfi_startproc
.LVL119:
	.loc 1 435 5
	.loc 1 434 1 is_stmt 0
	mv	a1,a0
	.loc 1 435 12
	lui	a0,%hi(wifi_hw)
.LVL120:
	addi	a0,a0,%lo(wifi_hw)
	tail	bl_send_apm_conf_max_sta_req
.LVL121:
	.cfi_endproc
.LFE78:
	.size	bl_main_conf_max_sta, .-bl_main_conf_max_sta
	.section	.text.bl_main_cfg_task_req,"ax",@progbits
	.align	1
	.globl	bl_main_cfg_task_req
	.type	bl_main_cfg_task_req, @function
bl_main_cfg_task_req:
.LFB79:
	.loc 1 439 1 is_stmt 1
	.cfi_startproc
.LVL122:
	.loc 1 440 5
	.loc 1 440 12 is_stmt 0
	mv	a6,a5
	mv	a5,a4
.LVL123:
	mv	a4,a3
.LVL124:
	mv	a3,a2
.LVL125:
	mv	a2,a1
.LVL126:
	mv	a1,a0
.LVL127:
	lui	a0,%hi(wifi_hw)
.LVL128:
	addi	a0,a0,%lo(wifi_hw)
	tail	bl_send_cfg_task_req
.LVL129:
	.cfi_endproc
.LFE79:
	.size	bl_main_cfg_task_req, .-bl_main_cfg_task_req
	.section	.rodata.bl_main_scan.str1.4,"aMS",@progbits,1
	.align	2
.LC23:
	.string	"---->unvalid channel"
	.section	.text.bl_main_scan,"ax",@progbits
	.align	1
	.globl	bl_main_scan
	.type	bl_main_scan, @function
bl_main_scan:
.LFB80:
	.loc 1 444 1 is_stmt 1
	.cfi_startproc
.LVL130:
	.loc 1 445 5
	.loc 1 444 1 is_stmt 0
	addi	sp,sp,-48
	.cfi_def_cfa_offset 48
	sw	s2,32(sp)
	sw	s3,28(sp)
	sw	ra,44(sp)
	sw	s0,40(sp)
	sw	s1,36(sp)
	sw	s4,24(sp)
	.cfi_offset 18, -16
	.cfi_offset 19, -20
	.cfi_offset 1, -4
	.cfi_offset 8, -8
	.cfi_offset 9, -12
	.cfi_offset 20, -24
	.loc 1 444 1
	mv	s2,a0
	mv	s3,a4
	mv	a6,a5
	.loc 1 445 8
	bne	a2,zero,.L66
	.loc 1 446 9 is_stmt 1
	mv	a5,a4
.LVL131:
	li	a1,0
.LVL132:
	addi	a4,a0,58
.LVL133:
.L70:
	.loc 1 449 13 is_stmt 0
	lui	a0,%hi(wifi_hw)
	addi	a0,a0,%lo(wifi_hw)
	call	bl_send_scanu_req
.LVL134:
.L67:
	.loc 1 454 5 is_stmt 1
	.loc 1 455 1 is_stmt 0
	lw	ra,44(sp)
	.cfi_remember_state
	.cfi_restore 1
	lw	s0,40(sp)
	.cfi_restore 8
	lw	s1,36(sp)
	.cfi_restore 9
	lw	s2,32(sp)
	.cfi_restore 18
.LVL135:
	lw	s3,28(sp)
	.cfi_restore 19
	lw	s4,24(sp)
	.cfi_restore 20
	li	a0,0
	addi	sp,sp,48
	.cfi_def_cfa_offset 0
	jr	ra
.LVL136:
.L66:
	.cfi_restore_state
	mv	s1,a1
	.loc 1 448 13
	mv	a0,s1
.LVL137:
	mv	a1,a2
.LVL138:
	mv	s0,a2
	mv	s4,a3
	sw	a5,12(sp)
	.loc 1 448 9 is_stmt 1
	.loc 1 448 13 is_stmt 0
	call	bl_get_fixed_channels_is_valid
.LVL139:
	.loc 1 448 12
	lw	a6,12(sp)
	beq	a0,zero,.L68
	.loc 1 449 13 is_stmt 1
	mv	a5,s3
	addi	a4,s2,58
	mv	a3,s4
	mv	a2,s0
	mv	a1,s1
	j	.L70
.L68:
	.loc 1 451 13
	.loc 1 451 27 is_stmt 0
	lui	a5,%hi(g_bl_ops_funcs+4)
	.loc 1 451 13
	lw	a5,%lo(g_bl_ops_funcs+4)(a5)
	lui	a0,%hi(.LC23)
	addi	a0,a0,%lo(.LC23)
	jalr	a5
.LVL140:
	j	.L67
	.cfi_endproc
.LFE80:
	.size	bl_main_scan, .-bl_main_scan
	.section	.text.bl_main_connect_abort,"ax",@progbits
	.align	1
	.globl	bl_main_connect_abort
	.type	bl_main_connect_abort, @function
bl_main_connect_abort:
.LFB81:
	.loc 1 458 1 is_stmt 1
	.cfi_startproc
.LVL141:
	.loc 1 459 5
	.loc 1 458 1 is_stmt 0
	addi	sp,sp,-32
	.cfi_def_cfa_offset 32
	sw	s0,24(sp)
	.cfi_offset 8, -8
	mv	s0,a0
	.loc 1 460 5
	lui	a0,%hi(wifi_hw)
.LVL142:
	addi	a1,sp,12
	addi	a0,a0,%lo(wifi_hw)
	.loc 1 458 1
	sw	ra,28(sp)
	.cfi_offset 1, -4
	.loc 1 459 33
	sb	zero,12(sp)
	.loc 1 460 5 is_stmt 1
	call	bl_send_sm_connect_abort_req
.LVL143:
	.loc 1 461 5
	.loc 1 461 13 is_stmt 0
	lbu	a5,12(sp)
	.loc 1 463 1
	lw	ra,28(sp)
	.cfi_restore 1
	li	a0,0
	.loc 1 461 13
	sb	a5,0(s0)
	.loc 1 462 5 is_stmt 1
	.loc 1 463 1 is_stmt 0
	lw	s0,24(sp)
	.cfi_restore 8
.LVL144:
	addi	sp,sp,32
	.cfi_def_cfa_offset 0
	jr	ra
	.cfi_endproc
.LFE81:
	.size	bl_main_connect_abort, .-bl_main_connect_abort
	.section	.text.bl_cfg80211_connect,"ax",@progbits
	.align	1
	.globl	bl_cfg80211_connect
	.type	bl_cfg80211_connect, @function
bl_cfg80211_connect:
.LFB83:
	.loc 1 516 1 is_stmt 1
	.cfi_startproc
.LVL145:
	.loc 1 517 5
	.loc 1 518 5
	.loc 1 520 5
	.loc 1 520 9
	.loc 1 520 17
	.loc 1 523 5
	.loc 1 516 1 is_stmt 0
	addi	sp,sp,-32
	.cfi_def_cfa_offset 32
	.loc 1 523 13
	addi	a2,sp,12
	.loc 1 516 1
	sw	ra,28(sp)
	.cfi_offset 1, -4
	.loc 1 523 13
	call	bl_send_sm_connect_req
.LVL146:
	.loc 1 524 5 is_stmt 1
	.loc 1 524 8 is_stmt 0
	bne	a0,zero,.L73
	.loc 1 529 5 is_stmt 1
	.loc 1 529 27 is_stmt 0
	lbu	a4,12(sp)
	li	a5,9
	li	a0,-5
.LVL147:
	bgtu	a4,a5,.L73
	lui	a5,%hi(.LANCHOR1)
	addi	a5,a5,%lo(.LANCHOR1)
	add	a5,a5,a4
	lb	a0,0(a5)
.L73:
	.loc 1 547 1
	lw	ra,28(sp)
	.cfi_restore 1
	addi	sp,sp,32
	.cfi_def_cfa_offset 0
	jr	ra
	.cfi_endproc
.LFE83:
	.size	bl_cfg80211_connect, .-bl_cfg80211_connect
	.section	.text.bl_main_connect,"ax",@progbits
	.align	1
	.globl	bl_main_connect
	.type	bl_main_connect, @function
bl_main_connect:
.LFB57:
	.loc 1 161 1 is_stmt 1
	.cfi_startproc
.LVL148:
	.loc 1 162 5
	.loc 1 164 5
	.loc 1 161 1 is_stmt 0
	addi	sp,sp,-304
	.cfi_def_cfa_offset 304
	sw	s5,276(sp)
	sw	s6,272(sp)
	sw	s7,268(sp)
	.cfi_offset 21, -28
	.cfi_offset 22, -32
	.cfi_offset 23, -36
	mv	s6,a0
	mv	s7,a1
	mv	s5,a2
	.loc 1 164 5
	li	a1,0
.LVL149:
	li	a2,256
.LVL150:
	mv	a0,sp
.LVL151:
	.loc 1 161 1
	sw	s0,296(sp)
	sw	s1,292(sp)
	sw	s2,288(sp)
	sw	s3,284(sp)
	.cfi_offset 8, -8
	.cfi_offset 9, -12
	.cfi_offset 18, -16
	.cfi_offset 19, -20
	mv	s2,a5
	sw	s4,280(sp)
	sw	s8,264(sp)
	.cfi_offset 20, -24
	.cfi_offset 24, -40
	mv	s4,a3
	mv	s3,a4
	lhu	s8,304(sp)
	sw	ra,300(sp)
	.cfi_offset 1, -4
	.loc 1 161 1
	mv	s0,a6
	mv	s1,a7
	.loc 1 164 5
	call	memset
.LVL152:
	.loc 1 165 5 is_stmt 1
	.loc 1 168 19 is_stmt 0
	li	a5,8
	sw	a5,72(sp)
	.loc 1 173 15
	lw	a5,308(sp)
	.loc 1 165 35
	sw	zero,100(sp)
	.loc 1 166 5 is_stmt 1
	.loc 1 166 18 is_stmt 0
	sw	s7,68(sp)
	.loc 1 167 5 is_stmt 1
	.loc 1 167 14 is_stmt 0
	sw	s6,64(sp)
	.loc 1 168 5 is_stmt 1
	.loc 1 169 5
	.loc 1 169 13 is_stmt 0
	sw	s5,152(sp)
	.loc 1 170 5 is_stmt 1
	.loc 1 170 17 is_stmt 0
	sb	s4,160(sp)
	.loc 1 171 5 is_stmt 1
	.loc 1 171 13 is_stmt 0
	sw	s3,156(sp)
	.loc 1 172 5 is_stmt 1
	.loc 1 172 17 is_stmt 0
	sb	s2,161(sp)
	.loc 1 173 5 is_stmt 1
	.loc 1 173 15 is_stmt 0
	sw	a5,164(sp)
	.loc 1 175 5 is_stmt 1
	.loc 1 175 8 is_stmt 0
	beq	s0,zero,.L78
	.loc 1 176 9 is_stmt 1
	.loc 1 176 19 is_stmt 0
	sw	s0,56(sp)
.L78:
	.loc 1 179 5 is_stmt 1
	.loc 1 179 8 is_stmt 0
	beq	s8,zero,.L79
	.loc 1 180 9 is_stmt 1
	.loc 1 180 33 is_stmt 0
	sh	s8,4(sp)
	.loc 1 181 9 is_stmt 1
	.loc 1 181 26 is_stmt 0
	sw	s1,0(sp)
	.loc 1 182 9 is_stmt 1
	.loc 1 182 27 is_stmt 0
	sw	zero,8(sp)
.L79:
	.loc 1 185 5 is_stmt 1
	lui	a0,%hi(wifi_hw)
	mv	a1,sp
	addi	a0,a0,%lo(wifi_hw)
	call	bl_cfg80211_connect
.LVL153:
	.loc 1 187 5
	.loc 1 188 1 is_stmt 0
	lw	ra,300(sp)
	.cfi_restore 1
	lw	s0,296(sp)
	.cfi_restore 8
.LVL154:
	lw	s1,292(sp)
	.cfi_restore 9
	lw	s2,288(sp)
	.cfi_restore 18
.LVL155:
	lw	s3,284(sp)
	.cfi_restore 19
.LVL156:
	lw	s4,280(sp)
	.cfi_restore 20
.LVL157:
	lw	s5,276(sp)
	.cfi_restore 21
.LVL158:
	lw	s6,272(sp)
	.cfi_restore 22
.LVL159:
	lw	s7,268(sp)
	.cfi_restore 23
.LVL160:
	lw	s8,264(sp)
	.cfi_restore 24
	li	a0,0
	addi	sp,sp,304
	.cfi_def_cfa_offset 0
.LVL161:
	jr	ra
	.cfi_endproc
.LFE57:
	.size	bl_main_connect, .-bl_main_connect
	.section	.text.bl_cfg80211_disconnect,"ax",@progbits
	.align	1
	.globl	bl_cfg80211_disconnect
	.type	bl_cfg80211_disconnect, @function
bl_cfg80211_disconnect:
.LFB84:
	.loc 1 550 1 is_stmt 1
	.cfi_startproc
.LVL162:
	.loc 1 551 5
	.loc 1 551 9
	.loc 1 551 17
	.loc 1 553 5
	.loc 1 553 12 is_stmt 0
	tail	bl_send_sm_disconnect_req
.LVL163:
	.cfi_endproc
.LFE84:
	.size	bl_cfg80211_disconnect, .-bl_cfg80211_disconnect
	.section	.text.bl_main_event_handle,"ax",@progbits
	.align	1
	.globl	bl_main_event_handle
	.type	bl_main_event_handle, @function
bl_main_event_handle:
.LFB85:
	.loc 1 557 1 is_stmt 1
	.cfi_startproc
	.loc 1 558 5
	lui	a0,%hi(wifi_hw)
	.loc 1 557 1 is_stmt 0
	addi	sp,sp,-16
	.cfi_def_cfa_offset 16
	.loc 1 558 5
	addi	a0,a0,%lo(wifi_hw)
	.loc 1 557 1
	sw	ra,12(sp)
	.cfi_offset 1, -4
	.loc 1 558 5
	call	bl_irq_bottomhalf
.LVL164:
	.loc 1 559 5 is_stmt 1
	.loc 1 560 1 is_stmt 0
	lw	ra,12(sp)
	.cfi_restore 1
	addi	sp,sp,16
	.cfi_def_cfa_offset 0
	.loc 1 559 5
	tail	bl_tx_try_flush
.LVL165:
	.cfi_endproc
.LFE85:
	.size	bl_main_event_handle, .-bl_main_event_handle
	.section	.text.bl_main_lowlevel_init,"ax",@progbits
	.align	1
	.globl	bl_main_lowlevel_init
	.type	bl_main_lowlevel_init, @function
bl_main_lowlevel_init:
.LFB86:
	.loc 1 563 1 is_stmt 1
	.cfi_startproc
	.loc 1 565 5
	lui	a0,%hi(wifi_hw)
	addi	a0,a0,%lo(wifi_hw)
	tail	bl_irqs_init
.LVL166:
	.cfi_endproc
.LFE86:
	.size	bl_main_lowlevel_init, .-bl_main_lowlevel_init
	.section	.text.bl_main_tx_still_free,"ax",@progbits
	.align	1
	.globl	bl_main_tx_still_free
	.type	bl_main_tx_still_free, @function
bl_main_tx_still_free:
.LFB87:
	.loc 1 570 1
	.cfi_startproc
	.loc 1 571 5
	.loc 1 571 12 is_stmt 0
	lui	a5,%hi(wifi_hw+52)
	lw	a0,%lo(wifi_hw+52)(a5)
	li	a2,0
	li	a1,0
	tail	ipc_host_txdesc_left
.LVL167:
	.cfi_endproc
.LFE87:
	.size	bl_main_tx_still_free, .-bl_main_tx_still_free
	.section	.rodata.bl_main_rtthread_start.str1.4,"aMS",@progbits,1
	.align	2
.LC24:
	.string	"bl_platform_on Error\r\n"
	.align	2
.LC25:
	.string	"bl_send_reset Error\r\n"
	.align	2
.LC26:
	.string	"[version] lmac %u.%u.%u.%u\r\n"
	.align	2
.LC27:
	.string	"[version] version_machw_1 %08X\r\n"
	.align	2
.LC28:
	.string	"[version] version_machw_2 %08X\r\n"
	.align	2
.LC29:
	.string	"[version] version_phy_1 %08X\r\n"
	.align	2
.LC30:
	.string	"[version] version_phy_2 %08X\r\n"
	.align	2
.LC31:
	.string	"[version] features %08X\r\n"
	.align	2
.LC32:
	.string	"bl_handle_dynparams Error\r\n"
	.section	.text.bl_main_rtthread_start,"ax",@progbits
	.align	1
	.globl	bl_main_rtthread_start
	.type	bl_main_rtthread_start, @function
bl_main_rtthread_start:
.LFB88:
	.loc 1 575 1 is_stmt 1
	.cfi_startproc
.LVL168:
	.loc 1 576 5
	.loc 1 579 5
	.loc 1 575 1 is_stmt 0
	addi	sp,sp,-48
	.cfi_def_cfa_offset 48
	sw	s1,36(sp)
	.cfi_offset 9, -12
	.loc 1 582 12
	lui	s1,%hi(wifi_hw)
	.loc 1 575 1
	sw	ra,44(sp)
	sw	s0,40(sp)
	sw	s2,32(sp)
	.cfi_offset 1, -4
	.cfi_offset 8, -8
	.cfi_offset 18, -16
	.loc 1 575 1
	mv	s0,a0
	.loc 1 582 12
	addi	s2,s1,%lo(wifi_hw)
	.loc 1 579 5
	call	bl_main_lowlevel_init
.LVL169:
	.loc 1 582 5 is_stmt 1
.LBB8:
.LBB9:
	.loc 1 468 27 is_stmt 0
	li	a2,24
.LBE9:
.LBE8:
	.loc 1 582 12
	sw	s2,0(s0)
	.loc 1 583 5 is_stmt 1
.LVL170:
.LBB14:
.LBB12:
	.loc 1 467 5
	.loc 1 468 5
	.loc 1 468 27 is_stmt 0
	li	a1,0
	addi	a0,sp,8
	call	memset
.LVL171:
	.loc 1 470 5 is_stmt 1
	.loc 1 470 9
	.loc 1 470 17
	.loc 1 472 5
	.loc 1 472 10
	.loc 1 472 31 is_stmt 0
	lui	a5,%hi(wifi_hw+56)
	addi	a5,a5,%lo(wifi_hw+56)
	sw	a5,56(s2)
	.loc 1 472 49 is_stmt 1
	.loc 1 472 70 is_stmt 0
	sw	a5,60(s2)
	.loc 1 472 96 is_stmt 1
	.loc 1 474 5
	.loc 1 474 23 is_stmt 0
	lui	a5,%hi(bl_mod_params)
	addi	a5,a5,%lo(bl_mod_params)
	.loc 1 476 11
	addi	a0,s1,%lo(wifi_hw)
	.loc 1 474 23
	sw	a5,432(s2)
	.loc 1 476 5 is_stmt 1
	lui	s0,%hi(g_bl_ops_funcs)
.LVL172:
	.loc 1 476 11 is_stmt 0
	call	bl_platform_on
.LVL173:
	.loc 1 477 5 is_stmt 1
	addi	s0,s0,%lo(g_bl_ops_funcs)
	.loc 1 477 8 is_stmt 0
	beq	a0,zero,.L93
	.loc 1 478 9 is_stmt 1
	lw	a5,4(s0)
	lui	a0,%hi(.LC24)
.LVL174:
	addi	a0,a0,%lo(.LC24)
.L98:
	.loc 1 488 9 is_stmt 0
	jalr	a5
.LVL175:
	.loc 1 489 9 is_stmt 1
.L94:
	.loc 1 511 5
	.loc 1 511 9
	.loc 1 511 17
	.loc 1 512 5
.LBE12:
.LBE14:
	.loc 1 585 5
	.loc 1 156 5
	.loc 1 586 5
	.loc 1 587 1 is_stmt 0
	lw	ra,44(sp)
	.cfi_remember_state
	.cfi_restore 1
	lw	s0,40(sp)
	.cfi_restore 8
	lw	s1,36(sp)
	.cfi_restore 9
	lw	s2,32(sp)
	.cfi_restore 18
	li	a0,0
	addi	sp,sp,48
	.cfi_def_cfa_offset 0
	jr	ra
.LVL176:
.L93:
	.cfi_restore_state
.LBB15:
.LBB13:
	.loc 1 482 5 is_stmt 1
	lw	a0,52(s2)
.LVL177:
	li	a1,2047
	call	ipc_host_enable_irq
.LVL178:
	.loc 1 483 5
	call	bl_wifi_enable_irq
.LVL179:
	.loc 1 486 5
	.loc 1 486 11 is_stmt 0
	addi	a0,s1,%lo(wifi_hw)
	call	bl_send_reset
.LVL180:
	.loc 1 487 5 is_stmt 1
	.loc 1 487 8 is_stmt 0
	beq	a0,zero,.L95
	.loc 1 488 9 is_stmt 1
	lui	a0,%hi(.LC25)
.LVL181:
	lw	a5,4(s0)
	addi	a0,a0,%lo(.LC25)
	j	.L98
.LVL182:
.L95:
	.loc 1 491 5
	lw	a5,28(s0)
	li	a0,5
.LVL183:
	jalr	a5
.LVL184:
	.loc 1 492 5
	.loc 1 492 11 is_stmt 0
	addi	a1,sp,8
	addi	a0,s1,%lo(wifi_hw)
	call	bl_send_version_req
.LVL185:
	.loc 1 493 5 is_stmt 1
	.loc 1 493 8 is_stmt 0
	bne	a0,zero,.L94
	.loc 1 496 5 is_stmt 1
.LVL186:
.LBB10:
.LBB11:
	.loc 1 31 5
	.loc 1 31 9 is_stmt 0
	lw	a1,8(sp)
.LVL187:
	.loc 1 33 5 is_stmt 1
	.loc 1 34 5
	.loc 1 34 9
	.loc 1 34 17
	.loc 1 36 5
	lw	a5,4(s0)
	lui	a0,%hi(.LC26)
.LVL188:
	.loc 1 36 157 is_stmt 0
	srli	a3,a1,8
	.loc 1 36 120
	srli	a2,a1,16
	.loc 1 36 5
	andi	a4,a1,0xff
	andi	a3,a3,0xff
	andi	a2,a2,0xff
	srli	a1,a1,24
.LVL189:
	addi	a0,a0,%lo(.LC26)
	jalr	a5
.LVL190:
	.loc 1 42 5 is_stmt 1
	lw	a5,4(s0)
	lw	a1,12(sp)
	lui	a0,%hi(.LC27)
	addi	a0,a0,%lo(.LC27)
	jalr	a5
.LVL191:
	.loc 1 43 5
	lw	a5,4(s0)
	lw	a1,16(sp)
	lui	a0,%hi(.LC28)
	addi	a0,a0,%lo(.LC28)
	jalr	a5
.LVL192:
	.loc 1 44 5
	lw	a5,4(s0)
	lw	a1,20(sp)
	lui	a0,%hi(.LC29)
	addi	a0,a0,%lo(.LC29)
	jalr	a5
.LVL193:
	.loc 1 45 5
	lw	a5,4(s0)
	lw	a1,24(sp)
	lui	a0,%hi(.LC30)
	addi	a0,a0,%lo(.LC30)
	jalr	a5
.LVL194:
	.loc 1 46 5
	lw	a5,4(s0)
	lw	a1,28(sp)
	lui	a0,%hi(.LC31)
	addi	a0,a0,%lo(.LC31)
	jalr	a5
.LVL195:
	.loc 1 48 5
	.loc 1 48 9
	.loc 1 48 17
.LBE11:
.LBE10:
	.loc 1 497 5
	.loc 1 497 11 is_stmt 0
	addi	a0,s1,%lo(wifi_hw)
	call	bl_handle_dynparams
.LVL196:
	.loc 1 498 5 is_stmt 1
	.loc 1 498 8 is_stmt 0
	beq	a0,zero,.L96
	.loc 1 499 9 is_stmt 1
	lui	a0,%hi(.LC32)
.LVL197:
	lw	a5,4(s0)
	addi	a0,a0,%lo(.LC32)
	j	.L98
.LVL198:
.L96:
	.loc 1 504 5
	addi	a0,s1,%lo(wifi_hw)
.LVL199:
	call	bl_send_me_config_req
.LVL200:
	.loc 1 507 5
	addi	a0,s1,%lo(wifi_hw)
	call	bl_send_me_chan_config_req
.LVL201:
	j	.L94
.LBE13:
.LBE15:
	.cfi_endproc
.LFE88:
	.size	bl_main_rtthread_start, .-bl_main_rtthread_start
	.comm	wifi_hw,476,4
	.comm	cfg_start_req_u_tlv_t,12,4
	.section	.rodata.CSWTCH.34,"a"
	.align	2
	.set	.LANCHOR1,. + 0
	.type	CSWTCH.34, @object
	.size	CSWTCH.34, 10
CSWTCH.34:
	.byte	0
	.byte	-5
	.byte	-5
	.byte	-5
	.byte	-5
	.byte	-5
	.byte	-5
	.byte	-5
	.byte	-115
	.byte	-114
	.section	.rodata.__func__.0,"a"
	.align	2
	.set	.LANCHOR0,. + 0
	.type	__func__.0, @object
	.size	__func__.0, 25
__func__.0:
	.string	"bl_main_set_country_code"
	.text
.Letext0:
	.file 2 "/mnt/d/GitHub/bl_iot_sdk_for_aithinker/toolchain/riscv/Linux/riscv64-unknown-elf/include/machine/_default_types.h"
	.file 3 "/mnt/d/GitHub/bl_iot_sdk_for_aithinker/toolchain/riscv/Linux/lib/gcc/riscv64-unknown-elf/10.2.0/include/stddef.h"
	.file 4 "/mnt/d/GitHub/bl_iot_sdk_for_aithinker/toolchain/riscv/Linux/riscv64-unknown-elf/include/sys/_stdint.h"
	.file 5 "/mnt/d/GitHub/bl_iot_sdk_for_aithinker/components/network/lwip/src/include/lwip/arch.h"
	.file 6 "/mnt/d/GitHub/bl_iot_sdk_for_aithinker/components/network/lwip/src/include/lwip/err.h"
	.file 7 "/mnt/d/GitHub/bl_iot_sdk_for_aithinker/components/network/lwip/src/include/lwip/pbuf.h"
	.file 8 "/mnt/d/GitHub/bl_iot_sdk_for_aithinker/components/network/lwip/src/include/lwip/ip4_addr.h"
	.file 9 "/mnt/d/GitHub/bl_iot_sdk_for_aithinker/components/network/lwip/src/include/lwip/ip_addr.h"
	.file 10 "/mnt/d/GitHub/bl_iot_sdk_for_aithinker/components/network/lwip/src/include/lwip/netif.h"
	.file 11 "/mnt/d/GitHub/bl_iot_sdk_for_aithinker/components/network/wifi_manager/bl60x_wifi_driver/lmac_types.h"
	.file 12 "/mnt/d/GitHub/bl_iot_sdk_for_aithinker/components/network/wifi_manager/bl60x_wifi_driver/lmac_mac.h"
	.file 13 "/mnt/d/GitHub/bl_iot_sdk_for_aithinker/components/network/lwip/src/include/lwip/memp.h"
	.file 14 "/mnt/d/GitHub/bl_iot_sdk_for_aithinker/components/network/wifi_manager/bl60x_wifi_driver/bl_main.h"
	.file 15 "/mnt/d/GitHub/bl_iot_sdk_for_aithinker/components/os/bl_os_adapter/bl_os_adapter/include/bl_os_adapter/bl_os_type.h"
	.file 16 "/mnt/d/GitHub/bl_iot_sdk_for_aithinker/components/os/bl_os_adapter/bl_os_adapter/include/bl_os_adapter/bl_os_adapter.h"
	.file 17 "/mnt/d/GitHub/bl_iot_sdk_for_aithinker/components/os/bl_os_adapter/bl_os_adapter/include/bl_os_adapter/bl_os_log.h"
	.file 18 "/mnt/d/GitHub/bl_iot_sdk_for_aithinker/components/network/wifi/include/bl60x_fw_api.h"
	.file 19 "/mnt/d/GitHub/bl_iot_sdk_for_aithinker/components/network/wifi_manager/bl60x_wifi_driver/ipc_shared.h"
	.file 20 "/mnt/d/GitHub/bl_iot_sdk_for_aithinker/components/network/wifi_manager/bl60x_wifi_driver/ipc_host.h"
	.file 21 "/mnt/d/GitHub/bl_iot_sdk_for_aithinker/components/network/wifi_manager/bl60x_wifi_driver/list.h"
	.file 22 "/mnt/d/GitHub/bl_iot_sdk_for_aithinker/components/network/wifi_manager/bl60x_wifi_driver/lmac_msg.h"
	.file 23 "/mnt/d/GitHub/bl_iot_sdk_for_aithinker/components/network/wifi_manager/bl60x_wifi_driver/bl_cmds.h"
	.file 24 "/mnt/d/GitHub/bl_iot_sdk_for_aithinker/components/network/wifi_manager/bl60x_wifi_driver/bl_defs.h"
	.file 25 "/mnt/d/GitHub/bl_iot_sdk_for_aithinker/components/network/wifi_manager/bl60x_wifi_driver/ieee80211.h"
	.file 26 "/mnt/d/GitHub/bl_iot_sdk_for_aithinker/components/network/wifi_manager/bl60x_wifi_driver/nl80211.h"
	.file 27 "/mnt/d/GitHub/bl_iot_sdk_for_aithinker/components/network/wifi_manager/bl60x_wifi_driver/cfg80211.h"
	.file 28 "/mnt/d/GitHub/bl_iot_sdk_for_aithinker/components/network/wifi_manager/bl60x_wifi_driver/bl_mod_params.h"
	.file 29 "/mnt/d/GitHub/bl_iot_sdk_for_aithinker/components/network/wifi_manager/bl60x_wifi_driver/bl_platform.h"
	.file 30 "/mnt/d/GitHub/bl_iot_sdk_for_aithinker/components/platform/hosal/bl602_hal/bl_wifi.h"
	.file 31 "/mnt/d/GitHub/bl_iot_sdk_for_aithinker/components/network/wifi_manager/bl60x_wifi_driver/bl_msg_tx.h"
	.file 32 "/mnt/d/GitHub/bl_iot_sdk_for_aithinker/components/network/wifi_manager/bl60x_wifi_driver/bl_irqs.h"
	.file 33 "/mnt/d/GitHub/bl_iot_sdk_for_aithinker/components/network/wifi_manager/bl60x_wifi_driver/bl_tx.h"
	.file 34 "/mnt/d/GitHub/bl_iot_sdk_for_aithinker/toolchain/riscv/Linux/riscv64-unknown-elf/include/string.h"
	.file 35 "<built-in>"