	.file	"bl_rx.c"
	.option nopic
	.attribute arch, "rv32i2p0_m2p0_f2p0_c2p0"
	.attribute unaligned_access, 0
	.attribute stack_align, 16
	.text
.Ltext0:
	.cfi_sections	.debug_frame
	.section	.text.bl_comman_ind,"ax",@progbits
	.align	1
	.type	bl_comman_ind, @function
bl_comman_ind:
.LFB50:
	.file 1 "/mnt/d/GitHub/bl_iot_sdk_for_aithinker/components/network/wifi_manager/bl60x_wifi_driver/bl_rx.c"
	.loc 1 256 1
	.cfi_startproc
.LVL0:
	.loc 1 257 5
	.loc 1 257 9
	.loc 1 257 17
	.loc 1 258 5
	.loc 1 258 9
	.loc 1 258 17
	.loc 1 259 5
	.loc 1 260 1 is_stmt 0
	li	a0,0
.LVL1:
	ret
	.cfi_endproc
.LFE50:
	.size	bl_comman_ind, .-bl_comman_ind
	.section	.text.bl_rx_rssi_status_ind,"ax",@progbits
	.align	1
	.type	bl_rx_rssi_status_ind, @function
bl_rx_rssi_status_ind:
.LFB51:
	.loc 1 264 1 is_stmt 1
	.cfi_startproc
.LVL2:
	.loc 1 265 5
	.loc 1 267 5
	.loc 1 267 9
	.loc 1 267 17
	.loc 1 270 5
	.loc 1 270 9 is_stmt 0
	lui	a5,%hi(.LANCHOR0)
	lw	a5,%lo(.LANCHOR0)(a5)
	.loc 1 270 8
	beq	a5,zero,.L8
	.loc 1 271 9 is_stmt 1
	lui	a4,%hi(.LANCHOR1)
	lw	a0,%lo(.LANCHOR1)(a4)
.LVL3:
	lb	a1,18(a2)
.LVL4:
	.loc 1 264 1 is_stmt 0
	addi	sp,sp,-16
	.cfi_def_cfa_offset 16
	sw	ra,12(sp)
	.cfi_offset 1, -4
	.loc 1 271 9
	jalr	a5
.LVL5:
	.loc 1 274 5 is_stmt 1
	.loc 1 274 9
	.loc 1 274 17
	.loc 1 275 5
	.loc 1 276 1 is_stmt 0
	lw	ra,12(sp)
	.cfi_restore 1
	li	a0,0
	addi	sp,sp,16
	.cfi_def_cfa_offset 0
	jr	ra
.LVL6:
.L8:
	.loc 1 274 5 is_stmt 1
	.loc 1 274 9
	.loc 1 274 17
	.loc 1 275 5
	.loc 1 276 1 is_stmt 0
	li	a0,0
.LVL7:
	ret
	.cfi_endproc
.LFE51:
	.size	bl_rx_rssi_status_ind, .-bl_rx_rssi_status_ind
	.section	.rodata.bl_rx_apm_sta_add_ind.str1.4,"aMS",@progbits,1
	.align	2
.LC0:
	.string	"[WF] APM_STA_ADD_IND\r\n"
	.align	2
.LC1:
	.string	"[WF]    flags %08X\r\n"
	.align	2
.LC2:
	.string	"[WF]    MAC %02X:%02X:%02X:%02X:%02X:%02X\r\n"
	.align	2
.LC3:
	.string	"[WF]    tsflo: 0x%lx\r\n"
	.align	2
.LC4:
	.string	"bl_rx.c"
	.align	2
.LC5:
	.string	"[WF]    tsfhi: 0x%lx\r\n"
	.align	2
.LC6:
	.string	"[WF]    rssi: %d\r\n"
	.align	2
.LC7:
	.string	"[WF]    data rate: 0x%x\r\n"
	.align	2
.LC8:
	.string	"[WF]    vif_idx %u\r\n"
	.align	2
.LC9:
	.string	"[WF]    sta_idx %u\r\n"
	.align	2
.LC10:
	.string	"-------------------------Warning: sta_idx already used: %d\r\n"
	.align	2
.LC11:
	.string	"[WF]    ------ Potential illegal sta_idx\r\n"
	.section	.text.bl_rx_apm_sta_add_ind,"ax",@progbits
	.align	1
	.type	bl_rx_apm_sta_add_ind, @function
bl_rx_apm_sta_add_ind:
.LFB65:
	.loc 1 718 1 is_stmt 1
	.cfi_startproc
.LVL8:
	.loc 1 719 5
	.loc 1 718 1 is_stmt 0
	addi	sp,sp,-32
	.cfi_def_cfa_offset 32
	sw	s2,16(sp)
	.cfi_offset 18, -16
	.loc 1 722 19
	lui	s2,%hi(g_bl_ops_funcs)
	addi	s2,s2,%lo(g_bl_ops_funcs)
	.loc 1 722 5
	lw	a5,4(s2)
	.loc 1 718 1
	sw	s1,20(sp)
	.cfi_offset 9, -12
	mv	s1,a0
	.loc 1 722 5
	lui	a0,%hi(.LC0)
.LVL9:
	.loc 1 718 1
	sw	ra,28(sp)
	sw	s0,24(sp)
	sw	s3,12(sp)
	sw	s4,8(sp)
	.cfi_offset 1, -4
	.cfi_offset 8, -8
	.cfi_offset 19, -20
	.cfi_offset 20, -24
	.loc 1 722 5
	addi	a0,a0,%lo(.LC0)
	.loc 1 718 1
	mv	s0,a2
.LVL10:
	.loc 1 720 5 is_stmt 1
	.loc 1 722 5
	jalr	a5
.LVL11:
	.loc 1 723 5
	lw	a5,4(s2)
	lw	a1,16(s0)
	lui	a0,%hi(.LC1)
	addi	a0,a0,%lo(.LC1)
	jalr	a5
.LVL12:
	.loc 1 724 5
	lw	a7,4(s2)
	lbu	a6,25(s0)
	lbu	a5,24(s0)
	lbu	a4,23(s0)
	lbu	a3,22(s0)
	lbu	a2,21(s0)
	lbu	a1,20(s0)
	lui	a0,%hi(.LC2)
	addi	a0,a0,%lo(.LC2)
	jalr	a7
.LVL13:
	.loc 1 732 5
	lw	a6,204(s2)
	lw	a5,32(s0)
	lui	s4,%hi(.LC4)
	lui	a4,%hi(.LC3)
	addi	a4,a4,%lo(.LC3)
	li	a3,732
	addi	a2,s4,%lo(.LC4)
	li	a1,0
	li	a0,2
	jalr	a6
.LVL14:
	.loc 1 732 62
	.loc 1 733 5
	lw	a6,204(s2)
	lw	a5,36(s0)
	lui	a4,%hi(.LC5)
	addi	a4,a4,%lo(.LC5)
	li	a3,733
	addi	a2,s4,%lo(.LC4)
	li	a1,0
	li	a0,2
	jalr	a6
.LVL15:
	.loc 1 733 62
	.loc 1 734 5
	lw	a6,204(s2)
	lb	a5,28(s0)
	lui	a4,%hi(.LC6)
	addi	a4,a4,%lo(.LC6)
	li	a3,734
	addi	a2,s4,%lo(.LC4)
	li	a1,0
	li	a0,2
	jalr	a6
.LVL16:
	.loc 1 734 57
	.loc 1 735 5
	lw	a6,204(s2)
	lbu	a5,40(s0)
	lui	a4,%hi(.LC7)
	addi	a4,a4,%lo(.LC7)
	li	a3,735
	addi	a2,s4,%lo(.LC4)
	li	a1,0
	li	a0,2
	jalr	a6
.LVL17:
	.loc 1 735 69
	.loc 1 737 5
	lw	a5,4(s2)
	lbu	a1,26(s0)
	lui	a0,%hi(.LC8)
	addi	a0,a0,%lo(.LC8)
	jalr	a5
.LVL18:
	.loc 1 738 5
	lw	a5,4(s2)
	lbu	a1,27(s0)
	lui	a0,%hi(.LC9)
	addi	a0,a0,%lo(.LC9)
	jalr	a5
.LVL19:
	.loc 1 739 5
	.loc 1 739 12 is_stmt 0
	lbu	s3,27(s0)
	.loc 1 739 8
	li	a5,6
	bgtu	s3,a5,.L12
	.loc 1 740 9 is_stmt 1
.LVL20:
	.loc 1 741 9
	.loc 1 741 16 is_stmt 0
	li	a5,24
	mul	a5,s3,a5
	add	a5,s1,a5
	.loc 1 741 12
	lbu	a5,266(a5)
	beq	a5,zero,.L13
	.loc 1 742 13 is_stmt 1
	lw	a6,204(s2)
	lui	a4,%hi(.LC10)
	mv	a5,s3
	addi	a4,a4,%lo(.LC10)
	li	a3,742
	addi	a2,s4,%lo(.LC4)
	li	a1,0
	li	a0,2
	jalr	a6
.LVL21:
.L13:
	.loc 1 742 110 discriminator 1
	.loc 1 744 9 discriminator 1
	.loc 1 744 29 is_stmt 0 discriminator 1
	li	a5,24
	mul	s3,s3,a5
.LVL22:
	.loc 1 744 9 discriminator 1
	li	a2,6
	addi	a1,s0,20
	.loc 1 744 29 discriminator 1
	addi	a0,s3,260
	.loc 1 744 9 discriminator 1
	add	a0,s1,a0
	call	memcpy
.LVL23:
	.loc 1 745 9 is_stmt 1 discriminator 1
	.loc 1 745 27 is_stmt 0 discriminator 1
	lbu	a4,27(s0)
	.loc 1 745 22 discriminator 1
	add	a5,s1,s3
	sb	a4,267(a5)
	.loc 1 746 9 is_stmt 1 discriminator 1
	.loc 1 746 27 is_stmt 0 discriminator 1
	lbu	a4,26(s0)
	.loc 1 746 22 discriminator 1
	sb	a4,268(a5)
	.loc 1 747 9 is_stmt 1 discriminator 1
	.loc 1 747 22 is_stmt 0 discriminator 1
	li	a4,1
	sb	a4,266(a5)
	.loc 1 748 9 is_stmt 1 discriminator 1
	.loc 1 748 24 is_stmt 0 discriminator 1
	lb	a4,28(s0)
	.loc 1 748 19 discriminator 1
	sb	a4,271(a5)
	.loc 1 749 9 is_stmt 1 discriminator 1
	.loc 1 749 25 is_stmt 0 discriminator 1
	lw	a4,32(s0)
	.loc 1 749 20 discriminator 1
	sw	a4,276(a5)
	.loc 1 750 9 is_stmt 1 discriminator 1
	.loc 1 750 25 is_stmt 0 discriminator 1
	lw	a4,36(s0)
	.loc 1 750 20 discriminator 1
	sw	a4,280(a5)
	.loc 1 751 9 is_stmt 1 discriminator 1
	.loc 1 751 29 is_stmt 0 discriminator 1
	lbu	a4,40(s0)
	.loc 1 751 24 discriminator 1
	sb	a4,272(a5)
.L14:
	.loc 1 755 5 is_stmt 1
	lbu	a2,27(s0)
	li	a1,21
	li	a0,2
	call	aos_post_event
.LVL24:
	.loc 1 757 5
	.loc 1 758 1 is_stmt 0
	lw	ra,28(sp)
	.cfi_remember_state
	.cfi_restore 1
	lw	s0,24(sp)
	.cfi_restore 8
.LVL25:
	lw	s1,20(sp)
	.cfi_restore 9
.LVL26:
	lw	s2,16(sp)
	.cfi_restore 18
	lw	s3,12(sp)
	.cfi_restore 19
	lw	s4,8(sp)
	.cfi_restore 20
	li	a0,0
	addi	sp,sp,32
	.cfi_def_cfa_offset 0
	jr	ra
.LVL27:
.L12:
	.cfi_restore_state
	.loc 1 753 9 is_stmt 1
	lw	a5,4(s2)
	lui	a0,%hi(.LC11)
	addi	a0,a0,%lo(.LC11)
	jalr	a5
.LVL28:
	j	.L14
	.cfi_endproc
.LFE65:
	.size	bl_rx_apm_sta_add_ind, .-bl_rx_apm_sta_add_ind
	.section	.text.notify_event_scan_done,"ax",@progbits
	.align	1
	.type	notify_event_scan_done, @function
notify_event_scan_done:
.LFB48:
	.loc 1 224 1
	.cfi_startproc
.LVL29:
	.loc 1 225 5
	.loc 1 226 5
	.loc 1 227 5
	.loc 1 229 5
	.loc 1 224 1 is_stmt 0
	addi	sp,sp,-32
	.cfi_def_cfa_offset 32
.LVL30:
	.loc 1 230 5 is_stmt 1
	.loc 1 231 5
	.loc 1 224 1 is_stmt 0
	sw	s0,24(sp)
	.loc 1 231 5
	li	a2,4
	.cfi_offset 8, -8
	.loc 1 224 1
	mv	s0,a0
	.loc 1 231 5
	li	a1,0
	addi	a0,sp,8
.LVL31:
	.loc 1 224 1
	sw	ra,28(sp)
	.cfi_offset 1, -4
	.loc 1 231 5
	call	memset
.LVL32:
	.loc 1 232 5 is_stmt 1
	li	a2,4
	li	a1,0
	addi	a0,sp,12
.LVL33:
	call	memset
.LVL34:
	.loc 1 234 5
	.loc 1 235 18 is_stmt 0
	li	a5,235
	sw	a5,12(sp)
	.loc 1 238 9
	lui	a5,%hi(.LANCHOR2)
	lw	a5,%lo(.LANCHOR2)(a5)
	.loc 1 234 31
	addi	s0,s0,1
.LVL35:
	.loc 1 234 15
	sw	s0,8(sp)
	.loc 1 235 5 is_stmt 1
	.loc 1 238 5
	.loc 1 238 8 is_stmt 0
	beq	a5,zero,.L19
	.loc 1 239 9 is_stmt 1
	lui	a4,%hi(.LANCHOR3)
	lw	a0,%lo(.LANCHOR3)(a4)
	addi	a1,sp,8
.LVL36:
	jalr	a5
.LVL37:
.L19:
	.loc 1 241 1 is_stmt 0
	lw	ra,28(sp)
	.cfi_restore 1
	lw	s0,24(sp)
	.cfi_restore 8
.LVL38:
	addi	sp,sp,32
	.cfi_def_cfa_offset 0
.LVL39:
	jr	ra
	.cfi_endproc
.LFE48:
	.size	notify_event_scan_done, .-notify_event_scan_done
	.section	.text.bl_rx_scanu_join_cfm,"ax",@progbits
	.align	1
	.type	bl_rx_scanu_join_cfm, @function
bl_rx_scanu_join_cfm:
.LFB53:
	.loc 1 313 1 is_stmt 1
	.cfi_startproc
.LVL40:
	.loc 1 314 5
	.loc 1 313 1 is_stmt 0
	addi	sp,sp,-16
	.cfi_def_cfa_offset 16
	.loc 1 314 5
	li	a0,1
.LVL41:
	.loc 1 313 1
	sw	ra,12(sp)
	.cfi_offset 1, -4
	.loc 1 314 5
	call	notify_event_scan_done
.LVL42:
	.loc 1 316 5 is_stmt 1
	.loc 1 317 1 is_stmt 0
	lw	ra,12(sp)
	.cfi_restore 1
	li	a0,0
	addi	sp,sp,16
	.cfi_def_cfa_offset 0
	jr	ra
	.cfi_endproc
.LFE53:
	.size	bl_rx_scanu_join_cfm, .-bl_rx_scanu_join_cfm
	.section	.text.bl_rx_scanu_start_cfm,"ax",@progbits
	.align	1
	.type	bl_rx_scanu_start_cfm, @function
bl_rx_scanu_start_cfm:
.LFB52:
	.loc 1 290 1 is_stmt 1
	.cfi_startproc
.LVL43:
	.loc 1 291 5
	.loc 1 291 9
	.loc 1 291 17
	.loc 1 306 5
	.loc 1 290 1 is_stmt 0
	addi	sp,sp,-16
	.cfi_def_cfa_offset 16
	.loc 1 306 5
	li	a0,0
.LVL44:
	.loc 1 290 1
	sw	ra,12(sp)
	.cfi_offset 1, -4
	.loc 1 306 5
	call	notify_event_scan_done
.LVL45:
	.loc 1 307 5 is_stmt 1
	.loc 1 307 9
	.loc 1 307 17
	.loc 1 309 5
	.loc 1 310 1 is_stmt 0
	lw	ra,12(sp)
	.cfi_restore 1
	li	a0,0
	addi	sp,sp,16
	.cfi_def_cfa_offset 0
	jr	ra
	.cfi_endproc
.LFE52:
	.size	bl_rx_scanu_start_cfm, .-bl_rx_scanu_start_cfm
	.section	.text.bl_rx_chan_switch_ind,"ax",@progbits
	.align	1
	.type	bl_rx_chan_switch_ind, @function
bl_rx_chan_switch_ind:
.LFB49:
	.loc 1 245 1 is_stmt 1
	.cfi_startproc
.LVL46:
	.loc 1 246 5
	.loc 1 248 5
	.loc 1 248 9
	.loc 1 248 17
	.loc 1 249 5
	.loc 1 245 1 is_stmt 0
	addi	sp,sp,-32
	.cfi_def_cfa_offset 32
	sw	ra,28(sp)
	sw	s0,24(sp)
	.cfi_offset 1, -4
	.cfi_offset 8, -8
	.loc 1 249 5
	lbu	s0,16(a2)
.LVL47:
.LBB23:
.LBB24:
	.loc 1 205 5 is_stmt 1
	.loc 1 206 5
	.loc 1 207 5
	.loc 1 209 5
	.loc 1 210 5
	.loc 1 211 5
	li	a1,0
.LVL48:
	li	a2,4
.LVL49:
	addi	a0,sp,8
.LVL50:
	call	memset
.LVL51:
	.loc 1 212 5
	li	a2,4
	li	a1,0
	addi	a0,sp,12
.LVL52:
	call	memset
.LVL53:
	.loc 1 214 5
	.loc 1 218 9 is_stmt 0
	lui	a5,%hi(.LANCHOR2)
	lw	a5,%lo(.LANCHOR2)(a5)
	.loc 1 214 15
	sw	zero,8(sp)
	.loc 1 215 5 is_stmt 1
	.loc 1 215 18 is_stmt 0
	sw	s0,12(sp)
	.loc 1 218 5 is_stmt 1
	.loc 1 218 8 is_stmt 0
	beq	a5,zero,.L30
	.loc 1 219 9 is_stmt 1
	lui	a4,%hi(.LANCHOR3)
	lw	a0,%lo(.LANCHOR3)(a4)
	addi	a1,sp,8
.LVL54:
	jalr	a5
.LVL55:
.L30:
.LBE24:
.LBE23:
	.loc 1 250 5
	.loc 1 250 9
	.loc 1 250 17
	.loc 1 251 5
	.loc 1 252 1 is_stmt 0
	lw	ra,28(sp)
	.cfi_restore 1
	lw	s0,24(sp)
	.cfi_restore 8
	li	a0,0
	addi	sp,sp,32
	.cfi_def_cfa_offset 0
.LVL56:
	jr	ra
	.cfi_endproc
.LFE49:
	.size	bl_rx_chan_switch_ind, .-bl_rx_chan_switch_ind
	.section	.text._rx_handle_beacon,"ax",@progbits
	.align	1
	.type	_rx_handle_beacon, @function
_rx_handle_beacon:
.LFB57:
	.loc 1 378 1 is_stmt 1
	.cfi_startproc
.LVL57:
	.loc 1 379 5
	.loc 1 380 5
	.loc 1 381 5
	.loc 1 382 5
	.loc 1 383 5
	.loc 1 385 5
	.loc 1 378 1 is_stmt 0
	addi	sp,sp,-176
	.cfi_def_cfa_offset 176
	sw	s1,164(sp)
	sw	s2,160(sp)
	.cfi_offset 9, -12
	.cfi_offset 18, -16
	mv	s1,a0
	mv	s2,a1
	.loc 1 385 5
	li	a2,64
	li	a1,0
.LVL58:
	addi	a0,sp,80
.LVL59:
	.loc 1 378 1
	sw	s0,168(sp)
	sw	s3,156(sp)
	sw	s4,152(sp)
	sw	s5,148(sp)
	sw	ra,172(sp)
	sw	s6,144(sp)
	.cfi_offset 8, -8
	.cfi_offset 19, -20
	.cfi_offset 20, -24
	.cfi_offset 21, -28
	.cfi_offset 1, -4
	.cfi_offset 22, -32
	.loc 1 385 5
	call	memset
.LVL60:
	.loc 1 387 5 is_stmt 1
	.loc 1 388 23 is_stmt 0
	lhu	s0,0(s1)
	.loc 1 387 31
	addi	s3,s2,36
	.loc 1 387 19
	mv	s5,s3
.LVL61:
	.loc 1 388 5 is_stmt 1
	.loc 1 390 5
	mv	s4,s3
.LBB36:
.LBB37:
	.loc 1 323 7 is_stmt 0
	li	a5,0
.LVL62:
.L36:
	.loc 1 324 11 is_stmt 1
	ble	s0,a5,.L38
	.loc 1 326 9
	.loc 1 326 12 is_stmt 0
	lbu	a4,0(s4)
	.loc 1 327 23
	lbu	a2,1(s4)
	.loc 1 326 12
	bne	a4,zero,.L37
	.loc 1 327 13 is_stmt 1
	.loc 1 327 16 is_stmt 0
	li	a5,32
.LVL63:
	bgtu	a2,a5,.L38
	.loc 1 330 13 is_stmt 1
	.loc 1 331 13 is_stmt 0
	addi	a1,s4,2
	addi	a0,sp,90
.LVL64:
	.loc 1 330 31
	sw	a2,136(sp)
	.loc 1 331 13 is_stmt 1
	call	memcpy
.LVL65:
	.loc 1 332 13
	.loc 1 332 26 is_stmt 0
	lbu	a5,1(s4)
	.loc 1 332 31
	addi	a4,sp,144
	add	a5,a4,a5
	sb	zero,-54(a5)
	.loc 1 333 13 is_stmt 1
.L38:
.LVL66:
.LBE37:
.LBE36:
	.loc 1 391 5
	lhu	a3,0(s1)
.LVL67:
.LBB39:
.LBB40:
	.loc 1 348 7 is_stmt 0
	li	a4,0
	.loc 1 351 12
	li	a2,3
.LVL68:
.L40:
	.loc 1 349 11 is_stmt 1
	ble	a3,a4,.L42
	.loc 1 351 9
	.loc 1 351 12 is_stmt 0
	lbu	a1,0(s3)
	.loc 1 352 23
	lbu	a5,1(s3)
	.loc 1 351 12
	bne	a1,a2,.L41
	.loc 1 352 13 is_stmt 1
	.loc 1 352 16 is_stmt 0
	li	a4,32
.LVL69:
	bgtu	a5,a4,.L42
	.loc 1 355 13 is_stmt 1
	.loc 1 355 21 is_stmt 0
	lbu	a5,2(s3)
	sb	a5,126(sp)
	.loc 1 356 13 is_stmt 1
.L42:
.LVL70:
.LBE40:
.LBE39:
	.loc 1 393 5
	.loc 1 393 17 is_stmt 0
	addi	s0,s0,-36
.LVL71:
	slli	s0,s0,16
.LVL72:
	srli	s0,s0,16
	lui	a2,%hi(.LC12)
	li	a3,4
	addi	a2,a2,%lo(.LC12)
	mv	a1,s0
	mv	a0,s5
	call	mac_vsie_find
.LVL73:
	.loc 1 394 5 is_stmt 1
	.loc 1 394 8 is_stmt 0
	snez	a0,a0
.LVL74:
	sb	a0,140(sp)
	.loc 1 408 5 is_stmt 1
	.loc 1 408 9 is_stmt 0
	li	a2,45
	mv	a1,s0
	mv	a0,s5
	call	mac_ie_find
.LVL75:
	.loc 1 410 22
	li	a5,13
	.loc 1 408 8
	bne	a0,zero,.L95
	.loc 1 412 10 is_stmt 1
	.loc 1 412 14 is_stmt 0
	li	a2,50
	mv	a1,s0
	mv	a0,s5
	call	mac_ie_find
.LVL76:
	.loc 1 414 22
	li	a5,5
	.loc 1 412 13
	bne	a0,zero,.L95
	.loc 1 418 9 is_stmt 1
	.loc 1 418 22 is_stmt 0
	li	a5,1
.L95:
	sw	a5,80(sp)
	.loc 1 421 5 is_stmt 1
	.loc 1 421 9 is_stmt 0
	lhu	a5,34(s2)
	.loc 1 421 8
	andi	a5,a5,16
	beq	a5,zero,.L47
.LBB42:
	.loc 1 422 9 is_stmt 1
	.loc 1 429 21 is_stmt 0
	li	a2,48
	mv	a1,s0
	mv	a0,s5
	.loc 1 422 24
	sw	zero,8(sp)
	sw	zero,12(sp)
	.loc 1 423 9 is_stmt 1
.LVL77:
	.loc 1 424 9
	.loc 1 425 8
	.loc 1 426 8
	.loc 1 429 9
	.loc 1 429 21 is_stmt 0
	call	mac_ie_find
.LVL78:
	mv	s3,a0
.LVL79:
	.loc 1 430 9 is_stmt 1
	.loc 1 423 13 is_stmt 0
	li	s4,0
	.loc 1 430 12
	beq	a0,zero,.L48
	.loc 1 431 13 is_stmt 1
.LVL80:
.LBB43:
.LBB44:
	.loc 1 371 5
.LBE44:
.LBE43:
	.loc 1 431 30 is_stmt 0
	lbu	s6,1(a0)
	.loc 1 432 13
	addi	s4,sp,48
	li	a2,32
	li	a1,0
	mv	a0,s4
.LVL81:
	call	memset
.LVL82:
	.loc 1 431 57
	addi	s6,s6,2
.LVL83:
	.loc 1 432 13 is_stmt 1
	.loc 1 433 13
	mv	a2,s4
	mv	a1,s6
	mv	a0,s3
	call	wpa_parse_wpa_ie_wrapper
.LVL84:
	.loc 1 434 13
	.loc 1 434 48 is_stmt 0
	sw	s4,8(sp)
	.loc 1 434 44
	li	s4,1
.LVL85:
.L48:
	.loc 1 437 9 is_stmt 1
	.loc 1 437 21 is_stmt 0
	lui	a2,%hi(.LC13)
	li	a3,4
	addi	a2,a2,%lo(.LC13)
	mv	a1,s0
	mv	a0,s5
	call	mac_vsie_find
.LVL86:
	.loc 1 438 9 is_stmt 1
	.loc 1 438 12 is_stmt 0
	beq	a0,zero,.L49
	.loc 1 439 13 is_stmt 1
.LVL87:
.LBB45:
.LBB46:
	.loc 1 371 5
.LBE46:
.LBE45:
	.loc 1 440 13
	.loc 1 439 30 is_stmt 0
	lbu	a1,1(a0)
	.loc 1 440 13
	addi	s0,sp,16
	mv	a2,s0
	addi	a1,a1,2
.LVL88:
	call	wpa_parse_wpa_ie_wrapper
.LVL89:
	.loc 1 441 13 is_stmt 1
	.loc 1 441 48 is_stmt 0
	slli	a5,s4,2
	addi	a4,sp,144
	add	a5,a4,a5
	sw	s0,-136(a5)
	.loc 1 441 44
	addi	s4,s4,1
.LVL90:
.L49:
	.loc 1 444 9 is_stmt 1
	addi	t1,sp,8
	.loc 1 426 33 is_stmt 0
	li	a1,0
	.loc 1 426 13
	li	a3,0
	.loc 1 425 27
	li	a4,0
	.loc 1 425 13
	li	a5,0
	.loc 1 444 16
	li	a7,0
.LBB47:
	.loc 1 451 16
	li	t2,1
	.loc 1 453 23
	li	t6,2
	.loc 1 460 34
	li	s0,6
	.loc 1 457 38
	li	s3,7
	.loc 1 455 34
	li	a0,3
.LBB48:
	.loc 1 476 20
	li	t3,5
	.loc 1 471 20
	li	t4,4
.LVL91:
.L50:
.LBE48:
.LBE47:
	.loc 1 444 21 is_stmt 1 discriminator 1
	.loc 1 444 9 is_stmt 0 discriminator 1
	bne	s4,a7,.L63
	.loc 1 483 9 is_stmt 1
	.loc 1 483 12 is_stmt 0
	li	a2,2
	bne	s4,a2,.L64
	.loc 1 484 13 is_stmt 1
	.loc 1 484 26 is_stmt 0
	li	a2,4
	sb	a2,127(sp)
.L65:
	.loc 1 491 9 is_stmt 1
	.loc 1 491 12 is_stmt 0
	beq	a4,zero,.L66
	.loc 1 492 13 is_stmt 1
	.loc 1 492 28 is_stmt 0
	li	a4,2
.LVL92:
	sb	a4,128(sp)
	.loc 1 494 9 is_stmt 1
	.loc 1 494 12 is_stmt 0
	bne	a5,zero,.L67
.LVL93:
.L68:
	.loc 1 500 9 is_stmt 1
	.loc 1 500 12 is_stmt 0
	beq	a1,zero,.L70
	.loc 1 501 13 is_stmt 1
	.loc 1 501 34 is_stmt 0
	li	a5,2
	sb	a5,141(sp)
	.loc 1 503 9 is_stmt 1
	.loc 1 507 34 is_stmt 0
	li	a5,4
	.loc 1 503 12
	bne	a3,zero,.L98
.LVL94:
.L74:
.LBE42:
	.loc 1 514 5 is_stmt 1
	.loc 1 514 18 is_stmt 0
	lbu	a5,24(s1)
	.loc 1 523 5
	lui	a4,%hi(.LANCHOR4)
	lw	a0,%lo(.LANCHOR4)(a4)
	.loc 1 514 18
	sb	a5,123(sp)
	.loc 1 515 5 is_stmt 1
	.loc 1 515 21 is_stmt 0
	lbu	a5,25(s1)
	.loc 1 523 5
	addi	a1,sp,80
	.loc 1 515 21
	sb	a5,124(sp)
	.loc 1 516 5 is_stmt 1
	.loc 1 516 21 is_stmt 0
	lbu	a5,26(s1)
	sb	a5,125(sp)
	.loc 1 517 5 is_stmt 1
	.loc 1 518 5
	.loc 1 519 5
	.loc 1 520 5
	.loc 1 521 5
	.loc 1 522 5
	.loc 1 517 22 is_stmt 0
	lhu	a5,16(s2)
	sh	a5,84(sp)
	.loc 1 519 22
	lhu	a5,18(s2)
	sh	a5,86(sp)
	.loc 1 521 22
	lhu	a5,20(s2)
	sh	a5,88(sp)
	.loc 1 523 5 is_stmt 1
	lui	a5,%hi(.LANCHOR5)
	lw	a5,%lo(.LANCHOR5)(a5)
	jalr	a5
.LVL95:
	.loc 1 524 1 is_stmt 0
	lw	ra,172(sp)
	.cfi_remember_state
	.cfi_restore 1
	lw	s0,168(sp)
	.cfi_restore 8
	lw	s1,164(sp)
	.cfi_restore 9
.LVL96:
	lw	s2,160(sp)
	.cfi_restore 18
.LVL97:
	lw	s3,156(sp)
	.cfi_restore 19
	lw	s4,152(sp)
	.cfi_restore 20
	lw	s5,148(sp)
	.cfi_restore 21
.LVL98:
	lw	s6,144(sp)
	.cfi_restore 22
	addi	sp,sp,176
	.cfi_def_cfa_offset 0
	jr	ra
.LVL99:
.L37:
	.cfi_restore_state
.LBB56:
.LBB38:
	.loc 1 336 13 is_stmt 1
	.loc 1 336 28 is_stmt 0
	addi	a2,a2,2
	.loc 1 336 15
	add	a5,a5,a2
.LVL100:
	.loc 1 337 13 is_stmt 1
	.loc 1 337 20 is_stmt 0
	add	s4,s4,a2
.LVL101:
	j	.L36
.LVL102:
.L41:
.LBE38:
.LBE56:
.LBB57:
.LBB41:
	.loc 1 359 13 is_stmt 1
	.loc 1 359 28 is_stmt 0
	addi	a5,a5,2
	.loc 1 359 15
	add	a4,a4,a5
.LVL103:
	.loc 1 360 13 is_stmt 1
	.loc 1 360 20 is_stmt 0
	add	s3,s3,a5
.LVL104:
	j	.L40
.LVL105:
.L63:
.LBE41:
.LBE57:
.LBB58:
.LBB53:
	.loc 1 445 13 is_stmt 1
	.loc 1 445 28 is_stmt 0
	lw	a6,0(t1)
.LVL106:
	.loc 1 446 13 is_stmt 1
	.loc 1 451 19 is_stmt 0
	lw	t0,0(a6)
	.loc 1 446 17
	lw	t5,4(a6)
.LVL107:
	.loc 1 447 13 is_stmt 1
	.loc 1 447 17 is_stmt 0
	lw	a2,8(a6)
.LVL108:
	.loc 1 448 13 is_stmt 1
	.loc 1 449 13
	.loc 1 451 13
	.loc 1 451 16 is_stmt 0
	bne	t0,t2,.L51
	.loc 1 452 17 is_stmt 1
	.loc 1 452 30 is_stmt 0
	sb	t6,127(sp)
.LVL109:
.L52:
	.loc 1 464 13 is_stmt 1
	.loc 1 464 25
.LBB49:
	.loc 1 465 17
	.loc 1 466 17
	.loc 1 466 20 is_stmt 0
	beq	t5,a0,.L57
	.loc 1 471 17 is_stmt 1
	.loc 1 471 20 is_stmt 0
	bne	t5,t4,.L58
	.loc 1 472 21 is_stmt 1
.LVL110:
	.loc 1 473 21
	.loc 1 473 24 is_stmt 0
	bne	a2,t4,.L92
.LVL111:
.L83:
	.loc 1 474 36
	li	a1,1
.LVL112:
	li	a4,1
.LVL113:
.L59:
.LBE49:
	.loc 1 464 67 is_stmt 1 discriminator 2
	.loc 1 464 25 discriminator 2
.LBE53:
	.loc 1 444 44 discriminator 2
	addi	a7,a7,1
.LVL114:
	addi	t1,t1,4
.LVL115:
	j	.L50
.LVL116:
.L51:
.LBB54:
	.loc 1 453 20
	.loc 1 453 23 is_stmt 0
	bne	t0,t6,.L52
	.loc 1 454 17 is_stmt 1
	.loc 1 454 23 is_stmt 0
	lw	a6,12(a6)
.LVL117:
	.loc 1 456 38
	andi	t0,a6,1024
	.loc 1 454 34
	andi	a6,a6,258
	.loc 1 454 20
	beq	a6,zero,.L54
	.loc 1 455 21 is_stmt 1
	.loc 1 456 21
	.loc 1 456 24 is_stmt 0
	bne	t0,zero,.L55
	.loc 1 455 34
	sb	a0,127(sp)
	j	.L52
.L55:
	.loc 1 457 25 is_stmt 1
	.loc 1 457 38 is_stmt 0
	sb	s3,127(sp)
	j	.L52
.L54:
	.loc 1 459 24 is_stmt 1
	.loc 1 459 27 is_stmt 0
	beq	t0,zero,.L52
	.loc 1 460 21 is_stmt 1
	.loc 1 460 34 is_stmt 0
	sb	s0,127(sp)
	j	.L52
.LVL118:
.L58:
.LBB50:
	.loc 1 476 17 is_stmt 1
	.loc 1 476 20 is_stmt 0
	bne	t5,t3,.L61
	.loc 1 477 21 is_stmt 1
.LVL119:
	.loc 1 478 21
	.loc 1 478 24 is_stmt 0
	beq	a2,t3,.L80
	.loc 1 477 33
	li	a4,1
	.loc 1 477 26
	li	a5,1
.LVL120:
.L61:
.LBE50:
	.loc 1 464 67 is_stmt 1
	.loc 1 464 25
.LBB51:
	.loc 1 465 17
	.loc 1 466 17
	.loc 1 466 20 is_stmt 0
	beq	a2,a0,.L82
.LVL121:
.L62:
	.loc 1 471 17 is_stmt 1
	.loc 1 471 20 is_stmt 0
	beq	a2,t4,.L83
.LVL122:
.L75:
	.loc 1 476 17 is_stmt 1
	.loc 1 476 20 is_stmt 0
	bne	a2,t3,.L59
.LVL123:
.L80:
	.loc 1 479 49
	li	a1,1
.LVL124:
.L84:
	.loc 1 466 20
	li	a3,1
.LVL125:
	li	a4,1
	j	.L96
.LVL126:
.L57:
	.loc 1 467 21 is_stmt 1
	.loc 1 468 21
	.loc 1 468 24 is_stmt 0
	li	a5,1
	bne	a2,a0,.L62
.LVL127:
.L82:
	li	a3,1
.LVL128:
.L96:
	.loc 1 466 20
	li	a5,1
	j	.L59
.LVL129:
.L64:
.LBE51:
.LBE54:
	.loc 1 485 16 is_stmt 1
	.loc 1 485 19 is_stmt 0
	bne	s4,zero,.L65
	.loc 1 486 13 is_stmt 1
	.loc 1 486 26 is_stmt 0
	li	a2,1
	sb	a2,127(sp)
	.loc 1 487 13 is_stmt 1
	.loc 1 487 28 is_stmt 0
	sb	a2,128(sp)
	.loc 1 488 13 is_stmt 1
	.loc 1 488 34 is_stmt 0
	sb	a2,141(sp)
	j	.L65
.LVL130:
.L67:
	.loc 1 498 13 is_stmt 1
	.loc 1 498 28 is_stmt 0
	li	a5,4
.LVL131:
	j	.L97
.LVL132:
.L47:
.LBE58:
	.loc 1 511 9 is_stmt 1
	.loc 1 511 22 is_stmt 0
	sb	zero,127(sp)
	j	.L74
.LVL133:
.L92:
.LBB59:
.LBB55:
	.loc 1 464 67 is_stmt 1
	.loc 1 464 25
.LBB52:
	.loc 1 465 17
	.loc 1 466 17
	.loc 1 466 20 is_stmt 0
	li	a4,1
	bne	a2,a0,.L75
	j	.L84
.LVL134:
.L70:
.LBE52:
.LBE55:
	.loc 1 503 9 is_stmt 1
	.loc 1 503 12 is_stmt 0
	beq	a3,zero,.L74
	.loc 1 504 34
	li	a5,3
.L98:
	.loc 1 507 34
	sb	a5,141(sp)
	j	.L74
.LVL135:
.L66:
	.loc 1 494 9 is_stmt 1
	.loc 1 494 12 is_stmt 0
	beq	a5,zero,.L68
	.loc 1 495 28
	li	a5,3
.LVL136:
.L97:
	.loc 1 498 28
	sb	a5,128(sp)
	j	.L68
.LBE59:
	.cfi_endproc
.LFE57:
	.size	_rx_handle_beacon, .-_rx_handle_beacon
	.section	.rodata.bl_rx_scanu_result_ind.str1.4,"aMS",@progbits,1
	.align	2
.LC14:
	.string	"Bug Scan IND?\r\n"
	.section	.text.bl_rx_scanu_result_ind,"ax",@progbits
	.align	1
	.type	bl_rx_scanu_result_ind, @function
bl_rx_scanu_result_ind:
.LFB59:
	.loc 1 532 1 is_stmt 1
	.cfi_startproc
.LVL137:
	.loc 1 533 5
	lhu	a5,44(a2)
	.loc 1 532 1 is_stmt 0
	addi	sp,sp,-16
	.cfi_def_cfa_offset 16
	sw	ra,12(sp)
	.cfi_offset 1, -4
	andi	a5,a5,252
	.loc 1 536 8
	li	a4,128
	.loc 1 533 30
	addi	a0,a2,16
.LVL138:
	.loc 1 534 5 is_stmt 1
	.loc 1 534 28 is_stmt 0
	addi	a1,a2,44
.LVL139:
	.loc 1 536 5 is_stmt 1
	.file 2 "/mnt/d/GitHub/bl_iot_sdk_for_aithinker/components/network/wifi_manager/bl60x_wifi_driver/ieee80211.h"
	.loc 2 432 2
	.loc 1 536 8 is_stmt 0
	bne	a5,a4,.L100
.L104:
	.loc 1 539 9 is_stmt 1
.LVL140:
.LBB70:
.LBB71:
	.loc 1 528 5
	call	_rx_handle_beacon
.LVL141:
.L101:
.LBE71:
.LBE70:
	.loc 1 544 5
	.loc 1 545 1 is_stmt 0
	lw	ra,12(sp)
	.cfi_remember_state
	.cfi_restore 1
	li	a0,0
	addi	sp,sp,16
	.cfi_def_cfa_offset 0
	jr	ra
.LVL142:
.L100:
	.cfi_restore_state
	.loc 1 538 12 is_stmt 1
	.loc 2 472 9
	.loc 1 538 15 is_stmt 0
	li	a4,80
	beq	a5,a4,.L104
.LVL143:
.LBB72:
.LBB73:
	.loc 1 541 9 is_stmt 1
	.loc 1 541 23 is_stmt 0
	lui	a5,%hi(g_bl_ops_funcs+4)
	.loc 1 541 9
	lw	a5,%lo(g_bl_ops_funcs+4)(a5)
	lui	a0,%hi(.LC14)
.LVL144:
	addi	a0,a0,%lo(.LC14)
	jalr	a5
.LVL145:
	j	.L101
.LBE73:
.LBE72:
	.cfi_endproc
.LFE59:
	.size	bl_rx_scanu_result_ind, .-bl_rx_scanu_result_ind
	.section	.text.bl_rx_sm_connect_ind_cb_register,"ax",@progbits
	.align	1
	.globl	bl_rx_sm_connect_ind_cb_register
	.type	bl_rx_sm_connect_ind_cb_register, @function
bl_rx_sm_connect_ind_cb_register:
.LFB33:
	.loc 1 84 1 is_stmt 1
	.cfi_startproc
.LVL146:
	.loc 1 85 5
	.loc 1 85 23 is_stmt 0
	lui	a5,%hi(.LANCHOR6)
	sw	a1,%lo(.LANCHOR6)(a5)
	.loc 1 86 5 is_stmt 1
	.loc 1 86 27 is_stmt 0
	lui	a5,%hi(.LANCHOR7)
	sw	a0,%lo(.LANCHOR7)(a5)
	.loc 1 88 5 is_stmt 1
	.loc 1 89 1 is_stmt 0
	li	a0,0
.LVL147:
	ret
	.cfi_endproc
.LFE33:
	.size	bl_rx_sm_connect_ind_cb_register, .-bl_rx_sm_connect_ind_cb_register
	.section	.text.bl_rx_sm_connect_ind_cb_unregister,"ax",@progbits
	.align	1
	.globl	bl_rx_sm_connect_ind_cb_unregister
	.type	bl_rx_sm_connect_ind_cb_unregister, @function
bl_rx_sm_connect_ind_cb_unregister:
.LFB34:
	.loc 1 93 1 is_stmt 1
	.cfi_startproc
.LVL148:
	.loc 1 94 5
	.loc 1 94 23 is_stmt 0
	lui	a5,%hi(.LANCHOR6)
	sw	zero,%lo(.LANCHOR6)(a5)
	.loc 1 95 5 is_stmt 1
	.loc 1 95 27 is_stmt 0
	lui	a5,%hi(.LANCHOR7)
	sw	zero,%lo(.LANCHOR7)(a5)
	.loc 1 97 5 is_stmt 1
	.loc 1 98 1 is_stmt 0
	li	a0,0
.LVL149:
	ret
	.cfi_endproc
.LFE34:
	.size	bl_rx_sm_connect_ind_cb_unregister, .-bl_rx_sm_connect_ind_cb_unregister
	.section	.text.bl_rx_sm_disconnect_ind_cb_register,"ax",@progbits
	.align	1
	.globl	bl_rx_sm_disconnect_ind_cb_register
	.type	bl_rx_sm_disconnect_ind_cb_register, @function
bl_rx_sm_disconnect_ind_cb_register:
.LFB35:
	.loc 1 101 1 is_stmt 1
	.cfi_startproc
.LVL150:
	.loc 1 102 5
	.loc 1 102 26 is_stmt 0
	lui	a5,%hi(.LANCHOR8)
	sw	a1,%lo(.LANCHOR8)(a5)
	.loc 1 103 5 is_stmt 1
	.loc 1 103 30 is_stmt 0
	lui	a5,%hi(.LANCHOR9)
	sw	a0,%lo(.LANCHOR9)(a5)
	.loc 1 105 5 is_stmt 1
	.loc 1 106 1 is_stmt 0
	li	a0,0
.LVL151:
	ret
	.cfi_endproc
.LFE35:
	.size	bl_rx_sm_disconnect_ind_cb_register, .-bl_rx_sm_disconnect_ind_cb_register
	.section	.text.bl_rx_sm_disconnect_ind_cb_unregister,"ax",@progbits
	.align	1
	.globl	bl_rx_sm_disconnect_ind_cb_unregister
	.type	bl_rx_sm_disconnect_ind_cb_unregister, @function
bl_rx_sm_disconnect_ind_cb_unregister:
.LFB36:
	.loc 1 110 1 is_stmt 1
	.cfi_startproc
.LVL152:
	.loc 1 111 5
	.loc 1 111 26 is_stmt 0
	lui	a5,%hi(.LANCHOR8)
	sw	zero,%lo(.LANCHOR8)(a5)
	.loc 1 112 5 is_stmt 1
	.loc 1 112 30 is_stmt 0
	lui	a5,%hi(.LANCHOR9)
	sw	zero,%lo(.LANCHOR9)(a5)
	.loc 1 114 5 is_stmt 1
	.loc 1 115 1 is_stmt 0
	li	a0,0
.LVL153:
	ret
	.cfi_endproc
.LFE36:
	.size	bl_rx_sm_disconnect_ind_cb_unregister, .-bl_rx_sm_disconnect_ind_cb_unregister
	.section	.text.bl_rx_beacon_ind_cb_register,"ax",@progbits
	.align	1
	.globl	bl_rx_beacon_ind_cb_register
	.type	bl_rx_beacon_ind_cb_register, @function
bl_rx_beacon_ind_cb_register:
.LFB37:
	.loc 1 118 1 is_stmt 1
	.cfi_startproc
.LVL154:
	.loc 1 119 5
	.loc 1 119 19 is_stmt 0
	lui	a5,%hi(.LANCHOR5)
	sw	a1,%lo(.LANCHOR5)(a5)
	.loc 1 120 5 is_stmt 1
	.loc 1 120 23 is_stmt 0
	lui	a5,%hi(.LANCHOR4)
	sw	a0,%lo(.LANCHOR4)(a5)
	.loc 1 122 5 is_stmt 1
	.loc 1 123 1 is_stmt 0
	li	a0,0
.LVL155:
	ret
	.cfi_endproc
.LFE37:
	.size	bl_rx_beacon_ind_cb_register, .-bl_rx_beacon_ind_cb_register
	.section	.text.bl_rx_beacon_ind_cb_unregister,"ax",@progbits
	.align	1
	.globl	bl_rx_beacon_ind_cb_unregister
	.type	bl_rx_beacon_ind_cb_unregister, @function
bl_rx_beacon_ind_cb_unregister:
.LFB38:
	.loc 1 127 1 is_stmt 1
	.cfi_startproc
.LVL156:
	.loc 1 128 5
	.loc 1 128 19 is_stmt 0
	lui	a5,%hi(.LANCHOR5)
	sw	zero,%lo(.LANCHOR5)(a5)
	.loc 1 129 5 is_stmt 1
	.loc 1 129 23 is_stmt 0
	lui	a5,%hi(.LANCHOR4)
	sw	zero,%lo(.LANCHOR4)(a5)
	.loc 1 131 5 is_stmt 1
	.loc 1 132 1 is_stmt 0
	li	a0,0
.LVL157:
	ret
	.cfi_endproc
.LFE38:
	.size	bl_rx_beacon_ind_cb_unregister, .-bl_rx_beacon_ind_cb_unregister
	.section	.text.bl_rx_probe_resp_ind_cb_register,"ax",@progbits
	.align	1
	.globl	bl_rx_probe_resp_ind_cb_register
	.type	bl_rx_probe_resp_ind_cb_register, @function
bl_rx_probe_resp_ind_cb_register:
.LFB39:
	.loc 1 135 1 is_stmt 1
	.cfi_startproc
.LVL158:
	.loc 1 136 5
	.loc 1 137 5
	.loc 1 139 5
	.loc 1 140 1 is_stmt 0
	li	a0,0
.LVL159:
	ret
	.cfi_endproc
.LFE39:
	.size	bl_rx_probe_resp_ind_cb_register, .-bl_rx_probe_resp_ind_cb_register
	.section	.text.bl_rx_probe_resp_ind_cb_unregister,"ax",@progbits
	.align	1
	.globl	bl_rx_probe_resp_ind_cb_unregister
	.type	bl_rx_probe_resp_ind_cb_unregister, @function
bl_rx_probe_resp_ind_cb_unregister:
.LFB40:
	.loc 1 144 1 is_stmt 1
	.cfi_startproc
.LVL160:
	.loc 1 145 5
	.loc 1 146 5
	.loc 1 148 5
	.loc 1 149 1 is_stmt 0
	li	a0,0
.LVL161:
	ret
	.cfi_endproc
.LFE40:
	.size	bl_rx_probe_resp_ind_cb_unregister, .-bl_rx_probe_resp_ind_cb_unregister
	.section	.text.bl_rx_pkt_cb_register,"ax",@progbits
	.align	1
	.globl	bl_rx_pkt_cb_register
	.type	bl_rx_pkt_cb_register, @function
bl_rx_pkt_cb_register:
.LFB41:
	.loc 1 153 1 is_stmt 1
	.cfi_startproc
.LVL162:
	.loc 1 154 5
	.loc 1 154 12 is_stmt 0
	lui	a5,%hi(.LANCHOR10)
	sw	a1,%lo(.LANCHOR10)(a5)
	.loc 1 155 5 is_stmt 1
	.loc 1 155 16 is_stmt 0
	lui	a5,%hi(.LANCHOR11)
	sw	a0,%lo(.LANCHOR11)(a5)
	.loc 1 157 5 is_stmt 1
	.loc 1 158 1 is_stmt 0
	li	a0,0
.LVL163:
	ret
	.cfi_endproc
.LFE41:
	.size	bl_rx_pkt_cb_register, .-bl_rx_pkt_cb_register
	.section	.text.bl_rx_pkt_cb_unregister,"ax",@progbits
	.align	1
	.globl	bl_rx_pkt_cb_unregister
	.type	bl_rx_pkt_cb_unregister, @function
bl_rx_pkt_cb_unregister:
.LFB42:
	.loc 1 162 1 is_stmt 1
	.cfi_startproc
.LVL164:
	.loc 1 163 5
	.loc 1 163 12 is_stmt 0
	lui	a5,%hi(.LANCHOR10)
	sw	zero,%lo(.LANCHOR10)(a5)
	.loc 1 164 5 is_stmt 1
	.loc 1 164 16 is_stmt 0
	lui	a5,%hi(.LANCHOR11)
	sw	zero,%lo(.LANCHOR11)(a5)
	.loc 1 166 5 is_stmt 1
	.loc 1 167 1 is_stmt 0
	li	a0,0
.LVL165:
	ret
	.cfi_endproc
.LFE42:
	.size	bl_rx_pkt_cb_unregister, .-bl_rx_pkt_cb_unregister
	.section	.text.bl_rx_rssi_cb_register,"ax",@progbits
	.align	1
	.globl	bl_rx_rssi_cb_register
	.type	bl_rx_rssi_cb_register, @function
bl_rx_rssi_cb_register:
.LFB43:
	.loc 1 171 1 is_stmt 1
	.cfi_startproc
.LVL166:
	.loc 1 172 5
	.loc 1 172 13 is_stmt 0
	lui	a5,%hi(.LANCHOR0)
	sw	a1,%lo(.LANCHOR0)(a5)
	.loc 1 173 5 is_stmt 1
	.loc 1 173 17 is_stmt 0
	lui	a5,%hi(.LANCHOR1)
	sw	a0,%lo(.LANCHOR1)(a5)
	.loc 1 175 5 is_stmt 1
	.loc 1 176 1 is_stmt 0
	li	a0,0
.LVL167:
	ret
	.cfi_endproc
.LFE43:
	.size	bl_rx_rssi_cb_register, .-bl_rx_rssi_cb_register
	.section	.text.bl_rx_rssi_cb_unregister,"ax",@progbits
	.align	1
	.globl	bl_rx_rssi_cb_unregister
	.type	bl_rx_rssi_cb_unregister, @function
bl_rx_rssi_cb_unregister:
.LFB44:
	.loc 1 179 1 is_stmt 1
	.cfi_startproc
.LVL168:
	.loc 1 180 5
	.loc 1 180 13 is_stmt 0
	lui	a5,%hi(.LANCHOR0)
	sw	zero,%lo(.LANCHOR0)(a5)
	.loc 1 181 5 is_stmt 1
	.loc 1 181 17 is_stmt 0
	lui	a5,%hi(.LANCHOR1)
	sw	zero,%lo(.LANCHOR1)(a5)
	.loc 1 183 5 is_stmt 1
	.loc 1 184 1 is_stmt 0
	li	a0,0
.LVL169:
	ret
	.cfi_endproc
.LFE44:
	.size	bl_rx_rssi_cb_unregister, .-bl_rx_rssi_cb_unregister
	.section	.text.bl_rx_event_register,"ax",@progbits
	.align	1
	.globl	bl_rx_event_register
	.type	bl_rx_event_register, @function
bl_rx_event_register:
.LFB45:
	.loc 1 188 1 is_stmt 1
	.cfi_startproc
.LVL170:
	.loc 1 189 5
	.loc 1 189 14 is_stmt 0
	lui	a5,%hi(.LANCHOR2)
	sw	a1,%lo(.LANCHOR2)(a5)
	.loc 1 190 5 is_stmt 1
	.loc 1 190 18 is_stmt 0
	lui	a5,%hi(.LANCHOR3)
	sw	a0,%lo(.LANCHOR3)(a5)
	.loc 1 192 5 is_stmt 1
	.loc 1 193 1 is_stmt 0
	li	a0,0
.LVL171:
	ret
	.cfi_endproc
.LFE45:
	.size	bl_rx_event_register, .-bl_rx_event_register
	.section	.text.bl_rx_event_unregister,"ax",@progbits
	.align	1
	.globl	bl_rx_event_unregister
	.type	bl_rx_event_unregister, @function
bl_rx_event_unregister:
.LFB46:
	.loc 1 196 1 is_stmt 1
	.cfi_startproc
.LVL172:
	.loc 1 197 5
	.loc 1 197 14 is_stmt 0
	lui	a5,%hi(.LANCHOR2)
	sw	zero,%lo(.LANCHOR2)(a5)
	.loc 1 198 5 is_stmt 1
	.loc 1 198 18 is_stmt 0
	lui	a5,%hi(.LANCHOR3)
	sw	zero,%lo(.LANCHOR3)(a5)
	.loc 1 200 5 is_stmt 1
	.loc 1 201 1 is_stmt 0
	li	a0,0
.LVL173:
	ret
	.cfi_endproc
.LFE46:
	.size	bl_rx_event_unregister, .-bl_rx_event_unregister
	.section	.rodata.wifi_mgmr_get_sm_status_code_str.str1.4,"aMS",@progbits,1
	.align	2
.LC15:
	.string	"Unknown Code"
	.section	.text.wifi_mgmr_get_sm_status_code_str,"ax",@progbits
	.align	1
	.globl	wifi_mgmr_get_sm_status_code_str
	.type	wifi_mgmr_get_sm_status_code_str, @function
wifi_mgmr_get_sm_status_code_str:
.LFB61:
	.loc 1 575 1 is_stmt 1
	.cfi_startproc
.LVL174:
	.loc 1 576 5
.LBB76:
.LBB77:
	.loc 1 560 5
	.loc 1 562 5
	.loc 1 562 17
	lui	a5,%hi(.LANCHOR12)
	addi	a5,a5,%lo(.LANCHOR12)
	addi	a4,a5,208
.LVL175:
.L121:
	.loc 1 563 9
	.loc 1 563 12 is_stmt 0
	lhu	a3,0(a5)
	beq	a3,a0,.L120
	.loc 1 562 26 is_stmt 1
	.loc 1 562 17
	.loc 1 562 5 is_stmt 0
	addi	a5,a5,8
	bne	a4,a5,.L121
	.loc 1 568 16
	lui	a0,%hi(.LC15)
.LVL176:
	addi	a0,a0,%lo(.LC15)
.LVL177:
.LBE77:
.LBE76:
	.loc 1 576 12
	ret
.LVL178:
.L120:
.LBB79:
.LBB78:
	.loc 1 567 5 is_stmt 1
	.loc 1 571 5
	.loc 1 571 19 is_stmt 0
	lw	a0,4(a5)
.LVL179:
.LBE78:
.LBE79:
	.loc 1 577 1
	ret
	.cfi_endproc
.LFE61:
	.size	wifi_mgmr_get_sm_status_code_str, .-wifi_mgmr_get_sm_status_code_str
	.section	.rodata.bl_rx_sm_disconnect_ind.str1.4,"aMS",@progbits,1
	.align	2
.LC16:
	.string	"0.0.0.0"
	.align	2
.LC17:
	.string	"[RX]   sm_disconnect_ind\r\n       status_code %u\r\n       802.11 reason_code %u\r\n"
	.align	2
.LC18:
	.string	"[RX]   disconnect reason: %s\r\n"
	.align	2
.LC19:
	.string	"[RX]   vif_idx %u\r\n"
	.align	2
.LC20:
	.string	"[RX]   ft_over_ds %u\r\n"
	.section	.text.bl_rx_sm_disconnect_ind,"ax",@progbits
	.align	1
	.type	bl_rx_sm_disconnect_ind, @function
bl_rx_sm_disconnect_ind:
.LFB64:
	.loc 1 677 1 is_stmt 1
	.cfi_startproc
.LVL180:
	.loc 1 678 5
	.loc 1 677 1 is_stmt 0
	addi	sp,sp,-48
	.cfi_def_cfa_offset 48
	sw	s2,32(sp)
	.cfi_offset 18, -16
	mv	s2,a0
	.loc 1 685 21
	lui	a0,%hi(.LC16)
.LVL181:
	.loc 1 677 1
	sw	s1,36(sp)
	.loc 1 685 21
	addi	a0,a0,%lo(.LC16)
	.cfi_offset 9, -12
	.loc 1 686 19
	lui	s1,%hi(g_bl_ops_funcs)
	.loc 1 677 1
	sw	ra,44(sp)
	.loc 1 686 19
	addi	s1,s1,%lo(g_bl_ops_funcs)
	.loc 1 677 1
	sw	s0,40(sp)
	sw	s3,28(sp)
	.cfi_offset 1, -4
	.cfi_offset 8, -8
	.cfi_offset 19, -20
	.loc 1 677 1
	mv	s0,a2
.LVL182:
	.loc 1 679 5 is_stmt 1
	.loc 1 680 5
	.loc 1 681 5
	.loc 1 683 5
	.loc 1 683 9
	.loc 1 683 17
	.loc 1 685 5
	.loc 1 685 21 is_stmt 0
	call	ipaddr_addr
.LVL183:
	.loc 1 686 5
	lw	a5,4(s1)
	lhu	a2,18(s0)
	lhu	a1,16(s0)
	.loc 1 685 19
	sw	a0,0(sp)
	.loc 1 686 5 is_stmt 1
	lui	a0,%hi(.LC17)
	addi	a0,a0,%lo(.LC17)
	jalr	a5
.LVL184:
	.loc 1 689 5
	lhu	a0,16(s0)
	.loc 1 689 19 is_stmt 0
	lw	s3,4(s1)
	.loc 1 689 5
	call	wifi_mgmr_get_sm_status_code_str
.LVL185:
	mv	a1,a0
	lui	a0,%hi(.LC18)
	addi	a0,a0,%lo(.LC18)
	jalr	s3
.LVL186:
	.loc 1 690 5 is_stmt 1
	lw	a5,4(s1)
	lbu	a1,20(s0)
	lui	a0,%hi(.LC19)
	addi	a0,a0,%lo(.LC19)
	jalr	a5
.LVL187:
	.loc 1 691 5
	lw	a5,4(s1)
	lbu	a1,21(s0)
	lui	a0,%hi(.LC20)
	addi	a0,a0,%lo(.LC20)
	.loc 1 693 9 is_stmt 0
	lui	s1,%hi(.LANCHOR8)
	.loc 1 691 5
	jalr	a5
.LVL188:
	.loc 1 693 5 is_stmt 1
	.loc 1 693 9 is_stmt 0
	addi	s1,s1,%lo(.LANCHOR8)
	.loc 1 693 8
	lw	a5,0(s1)
	beq	a5,zero,.L125
	.loc 1 694 9 is_stmt 1
	li	a1,0
	li	a2,12
	addi	a0,sp,4
	call	memset
.LVL189:
	.loc 1 695 9
	.loc 1 695 29 is_stmt 0
	lhu	a5,16(s0)
	.loc 1 699 9
	lui	a4,%hi(.LANCHOR9)
	lw	a0,%lo(.LANCHOR9)(a4)
	.loc 1 695 29
	sh	a5,4(sp)
	.loc 1 696 9 is_stmt 1
	.loc 1 696 29 is_stmt 0
	lhu	a5,18(s0)
	.loc 1 699 9
	addi	a1,sp,4
	.loc 1 696 29
	sh	a5,6(sp)
	.loc 1 697 9 is_stmt 1
	.loc 1 697 25 is_stmt 0
	lbu	a5,20(s0)
	sb	a5,8(sp)
	.loc 1 698 9 is_stmt 1
	.loc 1 698 33 is_stmt 0
	lbu	a5,21(s0)
	sw	a5,12(sp)
	.loc 1 699 9 is_stmt 1
	lw	a5,0(s1)
	jalr	a5
.LVL190:
.L125:
	.loc 1 703 5
	.loc 1 703 36 is_stmt 0
	lbu	s0,20(s0)
.LVL191:
	.loc 1 704 5 is_stmt 1
	.loc 1 704 25 is_stmt 0
	li	a0,28
	mul	s0,s0,a0
.LVL192:
	add	s0,s2,s0
	lw	a0,72(s0)
	.loc 1 704 16
	beq	a0,zero,.L126
	.loc 1 705 9 is_stmt 1
	lui	a1,%hi(netif_set_link_down)
	li	a2,0
	addi	a1,a1,%lo(netif_set_link_down)
	call	netifapi_netif_common
.LVL193:
	.loc 1 706 9
	lw	a0,72(s0)
	mv	a3,sp
	mv	a2,a3
	mv	a1,a3
	call	netifapi_netif_set_addr
.LVL194:
.L126:
	.loc 1 708 5
	.loc 1 708 9
	.loc 1 708 17
	.loc 1 709 5
	.loc 1 710 1 is_stmt 0
	lw	ra,44(sp)
	.cfi_restore 1
	lw	s0,40(sp)
	.cfi_restore 8
	lw	s1,36(sp)
	.cfi_restore 9
	lw	s2,32(sp)
	.cfi_restore 18
.LVL195:
	lw	s3,28(sp)
	.cfi_restore 19
	li	a0,0
	addi	sp,sp,48
	.cfi_def_cfa_offset 0
	jr	ra
	.cfi_endproc
.LFE64:
	.size	bl_rx_sm_disconnect_ind, .-bl_rx_sm_disconnect_ind
	.section	.rodata.bl_rx_sm_connect_ind.str1.4,"aMS",@progbits,1
	.align	2
.LC21:
	.string	"[RX] Connection Status\r\n"
	.align	2
.LC22:
	.string	"[RX]   status_code %u\r\n"
	.align	2
.LC23:
	.string	"[RX]   reason_code %u\r\n"
	.align	2
.LC24:
	.string	"[RX]   connect result: %s\r\n"
	.align	2
.LC25:
	.string	"[RX]   MAC %02X:%02X:%02X:%02X:%02X:%02X\r\n"
	.align	2
.LC26:
	.string	"[RX]   ap_idx %u\r\n"
	.align	2
.LC27:
	.string	"[RX]   ch_idx %u\r\n"
	.align	2
.LC28:
	.string	"[RX]   qos %u\r\n"
	.align	2
.LC29:
	.string	"[RX]   acm %u\r\n"
	.align	2
.LC30:
	.string	"[RX]   assoc_req_ie_len %u\r\n"
	.align	2
.LC31:
	.string	"[RX]   assoc_rsp_ie_len %u\r\n"
	.align	2
.LC32:
	.string	"[RX]   aid %u\r\n"
	.align	2
.LC33:
	.string	"[RX]   band %u\r\n"
	.align	2
.LC34:
	.string	"[RX]   center_freq %u\r\n"
	.align	2
.LC35:
	.string	"[RX]   width %u\r\n"
	.align	2
.LC36:
	.string	"[RX]   center_freq1 %u\r\n"
	.align	2
.LC37:
	.string	"[RX]   center_freq2 %u\r\n"
	.align	2
.LC38:
	.string	"[RX]  -------- CRITICAL when check netif. ptr is %p:%p\r\n"
	.section	.text.bl_rx_sm_connect_ind,"ax",@progbits
	.align	1
	.type	bl_rx_sm_connect_ind, @function
bl_rx_sm_connect_ind:
.LFB63:
	.loc 1 587 1 is_stmt 1
	.cfi_startproc
.LVL196:
	.loc 1 588 5
	.loc 1 587 1 is_stmt 0
	addi	sp,sp,-80
	.cfi_def_cfa_offset 80
	sw	s3,60(sp)
	.cfi_offset 19, -20
	.loc 1 596 19
	lui	s3,%hi(g_bl_ops_funcs)
	.loc 1 587 1
	sw	s1,68(sp)
	.cfi_offset 9, -12
	.loc 1 596 19
	addi	s1,s3,%lo(g_bl_ops_funcs)
	.loc 1 596 5
	lw	a5,4(s1)
	.loc 1 587 1
	sw	s2,64(sp)
	.cfi_offset 18, -16
	mv	s2,a0
	.loc 1 596 5
	lui	a0,%hi(.LC21)
.LVL197:
	.loc 1 587 1
	sw	ra,76(sp)
	sw	s0,72(sp)
	sw	s4,56(sp)
	.cfi_offset 1, -4
	.cfi_offset 8, -8
	.cfi_offset 20, -24
	.loc 1 596 5
	addi	a0,a0,%lo(.LC21)
	.loc 1 587 1
	mv	s0,a2
.LVL198:
	.loc 1 589 5 is_stmt 1
	.loc 1 590 5
	.loc 1 591 5
	.loc 1 593 5
	.loc 1 594 5
	.loc 1 594 9
	.loc 1 594 17
	.loc 1 596 5
	jalr	a5
.LVL199:
	.loc 1 597 5
	lw	a5,4(s1)
	lhu	a1,16(s0)
	lui	a0,%hi(.LC22)
	addi	a0,a0,%lo(.LC22)
	jalr	a5
.LVL200:
	.loc 1 598 5
	lw	a5,4(s1)
	lhu	a1,18(s0)
	lui	a0,%hi(.LC23)
	addi	a0,a0,%lo(.LC23)
	jalr	a5
.LVL201:
	.loc 1 599 5
	lhu	a0,16(s0)
	.loc 1 599 19 is_stmt 0
	lw	s4,4(s1)
	addi	s3,s3,%lo(g_bl_ops_funcs)
	.loc 1 599 5
	call	wifi_mgmr_get_sm_status_code_str
.LVL202:
	mv	a1,a0
	lui	a0,%hi(.LC24)
	addi	a0,a0,%lo(.LC24)
	jalr	s4
.LVL203:
	.loc 1 600 5 is_stmt 1
	lw	a7,4(s1)
	lbu	a6,25(s0)
	lbu	a4,23(s0)
	lbu	a3,22(s0)
	lbu	a2,21(s0)
	lbu	a5,24(s0)
	lbu	a1,20(s0)
	lui	a0,%hi(.LC25)
	addi	a0,a0,%lo(.LC25)
	jalr	a7
.LVL204:
	.loc 1 608 5
	lw	a5,4(s1)
	lbu	a1,27(s0)
	lui	a0,%hi(.LC19)
	addi	a0,a0,%lo(.LC19)
	jalr	a5
.LVL205:
	.loc 1 609 5
	lw	a5,4(s1)
	lbu	a1,28(s0)
	lui	a0,%hi(.LC26)
	addi	a0,a0,%lo(.LC26)
	jalr	a5
.LVL206:
	.loc 1 610 5
	lw	a5,4(s1)
	lbu	a1,29(s0)
	lui	a0,%hi(.LC27)
	addi	a0,a0,%lo(.LC27)
	jalr	a5
.LVL207:
	.loc 1 611 5
	lw	a5,4(s1)
	lbu	a1,30(s0)
	lui	a0,%hi(.LC28)
	addi	a0,a0,%lo(.LC28)
	jalr	a5
.LVL208:
	.loc 1 612 5
	lw	a5,4(s1)
	lbu	a1,31(s0)
	lui	a0,%hi(.LC29)
	addi	a0,a0,%lo(.LC29)
	jalr	a5
.LVL209:
	.loc 1 613 5
	lw	a5,4(s1)
	lhu	a1,32(s0)
	lui	a0,%hi(.LC30)
	addi	a0,a0,%lo(.LC30)
	jalr	a5
.LVL210:
	.loc 1 614 5
	lw	a5,4(s1)
	lhu	a1,34(s0)
	lui	a0,%hi(.LC31)
	addi	a0,a0,%lo(.LC31)
	jalr	a5
.LVL211:
	.loc 1 615 5
	lw	a5,4(s1)
	lhu	a1,836(s0)
	lui	a0,%hi(.LC32)
	addi	a0,a0,%lo(.LC32)
	jalr	a5
.LVL212:
	.loc 1 616 5
	lw	a5,4(s1)
	lbu	a1,838(s0)
	lui	a0,%hi(.LC33)
	addi	a0,a0,%lo(.LC33)
	jalr	a5
.LVL213:
	.loc 1 617 5
	lw	a5,4(s1)
	lhu	a1,840(s0)
	lui	a0,%hi(.LC34)
	addi	a0,a0,%lo(.LC34)
	jalr	a5
.LVL214:
	.loc 1 618 5
	lw	a5,4(s1)
	lbu	a1,842(s0)
	lui	a0,%hi(.LC35)
	addi	a0,a0,%lo(.LC35)
	jalr	a5
.LVL215:
	.loc 1 619 5
	lw	a5,4(s1)
	lw	a1,844(s0)
	lui	a0,%hi(.LC36)
	addi	a0,a0,%lo(.LC36)
	jalr	a5
.LVL216:
	.loc 1 620 5
	lw	a5,4(s1)
	lw	a1,848(s0)
	lui	a0,%hi(.LC37)
	addi	a0,a0,%lo(.LC37)
	jalr	a5
.LVL217:
	.loc 1 622 5
	.loc 1 622 8 is_stmt 0
	lhu	a5,16(s0)
	bne	a5,zero,.L135
	.loc 1 623 9 is_stmt 1
	.loc 1 623 29 is_stmt 0
	lbu	a5,28(s0)
	.loc 1 624 22
	li	a4,1
	sw	a4,0(s2)
	.loc 1 626 18
	li	a4,24
	.loc 1 623 24
	sw	a5,468(s2)
	.loc 1 624 9 is_stmt 1
	.loc 1 625 9
.LVL218:
	.loc 1 626 9
	.loc 1 626 18 is_stmt 0
	mul	a5,a5,a4
.LVL219:
	lbu	a4,30(s0)
	add	a5,s2,a5
	sb	a4,270(a5)
.LVL220:
.L136:
	.loc 1 630 5 is_stmt 1
	.loc 1 630 9
	.loc 1 630 17
	.loc 1 632 5
	li	a2,36
	li	a1,0
	addi	a0,sp,12
	call	memset
.LVL221:
	.loc 1 633 5
	.loc 1 634 5
	.loc 1 635 5
	.loc 1 636 5
	.loc 1 637 5
	.loc 1 638 5
	.loc 1 639 5
	.loc 1 640 5
	.loc 1 633 25 is_stmt 0
	lw	a5,16(s0)
	sw	a5,12(sp)
	.loc 1 635 22
	lw	a5,20(s0)
	sw	a5,16(sp)
	.loc 1 639 22
	lhu	a5,24(s0)
	sh	a5,20(sp)
	.loc 1 641 5 is_stmt 1
	.loc 1 641 21 is_stmt 0
	lbu	a5,27(s0)
	sb	a5,22(sp)
	.loc 1 642 5 is_stmt 1
	.loc 1 642 20 is_stmt 0
	lbu	a5,28(s0)
	sb	a5,23(sp)
	.loc 1 643 5 is_stmt 1
	.loc 1 643 20 is_stmt 0
	lbu	a5,29(s0)
	sb	a5,24(sp)
	.loc 1 644 5 is_stmt 1
	.loc 1 644 22 is_stmt 0
	lbu	a5,30(s0)
	sw	a5,28(sp)
	.loc 1 645 5 is_stmt 1
	.loc 1 645 17 is_stmt 0
	lhu	a5,836(s0)
	sh	a5,32(sp)
	.loc 1 646 5 is_stmt 1
	.loc 1 646 18 is_stmt 0
	lbu	a5,838(s0)
	sb	a5,34(sp)
	.loc 1 647 5 is_stmt 1
	.loc 1 647 25 is_stmt 0
	lhu	a5,840(s0)
	sh	a5,36(sp)
	.loc 1 648 5 is_stmt 1
	.loc 1 648 19 is_stmt 0
	lbu	a5,842(s0)
	sb	a5,38(sp)
	.loc 1 649 5 is_stmt 1
	.loc 1 649 26 is_stmt 0
	addi	a5,s0,768
	lw	a4,76(a5)
	.loc 1 650 26
	lw	a5,80(a5)
	.loc 1 649 26
	sw	a4,40(sp)
	.loc 1 650 5 is_stmt 1
	.loc 1 650 26 is_stmt 0
	sw	a5,44(sp)
	.loc 1 652 5 is_stmt 1
	.loc 1 652 9 is_stmt 0
	lui	a5,%hi(.LANCHOR6)
	lw	a5,%lo(.LANCHOR6)(a5)
	.loc 1 652 8
	beq	a5,zero,.L137
	.loc 1 653 9 is_stmt 1
	lui	a4,%hi(.LANCHOR7)
	lw	a0,%lo(.LANCHOR7)(a4)
	addi	a1,sp,12
	jalr	a5
.LVL222:
.L137:
	.loc 1 656 5
	.loc 1 656 8 is_stmt 0
	lhu	a5,16(s0)
	bne	a5,zero,.L138
	.loc 1 660 9 is_stmt 1
	.loc 1 660 40 is_stmt 0
	lbu	a0,27(s0)
	.loc 1 660 16
	li	a5,28
	mul	a0,a0,a5
	addi	a1,a0,64
	add	a1,s2,a1
.LVL223:
	.loc 1 661 9 is_stmt 1
	.loc 1 661 29 is_stmt 0
	add	s2,s2,a0
.LVL224:
	lw	a0,72(s2)
	.loc 1 661 20
	beq	a0,zero,.L139
	.loc 1 662 13 is_stmt 1
	lui	a1,%hi(netif_set_link_up)
.LVL225:
	li	a2,0
	addi	a1,a1,%lo(netif_set_link_up)
	call	netifapi_netif_common
.LVL226:
	.loc 1 663 13
	lw	a0,72(s2)
	lui	a1,%hi(netif_set_default)
	li	a2,0
	addi	a1,a1,%lo(netif_set_default)
	call	netifapi_netif_common
.LVL227:
.L138:
	.loc 1 671 5
	.loc 1 672 1 is_stmt 0
	lw	ra,76(sp)
	.cfi_remember_state
	.cfi_restore 1
	lw	s0,72(sp)
	.cfi_restore 8
.LVL228:
	lw	s1,68(sp)
	.cfi_restore 9
	lw	s2,64(sp)
	.cfi_restore 18
	lw	s3,60(sp)
	.cfi_restore 19
	lw	s4,56(sp)
	.cfi_restore 20
	li	a0,0
	addi	sp,sp,80
	.cfi_def_cfa_offset 0
	jr	ra
.LVL229:
.L135:
	.cfi_restore_state
	.loc 1 628 9 is_stmt 1
	.loc 1 628 22 is_stmt 0
	sw	zero,0(s2)
	j	.L136
.LVL230:
.L139:
	.loc 1 665 13 is_stmt 1
	lw	a5,4(s3)
	lui	a0,%hi(.LC38)
	li	a2,0
	addi	a0,a0,%lo(.LC38)
	jalr	a5
.LVL231:
	j	.L138
	.cfi_endproc
.LFE63:
	.size	bl_rx_sm_connect_ind, .-bl_rx_sm_connect_ind
	.section	.text.wifi_mgmr_get_apm_status_code_str,"ax",@progbits
	.align	1
	.globl	wifi_mgmr_get_apm_status_code_str
	.type	wifi_mgmr_get_apm_status_code_str, @function
wifi_mgmr_get_apm_status_code_str:
.LFB62:
	.loc 1 580 1
	.cfi_startproc
.LVL232:
	.loc 1 581 5
.LBB82:
.LBB83:
	.loc 1 560 5
	.loc 1 562 5
	.loc 1 562 17
	lui	a5,%hi(.LANCHOR13)
	addi	a5,a5,%lo(.LANCHOR13)
	addi	a4,a5,48
.LVL233:
.L146:
	.loc 1 563 9
	.loc 1 563 12 is_stmt 0
	lhu	a3,0(a5)
	beq	a3,a0,.L145
	.loc 1 562 26 is_stmt 1
	.loc 1 562 17
	.loc 1 562 5 is_stmt 0
	addi	a5,a5,8
	bne	a4,a5,.L146
	.loc 1 568 16
	lui	a0,%hi(.LC15)
.LVL234:
	addi	a0,a0,%lo(.LC15)
.LVL235:
.LBE83:
.LBE82:
	.loc 1 581 12
	ret
.LVL236:
.L145:
.LBB85:
.LBB84:
	.loc 1 567 5 is_stmt 1
	.loc 1 571 5
	.loc 1 571 19 is_stmt 0
	lw	a0,4(a5)
.LVL237:
.LBE84:
.LBE85:
	.loc 1 582 1
	ret
	.cfi_endproc
.LFE62:
	.size	wifi_mgmr_get_apm_status_code_str, .-wifi_mgmr_get_apm_status_code_str
	.section	.rodata.bl_rx_apm_sta_del_ind.str1.4,"aMS",@progbits,1
	.align	2
.LC39:
	.string	"[WF] APM_STA_DEL_IND\r\n"
	.align	2
.LC40:
	.string	"[WF]    statuts_code %u\r\n"
	.align	2
.LC41:
	.string	"[WF]    reason_code %u\r\n"
	.align	2
.LC42:
	.string	"[RX]    disconnect reason: %s\r\n"
	.align	2
.LC43:
	.string	"[WF]    -------------------------Warning: sta_idx already empty: %d\r\n"
	.align	2
.LC44:
	.string	"[WF]    --------- Potential illegal sta_idx\r\n"
	.section	.text.bl_rx_apm_sta_del_ind,"ax",@progbits
	.align	1
	.type	bl_rx_apm_sta_del_ind, @function
bl_rx_apm_sta_del_ind:
.LFB66:
	.loc 1 761 1 is_stmt 1
	.cfi_startproc
.LVL238:
	.loc 1 762 5
	.loc 1 761 1 is_stmt 0
	addi	sp,sp,-32
	.cfi_def_cfa_offset 32
	sw	s0,24(sp)
	.cfi_offset 8, -8
	.loc 1 765 19
	lui	s0,%hi(g_bl_ops_funcs)
	addi	s0,s0,%lo(g_bl_ops_funcs)
	.loc 1 765 5
	lw	a5,4(s0)
	.loc 1 761 1
	sw	s2,16(sp)
	.cfi_offset 18, -16
	mv	s2,a0
	.loc 1 765 5
	lui	a0,%hi(.LC39)
.LVL239:
	.loc 1 761 1
	sw	ra,28(sp)
	sw	s1,20(sp)
	sw	s3,12(sp)
	.cfi_offset 1, -4
	.cfi_offset 9, -12
	.cfi_offset 19, -20
	.loc 1 765 5
	addi	a0,a0,%lo(.LC39)
	.loc 1 761 1
	mv	s1,a2
.LVL240:
	.loc 1 763 5 is_stmt 1
	.loc 1 765 5
	jalr	a5
.LVL241:
	.loc 1 766 5
	lw	a5,4(s0)
	lbu	a1,20(s1)
	lui	a0,%hi(.LC9)
	addi	a0,a0,%lo(.LC9)
	jalr	a5
.LVL242:
	.loc 1 767 5
	lw	a5,4(s0)
	lhu	a1,16(s1)
	lui	a0,%hi(.LC40)
	addi	a0,a0,%lo(.LC40)
	jalr	a5
.LVL243:
	.loc 1 768 5
	lw	a5,4(s0)
	lhu	a1,18(s1)
	lui	a0,%hi(.LC41)
	addi	a0,a0,%lo(.LC41)
	jalr	a5
.LVL244:
	.loc 1 769 5
	lhu	a0,16(s1)
	.loc 1 769 19 is_stmt 0
	lw	s3,4(s0)
	.loc 1 769 5
	call	wifi_mgmr_get_apm_status_code_str
.LVL245:
	mv	a1,a0
	lui	a0,%hi(.LC42)
	addi	a0,a0,%lo(.LC42)
	jalr	s3
.LVL246:
	.loc 1 771 5 is_stmt 1
	.loc 1 771 12 is_stmt 0
	lbu	s3,20(s1)
	.loc 1 771 8
	li	a5,6
	bgtu	s3,a5,.L150
	.loc 1 772 9 is_stmt 1
.LVL247:
	.loc 1 773 9
	.loc 1 773 21 is_stmt 0
	li	a5,24
	mul	a5,s3,a5
	add	a5,s2,a5
	.loc 1 773 12
	lbu	a5,266(a5)
	bne	a5,zero,.L151
	.loc 1 774 13 is_stmt 1
	lw	a6,204(s0)
	lui	a4,%hi(.LC43)
	lui	a2,%hi(.LC4)
	mv	a5,s3
	addi	a4,a4,%lo(.LC43)
	li	a3,774
	addi	a2,a2,%lo(.LC4)
	li	a1,0
	li	a0,2
	jalr	a6
.LVL248:
.L151:
	.loc 1 774 119 discriminator 1
	.loc 1 776 9 discriminator 1
	.loc 1 776 22 is_stmt 0 discriminator 1
	li	a5,24
	mul	s3,s3,a5
.LVL249:
	add	s3,s2,s3
	sb	zero,266(s3)
.L152:
	.loc 1 780 5 is_stmt 1
	lbu	a2,20(s1)
	li	a1,22
	li	a0,2
	call	aos_post_event
.LVL250:
	.loc 1 782 5
	.loc 1 783 1 is_stmt 0
	lw	ra,28(sp)
	.cfi_remember_state
	.cfi_restore 1
	lw	s0,24(sp)
	.cfi_restore 8
	lw	s1,20(sp)
	.cfi_restore 9
.LVL251:
	lw	s2,16(sp)
	.cfi_restore 18
.LVL252:
	lw	s3,12(sp)
	.cfi_restore 19
	li	a0,0
	addi	sp,sp,32
	.cfi_def_cfa_offset 0
	jr	ra
.LVL253:
.L150:
	.cfi_restore_state
	.loc 1 778 9 is_stmt 1
	lw	a5,4(s0)
	lui	a0,%hi(.LC44)
	addi	a0,a0,%lo(.LC44)
	jalr	a5
.LVL254:
	j	.L152
	.cfi_endproc
.LFE66:
	.size	bl_rx_apm_sta_del_ind, .-bl_rx_apm_sta_del_ind
	.section	.text.bl_rx_handle_msg,"ax",@progbits
	.align	1
	.globl	bl_rx_handle_msg
	.type	bl_rx_handle_msg, @function
bl_rx_handle_msg:
.LFB67:
	.loc 1 802 1
	.cfi_startproc
.LVL255:
	.loc 1 804 5
	.loc 1 804 65 is_stmt 0
	lw	a5,0(a1)
	.loc 1 804 5
	addi	a0,a0,4
.LVL256:
	.loc 1 804 71
	srli	a4,a5,10
	.loc 1 804 58
	slli	a3,a4,2
	lui	a4,%hi(.LANCHOR14)
	addi	a4,a4,%lo(.LANCHOR14)
	add	a4,a4,a3
	.loc 1 804 5
	lw	a4,0(a4)
	.loc 1 804 91
	andi	a5,a5,1023
	.loc 1 804 5
	slli	a5,a5,2
	add	a5,a4,a5
	lw	a2,0(a5)
	lw	a4,36(a0)
	jr	a4
.LVL257:
	.cfi_endproc
.LFE67:
	.size	bl_rx_handle_msg, .-bl_rx_handle_msg
	.section	.text.bl_rx_e2a_handler,"ax",@progbits
	.align	1
	.globl	bl_rx_e2a_handler
	.type	bl_rx_e2a_handler, @function
bl_rx_e2a_handler:
.LFB68:
	.loc 1 808 1 is_stmt 1
	.cfi_startproc
.LVL258:
	.loc 1 809 5
	.loc 1 812 5
	.loc 1 812 67 is_stmt 0
	lw	a5,0(a0)
	.loc 1 808 1
	mv	a1,a0
	.loc 1 812 5
	lui	a0,%hi(wifi_hw+4)
.LVL259:
	.loc 1 812 73
	srli	a4,a5,10
	.loc 1 812 60
	slli	a3,a4,2
	lui	a4,%hi(.LANCHOR14)
	addi	a4,a4,%lo(.LANCHOR14)
	add	a4,a4,a3
	.loc 1 812 5
	lw	a4,0(a4)
	.loc 1 812 93
	andi	a5,a5,1023
	.loc 1 812 5
	slli	a5,a5,2
	add	a5,a4,a5
	.loc 1 812 20
	lui	a4,%hi(wifi_hw+40)
	.loc 1 812 5
	lw	a4,%lo(wifi_hw+40)(a4)
	lw	a2,0(a5)
	addi	a0,a0,%lo(wifi_hw+4)
	jr	a4
.LVL260:
	.cfi_endproc
.LFE68:
	.size	bl_rx_e2a_handler, .-bl_rx_e2a_handler
	.section	.text.bl_rx_pkt_cb,"ax",@progbits
	.align	1
	.globl	bl_rx_pkt_cb
	.type	bl_rx_pkt_cb, @function
bl_rx_pkt_cb:
.LFB69:
	.loc 1 816 1 is_stmt 1
	.cfi_startproc
.LVL261:
	.loc 1 817 5
	.loc 1 817 9 is_stmt 0
	lui	a5,%hi(.LANCHOR10)
	lw	a5,%lo(.LANCHOR10)(a5)
	.loc 1 816 1
	mv	a2,a1
	.loc 1 817 8
	beq	a5,zero,.L156
	.loc 1 818 9 is_stmt 1
	lui	a4,%hi(.LANCHOR11)
	mv	a1,a0
.LVL262:
	lw	a0,%lo(.LANCHOR11)(a4)
.LVL263:
	jr	a5
.LVL264:
.L156:
	.loc 1 820 1 is_stmt 0
	ret
	.cfi_endproc
.LFE69:
	.size	bl_rx_pkt_cb, .-bl_rx_pkt_cb
	.section	.rodata.str1.4,"aMS",@progbits,1
	.align	2
.LC45:
	.string	"apm connect ind ok"
	.align	2
.LC46:
	.string	"User delete STA"
	.align	2
.LC47:
	.string	"STA send deauth to AP"
	.align	2
.LC48:
	.string	"STA send disassociate to AP"
	.align	2
.LC49:
	.string	"timeout and delete connection"
	.align	2
.LC50:
	.string	"Delete STA for new connection"
	.align	2
.LC51:
	.string	"sm connect ind ok"
	.align	2
.LC52:
	.string	"tx auth frame alloc failure"
	.align	2
.LC53:
	.string	"Authentication failure"
	.align	2
.LC54:
	.string	"Auth response but auth algo failure"
	.align	2
.LC55:
	.string	"tx assoc frame alloc failure"
	.align	2
.LC56:
	.string	"Association failure"
	.align	2
.LC57:
	.string	"deauth by AP when connecting"
	.align	2
.LC58:
	.string	"deauth by AP when connected"
	.align	2
.LC59:
	.string	"Passwd error, 4-way handshake timeout"
	.align	2
.LC60:
	.string	"Passwd error, tx deauth frame transmit failure"
	.align	2
.LC61:
	.string	"Passwd error, tx deauth frame allocate failure"
	.align	2
.LC62:
	.string	"auth or associate frame response timeout failure"
	.align	2
.LC63:
	.string	"SSID error, scan no bssid and channel"
	.align	2
.LC64:
	.string	"create channel context failure when join network"
	.align	2
.LC65:
	.string	"join network failure"
	.align	2
.LC66:
	.string	"add sta failure"
	.align	2
.LC67:
	.string	"ap beacon loss"
	.align	2
.LC68:
	.string	"network security no match"
	.align	2
.LC69:
	.string	"wep network psk len error"
	.align	2
.LC70:
	.string	"user disconnect and send deauth"
	.align	2
.LC71:
	.string	"user disconnect but no send deauth"
	.align	2
.LC72:
	.string	"fw disconnect(tx nullframe failures)"
	.align	2
.LC73:
	.string	"user connect abort and send deauth"
	.align	2
.LC74:
	.string	"user connect abort without sending deauth"
	.align	2
.LC75:
	.string	"user connect abort when joining network"
	.align	2
.LC76:
	.string	"user connect abort when scanning"
	.comm	cfg_start_req_u_tlv_t,12,4
	.section	.rodata
	.align	2
.LC12:
	.string	""
	.string	"P\362\004"
	.zero	3
.LC13:
	.string	""
	.string	"P\362\001"
	.section	.rodata.apm_hdlrs,"a"
	.align	2
	.type	apm_hdlrs, @object
	.size	apm_hdlrs, 44
apm_hdlrs:
	.zero	16
	.word	bl_rx_apm_sta_add_ind
	.word	bl_rx_apm_sta_del_ind
	.zero	20
	.section	.rodata.apm_reason_list,"a"
	.align	2
	.set	.LANCHOR13,. + 0
	.type	apm_reason_list, @object
	.size	apm_reason_list, 48
apm_reason_list:
	.half	0
	.zero	2
	.word	.LC45
	.half	1
	.zero	2
	.word	.LC46
	.half	2
	.zero	2
	.word	.LC47
	.half	3
	.zero	2
	.word	.LC48
	.half	4
	.zero	2
	.word	.LC49
	.half	5
	.zero	2
	.word	.LC50
	.section	.rodata.me_hdlrs,"a"
	.align	2
	.type	me_hdlrs, @object
	.size	me_hdlrs, 68
me_hdlrs:
	.zero	16
	.word	bl_comman_ind
	.zero	16
	.word	bl_comman_ind
	.zero	28
	.section	.rodata.mm_hdlrs,"a"
	.align	2
	.type	mm_hdlrs, @object
	.size	mm_hdlrs, 308
mm_hdlrs:
	.zero	200
	.word	bl_rx_chan_switch_ind
	.word	bl_comman_ind
	.zero	8
	.word	bl_comman_ind
	.word	bl_comman_ind
	.word	bl_comman_ind
	.zero	12
	.word	bl_comman_ind
	.zero	24
	.word	bl_rx_rssi_status_ind
	.zero	36
	.section	.rodata.msg_hdlrs,"a"
	.align	2
	.set	.LANCHOR14,. + 0
	.type	msg_hdlrs, @object
	.size	msg_hdlrs, 36
msg_hdlrs:
	.word	mm_hdlrs
	.zero	4
	.word	scan_hdlrs
	.word	me_hdlrs
	.word	sm_hdlrs
	.word	apm_hdlrs
	.zero	8
	.word	cfg_hdlrs
	.section	.rodata.scan_hdlrs,"a"
	.align	2
	.type	scan_hdlrs, @object
	.size	scan_hdlrs, 28
scan_hdlrs:
	.zero	4
	.word	bl_rx_scanu_start_cfm
	.zero	4
	.word	bl_rx_scanu_join_cfm
	.word	bl_rx_scanu_result_ind
	.zero	8
	.section	.rodata.sm_hdlrs,"a"
	.align	2
	.type	sm_hdlrs, @object
	.size	sm_hdlrs, 36
sm_hdlrs:
	.zero	8
	.word	bl_rx_sm_connect_ind
	.zero	8
	.word	bl_rx_sm_disconnect_ind
	.zero	12
	.section	.rodata.sm_reason_list,"a"
	.align	2
	.set	.LANCHOR12,. + 0
	.type	sm_reason_list, @object
	.size	sm_reason_list, 208
sm_reason_list:
	.half	0
	.zero	2
	.word	.LC51
	.half	1
	.zero	2
	.word	.LC52
	.half	2
	.zero	2
	.word	.LC53
	.half	3
	.zero	2
	.word	.LC54
	.half	4
	.zero	2
	.word	.LC55
	.half	5
	.zero	2
	.word	.LC56
	.half	6
	.zero	2
	.word	.LC57
	.half	7
	.zero	2
	.word	.LC58
	.half	8
	.zero	2
	.word	.LC59
	.half	9
	.zero	2
	.word	.LC60
	.half	10
	.zero	2
	.word	.LC61
	.half	11
	.zero	2
	.word	.LC62
	.half	12
	.zero	2
	.word	.LC63
	.half	13
	.zero	2
	.word	.LC64
	.half	14
	.zero	2
	.word	.LC65
	.half	15
	.zero	2
	.word	.LC66
	.half	16
	.zero	2
	.word	.LC67
	.half	17
	.zero	2
	.word	.LC68
	.half	18
	.zero	2
	.word	.LC69
	.half	19
	.zero	2
	.word	.LC70
	.half	20
	.zero	2
	.word	.LC71
	.half	21
	.zero	2
	.word	.LC72
	.half	22
	.zero	2
	.word	.LC73
	.half	23
	.zero	2
	.word	.LC74
	.half	24
	.zero	2
	.word	.LC75
	.half	25
	.zero	2
	.word	.LC76
	.section	.sbss.cb_beacon_ind,"aw",@nobits
	.align	2
	.set	.LANCHOR5,. + 0
	.type	cb_beacon_ind, @object
	.size	cb_beacon_ind, 4
cb_beacon_ind:
	.zero	4
	.section	.sbss.cb_beacon_ind_env,"aw",@nobits
	.align	2
	.set	.LANCHOR4,. + 0
	.type	cb_beacon_ind_env, @object
	.size	cb_beacon_ind_env, 4
cb_beacon_ind_env:
	.zero	4
	.section	.sbss.cb_event,"aw",@nobits
	.align	2
	.set	.LANCHOR2,. + 0
	.type	cb_event, @object
	.size	cb_event, 4
cb_event:
	.zero	4
	.section	.sbss.cb_event_env,"aw",@nobits
	.align	2
	.set	.LANCHOR3,. + 0
	.type	cb_event_env, @object
	.size	cb_event_env, 4
cb_event_env:
	.zero	4
	.section	.sbss.cb_pkt,"aw",@nobits
	.align	2
	.set	.LANCHOR10,. + 0
	.type	cb_pkt, @object
	.size	cb_pkt, 4
cb_pkt:
	.zero	4
	.section	.sbss.cb_pkt_env,"aw",@nobits
	.align	2
	.set	.LANCHOR11,. + 0
	.type	cb_pkt_env, @object
	.size	cb_pkt_env, 4
cb_pkt_env:
	.zero	4
	.section	.sbss.cb_rssi,"aw",@nobits
	.align	2
	.set	.LANCHOR0,. + 0
	.type	cb_rssi, @object
	.size	cb_rssi, 4
cb_rssi:
	.zero	4
	.section	.sbss.cb_rssi_env,"aw",@nobits
	.align	2
	.set	.LANCHOR1,. + 0
	.type	cb_rssi_env, @object
	.size	cb_rssi_env, 4
cb_rssi_env:
	.zero	4
	.section	.sbss.cb_sm_connect_ind,"aw",@nobits
	.align	2
	.set	.LANCHOR6,. + 0
	.type	cb_sm_connect_ind, @object
	.size	cb_sm_connect_ind, 4
cb_sm_connect_ind:
	.zero	4
	.section	.sbss.cb_sm_connect_ind_env,"aw",@nobits
	.align	2
	.set	.LANCHOR7,. + 0
	.type	cb_sm_connect_ind_env, @object
	.size	cb_sm_connect_ind_env, 4
cb_sm_connect_ind_env:
	.zero	4
	.section	.sbss.cb_sm_disconnect_ind,"aw",@nobits
	.align	2
	.set	.LANCHOR8,. + 0
	.type	cb_sm_disconnect_ind, @object
	.size	cb_sm_disconnect_ind, 4
cb_sm_disconnect_ind:
	.zero	4
	.section	.sbss.cb_sm_disconnect_ind_env,"aw",@nobits
	.align	2
	.set	.LANCHOR9,. + 0
	.type	cb_sm_disconnect_ind_env, @object
	.size	cb_sm_disconnect_ind_env, 4
cb_sm_disconnect_ind_env:
	.zero	4
	.section	.srodata.cfg_hdlrs,"a"
	.align	2
	.type	cfg_hdlrs, @object
	.size	cfg_hdlrs, 8
cfg_hdlrs:
	.zero	8
	.text
.Letext0:
	.file 3 "/mnt/d/GitHub/bl_iot_sdk_for_aithinker/toolchain/riscv/Linux/riscv64-unknown-elf/include/machine/_default_types.h"
	.file 4 "/mnt/d/GitHub/bl_iot_sdk_for_aithinker/toolchain/riscv/Linux/lib/gcc/riscv64-unknown-elf/10.2.0/include/stddef.h"
	.file 5 "/mnt/d/GitHub/bl_iot_sdk_for_aithinker/toolchain/riscv/Linux/riscv64-unknown-elf/include/sys/_stdint.h"
	.file 6 "/mnt/d/GitHub/bl_iot_sdk_for_aithinker/components/network/lwip/src/include/lwip/arch.h"
	.file 7 "/mnt/d/GitHub/bl_iot_sdk_for_aithinker/components/network/lwip/src/include/lwip/ip4_addr.h"
	.file 8 "/mnt/d/GitHub/bl_iot_sdk_for_aithinker/components/network/lwip/src/include/lwip/ip_addr.h"
	.file 9 "/mnt/d/GitHub/bl_iot_sdk_for_aithinker/components/network/lwip/src/include/lwip/err.h"
	.file 10 "/mnt/d/GitHub/bl_iot_sdk_for_aithinker/components/network/lwip/src/include/lwip/pbuf.h"
	.file 11 "/mnt/d/GitHub/bl_iot_sdk_for_aithinker/components/network/lwip/src/include/lwip/netif.h"
	.file 12 "/mnt/d/GitHub/bl_iot_sdk_for_aithinker/components/network/wifi_manager/bl60x_wifi_driver/lmac_types.h"
	.file 13 "/mnt/d/GitHub/bl_iot_sdk_for_aithinker/components/network/wifi_manager/bl60x_wifi_driver/lmac_mac.h"
	.file 14 "/mnt/d/GitHub/bl_iot_sdk_for_aithinker/components/network/lwip/src/include/lwip/memp.h"
	.file 15 "/mnt/d/GitHub/bl_iot_sdk_for_aithinker/components/network/wifi_manager/bl60x_wifi_driver/bl_main.h"
	.file 16 "/mnt/d/GitHub/bl_iot_sdk_for_aithinker/components/os/bl_os_adapter/bl_os_adapter/include/bl_os_adapter/bl_os_type.h"
	.file 17 "/mnt/d/GitHub/bl_iot_sdk_for_aithinker/components/os/bl_os_adapter/bl_os_adapter/include/bl_os_adapter/bl_os_adapter.h"
	.file 18 "/mnt/d/GitHub/bl_iot_sdk_for_aithinker/components/os/bl_os_adapter/bl_os_adapter/include/bl_os_adapter/bl_os_log.h"
	.file 19 "/mnt/d/GitHub/bl_iot_sdk_for_aithinker/components/network/wifi/include/bl60x_fw_api.h"
	.file 20 "/mnt/d/GitHub/bl_iot_sdk_for_aithinker/components/network/wifi_manager/bl60x_wifi_driver/ipc_shared.h"
	.file 21 "/mnt/d/GitHub/bl_iot_sdk_for_aithinker/components/network/wifi_manager/bl60x_wifi_driver/ipc_host.h"
	.file 22 "/mnt/d/GitHub/bl_iot_sdk_for_aithinker/components/network/wifi_manager/bl60x_wifi_driver/list.h"
	.file 23 "/mnt/d/GitHub/bl_iot_sdk_for_aithinker/components/network/wifi_manager/bl60x_wifi_driver/lmac_msg.h"
	.file 24 "/mnt/d/GitHub/bl_iot_sdk_for_aithinker/components/network/wifi_manager/bl60x_wifi_driver/bl_cmds.h"
	.file 25 "/mnt/d/GitHub/bl_iot_sdk_for_aithinker/components/network/wifi_manager/bl60x_wifi_driver/bl_defs.h"
	.file 26 "/mnt/d/GitHub/bl_iot_sdk_for_aithinker/components/network/wifi_manager/bl60x_wifi_driver/cfg80211.h"
	.file 27 "/mnt/d/GitHub/bl_iot_sdk_for_aithinker/components/network/wifi_manager/bl60x_wifi_driver/bl_mod_params.h"
	.file 28 "/mnt/d/GitHub/bl_iot_sdk_for_aithinker/components/network/wifi_manager/bl60x_wifi_driver/bl_rx.h"
	.file 29 "/mnt/d/GitHub/bl_iot_sdk_for_aithinker/components/network/wifi/include/supplicant_api.h"
	.file 30 "/mnt/d/GitHub/bl_iot_sdk_for_aithinker/components/stage/yloop/include/aos/yloop.h"
	.file 31 "/mnt/d/GitHub/bl_iot_sdk_for_aithinker/toolchain/riscv/Linux/riscv64-unknown-elf/include/string.h"
	.file 32 "/mnt/d/GitHub/bl_iot_sdk_for_aithinker/components/network/lwip/src/include/lwip/netifapi.h"
	.file 33 "/mnt/d/GitHub/bl_iot_sdk_for_aithinker/components/security/wpa_supplicant/include/bl_supplicant/bl_wpa.h"