	.file	"bl_tx.c"
	.option nopic
	.attribute arch, "rv32i2p0_m2p0_f2p0_c2p0"
	.attribute unaligned_access, 0
	.attribute stack_align, 16
	.text
.Ltext0:
	.cfi_sections	.debug_frame
	.section	.text.bl_tx_push,"ax",@progbits
	.align	1
	.globl	bl_tx_push
	.type	bl_tx_push, @function
bl_tx_push:
.LFB55:
	.file 1 "/mnt/d/GitHub/bl_iot_sdk_for_aithinker/components/network/wifi_manager/bl60x_wifi_driver/bl_tx.c"
	.loc 1 28 1
	.cfi_startproc
.LVL0:
	addi	sp,sp,-32
	.cfi_def_cfa_offset 32
	sw	s0,24(sp)
	sw	s1,20(sp)
	sw	ra,28(sp)
	.cfi_offset 8, -8
	.cfi_offset 9, -12
	.cfi_offset 1, -4
	.loc 1 28 1 is_stmt 0
	mv	s0,a1
	mv	s1,a0
	.loc 1 29 5 is_stmt 1
	.loc 1 30 5
	.loc 1 30 15 is_stmt 0
	lw	a1,8(a1)
.LVL1:
	.loc 1 32 14
	lw	a0,52(a0)
.LVL2:
	.loc 1 30 15
	sw	a1,12(sp)
.LVL3:
	.loc 1 32 5 is_stmt 1
	.loc 1 32 14 is_stmt 0
	call	ipc_host_txdesc_get
.LVL4:
	lw	a1,12(sp)
.LBB2:
	.loc 1 39 13
	addi	a4,s0,12
.LBE2:
	.loc 1 32 10
	addi	a5,a0,4
.LVL5:
	.loc 1 33 5 is_stmt 1
	.loc 1 33 10
	.loc 1 33 185
.LBB3:
	.loc 1 36 9
	.loc 1 37 9
	.loc 1 38 9
	.loc 1 39 9
	.loc 1 40 9
	.loc 1 40 21
	addi	s0,s0,92
.LVL6:
.L2:
	.loc 1 41 13 discriminator 3
	.loc 1 41 22 is_stmt 0 discriminator 3
	lbu	a3,0(a4)
	.loc 1 41 26 discriminator 3
	addi	a4,a4,1
.LVL7:
	.loc 1 41 17 discriminator 3
	addi	a5,a5,1
.LVL8:
	.loc 1 41 20 discriminator 3
	sb	a3,-1(a5)
	.loc 1 40 55 is_stmt 1 discriminator 3
.LVL9:
	.loc 1 40 21 discriminator 3
	.loc 1 40 9 is_stmt 0 discriminator 3
	bne	s0,a4,.L2
.LBE3:
	.loc 1 45 5 is_stmt 1
	.loc 1 49 1 is_stmt 0
	lw	s0,24(sp)
	.cfi_restore 8
.LVL10:
	.loc 1 45 5
	lw	a0,52(s1)
.LVL11:
	.loc 1 49 1
	lw	ra,28(sp)
	.cfi_restore 1
	lw	s1,20(sp)
	.cfi_restore 9
.LVL12:
	addi	sp,sp,32
	.cfi_def_cfa_offset 0
.LVL13:
	.loc 1 45 5
	tail	ipc_host_txdesc_push
.LVL14:
	.cfi_endproc
.LFE55:
	.size	bl_tx_push, .-bl_tx_push
	.section	.text.bl_tx_resend,"ax",@progbits
	.align	1
	.globl	bl_tx_resend
	.type	bl_tx_resend, @function
bl_tx_resend:
.LFB56:
	.loc 1 58 1 is_stmt 1
	.cfi_startproc
.LBB4:
	.loc 1 59 7
	.loc 1 59 29
.LBE4:
	.loc 1 58 1 is_stmt 0
	addi	sp,sp,-48
	.cfi_def_cfa_offset 48
	sw	s0,40(sp)
	.cfi_offset 8, -8
.LBB5:
	.loc 1 59 57
	lui	s0,%hi(g_bl_ops_funcs)
.LBE5:
	.loc 1 58 1
	sw	s2,32(sp)
	sw	s3,28(sp)
	sw	s4,24(sp)
	sw	s5,20(sp)
	sw	s6,16(sp)
	sw	ra,44(sp)
	sw	s1,36(sp)
	sw	s7,12(sp)
	.cfi_offset 18, -16
	.cfi_offset 19, -20
	.cfi_offset 20, -24
	.cfi_offset 21, -28
	.cfi_offset 22, -32
	.cfi_offset 1, -4
	.cfi_offset 9, -12
	.cfi_offset 23, -36
.LBB6:
	.loc 1 59 57
	addi	a5,s0,%lo(g_bl_ops_funcs)
	.loc 1 59 43
	lw	a5,20(a5)
	.loc 1 64 21
	lui	s3,%hi(txhdr_hodler)
	addi	s0,s0,%lo(g_bl_ops_funcs)
	.loc 1 59 43
	jalr	a5
.LVL15:
	mv	s2,a0
.LVL16:
	.loc 1 59 76 is_stmt 1
	.loc 1 60 5
	.loc 1 60 24 is_stmt 0
	lui	s5,%hi(.LANCHOR1)
	lui	s4,%hi(.LANCHOR2)
	.loc 1 61 52
	lui	s6,%hi(.LANCHOR0)
	.loc 1 64 21
	addi	s3,s3,%lo(txhdr_hodler)
.LVL17:
.L6:
	.loc 1 60 11 is_stmt 1
	.loc 1 60 24 is_stmt 0
	addi	s1,s5,%lo(.LANCHOR1)
	.loc 1 60 11
	lw	a4,0(s1)
	lw	a5,%lo(.LANCHOR2)(s4)
	beq	a4,a5,.L9
	.loc 1 61 9 is_stmt 1
	.loc 1 61 52 is_stmt 0
	addi	s7,s6,%lo(.LANCHOR0)
	.loc 1 61 20
	lw	a5,0(s7)
	lw	a0,52(a5)
	call	ipc_host_txdesc_get
.LVL18:
	.loc 1 61 12
	bne	a0,zero,.L7
.L9:
	.loc 1 71 5 is_stmt 1
	lw	a5,24(s0)
.LBE6:
	.loc 1 72 1 is_stmt 0
	lw	s0,40(sp)
	.cfi_remember_state
	.cfi_restore 8
	lw	ra,44(sp)
	.cfi_restore 1
	lw	s1,36(sp)
	.cfi_restore 9
	lw	s3,28(sp)
	.cfi_restore 19
	lw	s4,24(sp)
	.cfi_restore 20
	lw	s5,20(sp)
	.cfi_restore 21
	lw	s6,16(sp)
	.cfi_restore 22
	lw	s7,12(sp)
	.cfi_restore 23
.LBB7:
	.loc 1 71 5
	mv	a0,s2
.LBE7:
	.loc 1 72 1
	lw	s2,32(sp)
	.cfi_restore 18
.LVL19:
	addi	sp,sp,48
	.cfi_def_cfa_offset 0
.LBB8:
	.loc 1 71 5
	jr	a5
.LVL20:
.L7:
	.cfi_restore_state
	.loc 1 64 9 is_stmt 1
	.loc 1 64 34 is_stmt 0
	lw	a5,0(s1)
	.loc 1 68 9
	lw	a0,0(s7)
	.loc 1 64 34
	andi	a5,a5,7
	.loc 1 64 21
	slli	a5,a5,2
	add	a5,s3,a5
	lw	a4,0(a5)
	.loc 1 64 57
	sw	zero,4(a4)
	.loc 1 68 9 is_stmt 1
	lw	a1,0(a5)
	call	bl_tx_push
.LVL21:
	.loc 1 69 9
	.loc 1 69 20 is_stmt 0
	lw	a5,0(s1)
	addi	a5,a5,1
	sw	a5,0(s1)
	j	.L6
.LBE8:
	.cfi_endproc
.LFE56:
	.size	bl_tx_resend, .-bl_tx_resend
	.section	.text.bl_tx_try_flush,"ax",@progbits
	.align	1
	.globl	bl_tx_try_flush
	.type	bl_tx_try_flush, @function
bl_tx_try_flush:
.LFB57:
	.loc 1 75 1 is_stmt 1
	.cfi_startproc
	.loc 1 76 5
.LBB9:
	.loc 1 78 7
	.loc 1 78 29
.LBE9:
	.loc 1 75 1 is_stmt 0
	addi	sp,sp,-32
	.cfi_def_cfa_offset 32
	sw	s0,24(sp)
	.cfi_offset 8, -8
.LBB10:
	.loc 1 78 57
	lui	s0,%hi(g_bl_ops_funcs)
.LBE10:
	.loc 1 75 1
	sw	s1,20(sp)
	sw	s3,12(sp)
	sw	s4,8(sp)
	sw	ra,28(sp)
	sw	s2,16(sp)
	.cfi_offset 9, -12
	.cfi_offset 19, -20
	.cfi_offset 20, -24
	.cfi_offset 1, -4
	.cfi_offset 18, -16
.LBB11:
	.loc 1 78 57
	addi	a5,s0,%lo(g_bl_ops_funcs)
	.loc 1 78 43
	lw	a5,20(a5)
	addi	s0,s0,%lo(g_bl_ops_funcs)
	.loc 1 79 44
	lui	s3,%hi(.LANCHOR0)
	.loc 1 78 43
	jalr	a5
.LVL22:
	mv	s1,a0
.LVL23:
	.loc 1 78 76 is_stmt 1
	.loc 1 79 5
	.loc 1 80 35 is_stmt 0
	lui	s4,%hi(tx_list_bl)
.L12:
	.loc 1 79 11 is_stmt 1
	.loc 1 79 44 is_stmt 0
	addi	s2,s3,%lo(.LANCHOR0)
	.loc 1 79 12
	lw	a5,0(s2)
	lw	a0,52(a5)
	call	ipc_host_txdesc_get
.LVL24:
	.loc 1 79 11
	beq	a0,zero,.L15
	.loc 1 80 9 is_stmt 1
	.loc 1 80 35 is_stmt 0
	addi	a0,s4,%lo(tx_list_bl)
	call	utils_list_pop_front
.LVL25:
	mv	a1,a0
.LVL26:
	.loc 1 81 9 is_stmt 1
	.loc 1 81 12 is_stmt 0
	bne	a0,zero,.L13
.LVL27:
.L15:
	.loc 1 86 5 is_stmt 1
	lw	a5,24(s0)
.LBE11:
	.loc 1 87 1 is_stmt 0
	lw	s0,24(sp)
	.cfi_remember_state
	.cfi_restore 8
	lw	ra,28(sp)
	.cfi_restore 1
	lw	s2,16(sp)
	.cfi_restore 18
	lw	s3,12(sp)
	.cfi_restore 19
	lw	s4,8(sp)
	.cfi_restore 20
.LBB12:
	.loc 1 86 5
	mv	a0,s1
.LBE12:
	.loc 1 87 1
	lw	s1,20(sp)
	.cfi_restore 9
.LVL28:
	addi	sp,sp,32
	.cfi_def_cfa_offset 0
.LBB13:
	.loc 1 86 5
	jr	a5
.LVL29:
.L13:
	.cfi_restore_state
	.loc 1 84 9 is_stmt 1
	lw	a0,0(s2)
.LVL30:
	call	bl_tx_push
.LVL31:
	j	.L12
.LBE13:
	.cfi_endproc
.LFE57:
	.size	bl_tx_try_flush, .-bl_tx_try_flush
	.section	.rodata.bl_txdatacfm.str1.4,"aMS",@progbits,1
	.align	2
.LC0:
	.string	" push back\r\n"
	.align	2
.LC1:
	.string	"bl_tx.c"
	.align	2
.LC2:
	.string	" NOT push back when no mem\r\n"
	.section	.text.bl_txdatacfm,"ax",@progbits
	.align	1
	.globl	bl_txdatacfm
	.type	bl_txdatacfm, @function
bl_txdatacfm:
.LFB58:
	.loc 1 90 1
	.cfi_startproc
.LVL32:
	.loc 1 92 5
	.loc 1 93 5
	.loc 1 94 5
	.loc 1 96 5
	.loc 1 90 1 is_stmt 0
	addi	sp,sp,-16
	.cfi_def_cfa_offset 16
	sw	s0,8(sp)
	sw	ra,12(sp)
	sw	s1,4(sp)
	sw	s2,0(sp)
	.cfi_offset 8, -8
	.cfi_offset 1, -4
	.cfi_offset 9, -12
	.cfi_offset 18, -16
	.loc 1 96 33
	lw	a5,4(a1)
	.loc 1 103 16
	li	a0,-1
.LVL33:
	.loc 1 96 99
	neg	s0,a5
	andi	s0,s0,3
	.loc 1 96 55
	add	s0,s0,a5
.LVL34:
	.loc 1 100 5 is_stmt 1
	.loc 1 100 13 is_stmt 0
	lw	a5,4(s0)
.LVL35:
	.loc 1 102 5 is_stmt 1
	.loc 1 102 8 is_stmt 0
	beq	a5,zero,.L17
	.loc 1 105 23
	li	a4,65536
	and	a5,a5,a4
.LVL36:
	mv	s1,a1
	.loc 1 105 5 is_stmt 1
	.loc 1 105 8 is_stmt 0
	beq	a5,zero,.L19
	.loc 1 111 9 is_stmt 1
	.loc 1 111 27 is_stmt 0
	lui	s2,%hi(.LANCHOR2)
	.loc 1 112 27
	lui	a5,%hi(g_bl_ops_funcs+204)
	.loc 1 111 27
	addi	s2,s2,%lo(.LANCHOR2)
	.loc 1 112 27
	lw	a6,%lo(g_bl_ops_funcs+204)(a5)
	.loc 1 111 41
	lui	a4,%hi(.LANCHOR1)
	.loc 1 111 27
	lw	a5,0(s2)
	.loc 1 111 41
	lw	a4,%lo(.LANCHOR1)(a4)
	lui	a2,%hi(.LC1)
	.loc 1 111 27
	addi	a5,a5,1
	.loc 1 111 41
	xor	a5,a5,a4
	andi	a5,a5,7
	.loc 1 111 12
	beq	a5,zero,.L20
	.loc 1 112 13 is_stmt 1
	lui	a4,%hi(.LC0)
	addi	a4,a4,%lo(.LC0)
	li	a3,112
	addi	a2,a2,%lo(.LC1)
	li	a1,0
.LVL37:
	li	a0,3
	jalr	a6
.LVL38:
	.loc 1 112 48
	.loc 1 113 13
	.loc 1 113 38 is_stmt 0
	lw	a4,0(s2)
	.loc 1 113 47
	lui	a5,%hi(txhdr_hodler)
	addi	a5,a5,%lo(txhdr_hodler)
	.loc 1 113 38
	andi	a3,a4,7
	.loc 1 113 47
	slli	a3,a3,2
	add	a5,a5,a3
	.loc 1 114 24
	addi	a4,a4,1
	.loc 1 113 47
	sw	s0,0(a5)
	.loc 1 114 13 is_stmt 1
	.loc 1 114 24 is_stmt 0
	sw	a4,0(s2)
.L23:
	.loc 1 124 12
	li	a0,0
.LVL39:
.L17:
	.loc 1 125 1
	lw	ra,12(sp)
	.cfi_remember_state
	.cfi_restore 1
	lw	s0,8(sp)
	.cfi_restore 8
.LVL40:
	lw	s1,4(sp)
	.cfi_restore 9
	lw	s2,0(sp)
	.cfi_restore 18
	addi	sp,sp,16
	.cfi_def_cfa_offset 0
	jr	ra
.LVL41:
.L20:
	.cfi_restore_state
	.loc 1 116 13 is_stmt 1
	lui	a4,%hi(.LC2)
	addi	a4,a4,%lo(.LC2)
	li	a3,116
	addi	a2,a2,%lo(.LC1)
	li	a1,0
	li	a0,3
	jalr	a6
.LVL42:
	.loc 1 116 64
	.loc 1 117 13
	mv	a0,s1
	call	pbuf_free
.LVL43:
	j	.L23
.LVL44:
.L19:
	.loc 1 120 9
	mv	a0,a1
	call	pbuf_free
.LVL45:
	.loc 1 121 9
	.loc 1 121 16 is_stmt 0
	li	a0,1
	j	.L17
	.cfi_endproc
.LFE58:
	.size	bl_txdatacfm, .-bl_txdatacfm
	.section	.rodata.bl_output.str1.4,"aMS",@progbits,1
	.align	2
.LC3:
	.string	"[TX] wifi is down, return now\r\n"
	.align	2
.LC4:
	.string	"[TX] Reserve room failed for header\r\n"
	.align	2
.LC5:
	.string	"[TX] [PBUF] Please fix for bigger chained pbuf, total_len %d\r\n"
	.align	2
.LC6:
	.string	"[TX] [LOOP] Chain Used %d\r\n"
	.section	.text.bl_output,"ax",@progbits
	.align	1
	.globl	bl_output
	.type	bl_output, @function
bl_output:
.LFB59:
	.loc 1 128 1 is_stmt 1
	.cfi_startproc
.LVL46:
	.loc 1 129 5
	.loc 1 130 5
	.loc 1 131 5
	.loc 1 132 5
	.loc 1 133 5
	.loc 1 134 5
	.loc 1 135 5
	.loc 1 136 5
	.loc 1 137 5
	.loc 1 138 5
	.loc 1 140 5
	.loc 1 128 1 is_stmt 0
	addi	sp,sp,-48
	.cfi_def_cfa_offset 48
	sw	ra,44(sp)
	sw	s0,40(sp)
	sw	s1,36(sp)
	sw	s2,32(sp)
	sw	s3,28(sp)
	sw	s4,24(sp)
	sw	s5,20(sp)
	sw	s6,16(sp)
	sw	s7,12(sp)
	sw	s8,8(sp)
	.cfi_offset 1, -4
	.cfi_offset 8, -8
	.cfi_offset 9, -12
	.cfi_offset 18, -16
	.cfi_offset 19, -20
	.cfi_offset 20, -24
	.cfi_offset 21, -28
	.cfi_offset 22, -32
	.cfi_offset 23, -36
	.cfi_offset 24, -40
	.loc 1 140 16
	lw	s5,4(a2)
.LVL47:
	.loc 1 141 5 is_stmt 1
	.loc 1 143 5
	.loc 1 143 8 is_stmt 0
	beq	a0,zero,.L25
	.loc 1 143 28 discriminator 1
	lbu	a5,65(a1)
	mv	s1,a2
	mv	s3,a3
	.loc 1 143 22 discriminator 1
	andi	a5,a5,4
	mv	s4,a4
	bne	a5,zero,.L26
	.loc 1 143 60 discriminator 2
	lbu	a5,13(s5)
	lbu	a4,12(s5)
.LVL48:
	slli	a5,a5,8
	.loc 1 143 54 discriminator 2
	or	a5,a5,a4
	li	a4,36864
	addi	a4,a4,-376
	beq	a5,a4,.L26
.LVL49:
.L25:
	.loc 1 144 9 is_stmt 1
	.loc 1 144 23 is_stmt 0
	lui	a5,%hi(g_bl_ops_funcs+4)
	.loc 1 144 9
	lw	a5,%lo(g_bl_ops_funcs+4)(a5)
	lui	a0,%hi(.LC3)
.LVL50:
	addi	a0,a0,%lo(.LC3)
	jalr	a5
.LVL51:
	.loc 1 145 9 is_stmt 1
	.loc 1 145 16 is_stmt 0
	li	a0,-11
.LVL52:
.L27:
	.loc 1 254 1
	lw	ra,44(sp)
	.cfi_remember_state
	.cfi_restore 1
	lw	s0,40(sp)
	.cfi_restore 8
	lw	s1,36(sp)
	.cfi_restore 9
	lw	s2,32(sp)
	.cfi_restore 18
	lw	s3,28(sp)
	.cfi_restore 19
	lw	s4,24(sp)
	.cfi_restore 20
	lw	s5,20(sp)
	.cfi_restore 21
	lw	s6,16(sp)
	.cfi_restore 22
	lw	s7,12(sp)
	.cfi_restore 23
	lw	s8,8(sp)
	.cfi_restore 24
	addi	sp,sp,48
	.cfi_def_cfa_offset 0
	jr	ra
.LVL53:
.L26:
	.cfi_restore_state
	.loc 1 148 5 is_stmt 1
	.loc 1 148 18 is_stmt 0
	lui	a5,%hi(.LANCHOR0)
	sw	a0,%lo(.LANCHOR0)(a5)
	.loc 1 149 5 is_stmt 1
	.loc 1 152 9 is_stmt 0
	li	a1,128
.LVL54:
	mv	a0,s1
.LVL55:
	.loc 1 149 16
	lhu	s2,8(s1)
.LVL56:
	.loc 1 152 5 is_stmt 1
	.loc 1 152 9 is_stmt 0
	call	pbuf_header
.LVL57:
	.loc 1 152 8
	beq	a0,zero,.L28
	.loc 1 153 9 is_stmt 1
	.loc 1 153 23 is_stmt 0
	lui	a5,%hi(g_bl_ops_funcs+4)
	.loc 1 153 9
	lw	a5,%lo(g_bl_ops_funcs+4)(a5)
	lui	a0,%hi(.LC4)
	addi	a0,a0,%lo(.LC4)
	jalr	a5
.LVL58:
	.loc 1 154 9 is_stmt 1
	.loc 1 154 16 is_stmt 0
	li	a0,-12
	j	.L27
.L28:
	.loc 1 157 5 is_stmt 1
	.loc 1 157 32 is_stmt 0
	lw	a5,4(s1)
	.loc 1 168 5
	li	a2,100
	li	a1,0
	.loc 1 157 98
	neg	s0,a5
	andi	s0,s0,3
	.loc 1 157 54
	add	s0,s0,a5
.LVL59:
	.loc 1 158 5 is_stmt 1
	.loc 1 165 5
	.loc 1 167 5
	.loc 1 168 5
	mv	a0,s0
	call	memset
.LVL60:
	.loc 1 169 5
	.loc 1 171 5
	.loc 1 173 5 is_stmt 0
	mv	a1,s5
	li	a2,6
	.loc 1 171 14
	sw	s1,8(s0)
	.loc 1 173 5 is_stmt 1
	addi	a0,s0,28
	call	memcpy
.LVL61:
	.loc 1 174 5
	addi	a1,s5,6
	li	a2,6
	addi	a0,s0,34
	call	memcpy
.LVL62:
	.loc 1 175 5
	.loc 1 175 21 is_stmt 0
	sw	s1,12(s0)
	.loc 1 176 5 is_stmt 1
	.loc 1 176 26 is_stmt 0
	lbu	a5,13(s5)
	lbu	a4,12(s5)
	.loc 1 179 35
	addi	s2,s2,-14
.LVL63:
	.loc 1 176 26
	slli	a5,a5,8
	or	a5,a5,a4
	.loc 1 211 31
	lui	s6,%hi(g_bl_ops_funcs)
	.loc 1 177 19
	sb	s3,55(s0)
	.loc 1 179 22
	sh	s2,20(s0)
	.loc 1 176 21
	sh	a5,40(s0)
	.loc 1 177 5 is_stmt 1
	.loc 1 178 5
	.loc 1 178 17 is_stmt 0
	sh	zero,58(s0)
	.loc 1 179 5 is_stmt 1
	.loc 1 181 5
	.loc 1 182 5
	.loc 1 201 5
	.loc 1 202 5
.LVL64:
	.loc 1 202 17
	addi	s5,s0,60
.LVL65:
	.loc 1 179 22 is_stmt 0
	mv	s2,s1
.LVL66:
	.loc 1 201 10
	li	s3,0
.LVL67:
	.loc 1 209 16
	li	s7,4
	.loc 1 211 31
	addi	s6,s6,%lo(g_bl_ops_funcs)
	.loc 1 211 17
	lui	s8,%hi(.LC5)
.LVL68:
.L32:
	.loc 1 203 9 is_stmt 1
	.loc 1 203 12 is_stmt 0
	bne	s3,zero,.L29
.LVL69:
	.loc 1 205 13 is_stmt 1
	.loc 1 205 94 is_stmt 0
	lw	a5,4(s2)
	addi	a5,a5,142
	.loc 1 205 42
	sw	a5,60(s0)
	.loc 1 206 13 is_stmt 1
	.loc 1 206 45 is_stmt 0
	lhu	a5,10(s2)
	.loc 1 206 66
	addi	a5,a5,-142
	.loc 1 206 42
	sw	a5,76(s0)
.LVL70:
.L30:
	.loc 1 230 9 is_stmt 1 discriminator 2
	.loc 1 202 29 is_stmt 0 discriminator 2
	lw	s2,0(s2)
.LVL71:
	.loc 1 230 13 discriminator 2
	addi	s3,s3,1
.LVL72:
	.loc 1 202 27 is_stmt 1 discriminator 2
	.loc 1 202 17 discriminator 2
	.loc 1 202 5 is_stmt 0 discriminator 2
	addi	s5,s5,4
	bne	s2,zero,.L32
	.loc 1 232 5 is_stmt 1
	lui	s2,%hi(g_bl_ops_funcs)
.LVL73:
	.loc 1 232 8 is_stmt 0
	li	a5,2
	addi	s2,s2,%lo(g_bl_ops_funcs)
	ble	s3,a5,.L33
	.loc 1 233 9 is_stmt 1
	lw	a5,4(s2)
	lui	a0,%hi(.LC6)
	mv	a1,s3
	addi	a0,a0,%lo(.LC6)
	jalr	a5
.LVL74:
.L33:
	.loc 1 236 5
	.loc 1 238 23 is_stmt 0
	li	a5,286330880
	addi	a5,a5,273
	sw	a5,16(s0)
	.loc 1 239 36
	addi	a5,s0,4
	.loc 1 236 25
	sw	zero,4(s0)
	.loc 1 238 5 is_stmt 1
	.loc 1 239 5
	.loc 1 239 23 is_stmt 0
	sw	a5,24(s0)
	.loc 1 241 5 is_stmt 1
	.loc 1 241 8 is_stmt 0
	beq	s4,zero,.L34
	.loc 1 242 9 is_stmt 1
	li	a2,8
	mv	a1,s4
	addi	a0,s0,92
	call	memcpy
.LVL75:
.L34:
	.loc 1 245 5
	mv	a0,s1
	call	pbuf_ref
.LVL76:
.LBB14:
	.loc 1 247 7
	.loc 1 247 29
	.loc 1 247 43 is_stmt 0
	lw	a5,20(s2)
	jalr	a5
.LVL77:
	mv	s1,a0
.LVL78:
	.loc 1 247 76 is_stmt 1
	.loc 1 248 5
	lui	a0,%hi(tx_list_bl)
	mv	a1,s0
	addi	a0,a0,%lo(tx_list_bl)
	call	utils_list_push_back
.LVL79:
	.loc 1 249 5
	lw	a5,24(s2)
	mv	a0,s1
	jalr	a5
.LVL80:
.LBE14:
	.loc 1 249 50
	.loc 1 251 5
	call	bl_irq_handler
.LVL81:
	.loc 1 253 5
	.loc 1 253 12 is_stmt 0
	li	a0,0
	j	.L27
.LVL82:
.L29:
	.loc 1 209 13 is_stmt 1
	.loc 1 209 16 is_stmt 0
	bne	s3,s7,.L31
	.loc 1 211 17 is_stmt 1
	lw	a5,4(s6)
	lhu	a1,8(s1)
	addi	a0,s8,%lo(.LC5)
	jalr	a5
.LVL83:
.L31:
	.loc 1 215 13
	.loc 1 215 42 is_stmt 0
	lw	a5,4(s2)
	sw	a5,0(s5)
	.loc 1 216 13 is_stmt 1
	.loc 1 216 45 is_stmt 0
	lhu	a5,10(s2)
	sw	a5,16(s5)
	j	.L30
	.cfi_endproc
.LFE59:
	.size	bl_output, .-bl_output
	.globl	txhdr_pos_w
	.globl	txhdr_pos_r
	.comm	txhdr_hodler,32,4
	.globl	internel_cal_size_tx_hdr
	.comm	tx_list_bl,8,4
	.comm	cfg_start_req_u_tlv_t,12,4
	.section	.sbss.txhdr_pos_r,"aw",@nobits
	.align	2
	.set	.LANCHOR1,. + 0
	.type	txhdr_pos_r, @object
	.size	txhdr_pos_r, 4
txhdr_pos_r:
	.zero	4
	.section	.sbss.txhdr_pos_w,"aw",@nobits
	.align	2
	.set	.LANCHOR2,. + 0
	.type	txhdr_pos_w, @object
	.size	txhdr_pos_w, 4
txhdr_pos_w:
	.zero	4
	.section	.sdata.bl_hw_static,"aw"
	.align	2
	.set	.LANCHOR0,. + 0
	.type	bl_hw_static, @object
	.size	bl_hw_static, 4
bl_hw_static:
	.word	wifi_hw
	.section	.sdata.internel_cal_size_tx_hdr,"aw"
	.align	2
	.type	internel_cal_size_tx_hdr, @object
	.size	internel_cal_size_tx_hdr, 4
internel_cal_size_tx_hdr:
	.word	100
	.text
.Letext0:
	.file 2 "/mnt/d/GitHub/bl_iot_sdk_for_aithinker/toolchain/riscv/Linux/riscv64-unknown-elf/include/machine/_default_types.h"
	.file 3 "/mnt/d/GitHub/bl_iot_sdk_for_aithinker/toolchain/riscv/Linux/riscv64-unknown-elf/include/sys/_stdint.h"
	.file 4 "/mnt/d/GitHub/bl_iot_sdk_for_aithinker/components/network/lwip/src/include/lwip/arch.h"
	.file 5 "/mnt/d/GitHub/bl_iot_sdk_for_aithinker/components/network/lwip/src/include/lwip/err.h"
	.file 6 "/mnt/d/GitHub/bl_iot_sdk_for_aithinker/components/network/lwip/src/include/lwip/pbuf.h"
	.file 7 "/mnt/d/GitHub/bl_iot_sdk_for_aithinker/components/network/lwip/src/include/lwip/ip4_addr.h"
	.file 8 "/mnt/d/GitHub/bl_iot_sdk_for_aithinker/components/network/lwip/src/include/lwip/ip_addr.h"
	.file 9 "/mnt/d/GitHub/bl_iot_sdk_for_aithinker/components/network/lwip/src/include/lwip/memp.h"
	.file 10 "/mnt/d/GitHub/bl_iot_sdk_for_aithinker/components/network/lwip/src/include/lwip/netif.h"
	.file 11 "/mnt/d/GitHub/bl_iot_sdk_for_aithinker/components/os/bl_os_adapter/bl_os_adapter/include/bl_os_adapter/bl_os_type.h"
	.file 12 "/mnt/d/GitHub/bl_iot_sdk_for_aithinker/components/os/bl_os_adapter/bl_os_adapter/include/bl_os_adapter/bl_os_adapter.h"
	.file 13 "/mnt/d/GitHub/bl_iot_sdk_for_aithinker/components/os/bl_os_adapter/bl_os_adapter/include/bl_os_adapter/bl_os_log.h"
	.file 14 "/mnt/d/GitHub/bl_iot_sdk_for_aithinker/components/utils/include/utils_list.h"
	.file 15 "/mnt/d/GitHub/bl_iot_sdk_for_aithinker/components/network/wifi_manager/bl60x_wifi_driver/lmac_types.h"
	.file 16 "/mnt/d/GitHub/bl_iot_sdk_for_aithinker/components/network/wifi/include/bl60x_fw_api.h"
	.file 17 "/mnt/d/GitHub/bl_iot_sdk_for_aithinker/components/network/wifi_manager/bl60x_wifi_driver/lmac_mac.h"
	.file 18 "/mnt/d/GitHub/bl_iot_sdk_for_aithinker/components/network/wifi_manager/bl60x_wifi_driver/ipc_shared.h"
	.file 19 "/mnt/d/GitHub/bl_iot_sdk_for_aithinker/components/network/wifi_manager/bl60x_wifi_driver/ipc_host.h"
	.file 20 "/mnt/d/GitHub/bl_iot_sdk_for_aithinker/components/network/wifi_manager/bl60x_wifi_driver/list.h"
	.file 21 "/mnt/d/GitHub/bl_iot_sdk_for_aithinker/components/network/wifi_manager/bl60x_wifi_driver/lmac_msg.h"
	.file 22 "/mnt/d/GitHub/bl_iot_sdk_for_aithinker/components/network/wifi_manager/bl60x_wifi_driver/bl_cmds.h"
	.file 23 "/mnt/d/GitHub/bl_iot_sdk_for_aithinker/components/network/wifi_manager/bl60x_wifi_driver/bl_defs.h"
	.file 24 "/mnt/d/GitHub/bl_iot_sdk_for_aithinker/components/network/wifi_manager/bl60x_wifi_driver/ieee80211.h"
	.file 25 "/mnt/d/GitHub/bl_iot_sdk_for_aithinker/components/network/wifi_manager/bl60x_wifi_driver/cfg80211.h"
	.file 26 "/mnt/d/GitHub/bl_iot_sdk_for_aithinker/components/network/wifi_manager/bl60x_wifi_driver/bl_mod_params.h"
	.file 27 "/mnt/d/GitHub/bl_iot_sdk_for_aithinker/components/network/wifi_manager/bl60x_wifi_driver/bl_tx.h"
	.file 28 "/mnt/d/GitHub/bl_iot_sdk_for_aithinker/toolchain/riscv/Linux/riscv64-unknown-elf/include/string.h"