	.file	"ipc_host.c"
	.option nopic
	.attribute arch, "rv32i2p0_m2p0_f2p0_c2p0"
	.attribute unaligned_access, 0
	.attribute stack_align, 16
	.text
.Ltext0:
	.cfi_sections	.debug_frame
	.section	.rodata.ipc_host_init.str1.4,"aMS",@progbits,1
	.align	2
.LC0:
	.string	"[IPC] [TX] Low level size %d, driver size %d, total size %d\r\n"
	.section	.text.ipc_host_init,"ax",@progbits
	.align	1
	.globl	ipc_host_init
	.type	ipc_host_init, @function
ipc_host_init:
.LFB78:
	.file 1 "/mnt/d/GitHub/bl_iot_sdk_for_aithinker/components/network/wifi_manager/bl60x_wifi_driver/ipc_host.c"
	.loc 1 51 1
	.cfi_startproc
.LVL0:
	.loc 1 53 1
	.loc 1 54 1
	.loc 1 55 5
	.loc 1 51 1 is_stmt 0
	addi	sp,sp,-32
	.cfi_def_cfa_offset 32
	.loc 1 55 5
	lui	a5,%hi(internel_cal_size_tx_desc)
	.loc 1 51 1
	sw	s3,12(sp)
	.cfi_offset 19, -20
	mv	s3,a1
	.loc 1 55 5
	lw	a1,%lo(internel_cal_size_tx_desc)(a5)
.LVL1:
	lui	a5,%hi(internel_cal_size_tx_hdr)
	.loc 1 51 1
	sw	s1,20(sp)
	.cfi_offset 9, -12
	mv	s1,a2
	.loc 1 55 5
	lw	a2,%lo(internel_cal_size_tx_hdr)(a5)
.LVL2:
	.loc 1 55 19
	lui	a5,%hi(g_bl_ops_funcs+4)
	.loc 1 55 5
	lw	a5,%lo(g_bl_ops_funcs+4)(a5)
	.loc 1 51 1
	sw	s0,24(sp)
	.cfi_offset 8, -8
	mv	s0,a0
	.loc 1 55 5
	lui	a0,%hi(.LC0)
.LVL3:
	.loc 1 51 1
	sw	ra,28(sp)
	sw	s2,16(sp)
	.cfi_offset 1, -4
	.cfi_offset 18, -16
	.loc 1 55 5
	addi	a0,a0,%lo(.LC0)
	.loc 1 51 1
	mv	s2,a3
	.loc 1 55 5
	add	a3,a1,a2
.LVL4:
	jalr	a5
.LVL5:
	.loc 1 60 5 is_stmt 1
	lui	a0,%hi(tx_list_bl)
	addi	a0,a0,%lo(tx_list_bl)
	call	utils_list_init
.LVL6:
	.loc 1 86 5
	li	a2,220
	li	a1,0
	mv	a0,s0
	call	memset
.LVL7:
	.loc 1 89 5
	.loc 1 92 13 is_stmt 0
	mv	a1,s3
	.loc 1 89 17
	sw	s1,32(s0)
	.loc 1 92 5 is_stmt 1
	.loc 1 92 13 is_stmt 0
	li	a2,32
	mv	a0,s0
	call	memcpy
.LVL8:
	.loc 1 95 5 is_stmt 1
	.loc 1 95 16 is_stmt 0
	addi	a5,s0,128
	.loc 1 99 19
	li	a4,4096
	.loc 1 95 16
	sw	s2,88(a5)
	.loc 1 98 5 is_stmt 1
	.loc 1 98 19 is_stmt 0
	li	a3,2
	.loc 1 99 19
	addi	a4,a4,-2048
	sw	a4,60(s0)
	.loc 1 98 19
	sw	a3,56(s0)
	.loc 1 99 5 is_stmt 1
	.loc 1 100 5
	.loc 1 100 20 is_stmt 0
	sb	a3,53(s0)
	.loc 1 101 5 is_stmt 1
	.loc 1 101 27 is_stmt 0
	li	a4,8
	sw	a4,28(a5)
	.loc 1 102 5 is_stmt 1
	.loc 1 102 27 is_stmt 0
	li	a4,1000
	sw	a4,32(a5)
	.loc 1 105 5 is_stmt 1
	.loc 1 108 19 is_stmt 0
	addi	a0,s1,516
	.loc 1 105 23
	addi	a5,s0,72
	.loc 1 105 21
	sw	a5,80(s0)
	.loc 1 108 5 is_stmt 1
	.loc 1 108 17 is_stmt 0
	sw	a0,84(s0)
	.loc 1 109 5 is_stmt 1
	.loc 1 110 1 is_stmt 0
	lw	s0,24(sp)
	.cfi_restore 8
.LVL9:
	lw	ra,28(sp)
	.cfi_restore 1
	lw	s1,20(sp)
	.cfi_restore 9
.LVL10:
	lw	s2,16(sp)
	.cfi_restore 18
.LVL11:
	lw	s3,12(sp)
	.cfi_restore 19
.LVL12:
	.loc 1 109 5
	li	a2,1632
	.loc 1 110 1
	.loc 1 109 5
	li	a1,0
	.loc 1 110 1
	addi	sp,sp,32
	.cfi_def_cfa_offset 0
	.loc 1 109 5
	tail	memset
.LVL13:
	.cfi_endproc
.LFE78:
	.size	ipc_host_init, .-ipc_host_init
	.section	.rodata.ipc_host_msg_push.str1.4,"aMS",@progbits,1
	.align	2
.LC1:
	.string	"!env->msga2e_hostid"
	.align	2
.LC2:
	.string	"/mnt/d/GitHub/bl_iot_sdk_for_aithinker/components/network/wifi_manager/bl60x_wifi_driver/ipc_host.c"
	.align	2
.LC3:
	.string	"((((len)-1) | ((__typeof__(len))((4)-1)))+1) <= sizeof(env->shared->msg_a2e_buf.msg)"
	.section	.text.ipc_host_msg_push,"ax",@progbits
	.align	1
	.globl	ipc_host_msg_push
	.type	ipc_host_msg_push, @function
ipc_host_msg_push:
.LFB79:
	.loc 1 113 1 is_stmt 1
	.cfi_startproc
.LVL14:
	.loc 1 114 5
	.loc 1 115 5
	.loc 1 117 5
	.loc 1 117 9
	.loc 1 117 15
	.loc 1 119 5
	.loc 1 119 10
	.loc 1 113 1 is_stmt 0
	addi	sp,sp,-16
	.cfi_def_cfa_offset 16
	sw	s0,8(sp)
	sw	s1,4(sp)
	sw	s2,0(sp)
	sw	ra,12(sp)
	.cfi_offset 8, -8
	.cfi_offset 9, -12
	.cfi_offset 18, -16
	.cfi_offset 1, -4
	.loc 1 119 13
	lw	a5,168(a0)
	.loc 1 113 1
	mv	s0,a0
	mv	s1,a1
	mv	s2,a2
	.loc 1 119 13
	beq	a5,zero,.L4
	.loc 1 119 40 is_stmt 1 discriminator 1
	.loc 1 119 54 is_stmt 0 discriminator 1
	lui	a5,%hi(g_bl_ops_funcs+12)
	.loc 1 119 40 discriminator 1
	lw	a5,%lo(g_bl_ops_funcs+12)(a5)
	lui	a3,%hi(.LC1)
	lui	a2,%hi(.LANCHOR0)
.LVL15:
	lui	a0,%hi(.LC2)
.LVL16:
	addi	a3,a3,%lo(.LC1)
	addi	a2,a2,%lo(.LANCHOR0)
	li	a1,119
.LVL17:
	addi	a0,a0,%lo(.LC2)
	jalr	a5
.LVL18:
.L4:
	.loc 1 119 219 is_stmt 1 discriminator 3
	.loc 1 120 5 discriminator 3
	.loc 1 120 10 discriminator 3
	.loc 1 120 24 is_stmt 0 discriminator 3
	addi	a5,s2,-1
	.loc 1 120 28 discriminator 3
	ori	a5,a5,3
	.loc 1 120 13 discriminator 3
	li	a4,507
	ble	a5,a4,.L5
	.loc 1 120 105 is_stmt 1 discriminator 1
	.loc 1 120 119 is_stmt 0 discriminator 1
	lui	a5,%hi(g_bl_ops_funcs+12)
	.loc 1 120 105 discriminator 1
	lw	a5,%lo(g_bl_ops_funcs+12)(a5)
	lui	a3,%hi(.LC3)
	lui	a2,%hi(.LANCHOR0)
	lui	a0,%hi(.LC2)
	addi	a3,a3,%lo(.LC3)
	addi	a2,a2,%lo(.LANCHOR0)
	li	a1,120
	addi	a0,a0,%lo(.LC2)
	jalr	a5
.LVL19:
.L5:
	.loc 1 120 349 is_stmt 1 discriminator 3
	.loc 1 124 5 discriminator 3
	.loc 1 124 9 is_stmt 0 discriminator 3
	lw	a3,16(s1)
.LVL20:
	.loc 1 128 5 is_stmt 1 discriminator 3
	.loc 1 128 27 is_stmt 0 discriminator 3
	lw	a4,32(s0)
.LVL21:
	.loc 1 131 5 is_stmt 1 discriminator 3
	.loc 1 131 11 is_stmt 0 discriminator 3
	li	a5,0
.LVL22:
.L6:
	.loc 1 131 15 is_stmt 1 discriminator 1
	.loc 1 131 5 is_stmt 0 discriminator 1
	bgt	s2,a5,.L7
	.loc 1 136 5 is_stmt 1
	.loc 1 136 24 is_stmt 0
	sw	s1,168(s0)
	.loc 1 139 5 is_stmt 1
.LVL23:
.LBB25:
.LBB26:
	.file 2 "/mnt/d/GitHub/bl_iot_sdk_for_aithinker/components/network/wifi_manager/bl60x_wifi_driver/reg_ipc_app.h"
	.loc 2 56 5
	.loc 2 56 70 is_stmt 0
	li	a5,1149239296
.LVL24:
	li	a4,2
	sw	a4,0(a5)
.LVL25:
.LBE26:
.LBE25:
	.loc 1 141 5 is_stmt 1
	.loc 1 141 9
	.loc 1 141 15
	.loc 1 143 5
	.loc 1 144 1 is_stmt 0
	lw	ra,12(sp)
	.cfi_remember_state
	.cfi_restore 1
	lw	s0,8(sp)
	.cfi_restore 8
.LVL26:
	lw	s1,4(sp)
	.cfi_restore 9
.LVL27:
	lw	s2,0(sp)
	.cfi_restore 18
	li	a0,0
	addi	sp,sp,16
	.cfi_def_cfa_offset 0
	jr	ra
.LVL28:
.L7:
	.cfi_restore_state
	.loc 1 133 9 is_stmt 1 discriminator 3
	.loc 1 133 18 is_stmt 0 discriminator 3
	add	a2,a3,a5
	lw	a1,0(a2)
	.loc 1 133 16 discriminator 3
	add	a2,a4,a5
	.loc 1 131 23 discriminator 3
	addi	a5,a5,4
.LVL29:
	.loc 1 133 16 discriminator 3
	sw	a1,4(a2)
	.loc 1 131 22 is_stmt 1 discriminator 3
.LVL30:
	j	.L6
	.cfi_endproc
.LFE79:
	.size	ipc_host_msg_push, .-ipc_host_msg_push
	.section	.text.ipc_host_patt_addr_push,"ax",@progbits
	.align	1
	.globl	ipc_host_patt_addr_push
	.type	ipc_host_patt_addr_push, @function
ipc_host_patt_addr_push:
.LFB80:
	.loc 1 147 1
	.cfi_startproc
.LVL31:
	.loc 1 148 5
	.loc 1 148 32 is_stmt 0
	lw	a5,32(a0)
.LVL32:
	.loc 1 151 5 is_stmt 1
	.loc 1 151 34 is_stmt 0
	sw	a1,512(a5)
	.loc 1 152 1
	ret
	.cfi_endproc
.LFE80:
	.size	ipc_host_patt_addr_push, .-ipc_host_patt_addr_push
	.section	.text.ipc_host_get_status,"ax",@progbits
	.align	1
	.globl	ipc_host_get_status
	.type	ipc_host_get_status, @function
ipc_host_get_status:
.LFB81:
	.loc 1 155 1 is_stmt 1
	.cfi_startproc
.LVL33:
	.loc 1 156 5
	.loc 1 158 5
.LBB27:
.LBB28:
	.loc 2 242 5
	.loc 2 242 13 is_stmt 0
	li	a5,1149239296
	lw	a0,28(a5)
.LVL34:
.LBE28:
.LBE27:
	.loc 1 160 5 is_stmt 1
	.loc 1 161 1 is_stmt 0
	ret
	.cfi_endproc
.LFE81:
	.size	ipc_host_get_status, .-ipc_host_get_status
	.section	.text.ipc_host_get_rawstatus,"ax",@progbits
	.align	1
	.globl	ipc_host_get_rawstatus
	.type	ipc_host_get_rawstatus, @function
ipc_host_get_rawstatus:
.LFB82:
	.loc 1 164 1 is_stmt 1
	.cfi_startproc
.LVL35:
	.loc 1 165 5
	.loc 1 167 5
.LBB29:
.LBB30:
	.loc 2 94 5
	.loc 2 94 13 is_stmt 0
	li	a5,1149239296
	lw	a0,4(a5)
.LVL36:
.LBE30:
.LBE29:
	.loc 1 169 5 is_stmt 1
	.loc 1 170 1 is_stmt 0
	ret
	.cfi_endproc
.LFE82:
	.size	ipc_host_get_rawstatus, .-ipc_host_get_rawstatus
	.section	.text.ipc_host_txdesc_get,"ax",@progbits
	.align	1
	.globl	ipc_host_txdesc_get
	.type	ipc_host_txdesc_get, @function
ipc_host_txdesc_get:
.LFB87:
	.loc 1 258 1 is_stmt 1
	.cfi_startproc
.LVL37:
	.loc 1 259 5
	.loc 1 260 5
	.loc 1 260 14 is_stmt 0
	lw	a4,68(a0)
.LVL38:
	.loc 1 261 5 is_stmt 1
	.loc 1 261 14 is_stmt 0
	lw	a5,64(a0)
.LVL39:
	.loc 1 263 5 is_stmt 1
	.loc 1 263 9
	.loc 1 263 16
	.loc 1 270 5
	.loc 1 270 8 is_stmt 0
	bleu	a4,a5,.L16
	.loc 1 271 9 is_stmt 1
	.loc 1 271 13
	.loc 1 271 20
	.loc 1 272 9
	.loc 1 272 19 is_stmt 0
	lui	a3,%hi(.LANCHOR1)
	addi	a3,a3,%lo(.LANCHOR1)
	lw	a2,0(a3)
	addi	a2,a2,1
	sw	a2,0(a3)
.L16:
	.loc 1 276 5 is_stmt 1
	.loc 1 276 31 is_stmt 0
	addi	a3,a4,2
	.loc 1 276 8
	beq	a3,a5,.L19
	.loc 1 279 9 is_stmt 1
	.loc 1 280 23 is_stmt 0
	sub	a4,a5,a4
.LVL40:
	.loc 1 280 12
	li	a3,2
	.loc 1 279 26
	lw	a0,84(a0)
.LVL41:
	.loc 1 280 9 is_stmt 1
	.loc 1 280 12 is_stmt 0
	bgtu	a4,a3,.L18
	.loc 1 279 35
	li	a4,816
	.loc 1 279 47
	andi	a5,a5,1
.LVL42:
	.loc 1 279 35
	mul	a5,a5,a4
.LVL43:
	.loc 1 279 21
	add	a0,a0,a5
.LVL44:
	ret
.LVL45:
.L18:
	.loc 1 284 13 is_stmt 1 discriminator 2
	.loc 1 285 17 discriminator 2
	.loc 1 285 21 discriminator 2
	.loc 1 285 28 discriminator 2
	.loc 1 284 19 discriminator 2
	j	.L18
.LVL46:
.L19:
	.loc 1 291 21 is_stmt 0
	li	a0,0
.LVL47:
	.loc 1 293 5 is_stmt 1
	.loc 1 293 9
	.loc 1 293 16
	.loc 1 295 5
	.loc 1 296 1 is_stmt 0
	ret
	.cfi_endproc
.LFE87:
	.size	ipc_host_txdesc_get, .-ipc_host_txdesc_get
	.section	.text.ipc_host_txdesc_left,"ax",@progbits
	.align	1
	.globl	ipc_host_txdesc_left
	.type	ipc_host_txdesc_left, @function
ipc_host_txdesc_left:
.LFB88:
	.loc 1 299 1 is_stmt 1
	.cfi_startproc
.LVL48:
	.loc 1 300 5
	.loc 1 301 5
	.loc 1 303 5
	.loc 1 303 25 is_stmt 0
	slli	a5,a1,2
	lui	a1,%hi(.LANCHOR2)
.LVL49:
	addi	a1,a1,%lo(.LANCHOR2)
	add	a1,a1,a5
	.loc 1 303 37
	lw	a4,68(a0)
	lw	a5,0(a1)
	lw	a0,64(a0)
.LVL50:
	add	a5,a5,a4
	.loc 1 304 1
	sub	a0,a5,a0
.LVL51:
	ret
	.cfi_endproc
.LFE88:
	.size	ipc_host_txdesc_left, .-ipc_host_txdesc_left
	.section	.text.ipc_host_txdesc_push,"ax",@progbits
	.align	1
	.globl	ipc_host_txdesc_push
	.type	ipc_host_txdesc_push, @function
ipc_host_txdesc_push:
.LFB89:
	.loc 1 307 1 is_stmt 1
	.cfi_startproc
.LVL52:
	.loc 1 308 5
	.loc 1 308 14 is_stmt 0
	lw	a5,64(a0)
	.loc 1 309 62
	li	a4,816
	.loc 1 308 14
	andi	a5,a5,1
.LVL53:
	.loc 1 309 5 is_stmt 1
	.loc 1 309 62 is_stmt 0
	mul	a3,a5,a4
	.loc 1 309 34
	lw	a4,84(a0)
	.loc 1 316 31
	slli	a5,a5,2
.LVL54:
	.loc 1 309 34
	add	a4,a4,a3
.LVL55:
	.loc 1 313 5 is_stmt 1
	.loc 1 313 26 is_stmt 0
	li	a3,-1
	sw	a3,0(a4)
.LVL56:
	.loc 1 316 5 is_stmt 1
	.loc 1 316 31 is_stmt 0
	lw	a4,80(a0)
.LVL57:
	add	a5,a4,a5
	sw	a1,0(a5)
	.loc 1 319 5 is_stmt 1
	.loc 1 319 25 is_stmt 0
	lw	a5,64(a0)
.LBB31:
.LBB32:
	.loc 2 76 70
	li	a4,256
.LBE32:
.LBE31:
	.loc 1 319 25
	addi	a5,a5,1
	sw	a5,64(a0)
	.loc 1 321 5 is_stmt 1
	.loc 1 321 9
	.loc 1 321 16
	.loc 1 325 5
.LVL58:
.LBB34:
.LBB33:
	.loc 2 75 5
	.loc 2 75 10
	.loc 2 75 291
	.loc 2 76 5
	.loc 2 76 70 is_stmt 0
	li	a5,1149239296
	sw	a4,0(a5)
.LVL59:
.LBE33:
.LBE34:
	.loc 1 326 1
	ret
	.cfi_endproc
.LFE89:
	.size	ipc_host_txdesc_push, .-ipc_host_txdesc_push
	.section	.rodata.ipc_host_irq.str1.4,"aMS",@progbits,1
	.align	2
.LC4:
	.string	"hostid"
	.align	2
.LC5:
	.string	"env->msga2e_cnt == (((struct lmac_msg *)(&env->shared->msg_a2e_buf.msg))->src_id & 0xFF)"
	.section	.text.ipc_host_irq,"ax",@progbits
	.align	1
	.globl	ipc_host_irq
	.type	ipc_host_irq, @function
ipc_host_irq:
.LFB90:
	.loc 1 329 1 is_stmt 1
	.cfi_startproc
.LVL60:
	.loc 1 331 5
.LBB48:
.LBB49:
	.loc 2 136 5
.LBE49:
.LBE48:
	.loc 1 329 1 is_stmt 0
	addi	sp,sp,-48
	.cfi_def_cfa_offset 48
	sw	s0,40(sp)
.LBB52:
.LBB50:
	.loc 2 136 70
	li	a5,1149239296
.LBE50:
.LBE52:
	.loc 1 329 1
	sw	ra,44(sp)
	sw	s1,36(sp)
	sw	s2,32(sp)
	sw	s3,28(sp)
	sw	s4,24(sp)
	sw	s5,20(sp)
	sw	s6,16(sp)
	sw	s7,12(sp)
	sw	s8,8(sp)
	.cfi_offset 8, -8
	.cfi_offset 1, -4
	.cfi_offset 9, -12
	.cfi_offset 18, -16
	.cfi_offset 19, -20
	.cfi_offset 20, -24
	.cfi_offset 21, -28
	.cfi_offset 22, -32
	.cfi_offset 23, -36
	.cfi_offset 24, -40
.LBB53:
.LBB51:
	.loc 2 136 70
	sw	a1,8(a5)
.LVL61:
.LBE51:
.LBE53:
	.loc 1 335 5 is_stmt 1
.LBB54:
.LBB55:
	.loc 2 242 5
	.loc 2 242 13 is_stmt 0
	lw	s1,28(a5)
.LBE55:
.LBE54:
	.loc 1 329 1
	mv	s0,a0
	.loc 1 335 12
	or	s1,a1,s1
.LVL62:
	.loc 1 338 5 is_stmt 1
	.loc 1 338 16 is_stmt 0
	andi	a5,s1,1920
	.loc 1 338 8
	beq	a5,zero,.L25
	lui	s3,%hi(.LANCHOR3)
	addi	s3,s3,%lo(.LANCHOR3)
	li	s4,7
.LBB56:
.LBB57:
	.loc 1 348 22
	li	s6,1
.LBE57:
	.loc 1 347 9
	li	s5,11
.LVL63:
.L29:
.LBB61:
	.loc 1 348 13 is_stmt 1
	.loc 1 349 13
	.loc 1 348 22 is_stmt 0
	sll	a5,s6,s4
	.loc 1 349 24
	and	a5,a5,s1
	.loc 1 349 16
	beq	a5,zero,.L26
.L27:
.LBB58:
.LBB59:
	.loc 1 186 5 is_stmt 1
	.loc 1 187 5
	.loc 1 188 5
	.loc 1 190 5
	.loc 1 190 9
	.loc 1 190 15
	.loc 1 191 5
.LBB60:
	.loc 1 192 9
.LVL64:
	.loc 1 193 9
	.loc 1 193 50 is_stmt 0
	lw	a5,0(s3)
	lw	s2,68(s0)
	and	s2,s2,a5
	.loc 1 193 15
	lw	a5,80(s0)
	.loc 1 193 40
	slli	s2,s2,2
	.loc 1 193 15
	add	a5,a5,s2
	lw	a1,0(a5)
.LVL65:
	.loc 1 194 9 is_stmt 1
	.loc 1 195 9
	.loc 1 198 9
	.loc 1 198 12 is_stmt 0
	beq	a1,zero,.L26
	.loc 1 205 9 is_stmt 1
	.loc 1 205 37 is_stmt 0
	lw	a4,4(a1)
	.loc 1 209 15
	lw	a0,216(s0)
	.loc 1 205 103
	neg	a5,a4
	andi	a5,a5,3
	.loc 1 205 59
	add	a5,a5,a4
.LVL66:
	.loc 1 206 9 is_stmt 1
	.loc 1 206 28 is_stmt 0
	lw	s7,92(a5)
.LVL67:
	.loc 1 207 9 is_stmt 1
	.loc 1 207 32 is_stmt 0
	lw	s8,96(a5)
.LVL68:
	.loc 1 209 9 is_stmt 1
	.loc 1 209 15 is_stmt 0
	lw	a5,0(s0)
.LVL69:
	jalr	a5
.LVL70:
	.loc 1 210 9 is_stmt 1
	.loc 1 210 12 is_stmt 0
	blt	a0,zero,.L26
	.loc 1 214 9 is_stmt 1
	.loc 1 214 66 is_stmt 0
	lw	a5,80(s0)
	add	s2,a5,s2
	sw	zero,0(s2)
	.loc 1 216 9 is_stmt 1
	.loc 1 216 29 is_stmt 0
	lw	a5,68(s0)
	addi	a5,a5,1
	sw	a5,68(s0)
	.loc 1 219 9 is_stmt 1
	.loc 1 219 12 is_stmt 0
	beq	s7,zero,.L27
	.loc 1 220 13 is_stmt 1
	sgt	a1,a0,zero
	mv	a0,s8
.LVL71:
	jalr	s7
.LVL72:
	j	.L27
.LVL73:
.L26:
.LBE60:
.LBE59:
.LBE58:
.LBE61:
	.loc 1 347 28
	.loc 1 347 21
	.loc 1 347 9 is_stmt 0
	addi	s4,s4,1
.LVL74:
	addi	s3,s3,4
	bne	s4,s5,.L29
.LVL75:
.L25:
.LBE56:
	.loc 1 359 5 is_stmt 1
	.loc 1 360 5
	call	bl_tx_resend
.LVL76:
	.loc 1 362 5
	.loc 1 363 9
	.loc 1 363 13
	.loc 1 363 20
	.loc 1 365 5
	.loc 1 365 16 is_stmt 0
	andi	a5,s1,4
	.loc 1 365 8
	beq	a5,zero,.L30
	.loc 1 366 9 is_stmt 1
	.loc 1 366 13
	.loc 1 366 20
	.loc 1 367 9
.LVL77:
.LBB62:
.LBB63:
	.loc 1 174 5
	.loc 1 174 11 is_stmt 0
	lw	s2,168(s0)
.LVL78:
	.loc 1 176 5 is_stmt 1
	.loc 1 176 10
	.loc 1 176 13 is_stmt 0
	bne	s2,zero,.L31
	.loc 1 176 27 is_stmt 1
	.loc 1 176 41 is_stmt 0
	lui	a5,%hi(g_bl_ops_funcs+12)
	.loc 1 176 27
	lw	a5,%lo(g_bl_ops_funcs+12)(a5)
	lui	a3,%hi(.LC4)
	lui	a2,%hi(.LANCHOR4)
	lui	a0,%hi(.LC2)
	addi	a3,a3,%lo(.LC4)
	addi	a2,a2,%lo(.LANCHOR4)
	li	a1,176
	addi	a0,a0,%lo(.LC2)
	jalr	a5
.LVL79:
.L31:
	.loc 1 176 193 is_stmt 1
	.loc 1 177 5
	.loc 1 177 10
	.loc 1 177 88 is_stmt 0
	lw	a5,32(s0)
	.loc 1 177 19
	lbu	a4,164(s0)
	.loc 1 177 97
	lbu	a5,12(a5)
	.loc 1 177 13
	beq	a4,a5,.L32
	.loc 1 177 109 is_stmt 1
	.loc 1 177 123 is_stmt 0
	lui	a5,%hi(g_bl_ops_funcs+12)
	.loc 1 177 109
	lw	a5,%lo(g_bl_ops_funcs+12)(a5)
	lui	a3,%hi(.LC5)
	lui	a2,%hi(.LANCHOR4)
	lui	a0,%hi(.LC2)
	addi	a3,a3,%lo(.LC5)
	addi	a2,a2,%lo(.LANCHOR4)
	li	a1,177
	addi	a0,a0,%lo(.LC2)
	jalr	a5
.LVL80:
.L32:
	.loc 1 177 357 is_stmt 1
	.loc 1 179 5
	.loc 1 180 20 is_stmt 0
	lbu	a5,164(s0)
	.loc 1 181 5
	lw	a0,216(s0)
	.loc 1 179 24
	sw	zero,168(s0)
	.loc 1 180 5 is_stmt 1
	.loc 1 180 20 is_stmt 0
	addi	a5,a5,1
	sb	a5,164(s0)
	.loc 1 181 5 is_stmt 1
	lw	a5,16(s0)
	mv	a1,s2
	jalr	a5
.LVL81:
.L30:
.LBE63:
.LBE62:
	.loc 1 369 5
	.loc 1 373 5
	.loc 1 373 16 is_stmt 0
	andi	a5,s1,1
	.loc 1 373 8
	beq	a5,zero,.L33
.L34:
.LBB64:
.LBB65:
	.loc 1 247 9 is_stmt 1
	.loc 1 245 10
	.loc 1 246 43 is_stmt 0
	lbu	a5,204(s0)
	.loc 1 245 11
	lw	a4,20(s0)
	lw	a0,216(s0)
	addi	a5,a5,20
	slli	a5,a5,3
	add	a5,s0,a5
	lw	a1,12(a5)
	jalr	a4
.LVL82:
	.loc 1 245 10
	beq	a0,zero,.L34
.L33:
.LBE65:
.LBE64:
	.loc 1 377 5 is_stmt 1
	.loc 1 377 16 is_stmt 0
	andi	a5,s1,16
	.loc 1 377 8
	beq	a5,zero,.L35
	.loc 1 378 9 is_stmt 1
	.loc 1 378 13
	.loc 1 378 20
	.loc 1 379 9
	lw	a5,24(s0)
	lw	a0,216(s0)
	jalr	a5
.LVL83:
.L35:
	.loc 1 381 5
	.loc 1 381 16 is_stmt 0
	andi	s1,s1,32
.LVL84:
	.loc 1 381 8
	beq	s1,zero,.L24
	.loc 1 382 9 is_stmt 1
	.loc 1 382 13
	.loc 1 382 20
	.loc 1 383 9
	lw	a5,28(s0)
	lw	a0,216(s0)
	.loc 1 385 1 is_stmt 0
	lw	s0,40(sp)
	.cfi_remember_state
	.cfi_restore 8
.LVL85:
	lw	ra,44(sp)
	.cfi_restore 1
	lw	s1,36(sp)
	.cfi_restore 9
	lw	s2,32(sp)
	.cfi_restore 18
	lw	s3,28(sp)
	.cfi_restore 19
	lw	s4,24(sp)
	.cfi_restore 20
	lw	s5,20(sp)
	.cfi_restore 21
	lw	s6,16(sp)
	.cfi_restore 22
	lw	s7,12(sp)
	.cfi_restore 23
	lw	s8,8(sp)
	.cfi_restore 24
	addi	sp,sp,48
	.cfi_def_cfa_offset 0
	.loc 1 383 9
	jr	a5
.LVL86:
.L24:
	.cfi_restore_state
	.loc 1 385 1
	lw	ra,44(sp)
	.cfi_restore 1
	lw	s0,40(sp)
	.cfi_restore 8
.LVL87:
	lw	s1,36(sp)
	.cfi_restore 9
	lw	s2,32(sp)
	.cfi_restore 18
	lw	s3,28(sp)
	.cfi_restore 19
	lw	s4,24(sp)
	.cfi_restore 20
	lw	s5,20(sp)
	.cfi_restore 21
	lw	s6,16(sp)
	.cfi_restore 22
	lw	s7,12(sp)
	.cfi_restore 23
	lw	s8,8(sp)
	.cfi_restore 24
	addi	sp,sp,48
	.cfi_def_cfa_offset 0
	jr	ra
	.cfi_endproc
.LFE90:
	.size	ipc_host_irq, .-ipc_host_irq
	.section	.text.ipc_host_enable_irq,"ax",@progbits
	.align	1
	.globl	ipc_host_enable_irq
	.type	ipc_host_enable_irq, @function
ipc_host_enable_irq:
.LFB91:
	.loc 1 388 1 is_stmt 1
	.cfi_startproc
.LVL88:
	.loc 1 390 5
.LBB66:
.LBB67:
	.loc 2 179 5
	.loc 2 179 70 is_stmt 0
	li	a5,1149239296
	sw	a1,12(a5)
.LVL89:
.LBE67:
.LBE66:
	.loc 1 391 1
	ret
	.cfi_endproc
.LFE91:
	.size	ipc_host_enable_irq, .-ipc_host_enable_irq
	.section	.text.ipc_host_disable_irq,"ax",@progbits
	.align	1
	.globl	ipc_host_disable_irq
	.type	ipc_host_disable_irq, @function
ipc_host_disable_irq:
.LFB92:
	.loc 1 394 1 is_stmt 1
	.cfi_startproc
.LVL90:
	.loc 1 396 5
.LBB68:
.LBB69:
	.loc 2 217 5
	.loc 2 217 70 is_stmt 0
	li	a5,1149239296
	sw	a1,16(a5)
.LVL91:
.LBE69:
.LBE68:
	.loc 1 397 1
	ret
	.cfi_endproc
.LFE92:
	.size	ipc_host_disable_irq, .-ipc_host_disable_irq
	.section	.text.ipc_host_disable_irq_e2a,"ax",@progbits
	.align	1
	.globl	ipc_host_disable_irq_e2a
	.type	ipc_host_disable_irq_e2a, @function
ipc_host_disable_irq_e2a:
.LFB93:
	.loc 1 400 1 is_stmt 1
	.cfi_startproc
	.loc 1 401 5
.LVL92:
.LBB70:
.LBB71:
	.loc 2 217 5
	.loc 2 217 70 is_stmt 0
	li	a5,1149239296
	li	a4,2047
	sw	a4,16(a5)
.LVL93:
.LBE71:
.LBE70:
	.loc 1 402 1
	ret
	.cfi_endproc
.LFE93:
	.size	ipc_host_disable_irq_e2a, .-ipc_host_disable_irq_e2a
	.globl	used_issue
	.comm	cfg_start_req_u_tlv_t,12,4
	.section	.rodata.__FUNCTION__.0,"a"
	.align	2
	.set	.LANCHOR4,. + 0
	.type	__FUNCTION__.0, @object
	.size	__FUNCTION__.0, 24
__FUNCTION__.0:
	.string	"ipc_host_msgack_handler"
	.section	.rodata.__FUNCTION__.1,"a"
	.align	2
	.set	.LANCHOR0,. + 0
	.type	__FUNCTION__.1, @object
	.size	__FUNCTION__.1, 18
__FUNCTION__.1:
	.string	"ipc_host_msg_push"
	.section	.rodata.nx_txdesc_cnt,"a"
	.align	2
	.set	.LANCHOR2,. + 0
	.type	nx_txdesc_cnt, @object
	.size	nx_txdesc_cnt, 16
nx_txdesc_cnt:
	.word	2
	.word	2
	.word	2
	.word	2
	.section	.rodata.nx_txdesc_cnt_msk,"a"
	.align	2
	.set	.LANCHOR3,. + 0
	.type	nx_txdesc_cnt_msk, @object
	.size	nx_txdesc_cnt_msk, 16
nx_txdesc_cnt_msk:
	.word	1
	.word	1
	.word	1
	.word	1
	.section	.sbss.used_issue,"aw",@nobits
	.align	2
	.set	.LANCHOR1,. + 0
	.type	used_issue, @object
	.size	used_issue, 4
used_issue:
	.zero	4
	.text
.Letext0:
	.file 3 "/mnt/d/GitHub/bl_iot_sdk_for_aithinker/toolchain/riscv/Linux/riscv64-unknown-elf/include/machine/_default_types.h"
	.file 4 "/mnt/d/GitHub/bl_iot_sdk_for_aithinker/toolchain/riscv/Linux/riscv64-unknown-elf/include/sys/_stdint.h"
	.file 5 "/mnt/d/GitHub/bl_iot_sdk_for_aithinker/components/utils/include/utils_list.h"
	.file 6 "/mnt/d/GitHub/bl_iot_sdk_for_aithinker/components/network/lwip/src/include/lwip/arch.h"
	.file 7 "/mnt/d/GitHub/bl_iot_sdk_for_aithinker/components/network/lwip/src/include/lwip/pbuf.h"
	.file 8 "/mnt/d/GitHub/bl_iot_sdk_for_aithinker/components/os/bl_os_adapter/bl_os_adapter/include/bl_os_adapter/bl_os_type.h"
	.file 9 "/mnt/d/GitHub/bl_iot_sdk_for_aithinker/components/os/bl_os_adapter/bl_os_adapter/include/bl_os_adapter/bl_os_adapter.h"
	.file 10 "/mnt/d/GitHub/bl_iot_sdk_for_aithinker/components/network/wifi/include/bl60x_fw_api.h"
	.file 11 "/mnt/d/GitHub/bl_iot_sdk_for_aithinker/components/network/wifi_manager/bl60x_wifi_driver/lmac_types.h"
	.file 12 "/mnt/d/GitHub/bl_iot_sdk_for_aithinker/components/network/wifi_manager/bl60x_wifi_driver/lmac_mac.h"
	.file 13 "/mnt/d/GitHub/bl_iot_sdk_for_aithinker/components/network/wifi_manager/bl60x_wifi_driver/ipc_shared.h"
	.file 14 "/mnt/d/GitHub/bl_iot_sdk_for_aithinker/components/network/wifi_manager/bl60x_wifi_driver/ipc_host.h"
	.file 15 "/mnt/d/GitHub/bl_iot_sdk_for_aithinker/components/network/wifi_manager/bl60x_wifi_driver/list.h"
	.file 16 "/mnt/d/GitHub/bl_iot_sdk_for_aithinker/components/network/wifi_manager/bl60x_wifi_driver/lmac_msg.h"
	.file 17 "/mnt/d/GitHub/bl_iot_sdk_for_aithinker/components/network/wifi_manager/bl60x_wifi_driver/bl_cmds.h"
	.file 18 "/mnt/d/GitHub/bl_iot_sdk_for_aithinker/components/network/wifi_manager/bl60x_wifi_driver/bl_tx.h"
	.file 19 "/mnt/d/GitHub/bl_iot_sdk_for_aithinker/toolchain/riscv/Linux/riscv64-unknown-elf/include/string.h"
	.file 20 "<built-in>"