	.file	"wifi_mgmr_ext.c"
	.option nopic
	.attribute arch, "rv32i2p0_m2p0_f2p0_c2p0"
	.attribute unaligned_access, 0
	.attribute stack_align, 16
	.text
.Ltext0:
	.cfi_sections	.debug_frame
	.section	.rodata.cb_scan_complete.str1.4,"aMS",@progbits,1
	.align	2
.LC0:
	.string	"scan complete status: %d, ssid_len = %lu\r\n"
	.section	.text.cb_scan_complete,"ax",@progbits
	.align	1
	.type	cb_scan_complete, @function
cb_scan_complete:
.LFB58:
	.file 1 "/mnt/d/GitHub/bl_iot_sdk_for_aithinker/components/network/wifi_manager/bl60x_wifi_driver/wifi_mgmr_ext.c"
	.loc 1 45 1
	.cfi_startproc
.LVL0:
	.loc 1 46 5
	.loc 1 47 5
	.loc 1 48 5
	.loc 1 45 1 is_stmt 0
	addi	sp,sp,-16
	.cfi_def_cfa_offset 16
	sw	s0,8(sp)
.LVL1:
	.cfi_offset 8, -8
	.loc 1 48 19
	lui	s0,%hi(g_bl_ops_funcs)
	.loc 1 45 1
	sw	ra,12(sp)
	.cfi_offset 1, -4
	.loc 1 48 19
	addi	s0,s0,%lo(g_bl_ops_funcs)
	.loc 1 48 5
	lw	a5,4(s0)
	lw	a2,36(a0)
	lw	a1,0(a1)
.LVL2:
	lui	a0,%hi(.LC0)
.LVL3:
	addi	a0,a0,%lo(.LC0)
	jalr	a5
.LVL4:
	.loc 1 50 5 is_stmt 1
	.loc 1 50 18 is_stmt 0
	lui	a5,%hi(.LANCHOR0)
	lw	a0,%lo(.LANCHOR0)(a5)
	.loc 1 50 8
	beq	a0,zero,.L1
	.loc 1 51 9 is_stmt 1
	lw	a5,144(s0)
	.loc 1 53 1 is_stmt 0
	lw	s0,8(sp)
	.cfi_remember_state
	.cfi_restore 8
	lw	ra,12(sp)
	.cfi_restore 1
	addi	sp,sp,16
	.cfi_def_cfa_offset 0
	.loc 1 51 9
	jr	a5
.LVL5:
.L1:
	.cfi_restore_state
	.loc 1 53 1
	lw	ra,12(sp)
	.cfi_restore 1
	lw	s0,8(sp)
	.cfi_restore 8
	addi	sp,sp,16
	.cfi_def_cfa_offset 0
	jr	ra
	.cfi_endproc
.LFE58:
	.size	cb_scan_complete, .-cb_scan_complete
	.section	.text.mac_is_unvalid,"ax",@progbits
	.align	1
	.type	mac_is_unvalid, @function
mac_is_unvalid:
.LFB60:
	.loc 1 83 1 is_stmt 1
	.cfi_startproc
.LVL6:
	.loc 1 84 5
	.loc 1 85 5
	.loc 1 87 5
	.loc 1 87 10 is_stmt 0
	lbu	a5,0(a0)
.LVL7:
	.loc 1 88 5 is_stmt 1
	.loc 1 88 17
	.loc 1 88 12 is_stmt 0
	li	a4,1
	.loc 1 88 5
	li	a3,6
.LVL8:
.L6:
	.loc 1 89 9 is_stmt 1
	.loc 1 89 24 is_stmt 0
	add	a2,a0,a4
	.loc 1 89 12
	lbu	a2,0(a2)
	bne	a2,a5,.L8
	.loc 1 88 24 is_stmt 1 discriminator 2
	.loc 1 88 25 is_stmt 0 discriminator 2
	addi	a4,a4,1
.LVL9:
	.loc 1 88 17 is_stmt 1 discriminator 2
	.loc 1 88 5 is_stmt 0 discriminator 2
	bne	a4,a3,.L6
	.loc 1 93 5 is_stmt 1
	.loc 1 94 9
	.loc 1 94 23 is_stmt 0
	addi	a0,a5,-1
.LVL10:
	.loc 1 94 12
	andi	a0,a0,0xff
	sltiu	a0,a0,254
	xori	a0,a0,1
	.loc 1 101 1
	ret
.LVL11:
.L8:
	.loc 1 100 12
	li	a0,0
.LVL12:
	ret
	.cfi_endproc
.LFE60:
	.size	mac_is_unvalid, .-mac_is_unvalid
	.section	.text.wifi_mgmr_sta_pm_ops,"ax",@progbits
	.align	1
	.globl	wifi_mgmr_sta_pm_ops
	.type	wifi_mgmr_sta_pm_ops, @function
wifi_mgmr_sta_pm_ops:
.LFB79:
	.loc 1 332 1 is_stmt 1
	.cfi_startproc
.LVL13:
	.loc 1 333 5
	.loc 1 335 5
	.loc 1 336 5
	.loc 1 332 1 is_stmt 0
	addi	sp,sp,-16
	.cfi_def_cfa_offset 16
	sw	ra,12(sp)
	.cfi_offset 1, -4
	.loc 1 336 5
	call	wifi_mgmr_api_fw_powersaving
.LVL14:
	.loc 1 338 5 is_stmt 1
	.loc 1 339 1 is_stmt 0
	lw	ra,12(sp)
	.cfi_restore 1
	li	a0,0
	addi	sp,sp,16
	.cfi_def_cfa_offset 0
	jr	ra
	.cfi_endproc
.LFE79:
	.size	wifi_mgmr_sta_pm_ops, .-wifi_mgmr_sta_pm_ops
	.section	.text.cb_scan_item_parse,"ax",@progbits
	.align	1
	.type	cb_scan_item_parse, @function
cb_scan_item_parse:
.LFB59:
	.loc 1 56 1 is_stmt 1
	.cfi_startproc
.LVL15:
	.loc 1 58 5
	.loc 1 56 1 is_stmt 0
	addi	sp,sp,-32
	.cfi_def_cfa_offset 32
	sw	ra,28(sp)
	sw	s0,24(sp)
	sw	s1,20(sp)
	sw	s2,16(sp)
	sw	s3,12(sp)
	.cfi_offset 1, -4
	.cfi_offset 8, -8
	.cfi_offset 9, -12
	.cfi_offset 18, -16
	.cfi_offset 19, -20
	.loc 1 58 14
	lw	s2,0(a1)
.LVL16:
	.loc 1 61 5 is_stmt 1
	.loc 1 61 8 is_stmt 0
	li	a5,49
	bgtu	s2,a5,.L13
	.loc 1 66 66
	li	s0,52
	mul	s0,s2,s0
	.loc 1 70 31
	lbu	a5,46(a2)
	mv	s1,a2
	.loc 1 66 5 is_stmt 1
	mv	s3,a1
	.loc 1 72 5 is_stmt 0
	addi	a1,s1,40
.LVL17:
	.loc 1 67 12
	addi	s2,s2,1
.LVL18:
	.loc 1 66 26
	add	s0,a0,s0
.LVL19:
	.loc 1 67 5 is_stmt 1
	.loc 1 70 5
	.loc 1 70 25 is_stmt 0
	sb	a5,46(s0)
	.loc 1 71 5 is_stmt 1
	.loc 1 71 28 is_stmt 0
	lb	a5,48(a2)
	.loc 1 72 5
	addi	a0,s0,40
.LVL20:
	li	a2,6
.LVL21:
	.loc 1 71 22
	sb	a5,48(s0)
	.loc 1 72 5 is_stmt 1
	call	memcpy
.LVL22:
	.loc 1 73 5
	li	a2,32
	mv	a1,s1
	mv	a0,s0
	call	memcpy
.LVL23:
	.loc 1 74 5
	.loc 1 75 28 is_stmt 0
	mv	a0,s0
	.loc 1 74 30
	sb	zero,32(s0)
	.loc 1 75 5 is_stmt 1
	.loc 1 75 28 is_stmt 0
	call	strlen
.LVL24:
	.loc 1 75 26
	sw	a0,36(s0)
	.loc 1 76 5 is_stmt 1
	.loc 1 76 28 is_stmt 0
	lbu	a5,47(s1)
	.loc 1 76 22
	sb	a5,47(s0)
	.loc 1 79 5 is_stmt 1
	.loc 1 79 15 is_stmt 0
	sw	s2,0(s3)
.LVL25:
.L13:
	.loc 1 80 1
	lw	ra,28(sp)
	.cfi_restore 1
	lw	s0,24(sp)
	.cfi_restore 8
	lw	s1,20(sp)
	.cfi_restore 9
	lw	s2,16(sp)
	.cfi_restore 18
	lw	s3,12(sp)
	.cfi_restore 19
	addi	sp,sp,32
	.cfi_def_cfa_offset 0
	jr	ra
	.cfi_endproc
.LFE59:
	.size	cb_scan_item_parse, .-cb_scan_item_parse
	.section	.text.wifi_mgmr_psk_cal,"ax",@progbits
	.align	1
	.globl	wifi_mgmr_psk_cal
	.type	wifi_mgmr_psk_cal, @function
wifi_mgmr_psk_cal:
.LFB62:
	.loc 1 159 1 is_stmt 1
	.cfi_startproc
.LVL26:
	.loc 1 160 5
	.loc 1 161 5
	.loc 1 163 5
	.loc 1 159 1 is_stmt 0
	addi	sp,sp,-48
	.cfi_def_cfa_offset 48
	sw	s1,36(sp)
	.loc 1 163 11
	li	a5,32
	.cfi_offset 9, -12
	.loc 1 159 1
	mv	s1,a3
	.loc 1 163 11
	mv	a4,sp
	li	a3,4096
.LVL27:
	.loc 1 159 1
	sw	s0,40(sp)
	sw	ra,44(sp)
	.cfi_offset 8, -8
	.cfi_offset 1, -4
	.loc 1 163 11
	call	pbkdf2_sha1
.LVL28:
	mv	s0,a0
.LVL29:
	.loc 1 164 5 is_stmt 1
	.loc 1 164 8 is_stmt 0
	bne	a0,zero,.L16
	.loc 1 165 9 is_stmt 1
	li	a2,32
	mv	a1,sp
	mv	a0,s1
	call	utils_bin2hex
.LVL30:
	.loc 1 168 5
.L16:
	.loc 1 169 1 is_stmt 0
	lw	ra,44(sp)
	.cfi_restore 1
	mv	a0,s0
	lw	s0,40(sp)
	.cfi_restore 8
.LVL31:
	lw	s1,36(sp)
	.cfi_restore 9
.LVL32:
	addi	sp,sp,48
	.cfi_def_cfa_offset 0
	jr	ra
	.cfi_endproc
.LFE62:
	.size	wifi_mgmr_psk_cal, .-wifi_mgmr_psk_cal
	.section	.text.wifi_mgmr_drv_init,"ax",@progbits
	.align	1
	.globl	wifi_mgmr_drv_init
	.type	wifi_mgmr_drv_init, @function
wifi_mgmr_drv_init:
.LFB63:
	.loc 1 172 1 is_stmt 1
	.cfi_startproc
.LVL33:
	.loc 1 173 5
	.loc 1 172 1 is_stmt 0
	addi	sp,sp,-16
	.cfi_def_cfa_offset 16
	sw	ra,12(sp)
	sw	s0,8(sp)
	.cfi_offset 1, -4
	.cfi_offset 8, -8
	.loc 1 172 1
	mv	s0,a0
	.loc 1 173 5
	call	bl606a0_wifi_init
.LVL34:
	.loc 1 174 5 is_stmt 1
	mv	a0,s0
	call	wifi_mgmr_api_set_country_code
.LVL35:
	.loc 1 175 5
	call	wifi_mgmr_init
.LVL36:
	.loc 1 176 5
	call	wifi_mgmr_api_ifaceup
.LVL37:
	.loc 1 177 5
	.loc 1 178 1 is_stmt 0
	lw	ra,12(sp)
	.cfi_restore 1
	lw	s0,8(sp)
	.cfi_restore 8
.LVL38:
	li	a0,0
	addi	sp,sp,16
	.cfi_def_cfa_offset 0
	jr	ra
	.cfi_endproc
.LFE63:
	.size	wifi_mgmr_drv_init, .-wifi_mgmr_drv_init
	.section	.text.wifi_mgmr_get_wifi_channel_conf,"ax",@progbits
	.align	1
	.globl	wifi_mgmr_get_wifi_channel_conf
	.type	wifi_mgmr_get_wifi_channel_conf, @function
wifi_mgmr_get_wifi_channel_conf:
.LFB64:
	.loc 1 181 1 is_stmt 1
	.cfi_startproc
.LVL39:
	.loc 1 182 5
	lui	a1,%hi(wifiMgmr+4457)
	.loc 1 181 1 is_stmt 0
	addi	sp,sp,-16
	.cfi_def_cfa_offset 16
	.loc 1 182 5
	li	a2,3
	addi	a1,a1,%lo(wifiMgmr+4457)
	.loc 1 181 1
	sw	s0,8(sp)
	sw	ra,12(sp)
	.cfi_offset 8, -8
	.cfi_offset 1, -4
	.loc 1 181 1
	mv	s0,a0
	.loc 1 182 5
	call	strncpy
.LVL40:
	.loc 1 183 5 is_stmt 1
	.loc 1 183 44 is_stmt 0
	lui	a5,%hi(wifiMgmr+4472)
	lw	a5,%lo(wifiMgmr+4472)(a5)
	.loc 1 184 1
	lw	ra,12(sp)
	.cfi_restore 1
	.loc 1 183 34
	sw	a5,4(s0)
	.loc 1 184 1
	lw	s0,8(sp)
	.cfi_restore 8
.LVL41:
	addi	sp,sp,16
	.cfi_def_cfa_offset 0
	jr	ra
	.cfi_endproc
.LFE64:
	.size	wifi_mgmr_get_wifi_channel_conf, .-wifi_mgmr_get_wifi_channel_conf
	.section	.rodata.wifi_mgmr_sta_enable.str1.4,"aMS",@progbits,1
	.align	2
.LC1:
	.string	"----- STA has already been enable\r\n"
	.align	2
.LC2:
	.string	"---------STA enable\r\n"
	.section	.text.wifi_mgmr_sta_enable,"ax",@progbits
	.align	1
	.globl	wifi_mgmr_sta_enable
	.type	wifi_mgmr_sta_enable, @function
wifi_mgmr_sta_enable:
.LFB65:
	.loc 1 187 1 is_stmt 1
	.cfi_startproc
	.loc 1 188 5
	.loc 1 190 5
	.loc 1 191 23 is_stmt 0
	lui	a5,%hi(g_bl_ops_funcs+4)
	.loc 1 187 1
	addi	sp,sp,-32
	.cfi_def_cfa_offset 32
	.loc 1 191 23
	lw	a4,%lo(g_bl_ops_funcs+4)(a5)
	.loc 1 190 11
	lui	a5,%hi(.LANCHOR1)
	.loc 1 187 1
	sw	ra,28(sp)
	sw	s0,24(sp)
	sw	s1,20(sp)
	sw	s2,16(sp)
	.cfi_offset 1, -4
	.cfi_offset 8, -8
	.cfi_offset 9, -12
	.cfi_offset 18, -16
	.loc 1 190 11
	addi	a5,a5,%lo(.LANCHOR1)
	.loc 1 190 8
	lw	a2,0(a5)
	li	a3,1
	bne	a2,a3,.L24
	.loc 1 191 9 is_stmt 1
	lui	a0,%hi(.LC1)
	addi	a0,a0,%lo(.LC1)
	jalr	a4
.LVL42:
	.loc 1 192 9
.L25:
	.loc 1 201 1 is_stmt 0
	lw	ra,28(sp)
	.cfi_remember_state
	.cfi_restore 1
	lw	s0,24(sp)
	.cfi_restore 8
	lui	a0,%hi(wifiMgmr+8)
	lw	s1,20(sp)
	.cfi_restore 9
	lw	s2,16(sp)
	.cfi_restore 18
	addi	a0,a0,%lo(wifiMgmr+8)
	addi	sp,sp,32
	.cfi_def_cfa_offset 0
	jr	ra
.L24:
	.cfi_restore_state
	.loc 1 194 5 is_stmt 1
	.loc 1 196 5 is_stmt 0
	lui	a0,%hi(.LC2)
	addi	a0,a0,%lo(.LC2)
	.loc 1 194 10
	sw	a3,0(a5)
	.loc 1 196 5 is_stmt 1
	.loc 1 197 28 is_stmt 0
	lui	s0,%hi(wifiMgmr)
	.loc 1 196 5
	jalr	a4
.LVL43:
	.loc 1 197 5 is_stmt 1
.LBB4:
.LBB5:
	.loc 1 119 5 is_stmt 0
	lui	s1,%hi(wifiMgmr+98)
	lui	s2,%hi(wifiMgmr+13)
.LBE5:
.LBE4:
	.loc 1 197 28
	addi	a5,s0,%lo(wifiMgmr)
.LBB8:
.LBB6:
	.loc 1 119 5
	li	a2,6
	addi	a1,s2,%lo(wifiMgmr+13)
	addi	a0,s1,%lo(wifiMgmr+98)
.LBE6:
.LBE8:
	.loc 1 197 28
	sw	zero,8(a5)
	.loc 1 199 5 is_stmt 1
.LVL44:
.LBB9:
.LBB7:
	.loc 1 105 5
	.loc 1 106 5
	.loc 1 107 5
	.loc 1 114 5
	.loc 1 114 17 is_stmt 0
	sw	zero,4(sp)
	.loc 1 115 5 is_stmt 1
	.loc 1 115 18 is_stmt 0
	sw	zero,8(sp)
	.loc 1 116 5 is_stmt 1
	.loc 1 116 13 is_stmt 0
	sw	zero,12(sp)
	.loc 1 119 5 is_stmt 1
	call	memcpy
.LVL45:
	.loc 1 120 5
	.loc 1 120 9 is_stmt 0
	addi	a0,s1,%lo(wifiMgmr+98)
	call	mac_is_unvalid
.LVL46:
	addi	s0,s0,%lo(wifiMgmr)
	.loc 1 120 8
	beq	a0,zero,.L26
	.loc 1 122 9 is_stmt 1
	addi	a0,s1,%lo(wifiMgmr+98)
	call	bl_wifi_mac_addr_get
.LVL47:
	.loc 1 123 9
	.loc 1 123 13 is_stmt 0
	addi	a0,s1,%lo(wifiMgmr+98)
	call	mac_is_unvalid
.LVL48:
	.loc 1 123 12
	beq	a0,zero,.L27
	.loc 1 126 13 is_stmt 1
	.loc 1 127 13
	.loc 1 128 13
	.loc 1 129 13
	.loc 1 130 13
	.loc 1 131 13
	.loc 1 126 30 is_stmt 0
	li	a5,20480
	addi	a5,a5,192
	sh	a5,98(s0)
	.loc 1 128 30
	li	a5,16830464
	addi	a5,a5,-1725
	sw	a5,100(s0)
.L27:
	.loc 1 134 9 is_stmt 1
	li	a2,6
	addi	a1,s1,%lo(wifiMgmr+98)
	addi	a0,s2,%lo(wifiMgmr+13)
	call	memcpy
.LVL49:
.L26:
	.loc 1 150 5
	lui	s1,%hi(wifiMgmr+40)
	lui	a6,%hi(tcpip_input)
	lui	a5,%hi(bl606a0_wifi_netif_init)
	addi	a6,a6,%lo(tcpip_input)
	li	a4,0
	addi	a3,sp,12
	addi	a2,sp,8
	addi	a1,sp,4
	addi	a5,a5,%lo(bl606a0_wifi_netif_init)
	addi	a0,s1,%lo(wifiMgmr+40)
	call	netifapi_netif_add
.LVL50:
	.loc 1 151 5
	.loc 1 152 5
	.loc 1 151 20 is_stmt 0
	li	a5,28672
	addi	a5,a5,1139
	sh	a5,106(s0)
	.loc 1 153 5 is_stmt 1
	.loc 1 153 18 is_stmt 0
	lbu	a5,105(s0)
	.loc 1 154 5
	lui	a1,%hi(netif_set_default)
	li	a2,0
	.loc 1 153 18
	ori	a5,a5,36
	.loc 1 154 5
	addi	a1,a1,%lo(netif_set_default)
	addi	a0,s1,%lo(wifiMgmr+40)
	.loc 1 153 18
	sb	a5,105(s0)
	.loc 1 154 5 is_stmt 1
	call	netifapi_netif_common
.LVL51:
	.loc 1 155 5
	lui	a1,%hi(netif_set_up)
	li	a2,0
	addi	a1,a1,%lo(netif_set_up)
	addi	a0,s1,%lo(wifiMgmr+40)
	call	netifapi_netif_common
.LVL52:
	.loc 1 156 1 is_stmt 0
	j	.L25
.LBE7:
.LBE9:
	.cfi_endproc
.LFE65:
	.size	wifi_mgmr_sta_enable, .-wifi_mgmr_sta_enable
	.section	.text.wifi_mgmr_sta_disable,"ax",@progbits
	.align	1
	.globl	wifi_mgmr_sta_disable
	.type	wifi_mgmr_sta_disable, @function
wifi_mgmr_sta_disable:
.LFB66:
	.loc 1 204 1 is_stmt 1
	.cfi_startproc
.LVL53:
	.loc 1 205 5
	.loc 1 204 1 is_stmt 0
	addi	sp,sp,-16
	.cfi_def_cfa_offset 16
	sw	ra,12(sp)
	.cfi_offset 1, -4
	.loc 1 205 5
	call	wifi_mgmr_api_idle
.LVL54:
	.loc 1 206 5 is_stmt 1
	.loc 1 207 1 is_stmt 0
	lw	ra,12(sp)
	.cfi_restore 1
	li	a0,0
	addi	sp,sp,16
	.cfi_def_cfa_offset 0
	jr	ra
	.cfi_endproc
.LFE66:
	.size	wifi_mgmr_sta_disable, .-wifi_mgmr_sta_disable
	.section	.text.wifi_mgmr_sta_netif_get,"ax",@progbits
	.align	1
	.globl	wifi_mgmr_sta_netif_get
	.type	wifi_mgmr_sta_netif_get, @function
wifi_mgmr_sta_netif_get:
.LFB67:
	.loc 1 210 1 is_stmt 1
	.cfi_startproc
	.loc 1 211 5
	.loc 1 211 12 is_stmt 0
	lui	a0,%hi(wifiMgmr+40)
	.loc 1 212 1
	addi	a0,a0,%lo(wifiMgmr+40)
	ret
	.cfi_endproc
.LFE67:
	.size	wifi_mgmr_sta_netif_get, .-wifi_mgmr_sta_netif_get
	.section	.text.wifi_mgmr_ap_netif_get,"ax",@progbits
	.align	1
	.globl	wifi_mgmr_ap_netif_get
	.type	wifi_mgmr_ap_netif_get, @function
wifi_mgmr_ap_netif_get:
.LFB68:
	.loc 1 215 1 is_stmt 1
	.cfi_startproc
	.loc 1 216 5
	.loc 1 216 12 is_stmt 0
	lui	a0,%hi(wifiMgmr+160)
	.loc 1 217 1
	addi	a0,a0,%lo(wifiMgmr+160)
	ret
	.cfi_endproc
.LFE68:
	.size	wifi_mgmr_ap_netif_get, .-wifi_mgmr_ap_netif_get
	.section	.text.wifi_mgmr_sta_mac_set,"ax",@progbits
	.align	1
	.globl	wifi_mgmr_sta_mac_set
	.type	wifi_mgmr_sta_mac_set, @function
wifi_mgmr_sta_mac_set:
.LFB69:
	.loc 1 220 1 is_stmt 1
	.cfi_startproc
.LVL55:
	.loc 1 221 5
	.loc 1 220 1 is_stmt 0
	mv	a1,a0
	.loc 1 221 5
	lui	a0,%hi(wifiMgmr+13)
.LVL56:
	.loc 1 220 1
	addi	sp,sp,-16
	.cfi_def_cfa_offset 16
	.loc 1 221 5
	li	a2,6
	addi	a0,a0,%lo(wifiMgmr+13)
	.loc 1 220 1
	sw	ra,12(sp)
	.cfi_offset 1, -4
	.loc 1 221 5
	call	memcpy
.LVL57:
	.loc 1 222 5 is_stmt 1
	.loc 1 223 1 is_stmt 0
	lw	ra,12(sp)
	.cfi_restore 1
	li	a0,0
	addi	sp,sp,16
	.cfi_def_cfa_offset 0
	jr	ra
	.cfi_endproc
.LFE69:
	.size	wifi_mgmr_sta_mac_set, .-wifi_mgmr_sta_mac_set
	.section	.text.wifi_mgmr_sta_mac_get,"ax",@progbits
	.align	1
	.globl	wifi_mgmr_sta_mac_get
	.type	wifi_mgmr_sta_mac_get, @function
wifi_mgmr_sta_mac_get:
.LFB70:
	.loc 1 226 1 is_stmt 1
	.cfi_startproc
.LVL58:
	.loc 1 229 5
	.loc 1 226 1 is_stmt 0
	addi	sp,sp,-16
	.cfi_def_cfa_offset 16
	sw	s0,8(sp)
	.cfi_offset 8, -8
	.loc 1 229 9
	lui	s0,%hi(wifiMgmr+13)
	.loc 1 226 1
	sw	s1,4(sp)
	.cfi_offset 9, -12
	mv	s1,a0
	.loc 1 229 9
	addi	a0,s0,%lo(wifiMgmr+13)
.LVL59:
	.loc 1 226 1
	sw	ra,12(sp)
	.cfi_offset 1, -4
	.loc 1 229 9
	call	mac_is_unvalid
.LVL60:
	.loc 1 229 8
	beq	a0,zero,.L43
	.loc 1 230 9 is_stmt 1
	addi	a0,s0,%lo(wifiMgmr+13)
	call	bl_wifi_mac_addr_get
.LVL61:
	.loc 1 231 9
	.loc 1 231 13 is_stmt 0
	addi	a0,s0,%lo(wifiMgmr+13)
	call	mac_is_unvalid
.LVL62:
	.loc 1 231 12
	beq	a0,zero,.L43
	.loc 1 234 13 is_stmt 1
	.loc 1 235 13
	.loc 1 236 13
	.loc 1 237 13
	.loc 1 238 13
	.loc 1 239 13
	.loc 1 234 38 is_stmt 0
	lui	a5,%hi(wifiMgmr)
	addi	a5,a5,%lo(wifiMgmr)
	li	a4,24
	sb	a4,13(a5)
	.loc 1 235 38
	li	a4,1465
	sh	a4,14(a5)
	.loc 1 239 38
	li	a4,1
	.loc 1 237 38
	sh	zero,16(a5)
	.loc 1 239 38
	sb	a4,18(a5)
.L43:
	.loc 1 242 5 is_stmt 1
	addi	a1,s0,%lo(wifiMgmr+13)
	mv	a0,s1
	li	a2,6
	call	memcpy
.LVL63:
	.loc 1 243 5
	.loc 1 244 1 is_stmt 0
	lw	ra,12(sp)
	.cfi_restore 1
	lw	s0,8(sp)
	.cfi_restore 8
	lw	s1,4(sp)
	.cfi_restore 9
.LVL64:
	li	a0,0
	addi	sp,sp,16
	.cfi_def_cfa_offset 0
	jr	ra
	.cfi_endproc
.LFE70:
	.size	wifi_mgmr_sta_mac_get, .-wifi_mgmr_sta_mac_get
	.section	.text.wifi_mgmr_sta_ip_get,"ax",@progbits
	.align	1
	.globl	wifi_mgmr_sta_ip_get
	.type	wifi_mgmr_sta_ip_get, @function
wifi_mgmr_sta_ip_get:
.LFB71:
	.loc 1 247 1 is_stmt 1
	.cfi_startproc
.LVL65:
	.loc 1 248 5
	.loc 1 248 72 is_stmt 0
	lui	a5,%hi(wifiMgmr)
	addi	a5,a5,%lo(wifiMgmr)
	lw	a4,44(a5)
	.loc 1 248 9
	sw	a4,0(a0)
	.loc 1 249 5 is_stmt 1
	.loc 1 249 74 is_stmt 0
	lw	a4,48(a5)
	.loc 1 253 1
	li	a0,0
.LVL66:
	.loc 1 249 11
	sw	a4,0(a2)
	.loc 1 250 5 is_stmt 1
	.loc 1 250 67 is_stmt 0
	lw	a5,52(a5)
	.loc 1 250 9
	sw	a5,0(a1)
	.loc 1 252 5 is_stmt 1
	.loc 1 253 1 is_stmt 0
	ret
	.cfi_endproc
.LFE71:
	.size	wifi_mgmr_sta_ip_get, .-wifi_mgmr_sta_ip_get
	.section	.text.wifi_mgmr_sta_dns_get,"ax",@progbits
	.align	1
	.globl	wifi_mgmr_sta_dns_get
	.type	wifi_mgmr_sta_dns_get, @function
wifi_mgmr_sta_dns_get:
.LFB72:
	.loc 1 256 1 is_stmt 1
	.cfi_startproc
.LVL67:
	.loc 1 257 5
	.loc 1 260 5
	.loc 1 256 1 is_stmt 0
	addi	sp,sp,-16
	.cfi_def_cfa_offset 16
	sw	s1,4(sp)
	.cfi_offset 9, -12
	mv	s1,a0
	.loc 1 260 11
	li	a0,0
.LVL68:
	.loc 1 256 1
	sw	ra,12(sp)
	sw	s0,8(sp)
	.cfi_offset 1, -4
	.cfi_offset 8, -8
	.loc 1 256 1
	mv	s0,a1
	.loc 1 260 11
	call	dns_getserver
.LVL69:
	.loc 1 261 5 is_stmt 1
	.loc 1 261 21 is_stmt 0
	lw	a5,0(a0)
	.loc 1 265 15
	li	a0,1
.LVL70:
	.loc 1 261 11
	sw	a5,0(s1)
	.loc 1 264 5 is_stmt 1
	.loc 1 265 9
	.loc 1 265 15 is_stmt 0
	call	dns_getserver
.LVL71:
	.loc 1 266 9 is_stmt 1
	.loc 1 266 25 is_stmt 0
	lw	a5,0(a0)
	.loc 1 272 1
	lw	ra,12(sp)
	.cfi_restore 1
	lw	s1,4(sp)
	.cfi_restore 9
.LVL72:
	.loc 1 266 15
	sw	a5,0(s0)
	.loc 1 271 5 is_stmt 1
	.loc 1 272 1 is_stmt 0
	lw	s0,8(sp)
	.cfi_restore 8
.LVL73:
	li	a0,0
.LVL74:
	addi	sp,sp,16
	.cfi_def_cfa_offset 0
	jr	ra
	.cfi_endproc
.LFE72:
	.size	wifi_mgmr_sta_dns_get, .-wifi_mgmr_sta_dns_get
	.section	.text.wifi_mgmr_sta_ip_set,"ax",@progbits
	.align	1
	.globl	wifi_mgmr_sta_ip_set
	.type	wifi_mgmr_sta_ip_set, @function
wifi_mgmr_sta_ip_set:
.LFB73:
	.loc 1 275 1 is_stmt 1
	.cfi_startproc
.LVL75:
.LBB10:
	.loc 1 276 7
	.loc 1 276 29
.LBE10:
	.loc 1 275 1 is_stmt 0
	addi	sp,sp,-32
	.cfi_def_cfa_offset 32
	sw	s0,24(sp)
	.cfi_offset 8, -8
.LBB11:
	.loc 1 276 57
	lui	s0,%hi(g_bl_ops_funcs)
	addi	s0,s0,%lo(g_bl_ops_funcs)
	.loc 1 276 43
	lw	a5,20(s0)
.LBE11:
	.loc 1 275 1
	sw	ra,28(sp)
	sw	s1,20(sp)
	sw	s2,16(sp)
	sw	s3,12(sp)
	sw	s4,8(sp)
	sw	s5,4(sp)
	.cfi_offset 1, -4
	.cfi_offset 9, -12
	.cfi_offset 18, -16
	.cfi_offset 19, -20
	.cfi_offset 20, -24
	.cfi_offset 21, -28
	.loc 1 275 1
	mv	s4,a1
	mv	s3,a2
	mv	s2,a3
	mv	s1,a4
	mv	s5,a0
.LBB12:
	.loc 1 276 43
	jalr	a5
.LVL76:
	.loc 1 276 76 is_stmt 1
	.loc 1 278 5
	.loc 1 278 31 is_stmt 0
	lui	a5,%hi(wifiMgmr)
	addi	a5,a5,%lo(wifiMgmr)
	sw	s5,20(a5)
	.loc 1 279 5 is_stmt 1
	.loc 1 279 33 is_stmt 0
	sw	s4,24(a5)
	.loc 1 280 5 is_stmt 1
	.loc 1 280 31 is_stmt 0
	sw	s3,28(a5)
	.loc 1 281 5 is_stmt 1
	.loc 1 281 33 is_stmt 0
	sw	s2,32(a5)
	.loc 1 282 5 is_stmt 1
	.loc 1 282 33 is_stmt 0
	sw	s1,36(a5)
	.loc 1 284 5 is_stmt 1
	lw	a5,24(s0)
	jalr	a5
.LVL77:
.LBE12:
	.loc 1 284 50
	.loc 1 286 5
	call	wifi_mgmr_api_ip_update
.LVL78:
	.loc 1 288 5
	.loc 1 289 1 is_stmt 0
	lw	ra,28(sp)
	.cfi_restore 1
	lw	s0,24(sp)
	.cfi_restore 8
	lw	s1,20(sp)
	.cfi_restore 9
.LVL79:
	lw	s2,16(sp)
	.cfi_restore 18
.LVL80:
	lw	s3,12(sp)
	.cfi_restore 19
.LVL81:
	lw	s4,8(sp)
	.cfi_restore 20
.LVL82:
	lw	s5,4(sp)
	.cfi_restore 21
.LVL83:
	li	a0,0
	addi	sp,sp,32
	.cfi_def_cfa_offset 0
	jr	ra
	.cfi_endproc
.LFE73:
	.size	wifi_mgmr_sta_ip_set, .-wifi_mgmr_sta_ip_set
	.section	.text.wifi_mgmr_sta_ip_unset,"ax",@progbits
	.align	1
	.globl	wifi_mgmr_sta_ip_unset
	.type	wifi_mgmr_sta_ip_unset, @function
wifi_mgmr_sta_ip_unset:
.LFB74:
	.loc 1 292 1 is_stmt 1
	.cfi_startproc
	.loc 1 293 5
	.loc 1 293 12 is_stmt 0
	li	a4,0
	li	a3,0
	li	a2,0
	li	a1,0
	li	a0,0
	tail	wifi_mgmr_sta_ip_set
.LVL84:
	.cfi_endproc
.LFE74:
	.size	wifi_mgmr_sta_ip_unset, .-wifi_mgmr_sta_ip_unset
	.section	.text.wifi_mgmr_sta_disconnect,"ax",@progbits
	.align	1
	.globl	wifi_mgmr_sta_disconnect
	.type	wifi_mgmr_sta_disconnect, @function
wifi_mgmr_sta_disconnect:
.LFB77:
	.loc 1 321 1 is_stmt 1
	.cfi_startproc
	.loc 1 322 5
	.loc 1 321 1 is_stmt 0
	addi	sp,sp,-16
	.cfi_def_cfa_offset 16
	sw	ra,12(sp)
	.cfi_offset 1, -4
	.loc 1 322 5
	call	wifi_mgmr_api_disconnect
.LVL85:
	.loc 1 323 5 is_stmt 1
	.loc 1 324 1 is_stmt 0
	lw	ra,12(sp)
	.cfi_restore 1
	li	a0,0
	addi	sp,sp,16
	.cfi_def_cfa_offset 0
	jr	ra
	.cfi_endproc
.LFE77:
	.size	wifi_mgmr_sta_disconnect, .-wifi_mgmr_sta_disconnect
	.section	.text.wifi_mgmr_sta_state_get,"ax",@progbits
	.align	1
	.globl	wifi_mgmr_sta_state_get
	.type	wifi_mgmr_sta_state_get, @function
wifi_mgmr_sta_state_get:
.LFB78:
	.loc 1 327 1 is_stmt 1
	.cfi_startproc
.LVL86:
	.loc 1 328 5
	.loc 1 328 12 is_stmt 0
	tail	wifi_mgmr_sta_state_get_internal
.LVL87:
	.cfi_endproc
.LFE78:
	.size	wifi_mgmr_sta_state_get, .-wifi_mgmr_sta_state_get
	.section	.text.wifi_mgmr_pm_ops_register,"ax",@progbits
	.align	1
	.globl	wifi_mgmr_pm_ops_register
	.type	wifi_mgmr_pm_ops_register, @function
wifi_mgmr_pm_ops_register:
.LFB80:
	.loc 1 342 1 is_stmt 1
	.cfi_startproc
	.loc 1 343 5
	.loc 1 342 1 is_stmt 0
	addi	sp,sp,-16
	.cfi_def_cfa_offset 16
	sw	s0,8(sp)
	.cfi_offset 8, -8
	.loc 1 343 5
	lui	s0,%hi(wifi_mgmr_sta_pm_ops)
	addi	a4,s0,%lo(wifi_mgmr_sta_pm_ops)
	li	a6,1
	li	a5,2
	li	a3,8
	li	a2,1
	li	a1,0
	li	a0,0
	.loc 1 342 1
	sw	ra,12(sp)
	.cfi_offset 1, -4
	.loc 1 343 5
	call	wifi_hosal_pm_event_register
.LVL88:
	.loc 1 344 5 is_stmt 1
	addi	a4,s0,%lo(wifi_mgmr_sta_pm_ops)
	li	a6,1
	li	a5,0
	li	a3,6
	li	a2,1
	li	a1,1
	li	a0,0
	call	wifi_hosal_pm_event_register
.LVL89:
	.loc 1 346 5
	.loc 1 347 1 is_stmt 0
	lw	ra,12(sp)
	.cfi_restore 1
	lw	s0,8(sp)
	.cfi_restore 8
	li	a0,0
	addi	sp,sp,16
	.cfi_def_cfa_offset 0
	jr	ra
	.cfi_endproc
.LFE80:
	.size	wifi_mgmr_pm_ops_register, .-wifi_mgmr_pm_ops_register
	.section	.text.wifi_mgmr_fw_affair_ops,"ax",@progbits
	.align	1
	.globl	wifi_mgmr_fw_affair_ops
	.type	wifi_mgmr_fw_affair_ops, @function
wifi_mgmr_fw_affair_ops:
.LFB81:
	.loc 1 350 1 is_stmt 1
	.cfi_startproc
	.loc 1 351 5
	.loc 1 350 1 is_stmt 0
	addi	sp,sp,-16
	.cfi_def_cfa_offset 16
	.loc 1 351 5
	li	a2,1
	li	a1,0
	li	a0,3
	.loc 1 350 1
	sw	ra,12(sp)
	.cfi_offset 1, -4
	.loc 1 351 5
	call	wifi_hosal_pm_event_switch
.LVL90:
	.loc 1 352 5 is_stmt 1
	li	a2,1
	li	a1,1
	li	a0,4
	call	wifi_hosal_pm_event_switch
.LVL91:
	.loc 1 353 5
	li	a2,1
	li	a1,0
	li	a0,2
	call	wifi_hosal_pm_event_switch
.LVL92:
	.loc 1 355 5
	.loc 1 356 1 is_stmt 0
	lw	ra,12(sp)
	.cfi_restore 1
	li	a0,0
	addi	sp,sp,16
	.cfi_def_cfa_offset 0
	jr	ra
	.cfi_endproc
.LFE81:
	.size	wifi_mgmr_fw_affair_ops, .-wifi_mgmr_fw_affair_ops
	.section	.rodata.wifi_mgmr_sta_ps_enter.str1.4,"aMS",@progbits,1
	.align	2
.LC3:
	.string	"----- Error PS Mode\r\n"
	.section	.text.wifi_mgmr_sta_ps_enter,"ax",@progbits
	.align	1
	.globl	wifi_mgmr_sta_ps_enter
	.type	wifi_mgmr_sta_ps_enter, @function
wifi_mgmr_sta_ps_enter:
.LFB82:
	.loc 1 359 1 is_stmt 1
	.cfi_startproc
.LVL93:
	.loc 1 360 5
	.loc 1 362 5
	.loc 1 359 1 is_stmt 0
	addi	sp,sp,-16
	.cfi_def_cfa_offset 16
	sw	ra,12(sp)
	.cfi_offset 1, -4
	.loc 1 362 10
	call	wifi_hosal_pm_capacity_set
.LVL94:
	.loc 1 362 8
	bne	a0,zero,.L63
	.loc 1 363 9 is_stmt 1
	.loc 1 369 1 is_stmt 0
	lw	ra,12(sp)
	.cfi_remember_state
	.cfi_restore 1
	.loc 1 363 18
	li	a2,0
	.loc 1 369 1
	.loc 1 363 18
	li	a1,0
	.loc 1 369 1
	addi	sp,sp,16
	.cfi_def_cfa_offset 0
	.loc 1 363 18
	tail	wifi_hosal_pm_post_event
.LVL95:
.L63:
	.cfi_restore_state
	.loc 1 365 9 is_stmt 1
	.loc 1 365 23 is_stmt 0
	lui	a5,%hi(g_bl_ops_funcs+4)
	.loc 1 365 9
	lw	a5,%lo(g_bl_ops_funcs+4)(a5)
	lui	a0,%hi(.LC3)
	addi	a0,a0,%lo(.LC3)
	jalr	a5
.LVL96:
	.loc 1 368 5 is_stmt 1
	.loc 1 369 1 is_stmt 0
	lw	ra,12(sp)
	.cfi_restore 1
	li	a0,0
	addi	sp,sp,16
	.cfi_def_cfa_offset 0
	jr	ra
	.cfi_endproc
.LFE82:
	.size	wifi_mgmr_sta_ps_enter, .-wifi_mgmr_sta_ps_enter
	.section	.text.wifi_mgmr_sta_ps_exit,"ax",@progbits
	.align	1
	.globl	wifi_mgmr_sta_ps_exit
	.type	wifi_mgmr_sta_ps_exit, @function
wifi_mgmr_sta_ps_exit:
.LFB83:
	.loc 1 372 1 is_stmt 1
	.cfi_startproc
	.loc 1 373 5
	.loc 1 372 1 is_stmt 0
	addi	sp,sp,-16
	.cfi_def_cfa_offset 16
	.loc 1 373 5
	li	a2,0
	li	a1,1
	li	a0,0
	.loc 1 372 1
	sw	ra,12(sp)
	.cfi_offset 1, -4
	.loc 1 373 5
	call	wifi_hosal_pm_post_event
.LVL97:
	.loc 1 375 5 is_stmt 1
	.loc 1 376 1 is_stmt 0
	lw	ra,12(sp)
	.cfi_restore 1
	li	a0,0
	addi	sp,sp,16
	.cfi_def_cfa_offset 0
	jr	ra
	.cfi_endproc
.LFE83:
	.size	wifi_mgmr_sta_ps_exit, .-wifi_mgmr_sta_ps_exit
	.section	.text.wifi_mgmr_sta_autoconnect_enable,"ax",@progbits
	.align	1
	.globl	wifi_mgmr_sta_autoconnect_enable
	.type	wifi_mgmr_sta_autoconnect_enable, @function
wifi_mgmr_sta_autoconnect_enable:
.LFB84:
	.loc 1 379 1 is_stmt 1
	.cfi_startproc
	.loc 1 380 5
	.loc 1 379 1 is_stmt 0
	addi	sp,sp,-16
	.cfi_def_cfa_offset 16
	sw	ra,12(sp)
	.cfi_offset 1, -4
	.loc 1 380 5
	call	wifi_mgmr_api_enable_autoreconnect
.LVL98:
	.loc 1 381 5 is_stmt 1
	.loc 1 382 1 is_stmt 0
	lw	ra,12(sp)
	.cfi_restore 1
	li	a0,0
	addi	sp,sp,16
	.cfi_def_cfa_offset 0
	jr	ra
	.cfi_endproc
.LFE84:
	.size	wifi_mgmr_sta_autoconnect_enable, .-wifi_mgmr_sta_autoconnect_enable
	.section	.text.wifi_mgmr_sta_autoconnect_disable,"ax",@progbits
	.align	1
	.globl	wifi_mgmr_sta_autoconnect_disable
	.type	wifi_mgmr_sta_autoconnect_disable, @function
wifi_mgmr_sta_autoconnect_disable:
.LFB85:
	.loc 1 385 1 is_stmt 1
	.cfi_startproc
	.loc 1 386 5
	.loc 1 385 1 is_stmt 0
	addi	sp,sp,-16
	.cfi_def_cfa_offset 16
	sw	ra,12(sp)
	.cfi_offset 1, -4
	.loc 1 386 5
	call	wifi_mgmr_api_disable_autoreconnect
.LVL99:
	.loc 1 387 5 is_stmt 1
	.loc 1 388 1 is_stmt 0
	lw	ra,12(sp)
	.cfi_restore 1
	li	a0,0
	addi	sp,sp,16
	.cfi_def_cfa_offset 0
	jr	ra
	.cfi_endproc
.LFE85:
	.size	wifi_mgmr_sta_autoconnect_disable, .-wifi_mgmr_sta_autoconnect_disable
	.section	.text.wifi_mgmr_sta_autoconnect_set,"ax",@progbits
	.align	1
	.globl	wifi_mgmr_sta_autoconnect_set
	.type	wifi_mgmr_sta_autoconnect_set, @function
wifi_mgmr_sta_autoconnect_set:
.LFB86:
	.loc 1 391 1 is_stmt 1
	.cfi_startproc
.LVL100:
	.loc 1 392 5
	.loc 1 392 32 is_stmt 0
	lui	a5,%hi(wifiMgmr+4096)
	addi	a5,a5,%lo(wifiMgmr+4096)
	.loc 1 393 37
	sh	a0,368(a5)
	.loc 1 392 32
	sh	zero,366(a5)
	.loc 1 393 5 is_stmt 1
	.loc 1 394 5
	.loc 1 394 41 is_stmt 0
	sh	a1,370(a5)
	.loc 1 395 5 is_stmt 1
	.loc 1 396 1 is_stmt 0
	li	a0,0
.LVL101:
	ret
	.cfi_endproc
.LFE86:
	.size	wifi_mgmr_sta_autoconnect_set, .-wifi_mgmr_sta_autoconnect_set
	.section	.rodata.wifi_mgmr_sta_connect_ind_stat_get.str1.4,"aMS",@progbits,1
	.align	2
.LC4:
	.string	"wifi mgmr ind status code = %d\r\n"
	.align	2
.LC5:
	.string	"ssid: %s, passphr: %s, band: %d, freq: %d, type_ind: %d\r\n"
	.align	2
.LC6:
	.string	"bssid: %02x%02x%02x%02x%02x%02x\r\n"
	.section	.text.wifi_mgmr_sta_connect_ind_stat_get,"ax",@progbits
	.align	1
	.globl	wifi_mgmr_sta_connect_ind_stat_get
	.type	wifi_mgmr_sta_connect_ind_stat_get, @function
wifi_mgmr_sta_connect_ind_stat_get:
.LFB87:
	.loc 1 399 1 is_stmt 1
	.cfi_startproc
.LVL102:
	.loc 1 400 5
	.loc 1 399 1 is_stmt 0
	addi	sp,sp,-32
	.cfi_def_cfa_offset 32
	sw	s3,12(sp)
	.cfi_offset 19, -20
	.loc 1 400 20
	lui	s3,%hi(wifiMgmr+4350)
	.loc 1 399 1
	sw	s0,24(sp)
	.cfi_offset 8, -8
	mv	s0,a0
	.loc 1 400 20
	addi	a0,s3,%lo(wifiMgmr+4350)
.LVL103:
	.loc 1 399 1
	sw	s2,16(sp)
	sw	ra,28(sp)
	sw	s1,20(sp)
	sw	s4,8(sp)
	.cfi_offset 18, -16
	.cfi_offset 1, -4
	.cfi_offset 9, -12
	.cfi_offset 20, -24
	.loc 1 400 20
	call	strlen
.LVL104:
	.loc 1 401 5 is_stmt 1
	.loc 1 402 34 is_stmt 0
	addi	s2,s0,3
	.loc 1 401 8
	ble	a0,zero,.L73
	mv	s1,a0
	.loc 1 402 9 is_stmt 1
	mv	a2,a0
	addi	a1,s3,%lo(wifiMgmr+4350)
	mv	a0,s2
.LVL105:
	.loc 1 403 44 is_stmt 0
	add	s1,s0,s1
.LVL106:
	.loc 1 402 9
	call	memcpy
.LVL107:
	.loc 1 403 9 is_stmt 1
	.loc 1 403 44 is_stmt 0
	sb	zero,3(s1)
.L73:
	.loc 1 406 5 is_stmt 1
	.loc 1 406 23 is_stmt 0
	lui	s4,%hi(wifiMgmr+4382)
	addi	a0,s4,%lo(wifiMgmr+4382)
	call	strlen
.LVL108:
	mv	s1,a0
.LVL109:
	.loc 1 407 5 is_stmt 1
	.loc 1 408 34 is_stmt 0
	addi	s3,s0,35
	.loc 1 407 8
	ble	a0,zero,.L74
	.loc 1 408 9 is_stmt 1
	mv	a2,a0
	addi	a1,s4,%lo(wifiMgmr+4382)
	mv	a0,s3
	.loc 1 409 50 is_stmt 0
	add	s1,s0,s1
.LVL110:
	.loc 1 408 9
	call	memcpy
.LVL111:
	.loc 1 409 9 is_stmt 1
	.loc 1 409 50 is_stmt 0
	sb	zero,35(s1)
.L74:
	.loc 1 412 5 is_stmt 1
	lui	a1,%hi(wifiMgmr+4447)
	li	a2,6
	addi	a1,a1,%lo(wifiMgmr+4447)
	addi	a0,s0,164
	call	memcpy
.LVL112:
	.loc 1 414 5
	.loc 1 414 67 is_stmt 0
	lui	a5,%hi(wifiMgmr+4096)
	addi	a5,a5,%lo(wifiMgmr+4096)
	lhu	a1,248(a5)
	.loc 1 419 19
	lui	s1,%hi(g_bl_ops_funcs)
	addi	s1,s1,%lo(g_bl_ops_funcs)
	.loc 1 414 37
	sh	a1,0(s0)
	.loc 1 415 5 is_stmt 1
	.loc 1 415 65 is_stmt 0
	lbu	a4,358(a5)
	.loc 1 419 5
	lui	a0,%hi(.LC4)
	addi	a0,a0,%lo(.LC4)
	.loc 1 415 35
	sb	a4,172(s0)
	.loc 1 416 5 is_stmt 1
	.loc 1 416 65 is_stmt 0
	lhu	a4,252(a5)
	.loc 1 416 35
	sh	a4,170(s0)
	.loc 1 417 5 is_stmt 1
	.loc 1 417 64 is_stmt 0
	lbu	a5,357(a5)
	.loc 1 417 34
	sb	a5,2(s0)
	.loc 1 419 5 is_stmt 1
	lw	a5,4(s1)
	jalr	a5
.LVL113:
	.loc 1 420 5
	lw	a6,4(s1)
	lbu	a5,2(s0)
	lhu	a4,170(s0)
	lbu	a3,172(s0)
	lui	a0,%hi(.LC5)
	mv	a2,s3
	mv	a1,s2
	addi	a0,a0,%lo(.LC5)
	jalr	a6
.LVL114:
	.loc 1 426 5
	lbu	a6,169(s0)
	lbu	a5,168(s0)
	lbu	a4,167(s0)
	lbu	a3,166(s0)
	lbu	a2,165(s0)
	lbu	a1,164(s0)
	.loc 1 434 1 is_stmt 0
	lw	s0,24(sp)
	.cfi_restore 8
.LVL115:
	.loc 1 426 5
	lw	a7,4(s1)
	.loc 1 434 1
	lw	ra,28(sp)
	.cfi_restore 1
	lw	s1,20(sp)
	.cfi_restore 9
	lw	s2,16(sp)
	.cfi_restore 18
	lw	s3,12(sp)
	.cfi_restore 19
.LVL116:
	lw	s4,8(sp)
	.cfi_restore 20
	.loc 1 426 5
	lui	a0,%hi(.LC6)
	.loc 1 434 1
	.loc 1 426 5
	addi	a0,a0,%lo(.LC6)
	.loc 1 434 1
	addi	sp,sp,32
	.cfi_def_cfa_offset 0
	.loc 1 426 5
	jr	a7
.LVL117:
	.cfi_endproc
.LFE87:
	.size	wifi_mgmr_sta_connect_ind_stat_get, .-wifi_mgmr_sta_connect_ind_stat_get
	.section	.text.wifi_mgmr_sta_ssid_set,"ax",@progbits
	.align	1
	.globl	wifi_mgmr_sta_ssid_set
	.type	wifi_mgmr_sta_ssid_set, @function
wifi_mgmr_sta_ssid_set:
.LFB88:
	.loc 1 437 1 is_stmt 1
	.cfi_startproc
.LVL118:
	.loc 1 438 3
	.loc 1 437 1 is_stmt 0
	addi	sp,sp,-32
	.cfi_def_cfa_offset 32
	sw	ra,28(sp)
	sw	s0,24(sp)
	.cfi_offset 1, -4
	.cfi_offset 8, -8
	.loc 1 437 1
	sw	a0,12(sp)
	.loc 1 438 13
	call	strlen
.LVL119:
	.loc 1 440 3 is_stmt 1
	.loc 1 440 6 is_stmt 0
	ble	a0,zero,.L76
	.loc 1 441 113
	li	a5,31
	lw	a1,12(sp)
	mv	s0,a0
	.loc 1 441 5 is_stmt 1
	.loc 1 441 113 is_stmt 0
	bleu	a0,a5,.L78
	li	s0,31
.L78:
.LVL120:
	.loc 1 442 5 is_stmt 1
	lui	a0,%hi(wifiMgmr+4350)
	mv	a2,s0
	addi	a0,a0,%lo(wifiMgmr+4350)
	call	memcpy
.LVL121:
	.loc 1 443 5
	.loc 1 443 44 is_stmt 0
	lui	a5,%hi(wifiMgmr)
	addi	a5,a5,%lo(wifiMgmr)
	add	a5,a5,s0
	li	s0,4096
.LVL122:
	add	a5,s0,a5
	sb	zero,254(a5)
.L76:
	.loc 1 445 1
	lw	ra,28(sp)
	.cfi_restore 1
	lw	s0,24(sp)
	.cfi_restore 8
	addi	sp,sp,32
	.cfi_def_cfa_offset 0
.LVL123:
	jr	ra
	.cfi_endproc
.LFE88:
	.size	wifi_mgmr_sta_ssid_set, .-wifi_mgmr_sta_ssid_set
	.section	.text.wifi_mgmr_sta_passphr_set,"ax",@progbits
	.align	1
	.globl	wifi_mgmr_sta_passphr_set
	.type	wifi_mgmr_sta_passphr_set, @function
wifi_mgmr_sta_passphr_set:
.LFB89:
	.loc 1 448 1 is_stmt 1
	.cfi_startproc
.LVL124:
	.loc 1 449 3
	.loc 1 450 3
	.loc 1 448 1 is_stmt 0
	addi	sp,sp,-32
	.cfi_def_cfa_offset 32
	sw	s0,24(sp)
	sw	ra,28(sp)
	.cfi_offset 8, -8
	.cfi_offset 1, -4
	.loc 1 450 6
	sw	a0,12(sp)
	.loc 1 449 7
	li	s0,0
	.loc 1 450 6
	beq	a0,zero,.L81
	.loc 1 451 6 is_stmt 1
	.loc 1 451 12 is_stmt 0
	call	strlen
.LVL125:
	.loc 1 451 10
	mv	s0,a0
.LVL126:
	.loc 1 454 3 is_stmt 1
	.loc 1 454 6 is_stmt 0
	ble	a0,zero,.L81
	.loc 1 455 5 is_stmt 1
	.loc 1 455 119 is_stmt 0
	li	a5,64
	lw	a1,12(sp)
	bleu	a0,a5,.L82
	li	s0,64
.LVL127:
.L82:
	.loc 1 456 5 is_stmt 1
	lui	a0,%hi(wifiMgmr+4382)
	mv	a2,s0
	addi	a0,a0,%lo(wifiMgmr+4382)
	call	memcpy
.LVL128:
.L81:
	.loc 1 458 3
	.loc 1 458 45 is_stmt 0
	lui	a5,%hi(wifiMgmr)
	addi	a5,a5,%lo(wifiMgmr)
	add	a5,a5,s0
	li	s0,4096
.LVL129:
	add	a5,s0,a5
	sb	zero,286(a5)
	.loc 1 459 1
	lw	ra,28(sp)
	.cfi_restore 1
	lw	s0,24(sp)
	.cfi_restore 8
	addi	sp,sp,32
	.cfi_def_cfa_offset 0
.LVL130:
	jr	ra
	.cfi_endproc
.LFE89:
	.size	wifi_mgmr_sta_passphr_set, .-wifi_mgmr_sta_passphr_set
	.globl	wifi_mgmr_sta_psk_set
	.set	wifi_mgmr_sta_psk_set,wifi_mgmr_sta_passphr_set
	.section	.text.wifi_mgmr_sta_connect_ext,"ax",@progbits
	.align	1
	.globl	wifi_mgmr_sta_connect_ext
	.type	wifi_mgmr_sta_connect_ext, @function
wifi_mgmr_sta_connect_ext:
.LFB75:
	.loc 1 297 1 is_stmt 1
	.cfi_startproc
.LVL131:
	.loc 1 298 5
	.loc 1 297 1 is_stmt 0
	addi	sp,sp,-32
	.cfi_def_cfa_offset 32
	.loc 1 298 5
	mv	a0,a1
.LVL132:
	.loc 1 297 1
	sw	ra,28(sp)
	sw	s0,24(sp)
	sw	s1,20(sp)
	.cfi_offset 1, -4
	.cfi_offset 8, -8
	.cfi_offset 9, -12
	.loc 1 297 1
	mv	s0,a1
	mv	s1,a2
	sw	a3,12(sp)
	.loc 1 298 5
	call	wifi_mgmr_sta_ssid_set
.LVL133:
	.loc 1 299 5 is_stmt 1
	mv	a0,s1
	call	wifi_mgmr_sta_passphr_set
.LVL134:
	.loc 1 300 5
	.loc 1 302 12 is_stmt 0
	mv	a0,s0
	.loc 1 303 1
	lw	s0,24(sp)
	.cfi_restore 8
.LVL135:
	.loc 1 302 12
	lw	a2,12(sp)
	.loc 1 303 1
	lw	ra,28(sp)
	.cfi_restore 1
	.loc 1 300 32
	lui	a5,%hi(wifiMgmr+4462)
	.loc 1 302 12
	mv	a1,s1
	.loc 1 303 1
	lw	s1,20(sp)
	.cfi_restore 9
.LVL136:
	.loc 1 300 32
	sh	zero,%lo(wifiMgmr+4462)(a5)
	.loc 1 302 5 is_stmt 1
	.loc 1 303 1 is_stmt 0
	addi	sp,sp,32
	.cfi_def_cfa_offset 0
.LVL137:
	.loc 1 302 12
	tail	wifi_mgmr_api_connect
.LVL138:
	.cfi_endproc
.LFE75:
	.size	wifi_mgmr_sta_connect_ext, .-wifi_mgmr_sta_connect_ext
	.section	.text.wifi_mgmr_sta_connect,"ax",@progbits
	.align	1
	.globl	wifi_mgmr_sta_connect
	.type	wifi_mgmr_sta_connect, @function
wifi_mgmr_sta_connect:
.LFB76:
	.loc 1 306 1 is_stmt 1
	.cfi_startproc
.LVL139:
	.loc 1 307 5
	.loc 1 309 5
	.loc 1 306 1 is_stmt 0
	addi	sp,sp,-48
	.cfi_def_cfa_offset 48
	.loc 1 311 36
	li	a5,5
.LVL140:
	.loc 1 309 19
	sw	a3,4(sp)
	.loc 1 310 5 is_stmt 1
	.loc 1 311 36 is_stmt 0
	sw	a5,12(sp)
	.loc 1 317 12
	addi	a3,sp,4
.LVL141:
	.loc 1 315 32
	li	a5,1
	.loc 1 306 1
	sw	ra,44(sp)
	.cfi_offset 1, -4
	.loc 1 310 28
	sw	zero,8(sp)
	.loc 1 311 5 is_stmt 1
	.loc 1 312 5
	.loc 1 312 29 is_stmt 0
	sw	a4,16(sp)
	.loc 1 313 5 is_stmt 1
	.loc 1 313 28 is_stmt 0
	sb	zero,20(sp)
	.loc 1 314 5 is_stmt 1
	.loc 1 314 28 is_stmt 0
	sh	a6,22(sp)
	.loc 1 315 5 is_stmt 1
	.loc 1 315 32 is_stmt 0
	sb	a5,24(sp)
	.loc 1 316 5 is_stmt 1
	.loc 1 316 21 is_stmt 0
	sw	zero,28(sp)
	.loc 1 317 5 is_stmt 1
	.loc 1 317 12 is_stmt 0
	call	wifi_mgmr_sta_connect_ext
.LVL142:
	.loc 1 318 1
	lw	ra,44(sp)
	.cfi_restore 1
	addi	sp,sp,48
	.cfi_def_cfa_offset 0
	jr	ra
	.cfi_endproc
.LFE76:
	.size	wifi_mgmr_sta_connect, .-wifi_mgmr_sta_connect
	.section	.text.wifi_mgmr_ap_enable,"ax",@progbits
	.align	1
	.globl	wifi_mgmr_ap_enable
	.type	wifi_mgmr_ap_enable, @function
wifi_mgmr_ap_enable:
.LFB91:
	.loc 1 505 1 is_stmt 1
	.cfi_startproc
	.loc 1 508 5
	.loc 1 505 1 is_stmt 0
	addi	sp,sp,-32
	.cfi_def_cfa_offset 32
	sw	s0,24(sp)
	.cfi_offset 8, -8
	.loc 1 508 17
	lui	s0,%hi(wifiMgmr)
	.loc 1 505 1
	sw	ra,28(sp)
	sw	s1,20(sp)
	sw	s2,16(sp)
	.cfi_offset 1, -4
	.cfi_offset 9, -12
	.cfi_offset 18, -16
	.loc 1 508 17
	addi	a5,s0,%lo(wifiMgmr)
	.loc 1 508 8
	lw	a5,4(a5)
	bne	a5,zero,.L91
	addi	s0,s0,%lo(wifiMgmr)
	.loc 1 511 9 is_stmt 1
	.loc 1 511 31 is_stmt 0
	addi	a5,s0,128
	li	a4,1
	sw	a4,0(a5)
	.loc 1 512 9 is_stmt 1
.LVL143:
.LBB15:
.LBB16:
	.loc 1 465 5
	.loc 1 466 5
	.loc 1 467 5
	.loc 1 470 5
	.loc 1 470 22 is_stmt 0
	lw	a4,12(a5)
	.loc 1 479 5
	lui	s1,%hi(wifiMgmr+218)
	lui	s2,%hi(wifiMgmr+133)
	.loc 1 470 22
	sw	a4,4(sp)
	.loc 1 471 5 is_stmt 1
	.loc 1 471 23 is_stmt 0
	lw	a4,16(a5)
	.loc 1 472 18
	lw	a5,20(a5)
	.loc 1 479 5
	li	a2,6
	addi	a1,s2,%lo(wifiMgmr+133)
	addi	a0,s1,%lo(wifiMgmr+218)
	.loc 1 471 23
	sw	a4,8(sp)
	.loc 1 472 5 is_stmt 1
	.loc 1 472 18 is_stmt 0
	sw	a5,12(sp)
	.loc 1 479 5 is_stmt 1
	call	memcpy
.LVL144:
	.loc 1 480 5
	.loc 1 480 9 is_stmt 0
	addi	a0,s1,%lo(wifiMgmr+218)
	call	mac_is_unvalid
.LVL145:
	.loc 1 480 8
	beq	a0,zero,.L92
	.loc 1 482 9 is_stmt 1
	addi	a0,s1,%lo(wifiMgmr+218)
	call	bl_wifi_mac_addr_get
.LVL146:
	.loc 1 483 9
	.loc 1 483 13 is_stmt 0
	addi	a0,s1,%lo(wifiMgmr+218)
	call	mac_is_unvalid
.LVL147:
	.loc 1 483 12
	beq	a0,zero,.L93
	.loc 1 486 13 is_stmt 1
	.loc 1 487 13
	.loc 1 488 13
	.loc 1 489 13
	.loc 1 490 13
	.loc 1 491 13
	.loc 1 486 30 is_stmt 0
	li	a5,20480
	addi	a5,a5,192
	sh	a5,218(s0)
	.loc 1 488 30
	li	a5,16830464
	addi	a5,a5,-1725
	sw	a5,220(s0)
.L93:
	.loc 1 494 9 is_stmt 1
	li	a2,6
	addi	a1,s1,%lo(wifiMgmr+218)
	addi	a0,s2,%lo(wifiMgmr+133)
	call	memcpy
.LVL148:
.L92:
	.loc 1 497 5
	lui	s1,%hi(wifiMgmr+160)
	lui	a6,%hi(tcpip_input)
	lui	a5,%hi(bl606a0_wifi_netif_init)
	addi	a5,a5,%lo(bl606a0_wifi_netif_init)
	addi	a2,sp,8
	addi	a1,sp,4
	addi	a6,a6,%lo(tcpip_input)
	li	a4,0
	addi	a3,sp,12
	addi	a0,s1,%lo(wifiMgmr+160)
	call	netifapi_netif_add
.LVL149:
	.loc 1 498 5
	.loc 1 499 5
	.loc 1 498 20 is_stmt 0
	li	a5,28672
	.loc 1 501 5
	lui	a1,%hi(netif_set_up)
	.loc 1 498 20
	addi	a5,a5,97
	.loc 1 501 5
	li	a2,0
	addi	a1,a1,%lo(netif_set_up)
	addi	a0,s1,%lo(wifiMgmr+160)
	.loc 1 498 20
	sh	a5,226(s0)
	.loc 1 501 5 is_stmt 1
	call	netifapi_netif_common
.LVL150:
.L91:
.LBE16:
.LBE15:
	.loc 1 514 5
	.loc 1 515 1 is_stmt 0
	lw	ra,28(sp)
	.cfi_restore 1
	lw	s0,24(sp)
	.cfi_restore 8
	.loc 1 514 12
	lui	a0,%hi(wifiMgmr+128)
	.loc 1 515 1
	lw	s1,20(sp)
	.cfi_restore 9
	lw	s2,16(sp)
	.cfi_restore 18
	addi	a0,a0,%lo(wifiMgmr+128)
	addi	sp,sp,32
	.cfi_def_cfa_offset 0
	jr	ra
	.cfi_endproc
.LFE91:
	.size	wifi_mgmr_ap_enable, .-wifi_mgmr_ap_enable
	.section	.text.wifi_mgmr_ap_mac_set,"ax",@progbits
	.align	1
	.globl	wifi_mgmr_ap_mac_set
	.type	wifi_mgmr_ap_mac_set, @function
wifi_mgmr_ap_mac_set:
.LFB92:
	.loc 1 518 1 is_stmt 1
	.cfi_startproc
.LVL151:
	.loc 1 519 5
	.loc 1 518 1 is_stmt 0
	mv	a1,a0
	.loc 1 519 5
	lui	a0,%hi(wifiMgmr+133)
.LVL152:
	.loc 1 518 1
	addi	sp,sp,-16
	.cfi_def_cfa_offset 16
	.loc 1 519 5
	li	a2,6
	addi	a0,a0,%lo(wifiMgmr+133)
	.loc 1 518 1
	sw	ra,12(sp)
	.cfi_offset 1, -4
	.loc 1 519 5
	call	memcpy
.LVL153:
	.loc 1 520 5 is_stmt 1
	.loc 1 521 1 is_stmt 0
	lw	ra,12(sp)
	.cfi_restore 1
	li	a0,0
	addi	sp,sp,16
	.cfi_def_cfa_offset 0
	jr	ra
	.cfi_endproc
.LFE92:
	.size	wifi_mgmr_ap_mac_set, .-wifi_mgmr_ap_mac_set
	.section	.text.wifi_mgmr_ap_mac_get,"ax",@progbits
	.align	1
	.globl	wifi_mgmr_ap_mac_get
	.type	wifi_mgmr_ap_mac_get, @function
wifi_mgmr_ap_mac_get:
.LFB93:
	.loc 1 524 1 is_stmt 1
	.cfi_startproc
.LVL154:
	.loc 1 527 5
	.loc 1 528 5
	.loc 1 524 1 is_stmt 0
	addi	sp,sp,-16
	.cfi_def_cfa_offset 16
	sw	s0,8(sp)
	.cfi_offset 8, -8
	.loc 1 528 5
	lui	s0,%hi(wifiMgmr+133)
	.loc 1 524 1
	sw	s1,4(sp)
	.cfi_offset 9, -12
	mv	s1,a0
	.loc 1 528 5
	addi	a0,s0,%lo(wifiMgmr+133)
.LVL155:
	.loc 1 524 1
	sw	ra,12(sp)
	.cfi_offset 1, -4
	.loc 1 528 5
	call	wifi_hosal_efuse_read_mac
.LVL156:
	.loc 1 529 5 is_stmt 1
	.loc 1 529 9 is_stmt 0
	addi	a0,s0,%lo(wifiMgmr+133)
	call	mac_is_unvalid
.LVL157:
	.loc 1 529 8
	beq	a0,zero,.L104
	.loc 1 532 9 is_stmt 1
	.loc 1 533 9
	.loc 1 534 9
	.loc 1 535 9
	.loc 1 536 9
	.loc 1 537 9
	.loc 1 532 33 is_stmt 0
	lui	a5,%hi(wifiMgmr)
	addi	a5,a5,%lo(wifiMgmr)
	li	a4,-64
	sb	a4,133(a5)
	.loc 1 533 33
	li	a4,16384
	addi	a4,a4,848
	sh	a4,134(a5)
	.loc 1 535 33
	li	a4,201
	sh	a4,136(a5)
	.loc 1 537 33
	li	a4,1
	sb	a4,138(a5)
.L104:
	.loc 1 539 5 is_stmt 1
	addi	a1,s0,%lo(wifiMgmr+133)
	mv	a0,s1
	li	a2,6
	call	memcpy
.LVL158:
	.loc 1 540 5
	.loc 1 541 1 is_stmt 0
	lw	ra,12(sp)
	.cfi_restore 1
	lw	s0,8(sp)
	.cfi_restore 8
	lw	s1,4(sp)
	.cfi_restore 9
.LVL159:
	li	a0,0
	addi	sp,sp,16
	.cfi_def_cfa_offset 0
	jr	ra
	.cfi_endproc
.LFE93:
	.size	wifi_mgmr_ap_mac_get, .-wifi_mgmr_ap_mac_get
	.section	.text.wifi_mgmr_ap_ip_get,"ax",@progbits
	.align	1
	.globl	wifi_mgmr_ap_ip_get
	.type	wifi_mgmr_ap_ip_get, @function
wifi_mgmr_ap_ip_get:
.LFB94:
	.loc 1 544 1 is_stmt 1
	.cfi_startproc
.LVL160:
	.loc 1 545 5
	.loc 1 545 71 is_stmt 0
	lui	a5,%hi(wifiMgmr)
	addi	a5,a5,%lo(wifiMgmr)
	lw	a4,164(a5)
	.loc 1 545 9
	sw	a4,0(a0)
	.loc 1 546 5 is_stmt 1
	.loc 1 546 73 is_stmt 0
	lw	a4,168(a5)
	.loc 1 550 1
	li	a0,0
.LVL161:
	.loc 1 546 11
	sw	a4,0(a2)
	.loc 1 547 5 is_stmt 1
	.loc 1 547 66 is_stmt 0
	lw	a5,172(a5)
	.loc 1 547 9
	sw	a5,0(a1)
	.loc 1 549 5 is_stmt 1
	.loc 1 550 1 is_stmt 0
	ret
	.cfi_endproc
.LFE94:
	.size	wifi_mgmr_ap_ip_get, .-wifi_mgmr_ap_ip_get
	.section	.text.wifi_mgmr_ap_ip_set,"ax",@progbits
	.align	1
	.globl	wifi_mgmr_ap_ip_set
	.type	wifi_mgmr_ap_ip_set, @function
wifi_mgmr_ap_ip_set:
.LFB95:
	.loc 1 553 1 is_stmt 1
	.cfi_startproc
.LVL162:
.LBB17:
	.loc 1 554 7
	.loc 1 554 29
.LBE17:
	.loc 1 553 1 is_stmt 0
	addi	sp,sp,-32
	.cfi_def_cfa_offset 32
	sw	s0,24(sp)
	.cfi_offset 8, -8
.LBB18:
	.loc 1 554 57
	lui	s0,%hi(g_bl_ops_funcs)
	addi	s0,s0,%lo(g_bl_ops_funcs)
	.loc 1 554 43
	lw	a5,20(s0)
.LBE18:
	.loc 1 553 1
	sw	ra,28(sp)
	sw	s1,20(sp)
	sw	s2,16(sp)
	sw	s3,12(sp)
	.cfi_offset 1, -4
	.cfi_offset 9, -12
	.cfi_offset 18, -16
	.cfi_offset 19, -20
	.loc 1 553 1
	mv	s1,a1
	mv	s2,a2
	mv	s3,a0
.LBB19:
	.loc 1 554 43
	jalr	a5
.LVL163:
	.loc 1 554 76 is_stmt 1
	.loc 1 556 5
	.loc 1 556 30 is_stmt 0
	lui	a5,%hi(wifiMgmr)
	addi	a5,a5,%lo(wifiMgmr)
	sw	s3,140(a5)
	.loc 1 557 5 is_stmt 1
	.loc 1 557 32 is_stmt 0
	sw	s2,144(a5)
	.loc 1 558 5 is_stmt 1
	.loc 1 558 30 is_stmt 0
	sw	s1,148(a5)
	.loc 1 560 5 is_stmt 1
	lw	a5,24(s0)
	jalr	a5
.LVL164:
.LBE19:
	.loc 1 560 50
	.loc 1 562 5
	.loc 1 563 1 is_stmt 0
	lw	ra,28(sp)
	.cfi_restore 1
	lw	s0,24(sp)
	.cfi_restore 8
	lw	s1,20(sp)
	.cfi_restore 9
.LVL165:
	lw	s2,16(sp)
	.cfi_restore 18
.LVL166:
	lw	s3,12(sp)
	.cfi_restore 19
.LVL167:
	li	a0,0
	addi	sp,sp,32
	.cfi_def_cfa_offset 0
	jr	ra
	.cfi_endproc
.LFE95:
	.size	wifi_mgmr_ap_ip_set, .-wifi_mgmr_ap_ip_set
	.section	.text.wifi_mgmr_ap_dhcp_get,"ax",@progbits
	.align	1
	.globl	wifi_mgmr_ap_dhcp_get
	.type	wifi_mgmr_ap_dhcp_get, @function
wifi_mgmr_ap_dhcp_get:
.LFB96:
	.loc 1 566 1 is_stmt 1
	.cfi_startproc
.LVL168:
	.loc 1 567 5
	.loc 1 567 13 is_stmt 0
	lui	a5,%hi(.LANCHOR2)
	lw	a5,%lo(.LANCHOR2)(a5)
	sw	a5,0(a0)
	.loc 1 568 5 is_stmt 1
	.loc 1 569 1 is_stmt 0
	li	a0,0
.LVL169:
	ret
	.cfi_endproc
.LFE96:
	.size	wifi_mgmr_ap_dhcp_get, .-wifi_mgmr_ap_dhcp_get
	.section	.text.wifi_mgmr_ap_dhcp_enable,"ax",@progbits
	.align	1
	.globl	wifi_mgmr_ap_dhcp_enable
	.type	wifi_mgmr_ap_dhcp_enable, @function
wifi_mgmr_ap_dhcp_enable:
.LFB97:
	.loc 1 572 1 is_stmt 1
	.cfi_startproc
	.loc 1 573 5
	.loc 1 573 22 is_stmt 0
	lui	a5,%hi(.LANCHOR2)
	li	a4,1
	sw	a4,%lo(.LANCHOR2)(a5)
	.loc 1 574 5 is_stmt 1
	.loc 1 575 1 is_stmt 0
	li	a0,0
	ret
	.cfi_endproc
.LFE97:
	.size	wifi_mgmr_ap_dhcp_enable, .-wifi_mgmr_ap_dhcp_enable
	.section	.text.wifi_mgmr_ap_dhcp_disable,"ax",@progbits
	.align	1
	.globl	wifi_mgmr_ap_dhcp_disable
	.type	wifi_mgmr_ap_dhcp_disable, @function
wifi_mgmr_ap_dhcp_disable:
.LFB98:
	.loc 1 578 1 is_stmt 1
	.cfi_startproc
	.loc 1 579 5
	.loc 1 579 22 is_stmt 0
	lui	a5,%hi(.LANCHOR2)
	sw	zero,%lo(.LANCHOR2)(a5)
	.loc 1 580 5 is_stmt 1
	.loc 1 581 1 is_stmt 0
	li	a0,0
	ret
	.cfi_endproc
.LFE98:
	.size	wifi_mgmr_ap_dhcp_disable, .-wifi_mgmr_ap_dhcp_disable
	.section	.text.wifi_mgmr_ap_dhcp_range_get,"ax",@progbits
	.align	1
	.globl	wifi_mgmr_ap_dhcp_range_get
	.type	wifi_mgmr_ap_dhcp_range_get, @function
wifi_mgmr_ap_dhcp_range_get:
.LFB99:
	.loc 1 584 1 is_stmt 1
	.cfi_startproc
.LVL170:
	.loc 1 585 5
	.loc 1 585 22 is_stmt 0
	lui	a5,%hi(.LANCHOR3)
	lw	t1,%lo(.LANCHOR3)(a5)
	.loc 1 585 45
	lui	a5,%hi(.LANCHOR4)
	lw	a7,%lo(.LANCHOR4)(a5)
	.loc 1 585 72
	lui	a5,%hi(.LANCHOR5)
	lw	a6,%lo(.LANCHOR5)(a5)
	.loc 1 585 97
	lui	a5,%hi(.LANCHOR6)
	lw	a4,%lo(.LANCHOR6)(a5)
	.loc 1 585 77
	or	a5,t1,a7
	or	t3,a6,a4
	or	a5,a5,t3
	beq	a5,zero,.L117
	.loc 1 588 5 is_stmt 1
	.loc 1 588 9 is_stmt 0
	sw	t1,0(a0)
	.loc 1 589 5 is_stmt 1
	.loc 1 589 11 is_stmt 0
	sw	a7,0(a1)
	.loc 1 590 5 is_stmt 1
	.loc 1 590 12 is_stmt 0
	sw	a6,0(a2)
	.loc 1 591 5 is_stmt 1
	.loc 1 591 10 is_stmt 0
	sw	a4,0(a3)
	.loc 1 592 5 is_stmt 1
	.loc 1 592 12 is_stmt 0
	li	a0,0
.LVL171:
	ret
.LVL172:
.L117:
	.loc 1 586 16
	li	a0,-1
.LVL173:
	.loc 1 593 1
	ret
	.cfi_endproc
.LFE99:
	.size	wifi_mgmr_ap_dhcp_range_get, .-wifi_mgmr_ap_dhcp_range_get
	.section	.text.wifi_mgmr_ap_dhcp_range_set,"ax",@progbits
	.align	1
	.globl	wifi_mgmr_ap_dhcp_range_set
	.type	wifi_mgmr_ap_dhcp_range_set, @function
wifi_mgmr_ap_dhcp_range_set:
.LFB100:
	.loc 1 596 1 is_stmt 1
	.cfi_startproc
.LVL174:
	.loc 1 597 5
	.loc 1 597 8 is_stmt 0
	beq	a0,zero,.L119
	.loc 1 598 9 is_stmt 1
	.loc 1 598 22 is_stmt 0
	lui	a5,%hi(.LANCHOR3)
	sw	a0,%lo(.LANCHOR3)(a5)
.L119:
	.loc 1 599 5 is_stmt 1
	.loc 1 599 8 is_stmt 0
	beq	a1,zero,.L120
	.loc 1 600 9 is_stmt 1
	.loc 1 600 24 is_stmt 0
	lui	a5,%hi(.LANCHOR4)
	sw	a1,%lo(.LANCHOR4)(a5)
.L120:
	.loc 1 601 5 is_stmt 1
	.loc 1 601 24 is_stmt 0
	lui	a5,%hi(.LANCHOR5)
	sw	a2,%lo(.LANCHOR5)(a5)
	.loc 1 602 5 is_stmt 1
	.loc 1 602 22 is_stmt 0
	lui	a5,%hi(.LANCHOR6)
	sw	a3,%lo(.LANCHOR6)(a5)
	.loc 1 604 5 is_stmt 1
	.loc 1 604 17 is_stmt 0
	lui	a5,%hi(wifiMgmr+4)
	.loc 1 604 8
	lw	a5,%lo(wifiMgmr+4)(a5)
	beq	a5,zero,.L132
.LBB20:
	.loc 1 605 9 is_stmt 1
	.loc 1 606 9
	.loc 1 606 39 is_stmt 0
	lui	a5,%hi(.LANCHOR3)
	lui	a4,%hi(.LANCHOR4)
	lw	a5,%lo(.LANCHOR3)(a5)
	lw	a4,%lo(.LANCHOR4)(a4)
	.loc 1 606 66
	slli	a2,a2,24
.LVL175:
.LBE20:
	.loc 1 596 1
	addi	sp,sp,-32
	.cfi_def_cfa_offset 32
.LBB21:
	.loc 1 606 39
	and	a5,a5,a4
	.loc 1 606 57
	or	a2,a2,a5
	.loc 1 607 61
	slli	a3,a3,24
.LVL176:
	.loc 1 609 9
	lui	a0,%hi(wifiMgmr+160)
.LVL177:
	.loc 1 606 23
	sw	a2,8(sp)
	.loc 1 607 9 is_stmt 1
	.loc 1 607 54 is_stmt 0
	or	a3,a3,a5
	.loc 1 609 9
	addi	a2,sp,12
	addi	a1,sp,8
.LVL178:
	addi	a0,a0,%lo(wifiMgmr+160)
.LBE21:
	.loc 1 596 1
	sw	ra,28(sp)
	.cfi_offset 1, -4
.LBB22:
	.loc 1 607 20
	sw	a3,12(sp)
	.loc 1 608 9 is_stmt 1
	.loc 1 609 9
	call	dhcp_server_start
.LVL179:
.LBE22:
	.loc 1 611 5
	.loc 1 612 1 is_stmt 0
	lw	ra,28(sp)
	.cfi_restore 1
	li	a0,0
	addi	sp,sp,32
	.cfi_def_cfa_offset 0
	jr	ra
.LVL180:
.L132:
	.loc 1 611 5 is_stmt 1
	.loc 1 612 1 is_stmt 0
	li	a0,0
.LVL181:
	ret
	.cfi_endproc
.LFE100:
	.size	wifi_mgmr_ap_dhcp_range_set, .-wifi_mgmr_ap_dhcp_range_set
	.section	.text.wifi_mgmr_ap_stop,"ax",@progbits
	.align	1
	.globl	wifi_mgmr_ap_stop
	.type	wifi_mgmr_ap_stop, @function
wifi_mgmr_ap_stop:
.LFB102:
	.loc 1 634 1 is_stmt 1
	.cfi_startproc
.LVL182:
	.loc 1 635 5
	.loc 1 634 1 is_stmt 0
	addi	sp,sp,-16
	.cfi_def_cfa_offset 16
	sw	ra,12(sp)
	.cfi_offset 1, -4
	.loc 1 635 5
	call	wifi_mgmr_api_ap_stop
.LVL183:
	.loc 1 636 5 is_stmt 1
	.loc 1 637 1 is_stmt 0
	lw	ra,12(sp)
	.cfi_restore 1
	li	a0,0
	addi	sp,sp,16
	.cfi_def_cfa_offset 0
	jr	ra
	.cfi_endproc
.LFE102:
	.size	wifi_mgmr_ap_stop, .-wifi_mgmr_ap_stop
	.section	.text.wifi_mgmr_ap_sta_cnt_get,"ax",@progbits
	.align	1
	.globl	wifi_mgmr_ap_sta_cnt_get
	.type	wifi_mgmr_ap_sta_cnt_get, @function
wifi_mgmr_ap_sta_cnt_get:
.LFB103:
	.loc 1 640 1 is_stmt 1
	.cfi_startproc
.LVL184:
	.loc 1 641 5
	.loc 1 640 1 is_stmt 0
	addi	sp,sp,-16
	.cfi_def_cfa_offset 16
	sw	ra,12(sp)
	.cfi_offset 1, -4
	.loc 1 641 5
	call	wifi_mgmr_ap_sta_cnt_get_internal
.LVL185:
	.loc 1 642 5 is_stmt 1
	.loc 1 643 1 is_stmt 0
	lw	ra,12(sp)
	.cfi_restore 1
	li	a0,0
	addi	sp,sp,16
	.cfi_def_cfa_offset 0
	jr	ra
	.cfi_endproc
.LFE103:
	.size	wifi_mgmr_ap_sta_cnt_get, .-wifi_mgmr_ap_sta_cnt_get
	.section	.text.wifi_mgmr_ap_sta_info_get,"ax",@progbits
	.align	1
	.globl	wifi_mgmr_ap_sta_info_get
	.type	wifi_mgmr_ap_sta_info_get, @function
wifi_mgmr_ap_sta_info_get:
.LFB104:
	.loc 1 646 1 is_stmt 1
	.cfi_startproc
.LVL186:
	.loc 1 647 5
	.loc 1 648 5
	.loc 1 646 1 is_stmt 0
	addi	sp,sp,-48
	.cfi_def_cfa_offset 48
	sw	s0,40(sp)
	sw	s1,36(sp)
	.cfi_offset 8, -8
	.cfi_offset 9, -12
	mv	s0,a0
	mv	s1,a1
	.loc 1 648 5
	li	a2,24
	li	a1,0
.LVL187:
	addi	a0,sp,8
.LVL188:
	.loc 1 646 1
	sw	ra,44(sp)
	.cfi_offset 1, -4
	.loc 1 648 5
	call	memset
.LVL189:
	.loc 1 649 5 is_stmt 1
	mv	a1,s1
	addi	a0,sp,8
	call	wifi_mgmr_ap_sta_info_get_internal
.LVL190:
	.loc 1 650 5
	.loc 1 651 5
	.loc 1 650 23 is_stmt 0
	lhu	a5,8(sp)
	.loc 1 656 5
	addi	a1,sp,10
	addi	a0,s0,2
	.loc 1 650 23
	sh	a5,0(s0)
	.loc 1 652 5 is_stmt 1
	.loc 1 652 20 is_stmt 0
	lw	a5,24(sp)
	.loc 1 656 5
	li	a2,6
	.loc 1 652 20
	sw	a5,16(s0)
	.loc 1 653 5 is_stmt 1
	.loc 1 653 21 is_stmt 0
	lw	a5,20(sp)
	sw	a5,12(s0)
	.loc 1 654 5 is_stmt 1
	.loc 1 654 21 is_stmt 0
	lw	a5,16(sp)
	sw	a5,8(s0)
	.loc 1 655 5 is_stmt 1
	.loc 1 655 25 is_stmt 0
	lbu	a5,28(sp)
	sb	a5,20(s0)
	.loc 1 656 5 is_stmt 1
	call	memcpy
.LVL191:
	.loc 1 657 5
	.loc 1 658 1 is_stmt 0
	lw	ra,44(sp)
	.cfi_restore 1
	lw	s0,40(sp)
	.cfi_restore 8
.LVL192:
	lw	s1,36(sp)
	.cfi_restore 9
	li	a0,0
	addi	sp,sp,48
	.cfi_def_cfa_offset 0
	jr	ra
	.cfi_endproc
.LFE104:
	.size	wifi_mgmr_ap_sta_info_get, .-wifi_mgmr_ap_sta_info_get
	.section	.text.wifi_mgmr_ap_sta_delete,"ax",@progbits
	.align	1
	.globl	wifi_mgmr_ap_sta_delete
	.type	wifi_mgmr_ap_sta_delete, @function
wifi_mgmr_ap_sta_delete:
.LFB105:
	.loc 1 661 1 is_stmt 1
	.cfi_startproc
.LVL193:
	.loc 1 662 5
	.loc 1 661 1 is_stmt 0
	addi	sp,sp,-16
	.cfi_def_cfa_offset 16
	sw	ra,12(sp)
	.cfi_offset 1, -4
	.loc 1 662 5
	call	wifi_mgmr_ap_sta_delete_internal
.LVL194:
	.loc 1 663 5 is_stmt 1
	.loc 1 664 1 is_stmt 0
	lw	ra,12(sp)
	.cfi_restore 1
	li	a0,0
	addi	sp,sp,16
	.cfi_def_cfa_offset 0
	jr	ra
	.cfi_endproc
.LFE105:
	.size	wifi_mgmr_ap_sta_delete, .-wifi_mgmr_ap_sta_delete
	.section	.text.wifi_mgmr_ap_set_gateway,"ax",@progbits
	.align	1
	.globl	wifi_mgmr_ap_set_gateway
	.type	wifi_mgmr_ap_set_gateway, @function
wifi_mgmr_ap_set_gateway:
.LFB106:
	.loc 1 667 1 is_stmt 1
	.cfi_startproc
.LVL195:
	.loc 1 669 5
	.loc 1 670 1 is_stmt 0
	li	a0,0
.LVL196:
	ret
	.cfi_endproc
.LFE106:
	.size	wifi_mgmr_ap_set_gateway, .-wifi_mgmr_ap_set_gateway
	.section	.text.wifi_mgmr_sniffer_register,"ax",@progbits
	.align	1
	.globl	wifi_mgmr_sniffer_register
	.type	wifi_mgmr_sniffer_register, @function
wifi_mgmr_sniffer_register:
.LFB107:
	.loc 1 673 1 is_stmt 1
	.cfi_startproc
.LVL197:
	.loc 1 674 5
	.loc 1 673 1 is_stmt 0
	addi	sp,sp,-16
	.cfi_def_cfa_offset 16
	sw	ra,12(sp)
	.cfi_offset 1, -4
	.loc 1 674 5
	call	bl_rx_pkt_cb_register
.LVL198:
	.loc 1 675 5 is_stmt 1
	.loc 1 676 1 is_stmt 0
	lw	ra,12(sp)
	.cfi_restore 1
	li	a0,0
	addi	sp,sp,16
	.cfi_def_cfa_offset 0
	jr	ra
	.cfi_endproc
.LFE107:
	.size	wifi_mgmr_sniffer_register, .-wifi_mgmr_sniffer_register
	.section	.text.wifi_mgmr_sniffer_unregister,"ax",@progbits
	.align	1
	.globl	wifi_mgmr_sniffer_unregister
	.type	wifi_mgmr_sniffer_unregister, @function
wifi_mgmr_sniffer_unregister:
.LFB108:
	.loc 1 679 1 is_stmt 1
	.cfi_startproc
.LVL199:
	.loc 1 680 5
	.loc 1 679 1 is_stmt 0
	addi	sp,sp,-16
	.cfi_def_cfa_offset 16
	sw	ra,12(sp)
	.cfi_offset 1, -4
	.loc 1 680 5
	call	bl_rx_pkt_cb_unregister
.LVL200:
	.loc 1 681 5 is_stmt 1
	.loc 1 682 1 is_stmt 0
	lw	ra,12(sp)
	.cfi_restore 1
	li	a0,0
	addi	sp,sp,16
	.cfi_def_cfa_offset 0
	jr	ra
	.cfi_endproc
.LFE108:
	.size	wifi_mgmr_sniffer_unregister, .-wifi_mgmr_sniffer_unregister
	.section	.text.wifi_mgmr_sniffer_enable,"ax",@progbits
	.align	1
	.globl	wifi_mgmr_sniffer_enable
	.type	wifi_mgmr_sniffer_enable, @function
wifi_mgmr_sniffer_enable:
.LFB109:
	.loc 1 685 1 is_stmt 1
	.cfi_startproc
	.loc 1 686 5
	.loc 1 685 1 is_stmt 0
	addi	sp,sp,-16
	.cfi_def_cfa_offset 16
	sw	ra,12(sp)
	.cfi_offset 1, -4
	.loc 1 686 5
	call	wifi_mgmr_api_sniffer_enable
.LVL201:
	.loc 1 687 5 is_stmt 1
	.loc 1 688 1 is_stmt 0
	lw	ra,12(sp)
	.cfi_restore 1
	li	a0,0
	addi	sp,sp,16
	.cfi_def_cfa_offset 0
	jr	ra
	.cfi_endproc
.LFE109:
	.size	wifi_mgmr_sniffer_enable, .-wifi_mgmr_sniffer_enable
	.section	.text.wifi_mgmr_sniffer_disable,"ax",@progbits
	.align	1
	.globl	wifi_mgmr_sniffer_disable
	.type	wifi_mgmr_sniffer_disable, @function
wifi_mgmr_sniffer_disable:
.LFB110:
	.loc 1 691 1 is_stmt 1
	.cfi_startproc
	.loc 1 692 5
	.loc 1 691 1 is_stmt 0
	addi	sp,sp,-16
	.cfi_def_cfa_offset 16
	sw	ra,12(sp)
	.cfi_offset 1, -4
	.loc 1 692 5
	call	wifi_mgmr_api_idle
.LVL202:
	.loc 1 693 5 is_stmt 1
	.loc 1 694 1 is_stmt 0
	lw	ra,12(sp)
	.cfi_restore 1
	li	a0,0
	addi	sp,sp,16
	.cfi_def_cfa_offset 0
	jr	ra
	.cfi_endproc
.LFE110:
	.size	wifi_mgmr_sniffer_disable, .-wifi_mgmr_sniffer_disable
	.section	.text.wifi_mgmr_rate_config,"ax",@progbits
	.align	1
	.globl	wifi_mgmr_rate_config
	.type	wifi_mgmr_rate_config, @function
wifi_mgmr_rate_config:
.LFB111:
	.loc 1 697 1 is_stmt 1
	.cfi_startproc
.LVL203:
	.loc 1 698 5
	.loc 1 698 12 is_stmt 0
	tail	wifi_mgmr_api_rate_config
.LVL204:
	.cfi_endproc
.LFE111:
	.size	wifi_mgmr_rate_config, .-wifi_mgmr_rate_config
	.section	.text.wifi_mgmr_conf_max_sta,"ax",@progbits
	.align	1
	.globl	wifi_mgmr_conf_max_sta
	.type	wifi_mgmr_conf_max_sta, @function
wifi_mgmr_conf_max_sta:
.LFB112:
	.loc 1 702 1 is_stmt 1
	.cfi_startproc
.LVL205:
	.loc 1 703 5
	.loc 1 703 12 is_stmt 0
	tail	wifi_mgmr_api_conf_max_sta
.LVL206:
	.cfi_endproc
.LFE112:
	.size	wifi_mgmr_conf_max_sta, .-wifi_mgmr_conf_max_sta
	.section	.text.wifi_mgmr_state_get,"ax",@progbits
	.align	1
	.globl	wifi_mgmr_state_get
	.type	wifi_mgmr_state_get, @function
wifi_mgmr_state_get:
.LFB113:
	.loc 1 707 1 is_stmt 1
	.cfi_startproc
.LVL207:
	.loc 1 708 5
	.loc 1 708 12 is_stmt 0
	tail	wifi_mgmr_state_get_internal
.LVL208:
	.cfi_endproc
.LFE113:
	.size	wifi_mgmr_state_get, .-wifi_mgmr_state_get
	.section	.text.wifi_mgmr_ap_start,"ax",@progbits
	.align	1
	.globl	wifi_mgmr_ap_start
	.type	wifi_mgmr_ap_start, @function
wifi_mgmr_ap_start:
.LFB101:
	.loc 1 616 1 is_stmt 1
	.cfi_startproc
.LVL209:
	.loc 1 617 5
	.loc 1 618 5
	.loc 1 620 5
	.loc 1 616 1 is_stmt 0
	addi	sp,sp,-224
	.cfi_def_cfa_offset 224
	.loc 1 620 5
	addi	a0,sp,12
.LVL210:
	.loc 1 616 1
	sw	s0,216(sp)
	sw	s1,212(sp)
	sw	s2,208(sp)
	sw	s3,204(sp)
	.cfi_offset 8, -8
	.cfi_offset 9, -12
	.cfi_offset 18, -16
	.cfi_offset 19, -20
	mv	s0,a4
	sw	ra,220(sp)
	.cfi_offset 1, -4
	.loc 1 616 1
	mv	s1,a1
	mv	s3,a2
	mv	s2,a3
	.loc 1 620 5
	call	wifi_mgmr_state_get
.LVL211:
	.loc 1 621 5 is_stmt 1
	.loc 1 621 50 is_stmt 0
	lw	a5,12(sp)
	.loc 1 621 8
	li	a4,1
	.loc 1 621 50
	addi	a5,a5,-3
	.loc 1 621 8
	bgtu	a5,a4,.L156
	.loc 1 622 9 is_stmt 1
	addi	a0,sp,16
	call	wifi_mgmr_sta_connect_ind_stat_get
.LVL212:
	.loc 1 623 9
	.loc 1 623 17 is_stmt 0
	lhu	a5,186(sp)
	.loc 1 623 12
	li	a4,4096
	addi	a4,a4,-1612
	.loc 1 624 21
	li	s0,14
.LVL213:
	.loc 1 623 12
	beq	a5,a4,.L156
	.loc 1 626 13 is_stmt 1
	.loc 1 626 39 is_stmt 0
	li	s0,-4096
	addi	s0,s0,1689
	add	a5,a5,s0
	.loc 1 626 21
	li	s0,5
	div	s0,a5,s0
.LVL214:
.L156:
	.loc 1 629 5 is_stmt 1
	andi	a3,s3,0xff
	mv	a2,s0
	mv	a1,s2
	mv	a0,s1
	call	wifi_mgmr_api_ap_start
.LVL215:
	.loc 1 630 5
	.loc 1 631 1 is_stmt 0
	lw	ra,220(sp)
	.cfi_restore 1
	lw	s0,216(sp)
	.cfi_restore 8
.LVL216:
	lw	s1,212(sp)
	.cfi_restore 9
.LVL217:
	lw	s2,208(sp)
	.cfi_restore 18
.LVL218:
	lw	s3,204(sp)
	.cfi_restore 19
.LVL219:
	li	a0,0
	addi	sp,sp,224
	.cfi_def_cfa_offset 0
	jr	ra
	.cfi_endproc
.LFE101:
	.size	wifi_mgmr_ap_start, .-wifi_mgmr_ap_start
	.section	.text.wifi_mgmr_status_code_get,"ax",@progbits
	.align	1
	.globl	wifi_mgmr_status_code_get
	.type	wifi_mgmr_status_code_get, @function
wifi_mgmr_status_code_get:
.LFB114:
	.loc 1 712 1 is_stmt 1
	.cfi_startproc
.LVL220:
	.loc 1 713 5
	.loc 1 713 12 is_stmt 0
	tail	wifi_mgmr_status_code_get_internal
.LVL221:
	.cfi_endproc
.LFE114:
	.size	wifi_mgmr_status_code_get, .-wifi_mgmr_status_code_get
	.section	.text.wifi_mgmr_rssi_get,"ax",@progbits
	.align	1
	.globl	wifi_mgmr_rssi_get
	.type	wifi_mgmr_rssi_get, @function
wifi_mgmr_rssi_get:
.LFB115:
	.loc 1 717 1 is_stmt 1
	.cfi_startproc
.LVL222:
	.loc 1 718 5
	.loc 1 718 34 is_stmt 0
	lui	a5,%hi(wifiMgmr+124)
	lb	a5,%lo(wifiMgmr+124)(a5)
	sw	a5,0(a0)
	.loc 1 719 5 is_stmt 1
	.loc 1 720 1 is_stmt 0
	li	a0,0
.LVL223:
	ret
	.cfi_endproc
.LFE115:
	.size	wifi_mgmr_rssi_get, .-wifi_mgmr_rssi_get
	.section	.text.wifi_mgmr_channel_get,"ax",@progbits
	.align	1
	.globl	wifi_mgmr_channel_get
	.type	wifi_mgmr_channel_get, @function
wifi_mgmr_channel_get:
.LFB116:
	.loc 1 723 1 is_stmt 1
	.cfi_startproc
.LVL224:
	.loc 1 724 5
	.loc 1 724 24 is_stmt 0
	lui	a5,%hi(wifiMgmr)
	lw	a5,%lo(wifiMgmr)(a5)
	.loc 1 724 14
	sw	a5,0(a0)
	.loc 1 725 5 is_stmt 1
	.loc 1 726 1 is_stmt 0
	li	a0,0
.LVL225:
	ret
	.cfi_endproc
.LFE116:
	.size	wifi_mgmr_channel_get, .-wifi_mgmr_channel_get
	.section	.rodata.wifi_mgmr_channel_set.str1.4,"aMS",@progbits,1
	.align	2
.LC7:
	.string	"set channel %d, 40Mhz %d\r\n"
	.section	.text.wifi_mgmr_channel_set,"ax",@progbits
	.align	1
	.globl	wifi_mgmr_channel_set
	.type	wifi_mgmr_channel_set, @function
wifi_mgmr_channel_set:
.LFB117:
	.loc 1 729 1 is_stmt 1
	.cfi_startproc
.LVL226:
	.loc 1 730 5
	.loc 1 729 1 is_stmt 0
	addi	sp,sp,-32
	.cfi_def_cfa_offset 32
	.loc 1 730 22
	lui	a5,%hi(wifiMgmr)
	.loc 1 729 1
	sw	ra,28(sp)
	sw	s0,24(sp)
	.cfi_offset 1, -4
	.cfi_offset 8, -8
	.loc 1 729 1
	sw	a1,12(sp)
	mv	s0,a0
	.loc 1 730 22
	sw	a0,%lo(wifiMgmr)(a5)
	.loc 1 731 5 is_stmt 1
	call	wifi_mgmr_api_channel_set
.LVL227:
	.loc 1 732 5
	.loc 1 732 19 is_stmt 0
	lui	a5,%hi(g_bl_ops_funcs+4)
	.loc 1 732 5
	lw	a2,12(sp)
	lw	a5,%lo(g_bl_ops_funcs+4)(a5)
	lui	a0,%hi(.LC7)
	mv	a1,s0
	addi	a0,a0,%lo(.LC7)
	jalr	a5
.LVL228:
	.loc 1 733 5 is_stmt 1
	.loc 1 734 1 is_stmt 0
	lw	ra,28(sp)
	.cfi_restore 1
	lw	s0,24(sp)
	.cfi_restore 8
.LVL229:
	li	a0,0
	addi	sp,sp,32
	.cfi_def_cfa_offset 0
.LVL230:
	jr	ra
	.cfi_endproc
.LFE117:
	.size	wifi_mgmr_channel_set, .-wifi_mgmr_channel_set
	.section	.text.wifi_mgmr_raw_80211_send,"ax",@progbits
	.align	1
	.globl	wifi_mgmr_raw_80211_send
	.type	wifi_mgmr_raw_80211_send, @function
wifi_mgmr_raw_80211_send:
.LFB118:
	.loc 1 737 1 is_stmt 1
	.cfi_startproc
.LVL231:
	.loc 1 738 5
	.loc 1 738 8 is_stmt 0
	li	a5,480
	bgt	a1,a5,.L166
	.loc 1 742 5 is_stmt 1
	.loc 1 737 1 is_stmt 0
	addi	sp,sp,-16
	.cfi_def_cfa_offset 16
	sw	ra,12(sp)
	.cfi_offset 1, -4
	.loc 1 742 5
	call	wifi_mgmr_api_raw_send
.LVL232:
	.loc 1 744 5 is_stmt 1
	.loc 1 745 1 is_stmt 0
	lw	ra,12(sp)
	.cfi_restore 1
	.loc 1 744 12
	li	a0,0
	.loc 1 745 1
	addi	sp,sp,16
	.cfi_def_cfa_offset 0
	jr	ra
.LVL233:
.L166:
	.loc 1 740 16
	li	a0,-1
.LVL234:
	.loc 1 745 1
	ret
	.cfi_endproc
.LFE118:
	.size	wifi_mgmr_raw_80211_send, .-wifi_mgmr_raw_80211_send
	.section	.text.wifi_mgmr_scan,"ax",@progbits
	.align	1
	.globl	wifi_mgmr_scan
	.type	wifi_mgmr_scan, @function
wifi_mgmr_scan:
.LFB120:
	.loc 1 786 1 is_stmt 1
	.cfi_startproc
.LVL235:
	.loc 1 787 5
	.loc 1 787 13 is_stmt 0
	lui	a5,%hi(.LANCHOR7)
	sw	a1,%lo(.LANCHOR7)(a5)
	.loc 1 788 5 is_stmt 1
	.loc 1 790 5 is_stmt 0
	li	a4,221184
	.loc 1 788 15
	lui	a5,%hi(.LANCHOR8)
	.loc 1 786 1
	addi	sp,sp,-16
	.cfi_def_cfa_offset 16
	.loc 1 788 15
	sw	a0,%lo(.LANCHOR8)(a5)
	.loc 1 790 5 is_stmt 1
	addi	a4,a4,-1184
	li	a3,0
	li	a2,0
	li	a1,0
.LVL236:
	li	a0,0
.LVL237:
	.loc 1 786 1 is_stmt 0
	sw	ra,12(sp)
	.cfi_offset 1, -4
	.loc 1 790 5
	call	wifi_mgmr_api_fw_scan
.LVL238:
	.loc 1 792 5 is_stmt 1
	.loc 1 793 1 is_stmt 0
	lw	ra,12(sp)
	.cfi_restore 1
	li	a0,0
	addi	sp,sp,16
	.cfi_def_cfa_offset 0
	jr	ra
	.cfi_endproc
.LFE120:
	.size	wifi_mgmr_scan, .-wifi_mgmr_scan
	.section	.text.wifi_mgmr_scan_adv,"ax",@progbits
	.align	1
	.globl	wifi_mgmr_scan_adv
	.type	wifi_mgmr_scan_adv, @function
wifi_mgmr_scan_adv:
.LFB121:
	.loc 1 796 1 is_stmt 1
	.cfi_startproc
.LVL239:
	.loc 1 797 5
	.loc 1 796 1 is_stmt 0
	mv	t1,a1
	mv	a1,a3
.LVL240:
	mv	a3,a5
.LVL241:
	.loc 1 797 13
	lui	a5,%hi(.LANCHOR7)
.LVL242:
	sw	t1,%lo(.LANCHOR7)(a5)
	.loc 1 798 5 is_stmt 1
	.loc 1 798 15 is_stmt 0
	lui	a5,%hi(.LANCHOR8)
	sw	a0,%lo(.LANCHOR8)(a5)
	.loc 1 800 5 is_stmt 1
	.loc 1 796 1 is_stmt 0
	mv	a7,a2
	mv	a2,a4
.LVL243:
	mv	a4,a6
.LVL244:
	.loc 1 800 8
	beq	a1,zero,.L174
	.loc 1 801 16 discriminator 1
	li	a0,-1
.LVL245:
	.loc 1 800 26 discriminator 1
	beq	a7,zero,.L181
.L174:
	.loc 1 804 5 is_stmt 1
	.loc 1 796 1 is_stmt 0
	addi	sp,sp,-16
	.cfi_def_cfa_offset 16
	.loc 1 804 5
	mv	a0,a7
	.loc 1 796 1
	sw	ra,12(sp)
	.cfi_offset 1, -4
	.loc 1 804 5
	call	wifi_mgmr_api_fw_scan
.LVL246:
	.loc 1 805 5 is_stmt 1
	.loc 1 806 1 is_stmt 0
	lw	ra,12(sp)
	.cfi_restore 1
	.loc 1 805 12
	li	a0,0
	.loc 1 806 1
	addi	sp,sp,16
	.cfi_def_cfa_offset 0
	jr	ra
.LVL247:
.L181:
	ret
	.cfi_endproc
.LFE121:
	.size	wifi_mgmr_scan_adv, .-wifi_mgmr_scan_adv
	.section	.text.wifi_mgmr_cfg_req,"ax",@progbits
	.align	1
	.globl	wifi_mgmr_cfg_req
	.type	wifi_mgmr_cfg_req, @function
wifi_mgmr_cfg_req:
.LFB122:
	.loc 1 809 1 is_stmt 1
	.cfi_startproc
.LVL248:
	.loc 1 810 5
	.loc 1 810 12 is_stmt 0
	tail	wifi_mgmr_api_cfg_req
.LVL249:
	.cfi_endproc
.LFE122:
	.size	wifi_mgmr_cfg_req, .-wifi_mgmr_cfg_req
	.section	.text.wifi_mgmr_beacon_interval_set,"ax",@progbits
	.align	1
	.globl	wifi_mgmr_beacon_interval_set
	.type	wifi_mgmr_beacon_interval_set, @function
wifi_mgmr_beacon_interval_set:
.LFB123:
	.loc 1 814 1 is_stmt 1
	.cfi_startproc
.LVL250:
	.loc 1 815 5
	.loc 1 815 25 is_stmt 0
	lui	a5,%hi(wifiMgmr+4468)
	sh	a0,%lo(wifiMgmr+4468)(a5)
	.loc 1 816 5 is_stmt 1
	.loc 1 817 1 is_stmt 0
	li	a0,0
.LVL251:
	ret
	.cfi_endproc
.LFE123:
	.size	wifi_mgmr_beacon_interval_set, .-wifi_mgmr_beacon_interval_set
	.section	.text.wifi_mgmr_scan_filter_hidden_ssid,"ax",@progbits
	.align	1
	.globl	wifi_mgmr_scan_filter_hidden_ssid
	.type	wifi_mgmr_scan_filter_hidden_ssid, @function
wifi_mgmr_scan_filter_hidden_ssid:
.LFB124:
	.loc 1 820 1 is_stmt 1
	.cfi_startproc
.LVL252:
.LBB23:
	.loc 1 821 7
	.loc 1 821 29
.LBE23:
	.loc 1 820 1 is_stmt 0
	addi	sp,sp,-16
	.cfi_def_cfa_offset 16
	sw	s0,8(sp)
	.cfi_offset 8, -8
.LBB24:
	.loc 1 821 57
	lui	s0,%hi(g_bl_ops_funcs)
.LBE24:
	.loc 1 820 1
	sw	s1,4(sp)
	sw	ra,12(sp)
	.cfi_offset 9, -12
	.cfi_offset 1, -4
.LBB25:
	.loc 1 821 57
	addi	a5,s0,%lo(g_bl_ops_funcs)
	.loc 1 821 43
	lw	a5,20(a5)
.LBE25:
	.loc 1 820 1
	mv	s1,a0
	addi	s0,s0,%lo(g_bl_ops_funcs)
.LBB26:
	.loc 1 821 43
	jalr	a5
.LVL253:
	.loc 1 821 76 is_stmt 1
	.loc 1 822 5
	lui	a4,%hi(wifiMgmr+4096)
	addi	a4,a4,%lo(wifiMgmr+4096)
	.loc 1 823 27 is_stmt 0
	lw	a5,388(a4)
	.loc 1 822 8
	beq	s1,zero,.L186
	.loc 1 823 9 is_stmt 1
	.loc 1 823 27 is_stmt 0
	andi	a5,a5,-2
.L187:
	sw	a5,388(a4)
	.loc 1 827 5 is_stmt 1
	lw	a5,24(s0)
	jalr	a5
.LVL254:
.LBE26:
	.loc 1 827 50
	.loc 1 828 5
	.loc 1 829 1 is_stmt 0
	lw	ra,12(sp)
	.cfi_remember_state
	.cfi_restore 1
	lw	s0,8(sp)
	.cfi_restore 8
	lw	s1,4(sp)
	.cfi_restore 9
.LVL255:
	li	a0,0
	addi	sp,sp,16
	.cfi_def_cfa_offset 0
	jr	ra
.LVL256:
.L186:
	.cfi_restore_state
.LBB27:
	.loc 1 825 9 is_stmt 1
	.loc 1 825 27 is_stmt 0
	ori	a5,a5,1
	j	.L187
.LBE27:
	.cfi_endproc
.LFE124:
	.size	wifi_mgmr_scan_filter_hidden_ssid, .-wifi_mgmr_scan_filter_hidden_ssid
	.section	.rodata.wifi_mgmr_scan_complete_callback.str1.4,"aMS",@progbits,1
	.align	2
.LC8:
	.string	"%s: scan complete\r\n"
	.section	.text.wifi_mgmr_scan_complete_callback,"ax",@progbits
	.align	1
	.globl	wifi_mgmr_scan_complete_callback
	.type	wifi_mgmr_scan_complete_callback, @function
wifi_mgmr_scan_complete_callback:
.LFB125:
	.loc 1 832 1 is_stmt 1
	.cfi_startproc
	.loc 1 833 5
	.loc 1 835 19 is_stmt 0
	lui	a5,%hi(g_bl_ops_funcs+4)
	.loc 1 835 5
	lw	a5,%lo(g_bl_ops_funcs+4)(a5)
	.loc 1 832 1
	addi	sp,sp,-32
	.cfi_def_cfa_offset 32
	.loc 1 835 5
	lui	a1,%hi(.LANCHOR9)
	lui	a0,%hi(.LC8)
	.loc 1 832 1
	sw	ra,28(sp)
	.cfi_offset 1, -4
	.loc 1 833 9
	sw	zero,12(sp)
	.loc 1 835 5 is_stmt 1
	addi	a1,a1,%lo(.LANCHOR9)
	addi	a0,a0,%lo(.LC8)
	jalr	a5
.LVL257:
	.loc 1 836 5
	.loc 1 836 17 is_stmt 0
	lui	a5,%hi(.LANCHOR7)
	lw	a5,%lo(.LANCHOR7)(a5)
	.loc 1 836 8
	beq	a5,zero,.L190
	.loc 1 837 9 is_stmt 1
	.loc 1 837 16 is_stmt 0
	li	a4,1
	sw	a4,12(sp)
	.loc 1 838 9 is_stmt 1
	lui	a4,%hi(.LANCHOR8)
	lw	a0,%lo(.LANCHOR8)(a4)
	addi	a1,sp,12
	jalr	a5
.LVL258:
.L190:
	.loc 1 840 5
	.loc 1 841 1 is_stmt 0
	lw	ra,28(sp)
	.cfi_restore 1
	li	a0,0
	addi	sp,sp,32
	.cfi_def_cfa_offset 0
	jr	ra
	.cfi_endproc
.LFE125:
	.size	wifi_mgmr_scan_complete_callback, .-wifi_mgmr_scan_complete_callback
	.section	.text.wifi_mgmr_scan_ap,"ax",@progbits
	.align	1
	.globl	wifi_mgmr_scan_ap
	.type	wifi_mgmr_scan_ap, @function
wifi_mgmr_scan_ap:
.LFB126:
	.loc 1 844 1 is_stmt 1
	.cfi_startproc
.LVL259:
	.loc 1 845 5
	.loc 1 846 5
	.loc 1 847 5
	.loc 1 849 5
	.loc 1 849 17
	.loc 1 844 1 is_stmt 0
	addi	sp,sp,-64
	.cfi_def_cfa_offset 64
	sw	s1,52(sp)
	.cfi_offset 9, -12
	lui	s1,%hi(wifiMgmr)
	sw	s2,48(sp)
	sw	s6,32(sp)
	.cfi_offset 18, -16
	.cfi_offset 22, -32
	addi	s2,s1,%lo(wifiMgmr)
	sw	s7,28(sp)
.LBB30:
.LBB31:
	.file 2 "/mnt/d/GitHub/bl_iot_sdk_for_aithinker/components/network/wifi_manager/bl60x_wifi_driver/wifi_mgmr.h"
	.loc 2 332 41
	lui	s6,%hi(g_bl_ops_funcs)
	.cfi_offset 23, -36
	.loc 2 332 106
	li	s7,4096
.LBE31:
.LBE30:
	.loc 1 844 1
	sw	s0,56(sp)
	sw	s4,40(sp)
	sw	s5,36(sp)
	sw	s8,24(sp)
	sw	s9,20(sp)
	sw	ra,60(sp)
	sw	s3,44(sp)
	sw	s10,16(sp)
	sw	s11,12(sp)
	.cfi_offset 8, -8
	.cfi_offset 20, -24
	.cfi_offset 21, -28
	.cfi_offset 24, -40
	.cfi_offset 25, -44
	.cfi_offset 1, -4
	.cfi_offset 19, -20
	.cfi_offset 26, -48
	.cfi_offset 27, -52
	.loc 1 844 1
	mv	s5,a0
	mv	s0,a1
	.loc 1 849 12
	li	s4,0
	addi	s1,s1,%lo(wifiMgmr)
.LBB34:
.LBB32:
	.loc 2 332 41
	addi	s6,s6,%lo(g_bl_ops_funcs)
	.loc 2 332 106
	add	s7,s2,s7
	li	s8,60
.LBE32:
.LBE34:
	.loc 1 849 5
	li	s9,50
.LVL260:
.L197:
	.loc 1 850 9 is_stmt 1
	.loc 1 850 12 is_stmt 0
	lbu	a5,707(s2)
	bne	a5,zero,.L196
.L199:
	.loc 1 849 81 is_stmt 1
	.loc 1 849 82 is_stmt 0
	addi	s4,s4,1
.LVL261:
	.loc 1 849 17 is_stmt 1
	.loc 1 849 5 is_stmt 0
	addi	s2,s2,60
	bne	s4,s9,.L197
	.loc 1 872 16
	li	s3,-1
.LVL262:
.L195:
	.loc 1 876 1
	lw	ra,60(sp)
	.cfi_remember_state
	.cfi_restore 1
	lw	s0,56(sp)
	.cfi_restore 8
.LVL263:
	lw	s1,52(sp)
	.cfi_restore 9
	lw	s2,48(sp)
	.cfi_restore 18
	lw	s4,40(sp)
	.cfi_restore 20
.LVL264:
	lw	s5,36(sp)
	.cfi_restore 21
.LVL265:
	lw	s6,32(sp)
	.cfi_restore 22
	lw	s7,28(sp)
	.cfi_restore 23
	lw	s8,24(sp)
	.cfi_restore 24
	lw	s9,20(sp)
	.cfi_restore 25
	lw	s10,16(sp)
	.cfi_restore 26
	lw	s11,12(sp)
	.cfi_restore 27
	mv	a0,s3
	lw	s3,44(sp)
	.cfi_restore 19
	addi	sp,sp,64
	.cfi_def_cfa_offset 0
	jr	ra
.LVL266:
.L196:
	.cfi_restore_state
.LBB35:
.LBB33:
	.loc 2 332 5 is_stmt 1 discriminator 1
	.loc 2 332 27 is_stmt 0 discriminator 1
	lw	a5,196(s6)
	jalr	a5
.LVL267:
	.loc 2 332 57 discriminator 1
	lw	a5,656(s2)
	sub	a0,a0,a5
.LBE33:
.LBE35:
	.loc 1 850 44 discriminator 1
	lw	a5,392(s7)
	bgeu	a0,a5,.L199
	addi	s11,s2,664
	.loc 1 851 97
	mv	a1,s5
	mv	a0,s11
	call	strcmp
.LVL268:
	mul	s10,s4,s8
	mv	s3,a0
	.loc 1 851 89
	bne	a0,zero,.L199
.LVL269:
	.loc 1 861 5 is_stmt 1
	.loc 1 864 9
	.loc 1 865 9
	li	a2,32
	mv	a1,s11
	mv	a0,s0
	call	memcpy
.LVL270:
	.loc 1 866 9
	.loc 1 867 26 is_stmt 0
	mv	a0,s0
	.loc 1 866 28
	sb	zero,32(s0)
	.loc 1 867 9 is_stmt 1
	.loc 1 867 26 is_stmt 0
	call	strlen
.LVL271:
	.loc 1 868 33
	addi	a1,s10,697
	.loc 1 867 24
	sw	a0,36(s0)
	.loc 1 868 9 is_stmt 1
	add	a1,s1,a1
	li	a2,6
	addi	a0,s0,40
	call	memcpy
.LVL272:
	.loc 1 869 9
	.loc 1 869 29 is_stmt 0
	add	s1,s1,s10
	lbu	a5,662(s1)
	.loc 1 869 23
	sb	a5,46(s0)
	.loc 1 870 9 is_stmt 1
	.loc 1 870 26 is_stmt 0
	lb	a5,663(s1)
	.loc 1 870 20
	sb	a5,48(s0)
	.loc 1 875 5 is_stmt 1
	.loc 1 875 12 is_stmt 0
	j	.L195
	.cfi_endproc
.LFE126:
	.size	wifi_mgmr_scan_ap, .-wifi_mgmr_scan_ap
	.section	.text.wifi_mgmr_scan_ap_all,"ax",@progbits
	.align	1
	.globl	wifi_mgmr_scan_ap_all
	.type	wifi_mgmr_scan_ap_all, @function
wifi_mgmr_scan_ap_all:
.LFB127:
	.loc 1 879 1 is_stmt 1
	.cfi_startproc
.LVL273:
	.loc 1 880 5
	.loc 1 881 5
	.loc 1 882 5
	.loc 1 884 5
	.loc 1 884 17
	.loc 1 879 1 is_stmt 0
	addi	sp,sp,-96
	.cfi_def_cfa_offset 96
	li	a5,4096
	sw	s0,88(sp)
	.cfi_offset 8, -8
	lui	s0,%hi(wifiMgmr)
	addi	s0,s0,%lo(wifiMgmr)
	sw	s2,80(sp)
	sw	s6,64(sp)
	.cfi_offset 18, -16
	.cfi_offset 22, -32
	addi	s2,a5,-1096
.LBB38:
.LBB39:
	.loc 2 332 41
	lui	s6,%hi(g_bl_ops_funcs)
.LBE39:
.LBE38:
	.loc 1 879 1
	sw	s1,84(sp)
	sw	s3,76(sp)
	sw	s4,72(sp)
	sw	s5,68(sp)
	sw	ra,92(sp)
	.cfi_offset 9, -12
	.cfi_offset 19, -20
	.cfi_offset 20, -24
	.cfi_offset 21, -28
	.cfi_offset 1, -4
	.loc 1 879 1
	mv	s3,a0
	mv	s4,a1
	mv	s5,a2
	add	s2,s0,s2
.LBB43:
.LBB40:
	.loc 2 332 41
	addi	s6,s6,%lo(g_bl_ops_funcs)
	.loc 2 332 106
	add	s1,s0,a5
.LVL274:
.L207:
.LBE40:
.LBE43:
	.loc 1 885 9 is_stmt 1
	.loc 1 886 9
	.loc 1 886 12 is_stmt 0
	lbu	a5,707(s0)
	beq	a5,zero,.L205
.LVL275:
.LBB44:
.LBB41:
	.loc 2 332 5 is_stmt 1 discriminator 1
	.loc 2 332 27 is_stmt 0 discriminator 1
	lw	a5,196(s6)
	jalr	a5
.LVL276:
	.loc 2 332 57 discriminator 1
	lw	a5,656(s0)
.LBE41:
.LBE44:
	.loc 1 886 27 discriminator 1
	lw	a4,392(s1)
.LBB45:
.LBB42:
	.loc 2 332 57 discriminator 1
	sub	a5,a0,a5
.LBE42:
.LBE45:
	.loc 1 886 27 discriminator 1
	bgeu	a5,a4,.L205
	.loc 1 888 13 is_stmt 1
	li	a2,32
	addi	a1,s0,664
	addi	a0,sp,12
	call	memcpy
.LVL277:
	.loc 1 889 13
	.loc 1 890 29 is_stmt 0
	addi	a0,sp,12
	.loc 1 889 31
	sb	zero,44(sp)
	.loc 1 890 13 is_stmt 1
	.loc 1 890 29 is_stmt 0
	call	strlen
.LVL278:
	.loc 1 890 27
	sw	a0,48(sp)
	.loc 1 891 13 is_stmt 1
	li	a2,6
	addi	a1,s0,697
	addi	a0,sp,52
	call	memcpy
.LVL279:
	.loc 1 892 13
	.loc 1 892 26 is_stmt 0
	lbu	a5,662(s0)
	.loc 1 895 13
	addi	a2,sp,12
	mv	a1,s4
	.loc 1 892 26
	sb	a5,58(sp)
	.loc 1 893 13 is_stmt 1
	.loc 1 893 23 is_stmt 0
	lbu	a5,663(s0)
	.loc 1 895 13
	mv	a0,s3
	.loc 1 893 23
	sb	a5,60(sp)
	.loc 1 894 13 is_stmt 1
	.loc 1 894 23 is_stmt 0
	lbu	a5,705(s0)
	sb	a5,59(sp)
	.loc 1 895 13 is_stmt 1
	jalr	s5
.LVL280:
.L205:
	.loc 1 884 81 discriminator 2
	.loc 1 884 17 discriminator 2
	.loc 1 884 5 is_stmt 0 discriminator 2
	addi	s0,s0,60
	bne	s0,s2,.L207
	.loc 1 899 5 is_stmt 1
	.loc 1 900 1 is_stmt 0
	lw	ra,92(sp)
	.cfi_restore 1
	lw	s0,88(sp)
	.cfi_restore 8
	lw	s1,84(sp)
	.cfi_restore 9
	lw	s2,80(sp)
	.cfi_restore 18
	lw	s3,76(sp)
	.cfi_restore 19
.LVL281:
	lw	s4,72(sp)
	.cfi_restore 20
.LVL282:
	lw	s5,68(sp)
	.cfi_restore 21
.LVL283:
	lw	s6,64(sp)
	.cfi_restore 22
	li	a0,0
	addi	sp,sp,96
	.cfi_def_cfa_offset 0
	jr	ra
	.cfi_endproc
.LFE127:
	.size	wifi_mgmr_scan_ap_all, .-wifi_mgmr_scan_ap_all
	.section	.rodata.wifi_mgmr_all_ap_scan.str1.4,"aMS",@progbits,1
	.align	2
.LC9:
	.string	"wifi scan Done\r\n"
	.section	.text.wifi_mgmr_all_ap_scan,"ax",@progbits
	.align	1
	.globl	wifi_mgmr_all_ap_scan
	.type	wifi_mgmr_all_ap_scan, @function
wifi_mgmr_all_ap_scan:
.LFB119:
	.loc 1 748 1 is_stmt 1
	.cfi_startproc
.LVL284:
	.loc 1 749 5
	.loc 1 748 1 is_stmt 0
	addi	sp,sp,-48
	.cfi_def_cfa_offset 48
	sw	ra,44(sp)
	sw	s0,40(sp)
	sw	s1,36(sp)
	sw	s2,32(sp)
	sw	s3,28(sp)
	sw	s4,24(sp)
	sw	s5,20(sp)
	.cfi_offset 1, -4
	.cfi_offset 8, -8
	.cfi_offset 9, -12
	.cfi_offset 18, -16
	.cfi_offset 19, -20
	.cfi_offset 20, -24
	.cfi_offset 21, -28
	.loc 1 749 14
	sw	zero,12(sp)
	.loc 1 750 5 is_stmt 1
	.loc 1 752 5
	.loc 1 752 8 is_stmt 0
	bne	a0,zero,.L211
.LVL285:
.L223:
	.loc 1 764 9 is_stmt 1
	.loc 1 764 16 is_stmt 0
	li	a0,-1
.L210:
	.loc 1 783 1
	lw	ra,44(sp)
	.cfi_remember_state
	.cfi_restore 1
	lw	s0,40(sp)
	.cfi_restore 8
	lw	s1,36(sp)
	.cfi_restore 9
	lw	s2,32(sp)
	.cfi_restore 18
	lw	s3,28(sp)
	.cfi_restore 19
	lw	s4,24(sp)
	.cfi_restore 20
	lw	s5,20(sp)
	.cfi_restore 21
	addi	sp,sp,48
	.cfi_def_cfa_offset 0
	jr	ra
.LVL286:
.L211:
	.cfi_restore_state
	mv	s5,a1
	.loc 1 752 23 discriminator 1
	beq	a1,zero,.L223
	.loc 1 756 53
	lui	s1,%hi(g_bl_ops_funcs)
	addi	s3,s1,%lo(g_bl_ops_funcs)
	.loc 1 756 39
	lw	a5,184(s3)
	li	s2,4096
	mv	s4,a0
	.loc 1 756 5 is_stmt 1
	.loc 1 756 39 is_stmt 0
	addi	a0,s2,-1496
.LVL287:
	jalr	a5
.LVL288:
	mv	s0,a0
.LVL289:
	.loc 1 757 5 is_stmt 1
	addi	s1,s1,%lo(g_bl_ops_funcs)
	.loc 1 757 7 is_stmt 0
	beq	a0,zero,.L223
	.loc 1 760 5 is_stmt 1
	addi	a2,s2,-1496
	li	a1,0
	call	memset
.LVL290:
	.loc 1 762 5
	.loc 1 762 27 is_stmt 0
	lw	a5,132(s3)
	li	a0,0
	.loc 1 762 25
	lui	s2,%hi(.LANCHOR0)
	.loc 1 762 27
	jalr	a5
.LVL291:
	.loc 1 762 25
	sw	a0,%lo(.LANCHOR0)(s2)
	addi	s2,s2,%lo(.LANCHOR0)
	.loc 1 762 7
	bne	a0,zero,.L214
	.loc 1 763 9 is_stmt 1
	lw	a5,188(s3)
	mv	a0,s0
	jalr	a5
.LVL292:
	j	.L223
.L214:
	.loc 1 767 5
	lui	a1,%hi(cb_scan_complete)
	addi	a1,a1,%lo(cb_scan_complete)
	mv	a0,s0
	call	wifi_mgmr_scan
.LVL293:
	.loc 1 769 5
	.loc 1 769 15 is_stmt 0
	lw	a5,140(s1)
	lw	a0,0(s2)
	li	a1,-1
	jalr	a5
.LVL294:
	.loc 1 769 8
	bne	a0,zero,.L215
	.loc 1 770 9 is_stmt 1
	lw	a5,4(s1)
	lui	a0,%hi(.LC9)
	addi	a0,a0,%lo(.LC9)
	jalr	a5
.LVL295:
.L215:
	.loc 1 773 5
	call	wifi_mgmr_cli_scanlist
.LVL296:
	.loc 1 775 5
	lui	a2,%hi(cb_scan_item_parse)
	addi	a2,a2,%lo(cb_scan_item_parse)
	addi	a1,sp,12
	mv	a0,s0
	call	wifi_mgmr_scan_ap_all
.LVL297:
	.loc 1 777 5
	.loc 1 777 10 is_stmt 0
	lw	a5,12(sp)
	sw	a5,0(s5)
	.loc 1 778 5 is_stmt 1
	.loc 1 778 13 is_stmt 0
	sw	s0,0(s4)
	.loc 1 780 5 is_stmt 1
	lw	a0,0(s2)
	lw	a5,136(s1)
	jalr	a5
.LVL298:
	.loc 1 782 5
	.loc 1 782 12 is_stmt 0
	li	a0,0
	j	.L210
	.cfi_endproc
.LFE119:
	.size	wifi_mgmr_all_ap_scan, .-wifi_mgmr_all_ap_scan
	.section	.rodata.wifi_mgmr_set_country_code.str1.4,"aMS",@progbits,1
	.align	2
.LC10:
	.string	"%s:code = %s\r\n"
	.section	.text.wifi_mgmr_set_country_code,"ax",@progbits
	.align	1
	.globl	wifi_mgmr_set_country_code
	.type	wifi_mgmr_set_country_code, @function
wifi_mgmr_set_country_code:
.LFB128:
	.loc 1 903 1 is_stmt 1
	.cfi_startproc
.LVL299:
	.loc 1 904 5
	.loc 1 904 19 is_stmt 0
	lui	a5,%hi(g_bl_ops_funcs+4)
	.loc 1 903 1
	addi	sp,sp,-16
	.cfi_def_cfa_offset 16
	.loc 1 904 5
	lw	a5,%lo(g_bl_ops_funcs+4)(a5)
	.loc 1 903 1
	sw	s0,8(sp)
	.loc 1 904 5
	mv	a2,a0
	.cfi_offset 8, -8
	.loc 1 903 1
	mv	s0,a0
	.loc 1 904 5
	lui	a1,%hi(.LANCHOR10)
	lui	a0,%hi(.LC10)
.LVL300:
	.loc 1 903 1
	sw	ra,12(sp)
	.cfi_offset 1, -4
	.loc 1 904 5
	addi	a1,a1,%lo(.LANCHOR10)
	addi	a0,a0,%lo(.LC10)
	jalr	a5
.LVL301:
	.loc 1 905 5 is_stmt 1
	mv	a0,s0
	call	wifi_mgmr_api_set_country_code
.LVL302:
	.loc 1 907 5
	.loc 1 908 1 is_stmt 0
	lw	ra,12(sp)
	.cfi_restore 1
	lw	s0,8(sp)
	.cfi_restore 8
.LVL303:
	li	a0,0
	addi	sp,sp,16
	.cfi_def_cfa_offset 0
	jr	ra
	.cfi_endproc
.LFE128:
	.size	wifi_mgmr_set_country_code, .-wifi_mgmr_set_country_code
	.section	.text.wifi_mgmr_get_country_code,"ax",@progbits
	.align	1
	.globl	wifi_mgmr_get_country_code
	.type	wifi_mgmr_get_country_code, @function
wifi_mgmr_get_country_code:
.LFB129:
	.loc 1 911 1 is_stmt 1
	.cfi_startproc
.LVL304:
	.loc 1 912 5
	lui	a1,%hi(wifiMgmr+4457)
	.loc 1 911 1 is_stmt 0
	addi	sp,sp,-16
	.cfi_def_cfa_offset 16
	.loc 1 912 5
	addi	a1,a1,%lo(wifiMgmr+4457)
	.loc 1 911 1
	sw	ra,12(sp)
	.cfi_offset 1, -4
	.loc 1 912 5
	call	strcpy
.LVL305:
	.loc 1 913 5 is_stmt 1
	.loc 1 914 1 is_stmt 0
	lw	ra,12(sp)
	.cfi_restore 1
	li	a0,0
	addi	sp,sp,16
	.cfi_def_cfa_offset 0
	jr	ra
	.cfi_endproc
.LFE129:
	.size	wifi_mgmr_get_country_code, .-wifi_mgmr_get_country_code
	.section	.rodata.wifi_mgmr_set_hostname.str1.4,"aMS",@progbits,1
	.align	2
.LC11:
	.string	"%s"
	.section	.text.wifi_mgmr_set_hostname,"ax",@progbits
	.align	1
	.globl	wifi_mgmr_set_hostname
	.type	wifi_mgmr_set_hostname, @function
wifi_mgmr_set_hostname:
.LFB130:
	.loc 1 917 1 is_stmt 1
	.cfi_startproc
.LVL306:
	.loc 1 918 5
	.loc 1 917 1 is_stmt 0
	mv	a3,a0
	.loc 1 918 5
	lui	a2,%hi(.LC11)
	lui	a0,%hi(wifiMgmr+4492)
.LVL307:
	.loc 1 917 1
	addi	sp,sp,-16
	.cfi_def_cfa_offset 16
	.loc 1 918 5
	addi	a2,a2,%lo(.LC11)
	li	a1,32
	addi	a0,a0,%lo(wifiMgmr+4492)
	.loc 1 917 1
	sw	ra,12(sp)
	.cfi_offset 1, -4
	.loc 1 918 5
	call	snprintf
.LVL308:
	.loc 1 919 5 is_stmt 1
	.loc 1 920 1 is_stmt 0
	lw	ra,12(sp)
	.cfi_restore 1
	li	a0,0
	addi	sp,sp,16
	.cfi_def_cfa_offset 0
	jr	ra
	.cfi_endproc
.LFE130:
	.size	wifi_mgmr_set_hostname, .-wifi_mgmr_set_hostname
	.section	.rodata.wifi_mgmr_set_wifi_active_time.str1.4,"aMS",@progbits,1
	.align	2
.LC12:
	.string	"wifi ps mode set: 1 ~ 99\r\n"
	.section	.text.wifi_mgmr_set_wifi_active_time,"ax",@progbits
	.align	1
	.globl	wifi_mgmr_set_wifi_active_time
	.type	wifi_mgmr_set_wifi_active_time, @function
wifi_mgmr_set_wifi_active_time:
.LFB131:
	.loc 1 923 1 is_stmt 1
	.cfi_startproc
.LVL309:
	.loc 1 924 5
	.loc 1 923 1 is_stmt 0
	addi	sp,sp,-16
	.cfi_def_cfa_offset 16
	sw	ra,12(sp)
	.cfi_offset 1, -4
	.loc 1 924 8
	li	a5,99
	bleu	a0,a5,.L231
	.loc 1 925 9 is_stmt 1
	.loc 1 925 23 is_stmt 0
	lui	a5,%hi(g_bl_ops_funcs+4)
	.loc 1 925 9
	lw	a5,%lo(g_bl_ops_funcs+4)(a5)
	lui	a0,%hi(.LC12)
.LVL310:
	addi	a0,a0,%lo(.LC12)
	jalr	a5
.LVL311:
	.loc 1 926 9 is_stmt 1
	.loc 1 926 16 is_stmt 0
	li	a0,-1
.L230:
	.loc 1 933 1
	lw	ra,12(sp)
	.cfi_remember_state
	.cfi_restore 1
	addi	sp,sp,16
	.cfi_def_cfa_offset 0
	jr	ra
.LVL312:
.L231:
	.cfi_restore_state
	.loc 1 929 1 is_stmt 1
	.loc 1 930 5
	li	a1,1000
	mul	a1,a0,a1
	li	a0,0
.LVL313:
	call	td_set_tim_time
.LVL314:
	.loc 1 932 5
	.loc 1 932 12 is_stmt 0
	li	a0,0
	j	.L230
	.cfi_endproc
.LFE131:
	.size	wifi_mgmr_set_wifi_active_time, .-wifi_mgmr_set_wifi_active_time
	.section	.text.wifi_mgmr_set_listen_interval,"ax",@progbits
	.align	1
	.globl	wifi_mgmr_set_listen_interval
	.type	wifi_mgmr_set_listen_interval, @function
wifi_mgmr_set_listen_interval:
.LFB132:
	.loc 1 936 1 is_stmt 1
	.cfi_startproc
.LVL315:
	.loc 1 937 5
	.loc 1 937 8 is_stmt 0
	beq	a0,zero,.L236
	.loc 1 941 5 is_stmt 1
	.loc 1 941 30 is_stmt 0
	lui	a5,%hi(bl_mod_params+20)
	sw	a0,%lo(bl_mod_params+20)(a5)
	.loc 1 943 5 is_stmt 1
	.loc 1 943 12 is_stmt 0
	li	a0,0
.LVL316:
	ret
.LVL317:
.L236:
	.loc 1 938 16
	li	a0,-1
.LVL318:
	.loc 1 944 1
	ret
	.cfi_endproc
.LFE132:
	.size	wifi_mgmr_set_listen_interval, .-wifi_mgmr_set_listen_interval
	.section	.text.wifi_mgmr_status_code_str,"ax",@progbits
	.align	1
	.globl	wifi_mgmr_status_code_str
	.type	wifi_mgmr_status_code_str, @function
wifi_mgmr_status_code_str:
.LFB133:
	.loc 1 947 1 is_stmt 1
	.cfi_startproc
.LVL319:
	.loc 1 948 5
	.loc 1 948 12 is_stmt 0
	tail	wifi_mgmr_get_sm_status_code_str
.LVL320:
	.cfi_endproc
.LFE133:
	.size	wifi_mgmr_status_code_str, .-wifi_mgmr_status_code_str
	.section	.text.wifi_mgmr_conn_result_get,"ax",@progbits
	.align	1
	.globl	wifi_mgmr_conn_result_get
	.type	wifi_mgmr_conn_result_get, @function
wifi_mgmr_conn_result_get:
.LFB134:
	.loc 1 952 1 is_stmt 1
	.cfi_startproc
.LVL321:
	.loc 1 953 5
	.loc 1 953 8 is_stmt 0
	beq	a0,zero,.L238
	.loc 1 953 28 discriminator 1
	beq	a1,zero,.L238
	.loc 1 956 5 is_stmt 1
	.loc 1 956 50 is_stmt 0
	lui	a5,%hi(wifiMgmr+4096)
	addi	a5,a5,%lo(wifiMgmr+4096)
	lhu	a4,248(a5)
	.loc 1 956 20
	sh	a4,0(a0)
	.loc 1 957 5 is_stmt 1
	.loc 1 957 50 is_stmt 0
	lhu	a5,250(a5)
	.loc 1 957 20
	sh	a5,0(a1)
.L238:
	.loc 1 958 1
	ret
	.cfi_endproc
.LFE134:
	.size	wifi_mgmr_conn_result_get, .-wifi_mgmr_conn_result_get
	.globl	scan_sig
	.comm	cfg_start_req_u_tlv_t,12,4
	.section	.rodata.__func__.1,"a"
	.align	2
	.set	.LANCHOR9,. + 0
	.type	__func__.1, @object
	.size	__func__.1, 33
__func__.1:
	.string	"wifi_mgmr_scan_complete_callback"
	.section	.rodata.__func__.2,"a"
	.align	2
	.set	.LANCHOR10,. + 0
	.type	__func__.2, @object
	.size	__func__.2, 27
__func__.2:
	.string	"wifi_mgmr_set_country_code"
	.section	.sbss.done.0,"aw",@nobits
	.align	2
	.set	.LANCHOR1,. + 0
	.type	done.0, @object
	.size	done.0, 4
done.0:
	.zero	4
	.section	.sbss.g_ap_dhcp_ip,"aw",@nobits
	.align	2
	.set	.LANCHOR3,. + 0
	.type	g_ap_dhcp_ip, @object
	.size	g_ap_dhcp_ip, 4
g_ap_dhcp_ip:
	.zero	4
	.section	.sbss.g_ap_dhcp_ip_end,"aw",@nobits
	.align	2
	.set	.LANCHOR6,. + 0
	.type	g_ap_dhcp_ip_end, @object
	.size	g_ap_dhcp_ip_end, 4
g_ap_dhcp_ip_end:
	.zero	4
	.section	.sbss.g_ap_dhcp_ip_start,"aw",@nobits
	.align	2
	.set	.LANCHOR5,. + 0
	.type	g_ap_dhcp_ip_start, @object
	.size	g_ap_dhcp_ip_start, 4
g_ap_dhcp_ip_start:
	.zero	4
	.section	.sbss.g_ap_dhcp_mask,"aw",@nobits
	.align	2
	.set	.LANCHOR4,. + 0
	.type	g_ap_dhcp_mask, @object
	.size	g_ap_dhcp_mask, 4
g_ap_dhcp_mask:
	.zero	4
	.section	.sbss.scan_cb,"aw",@nobits
	.align	2
	.set	.LANCHOR7,. + 0
	.type	scan_cb, @object
	.size	scan_cb, 4
scan_cb:
	.zero	4
	.section	.sbss.scan_data,"aw",@nobits
	.align	2
	.set	.LANCHOR8,. + 0
	.type	scan_data, @object
	.size	scan_data, 4
scan_data:
	.zero	4
	.section	.sbss.scan_sig,"aw",@nobits
	.align	2
	.set	.LANCHOR0,. + 0
	.type	scan_sig, @object
	.size	scan_sig, 4
scan_sig:
	.zero	4
	.section	.sdata.g_ap_dhcp_enable,"aw"
	.align	2
	.set	.LANCHOR2,. + 0
	.type	g_ap_dhcp_enable, @object
	.size	g_ap_dhcp_enable, 4
g_ap_dhcp_enable:
	.word	1
	.text
.Letext0:
	.file 3 "/mnt/d/GitHub/bl_iot_sdk_for_aithinker/toolchain/riscv/Linux/lib/gcc/riscv64-unknown-elf/10.2.0/include/stddef.h"
	.file 4 "/mnt/d/GitHub/bl_iot_sdk_for_aithinker/toolchain/riscv/Linux/lib/gcc/riscv64-unknown-elf/10.2.0/include/stdint-gcc.h"
	.file 5 "/mnt/d/GitHub/bl_iot_sdk_for_aithinker/components/os/bl_os_adapter/bl_os_adapter/include/bl_os_adapter/bl_os_type.h"
	.file 6 "/mnt/d/GitHub/bl_iot_sdk_for_aithinker/components/os/bl_os_adapter/bl_os_adapter/include/bl_os_adapter/bl_os_adapter.h"
	.file 7 "/mnt/d/GitHub/bl_iot_sdk_for_aithinker/components/network/lwip/src/include/lwip/arch.h"
	.file 8 "/mnt/d/GitHub/bl_iot_sdk_for_aithinker/components/network/lwip/src/include/lwip/err.h"
	.file 9 "/mnt/d/GitHub/bl_iot_sdk_for_aithinker/components/network/lwip/src/include/lwip/ip4_addr.h"
	.file 10 "/mnt/d/GitHub/bl_iot_sdk_for_aithinker/components/network/lwip/src/include/lwip/ip_addr.h"
	.file 11 "/mnt/d/GitHub/bl_iot_sdk_for_aithinker/components/network/lwip/src/include/lwip/pbuf.h"
	.file 12 "/mnt/d/GitHub/bl_iot_sdk_for_aithinker/components/network/wifi/include/bl60x_fw_api.h"
	.file 13 "/mnt/d/GitHub/bl_iot_sdk_for_aithinker/components/network/lwip/src/include/lwip/netif.h"
	.file 14 "/mnt/d/GitHub/bl_iot_sdk_for_aithinker/components/network/lwip/src/include/lwip/memp.h"
	.file 15 "/mnt/d/GitHub/bl_iot_sdk_for_aithinker/components/network/wifi_manager/bl60x_wifi_driver/lmac_mac.h"
	.file 16 "/mnt/d/GitHub/bl_iot_sdk_for_aithinker/components/network/wifi_manager/bl60x_wifi_driver/lmac_msg.h"
	.file 17 "/mnt/d/GitHub/bl_iot_sdk_for_aithinker/components/network/wifi_manager/bl60x_wifi_driver/bl_mod_params.h"
	.file 18 "/mnt/d/GitHub/bl_iot_sdk_for_aithinker/components/platform/hosal/bl602_hal/bl_pm.h"
	.file 19 "/mnt/d/GitHub/bl_iot_sdk_for_aithinker/components/network/wifi_manager/bl60x_wifi_driver/include/wifi_mgmr_ext.h"
	.file 20 "/mnt/d/GitHub/bl_iot_sdk_for_aithinker/components/network/wifi_manager/bl60x_wifi_driver/stateMachine.h"
	.file 21 "/mnt/d/GitHub/bl_iot_sdk_for_aithinker/components/network/wifi_manager/bl60x_wifi_driver/bl_rx.h"
	.file 22 "/mnt/d/GitHub/bl_iot_sdk_for_aithinker/toolchain/riscv/Linux/riscv64-unknown-elf/include/stdio.h"
	.file 23 "/mnt/d/GitHub/bl_iot_sdk_for_aithinker/toolchain/riscv/Linux/riscv64-unknown-elf/include/string.h"
	.file 24 "/mnt/d/GitHub/bl_iot_sdk_for_aithinker/components/network/wifi_manager/bl60x_wifi_driver/wifi_mgmr_api.h"
	.file 25 "/mnt/d/GitHub/bl_iot_sdk_for_aithinker/components/network/wifi_manager/bl60x_wifi_driver/bl_main.h"
	.file 26 "/mnt/d/GitHub/bl_iot_sdk_for_aithinker/components/network/wifi_hosal/include/wifi_hosal.h"
	.file 27 "/mnt/d/GitHub/bl_iot_sdk_for_aithinker/components/platform/hosal/bl602_hal/bl_wifi.h"
	.file 28 "/mnt/d/GitHub/bl_iot_sdk_for_aithinker/components/network/lwip/src/include/lwip/netifapi.h"
	.file 29 "/mnt/d/GitHub/bl_iot_sdk_for_aithinker/components/network/lwip/src/include/lwip/dns.h"
	.file 30 "/mnt/d/GitHub/bl_iot_sdk_for_aithinker/components/security/wpa_supplicant/include/bl_supplicant/bl_wpa.h"
	.file 31 "/mnt/d/GitHub/bl_iot_sdk_for_aithinker/components/utils/include/utils_hex.h"