	.file	"wifi_mgmr_profile.c"
	.option nopic
	.attribute arch, "rv32i2p0_m2p0_f2p0_c2p0"
	.attribute unaligned_access, 0
	.attribute stack_align, 16
	.text
.Ltext0:
	.cfi_sections	.debug_frame
	.section	.rodata.wifi_mgmr_profile_add.str1.4,"aMS",@progbits,1
	.align	2
.LC0:
	.string	"[WF][PF] Adding and Using profile, idx is @%d\r\n"
	.align	2
.LC1:
	.string	"[WF][PF] Only Adding profile, idx is @%d\r\n"
	.section	.text.wifi_mgmr_profile_add,"ax",@progbits
	.align	1
	.globl	wifi_mgmr_profile_add
	.type	wifi_mgmr_profile_add, @function
wifi_mgmr_profile_add:
.LFB30:
	.file 1 "/mnt/d/GitHub/bl_iot_sdk_for_aithinker/components/network/wifi_manager/bl60x_wifi_driver/wifi_mgmr_profile.c"
	.loc 1 16 1
	.cfi_startproc
.LVL0:
	.loc 1 17 5
	.loc 1 18 5
	.loc 1 20 5
	.loc 1 22 5
	.loc 1 16 1 is_stmt 0
	addi	sp,sp,-16
	.cfi_def_cfa_offset 16
	sw	s0,8(sp)
	sw	s2,0(sp)
	sw	ra,12(sp)
	sw	s1,4(sp)
	.cfi_offset 8, -8
	.cfi_offset 18, -16
	.cfi_offset 1, -4
	.cfi_offset 9, -12
	.loc 1 22 8
	li	a5,-1
	.loc 1 16 1
	mv	s0,a1
	mv	s2,a3
	.loc 1 22 8
	beq	a2,a5,.L2
.LVL1:
	.loc 1 27 21 is_stmt 1
	.loc 1 28 13
	.loc 1 28 16 is_stmt 0
	lbu	a5,446(a0)
	beq	a5,zero,.L7
	.loc 1 27 75 is_stmt 1
.LVL2:
	.loc 1 27 21
	.loc 1 28 13
	.loc 1 28 16 is_stmt 0
	lbu	a5,642(a0)
	beq	a5,zero,.L8
	.loc 1 42 16
	li	a0,-1
.LVL3:
.L1:
	.loc 1 62 1
	lw	ra,12(sp)
	.cfi_remember_state
	.cfi_restore 1
	lw	s0,8(sp)
	.cfi_restore 8
.LVL4:
	lw	s1,4(sp)
	.cfi_restore 9
	lw	s2,0(sp)
	.cfi_restore 18
	addi	sp,sp,16
	.cfi_def_cfa_offset 0
	jr	ra
.LVL5:
.L2:
	.cfi_restore_state
	.loc 1 24 9 is_stmt 1
	.loc 1 24 17 is_stmt 0
	addi	s1,a0,252
.LVL6:
.L5:
	.loc 1 41 5 is_stmt 1
	.loc 1 44 5
	li	a2,196
	li	a1,0
	mv	a0,s1
	call	memset
.LVL7:
	.loc 1 45 5
	.loc 1 45 21 is_stmt 0
	li	a5,1
	sb	a5,194(s1)
	.loc 1 46 5 is_stmt 1
	.loc 1 46 23 is_stmt 0
	sb	s2,193(s1)
	.loc 1 47 5 is_stmt 1
	.loc 1 47 36 is_stmt 0
	lbu	a5,34(s0)
	lbu	a4,33(s0)
	.loc 1 54 5
	li	a2,33
	.loc 1 47 36
	slli	a5,a5,8
	or	a5,a5,a4
	.loc 1 47 23
	sh	a5,0(s1)
	.loc 1 48 5 is_stmt 1
	.loc 1 48 39 is_stmt 0
	lbu	a5,168(s0)
	lbu	a4,167(s0)
	.loc 1 54 5
	mv	a1,s0
	.loc 1 48 39
	slli	a5,a5,8
	or	a5,a5,a4
	.loc 1 48 26
	sh	a5,2(s1)
	.loc 1 49 5 is_stmt 1
	.loc 1 49 35 is_stmt 0
	lbu	a5,172(s0)
	lbu	a4,171(s0)
	.loc 1 54 5
	addi	a0,s1,6
	.loc 1 49 35
	slli	a5,a5,8
	or	a5,a5,a4
	.loc 1 49 22
	sh	a5,4(s1)
	.loc 1 50 5 is_stmt 1
	.loc 1 50 32 is_stmt 0
	lbu	a5,181(s0)
	.loc 1 50 19
	sb	a5,175(s1)
	.loc 1 51 5 is_stmt 1
	.loc 1 51 32 is_stmt 0
	lbu	a5,183(s0)
	lbu	a4,182(s0)
	slli	a5,a5,8
	or	a5,a5,a4
	.loc 1 51 19
	sh	a5,176(s1)
	.loc 1 52 5 is_stmt 1
	.loc 1 52 39 is_stmt 0
	lbu	a4,185(s0)
	lbu	a5,184(s0)
	slli	a4,a4,8
	or	a4,a4,a5
	lbu	a5,186(s0)
	slli	a5,a5,16
	or	a4,a5,a4
	lbu	a5,187(s0)
	slli	a5,a5,24
	or	a5,a5,a4
	.loc 1 52 26
	sw	a5,180(s1)
	.loc 1 53 5 is_stmt 1
	.loc 1 53 23 is_stmt 0
	li	a5,-1
	sb	a5,192(s1)
	.loc 1 54 5 is_stmt 1
	call	memcpy
.LVL8:
	.loc 1 55 5
	li	a2,65
	addi	a1,s0,102
	addi	a0,s1,104
	call	memcpy
.LVL9:
	.loc 1 56 5
	li	a2,65
	addi	a1,s0,37
	addi	a0,s1,39
	call	memcpy
.LVL10:
	.loc 1 57 5
	li	a2,6
	addi	a1,s0,175
	addi	a0,s1,169
	call	memcpy
.LVL11:
	.loc 1 58 5
	.loc 1 58 36 is_stmt 0
	lbu	a5,188(s0)
	.loc 1 61 12
	li	a0,0
	.loc 1 58 23
	sb	a5,184(s1)
	.loc 1 59 5 is_stmt 1
	.loc 1 59 33 is_stmt 0
	lbu	a4,190(s0)
	lbu	a5,189(s0)
	slli	a4,a4,8
	or	a4,a4,a5
	lbu	a5,191(s0)
	slli	a5,a5,16
	or	a4,a5,a4
	lbu	a5,192(s0)
	slli	a5,a5,24
	or	a5,a5,a4
	.loc 1 59 20
	sw	a5,188(s1)
	.loc 1 61 5 is_stmt 1
	.loc 1 61 12 is_stmt 0
	j	.L1
.LVL12:
.L7:
	.loc 1 27 16
	li	a1,0
.LVL13:
.L3:
	.loc 1 29 17 is_stmt 1
	.loc 1 29 25 is_stmt 0
	li	s1,196
	mul	s1,a1,s1
	.loc 1 33 35
	lui	a5,%hi(g_bl_ops_funcs+4)
	lw	a5,%lo(g_bl_ops_funcs+4)(a5)
	.loc 1 29 25
	addi	s1,s1,252
	add	s1,a0,s1
.LVL14:
	.loc 1 31 17 is_stmt 1
	.loc 1 31 20 is_stmt 0
	beq	s2,zero,.L6
	.loc 1 32 21 is_stmt 1
	.loc 1 32 48 is_stmt 0
	sw	a1,644(a0)
	.loc 1 33 21 is_stmt 1
	lui	a0,%hi(.LC0)
.LVL15:
	addi	a0,a0,%lo(.LC0)
.L10:
	.loc 1 35 21 is_stmt 0
	jalr	a5
.LVL16:
	j	.L5
.LVL17:
.L8:
	.loc 1 27 76
	li	a1,1
	j	.L3
.LVL18:
.L6:
	.loc 1 35 21 is_stmt 1
	lui	a0,%hi(.LC1)
.LVL19:
	addi	a0,a0,%lo(.LC1)
	j	.L10
	.cfi_endproc
.LFE30:
	.size	wifi_mgmr_profile_add, .-wifi_mgmr_profile_add
	.section	.text.wifi_mgmr_profile_add_by_idx,"ax",@progbits
	.align	1
	.globl	wifi_mgmr_profile_add_by_idx
	.type	wifi_mgmr_profile_add_by_idx, @function
wifi_mgmr_profile_add_by_idx:
.LFB31:
	.loc 1 65 1
	.cfi_startproc
.LVL20:
	.loc 1 66 5
	.loc 1 68 5
	.loc 1 70 5
	.loc 1 65 1 is_stmt 0
	addi	sp,sp,-16
	.cfi_def_cfa_offset 16
	sw	s0,8(sp)
	sw	s1,4(sp)
	sw	s2,0(sp)
	sw	ra,12(sp)
	.cfi_offset 8, -8
	.cfi_offset 9, -12
	.cfi_offset 18, -16
	.cfi_offset 1, -4
	.loc 1 70 8
	li	a5,-1
	.loc 1 65 1
	mv	s1,a1
	mv	s2,a3
	.loc 1 72 17
	addi	s0,a0,252
	.loc 1 70 8
	beq	a2,a5,.L13
	.loc 1 73 15
	li	a5,1
	mv	a1,a2
.LVL21:
	.loc 1 73 12 is_stmt 1
	.loc 1 73 15 is_stmt 0
	ble	a2,a5,.L14
.LVL22:
.L18:
	.loc 1 83 16
	li	a0,-1
.L11:
	.loc 1 103 1
	lw	ra,12(sp)
	.cfi_remember_state
	.cfi_restore 1
	lw	s0,8(sp)
	.cfi_restore 8
	lw	s1,4(sp)
	.cfi_restore 9
.LVL23:
	lw	s2,0(sp)
	.cfi_restore 18
	addi	sp,sp,16
	.cfi_def_cfa_offset 0
	jr	ra
.LVL24:
.L14:
	.cfi_restore_state
	.loc 1 74 9 is_stmt 1
	.loc 1 74 17 is_stmt 0
	li	s0,196
	mul	s0,a2,s0
	.loc 1 77 27
	lui	a5,%hi(g_bl_ops_funcs+4)
	lw	a5,%lo(g_bl_ops_funcs+4)(a5)
	.loc 1 74 17
	addi	s0,s0,252
	add	s0,a0,s0
.LVL25:
	.loc 1 75 9 is_stmt 1
	.loc 1 75 12 is_stmt 0
	beq	a3,zero,.L16
	.loc 1 76 13 is_stmt 1
	.loc 1 76 40 is_stmt 0
	sw	a2,644(a0)
	.loc 1 77 13 is_stmt 1
	lui	a0,%hi(.LC0)
.LVL26:
	addi	a0,a0,%lo(.LC0)
.L23:
	.loc 1 79 13 is_stmt 0
	jalr	a5
.LVL27:
	.loc 1 82 5 is_stmt 1
	.loc 1 82 8 is_stmt 0
	beq	s0,zero,.L18
.LVL28:
.L13:
	.loc 1 85 5 is_stmt 1
	li	a2,196
	li	a1,0
	mv	a0,s0
	call	memset
.LVL29:
	.loc 1 86 5
	.loc 1 86 21 is_stmt 0
	li	a5,1
	sb	a5,194(s0)
	.loc 1 87 5 is_stmt 1
	.loc 1 87 23 is_stmt 0
	sb	s2,193(s0)
	.loc 1 88 5 is_stmt 1
	.loc 1 88 36 is_stmt 0
	lbu	a5,34(s1)
	lbu	a4,33(s1)
	.loc 1 95 5
	li	a2,33
	.loc 1 88 36
	slli	a5,a5,8
	or	a5,a5,a4
	.loc 1 88 23
	sh	a5,0(s0)
	.loc 1 89 5 is_stmt 1
	.loc 1 89 39 is_stmt 0
	lbu	a5,168(s1)
	lbu	a4,167(s1)
	.loc 1 95 5
	mv	a1,s1
	.loc 1 89 39
	slli	a5,a5,8
	or	a5,a5,a4
	.loc 1 89 26
	sh	a5,2(s0)
	.loc 1 90 5 is_stmt 1
	.loc 1 90 35 is_stmt 0
	lbu	a5,172(s1)
	lbu	a4,171(s1)
	.loc 1 95 5
	addi	a0,s0,6
	.loc 1 90 35
	slli	a5,a5,8
	or	a5,a5,a4
	.loc 1 90 22
	sh	a5,4(s0)
	.loc 1 91 5 is_stmt 1
	.loc 1 91 32 is_stmt 0
	lbu	a5,181(s1)
	.loc 1 91 19
	sb	a5,175(s0)
	.loc 1 92 5 is_stmt 1
	.loc 1 92 32 is_stmt 0
	lbu	a5,183(s1)
	lbu	a4,182(s1)
	slli	a5,a5,8
	or	a5,a5,a4
	.loc 1 92 19
	sh	a5,176(s0)
	.loc 1 93 5 is_stmt 1
	.loc 1 93 39 is_stmt 0
	lbu	a4,185(s1)
	lbu	a5,184(s1)
	slli	a4,a4,8
	or	a4,a4,a5
	lbu	a5,186(s1)
	slli	a5,a5,16
	or	a4,a5,a4
	lbu	a5,187(s1)
	slli	a5,a5,24
	or	a5,a5,a4
	.loc 1 93 26
	sw	a5,180(s0)
	.loc 1 94 5 is_stmt 1
	.loc 1 94 23 is_stmt 0
	li	a5,-1
	sb	a5,192(s0)
	.loc 1 95 5 is_stmt 1
	call	memcpy
.LVL30:
	.loc 1 96 5
	li	a2,65
	addi	a1,s1,102
	addi	a0,s0,104
	call	memcpy
.LVL31:
	.loc 1 97 5
	li	a2,65
	addi	a1,s1,37
	addi	a0,s0,39
	call	memcpy
.LVL32:
	.loc 1 98 5
	li	a2,6
	addi	a1,s1,175
	addi	a0,s0,169
	call	memcpy
.LVL33:
	.loc 1 99 5
	.loc 1 99 36 is_stmt 0
	lbu	a5,188(s1)
	.loc 1 102 12
	li	a0,0
	.loc 1 99 23
	sb	a5,184(s0)
	.loc 1 100 5 is_stmt 1
	.loc 1 100 33 is_stmt 0
	lbu	a4,190(s1)
	lbu	a5,189(s1)
	slli	a4,a4,8
	or	a4,a4,a5
	lbu	a5,191(s1)
	slli	a5,a5,16
	or	a4,a5,a4
	lbu	a5,192(s1)
	slli	a5,a5,24
	or	a5,a5,a4
	.loc 1 100 20
	sw	a5,188(s0)
	.loc 1 102 5 is_stmt 1
.LVL34:
	.loc 1 102 12 is_stmt 0
	j	.L11
.LVL35:
.L16:
	.loc 1 79 13 is_stmt 1
	lui	a0,%hi(.LC1)
.LVL36:
	addi	a0,a0,%lo(.LC1)
	j	.L23
	.cfi_endproc
.LFE31:
	.size	wifi_mgmr_profile_add_by_idx, .-wifi_mgmr_profile_add_by_idx
	.section	.rodata.wifi_mgmr_profile_del.str1.4,"aMS",@progbits,1
	.align	2
.LC2:
	.string	"[WF][PF] Free profile, idx is @%d\r\n"
	.section	.text.wifi_mgmr_profile_del,"ax",@progbits
	.align	1
	.globl	wifi_mgmr_profile_del
	.type	wifi_mgmr_profile_del, @function
wifi_mgmr_profile_del:
.LFB32:
	.loc 1 106 1
	.cfi_startproc
.LVL37:
	.loc 1 107 5
	.loc 1 108 5
	.loc 1 110 5
	.loc 1 111 5
	.loc 1 111 17
	.loc 1 112 9
	.loc 1 106 1 is_stmt 0
	addi	sp,sp,-16
	.cfi_def_cfa_offset 16
	sw	s0,8(sp)
	sw	s1,4(sp)
	sw	s2,0(sp)
	sw	ra,12(sp)
	.cfi_offset 8, -8
	.cfi_offset 9, -12
	.cfi_offset 18, -16
	.cfi_offset 1, -4
	.loc 1 112 12
	lbu	a4,446(a0)
	li	a5,1
	.loc 1 106 1
	mv	s0,a0
	mv	s2,a1
	mv	s1,a2
	.loc 1 112 12
	bne	a4,a5,.L25
	.loc 1 113 41
	lhu	a5,252(a0)
	.loc 1 112 43
	bne	a2,a5,.L25
	.loc 1 114 22
	addi	a0,a0,258
.LVL38:
	call	memcmp
.LVL39:
	mv	a1,a0
	.loc 1 113 51
	beq	a0,zero,.L30
.L25:
	.loc 1 111 71 is_stmt 1
.LVL40:
	.loc 1 111 17
	.loc 1 112 9
	.loc 1 112 12 is_stmt 0
	lbu	a4,642(s0)
	li	a5,1
	bne	a4,a5,.L27
	.loc 1 113 41 discriminator 1
	lhu	a5,448(s0)
	.loc 1 112 43 discriminator 1
	bne	a5,s1,.L27
	.loc 1 114 22
	mv	a2,s1
	mv	a1,s2
	addi	a0,s0,454
	call	memcmp
.LVL41:
	.loc 1 113 51
	bne	a0,zero,.L27
	.loc 1 111 72
	li	a1,1
	li	a5,196
.LVL42:
.L26:
	.loc 1 115 13 is_stmt 1
	.loc 1 115 21 is_stmt 0
	addi	a5,a5,252
	add	s1,s0,a5
.LVL43:
	.loc 1 116 13 is_stmt 1
	.loc 1 116 16 is_stmt 0
	lw	a5,644(s0)
	bne	a5,a1,.L28
	.loc 1 117 17 is_stmt 1
	.loc 1 117 44 is_stmt 0
	li	a5,-1
	sw	a5,644(s0)
.L28:
	.loc 1 119 13 is_stmt 1
	.loc 1 119 27 is_stmt 0
	lui	a5,%hi(g_bl_ops_funcs+4)
	.loc 1 119 13
	lw	a5,%lo(g_bl_ops_funcs+4)(a5)
	lui	a0,%hi(.LC2)
	addi	a0,a0,%lo(.LC2)
	jalr	a5
.LVL44:
	.loc 1 120 13 is_stmt 1
	.loc 1 123 5
	.loc 1 126 5
	li	a2,196
	li	a1,0
	mv	a0,s1
	call	memset
.LVL45:
	.loc 1 128 5
	.loc 1 128 12 is_stmt 0
	li	a0,0
.LVL46:
.L24:
	.loc 1 129 1
	lw	ra,12(sp)
	.cfi_remember_state
	.cfi_restore 1
	lw	s0,8(sp)
	.cfi_restore 8
.LVL47:
	lw	s1,4(sp)
	.cfi_restore 9
	lw	s2,0(sp)
	.cfi_restore 18
.LVL48:
	addi	sp,sp,16
	.cfi_def_cfa_offset 0
	jr	ra
.LVL49:
.L30:
	.cfi_restore_state
	.loc 1 113 51
	li	a5,0
	j	.L26
.LVL50:
.L27:
	.loc 1 111 71 is_stmt 1
	.loc 1 111 17
	.loc 1 124 16 is_stmt 0
	li	a0,-1
.LVL51:
	j	.L24
	.cfi_endproc
.LFE32:
	.size	wifi_mgmr_profile_del, .-wifi_mgmr_profile_del
	.section	.rodata.wifi_mgmr_profile_set_active_by_idx.str1.4,"aMS",@progbits,1
	.align	2
.LC3:
	.string	"[WF][PF] Set profile isActive = %u, idx is @%d\r\n"
	.section	.text.wifi_mgmr_profile_set_active_by_idx,"ax",@progbits
	.align	1
	.globl	wifi_mgmr_profile_set_active_by_idx
	.type	wifi_mgmr_profile_set_active_by_idx, @function
wifi_mgmr_profile_set_active_by_idx:
.LFB33:
	.loc 1 132 1 is_stmt 1
	.cfi_startproc
.LVL52:
	.loc 1 133 5
	.loc 1 135 5
	.loc 1 132 1 is_stmt 0
	mv	a5,a1
	mv	a1,a2
.LVL53:
	.loc 1 135 8
	li	a2,1
.LVL54:
	bgtu	a5,a2,.L34
	.loc 1 135 50 discriminator 1
	li	a4,196
	mul	a4,a5,a4
	mv	a3,a0
	add	a4,a0,a4
	.loc 1 135 21 discriminator 1
	lbu	a6,446(a4)
	.loc 1 141 16 discriminator 1
	li	a0,-1
.LVL55:
	.loc 1 135 21 discriminator 1
	bne	a6,a2,.L37
	.loc 1 136 9 is_stmt 1
.LVL56:
	.loc 1 137 9
	.loc 1 132 1 is_stmt 0
	addi	sp,sp,-16
	.cfi_def_cfa_offset 16
	sw	ra,12(sp)
	.cfi_offset 1, -4
	.loc 1 137 27
	sb	a1,445(a4)
	.loc 1 138 9 is_stmt 1
	.loc 1 139 23 is_stmt 0
	lui	a4,%hi(g_bl_ops_funcs+4)
	.loc 1 139 9
	lw	a4,%lo(g_bl_ops_funcs+4)(a4)
	lui	a0,%hi(.LC3)
	addi	a0,a0,%lo(.LC3)
	.loc 1 138 36
	sw	a5,644(a3)
	.loc 1 139 9 is_stmt 1
	mv	a2,a5
	jalr	a4
.LVL57:
	.loc 1 144 5
	.loc 1 145 1 is_stmt 0
	lw	ra,12(sp)
	.cfi_restore 1
	.loc 1 144 12
	li	a0,0
	.loc 1 145 1
	addi	sp,sp,16
	.cfi_def_cfa_offset 0
	jr	ra
.LVL58:
.L34:
	.loc 1 141 16
	li	a0,-1
.LVL59:
	ret
.LVL60:
.L37:
	.loc 1 145 1
	ret
	.cfi_endproc
.LFE33:
	.size	wifi_mgmr_profile_set_active_by_idx, .-wifi_mgmr_profile_set_active_by_idx
	.section	.rodata.wifi_mgmr_profile_del_by_idx.str1.4,"aMS",@progbits,1
	.align	2
.LC4:
	.string	"[WF][PF] Free profile by index, idx is @%d\r\n"
	.section	.text.wifi_mgmr_profile_del_by_idx,"ax",@progbits
	.align	1
	.globl	wifi_mgmr_profile_del_by_idx
	.type	wifi_mgmr_profile_del_by_idx, @function
wifi_mgmr_profile_del_by_idx:
.LFB34:
	.loc 1 149 1 is_stmt 1
	.cfi_startproc
.LVL61:
	.loc 1 150 5
	.loc 1 152 5
	.loc 1 153 5
	.loc 1 153 8 is_stmt 0
	li	a3,1
	bgtu	a1,a3,.L43
	.loc 1 153 50 discriminator 1
	li	a5,196
	mul	a5,a1,a5
	mv	a4,a0
	add	a2,a0,a5
	.loc 1 153 21 discriminator 1
	lbu	a2,446(a2)
	.loc 1 161 16 discriminator 1
	li	a0,-1
.LVL62:
	.loc 1 153 21 discriminator 1
	bne	a2,a3,.L46
	.loc 1 154 9 is_stmt 1
	.loc 1 149 1 is_stmt 0
	addi	sp,sp,-16
	.cfi_def_cfa_offset 16
	sw	s0,8(sp)
	.loc 1 154 17
	addi	a5,a5,252
	.loc 1 149 1
	sw	ra,12(sp)
	.cfi_offset 8, -8
	.cfi_offset 1, -4
	.loc 1 154 17
	add	s0,a4,a5
.LVL63:
	.loc 1 155 9 is_stmt 1
	.loc 1 155 12 is_stmt 0
	lw	a5,644(a4)
	bne	a1,a5,.L42
	.loc 1 156 13 is_stmt 1
	.loc 1 156 40 is_stmt 0
	li	a5,-1
	sw	a5,644(a4)
.L42:
	.loc 1 158 9 is_stmt 1
	.loc 1 158 23 is_stmt 0
	lui	a5,%hi(g_bl_ops_funcs+4)
	.loc 1 158 9
	lw	a5,%lo(g_bl_ops_funcs+4)(a5)
	lui	a0,%hi(.LC4)
	addi	a0,a0,%lo(.LC4)
	jalr	a5
.LVL64:
	.loc 1 160 5 is_stmt 1
	.loc 1 163 5
	mv	a0,s0
	li	a2,196
	li	a1,0
	call	memset
.LVL65:
	.loc 1 165 5
	.loc 1 166 1 is_stmt 0
	lw	ra,12(sp)
	.cfi_restore 1
	lw	s0,8(sp)
	.cfi_restore 8
.LVL66:
	.loc 1 165 12
	li	a0,0
	.loc 1 166 1
	addi	sp,sp,16
	.cfi_def_cfa_offset 0
	jr	ra
.LVL67:
.L43:
	.loc 1 161 16
	li	a0,-1
.LVL68:
	ret
.LVL69:
.L46:
	.loc 1 166 1
	ret
	.cfi_endproc
.LFE34:
	.size	wifi_mgmr_profile_del_by_idx, .-wifi_mgmr_profile_del_by_idx
	.section	.rodata.wifi_mgmr_profile_get_by_idx.str1.4,"aMS",@progbits,1
	.align	2
.LC5:
	.string	"[WF][PF] Getting profile by index, idx is @%d\r\n"
	.align	2
.LC6:
	.string	"[WF][PF] Getting profile by index, ret -1\r\n"
	.section	.text.wifi_mgmr_profile_get_by_idx,"ax",@progbits
	.align	1
	.globl	wifi_mgmr_profile_get_by_idx
	.type	wifi_mgmr_profile_get_by_idx, @function
wifi_mgmr_profile_get_by_idx:
.LFB35:
	.loc 1 169 1 is_stmt 1
	.cfi_startproc
.LVL70:
	.loc 1 170 5
	.loc 1 172 5
	.loc 1 173 5
	.loc 1 169 1 is_stmt 0
	addi	sp,sp,-32
	.cfi_def_cfa_offset 32
	.loc 1 175 23
	lui	a5,%hi(g_bl_ops_funcs+4)
	.loc 1 169 1
	sw	ra,28(sp)
	sw	s0,24(sp)
	sw	s1,20(sp)
	sw	s2,16(sp)
	sw	s3,12(sp)
	.cfi_offset 1, -4
	.cfi_offset 8, -8
	.cfi_offset 9, -12
	.cfi_offset 18, -16
	.cfi_offset 19, -20
	.loc 1 173 8
	li	a4,1
	.loc 1 175 23
	lw	a5,%lo(g_bl_ops_funcs+4)(a5)
	.loc 1 173 8
	bgtu	a2,a4,.L50
	.loc 1 173 50 discriminator 1
	li	s1,196
	mul	s1,a2,s1
	mv	s0,a1
	mv	s3,a0
	mv	a1,a2
.LVL71:
	add	s2,a0,s1
	.loc 1 173 21 discriminator 1
	lbu	a3,446(s2)
	bne	a3,a4,.L50
	.loc 1 174 9 is_stmt 1
.LVL72:
	.loc 1 175 9
	lui	a0,%hi(.LC5)
.LVL73:
	addi	a0,a0,%lo(.LC5)
	jalr	a5
.LVL74:
	.loc 1 177 5
	.loc 1 182 5
	li	a2,193
	li	a1,0
	mv	a0,s0
	call	memset
.LVL75:
	.loc 1 183 5
	.loc 1 183 36 is_stmt 0
	lhu	a5,252(s2)
	.loc 1 183 27
	sb	zero,35(s0)
	sb	zero,36(s0)
	.loc 1 184 5 is_stmt 1
	.loc 1 183 27 is_stmt 0
	sb	a5,33(s0)
	srli	a5,a5,8
	sb	a5,34(s0)
	.loc 1 184 35
	lhu	a5,256(s2)
	.loc 1 184 26
	sb	zero,173(s0)
	sb	zero,174(s0)
	.loc 1 185 5 is_stmt 1
	.loc 1 184 26 is_stmt 0
	sb	a5,171(s0)
	srli	a5,a5,8
	sb	a5,172(s0)
	.loc 1 185 39
	lhu	a5,254(s2)
	.loc 1 185 30
	sb	zero,169(s0)
	sb	zero,170(s0)
	.loc 1 186 5 is_stmt 1
	.loc 1 185 30 is_stmt 0
	sb	a5,167(s0)
	srli	a5,a5,8
	sb	a5,168(s0)
	.loc 1 186 32
	lbu	a5,427(s2)
	.loc 1 191 38
	addi	a1,s1,258
	.loc 1 191 5
	li	a2,33
	.loc 1 186 23
	sb	a5,181(s0)
	.loc 1 187 5 is_stmt 1
	.loc 1 187 32 is_stmt 0
	lhu	a5,428(s2)
	.loc 1 191 5
	add	a1,s3,a1
	mv	a0,s0
	.loc 1 187 23
	sb	a5,182(s0)
	srli	a5,a5,8
	sb	a5,183(s0)
	.loc 1 188 5 is_stmt 1
	.loc 1 188 39 is_stmt 0
	lw	a5,432(s2)
	.loc 1 188 30
	srli	a4,a5,8
	sb	a5,184(s0)
	sb	a4,185(s0)
	srli	a4,a5,16
	srli	a5,a5,24
	sb	a4,186(s0)
	sb	a5,187(s0)
	.loc 1 189 5 is_stmt 1
	.loc 1 189 36 is_stmt 0
	lbu	a5,436(s2)
	.loc 1 189 27
	sb	a5,188(s0)
	.loc 1 190 5 is_stmt 1
	.loc 1 190 33 is_stmt 0
	lw	a5,440(s2)
	.loc 1 190 24
	srli	a4,a5,8
	sb	a5,189(s0)
	sb	a4,190(s0)
	srli	a4,a5,16
	srli	a5,a5,24
	sb	a4,191(s0)
	sb	a5,192(s0)
	.loc 1 191 5 is_stmt 1
	call	memcpy
.LVL76:
	.loc 1 192 5
	.loc 1 192 37 is_stmt 0
	addi	a1,s1,356
	.loc 1 192 5
	li	a2,65
	add	a1,s3,a1
	addi	a0,s0,102
	call	memcpy
.LVL77:
	.loc 1 193 5 is_stmt 1
	.loc 1 193 41 is_stmt 0
	addi	a1,s1,291
	.loc 1 193 5
	li	a2,65
	add	a1,s3,a1
	addi	a0,s0,37
	call	memcpy
.LVL78:
	.loc 1 194 5 is_stmt 1
	.loc 1 194 39 is_stmt 0
	addi	a1,s1,421
	.loc 1 194 5
	li	a2,6
	add	a1,s3,a1
	addi	a0,s0,175
	call	memcpy
.LVL79:
	.loc 1 196 5 is_stmt 1
	.loc 1 196 12 is_stmt 0
	li	a0,0
.LVL80:
.L49:
	.loc 1 197 1
	lw	ra,28(sp)
	.cfi_remember_state
	.cfi_restore 1
	lw	s0,24(sp)
	.cfi_restore 8
	lw	s1,20(sp)
	.cfi_restore 9
	lw	s2,16(sp)
	.cfi_restore 18
	lw	s3,12(sp)
	.cfi_restore 19
	addi	sp,sp,32
	.cfi_def_cfa_offset 0
	jr	ra
.LVL81:
.L50:
	.cfi_restore_state
	.loc 1 178 9 is_stmt 1
	lui	a0,%hi(.LC6)
.LVL82:
	addi	a0,a0,%lo(.LC6)
	jalr	a5
.LVL83:
	.loc 1 179 9
	.loc 1 179 16 is_stmt 0
	li	a0,-1
	j	.L49
	.cfi_endproc
.LFE35:
	.size	wifi_mgmr_profile_get_by_idx, .-wifi_mgmr_profile_get_by_idx
	.section	.rodata.wifi_mgmr_profile_get.str1.4,"aMS",@progbits,1
	.align	2
.LC7:
	.string	"[WF][PF] Getting  ret is -1\r\n"
	.align	2
.LC8:
	.string	"[WF][PF] Getting profile, idx is @%d\r\n"
	.section	.text.wifi_mgmr_profile_get,"ax",@progbits
	.align	1
	.globl	wifi_mgmr_profile_get
	.type	wifi_mgmr_profile_get, @function
wifi_mgmr_profile_get:
.LFB36:
	.loc 1 200 1 is_stmt 1
	.cfi_startproc
.LVL84:
	.loc 1 201 5
	.loc 1 202 5
	.loc 1 204 5
	.loc 1 205 5
	.loc 1 205 17
	.loc 1 206 9
	.loc 1 200 1 is_stmt 0
	addi	sp,sp,-16
	.cfi_def_cfa_offset 16
	sw	s0,8(sp)
	sw	s2,0(sp)
	sw	ra,12(sp)
	sw	s1,4(sp)
	.cfi_offset 8, -8
	.cfi_offset 18, -16
	.cfi_offset 1, -4
	.cfi_offset 9, -12
	.loc 1 206 12
	lbu	a3,446(a0)
	lui	a5,%hi(g_bl_ops_funcs)
	li	a4,1
	.loc 1 200 1
	mv	s2,a0
	mv	s0,a1
	addi	a5,a5,%lo(g_bl_ops_funcs)
	.loc 1 206 12
	bne	a3,a4,.L54
	.loc 1 206 43
	lbu	a4,445(a0)
	beq	a4,a2,.L58
.L54:
	.loc 1 205 71 is_stmt 1
.LVL85:
	.loc 1 205 17
	.loc 1 206 9
	.loc 1 206 12 is_stmt 0
	lbu	a3,642(s2)
	li	a4,1
	bne	a3,a4,.L56
	.loc 1 206 43
	lbu	a4,641(s2)
	beq	a4,a2,.L59
.L56:
	.loc 1 205 71 is_stmt 1
.LVL86:
	.loc 1 205 17
	.loc 1 212 5
	.loc 1 213 9
	lw	a5,4(a5)
	lui	a0,%hi(.LC7)
.LVL87:
	addi	a0,a0,%lo(.LC7)
	jalr	a5
.LVL88:
	.loc 1 214 9
	.loc 1 214 16 is_stmt 0
	li	a0,-1
.LVL89:
.L53:
	.loc 1 232 1
	lw	ra,12(sp)
	.cfi_remember_state
	.cfi_restore 1
	lw	s0,8(sp)
	.cfi_restore 8
.LVL90:
	lw	s1,4(sp)
	.cfi_restore 9
	lw	s2,0(sp)
	.cfi_restore 18
.LVL91:
	addi	sp,sp,16
	.cfi_def_cfa_offset 0
	jr	ra
.LVL92:
.L58:
	.cfi_restore_state
	.loc 1 205 12
	li	s1,0
.LVL93:
.L55:
	.loc 1 207 13 is_stmt 1
	.loc 1 208 13
	lw	a5,4(a5)
	lui	a0,%hi(.LC8)
.LVL94:
	mv	a1,s1
	addi	a0,a0,%lo(.LC8)
	jalr	a5
.LVL95:
	.loc 1 209 13
	.loc 1 212 5
	.loc 1 217 5
	li	a2,193
	li	a1,0
	mv	a0,s0
	call	memset
.LVL96:
	.loc 1 218 5
	.loc 1 218 36 is_stmt 0
	li	a1,196
	mul	s1,s1,a1
.LVL97:
	.loc 1 226 5
	li	a2,33
	mv	a0,s0
	.loc 1 218 36
	add	a5,s2,s1
	lhu	a4,252(a5)
	.loc 1 218 27
	sb	zero,35(s0)
	sb	zero,36(s0)
	.loc 1 219 5 is_stmt 1
	.loc 1 218 27 is_stmt 0
	sb	a4,33(s0)
	srli	a4,a4,8
	sb	a4,34(s0)
	.loc 1 219 35
	lhu	a4,256(a5)
	.loc 1 219 26
	sb	zero,173(s0)
	sb	zero,174(s0)
	.loc 1 220 5 is_stmt 1
	.loc 1 219 26 is_stmt 0
	sb	a4,171(s0)
	srli	a4,a4,8
	sb	a4,172(s0)
	.loc 1 220 39
	lhu	a4,254(a5)
	.loc 1 220 30
	sb	zero,169(s0)
	sb	zero,170(s0)
	.loc 1 221 5 is_stmt 1
	.loc 1 220 30 is_stmt 0
	sb	a4,167(s0)
	srli	a4,a4,8
	sb	a4,168(s0)
	.loc 1 221 32
	lbu	a4,427(a5)
	.loc 1 226 38
	addi	a1,s1,258
	.loc 1 226 5
	add	a1,s2,a1
	.loc 1 221 23
	sb	a4,181(s0)
	.loc 1 222 5 is_stmt 1
	.loc 1 222 32 is_stmt 0
	lhu	a4,428(a5)
	.loc 1 222 23
	sb	a4,182(s0)
	srli	a4,a4,8
	sb	a4,183(s0)
	.loc 1 223 5 is_stmt 1
	.loc 1 223 39 is_stmt 0
	lw	a4,432(a5)
	.loc 1 223 30
	srli	a3,a4,8
	sb	a4,184(s0)
	sb	a3,185(s0)
	srli	a3,a4,16
	srli	a4,a4,24
	sb	a3,186(s0)
	sb	a4,187(s0)
	.loc 1 224 5 is_stmt 1
	.loc 1 224 36 is_stmt 0
	lbu	a4,436(a5)
	.loc 1 224 27
	sb	a4,188(s0)
	.loc 1 225 5 is_stmt 1
	.loc 1 225 33 is_stmt 0
	lw	a5,440(a5)
	.loc 1 225 24
	srli	a4,a5,8
	sb	a5,189(s0)
	sb	a4,190(s0)
	srli	a4,a5,16
	srli	a5,a5,24
	sb	a4,191(s0)
	sb	a5,192(s0)
	.loc 1 226 5 is_stmt 1
	call	memcpy
.LVL98:
	.loc 1 227 5
	.loc 1 227 37 is_stmt 0
	addi	a1,s1,356
	.loc 1 227 5
	li	a2,65
	add	a1,s2,a1
	addi	a0,s0,102
	call	memcpy
.LVL99:
	.loc 1 228 5 is_stmt 1
	.loc 1 228 41 is_stmt 0
	addi	a1,s1,291
	.loc 1 228 5
	li	a2,65
	add	a1,s2,a1
	addi	a0,s0,37
	call	memcpy
.LVL100:
	.loc 1 229 5 is_stmt 1
	.loc 1 229 39 is_stmt 0
	addi	a1,s1,421
	.loc 1 229 5
	li	a2,6
	add	a1,s2,a1
	addi	a0,s0,175
	call	memcpy
.LVL101:
	.loc 1 231 5 is_stmt 1
	.loc 1 231 12 is_stmt 0
	li	a0,1
	j	.L53
.LVL102:
.L59:
	.loc 1 205 72
	li	s1,1
	j	.L55
	.cfi_endproc
.LFE36:
	.size	wifi_mgmr_profile_get, .-wifi_mgmr_profile_get
	.section	.text.__lookup_profile,"ax",@progbits
	.align	1
	.globl	__lookup_profile
	.type	__lookup_profile, @function
__lookup_profile:
.LFB37:
	.loc 1 235 1 is_stmt 1
	.cfi_startproc
.LVL103:
	.loc 1 236 5
	.loc 1 238 5
	.loc 1 238 8 is_stmt 0
	li	a4,-1
	.loc 1 235 1
	mv	a5,a0
	.loc 1 238 8
	bne	a1,a4,.L62
	.loc 1 240 9 is_stmt 1
	.loc 1 240 17 is_stmt 0
	addi	a0,a0,252
.LVL104:
	ret
.LVL105:
.L62:
	.loc 1 242 9 is_stmt 1
	.loc 1 242 12 is_stmt 0
	li	a4,1
	.loc 1 236 26
	li	a0,0
.LVL106:
	.loc 1 242 12
	bgtu	a1,a4,.L61
	.loc 1 243 13 is_stmt 1
	.loc 1 243 21 is_stmt 0
	li	a0,196
	mul	a1,a1,a0
.LVL107:
	addi	a1,a1,252
	add	a0,a5,a1
.LVL108:
.L61:
	.loc 1 247 1
	ret
	.cfi_endproc
.LFE37:
	.size	__lookup_profile, .-__lookup_profile
	.section	.text.wifi_mgmr_profile_autoreconnect_is_enabled,"ax",@progbits
	.align	1
	.globl	wifi_mgmr_profile_autoreconnect_is_enabled
	.type	wifi_mgmr_profile_autoreconnect_is_enabled, @function
wifi_mgmr_profile_autoreconnect_is_enabled:
.LFB38:
	.loc 1 250 1 is_stmt 1
	.cfi_startproc
.LVL109:
	.loc 1 261 5
	.loc 1 261 16 is_stmt 0
	li	a5,4096
	add	a0,a0,a5
.LVL110:
	.loc 1 261 44
	lbu	a0,364(a0)
.LVL111:
	.loc 1 263 1
	seqz	a0,a0
	ret
	.cfi_endproc
.LFE38:
	.size	wifi_mgmr_profile_autoreconnect_is_enabled, .-wifi_mgmr_profile_autoreconnect_is_enabled
	.section	.text.wifi_mgmr_profile_autoreconnect_disable,"ax",@progbits
	.align	1
	.globl	wifi_mgmr_profile_autoreconnect_disable
	.type	wifi_mgmr_profile_autoreconnect_disable, @function
wifi_mgmr_profile_autoreconnect_disable:
.LFB39:
	.loc 1 266 1 is_stmt 1
	.cfi_startproc
.LVL112:
	.loc 1 277 5
	.loc 1 277 33 is_stmt 0
	li	a5,4096
	add	a0,a0,a5
.LVL113:
	li	a5,1
	sb	a5,364(a0)
	.loc 1 279 5 is_stmt 1
	.loc 1 281 1 is_stmt 0
	li	a0,0
.LVL114:
	ret
	.cfi_endproc
.LFE39:
	.size	wifi_mgmr_profile_autoreconnect_disable, .-wifi_mgmr_profile_autoreconnect_disable
	.section	.text.wifi_mgmr_profile_autoreconnect_enable,"ax",@progbits
	.align	1
	.globl	wifi_mgmr_profile_autoreconnect_enable
	.type	wifi_mgmr_profile_autoreconnect_enable, @function
wifi_mgmr_profile_autoreconnect_enable:
.LFB40:
	.loc 1 284 1 is_stmt 1
	.cfi_startproc
.LVL115:
	.loc 1 296 5
	.loc 1 296 33 is_stmt 0
	li	a5,4096
	add	a0,a0,a5
.LVL116:
	sb	zero,364(a0)
	.loc 1 298 5 is_stmt 1
	.loc 1 300 1 is_stmt 0
	li	a0,0
.LVL117:
	ret
	.cfi_endproc
.LFE40:
	.size	wifi_mgmr_profile_autoreconnect_enable, .-wifi_mgmr_profile_autoreconnect_enable
	.text
.Letext0:
	.file 2 "/mnt/d/GitHub/bl_iot_sdk_for_aithinker/toolchain/riscv/Linux/lib/gcc/riscv64-unknown-elf/10.2.0/include/stddef.h"
	.file 3 "/mnt/d/GitHub/bl_iot_sdk_for_aithinker/toolchain/riscv/Linux/lib/gcc/riscv64-unknown-elf/10.2.0/include/stdint-gcc.h"
	.file 4 "/mnt/d/GitHub/bl_iot_sdk_for_aithinker/components/network/lwip/src/include/lwip/arch.h"
	.file 5 "/mnt/d/GitHub/bl_iot_sdk_for_aithinker/components/network/lwip/src/include/lwip/err.h"
	.file 6 "/mnt/d/GitHub/bl_iot_sdk_for_aithinker/components/network/lwip/src/include/lwip/ip4_addr.h"
	.file 7 "/mnt/d/GitHub/bl_iot_sdk_for_aithinker/components/network/lwip/src/include/lwip/ip_addr.h"
	.file 8 "/mnt/d/GitHub/bl_iot_sdk_for_aithinker/components/network/lwip/src/include/lwip/pbuf.h"
	.file 9 "/mnt/d/GitHub/bl_iot_sdk_for_aithinker/components/network/lwip/src/include/lwip/netif.h"
	.file 10 "/mnt/d/GitHub/bl_iot_sdk_for_aithinker/components/network/wifi_manager/bl60x_wifi_driver/stateMachine.h"
	.file 11 "/mnt/d/GitHub/bl_iot_sdk_for_aithinker/components/os/bl_os_adapter/bl_os_adapter/include/bl_os_adapter/bl_os_type.h"
	.file 12 "/mnt/d/GitHub/bl_iot_sdk_for_aithinker/components/os/bl_os_adapter/bl_os_adapter/include/bl_os_adapter/bl_os_adapter.h"
	.file 13 "/mnt/d/GitHub/bl_iot_sdk_for_aithinker/components/network/wifi_manager/bl60x_wifi_driver/wifi_mgmr.h"
	.file 14 "/mnt/d/GitHub/bl_iot_sdk_for_aithinker/toolchain/riscv/Linux/riscv64-unknown-elf/include/string.h"