	.file	"wifi_mgmr_api.c"
	.option nopic
	.attribute arch, "rv32i2p0_m2p0_f2p0_c2p0"
	.attribute unaligned_access, 0
	.attribute stack_align, 16
	.text
.Ltext0:
	.cfi_sections	.debug_frame
	.section	.text.wifi_mgmr_api_common,"ax",@progbits
	.align	1
	.globl	wifi_mgmr_api_common
	.type	wifi_mgmr_api_common, @function
wifi_mgmr_api_common:
.LFB58:
	.file 1 "/mnt/d/GitHub/bl_iot_sdk_for_aithinker/components/network/wifi_manager/bl60x_wifi_driver/wifi_mgmr_api.c"
	.loc 1 11 1
	.cfi_startproc
.LVL0:
	.loc 1 12 5
	.loc 1 11 1 is_stmt 0
	addi	sp,sp,-16
	.cfi_def_cfa_offset 16
	sw	ra,12(sp)
	.cfi_offset 1, -4
	.loc 1 12 13
	srli	a6,a1,8
	sb	a1,0(a0)
	sb	a6,1(a0)
	srli	a6,a1,16
	srli	a1,a1,24
.LVL1:
	sb	a1,3(a0)
	.loc 1 13 5 is_stmt 1
	.loc 1 13 16 is_stmt 0
	srli	a1,a2,8
	sb	a2,4(a0)
	sb	a1,5(a0)
	srli	a1,a2,16
	srli	a2,a2,24
.LVL2:
	sb	a2,7(a0)
	.loc 1 14 5 is_stmt 1
	.loc 1 14 16 is_stmt 0
	srli	a2,a3,8
	sb	a3,8(a0)
	sb	a2,9(a0)
	srli	a2,a3,16
	srli	a3,a3,24
.LVL3:
	sb	a3,11(a0)
	.loc 1 15 5 is_stmt 1
	.loc 1 15 14 is_stmt 0
	srli	a3,a4,8
	sb	a4,12(a0)
	sb	a3,13(a0)
	srli	a3,a4,16
	srli	a4,a4,24
.LVL4:
	.loc 1 13 16
	sb	a1,6(a0)
	.loc 1 12 13
	sb	a6,2(a0)
	.loc 1 14 16
	sb	a2,10(a0)
	.loc 1 15 14
	sb	a3,14(a0)
	sb	a4,15(a0)
	.loc 1 17 5 is_stmt 1
	li	a1,1
	call	wifi_mgmr_event_notify
.LVL5:
	.loc 1 19 5
	.loc 1 20 1 is_stmt 0
	lw	ra,12(sp)
	.cfi_restore 1
	li	a0,0
	addi	sp,sp,16
	.cfi_def_cfa_offset 0
	jr	ra
	.cfi_endproc
.LFE58:
	.size	wifi_mgmr_api_common, .-wifi_mgmr_api_common
	.section	.text.wifi_mgmr_api_common_msg,"ax",@progbits
	.align	1
	.globl	wifi_mgmr_api_common_msg
	.type	wifi_mgmr_api_common_msg, @function
wifi_mgmr_api_common_msg:
.LFB59:
	.loc 1 23 1 is_stmt 1
	.cfi_startproc
.LVL6:
	.loc 1 24 5
	.loc 1 26 5
	.loc 1 23 1 is_stmt 0
	addi	sp,sp,-32
	.cfi_def_cfa_offset 32
	.loc 1 26 12
	sw	a0,0(sp)
	.loc 1 27 5 is_stmt 1
	.loc 1 27 15 is_stmt 0
	sw	a1,4(sp)
	.loc 1 28 5 is_stmt 1
	.loc 1 29 13 is_stmt 0
	li	a5,16
	.loc 1 31 5
	mv	a0,sp
.LVL7:
	li	a1,1
.LVL8:
	.loc 1 23 1
	sw	ra,28(sp)
	.cfi_offset 1, -4
	.loc 1 28 15
	sw	a2,8(sp)
	.loc 1 29 5 is_stmt 1
	.loc 1 29 13 is_stmt 0
	sw	a5,12(sp)
	.loc 1 31 5 is_stmt 1
	call	wifi_mgmr_event_notify
.LVL9:
	.loc 1 33 5
	.loc 1 34 1 is_stmt 0
	lw	ra,28(sp)
	.cfi_restore 1
	li	a0,0
	addi	sp,sp,32
	.cfi_def_cfa_offset 0
	jr	ra
	.cfi_endproc
.LFE59:
	.size	wifi_mgmr_api_common_msg, .-wifi_mgmr_api_common_msg
	.section	.text.wifi_mgmr_api_try_to_wakeup,"ax",@progbits
	.align	1
	.globl	wifi_mgmr_api_try_to_wakeup
	.type	wifi_mgmr_api_try_to_wakeup, @function
wifi_mgmr_api_try_to_wakeup:
.LFB60:
	.loc 1 37 1 is_stmt 1
	.cfi_startproc
.LVL10:
	.loc 1 38 5
	.loc 1 40 5
	.loc 1 37 1 is_stmt 0
	addi	sp,sp,-32
	.cfi_def_cfa_offset 32
	.loc 1 40 12
	sw	a0,0(sp)
	.loc 1 41 5 is_stmt 1
	.loc 1 41 15 is_stmt 0
	sw	a1,4(sp)
	.loc 1 42 5 is_stmt 1
	.loc 1 43 13 is_stmt 0
	li	a5,16
	.loc 1 45 5
	mv	a0,sp
.LVL11:
	li	a1,0
.LVL12:
	.loc 1 37 1
	sw	ra,28(sp)
	.cfi_offset 1, -4
	.loc 1 42 15
	sw	a2,8(sp)
	.loc 1 43 5 is_stmt 1
	.loc 1 43 13 is_stmt 0
	sw	a5,12(sp)
	.loc 1 45 5 is_stmt 1
	call	wifi_mgmr_event_notify
.LVL13:
	.loc 1 47 5
	.loc 1 48 1 is_stmt 0
	lw	ra,28(sp)
	.cfi_restore 1
	li	a0,0
	addi	sp,sp,32
	.cfi_def_cfa_offset 0
	jr	ra
	.cfi_endproc
.LFE60:
	.size	wifi_mgmr_api_try_to_wakeup, .-wifi_mgmr_api_try_to_wakeup
	.section	.rodata.wifi_mgmr_api_connect.str1.4,"aMS",@progbits,1
	.align	2
.LC0:
	.string	"wifi mgmr band:%d freq: %d\r\n"
	.align	2
.LC1:
	.string	"invalid ap info type or time_to_live value!\r\n"
	.section	.text.wifi_mgmr_api_connect,"ax",@progbits
	.align	1
	.globl	wifi_mgmr_api_connect
	.type	wifi_mgmr_api_connect, @function
wifi_mgmr_api_connect:
.LFB61:
	.loc 1 51 1 is_stmt 1
	.cfi_startproc
.LVL14:
	.loc 1 52 5
	.loc 1 53 5
	.loc 1 54 5
	.loc 1 56 5
	.loc 1 51 1 is_stmt 0
	addi	sp,sp,-240
	.cfi_def_cfa_offset 240
	sw	s0,232(sp)
	sw	s1,228(sp)
	sw	s2,224(sp)
	.cfi_offset 8, -8
	.cfi_offset 9, -12
	.cfi_offset 18, -16
	mv	s1,a1
	mv	s2,a0
	.loc 1 56 5
	li	a1,0
.LVL15:
	.loc 1 51 1
	mv	s0,a2
	.loc 1 56 5
	addi	a0,sp,12
.LVL16:
	li	a2,209
.LVL17:
	.loc 1 51 1
	sw	ra,236(sp)
	.cfi_offset 1, -4
	.loc 1 56 5
	call	memset
.LVL18:
	.loc 1 57 5 is_stmt 1
	.loc 1 59 5
	.loc 1 61 5
	.loc 1 61 25 is_stmt 0
	mv	a0,s2
	call	strlen
.LVL19:
	.loc 1 61 23
	srli	a5,a0,8
	sb	a5,62(sp)
	srli	a5,a0,16
	.loc 1 61 25
	mv	a2,a0
	.loc 1 61 23
	sb	a0,61(sp)
	sb	a5,63(sp)
	.loc 1 62 5
	mv	a1,s2
	.loc 1 61 23
	srli	a5,a0,24
	.loc 1 62 5
	addi	a0,sp,28
.LVL20:
	.loc 1 61 23
	sb	a5,64(sp)
	.loc 1 62 5 is_stmt 1
	call	memcpy
.LVL21:
	.loc 1 63 5
	.loc 1 63 27 is_stmt 0
	sb	zero,60(sp)
	.loc 1 65 5 is_stmt 1
	.loc 1 65 54 is_stmt 0
	bne	s1,zero,.L8
	.loc 1 65 26
	sb	zero,195(sp)
	sb	zero,196(sp)
	sb	zero,197(sp)
	sb	zero,198(sp)
	.loc 1 66 5 is_stmt 1
	.loc 1 68 12
.L9:
	.loc 1 71 5
	.loc 1 71 30 is_stmt 0
	sb	zero,129(sp)
	.loc 1 73 5 is_stmt 1
	.loc 1 73 8 is_stmt 0
	beq	s0,zero,.L12
	.loc 1 74 7 is_stmt 1
	.loc 1 74 35 is_stmt 0
	lw	a0,0(s0)
	.loc 1 74 66
	bne	a0,zero,.L13
	.loc 1 74 24
	sb	zero,199(sp)
	sb	zero,200(sp)
	sb	zero,201(sp)
	sb	zero,202(sp)
	.loc 1 75 7 is_stmt 1
.L14:
	.loc 1 80 7
	.loc 1 82 29 is_stmt 0
	lw	a1,12(s0)
	.loc 1 80 28
	sb	zero,194(sp)
	.loc 1 82 7 is_stmt 1
	.loc 1 82 10 is_stmt 0
	beq	a1,zero,.L17
	.loc 1 83 11 is_stmt 1
	li	a2,6
	addi	a0,sp,203
	call	memcpy
.LVL22:
.L17:
	.loc 1 86 7
	.loc 1 86 29 is_stmt 0
	lhu	a2,18(s0)
	.loc 1 86 10
	beq	a2,zero,.L18
	.loc 1 88 11 is_stmt 1
	.loc 1 88 45 is_stmt 0
	lbu	a1,16(s0)
	.loc 1 90 25
	lui	a5,%hi(g_bl_ops_funcs+4)
	.loc 1 90 11
	lw	a5,%lo(g_bl_ops_funcs+4)(a5)
	lui	a0,%hi(.LC0)
	.loc 1 88 25
	sb	a1,209(sp)
	.loc 1 89 11 is_stmt 1
	.loc 1 89 25 is_stmt 0
	sh	a2,210(sp)
	.loc 1 90 11 is_stmt 1
	addi	a0,a0,%lo(.LC0)
	jalr	a5
.LVL23:
.L18:
	.loc 1 93 7
	.loc 1 93 10 is_stmt 0
	lw	a4,4(s0)
	li	a5,1
	bne	a4,a5,.L19
	.loc 1 94 9 is_stmt 1
	.loc 1 94 30 is_stmt 0
	li	a5,-1
.L38:
	.loc 1 96 9 is_stmt 1
	.loc 1 96 30 is_stmt 0
	sw	a5,212(sp)
.L12:
	.loc 1 103 5 is_stmt 1
	.loc 1 103 23 is_stmt 0
	lbu	a5,20(s0)
.LBB10:
.LBB11:
	.loc 1 17 5
	li	a1,1
	addi	a0,sp,12
.LVL24:
.LBE11:
.LBE10:
	.loc 1 103 23
	sb	a5,216(sp)
	.loc 1 104 5 is_stmt 1
	.loc 1 104 20 is_stmt 0
	lw	a5,24(s0)
	srli	a4,a5,8
	sb	a5,217(sp)
	sb	a4,218(sp)
	srli	a4,a5,16
	srli	a5,a5,24
	sb	a5,220(sp)
	.loc 1 106 5 is_stmt 1
.LVL25:
.LBB14:
.LBB12:
	.loc 1 12 5
	.loc 1 12 13 is_stmt 0
	li	a5,1
	sw	a5,12(sp)
	.loc 1 13 5 is_stmt 1
	.loc 1 13 16 is_stmt 0
	sw	a5,16(sp)
	.loc 1 14 5 is_stmt 1
	.loc 1 14 16 is_stmt 0
	li	a5,2
	sw	a5,20(sp)
	.loc 1 15 5 is_stmt 1
	.loc 1 15 14 is_stmt 0
	li	a5,209
.LBE12:
.LBE14:
	.loc 1 104 20
	sb	a4,219(sp)
.LBB15:
.LBB13:
	.loc 1 15 14
	sw	a5,24(sp)
	.loc 1 17 5 is_stmt 1
	call	wifi_mgmr_event_notify
.LVL26:
	.loc 1 19 5
.LBE13:
.LBE15:
	.loc 1 106 12 is_stmt 0
	li	a0,0
	j	.L7
.L8:
	.loc 1 65 38 discriminator 1
	mv	a0,s1
	call	strlen
.LVL27:
	.loc 1 65 26 discriminator 1
	srli	a5,a0,8
	sb	a5,196(sp)
	srli	a5,a0,16
	sb	a5,197(sp)
	srli	a5,a0,24
	sb	a5,198(sp)
	.loc 1 66 5 is_stmt 1 discriminator 1
	.loc 1 65 26 is_stmt 0 discriminator 1
	sb	a0,195(sp)
	.loc 1 66 8 discriminator 1
	li	a5,64
	.loc 1 65 38 discriminator 1
	mv	a2,a0
	.loc 1 66 8 discriminator 1
	bleu	a0,a5,.L10
.L15:
	.loc 1 67 16
	li	a0,-1
.L7:
	.loc 1 113 1
	lw	ra,236(sp)
	.cfi_remember_state
	.cfi_restore 1
	lw	s0,232(sp)
	.cfi_restore 8
.LVL28:
	lw	s1,228(sp)
	.cfi_restore 9
.LVL29:
	lw	s2,224(sp)
	.cfi_restore 18
.LVL30:
	addi	sp,sp,240
	.cfi_def_cfa_offset 0
.LVL31:
	jr	ra
.LVL32:
.L10:
	.cfi_restore_state
	.loc 1 68 12 is_stmt 1
	.loc 1 68 15 is_stmt 0
	beq	a0,zero,.L9
	.loc 1 69 9 is_stmt 1
	mv	a1,s1
	addi	a0,sp,65
	call	memcpy
.LVL33:
	j	.L9
.L13:
	.loc 1 74 43 is_stmt 0 discriminator 1
	call	strlen
.LVL34:
	.loc 1 74 24 discriminator 1
	srli	a5,a0,8
	sb	a5,200(sp)
	srli	a5,a0,16
	sb	a5,201(sp)
	srli	a5,a0,24
	sb	a0,199(sp)
	sb	a5,202(sp)
	.loc 1 75 7 is_stmt 1 discriminator 1
	.loc 1 75 10 is_stmt 0 discriminator 1
	beq	a0,zero,.L14
	.loc 1 75 33 discriminator 1
	li	a5,64
	bne	a0,a5,.L15
	.loc 1 77 14 is_stmt 1
	.loc 1 78 11
	lw	a1,0(s0)
	li	a2,64
	addi	a0,sp,130
	call	memcpy
.LVL35:
	j	.L14
.L19:
	.loc 1 95 14
	.loc 1 95 36 is_stmt 0
	lw	a5,8(s0)
	.loc 1 95 17
	bge	a5,zero,.L38
	.loc 1 98 9 is_stmt 1
	.loc 1 98 30 is_stmt 0
	li	a5,-1
	sw	a5,212(sp)
	.loc 1 99 9 is_stmt 1
	.loc 1 99 23 is_stmt 0
	lui	a5,%hi(g_bl_ops_funcs+4)
	.loc 1 99 9
	lw	a5,%lo(g_bl_ops_funcs+4)(a5)
	lui	a0,%hi(.LC1)
	addi	a0,a0,%lo(.LC1)
	jalr	a5
.LVL36:
	j	.L12
	.cfi_endproc
.LFE61:
	.size	wifi_mgmr_api_connect, .-wifi_mgmr_api_connect
	.section	.text.wifi_mgmr_api_cfg_req,"ax",@progbits
	.align	1
	.globl	wifi_mgmr_api_cfg_req
	.type	wifi_mgmr_api_cfg_req, @function
wifi_mgmr_api_cfg_req:
.LFB62:
	.loc 1 116 1 is_stmt 1
	.cfi_startproc
.LVL37:
	.loc 1 118 5
	.loc 1 119 5
	.loc 1 120 5
	.loc 1 122 5
	.loc 1 116 1 is_stmt 0
	addi	sp,sp,-112
	.cfi_def_cfa_offset 112
	sw	s1,100(sp)
	sw	ra,108(sp)
	.cfi_offset 9, -12
	.cfi_offset 1, -4
	mv	s1,a5
	sw	s0,104(sp)
	sw	s2,96(sp)
	sw	s3,92(sp)
	sw	s4,88(sp)
	sw	s5,84(sp)
	.cfi_offset 8, -8
	.cfi_offset 18, -16
	.cfi_offset 19, -20
	.cfi_offset 20, -24
	.cfi_offset 21, -28
	.loc 1 122 8
	li	a5,32
.LVL38:
	bgtu	a4,a5,.L42
	mv	s5,a0
	mv	s4,a1
	mv	s3,a2
	mv	s2,a3
	mv	s0,a4
	.loc 1 126 5 is_stmt 1
	li	a2,68
.LVL39:
	li	a1,0
.LVL40:
	addi	a0,sp,12
.LVL41:
	call	memset
.LVL42:
	.loc 1 127 5
	.loc 1 129 5
	.loc 1 130 5
	.loc 1 130 18 is_stmt 0
	sw	s5,28(sp)
	.loc 1 131 5 is_stmt 1
	.loc 1 131 19 is_stmt 0
	sw	s4,32(sp)
	.loc 1 132 5 is_stmt 1
	.loc 1 132 22 is_stmt 0
	sw	s3,36(sp)
	.loc 1 133 5 is_stmt 1
	.loc 1 133 19 is_stmt 0
	sw	s2,40(sp)
	.loc 1 134 5 is_stmt 1
	.loc 1 134 21 is_stmt 0
	sw	s0,44(sp)
	.loc 1 135 5 is_stmt 1
	.loc 1 135 8 is_stmt 0
	beq	s0,zero,.L41
	.loc 1 136 9 is_stmt 1
	mv	a2,s0
	mv	a1,s1
	addi	a0,sp,48
	call	memcpy
.LVL43:
.L41:
	.loc 1 139 5
.LBB16:
.LBB17:
	.loc 1 12 5
	.loc 1 12 13 is_stmt 0
	li	a5,22
	sw	a5,12(sp)
	.loc 1 13 5 is_stmt 1
	.loc 1 13 16 is_stmt 0
	li	a5,1
	sw	a5,16(sp)
	.loc 1 14 5 is_stmt 1
.LBE17:
.LBE16:
	.loc 1 139 12 is_stmt 0
	addi	s0,s0,36
.LVL44:
.LBB19:
.LBB18:
	.loc 1 14 16
	li	a5,2
	.loc 1 17 5
	li	a1,1
	addi	a0,sp,12
.LVL45:
	.loc 1 14 16
	sw	a5,20(sp)
	.loc 1 15 5 is_stmt 1
	.loc 1 15 14 is_stmt 0
	sw	s0,24(sp)
	.loc 1 17 5 is_stmt 1
	call	wifi_mgmr_event_notify
.LVL46:
	.loc 1 19 5
.LBE18:
.LBE19:
	.loc 1 139 12 is_stmt 0
	li	a0,0
.LVL47:
.L39:
	.loc 1 146 1
	lw	ra,108(sp)
	.cfi_remember_state
	.cfi_restore 1
	lw	s0,104(sp)
	.cfi_restore 8
	lw	s1,100(sp)
	.cfi_restore 9
.LVL48:
	lw	s2,96(sp)
	.cfi_restore 18
	lw	s3,92(sp)
	.cfi_restore 19
	lw	s4,88(sp)
	.cfi_restore 20
	lw	s5,84(sp)
	.cfi_restore 21
	addi	sp,sp,112
	.cfi_def_cfa_offset 0
	jr	ra
.LVL49:
.L42:
	.cfi_restore_state
	.loc 1 123 16
	li	a0,-1
.LVL50:
	j	.L39
	.cfi_endproc
.LFE62:
	.size	wifi_mgmr_api_cfg_req, .-wifi_mgmr_api_cfg_req
	.section	.text.wifi_mgmr_api_ip_got,"ax",@progbits
	.align	1
	.globl	wifi_mgmr_api_ip_got
	.type	wifi_mgmr_api_ip_got, @function
wifi_mgmr_api_ip_got:
.LFB63:
	.loc 1 149 1 is_stmt 1
	.cfi_startproc
	.loc 1 150 5
	.loc 1 149 1 is_stmt 0
	addi	sp,sp,-16
	.cfi_def_cfa_offset 16
	.loc 1 150 5
	li	a0,4
	.loc 1 149 1
	sw	ra,12(sp)
	.cfi_offset 1, -4
	.loc 1 150 5
	call	wifi_mgmr_pending_task_set
.LVL51:
	.loc 1 151 5 is_stmt 1
	.loc 1 152 1 is_stmt 0
	lw	ra,12(sp)
	.cfi_restore 1
	.loc 1 151 12
	li	a2,2
	.loc 1 152 1
	.loc 1 151 12
	li	a1,1
	li	a0,31
	.loc 1 152 1
	addi	sp,sp,16
	.cfi_def_cfa_offset 0
	.loc 1 151 12
	tail	wifi_mgmr_api_try_to_wakeup
.LVL52:
	.cfi_endproc
.LFE63:
	.size	wifi_mgmr_api_ip_got, .-wifi_mgmr_api_ip_got
	.section	.text.wifi_mgmr_api_ip_update,"ax",@progbits
	.align	1
	.globl	wifi_mgmr_api_ip_update
	.type	wifi_mgmr_api_ip_update, @function
wifi_mgmr_api_ip_update:
.LFB64:
	.loc 1 155 1 is_stmt 1
	.cfi_startproc
	.loc 1 156 5
	.loc 1 155 1 is_stmt 0
	addi	sp,sp,-16
	.cfi_def_cfa_offset 16
	.loc 1 156 5
	li	a0,2
	.loc 1 155 1
	sw	ra,12(sp)
	.cfi_offset 1, -4
	.loc 1 156 5
	call	wifi_mgmr_pending_task_set
.LVL53:
	.loc 1 157 5 is_stmt 1
	.loc 1 158 1 is_stmt 0
	lw	ra,12(sp)
	.cfi_restore 1
	.loc 1 157 12
	li	a2,2
	.loc 1 158 1
	.loc 1 157 12
	li	a1,1
	li	a0,31
	.loc 1 158 1
	addi	sp,sp,16
	.cfi_def_cfa_offset 0
	.loc 1 157 12
	tail	wifi_mgmr_api_try_to_wakeup
.LVL54:
	.cfi_endproc
.LFE64:
	.size	wifi_mgmr_api_ip_update, .-wifi_mgmr_api_ip_update
	.section	.text.wifi_mgmr_api_reconnect,"ax",@progbits
	.align	1
	.globl	wifi_mgmr_api_reconnect
	.type	wifi_mgmr_api_reconnect, @function
wifi_mgmr_api_reconnect:
.LFB65:
	.loc 1 161 1 is_stmt 1
	.cfi_startproc
	.loc 1 162 5
	.loc 1 162 12 is_stmt 0
	li	a2,2
	li	a1,1
	li	a0,6
	tail	wifi_mgmr_api_common_msg
.LVL55:
	.cfi_endproc
.LFE65:
	.size	wifi_mgmr_api_reconnect, .-wifi_mgmr_api_reconnect
	.section	.text.wifi_mgmr_api_disable_autoreconnect,"ax",@progbits
	.align	1
	.globl	wifi_mgmr_api_disable_autoreconnect
	.type	wifi_mgmr_api_disable_autoreconnect, @function
wifi_mgmr_api_disable_autoreconnect:
.LFB66:
	.loc 1 166 1 is_stmt 1
	.cfi_startproc
	.loc 1 167 5
	.loc 1 167 12 is_stmt 0
	li	a2,2
	li	a1,1
	li	a0,28
	tail	wifi_mgmr_api_common_msg
.LVL56:
	.cfi_endproc
.LFE66:
	.size	wifi_mgmr_api_disable_autoreconnect, .-wifi_mgmr_api_disable_autoreconnect
	.section	.text.wifi_mgmr_api_enable_autoreconnect,"ax",@progbits
	.align	1
	.globl	wifi_mgmr_api_enable_autoreconnect
	.type	wifi_mgmr_api_enable_autoreconnect, @function
wifi_mgmr_api_enable_autoreconnect:
.LFB67:
	.loc 1 171 1 is_stmt 1
	.cfi_startproc
	.loc 1 172 5
	.loc 1 172 12 is_stmt 0
	li	a2,2
	li	a1,1
	li	a0,29
	tail	wifi_mgmr_api_common_msg
.LVL57:
	.cfi_endproc
.LFE67:
	.size	wifi_mgmr_api_enable_autoreconnect, .-wifi_mgmr_api_enable_autoreconnect
	.section	.text.wifi_mgmr_api_disconnect,"ax",@progbits
	.align	1
	.globl	wifi_mgmr_api_disconnect
	.type	wifi_mgmr_api_disconnect, @function
wifi_mgmr_api_disconnect:
.LFB68:
	.loc 1 176 1 is_stmt 1
	.cfi_startproc
	.loc 1 177 5
	.loc 1 177 12 is_stmt 0
	li	a2,2
	li	a1,1
	li	a0,5
	tail	wifi_mgmr_api_common_msg
.LVL58:
	.cfi_endproc
.LFE68:
	.size	wifi_mgmr_api_disconnect, .-wifi_mgmr_api_disconnect
	.section	.text.wifi_mgmr_api_rate_config,"ax",@progbits
	.align	1
	.globl	wifi_mgmr_api_rate_config
	.type	wifi_mgmr_api_rate_config, @function
wifi_mgmr_api_rate_config:
.LFB69:
	.loc 1 181 1 is_stmt 1
	.cfi_startproc
.LVL59:
	.loc 1 182 5
	.loc 1 181 1 is_stmt 0
	mv	a1,a0
	.loc 1 182 12
	li	a2,2
	li	a0,11
.LVL60:
	tail	wifi_mgmr_api_common_msg
.LVL61:
	.cfi_endproc
.LFE69:
	.size	wifi_mgmr_api_rate_config, .-wifi_mgmr_api_rate_config
	.section	.text.wifi_mgmr_api_conf_max_sta,"ax",@progbits
	.align	1
	.globl	wifi_mgmr_api_conf_max_sta
	.type	wifi_mgmr_api_conf_max_sta, @function
wifi_mgmr_api_conf_max_sta:
.LFB70:
	.loc 1 186 1 is_stmt 1
	.cfi_startproc
.LVL62:
	.loc 1 187 5
	.loc 1 186 1 is_stmt 0
	mv	a1,a0
	.loc 1 187 12
	li	a2,2
	li	a0,10
.LVL63:
	tail	wifi_mgmr_api_common_msg
.LVL64:
	.cfi_endproc
.LFE70:
	.size	wifi_mgmr_api_conf_max_sta, .-wifi_mgmr_api_conf_max_sta
	.section	.text.wifi_mgmr_api_ifaceup,"ax",@progbits
	.align	1
	.globl	wifi_mgmr_api_ifaceup
	.type	wifi_mgmr_api_ifaceup, @function
wifi_mgmr_api_ifaceup:
.LFB71:
	.loc 1 191 1 is_stmt 1
	.cfi_startproc
	.loc 1 192 5
	.loc 1 192 12 is_stmt 0
	li	a2,2
	li	a1,1
	li	a0,7
	tail	wifi_mgmr_api_common_msg
.LVL65:
	.cfi_endproc
.LFE71:
	.size	wifi_mgmr_api_ifaceup, .-wifi_mgmr_api_ifaceup
	.section	.text.wifi_mgmr_api_sniffer_enable,"ax",@progbits
	.align	1
	.globl	wifi_mgmr_api_sniffer_enable
	.type	wifi_mgmr_api_sniffer_enable, @function
wifi_mgmr_api_sniffer_enable:
.LFB72:
	.loc 1 196 1 is_stmt 1
	.cfi_startproc
	.loc 1 197 5
	.loc 1 197 12 is_stmt 0
	li	a2,2
	li	a1,1
	li	a0,2
	tail	wifi_mgmr_api_common_msg
.LVL66:
	.cfi_endproc
.LFE72:
	.size	wifi_mgmr_api_sniffer_enable, .-wifi_mgmr_api_sniffer_enable
	.section	.text.wifi_mgmr_api_scan_item_beacon,"ax",@progbits
	.align	1
	.globl	wifi_mgmr_api_scan_item_beacon
	.type	wifi_mgmr_api_scan_item_beacon, @function
wifi_mgmr_api_scan_item_beacon:
.LFB73:
	.loc 1 201 1 is_stmt 1
	.cfi_startproc
.LVL67:
	.loc 1 202 5
	.loc 1 204 5
	.loc 1 201 1 is_stmt 0
	addi	sp,sp,-112
	.cfi_def_cfa_offset 112
	sw	s3,92(sp)
	sw	s4,88(sp)
	sw	s5,84(sp)
	.cfi_offset 19, -20
	.cfi_offset 20, -24
	.cfi_offset 21, -28
	mv	s4,a1
	mv	s5,a0
	mv	s3,a2
	.loc 1 204 5
	li	a1,0
.LVL68:
	li	a2,60
.LVL69:
	addi	a0,sp,4
.LVL70:
	.loc 1 201 1
	sw	ra,108(sp)
	sw	s0,104(sp)
	sw	s1,100(sp)
	sw	s2,96(sp)
	sw	s6,80(sp)
	sw	s7,76(sp)
	.cfi_offset 1, -4
	.cfi_offset 8, -8
	.cfi_offset 9, -12
	.cfi_offset 18, -16
	.cfi_offset 22, -32
	.cfi_offset 23, -36
	.loc 1 201 1
	mv	s0,a5
	mv	s6,a3
	mv	s7,a4
	mv	s2,a6
	mv	s1,a7
	.loc 1 204 5
	call	memset
.LVL71:
	.loc 1 205 5 is_stmt 1
	mv	a2,s0
	mv	a1,s7
	addi	a0,sp,16
	call	memcpy
.LVL72:
	.loc 1 206 5
	.loc 1 208 5 is_stmt 0
	mv	a1,s6
	li	a2,6
	addi	a0,sp,49
	.loc 1 207 19
	sh	s0,12(sp)
	.loc 1 206 23
	sb	zero,48(sp)
	.loc 1 207 5 is_stmt 1
	.loc 1 208 5
	call	memcpy
.LVL73:
	.loc 1 209 5
	.loc 1 212 17 is_stmt 0
	lbu	a5,112(sp)
	.loc 1 216 12
	addi	a0,sp,4
	.loc 1 209 18
	sb	s5,14(sp)
	.loc 1 210 5 is_stmt 1
	.loc 1 210 15 is_stmt 0
	sb	s4,15(sp)
	.loc 1 211 5 is_stmt 1
	.loc 1 211 15 is_stmt 0
	sb	s3,57(sp)
	.loc 1 212 5 is_stmt 1
	.loc 1 213 18 is_stmt 0
	sb	s2,55(sp)
	.loc 1 214 18
	sb	s1,56(sp)
	.loc 1 212 17
	sb	a5,58(sp)
	.loc 1 213 5 is_stmt 1
	.loc 1 214 5
	.loc 1 216 5
	.loc 1 216 12 is_stmt 0
	call	wifi_mgmr_scan_beacon_save
.LVL74:
	.loc 1 217 1
	lw	ra,108(sp)
	.cfi_restore 1
	lw	s0,104(sp)
	.cfi_restore 8
.LVL75:
	lw	s1,100(sp)
	.cfi_restore 9
	lw	s2,96(sp)
	.cfi_restore 18
	lw	s3,92(sp)
	.cfi_restore 19
	lw	s4,88(sp)
	.cfi_restore 20
	lw	s5,84(sp)
	.cfi_restore 21
	lw	s6,80(sp)
	.cfi_restore 22
.LVL76:
	lw	s7,76(sp)
	.cfi_restore 23
.LVL77:
	addi	sp,sp,112
	.cfi_def_cfa_offset 0
.LVL78:
	jr	ra
	.cfi_endproc
.LFE73:
	.size	wifi_mgmr_api_scan_item_beacon, .-wifi_mgmr_api_scan_item_beacon
	.section	.text.wifi_mgmr_api_fw_disconnect,"ax",@progbits
	.align	1
	.globl	wifi_mgmr_api_fw_disconnect
	.type	wifi_mgmr_api_fw_disconnect, @function
wifi_mgmr_api_fw_disconnect:
.LFB74:
	.loc 1 220 1 is_stmt 1
	.cfi_startproc
	.loc 1 221 5
	.loc 1 221 12 is_stmt 0
	li	a2,2
	li	a1,1
	li	a0,15
	tail	wifi_mgmr_api_common_msg
.LVL79:
	.cfi_endproc
.LFE74:
	.size	wifi_mgmr_api_fw_disconnect, .-wifi_mgmr_api_fw_disconnect
	.section	.text.wifi_mgmr_api_fw_tsen_reload,"ax",@progbits
	.align	1
	.globl	wifi_mgmr_api_fw_tsen_reload
	.type	wifi_mgmr_api_fw_tsen_reload, @function
wifi_mgmr_api_fw_tsen_reload:
.LFB75:
	.loc 1 225 1 is_stmt 1
	.cfi_startproc
	.loc 1 226 5
	.loc 1 226 12 is_stmt 0
	li	a2,2
	li	a1,1
	li	a0,13
	tail	wifi_mgmr_api_common_msg
.LVL80:
	.cfi_endproc
.LFE75:
	.size	wifi_mgmr_api_fw_tsen_reload, .-wifi_mgmr_api_fw_tsen_reload
	.section	.text.wifi_mgmr_api_fw_scan,"ax",@progbits
	.align	1
	.globl	wifi_mgmr_api_fw_scan
	.type	wifi_mgmr_api_fw_scan, @function
wifi_mgmr_api_fw_scan:
.LFB76:
	.loc 1 230 1 is_stmt 1
	.cfi_startproc
.LVL81:
	.loc 1 231 5
	.loc 1 232 5
	.loc 1 233 5
	.loc 1 234 5
	.loc 1 236 5
	.loc 1 230 1 is_stmt 0
	addi	sp,sp,-128
	.cfi_def_cfa_offset 128
	sw	s0,120(sp)
	sw	s1,116(sp)
	sw	s2,112(sp)
	sw	s3,108(sp)
	sw	s4,104(sp)
	.cfi_offset 8, -8
	.cfi_offset 9, -12
	.cfi_offset 18, -16
	.cfi_offset 19, -20
	.cfi_offset 20, -24
	mv	s0,a1
	mv	s4,a3
	mv	s3,a4
	mv	s2,a0
	mv	s1,a2
	.loc 1 236 5
	li	a1,0
.LVL82:
	li	a2,88
.LVL83:
	addi	a0,sp,8
.LVL84:
	.loc 1 230 1
	sw	ra,124(sp)
	.cfi_offset 1, -4
	.loc 1 236 5
	call	memset
.LVL85:
	.loc 1 237 5 is_stmt 1
	.loc 1 239 5
	.loc 1 240 5
	.loc 1 240 25 is_stmt 0
	sh	s0,24(sp)
	.loc 1 241 5 is_stmt 1
	.loc 1 241 23 is_stmt 0
	sb	s4,88(sp)
	.loc 1 242 5 is_stmt 1
	.loc 1 242 27 is_stmt 0
	sw	s3,92(sp)
	.loc 1 243 5 is_stmt 1
.LVL86:
	.loc 1 244 5
	.loc 1 244 8 is_stmt 0
	beq	s0,zero,.L64
	.loc 1 245 9 is_stmt 1
	slli	a2,s0,1
	mv	a1,s2
	addi	a0,sp,26
	call	memcpy
.LVL87:
.L64:
	.loc 1 248 5
	.loc 1 248 8 is_stmt 0
	beq	s1,zero,.L65
	.loc 1 249 9 is_stmt 1
	.loc 1 249 24 is_stmt 0
	mv	a0,s1
	call	strlen
.LVL88:
	.loc 1 250 9 is_stmt 1
	.loc 1 249 22 is_stmt 0
	andi	a2,a0,0xff
	.loc 1 250 49
	li	a5,32
	andi	a0,a0,0xff
	bleu	a0,a5,.L66
	li	a2,32
.L66:
	.loc 1 251 9
	mv	a1,s1
	addi	a0,sp,55
	.loc 1 250 22
	sb	a2,54(sp)
	.loc 1 251 9 is_stmt 1
	call	memcpy
.LVL89:
	.loc 1 252 9
	.loc 1 252 29 is_stmt 0
	sb	zero,87(sp)
.L65:
	.loc 1 255 5 is_stmt 1
.LVL90:
.LBB20:
.LBB21:
	.loc 1 12 5
	.loc 1 12 13 is_stmt 0
	li	a5,18
	sw	a5,8(sp)
	.loc 1 13 5 is_stmt 1
.LBE21:
.LBE20:
	.loc 1 260 68 is_stmt 0
	addi	s0,s0,44
.LVL91:
.LBB24:
.LBB22:
	.loc 1 13 16
	li	a5,1
	sw	a5,12(sp)
	.loc 1 14 5 is_stmt 1
.LBE22:
.LBE24:
	.loc 1 260 68 is_stmt 0
	slli	s0,s0,1
.LVL92:
.LBB25:
.LBB23:
	.loc 1 14 16
	li	a5,2
	.loc 1 17 5
	addi	a0,sp,8
.LVL93:
	li	a1,1
	.loc 1 15 14
	sw	s0,20(sp)
	.loc 1 14 16
	sw	a5,16(sp)
	.loc 1 15 5 is_stmt 1
	.loc 1 17 5
	call	wifi_mgmr_event_notify
.LVL94:
	.loc 1 19 5
.LBE23:
.LBE25:
	.loc 1 263 1 is_stmt 0
	lw	ra,124(sp)
	.cfi_restore 1
	lw	s0,120(sp)
	.cfi_restore 8
	lw	s1,116(sp)
	.cfi_restore 9
.LVL95:
	lw	s2,112(sp)
	.cfi_restore 18
.LVL96:
	lw	s3,108(sp)
	.cfi_restore 19
.LVL97:
	lw	s4,104(sp)
	.cfi_restore 20
	li	a0,0
	addi	sp,sp,128
	.cfi_def_cfa_offset 0
.LVL98:
	jr	ra
	.cfi_endproc
.LFE76:
	.size	wifi_mgmr_api_fw_scan, .-wifi_mgmr_api_fw_scan
	.section	.text.wifi_mgmr_api_fw_powersaving,"ax",@progbits
	.align	1
	.globl	wifi_mgmr_api_fw_powersaving
	.type	wifi_mgmr_api_fw_powersaving, @function
wifi_mgmr_api_fw_powersaving:
.LFB77:
	.loc 1 266 1 is_stmt 1
	.cfi_startproc
.LVL99:
	.loc 1 267 5
	.loc 1 266 1 is_stmt 0
	mv	a1,a0
	.loc 1 267 12
	li	a2,2
	li	a0,16
.LVL100:
	tail	wifi_mgmr_api_common_msg
.LVL101:
	.cfi_endproc
.LFE77:
	.size	wifi_mgmr_api_fw_powersaving, .-wifi_mgmr_api_fw_powersaving
	.section	.text.wifi_mgmr_api_ap_start,"ax",@progbits
	.align	1
	.globl	wifi_mgmr_api_ap_start
	.type	wifi_mgmr_api_ap_start, @function
wifi_mgmr_api_ap_start:
.LFB78:
	.loc 1 271 1 is_stmt 1
	.cfi_startproc
.LVL102:
	.loc 1 272 5
	.loc 1 273 5
	.loc 1 274 5
	.loc 1 276 5
	.loc 1 276 8 is_stmt 0
	bne	a0,zero,.L76
	.loc 1 278 16
	li	a0,-1
.LVL103:
	.loc 1 306 1
	ret
.LVL104:
.L76:
	.loc 1 271 1
	addi	sp,sp,-160
	.cfi_def_cfa_offset 160
	sw	s0,152(sp)
	sw	s2,144(sp)
	sw	s3,140(sp)
	.cfi_offset 8, -8
	.cfi_offset 18, -16
	.cfi_offset 19, -20
	mv	s2,a0
	mv	s0,a1
	mv	s3,a2
	.loc 1 280 5
	li	a1,0
.LVL105:
	li	a2,127
.LVL106:
	mv	a0,sp
.LVL107:
	.loc 1 271 1
	sw	ra,156(sp)
	sw	s1,148(sp)
	.cfi_offset 1, -4
	.cfi_offset 9, -12
	mv	s1,a3
	.loc 1 280 5 is_stmt 1
	call	memset
.LVL108:
	.loc 1 281 5
	.loc 1 282 5
	.loc 1 283 5
	.loc 1 283 25 is_stmt 0
	mv	a0,s2
	call	strlen
.LVL109:
	.loc 1 283 23
	srli	a5,a0,16
	sh	a5,56(sp)
	sh	a0,54(sp)
	.loc 1 283 8
	li	a5,32
	bgtu	a0,a5,.L78
	.loc 1 286 5 is_stmt 1
	.loc 1 286 8 is_stmt 0
	bne	s0,zero,.L79
.L82:
	.loc 1 290 5 is_stmt 1
	.loc 1 290 30 is_stmt 0
	lhu	a5,56(sp)
	lhu	a2,54(sp)
	.loc 1 290 5
	mv	a1,s2
	.loc 1 290 30
	slli	a5,a5,16
	.loc 1 290 5
	or	a2,a5,a2
	addi	a0,sp,20
	call	memcpy
.LVL110:
	.loc 1 291 5 is_stmt 1
	.loc 1 291 8 is_stmt 0
	bne	s0,zero,.L80
	.loc 1 294 9 is_stmt 1
	.loc 1 294 21 is_stmt 0
	sb	zero,123(sp)
	sb	zero,124(sp)
	sb	zero,125(sp)
	sb	zero,126(sp)
	j	.L83
.L79:
	.loc 1 286 34 discriminator 1
	mv	a0,s0
	call	strlen
.LVL111:
	.loc 1 286 32 discriminator 1
	srli	a5,a0,8
	sb	a5,124(sp)
	srli	a5,a0,16
	sb	a5,125(sp)
	srli	a5,a0,24
	sb	a5,126(sp)
	sb	a0,123(sp)
	.loc 1 286 16 discriminator 1
	li	a5,64
	bleu	a0,a5,.L82
.L78:
	.loc 1 278 16
	li	a0,-1
.L75:
	.loc 1 306 1
	lw	ra,156(sp)
	.cfi_remember_state
	.cfi_restore 1
	lw	s0,152(sp)
	.cfi_restore 8
.LVL112:
	lw	s1,148(sp)
	.cfi_restore 9
	lw	s2,144(sp)
	.cfi_restore 18
.LVL113:
	lw	s3,140(sp)
	.cfi_restore 19
.LVL114:
	addi	sp,sp,160
	.cfi_def_cfa_offset 0
.LVL115:
	jr	ra
.LVL116:
.L80:
	.cfi_restore_state
	.loc 1 292 9 is_stmt 1
	.loc 1 292 35 is_stmt 0
	lw	a5,124(sp)
	lbu	a2,123(sp)
	.loc 1 292 9
	mv	a1,s0
	.loc 1 292 35
	slli	a5,a5,8
	.loc 1 292 9
	or	a2,a5,a2
	addi	a0,sp,58
	call	memcpy
.LVL117:
.L83:
	.loc 1 296 5 is_stmt 1
.LBB26:
.LBB27:
	.loc 1 12 13 is_stmt 0
	li	a5,8
	sw	a5,0(sp)
	.loc 1 13 16
	li	a5,1
	sw	a5,4(sp)
	.loc 1 14 16
	li	a5,2
	sw	a5,8(sp)
.LBE27:
.LBE26:
	.loc 1 297 39
	snez	s1,s1
.LBB30:
.LBB28:
	.loc 1 15 14
	li	a5,127
	.loc 1 17 5
	li	a1,1
	mv	a0,sp
.LBE28:
.LBE30:
	.loc 1 296 17
	sw	s3,16(sp)
	.loc 1 297 5 is_stmt 1
	.loc 1 297 39 is_stmt 0
	sb	s1,53(sp)
	.loc 1 299 5 is_stmt 1
.LVL118:
.LBB31:
.LBB29:
	.loc 1 12 5
	.loc 1 13 5
	.loc 1 14 5
	.loc 1 15 5
	.loc 1 15 14 is_stmt 0
	sw	a5,12(sp)
	.loc 1 17 5 is_stmt 1
	call	wifi_mgmr_event_notify
.LVL119:
	.loc 1 19 5
.LBE29:
.LBE31:
	.loc 1 299 12 is_stmt 0
	li	a0,0
	j	.L75
	.cfi_endproc
.LFE78:
	.size	wifi_mgmr_api_ap_start, .-wifi_mgmr_api_ap_start
	.section	.text.wifi_mgmr_api_ap_stop,"ax",@progbits
	.align	1
	.globl	wifi_mgmr_api_ap_stop
	.type	wifi_mgmr_api_ap_stop, @function
wifi_mgmr_api_ap_stop:
.LFB79:
	.loc 1 309 1 is_stmt 1
	.cfi_startproc
	.loc 1 310 5
	.loc 1 310 12 is_stmt 0
	li	a2,2
	li	a1,1
	li	a0,9
	tail	wifi_mgmr_api_common_msg
.LVL120:
	.cfi_endproc
.LFE79:
	.size	wifi_mgmr_api_ap_stop, .-wifi_mgmr_api_ap_stop
	.section	.text.wifi_mgmr_api_idle,"ax",@progbits
	.align	1
	.globl	wifi_mgmr_api_idle
	.type	wifi_mgmr_api_idle, @function
wifi_mgmr_api_idle:
.LFB80:
	.loc 1 314 1 is_stmt 1
	.cfi_startproc
	.loc 1 315 5
	.loc 1 315 12 is_stmt 0
	li	a2,2
	li	a1,1
	li	a0,0
	tail	wifi_mgmr_api_common_msg
.LVL121:
	.cfi_endproc
.LFE80:
	.size	wifi_mgmr_api_idle, .-wifi_mgmr_api_idle
	.section	.text.wifi_mgmr_api_denoise_enable,"ax",@progbits
	.align	1
	.globl	wifi_mgmr_api_denoise_enable
	.type	wifi_mgmr_api_denoise_enable, @function
wifi_mgmr_api_denoise_enable:
.LFB81:
	.loc 1 319 1 is_stmt 1
	.cfi_startproc
	.loc 1 320 5
	.loc 1 320 12 is_stmt 0
	li	a2,2
	li	a1,1
	li	a0,12
	tail	wifi_mgmr_api_common_msg
.LVL122:
	.cfi_endproc
.LFE81:
	.size	wifi_mgmr_api_denoise_enable, .-wifi_mgmr_api_denoise_enable
	.section	.text.wifi_mgmr_api_denoise_disable,"ax",@progbits
	.align	1
	.globl	wifi_mgmr_api_denoise_disable
	.type	wifi_mgmr_api_denoise_disable, @function
wifi_mgmr_api_denoise_disable:
.LFB82:
	.loc 1 328 1 is_stmt 1
	.cfi_startproc
	.loc 1 329 5
	.loc 1 329 12 is_stmt 0
	li	a2,2
	li	a1,0
	li	a0,12
	tail	wifi_mgmr_api_common_msg
.LVL123:
	.cfi_endproc
.LFE82:
	.size	wifi_mgmr_api_denoise_disable, .-wifi_mgmr_api_denoise_disable
	.section	.text.wifi_mgmr_api_channel_set,"ax",@progbits
	.align	1
	.globl	wifi_mgmr_api_channel_set
	.type	wifi_mgmr_api_channel_set, @function
wifi_mgmr_api_channel_set:
.LFB83:
	.loc 1 337 1 is_stmt 1
	.cfi_startproc
.LVL124:
	.loc 1 338 5
	.loc 1 337 1 is_stmt 0
	mv	a2,a1
	.loc 1 338 12
	mv	a1,a0
.LVL125:
	li	a0,17
.LVL126:
	tail	wifi_mgmr_api_common_msg
.LVL127:
	.cfi_endproc
.LFE83:
	.size	wifi_mgmr_api_channel_set, .-wifi_mgmr_api_channel_set
	.section	.text.wifi_mgmr_api_raw_send,"ax",@progbits
	.align	1
	.globl	wifi_mgmr_api_raw_send
	.type	wifi_mgmr_api_raw_send, @function
wifi_mgmr_api_raw_send:
.LFB84:
	.loc 1 347 1 is_stmt 1
	.cfi_startproc
.LVL128:
	.loc 1 348 5
	.loc 1 347 1 is_stmt 0
	mv	a2,a1
	.loc 1 348 12
	mv	a1,a0
.LVL129:
	li	a0,21
.LVL130:
	tail	wifi_mgmr_api_common_msg
.LVL131:
	.cfi_endproc
.LFE84:
	.size	wifi_mgmr_api_raw_send, .-wifi_mgmr_api_raw_send
	.section	.text.wifi_mgmr_api_set_country_code,"ax",@progbits
	.align	1
	.globl	wifi_mgmr_api_set_country_code
	.type	wifi_mgmr_api_set_country_code, @function
wifi_mgmr_api_set_country_code:
.LFB85:
	.loc 1 356 1 is_stmt 1
	.cfi_startproc
.LVL132:
	.loc 1 357 5
	.loc 1 356 1 is_stmt 0
	addi	sp,sp,-16
	.cfi_def_cfa_offset 16
	sw	ra,12(sp)
	.cfi_offset 1, -4
	.loc 1 357 5
	call	wifi_mgmr_set_country_code_internal
.LVL133:
	.loc 1 359 5 is_stmt 1
	.loc 1 360 1 is_stmt 0
	lw	ra,12(sp)
	.cfi_restore 1
	li	a0,0
	addi	sp,sp,16
	.cfi_def_cfa_offset 0
	jr	ra
	.cfi_endproc
.LFE85:
	.size	wifi_mgmr_api_set_country_code, .-wifi_mgmr_api_set_country_code
	.comm	cfg_start_req_u_tlv_t,12,4
	.text
.Letext0:
	.file 2 "/mnt/d/GitHub/bl_iot_sdk_for_aithinker/toolchain/riscv/Linux/riscv64-unknown-elf/include/machine/_default_types.h"
	.file 3 "/mnt/d/GitHub/bl_iot_sdk_for_aithinker/toolchain/riscv/Linux/riscv64-unknown-elf/include/sys/_stdint.h"
	.file 4 "/mnt/d/GitHub/bl_iot_sdk_for_aithinker/components/network/lwip/src/include/lwip/netif.h"
	.file 5 "/mnt/d/GitHub/bl_iot_sdk_for_aithinker/components/platform/hosal/bl602_hal/bl_pm.h"
	.file 6 "/mnt/d/GitHub/bl_iot_sdk_for_aithinker/components/network/wifi_manager/bl60x_wifi_driver/include/wifi_mgmr_ext.h"
	.file 7 "/mnt/d/GitHub/bl_iot_sdk_for_aithinker/components/network/wifi_manager/bl60x_wifi_driver/lmac_types.h"
	.file 8 "/mnt/d/GitHub/bl_iot_sdk_for_aithinker/components/network/wifi_manager/bl60x_wifi_driver/lmac_mac.h"
	.file 9 "/mnt/d/GitHub/bl_iot_sdk_for_aithinker/components/network/lwip/src/include/lwip/memp.h"
	.file 10 "/mnt/d/GitHub/bl_iot_sdk_for_aithinker/components/os/bl_os_adapter/bl_os_adapter/include/bl_os_adapter/bl_os_type.h"
	.file 11 "/mnt/d/GitHub/bl_iot_sdk_for_aithinker/components/os/bl_os_adapter/bl_os_adapter/include/bl_os_adapter/bl_os_adapter.h"
	.file 12 "/mnt/d/GitHub/bl_iot_sdk_for_aithinker/components/network/wifi_manager/bl60x_wifi_driver/wifi_mgmr.h"
	.file 13 "/mnt/d/GitHub/bl_iot_sdk_for_aithinker/components/network/wifi/include/bl60x_fw_api.h"
	.file 14 "/mnt/d/GitHub/bl_iot_sdk_for_aithinker/components/network/wifi_manager/bl60x_wifi_driver/lmac_msg.h"
	.file 15 "/mnt/d/GitHub/bl_iot_sdk_for_aithinker/toolchain/riscv/Linux/riscv64-unknown-elf/include/string.h"