	.file	"vfs_uart.c"
	.option nopic
	.attribute arch, "rv32i2p0_m2p0_f2p0_c2p0"
	.attribute unaligned_access, 0
	.attribute stack_align, 16
	.section	.rodata.str1.4,"aMS",@progbits,1
	.align	2
.LC0:
	.string	"tx"
	.align	2
.LC1:
	.string	"rx"
	.align	2
.LC2:
	.string	"cts"
	.align	2
.LC3:
	.string	"rts"
	.text
.Ltext0:
	.cfi_sections	.debug_frame
	.section	.text.fdt32_to_cpu,"ax",@progbits
	.align	1
	.type	fdt32_to_cpu, @function
fdt32_to_cpu:
.LFB6:
	.file 1 "/mnt/d/GitHub/bl_iot_sdk_for_aithinker/components/stage/blfdt/inc/libfdt_env.h"
	.loc 1 92 1
	.cfi_startproc
.LVL0:
	.loc 1 93 5
	.loc 1 93 212 is_stmt 0
	srli	a4,a0,24
	.loc 1 93 12
	slli	a5,a0,24
	or	a5,a5,a4
	.loc 1 93 112
	srli	a4,a0,8
	andi	a4,a4,0xff
	.loc 1 93 163
	srli	a0,a0,16
.LVL1:
	.loc 1 93 117
	slli	a4,a4,16
	.loc 1 93 163
	andi	a0,a0,0xff
	.loc 1 93 12
	or	a5,a5,a4
	.loc 1 93 168
	slli	a0,a0,8
	.loc 1 94 1
	or	a0,a5,a0
	ret
	.cfi_endproc
.LFE6:
	.size	fdt32_to_cpu, .-fdt32_to_cpu
	.section	.text.vfs_uart_open,"ax",@progbits
	.align	1
	.globl	vfs_uart_open
	.type	vfs_uart_open, @function
vfs_uart_open:
.LFB41:
	.file 2 "/mnt/d/GitHub/bl_iot_sdk_for_aithinker/components/fs/vfs/device/vfs_uart.c"
	.loc 2 88 1 is_stmt 1
	.cfi_startproc
.LVL2:
	.loc 2 89 5
	.loc 2 90 5
	.loc 2 93 5
	.loc 2 88 1 is_stmt 0
	addi	sp,sp,-16
	.cfi_def_cfa_offset 16
	sw	ra,12(sp)
	sw	s0,8(sp)
	sw	s1,4(sp)
	.cfi_offset 1, -4
	.cfi_offset 8, -8
	.cfi_offset 9, -12
	.loc 2 93 8
	bne	a1,zero,.L3
.LVL3:
.L5:
	.loc 2 116 13
	li	s1,-22
.L2:
	.loc 2 120 1
	lw	ra,12(sp)
	.cfi_remember_state
	.cfi_restore 1
	lw	s0,8(sp)
	.cfi_restore 8
	mv	a0,s1
	lw	s1,4(sp)
	.cfi_restore 9
	addi	sp,sp,16
	.cfi_def_cfa_offset 0
	jr	ra
.LVL4:
.L3:
	.cfi_restore_state
	.loc 2 93 27 discriminator 1
	lw	a5,0(a1)
	.loc 2 93 21 discriminator 1
	beq	a5,zero,.L5
	.loc 2 96 9 is_stmt 1
	.loc 2 96 12 is_stmt 0
	lbu	a3,17(a5)
	li	a4,1
	.loc 2 114 13
	li	s1,0
	.loc 2 96 12
	bne	a3,a4,.L2
	.loc 2 98 13 is_stmt 1
	.loc 2 98 22 is_stmt 0
	lw	s0,4(a5)
.LVL5:
	.loc 2 100 13 is_stmt 1
	addi	a0,s0,96
.LVL6:
	call	aos_mutex_new
.LVL7:
	.loc 2 101 13
	.loc 2 101 43 is_stmt 0
	lw	a0,88(s0)
	li	a2,0
	li	a1,1
	call	xStreamBufferGenericCreate
.LVL8:
	.loc 2 101 41
	sw	a0,80(s0)
	.loc 2 102 13 is_stmt 1
	.loc 2 102 43 is_stmt 0
	lw	a0,92(s0)
	li	a2,0
	li	a1,1
	call	xStreamBufferGenericCreate
.LVL9:
	.loc 2 103 16
	lw	a5,80(s0)
	.loc 2 102 41
	sw	a0,84(s0)
	.loc 2 103 13 is_stmt 1
	.loc 2 103 16 is_stmt 0
	beq	a5,zero,.L5
	.loc 2 103 52 discriminator 1
	beq	a0,zero,.L5
	.loc 2 108 13 is_stmt 1
	lui	a2,%hi(__uart_tx_irq)
	mv	a3,s0
	addi	a2,a2,%lo(__uart_tx_irq)
	li	a1,1
	mv	a0,s0
	call	hosal_uart_callback_set
.LVL10:
	.loc 2 110 13
	lui	a2,%hi(__uart_rx_irq)
	mv	a3,s0
	addi	a2,a2,%lo(__uart_rx_irq)
	li	a1,2
	mv	a0,s0
	call	hosal_uart_callback_set
.LVL11:
	.loc 2 112 13
	li	a2,3
	li	a1,11
	mv	a0,s0
	call	hosal_uart_ioctl
.LVL12:
	j	.L2
	.cfi_endproc
.LFE41:
	.size	vfs_uart_open, .-vfs_uart_open
	.section	.text.__uart_rx_irq,"ax",@progbits
	.align	1
	.type	__uart_rx_irq, @function
__uart_rx_irq:
.LFB39:
	.loc 2 50 1
	.cfi_startproc
.LVL13:
	.loc 2 51 5
	.loc 2 52 5
	.loc 2 53 5
	.loc 2 50 1 is_stmt 0
	addi	sp,sp,-96
	.cfi_def_cfa_offset 96
	.loc 2 56 14
	li	a2,64
	addi	a1,sp,16
	.loc 2 50 1
	sw	s0,88(sp)
	sw	ra,92(sp)
	.cfi_offset 8, -8
	.cfi_offset 1, -4
	.loc 2 50 1
	mv	s0,a0
.LVL14:
	.loc 2 54 5 is_stmt 1
	.loc 2 54 16 is_stmt 0
	sw	zero,12(sp)
	.loc 2 56 5 is_stmt 1
	.loc 2 56 14 is_stmt 0
	call	hosal_uart_receive
.LVL15:
	.loc 2 57 5 is_stmt 1
	.loc 2 57 8 is_stmt 0
	ble	a0,zero,.L19
	mv	a2,a0
	.loc 2 58 9 is_stmt 1
	lw	a0,80(s0)
.LVL16:
	addi	a3,sp,12
	addi	a1,sp,16
	call	xStreamBufferSendFromISR
.LVL17:
	.loc 2 60 9
	.loc 2 60 11 is_stmt 0
	lw	a5,12(sp)
	beq	a5,zero,.L19
	.loc 2 60 40 is_stmt 1 discriminator 1
	call	vTaskSwitchContext
.LVL18:
.L19:
	.loc 2 62 5
	.loc 2 62 8 is_stmt 0
	lw	a5,100(s0)
	beq	a5,zero,.L21
	.loc 2 63 9 is_stmt 1
	.loc 2 63 30 is_stmt 0
	lw	a4,104(s0)
	.loc 2 63 45
	lhu	a5,6(a4)
	ori	a5,a5,1
	sh	a5,6(a4)
	.loc 2 64 9 is_stmt 1
	.loc 2 64 10 is_stmt 0
	lw	a5,100(s0)
	lw	a1,108(s0)
	lw	a0,104(s0)
	jalr	a5
.LVL19:
.L21:
	.loc 2 66 5 is_stmt 1
	.loc 2 67 1 is_stmt 0
	lw	ra,92(sp)
	.cfi_restore 1
	lw	s0,88(sp)
	.cfi_restore 8
.LVL20:
	li	a0,0
	addi	sp,sp,96
	.cfi_def_cfa_offset 0
	jr	ra
	.cfi_endproc
.LFE39:
	.size	__uart_rx_irq, .-__uart_rx_irq
	.section	.text.vfs_uart_close,"ax",@progbits
	.align	1
	.globl	vfs_uart_close
	.type	vfs_uart_close, @function
vfs_uart_close:
.LFB42:
	.loc 2 123 1 is_stmt 1
	.cfi_startproc
.LVL21:
	.loc 2 124 5
	.loc 2 125 5
	.loc 2 128 5
	.loc 2 128 8 is_stmt 0
	beq	a0,zero,.L32
	.loc 2 128 27 discriminator 1
	lw	a5,0(a0)
	.loc 2 128 21 discriminator 1
	beq	a5,zero,.L32
	.loc 2 131 9 is_stmt 1
	.loc 2 131 12 is_stmt 0
	lbu	a3,17(a5)
	li	a4,1
	.loc 2 146 17
	li	a0,0
.LVL22:
	.loc 2 131 12
	bne	a3,a4,.L36
	.loc 2 133 13 is_stmt 1
	.loc 2 123 1 is_stmt 0
	addi	sp,sp,-16
	.cfi_def_cfa_offset 16
	sw	ra,12(sp)
	sw	s0,8(sp)
	.cfi_offset 1, -4
	.cfi_offset 8, -8
	.loc 2 133 22
	lw	s0,4(a5)
.LVL23:
	.loc 2 135 13 is_stmt 1
	.loc 2 135 16 is_stmt 0
	beq	s0,zero,.L34
	.loc 2 137 17 is_stmt 1
	addi	a0,s0,96
	call	aos_mutex_free
.LVL24:
	.loc 2 138 17
	lw	a0,80(s0)
	call	vStreamBufferDelete
.LVL25:
	.loc 2 139 17
	lw	a0,84(s0)
	call	vStreamBufferDelete
.LVL26:
	.loc 2 141 17
	.loc 2 141 23 is_stmt 0
	mv	a0,s0
	.loc 2 153 1
	lw	s0,8(sp)
	.cfi_restore 8
.LVL27:
	lw	ra,12(sp)
	.cfi_restore 1
	addi	sp,sp,16
	.cfi_def_cfa_offset 0
	.loc 2 141 23
	tail	hosal_uart_finalize
.LVL28:
.L32:
	.loc 2 149 13
	li	a0,-22
.LVL29:
	ret
.LVL30:
.L34:
	.cfi_def_cfa_offset 16
	.cfi_offset 1, -4
	.cfi_offset 8, -8
	.loc 2 153 1
	lw	ra,12(sp)
	.cfi_restore 1
	lw	s0,8(sp)
	.cfi_restore 8
.LVL31:
	.loc 2 149 13
	li	a0,-22
.LVL32:
	.loc 2 152 5 is_stmt 1
	.loc 2 153 1 is_stmt 0
	addi	sp,sp,16
	.cfi_def_cfa_offset 0
	jr	ra
.LVL33:
.L36:
	ret
	.cfi_endproc
.LFE42:
	.size	vfs_uart_close, .-vfs_uart_close
	.section	.text.vfs_uart_read,"ax",@progbits
	.align	1
	.globl	vfs_uart_read
	.type	vfs_uart_read, @function
vfs_uart_read:
.LFB43:
	.loc 2 158 1 is_stmt 1
	.cfi_startproc
.LVL34:
	.loc 2 159 5
	.loc 2 160 5
	.loc 2 161 5
	.loc 2 164 5
	.loc 2 158 1 is_stmt 0
	addi	sp,sp,-32
	.cfi_def_cfa_offset 32
	sw	s0,24(sp)
	sw	ra,28(sp)
	sw	s1,20(sp)
	sw	s2,16(sp)
	sw	s3,12(sp)
	sw	s4,8(sp)
	sw	s5,4(sp)
	sw	s6,0(sp)
	.cfi_offset 8, -8
	.cfi_offset 1, -4
	.cfi_offset 9, -12
	.cfi_offset 18, -16
	.cfi_offset 19, -20
	.cfi_offset 20, -24
	.cfi_offset 21, -28
	.cfi_offset 22, -32
	.loc 2 205 13
	li	s0,-22
	.loc 2 164 8
	beq	a0,zero,.L39
	.loc 2 164 27 discriminator 1
	lw	a5,0(a0)
	.loc 2 205 13 discriminator 1
	li	s0,-22
	.loc 2 164 21 discriminator 1
	beq	a5,zero,.L39
	.loc 2 167 18
	lw	s2,4(a5)
	mv	s3,a2
	.loc 2 167 9 is_stmt 1
.LVL35:
	.loc 2 169 9
	.loc 2 169 12 is_stmt 0
	beq	a2,zero,.L39
	.loc 2 169 26 discriminator 1
	beq	s2,zero,.L39
	.loc 2 178 42
	addi	s5,s2,96
	mv	s4,a1
	.loc 2 178 13 is_stmt 1
	mv	a0,s5
.LVL36:
	li	a1,-1
.LVL37:
	call	aos_mutex_lock
.LVL38:
	.loc 2 180 13
	.loc 2 183 13
	.loc 2 183 16 is_stmt 0
	lbu	a4,116(s2)
	li	a5,1
	.loc 2 190 25
	li	s1,0
	.loc 2 183 16
	bne	a4,a5,.L41
	.loc 2 184 17 is_stmt 1
	.loc 2 184 29 is_stmt 0
	lw	s1,124(s2)
	.loc 2 184 20
	bne	s1,zero,.L41
	.loc 2 185 29
	li	s1,-1
.L41:
	.loc 2 190 25
	li	s0,0
	.loc 2 195 37
	li	s6,-1
.LVL39:
.L43:
	.loc 2 192 13 is_stmt 1
	.loc 2 193 17
	.loc 2 193 24 is_stmt 0
	lw	a0,80(s2)
	sub	a2,s3,s0
	add	a1,s4,s0
	mv	a3,s1
	call	xStreamBufferReceive
.LVL40:
	.loc 2 193 21
	add	s0,s0,a0
.LVL41:
	.loc 2 195 17 is_stmt 1
	.loc 2 195 20 is_stmt 0
	beq	s0,s3,.L42
	.loc 2 195 37 discriminator 1
	beq	s1,s6,.L43
.L42:
	.loc 2 200 13 is_stmt 1
	mv	a0,s5
	call	aos_mutex_unlock
.LVL42:
.L39:
	.loc 2 209 1 is_stmt 0
	lw	ra,28(sp)
	.cfi_restore 1
	mv	a0,s0
	lw	s0,24(sp)
	.cfi_restore 8
	lw	s1,20(sp)
	.cfi_restore 9
	lw	s2,16(sp)
	.cfi_restore 18
	lw	s3,12(sp)
	.cfi_restore 19
	lw	s4,8(sp)
	.cfi_restore 20
	lw	s5,4(sp)
	.cfi_restore 21
	lw	s6,0(sp)
	.cfi_restore 22
	addi	sp,sp,32
	.cfi_def_cfa_offset 0
	jr	ra
	.cfi_endproc
.LFE43:
	.size	vfs_uart_read, .-vfs_uart_read
	.section	.text.vfs_uart_sync,"ax",@progbits
	.align	1
	.globl	vfs_uart_sync
	.type	vfs_uart_sync, @function
vfs_uart_sync:
.LFB48:
	.loc 2 409 1 is_stmt 1
	.cfi_startproc
.LVL43:
	.loc 2 410 5
	.loc 2 413 5
	.loc 2 413 8 is_stmt 0
	beq	a0,zero,.L54
	.loc 2 413 27 discriminator 1
	lw	a5,0(a0)
	.loc 2 414 16 discriminator 1
	li	a0,-22
.LVL44:
	.loc 2 413 21 discriminator 1
	beq	a5,zero,.L58
	.loc 2 418 5 is_stmt 1
	.loc 2 409 1 is_stmt 0
	addi	sp,sp,-16
	.cfi_def_cfa_offset 16
	sw	ra,12(sp)
	sw	s0,8(sp)
	sw	s1,4(sp)
	.cfi_offset 1, -4
	.cfi_offset 8, -8
	.cfi_offset 9, -12
	.loc 2 418 14
	lw	s0,4(a5)
.LVL45:
	.loc 2 420 5 is_stmt 1
	.loc 2 420 8 is_stmt 0
	beq	s0,zero,.L52
	.loc 2 424 5 is_stmt 1
	.loc 2 424 34 is_stmt 0
	addi	s1,s0,96
	.loc 2 424 5
	li	a1,-1
	mv	a0,s1
	call	aos_mutex_lock
.LVL46:
	.loc 2 425 5 is_stmt 1
	li	a2,0
	li	a1,15
	mv	a0,s0
	call	hosal_uart_ioctl
.LVL47:
	.loc 2 426 5
	mv	a0,s1
	call	aos_mutex_unlock
.LVL48:
	.loc 2 428 5
	.loc 2 428 12 is_stmt 0
	li	a0,0
.L52:
	.loc 2 429 1
	lw	ra,12(sp)
	.cfi_restore 1
	lw	s0,8(sp)
	.cfi_restore 8
.LVL49:
	lw	s1,4(sp)
	.cfi_restore 9
	addi	sp,sp,16
	.cfi_def_cfa_offset 0
	jr	ra
.LVL50:
.L54:
	.loc 2 414 16
	li	a0,-22
.LVL51:
	ret
.L58:
	.loc 2 429 1
	ret
	.cfi_endproc
.LFE48:
	.size	vfs_uart_sync, .-vfs_uart_sync
	.section	.text.vfs_uart_write,"ax",@progbits
	.align	1
	.globl	vfs_uart_write
	.type	vfs_uart_write, @function
vfs_uart_write:
.LFB44:
	.loc 2 213 1 is_stmt 1
	.cfi_startproc
.LVL52:
	.loc 2 214 5
	.loc 2 215 5
	.loc 2 216 5
	.loc 2 217 5
	.loc 2 220 5
	.loc 2 220 8 is_stmt 0
	beq	a0,zero,.L66
	.loc 2 220 27 discriminator 1
	lw	a5,0(a0)
	.loc 2 251 13 discriminator 1
	li	a0,-22
.LVL53:
	.loc 2 220 21 discriminator 1
	beq	a5,zero,.L72
	.loc 2 213 1
	addi	sp,sp,-32
	.cfi_def_cfa_offset 32
	sw	s0,24(sp)
	sw	s1,20(sp)
	sw	s4,8(sp)
	sw	ra,28(sp)
	sw	s2,16(sp)
	sw	s3,12(sp)
	sw	s5,4(sp)
	.cfi_offset 8, -8
	.cfi_offset 9, -12
	.cfi_offset 20, -24
	.cfi_offset 1, -4
	.cfi_offset 18, -16
	.cfi_offset 19, -20
	.cfi_offset 21, -28
	.loc 2 223 18
	lw	s3,4(a5)
	mv	s4,a1
	mv	s1,a2
	.loc 2 223 9 is_stmt 1
.LVL54:
	.loc 2 225 9
	.loc 2 235 27 is_stmt 0
	li	s0,0
	.loc 2 225 12
	bne	s3,zero,.L63
.LVL55:
.L61:
	.loc 2 255 1
	lw	ra,28(sp)
	.cfi_remember_state
	.cfi_restore 1
	lw	s0,24(sp)
	.cfi_restore 8
	lw	s1,20(sp)
	.cfi_restore 9
	lw	s2,16(sp)
	.cfi_restore 18
	lw	s3,12(sp)
	.cfi_restore 19
.LVL56:
	lw	s4,8(sp)
	.cfi_restore 20
.LVL57:
	lw	s5,4(sp)
	.cfi_restore 21
	addi	sp,sp,32
	.cfi_def_cfa_offset 0
	jr	ra
.LVL58:
.L65:
	.cfi_restore_state
	.loc 2 238 17 is_stmt 1
	.loc 2 238 23 is_stmt 0
	lw	a0,84(s3)
	li	a3,0
	mv	a2,s1
	mv	a1,s5
	call	xStreamBufferSend
.LVL59:
	mv	s2,a0
.LVL60:
	.loc 2 240 17 is_stmt 1
	.loc 2 240 20 is_stmt 0
	ble	a0,zero,.L64
	.loc 2 241 21 is_stmt 1
	li	a2,0
	li	a1,16
	mv	a0,s3
.LVL61:
	call	hosal_uart_ioctl
.LVL62:
	.loc 2 242 21
	.loc 2 242 34 is_stmt 0
	add	s0,s0,s2
.LVL63:
	.loc 2 243 21 is_stmt 1
	.loc 2 243 32 is_stmt 0
	sub	s1,s1,s2
.LVL64:
.L63:
	.loc 2 238 23
	add	s5,s4,s0
.L64:
.LVL65:
	.loc 2 236 18 is_stmt 1
	bne	s1,zero,.L65
	.loc 2 246 13
	.loc 2 246 17 is_stmt 0
	mv	a0,s0
	j	.L61
.LVL66:
.L66:
	.cfi_def_cfa_offset 0
	.cfi_restore 1
	.cfi_restore 8
	.cfi_restore 9
	.cfi_restore 18
	.cfi_restore 19
	.cfi_restore 20
	.cfi_restore 21
	.loc 2 251 13
	li	a0,-22
.LVL67:
	ret
.L72:
	.loc 2 255 1
	ret
	.cfi_endproc
.LFE44:
	.size	vfs_uart_write, .-vfs_uart_write
	.section	.text.vfs_uart_poll,"ax",@progbits
	.align	1
	.globl	vfs_uart_poll
	.type	vfs_uart_poll, @function
vfs_uart_poll:
.LFB45:
	.loc 2 258 1 is_stmt 1
	.cfi_startproc
.LVL68:
	.loc 2 259 5
	.loc 2 258 1 is_stmt 0
	addi	sp,sp,-32
	.cfi_def_cfa_offset 32
	sw	s1,20(sp)
	sw	s2,16(sp)
	sw	s3,12(sp)
	sw	s4,8(sp)
	sw	s5,4(sp)
	sw	ra,28(sp)
	sw	s0,24(sp)
	.cfi_offset 9, -12
	.cfi_offset 18, -16
	.cfi_offset 19, -20
	.cfi_offset 20, -24
	.cfi_offset 21, -28
	.cfi_offset 1, -4
	.cfi_offset 8, -8
	.loc 2 259 21
	lw	a5,0(a0)
	.loc 2 258 1
	mv	s4,a1
	.loc 2 261 5
	li	a1,-1
.LVL69:
	.loc 2 259 21
	lw	s0,4(a5)
.LVL70:
	.loc 2 261 5 is_stmt 1
	.loc 2 258 1 is_stmt 0
	mv	s1,a2
	mv	s2,a3
	.loc 2 261 34
	addi	s5,s0,96
	.loc 2 261 5
	mv	a0,s5
.LVL71:
	.loc 2 258 1
	mv	s3,a4
	.loc 2 261 5
	call	aos_mutex_lock
.LVL72:
	.loc 2 262 5 is_stmt 1
	.loc 2 262 8 is_stmt 0
	bne	s4,zero,.L76
	.loc 2 264 9 is_stmt 1
	call	vTaskEnterCritical
.LVL73:
	.loc 2 266 9
	.loc 2 266 27 is_stmt 0
	sw	zero,100(s0)
	.loc 2 267 9 is_stmt 1
	.loc 2 267 29 is_stmt 0
	sw	zero,108(s0)
	.loc 2 268 9 is_stmt 1
	call	vTaskExitCritical
.LVL74:
	.loc 2 270 9
.L77:
	.loc 2 286 5
	mv	a0,s5
	call	aos_mutex_unlock
.LVL75:
	.loc 2 288 5
	.loc 2 289 1 is_stmt 0
	lw	ra,28(sp)
	.cfi_remember_state
	.cfi_restore 1
	lw	s0,24(sp)
	.cfi_restore 8
.LVL76:
	lw	s1,20(sp)
	.cfi_restore 9
.LVL77:
	lw	s2,16(sp)
	.cfi_restore 18
.LVL78:
	lw	s3,12(sp)
	.cfi_restore 19
.LVL79:
	lw	s4,8(sp)
	.cfi_restore 20
	lw	s5,4(sp)
	.cfi_restore 21
.LVL80:
	li	a0,0
	addi	sp,sp,32
	.cfi_def_cfa_offset 0
	jr	ra
.LVL81:
.L76:
	.cfi_restore_state
	.loc 2 273 5 is_stmt 1
	call	vTaskEnterCritical
.LVL82:
	.loc 2 275 5
	.loc 2 275 23 is_stmt 0
	sw	s1,100(s0)
	.loc 2 276 5 is_stmt 1
	.loc 2 276 18 is_stmt 0
	sw	s2,104(s0)
	.loc 2 277 5 is_stmt 1
	.loc 2 277 25 is_stmt 0
	sw	s3,108(s0)
	.loc 2 278 5 is_stmt 1
	call	vTaskExitCritical
.LVL83:
	.loc 2 281 5
	.loc 2 281 9 is_stmt 0
	lw	a0,80(s0)
	call	xStreamBufferIsEmpty
.LVL84:
	.loc 2 281 8
	li	a5,1
	beq	a0,a5,.L77
	.loc 2 282 9 is_stmt 1
	.loc 2 282 34 is_stmt 0
	lw	a4,104(s0)
	.loc 2 283 10
	mv	a1,s3
	mv	a0,s2
	.loc 2 282 49
	lhu	a5,6(a4)
	ori	a5,a5,1
	sh	a5,6(a4)
	.loc 2 283 9 is_stmt 1
	.loc 2 283 10 is_stmt 0
	jalr	s1
.LVL85:
	j	.L77
	.cfi_endproc
.LFE45:
	.size	vfs_uart_poll, .-vfs_uart_poll
	.section	.text.__uart_tx_irq,"ax",@progbits
	.align	1
	.type	__uart_tx_irq, @function
__uart_tx_irq:
.LFB40:
	.loc 2 70 1 is_stmt 1
	.cfi_startproc
.LVL86:
	.loc 2 71 5
	.loc 2 70 1 is_stmt 0
	addi	sp,sp,-32
	.cfi_def_cfa_offset 32
	sw	s0,24(sp)
	sw	s1,20(sp)
	sw	ra,28(sp)
	.cfi_offset 8, -8
	.cfi_offset 9, -12
	.cfi_offset 1, -4
	.loc 2 70 1
	mv	s0,a0
	.loc 2 76 11
	lw	a0,84(a0)
.LVL87:
	addi	a3,sp,12
	li	a2,1
	addi	a1,sp,11
	.loc 2 71 16
	sw	zero,12(sp)
	.loc 2 72 5 is_stmt 1
.LVL88:
	.loc 2 73 5
	.loc 2 74 5
	.loc 2 76 5
	.loc 2 76 11 is_stmt 0
	call	xStreamBufferReceiveFromISR
.LVL89:
	.loc 2 78 7
	lw	a5,12(sp)
	.loc 2 76 11
	mv	s1,a0
.LVL90:
	.loc 2 78 5 is_stmt 1
	.loc 2 78 7 is_stmt 0
	beq	a5,zero,.L80
	.loc 2 78 36 is_stmt 1 discriminator 1
	call	vTaskSwitchContext
.LVL91:
.L80:
	.loc 2 79 5
	.loc 2 79 8 is_stmt 0
	li	a5,1
	bne	s1,a5,.L81
	.loc 2 80 9 is_stmt 1
	li	a2,1
	addi	a1,sp,11
	mv	a0,s0
	call	hosal_uart_send
.LVL92:
.L82:
	.loc 2 84 5
	.loc 2 85 1 is_stmt 0
	lw	ra,28(sp)
	.cfi_remember_state
	.cfi_restore 1
	lw	s0,24(sp)
	.cfi_restore 8
.LVL93:
	lw	s1,20(sp)
	.cfi_restore 9
.LVL94:
	li	a0,0
	addi	sp,sp,32
	.cfi_def_cfa_offset 0
	jr	ra
.LVL95:
.L81:
	.cfi_restore_state
.LBB5:
.LBB6:
	.loc 2 82 9 is_stmt 1
	li	a2,0
	li	a1,17
	mv	a0,s0
	call	hosal_uart_ioctl
.LVL96:
	j	.L82
.LBE6:
.LBE5:
	.cfi_endproc
.LFE40:
	.size	__uart_tx_irq, .-__uart_tx_irq
	.section	.text.uart_ioctl_cmd_waimode,"ax",@progbits
	.align	1
	.globl	uart_ioctl_cmd_waimode
	.type	uart_ioctl_cmd_waimode, @function
uart_ioctl_cmd_waimode:
.LFB46:
	.loc 2 292 1
	.cfi_startproc
.LVL97:
	.loc 2 293 5
	.loc 2 294 5
	.loc 2 295 5
	.loc 2 296 5
	.loc 2 298 5
	.loc 2 292 1 is_stmt 0
	addi	sp,sp,-48
	.cfi_def_cfa_offset 48
	sw	s1,36(sp)
	sw	ra,44(sp)
	sw	s0,40(sp)
	sw	s2,32(sp)
	sw	s3,28(sp)
	sw	s4,24(sp)
	sw	s5,20(sp)
	sw	s6,16(sp)
	sw	s7,12(sp)
	.cfi_offset 9, -12
	.cfi_offset 1, -4
	.cfi_offset 8, -8
	.cfi_offset 18, -16
	.cfi_offset 19, -20
	.cfi_offset 20, -24
	.cfi_offset 21, -28
	.cfi_offset 22, -32
	.cfi_offset 23, -36
	.loc 2 299 16
	li	s1,-22
	.loc 2 298 8
	beq	a2,zero,.L87
	.loc 2 304 74
	lw	s0,8(a2)
	li	a3,1000
	.loc 2 302 23
	lw	s6,4(a2)
	.loc 2 304 74
	mul	s0,a3,s0
	mv	s4,a0
	mv	s5,a1
	mv	s3,a2
	.loc 2 302 5 is_stmt 1
.LVL98:
	.loc 2 304 5
	.loc 2 293 9 is_stmt 0
	li	s1,0
	.loc 2 315 12
	li	s7,5
	.loc 2 304 13
	divu	s0,s0,a3
.LVL99:
.L89:
	.loc 2 306 5 is_stmt 1
	.loc 2 307 9
	.loc 2 307 21 is_stmt 0
	call	xTaskGetTickCount
.LVL100:
	.loc 2 308 16
	lw	a1,0(s3)
	.loc 2 307 21
	mv	s2,a0
.LVL101:
	.loc 2 308 9 is_stmt 1
	.loc 2 308 16 is_stmt 0
	lw	a0,80(s4)
.LVL102:
	sub	a2,s6,s1
	add	a1,a1,s1
	mv	a3,s0
	call	xStreamBufferReceive
.LVL103:
	.loc 2 308 13
	add	s1,s1,a0
.LVL104:
	.loc 2 312 9 is_stmt 1
	.loc 2 312 12 is_stmt 0
	beq	s6,s1,.L87
	.loc 2 312 29 discriminator 1
	beq	s0,zero,.L87
	.loc 2 315 9 is_stmt 1
	.loc 2 315 12 is_stmt 0
	bne	s5,s7,.L87
	.loc 2 316 13 is_stmt 1
	.loc 2 316 27 is_stmt 0
	call	xTaskGetTickCount
.LVL105:
	.loc 2 317 13 is_stmt 1
	.loc 2 316 25 is_stmt 0
	sub	a5,a0,s2
.LVL106:
	.loc 2 317 16
	bleu	s0,a5,.L87
	.loc 2 318 17 is_stmt 1
	.loc 2 318 25 is_stmt 0
	sub	s2,s2,a0
.LVL107:
	add	s0,s0,s2
.LVL108:
	.loc 2 319 17 is_stmt 1
	.loc 2 306 11
	.loc 2 307 19 is_stmt 0
	j	.L89
.LVL109:
.L87:
	.loc 2 326 1
	lw	ra,44(sp)
	.cfi_restore 1
	lw	s0,40(sp)
	.cfi_restore 8
	lw	s2,32(sp)
	.cfi_restore 18
	lw	s3,28(sp)
	.cfi_restore 19
	lw	s4,24(sp)
	.cfi_restore 20
	lw	s5,20(sp)
	.cfi_restore 21
	lw	s6,16(sp)
	.cfi_restore 22
	lw	s7,12(sp)
	.cfi_restore 23
	mv	a0,s1
	lw	s1,36(sp)
	.cfi_restore 9
	addi	sp,sp,48
	.cfi_def_cfa_offset 0
	jr	ra
	.cfi_endproc
.LFE46:
	.size	uart_ioctl_cmd_waimode, .-uart_ioctl_cmd_waimode
	.section	.text.vfs_uart_ioctl,"ax",@progbits
	.align	1
	.globl	vfs_uart_ioctl
	.type	vfs_uart_ioctl, @function
vfs_uart_ioctl:
.LFB47:
	.loc 2 329 1 is_stmt 1
	.cfi_startproc
.LVL110:
	.loc 2 330 5
	.loc 2 331 5
	.loc 2 334 5
	.loc 2 329 1 is_stmt 0
	addi	sp,sp,-48
	.cfi_def_cfa_offset 48
	sw	s0,40(sp)
	sw	ra,44(sp)
	sw	s1,36(sp)
	sw	s2,32(sp)
	sw	s3,28(sp)
	.cfi_offset 8, -8
	.cfi_offset 1, -4
	.cfi_offset 9, -12
	.cfi_offset 18, -16
	.cfi_offset 19, -20
	.loc 2 329 1
	sw	a2,12(sp)
	.loc 2 335 16
	li	s0,-22
	.loc 2 334 8
	beq	a0,zero,.L95
	.loc 2 334 27 discriminator 1
	lw	a5,0(a0)
	.loc 2 335 16 discriminator 1
	li	s0,-22
	.loc 2 334 21 discriminator 1
	beq	a5,zero,.L95
	.loc 2 339 5 is_stmt 1
	.loc 2 339 14 is_stmt 0
	lw	s1,4(a5)
.LVL111:
	.loc 2 341 5 is_stmt 1
	.loc 2 341 8 is_stmt 0
	beq	s1,zero,.L95
	.loc 2 345 34
	addi	s3,s1,96
	mv	s2,a1
	.loc 2 345 5 is_stmt 1
	mv	a0,s3
.LVL112:
	li	a1,-1
.LVL113:
	call	aos_mutex_lock
.LVL114:
	.loc 2 346 5
	addi	a5,s2,-2
	li	a4,12
	bgtu	a5,a4,.L111
	lui	a4,%hi(.L99)
	slli	a5,a5,2
	addi	a4,a4,%lo(.L99)
	add	a5,a5,a4
	lw	a5,0(a5)
	lw	a2,12(sp)
	jr	a5
	.section	.rodata.vfs_uart_ioctl,"a",@progbits
	.align	2
	.align	2
.L99:
	.word	.L107
	.word	.L106
	.word	.L105
	.word	.L105
	.word	.L104
	.word	.L103
	.word	.L102
	.word	.L111
	.word	.L101
	.word	.L111
	.word	.L100
	.word	.L111
	.word	.L98
	.section	.text.vfs_uart_ioctl
.L105:
	.loc 2 350 13
	.loc 2 350 19 is_stmt 0
	mv	a1,s2
	mv	a0,s1
	call	uart_ioctl_cmd_waimode
.LVL115:
	mv	s0,a0
.LVL116:
	.loc 2 352 9 is_stmt 1
.L97:
	.loc 2 403 5
	mv	a0,s3
	call	aos_mutex_unlock
.LVL117:
	.loc 2 405 5
.L95:
	.loc 2 406 1 is_stmt 0
	lw	ra,44(sp)
	.cfi_remember_state
	.cfi_restore 1
	mv	a0,s0
	lw	s0,40(sp)
	.cfi_restore 8
	lw	s1,36(sp)
	.cfi_restore 9
	lw	s2,32(sp)
	.cfi_restore 18
	lw	s3,28(sp)
	.cfi_restore 19
	addi	sp,sp,48
	.cfi_def_cfa_offset 0
.LVL118:
	jr	ra
.LVL119:
.L107:
	.cfi_restore_state
	.loc 2 355 10 is_stmt 1
	li	a2,0
	li	a1,15
.L113:
	.loc 2 394 13 is_stmt 0
	mv	a0,s1
	call	hosal_uart_ioctl
.LVL120:
	j	.L114
.L106:
	.loc 2 360 13 is_stmt 1
	li	a1,1
	j	.L113
.L104:
	.loc 2 365 13
	.loc 2 365 39 is_stmt 0
	li	a5,1
	sb	a5,116(s1)
	.loc 2 366 13 is_stmt 1
	.loc 2 366 39 is_stmt 0
	sw	a2,124(s1)
	.loc 2 368 9 is_stmt 1
.L114:
	.loc 2 396 9
	.loc 2 330 9 is_stmt 0
	li	s0,0
	.loc 2 396 9
	j	.L97
.L103:
	.loc 2 371 13 is_stmt 1
	.loc 2 371 39 is_stmt 0
	li	a5,2
	sb	a5,116(s1)
	.loc 2 373 9 is_stmt 1
	j	.L114
.L101:
	.loc 2 376 13
	li	a1,5
	j	.L113
.L102:
	.loc 2 382 13
	li	a1,9
	j	.L113
.L100:
	.loc 2 388 13
	li	a1,7
	j	.L113
.L98:
	.loc 2 394 13
	li	a1,3
	j	.L113
.L111:
	.loc 2 345 5 is_stmt 0
	li	s0,-22
	j	.L97
	.cfi_endproc
.LFE47:
	.size	vfs_uart_ioctl, .-vfs_uart_ioctl
	.section	.rodata.vfs_uart_init.str1.4,"aMS",@progbits,1
	.align	2
.LC6:
	.string	"status"
	.align	2
.LC7:
	.string	"okay"
	.align	2
.LC8:
	.string	"path"
	.align	2
.LC9:
	.string	"baudrate"
	.align	2
.LC10:
	.string	"id"
	.align	2
.LC11:
	.string	"buf_size"
	.align	2
.LC12:
	.string	"rx_size"
	.align	2
.LC13:
	.string	"tx_size"
	.align	2
.LC14:
	.string	"feature"
	.align	2
.LC15:
	.string	"pin"
	.section	.text.vfs_uart_init,"ax",@progbits
	.align	1
	.globl	vfs_uart_init
	.type	vfs_uart_init, @function
vfs_uart_init:
.LFB50:
	.loc 2 609 1 is_stmt 1
	.cfi_startproc
.LVL121:
	.loc 2 610 2
	.loc 2 612 5
	.loc 2 609 1 is_stmt 0
	addi	sp,sp,-192
	.cfi_def_cfa_offset 192
	.loc 2 612 16
	lui	a5,%hi(.LANCHOR0)
	.loc 2 609 1
	sw	a3,16(sp)
	.loc 2 612 8
	lbu	a3,%lo(.LANCHOR0)(a5)
.LVL122:
	addi	a5,a5,%lo(.LANCHOR0)
	.loc 2 609 1
	sw	ra,188(sp)
	sw	s0,184(sp)
	sw	s1,180(sp)
	sw	s2,176(sp)
	sw	s3,172(sp)
	sw	s4,168(sp)
	sw	s5,164(sp)
	sw	s6,160(sp)
	sw	s7,156(sp)
	sw	s8,152(sp)
	sw	s9,148(sp)
	sw	s10,144(sp)
	sw	s11,140(sp)
	.cfi_offset 1, -4
	.cfi_offset 8, -8
	.cfi_offset 9, -12
	.cfi_offset 18, -16
	.cfi_offset 19, -20
	.cfi_offset 20, -24
	.cfi_offset 21, -28
	.cfi_offset 22, -32
	.cfi_offset 23, -36
	.cfi_offset 24, -40
	.cfi_offset 25, -44
	.cfi_offset 26, -48
	.cfi_offset 27, -52
	.loc 2 609 1
	sw	a1,8(sp)
	sw	a2,12(sp)
	.loc 2 612 8
	li	a4,1
	sw	a5,20(sp)
	beq	a3,a4,.L116
.LBB10:
.LBB11:
	.loc 2 458 7
	lui	a1,%hi(.LANCHOR1)
.LVL123:
	mv	s0,a0
.LBE11:
.LBE10:
	.loc 2 616 5 is_stmt 1
.LVL124:
.LBB17:
.LBB15:
	.loc 2 439 5
	.loc 2 440 5
	.loc 2 442 5
	.loc 2 443 5
	.loc 2 458 7 is_stmt 0
	li	a2,48
.LVL125:
	addi	a1,a1,%lo(.LANCHOR1)
	addi	a0,sp,80
.LVL126:
	.loc 2 443 9
	sw	zero,44(sp)
	.loc 2 444 5 is_stmt 1
.LVL127:
	.loc 2 445 5
	.loc 2 446 5
	.loc 2 447 5
	.loc 2 449 5
	.loc 2 450 5
	.loc 2 451 5
	.loc 2 452 5
	.loc 2 454 5
	.loc 2 481 12 is_stmt 0
	li	s3,0
	.loc 2 458 7
	call	memcpy
.LVL128:
	.loc 2 481 5 is_stmt 1
.LBB12:
	.loc 2 488 22 is_stmt 0
	lui	s7,%hi(.LC6)
	.loc 2 494 31
	lui	s8,%hi(.LC7)
	.loc 2 500 22
	lui	s9,%hi(.LC8)
.LVL129:
.L117:
.LBE12:
	.loc 2 481 17 is_stmt 1
	.loc 2 481 5 is_stmt 0
	lw	a5,16(sp)
	bgt	a5,s3,.L128
.L127:
.LVL130:
.LBE15:
.LBE17:
	.loc 2 618 5 is_stmt 1
	.loc 2 618 12 is_stmt 0
	lw	a4,20(sp)
	li	a5,1
	sb	a5,0(a4)
	.loc 2 620 5 is_stmt 1
.LVL131:
.L116:
	.loc 2 621 1 is_stmt 0
	lw	ra,188(sp)
	.cfi_remember_state
	.cfi_restore 1
	lw	s0,184(sp)
	.cfi_restore 8
	lw	s1,180(sp)
	.cfi_restore 9
	lw	s2,176(sp)
	.cfi_restore 18
	lw	s3,172(sp)
	.cfi_restore 19
	lw	s4,168(sp)
	.cfi_restore 20
	lw	s5,164(sp)
	.cfi_restore 21
	lw	s6,160(sp)
	.cfi_restore 22
	lw	s7,156(sp)
	.cfi_restore 23
	lw	s8,152(sp)
	.cfi_restore 24
	lw	s9,148(sp)
	.cfi_restore 25
	lw	s10,144(sp)
	.cfi_restore 26
	lw	s11,140(sp)
	.cfi_restore 27
	li	a0,0
	addi	sp,sp,192
	.cfi_def_cfa_offset 0
.LVL132:
	jr	ra
.LVL133:
.L128:
	.cfi_restore_state
.LBB18:
.LBB16:
.LBB13:
	.loc 2 482 9 is_stmt 1
	.loc 2 482 19 is_stmt 0
	lw	a4,12(sp)
	slli	a5,s3,2
	lw	a1,8(sp)
	add	a5,a4,a5
	lw	a2,0(a5)
	mv	a0,s0
	call	fdt_subnode_offset
.LVL134:
	mv	s1,a0
.LVL135:
	.loc 2 483 9 is_stmt 1
	.loc 2 483 12 is_stmt 0
	ble	a0,zero,.L126
	.loc 2 488 9 is_stmt 1
	.loc 2 488 22 is_stmt 0
	mv	a1,a0
	addi	a2,s7,%lo(.LC6)
	mv	a0,s0
	call	fdt_stringlist_count
.LVL136:
	.loc 2 489 12
	li	a5,1
	.loc 2 488 22
	mv	s2,a0
.LVL137:
	.loc 2 489 9 is_stmt 1
	.loc 2 489 12 is_stmt 0
	bne	a0,a5,.L126
	.loc 2 493 9 is_stmt 1
	.loc 2 493 18 is_stmt 0
	addi	a4,sp,44
	mv	a1,s1
	li	a3,0
	addi	a2,s7,%lo(.LC6)
	mv	a0,s0
.LVL138:
	call	fdt_stringlist_get
.LVL139:
	.loc 2 494 12
	lw	a4,44(sp)
	li	a5,4
	.loc 2 493 18
	mv	a1,a0
.LVL140:
	.loc 2 494 9 is_stmt 1
	.loc 2 494 12 is_stmt 0
	bne	a4,a5,.L126
	.loc 2 494 31
	li	a2,4
	addi	a0,s8,%lo(.LC7)
.LVL141:
	call	memcmp
.LVL142:
	.loc 2 494 27
	bne	a0,zero,.L126
	.loc 2 500 9 is_stmt 1
	.loc 2 500 22 is_stmt 0
	addi	a2,s9,%lo(.LC8)
	mv	a1,s1
	mv	a0,s0
	call	fdt_stringlist_count
.LVL143:
	.loc 2 501 9 is_stmt 1
	.loc 2 501 12 is_stmt 0
	bne	a0,s2,.L126
	.loc 2 505 9 is_stmt 1
	.loc 2 505 18 is_stmt 0
	li	a3,0
	addi	a2,s9,%lo(.LC8)
	mv	a1,s1
	addi	a4,sp,44
	mv	a0,s0
.LVL144:
	call	fdt_stringlist_get
.LVL145:
	.loc 2 513 21
	lui	a5,%hi(.LC9)
	.loc 2 505 18
	mv	s6,a0
.LVL146:
	.loc 2 506 9 is_stmt 1
	.loc 2 508 13
	.loc 2 510 9
	.loc 2 513 9
	.loc 2 513 21 is_stmt 0
	addi	a3,sp,44
	addi	a2,a5,%lo(.LC9)
	mv	a1,s1
	mv	a0,s0
.LVL147:
	call	fdt_getprop
.LVL148:
	.loc 2 514 9 is_stmt 1
	.loc 2 514 12 is_stmt 0
	beq	a0,zero,.L126
	.loc 2 518 9 is_stmt 1
	.loc 2 521 21 is_stmt 0
	lui	a5,%hi(.LC10)
	.loc 2 518 31
	lw	s10,0(a0)
	.loc 2 521 9 is_stmt 1
	.loc 2 521 21 is_stmt 0
	addi	a3,sp,44
	addi	a2,a5,%lo(.LC10)
	mv	a1,s1
	mv	a0,s0
.LVL149:
	call	fdt_getprop
.LVL150:
	.loc 2 522 9 is_stmt 1
	.loc 2 522 12 is_stmt 0
	beq	a0,zero,.L126
	.loc 2 526 9 is_stmt 1
	.loc 2 529 19 is_stmt 0
	lui	a2,%hi(.LC11)
	.loc 2 526 24
	lw	s11,0(a0)
.LVL151:
	.loc 2 529 9 is_stmt 1
	.loc 2 529 19 is_stmt 0
	mv	a1,s1
	addi	a2,a2,%lo(.LC11)
	mv	a0,s0
.LVL152:
	call	fdt_subnode_offset
.LVL153:
	mv	a1,a0
.LVL154:
	.loc 2 530 9 is_stmt 1
	.loc 2 530 12 is_stmt 0
	ble	a0,zero,.L129
	.loc 2 535 13 is_stmt 1
	.loc 2 535 25 is_stmt 0
	lui	a2,%hi(.LC12)
	sw	a0,24(sp)
	addi	a3,sp,44
	addi	a2,a2,%lo(.LC12)
	mv	a0,s0
.LVL155:
	call	fdt_getprop
.LVL156:
	.loc 2 536 13 is_stmt 1
	.loc 2 536 16 is_stmt 0
	beq	a0,zero,.L126
	.loc 2 540 13 is_stmt 1
	.loc 2 541 25 is_stmt 0
	lw	a1,24(sp)
	lui	a2,%hi(.LC13)
	.loc 2 540 38
	lw	s4,0(a0)
	.loc 2 541 13 is_stmt 1
	.loc 2 541 25 is_stmt 0
	addi	a3,sp,44
	addi	a2,a2,%lo(.LC13)
	mv	a0,s0
.LVL157:
	call	fdt_getprop
.LVL158:
	mv	s2,a0
.LVL159:
	.loc 2 542 13 is_stmt 1
	.loc 2 542 16 is_stmt 0
	beq	a0,zero,.L126
	.loc 2 540 38
	mv	a0,s4
.LVL160:
	call	fdt32_to_cpu
.LVL161:
	mv	s5,a0
	.loc 2 546 13 is_stmt 1
	.loc 2 546 38 is_stmt 0
	lw	a0,0(s2)
	call	fdt32_to_cpu
.LVL162:
	mv	s4,a0
.LVL163:
.L119:
	.loc 2 548 9 is_stmt 1
	.loc 2 550 9
	.loc 2 550 21
	addi	s2,sp,80
.LVL164:
.L124:
	.loc 2 551 13
	.loc 2 551 23 is_stmt 0
	lui	a5,%hi(.LC14)
	mv	a1,s1
	addi	a2,a5,%lo(.LC14)
	mv	a0,s0
	call	fdt_subnode_offset
.LVL165:
	mv	a1,a0
.LVL166:
	.loc 2 552 13 is_stmt 1
	.loc 2 552 16 is_stmt 0
	ble	a0,zero,.L121
	.loc 2 556 13 is_stmt 1
	.loc 2 556 75 is_stmt 0
	lw	a2,0(s2)
	.loc 2 556 26
	sw	a0,24(sp)
	mv	a0,s0
.LVL167:
	sw	a2,28(sp)
	call	fdt_stringlist_count
.LVL168:
	.loc 2 557 13 is_stmt 1
	.loc 2 557 16 is_stmt 0
	li	a5,1
	lw	a1,24(sp)
	lw	a2,28(sp)
	bne	a0,a5,.L121
	.loc 2 561 13 is_stmt 1
	.loc 2 561 22 is_stmt 0
	addi	a4,sp,44
	li	a3,0
	mv	a0,s0
.LVL169:
	call	fdt_stringlist_get
.LVL170:
	.loc 2 562 16
	lw	a5,44(sp)
	li	a4,4
	.loc 2 561 22
	mv	a1,a0
.LVL171:
	.loc 2 562 13 is_stmt 1
	.loc 2 562 16 is_stmt 0
	bne	a5,a4,.L121
	.loc 2 562 35
	li	a2,4
	addi	a0,s8,%lo(.LC7)
.LVL172:
	call	memcmp
.LVL173:
	.loc 2 562 31
	bne	a0,zero,.L121
	.loc 2 568 13 is_stmt 1
	.loc 2 568 23 is_stmt 0
	lui	a5,%hi(.LC15)
	mv	a1,s1
	addi	a2,a5,%lo(.LC15)
	mv	a0,s0
	call	fdt_subnode_offset
.LVL174:
	mv	a1,a0
.LVL175:
	.loc 2 569 13 is_stmt 1
	.loc 2 569 16 is_stmt 0
	ble	a0,zero,.L123
	.loc 2 573 13 is_stmt 1
	.loc 2 573 25 is_stmt 0
	lw	a2,4(s2)
	addi	a3,sp,44
	mv	a0,s0
.LVL176:
	call	fdt_getprop
.LVL177:
	.loc 2 574 13 is_stmt 1
	.loc 2 574 16 is_stmt 0
	beq	a0,zero,.L121
	.loc 2 578 13 is_stmt 1
	.loc 2 578 46 is_stmt 0
	lw	a0,0(a0)
.LVL178:
	call	fdt32_to_cpu
.LVL179:
	.loc 2 578 37
	sb	a0,8(s2)
.L121:
	.loc 2 550 28 is_stmt 1
	.loc 2 550 21
	.loc 2 550 9 is_stmt 0
	addi	s2,s2,12
	addi	a5,sp,128
	bne	s2,a5,.L124
.L123:
	.loc 2 586 22 is_stmt 1
	.loc 2 588 9
	.loc 2 588 41 is_stmt 0
	li	a1,1
	li	a0,128
	call	calloc
.LVL180:
	mv	s1,a0
.LVL181:
	.loc 2 589 9 is_stmt 1
	.loc 2 589 12 is_stmt 0
	beq	a0,zero,.L127
	.loc 2 593 9 is_stmt 1
	.loc 2 593 29 is_stmt 0
	li	a2,28
	li	a1,0
	addi	a0,sp,52
	call	memset
.LVL182:
	.loc 2 593 76
	lbu	a5,88(sp)
	.loc 2 526 24
	mv	a0,s11
	.loc 2 593 108
	lbu	s2,100(sp)
	.loc 2 593 76
	sw	a5,24(sp)
.LVL183:
	.loc 2 593 299 is_stmt 1
	.loc 2 594 9
	.loc 2 526 24 is_stmt 0
	call	fdt32_to_cpu
.LVL184:
	.loc 2 594 31
	lw	a5,24(sp)
	.loc 2 526 12
	sb	a0,48(sp)
	.loc 2 518 31
	mv	a0,s10
	.loc 2 594 31
	sb	a5,49(sp)
	li	a5,-1
	sb	a5,51(sp)
	sb	a5,52(sp)
	sb	s2,50(sp)
	.loc 2 518 31
	call	fdt32_to_cpu
.LVL185:
	.loc 2 594 31
	li	a5,3
	li	a2,32
	addi	a1,sp,48
	sw	a0,56(sp)
	addi	a0,s1,4
	sw	a5,60(sp)
	call	memcpy
.LVL186:
	.loc 2 595 9 is_stmt 1
	mv	a0,s1
	call	hosal_uart_init
.LVL187:
	.loc 2 596 9
	.loc 2 599 15 is_stmt 0
	lui	a1,%hi(.LANCHOR2)
	.loc 2 596 31
	sw	s5,88(s1)
	.loc 2 597 9 is_stmt 1
	.loc 2 597 31 is_stmt 0
	sw	s4,92(s1)
	.loc 2 599 9 is_stmt 1
	.loc 2 599 15 is_stmt 0
	mv	a2,s1
	addi	a1,a1,%lo(.LANCHOR2)
	mv	a0,s6
	call	aos_register_driver
.LVL188:
	.loc 2 600 9 is_stmt 1
	.loc 2 600 12 is_stmt 0
	bne	a0,zero,.L127
.LVL189:
.L126:
.LBE13:
	.loc 2 481 31 is_stmt 1
	.loc 2 481 32 is_stmt 0
	addi	s3,s3,1
.LVL190:
	j	.L117
.LVL191:
.L129:
.LBB14:
	.loc 2 533 25
	li	s4,512
	.loc 2 532 25
	li	s5,512
	j	.L119
.LBE14:
.LBE16:
.LBE18:
	.cfi_endproc
.LFE50:
	.size	vfs_uart_init, .-vfs_uart_init
	.section	.text.vfs_uart_init_simple_mode,"ax",@progbits
	.align	1
	.globl	vfs_uart_init_simple_mode
	.type	vfs_uart_init_simple_mode, @function
vfs_uart_init_simple_mode:
.LFB51:
	.loc 2 624 1 is_stmt 1
	.cfi_startproc
.LVL192:
	.loc 2 625 5
	.loc 2 626 5
	.loc 2 624 1 is_stmt 0
	addi	sp,sp,-64
	.cfi_def_cfa_offset 64
	sw	s4,40(sp)
	sw	s5,36(sp)
	.cfi_offset 20, -24
	.cfi_offset 21, -28
	mv	s4,a1
	mv	s5,a0
	.loc 2 626 37
	li	a1,1
.LVL193:
	li	a0,128
.LVL194:
	.loc 2 624 1
	sw	s1,52(sp)
	sw	s2,48(sp)
	sw	s3,44(sp)
	sw	ra,60(sp)
	sw	s0,56(sp)
	.cfi_offset 9, -12
	.cfi_offset 18, -16
	.cfi_offset 19, -20
	.cfi_offset 1, -4
	.cfi_offset 8, -8
	.loc 2 624 1
	mv	s3,a2
	mv	s2,a3
	mv	s1,a4
	.loc 2 626 37
	call	calloc
.LVL195:
	.loc 2 628 5 is_stmt 1
	.loc 2 628 8 is_stmt 0
	beq	a0,zero,.L151
	mv	s0,a0
	.loc 2 633 5 is_stmt 1
	.loc 2 633 25 is_stmt 0
	li	a2,28
	li	a1,0
	addi	a0,sp,4
.LVL196:
	call	memset
.LVL197:
	.loc 2 633 267 is_stmt 1
	.loc 2 634 5
	.loc 2 634 27 is_stmt 0
	li	a5,-1
	mv	a1,sp
	sb	a5,3(sp)
	sb	a5,4(sp)
	li	a2,32
	li	a5,3
	addi	a0,s0,4
	sw	a5,12(sp)
	sb	s5,0(sp)
	sb	s4,1(sp)
	sb	s3,2(sp)
	sw	s2,8(sp)
	call	memcpy
.LVL198:
	.loc 2 635 5 is_stmt 1
	mv	a0,s0
	call	hosal_uart_init
.LVL199:
	.loc 2 636 5
	.loc 2 636 27 is_stmt 0
	li	a5,1024
	sw	a5,88(s0)
	.loc 2 637 5 is_stmt 1
	.loc 2 637 27 is_stmt 0
	sw	a5,92(s0)
	.loc 2 639 5 is_stmt 1
	.loc 2 639 11 is_stmt 0
	mv	a2,s0
	.loc 2 645 1
	lw	s0,56(sp)
	.cfi_remember_state
	.cfi_restore 8
.LVL200:
	lw	ra,60(sp)
	.cfi_restore 1
	lw	s2,48(sp)
	.cfi_restore 18
.LVL201:
	lw	s3,44(sp)
	.cfi_restore 19
.LVL202:
	lw	s4,40(sp)
	.cfi_restore 20
.LVL203:
	lw	s5,36(sp)
	.cfi_restore 21
.LVL204:
	.loc 2 639 11
	mv	a0,s1
	.loc 2 645 1
	lw	s1,52(sp)
	.cfi_restore 9
.LVL205:
	.loc 2 639 11
	lui	a1,%hi(.LANCHOR2)
	.loc 2 645 1
	.loc 2 639 11
	addi	a1,a1,%lo(.LANCHOR2)
	.loc 2 645 1
	addi	sp,sp,64
	.cfi_def_cfa_offset 0
	.loc 2 639 11
	tail	aos_register_driver
.LVL206:
.L151:
	.cfi_restore_state
	.loc 2 645 1
	lw	ra,60(sp)
	.cfi_restore 1
	lw	s0,56(sp)
	.cfi_restore 8
	lw	s1,52(sp)
	.cfi_restore 9
.LVL207:
	lw	s2,48(sp)
	.cfi_restore 18
.LVL208:
	lw	s3,44(sp)
	.cfi_restore 19
	lw	s4,40(sp)
	.cfi_restore 20
	lw	s5,36(sp)
	.cfi_restore 21
	li	a0,-1
.LVL209:
	addi	sp,sp,64
	.cfi_def_cfa_offset 0
	jr	ra
	.cfi_endproc
.LFE51:
	.size	vfs_uart_init_simple_mode, .-vfs_uart_init_simple_mode
	.globl	uart_ops
	.section	.rodata
	.align	2
	.set	.LANCHOR1,. + 0
.LC5:
	.word	.LC0
	.word	.LC0
	.byte	-1
	.zero	3
	.word	.LC1
	.word	.LC1
	.byte	-1
	.zero	3
	.word	.LC2
	.word	.LC2
	.byte	-1
	.zero	3
	.word	.LC3
	.word	.LC3
	.byte	-1
	.zero	3
	.section	.rodata.uart_ops,"a"
	.align	2
	.set	.LANCHOR2,. + 0
	.type	uart_ops, @object
	.size	uart_ops, 28
uart_ops:
	.word	vfs_uart_open
	.word	vfs_uart_close
	.word	vfs_uart_read
	.word	vfs_uart_write
	.word	vfs_uart_ioctl
	.word	vfs_uart_poll
	.word	vfs_uart_sync
	.section	.sbss.inited.0,"aw",@nobits
	.set	.LANCHOR0,. + 0
	.type	inited.0, @object
	.size	inited.0, 1
inited.0:
	.zero	1
	.text
.Letext0:
	.file 3 "/mnt/d/GitHub/bl_iot_sdk_for_aithinker/toolchain/riscv/Linux/riscv64-unknown-elf/include/machine/_default_types.h"
	.file 4 "/mnt/d/GitHub/bl_iot_sdk_for_aithinker/toolchain/riscv/Linux/lib/gcc/riscv64-unknown-elf/10.2.0/include/stddef.h"
	.file 5 "/mnt/d/GitHub/bl_iot_sdk_for_aithinker/toolchain/riscv/Linux/riscv64-unknown-elf/include/sys/_types.h"
	.file 6 "/mnt/d/GitHub/bl_iot_sdk_for_aithinker/toolchain/riscv/Linux/riscv64-unknown-elf/include/sys/_stdint.h"
	.file 7 "/mnt/d/GitHub/bl_iot_sdk_for_aithinker/toolchain/riscv/Linux/riscv64-unknown-elf/include/sys/_timeval.h"
	.file 8 "/mnt/d/GitHub/bl_iot_sdk_for_aithinker/toolchain/riscv/Linux/riscv64-unknown-elf/include/sys/_timespec.h"
	.file 9 "/mnt/d/GitHub/bl_iot_sdk_for_aithinker/toolchain/riscv/Linux/riscv64-unknown-elf/include/sys/types.h"
	.file 10 "/mnt/d/GitHub/bl_iot_sdk_for_aithinker/components/platform/soc/bl602/freertos_riscv_ram/portable/GCC/RISC-V/portmacro.h"
	.file 11 "/mnt/d/GitHub/bl_iot_sdk_for_aithinker/components/stage/yloop/include/aos/kernel.h"
	.file 12 "/mnt/d/GitHub/bl_iot_sdk_for_aithinker/toolchain/riscv/Linux/riscv64-unknown-elf/include/sys/stat.h"
	.file 13 "/mnt/d/GitHub/bl_iot_sdk_for_aithinker/components/fs/vfs/include/vfs_dir.h"
	.file 14 "/mnt/d/GitHub/bl_iot_sdk_for_aithinker/components/fs/vfs/include/vfs_inode.h"
	.file 15 "/mnt/d/GitHub/bl_iot_sdk_for_aithinker/components/stage/yloop/include/yloop_types.h"
	.file 16 "/mnt/d/GitHub/bl_iot_sdk_for_aithinker/components/fs/vfs/include/device/vfs_uart.h"
	.file 17 "/mnt/d/GitHub/bl_iot_sdk_for_aithinker/components/platform/hosal/include/hosal_dma.h"
	.file 18 "/mnt/d/GitHub/bl_iot_sdk_for_aithinker/components/platform/hosal/include/hosal_uart.h"
	.file 19 "<built-in>"
	.file 20 "/mnt/d/GitHub/bl_iot_sdk_for_aithinker/toolchain/riscv/Linux/riscv64-unknown-elf/include/stdlib.h"
	.file 21 "/mnt/d/GitHub/bl_iot_sdk_for_aithinker/components/fs/vfs/include/vfs_register.h"
	.file 22 "/mnt/d/GitHub/bl_iot_sdk_for_aithinker/components/stage/blfdt/inc/libfdt.h"
	.file 23 "/mnt/d/GitHub/bl_iot_sdk_for_aithinker/toolchain/riscv/Linux/riscv64-unknown-elf/include/string.h"
	.file 24 "/mnt/d/GitHub/bl_iot_sdk_for_aithinker/components/platform/soc/bl602/freertos_riscv_ram/config/task.h"
	.file 25 "/mnt/d/GitHub/bl_iot_sdk_for_aithinker/components/platform/soc/bl602/freertos_riscv_ram/config/stream_buffer.h"