	.file	"bflb_hash.c"
	.option nopic
	.attribute arch, "rv32i2p0_m2p0_f2p0_c2p0"
	.attribute unaligned_access, 0
	.attribute stack_align, 16
	.text
.Ltext0:
	.cfi_sections	.debug_frame
	.section	.rodata.bflb_hash_init.str1.4,"aMS",@progbits,1
	.align	2
.LC0:
	.string	"unsupported type\r\n"
	.section	.text.bflb_hash_init,"ax",@progbits
	.align	1
	.globl	bflb_hash_init
	.type	bflb_hash_init, @function
bflb_hash_init:
.LFB8:
	.file 1 "/mnt/d/GitHub/bl_iot_sdk_for_aithinker/components/platform/soc/bl602/bl602_std/bl602_std/Common/cipher_suite/src/bflb_hash.c"
	.loc 1 28 1
	.cfi_startproc
.LVL0:
	.loc 1 29 5
	.loc 1 32 5
	.loc 1 28 1 is_stmt 0
	addi	sp,sp,-16
	.cfi_def_cfa_offset 16
	sw	s0,8(sp)
	sw	s1,4(sp)
	sw	ra,12(sp)
	.cfi_offset 8, -8
	.cfi_offset 9, -12
	.cfi_offset 1, -4
	.loc 1 32 5
	li	a5,1
	.loc 1 28 1
	mv	s0,a0
	mv	s1,a1
	.loc 1 32 5
	beq	a1,a5,.L2
	li	a5,2
	beq	a1,a5,.L3
	.loc 1 35 10 is_stmt 1
.LVL1:
	.loc 1 36 10
	lui	a0,%hi(.LC0)
.LVL2:
	addi	a0,a0,%lo(.LC0)
	call	bflb_platform_printf
.LVL3:
	.loc 1 37 13
	.loc 1 57 5
	.loc 1 35 13 is_stmt 0
	li	a0,-1
.LVL4:
.L1:
	.loc 1 61 1
	lw	ra,12(sp)
	.cfi_remember_state
	.cfi_restore 1
	lw	s0,8(sp)
	.cfi_restore 8
.LVL5:
	lw	s1,4(sp)
	.cfi_restore 9
	addi	sp,sp,16
	.cfi_def_cfa_offset 0
	jr	ra
.LVL6:
.L2:
	.cfi_restore_state
	.loc 1 39 13 is_stmt 1
	addi	a4,a0,64
	mv	a3,a0
	li	a2,1
.L7:
	.loc 1 43 13 is_stmt 0
	lui	a0,%hi(.LANCHOR0)
	addi	a0,a0,%lo(.LANCHOR0)
	li	a1,0
.LVL7:
	call	Sec_Eng_SHA256_Init
.LVL8:
	.loc 1 45 13 is_stmt 1
	.loc 1 57 5
	.loc 1 58 9
	.loc 1 58 26 is_stmt 0
	li	a0,0
	.loc 1 60 5 is_stmt 1
	.loc 1 58 26 is_stmt 0
	sb	s1,128(s0)
	.loc 1 60 12
	j	.L1
.LVL9:
.L3:
	.loc 1 43 13 is_stmt 1
	addi	a4,a0,64
	mv	a3,a0
	li	a2,0
	j	.L7
	.cfi_endproc
.LFE8:
	.size	bflb_hash_init, .-bflb_hash_init
	.section	.text.bflb_hash_start,"ax",@progbits
	.align	1
	.globl	bflb_hash_start
	.type	bflb_hash_start, @function
bflb_hash_start:
.LFB9:
	.loc 1 64 1
	.cfi_startproc
.LVL10:
	.loc 1 65 5
	.loc 1 69 5
	.loc 1 64 1 is_stmt 0
	addi	sp,sp,-16
	.cfi_def_cfa_offset 16
	sw	ra,12(sp)
	.cfi_offset 1, -4
	.loc 1 69 23
	lbu	a5,128(a0)
	.loc 1 69 5
	li	a4,2
	bgtu	a5,a4,.L9
	li	a0,0
.LVL11:
	bne	a5,zero,.L10
.LVL12:
.L8:
	.loc 1 93 1
	lw	ra,12(sp)
	.cfi_remember_state
	.cfi_restore 1
	addi	sp,sp,16
	.cfi_def_cfa_offset 0
	jr	ra
.LVL13:
.L9:
	.cfi_restore_state
	.loc 1 69 5
	addi	a5,a5,-3
	andi	a5,a5,0xff
	li	a4,1
	bgtu	a5,a4,.L12
.LVL14:
.L14:
	.loc 1 75 13 is_stmt 1
	.loc 1 92 12 is_stmt 0
	li	a0,0
	.loc 1 75 13
	j	.L8
.L10:
	.loc 1 74 11 is_stmt 1
	call	Sec_Eng_SHA_Start
.LVL15:
	j	.L14
.LVL16:
.L12:
	.loc 1 84 13
	lui	a0,%hi(.LC0)
.LVL17:
	addi	a0,a0,%lo(.LC0)
	call	bflb_platform_printf
.LVL18:
	.loc 1 85 13
	.loc 1 85 20 is_stmt 0
	li	a0,-1
.LVL19:
	j	.L8
	.cfi_endproc
.LFE9:
	.size	bflb_hash_start, .-bflb_hash_start
	.section	.text.bflb_hash_update,"ax",@progbits
	.align	1
	.globl	bflb_hash_update
	.type	bflb_hash_update, @function
bflb_hash_update:
.LFB10:
	.loc 1 96 1 is_stmt 1
	.cfi_startproc
.LVL20:
	.loc 1 97 5
	.loc 1 99 5
	.loc 1 96 1 is_stmt 0
	addi	sp,sp,-16
	.cfi_def_cfa_offset 16
	sw	ra,12(sp)
	.cfi_offset 1, -4
	.loc 1 99 23
	lbu	a5,128(a0)
	.loc 1 99 5
	li	a4,2
	bgtu	a5,a4,.L16
	bne	a5,zero,.L17
.LVL21:
.L21:
	.loc 1 105 7 is_stmt 1
	.loc 1 123 12 is_stmt 0
	li	a0,0
.LVL22:
.L15:
	.loc 1 124 1
	lw	ra,12(sp)
	.cfi_remember_state
	.cfi_restore 1
	addi	sp,sp,16
	.cfi_def_cfa_offset 0
	jr	ra
.LVL23:
.L16:
	.cfi_restore_state
	.loc 1 99 5
	addi	a5,a5,-3
	andi	a5,a5,0xff
	li	a4,1
	bleu	a5,a4,.L21
	.loc 1 114 13 is_stmt 1
	lui	a0,%hi(.LC0)
.LVL24:
	addi	a0,a0,%lo(.LC0)
	call	bflb_platform_printf
.LVL25:
	.loc 1 115 13
	.loc 1 115 20 is_stmt 0
	li	a0,-1
.LVL26:
	j	.L15
.LVL27:
.L17:
	.loc 1 104 7
	lui	a0,%hi(.LANCHOR0)
.LVL28:
	mv	a3,a2
	.loc 1 104 7 is_stmt 1
	addi	a0,a0,%lo(.LANCHOR0)
	mv	a2,a1
.LVL29:
	li	a1,0
.LVL30:
	call	Sec_Eng_SHA256_Update
.LVL31:
	j	.L21
	.cfi_endproc
.LFE10:
	.size	bflb_hash_update, .-bflb_hash_update
	.section	.text.bflb_hash_finish,"ax",@progbits
	.align	1
	.globl	bflb_hash_finish
	.type	bflb_hash_finish, @function
bflb_hash_finish:
.LFB11:
	.loc 1 127 1
	.cfi_startproc
.LVL32:
	.loc 1 128 5
	.loc 1 130 5
	.loc 1 127 1 is_stmt 0
	addi	sp,sp,-16
	.cfi_def_cfa_offset 16
	sw	ra,12(sp)
	.cfi_offset 1, -4
	.loc 1 130 23
	lbu	a5,128(a0)
	.loc 1 130 5
	li	a4,2
	bgtu	a5,a4,.L23
	bne	a5,zero,.L24
.LVL33:
.L28:
	.loc 1 136 10 is_stmt 1
	.loc 1 154 12 is_stmt 0
	li	a0,0
.LVL34:
.L22:
	.loc 1 155 1
	lw	ra,12(sp)
	.cfi_remember_state
	.cfi_restore 1
	addi	sp,sp,16
	.cfi_def_cfa_offset 0
	jr	ra
.LVL35:
.L23:
	.cfi_restore_state
	.loc 1 130 5
	addi	a5,a5,-3
	andi	a5,a5,0xff
	li	a4,1
	bleu	a5,a4,.L28
	.loc 1 145 13 is_stmt 1
	lui	a0,%hi(.LC0)
.LVL36:
	addi	a0,a0,%lo(.LC0)
	call	bflb_platform_printf
.LVL37:
	.loc 1 146 13
	.loc 1 146 20 is_stmt 0
	li	a0,-1
.LVL38:
	j	.L22
.LVL39:
.L24:
	.loc 1 135 10
	lui	a0,%hi(.LANCHOR0)
.LVL40:
	mv	a2,a1
	.loc 1 135 10 is_stmt 1
	addi	a0,a0,%lo(.LANCHOR0)
	li	a1,0
.LVL41:
	call	Sec_Eng_SHA256_Finish
.LVL42:
	j	.L28
	.cfi_endproc
.LFE11:
	.size	bflb_hash_finish, .-bflb_hash_finish
	.section	.text.bflb_hash_deinit,"ax",@progbits
	.align	1
	.globl	bflb_hash_deinit
	.type	bflb_hash_deinit, @function
bflb_hash_deinit:
.LFB12:
	.loc 1 158 1
	.cfi_startproc
.LVL43:
	.loc 1 159 5
	.loc 1 158 1 is_stmt 0
	addi	sp,sp,-16
	.cfi_def_cfa_offset 16
	sw	ra,12(sp)
	.cfi_offset 1, -4
	.loc 1 159 5
	lbu	a4,128(a0)
	li	a5,4
	bleu	a4,a5,.L30
	.loc 1 172 13 is_stmt 1
	lui	a0,%hi(.LC0)
.LVL44:
	addi	a0,a0,%lo(.LC0)
	call	bflb_platform_printf
.LVL45:
	.loc 1 173 13
	.loc 1 173 20 is_stmt 0
	li	a0,-1
.L29:
	.loc 1 179 1
	lw	ra,12(sp)
	.cfi_remember_state
	.cfi_restore 1
	addi	sp,sp,16
	.cfi_def_cfa_offset 0
	jr	ra
.LVL46:
.L30:
	.cfi_restore_state
	.loc 1 176 5 is_stmt 1
	li	a2,132
	li	a1,0
	call	memset
.LVL47:
	.loc 1 178 5
	.loc 1 178 12 is_stmt 0
	li	a0,0
	j	.L29
	.cfi_endproc
.LFE12:
	.size	bflb_hash_deinit, .-bflb_hash_deinit
	.section	.bss.shaCtx,"aw",@nobits
	.align	2
	.set	.LANCHOR0,. + 0
	.type	shaCtx, @object
	.size	shaCtx, 20
shaCtx:
	.zero	20
	.text
.Letext0:
	.file 2 "/mnt/d/GitHub/bl_iot_sdk_for_aithinker/toolchain/riscv/Linux/riscv64-unknown-elf/include/machine/_default_types.h"
	.file 3 "/mnt/d/GitHub/bl_iot_sdk_for_aithinker/toolchain/riscv/Linux/riscv64-unknown-elf/include/sys/_stdint.h"
	.file 4 "/mnt/d/GitHub/bl_iot_sdk_for_aithinker/components/platform/soc/bl602/bl602_std/bl602_std/StdDriver/Inc/bl602_sec_eng.h"
	.file 5 "/mnt/d/GitHub/bl_iot_sdk_for_aithinker/components/platform/soc/bl602/bl602_std/bl602_std/Common/cipher_suite/inc/bflb_hash_port.h"
	.file 6 "/mnt/d/GitHub/bl_iot_sdk_for_aithinker/components/platform/soc/bl602/bl602_std/bl602_std/Common/cipher_suite/inc/bflb_hash.h"
	.file 7 "/mnt/d/GitHub/bl_iot_sdk_for_aithinker/components/platform/soc/bl602/bl602_std/bl602_std/Common/platform_print/bflb_platform.h"
	.file 8 "/mnt/d/GitHub/bl_iot_sdk_for_aithinker/toolchain/riscv/Linux/riscv64-unknown-elf/include/string.h"