	.file	"bflb_dsa.c"
	.option nopic
	.attribute arch, "rv32i2p0_m2p0_f2p0_c2p0"
	.attribute unaligned_access, 0
	.attribute stack_align, 16
	.text
.Ltext0:
	.cfi_sections	.debug_frame
	.section	.text.bflb_dsa_get_reg_size,"ax",@progbits
	.align	1
	.type	bflb_dsa_get_reg_size, @function
bflb_dsa_get_reg_size:
.LFB8:
	.file 1 "/mnt/d/GitHub/bl_iot_sdk_for_aithinker/components/platform/soc/bl602/bl602_std/bl602_std/Common/cipher_suite/src/bflb_dsa.c"
	.loc 1 27 1
	.cfi_startproc
.LVL0:
	.loc 1 28 5
	li	a4,1024
	.loc 1 27 1 is_stmt 0
	mv	a5,a0
	.loc 1 28 5
	beq	a0,a4,.L6
	bgtu	a0,a4,.L3
	li	a4,512
	.loc 1 36 16
	li	a0,4
.LVL1:
	.loc 1 28 5
	beq	a5,a4,.L1
	bgtu	a5,a4,.L4
	li	a4,64
	.loc 1 30 16
	li	a0,1
	.loc 1 28 5
	beq	a5,a4,.L1
	li	a4,128
	.loc 1 34 16
	li	a0,3
	.loc 1 28 5
	bne	a5,a4,.L1
	li	a0,2
	ret
.L4:
	li	a4,768
	.loc 1 34 16
	li	a0,3
	.loc 1 28 5
	bne	a5,a4,.L1
	.loc 1 38 16
	li	a0,5
	ret
.LVL2:
.L3:
	.loc 1 28 5
	li	a4,4096
	addi	a3,a4,-1024
	.loc 1 46 16
	li	a0,9
.LVL3:
	.loc 1 28 5
	beq	a5,a3,.L1
	bgtu	a5,a3,.L5
	li	a4,1536
	.loc 1 42 16
	li	a0,7
	.loc 1 28 5
	beq	a5,a4,.L1
	addi	a5,a5,-2048
.LVL4:
	.loc 1 34 16
	li	a0,3
	.loc 1 28 5
	bne	a5,zero,.L1
	.loc 1 44 16
	li	a0,8
	ret
.LVL5:
.L5:
	.loc 1 34 16
	li	a0,3
	.loc 1 28 5
	bne	a5,a4,.L1
	.loc 1 48 16
	li	a0,10
	ret
.LVL6:
.L6:
	.loc 1 40 16
	li	a0,6
.LVL7:
.L1:
	.loc 1 53 1
	ret
	.cfi_endproc
.LFE8:
	.size	bflb_dsa_get_reg_size, .-bflb_dsa_get_reg_size
	.section	.text.bflb_dsa_mexp_binary,"ax",@progbits
	.align	1
	.globl	bflb_dsa_mexp_binary
	.type	bflb_dsa_mexp_binary, @function
bflb_dsa_mexp_binary:
.LFB9:
	.loc 1 66 1 is_stmt 1
	.cfi_startproc
.LVL8:
	.loc 1 67 5
	.loc 1 68 5
	.loc 1 69 5
	.loc 1 70 5
	.loc 1 66 1 is_stmt 0
	addi	sp,sp,-192
	.cfi_def_cfa_offset 192
	sw	ra,188(sp)
	sw	s0,184(sp)
	sw	s1,180(sp)
	.cfi_offset 1, -4
	.cfi_offset 8, -8
	.cfi_offset 9, -12
	mv	s0,a0
	sw	s2,176(sp)
	sw	s3,172(sp)
	sw	s4,168(sp)
	.cfi_offset 18, -16
	.cfi_offset 19, -20
	.cfi_offset 20, -24
	mv	s3,a3
	sw	s5,164(sp)
	sw	s6,160(sp)
	.cfi_offset 21, -28
	.cfi_offset 22, -32
	mv	s5,a1
	mv	s6,a2
.LVL9:
	.loc 1 71 5 is_stmt 1
	.loc 1 66 1 is_stmt 0
	sw	s7,156(sp)
	sw	s8,152(sp)
	sw	s9,148(sp)
	.cfi_offset 23, -36
	.cfi_offset 24, -40
	.cfi_offset 25, -44
	mv	s8,a4
	sw	s10,144(sp)
	sw	s11,140(sp)
	.cfi_offset 26, -48
	.cfi_offset 27, -52
	.loc 1 71 40
	call	bflb_dsa_get_reg_size
.LVL10:
	mv	s1,a0
.LVL11:
	.loc 1 72 5 is_stmt 1
	.loc 1 72 40 is_stmt 0
	slli	a0,s0,1
	call	bflb_dsa_get_reg_size
.LVL12:
	.loc 1 73 14
	srli	s4,s0,5
	.loc 1 75 13
	lui	a1,%hi(.LANCHOR0)
	li	a2,128
	addi	a1,a1,%lo(.LANCHOR0)
	.loc 1 99 5
	slli	s7,s4,16
	.loc 1 72 40
	mv	s2,a0
.LVL13:
	.loc 1 73 5 is_stmt 1
	.loc 1 75 5
	.loc 1 75 13 is_stmt 0
	mv	a0,sp
.LVL14:
	call	memcpy
.LVL15:
	.loc 1 99 5 is_stmt 1
	srli	s7,s7,16
	mv	a2,s5
	li	a4,0
	mv	a3,s7
	li	a1,4
	mv	a0,s1
	call	Sec_Eng_PKA_Write_Data
.LVL16:
	.loc 1 102 5
	li	a4,0
	li	a3,32
	mv	a2,sp
	li	a1,5
	mv	a0,s1
	call	Sec_Eng_PKA_Write_Data
.LVL17:
	.loc 1 110 5
	li	a4,0
	mv	a3,s7
	mv	a2,s3
	li	a1,0
	mv	a0,s1
	call	Sec_Eng_PKA_Write_Data
.LVL18:
	.loc 1 112 5
	andi	s4,s4,0xff
.LVL19:
	li	a3,0
	mv	a2,s4
	li	a1,6
	mv	a0,s1
	call	Sec_Eng_PKA_CREG
.LVL20:
	.loc 1 113 5
	li	a3,1
	mv	a2,s4
	li	a1,7
	mv	a0,s1
	call	Sec_Eng_PKA_CREG
.LVL21:
	.loc 1 120 5
	.loc 1 121 5
	.loc 1 121 27 is_stmt 0
	srli	s0,s0,3
.LVL22:
	.loc 1 120 6
	li	s5,0
.LVL23:
.L16:
	.loc 1 121 10 is_stmt 1
	.loc 1 121 12 is_stmt 0
	add	a5,s6,s5
	.loc 1 121 10
	lbu	a5,0(a5)
	bne	a5,zero,.L17
	.loc 1 121 18 discriminator 1
	bne	s0,s5,.L18
.L17:
	.loc 1 124 5 is_stmt 1
	.loc 1 124 6 is_stmt 0
	addi	s0,s0,-1
.LVL24:
	.loc 1 125 5 is_stmt 1
	.loc 1 132 17 is_stmt 0
	andi	s2,s2,0xff
.LVL25:
	andi	s3,s1,0xff
.LVL26:
	.loc 1 129 25
	li	s9,1
	.loc 1 128 8
	li	s10,8
.LVL27:
.L19:
	.loc 1 125 10 is_stmt 1 discriminator 1
	.loc 1 125 5 is_stmt 0 discriminator 1
	bgeu	s0,s5,.L22
	.loc 1 150 5 is_stmt 1
	mv	a0,s1
	mv	a3,s4
	mv	a2,s8
	li	a1,5
	call	Sec_Eng_PKA_Read_Data
.LVL28:
	.loc 1 155 5
	.loc 1 156 1 is_stmt 0
	lw	ra,188(sp)
	.cfi_remember_state
	.cfi_restore 1
	lw	s0,184(sp)
	.cfi_restore 8
.LVL29:
	lw	s1,180(sp)
	.cfi_restore 9
.LVL30:
	lw	s2,176(sp)
	.cfi_restore 18
	lw	s3,172(sp)
	.cfi_restore 19
	lw	s4,168(sp)
	.cfi_restore 20
	lw	s5,164(sp)
	.cfi_restore 21
.LVL31:
	lw	s6,160(sp)
	.cfi_restore 22
.LVL32:
	lw	s7,156(sp)
	.cfi_restore 23
	lw	s8,152(sp)
	.cfi_restore 24
.LVL33:
	lw	s9,148(sp)
	.cfi_restore 25
	lw	s10,144(sp)
	.cfi_restore 26
	lw	s11,140(sp)
	.cfi_restore 27
	li	a0,0
	addi	sp,sp,192
	.cfi_def_cfa_offset 0
	jr	ra
.LVL34:
.L18:
	.cfi_restore_state
	.loc 1 122 8 is_stmt 1
	.loc 1 122 9 is_stmt 0
	addi	s5,s5,1
.LVL35:
	j	.L16
.LVL36:
.L22:
	.loc 1 126 8 is_stmt 1
	.loc 1 126 13 is_stmt 0
	add	a5,s6,s0
	.loc 1 126 11
	lbu	s11,0(a5)
.LVL37:
	.loc 1 127 8 is_stmt 1
	.loc 1 128 8
	.loc 1 128 16
	.loc 1 128 13 is_stmt 0
	li	s7,0
.LVL38:
.L21:
	.loc 1 129 13 is_stmt 1
	.loc 1 130 13
	.loc 1 129 25 is_stmt 0
	sll	a5,s9,s7
	.loc 1 129 18
	and	a5,a5,s11
	.loc 1 130 15
	beq	a5,zero,.L20
	.loc 1 132 17 is_stmt 1
	li	a6,0
	li	a5,4
	mv	a4,s3
	li	a3,5
	mv	a2,s3
	li	a1,3
	mv	a0,s2
	call	Sec_Eng_PKA_LMUL
.LVL39:
	.loc 1 133 17
	li	a6,1
	li	a5,0
	mv	a4,s3
	li	a3,3
	mv	a2,s2
	li	a1,5
	mv	a0,s3
	call	Sec_Eng_PKA_MREM
.LVL40:
.L20:
	.loc 1 141 13 discriminator 2
	li	a4,0
	li	a3,4
	mv	a2,s3
	li	a1,3
	mv	a0,s2
	call	Sec_Eng_PKA_LSQR
.LVL41:
	.loc 1 142 13 discriminator 2
	li	a6,1
	li	a5,0
	mv	a4,s3
	li	a3,3
	mv	a2,s2
	li	a1,4
	mv	a0,s3
	.loc 1 128 21 is_stmt 0 discriminator 2
	addi	s7,s7,1
.LVL42:
	.loc 1 142 13 discriminator 2
	call	Sec_Eng_PKA_MREM
.LVL43:
	.loc 1 128 20 is_stmt 1 discriminator 2
	.loc 1 128 16 discriminator 2
	.loc 1 128 8 is_stmt 0 discriminator 2
	bne	s7,s10,.L21
	.loc 1 125 15 is_stmt 1
	.loc 1 125 16 is_stmt 0
	addi	s0,s0,-1
.LVL44:
	j	.L19
	.cfi_endproc
.LFE9:
	.size	bflb_dsa_mexp_binary, .-bflb_dsa_mexp_binary
	.section	.text.bflb_dsa_mexp_mont,"ax",@progbits
	.align	1
	.globl	bflb_dsa_mexp_mont
	.type	bflb_dsa_mexp_mont, @function
bflb_dsa_mexp_mont:
.LFB10:
	.loc 1 160 1 is_stmt 1
	.cfi_startproc
.LVL45:
	.loc 1 161 5
	.loc 1 160 1 is_stmt 0
	addi	sp,sp,-80
	.cfi_def_cfa_offset 80
	sw	ra,76(sp)
	sw	s0,72(sp)
	sw	s1,68(sp)
	sw	s2,64(sp)
	sw	s3,60(sp)
	sw	s4,56(sp)
	sw	s5,52(sp)
	sw	s6,48(sp)
	sw	s7,44(sp)
	sw	s8,40(sp)
	sw	s9,36(sp)
	.cfi_offset 1, -4
	.cfi_offset 8, -8
	.cfi_offset 9, -12
	.cfi_offset 18, -16
	.cfi_offset 19, -20
	.cfi_offset 20, -24
	.cfi_offset 21, -28
	.cfi_offset 22, -32
	.cfi_offset 23, -36
	.cfi_offset 24, -40
	.cfi_offset 25, -44
	.loc 1 160 1
	mv	s6,a6
	mv	s9,a5
	mv	s5,a0
	mv	s1,a1
	mv	s7,a2
	mv	s8,a4
	sw	a3,28(sp)
	.loc 1 161 40
	call	bflb_dsa_get_reg_size
.LVL46:
	mv	s0,a0
.LVL47:
	.loc 1 162 5 is_stmt 1
	.loc 1 162 40 is_stmt 0
	slli	a0,s5,1
	call	bflb_dsa_get_reg_size
.LVL48:
	.loc 1 163 14
	srli	s2,s5,5
	.loc 1 173 5
	lw	a2,28(sp)
	slli	s4,s2,16
	srli	s4,s4,16
	mv	a3,s4
	.loc 1 162 40
	mv	s3,a0
.LVL49:
	.loc 1 163 5 is_stmt 1
	.loc 1 173 5
	li	a4,0
	mv	a0,s0
.LVL50:
	li	a1,0
	call	Sec_Eng_PKA_Write_Data
.LVL51:
	.loc 1 174 5
	mv	a3,s4
	mv	a2,s9
	mv	a0,s0
	li	a4,1
	li	a1,1
	call	Sec_Eng_PKA_Write_Data
.LVL52:
	.loc 1 175 5
	mv	a3,s4
	mv	a2,s8
	mv	a0,s0
	li	a4,1
	li	a1,2
	call	Sec_Eng_PKA_Write_Data
.LVL53:
	.loc 1 178 5
	li	a4,0
	mv	a3,s4
	mv	a2,s1
	mv	a0,s0
	li	a1,4
	call	Sec_Eng_PKA_Write_Data
.LVL54:
	.loc 1 179 5
	andi	s2,s2,0xff
.LVL55:
	mv	a2,s2
	mv	a0,s0
	li	a3,0
	li	a1,10
	call	Sec_Eng_PKA_CREG
.LVL56:
	.loc 1 180 5
	mv	a2,s2
	mv	a0,s0
	li	a3,0
	li	a1,11
	.loc 1 181 5 is_stmt 0
	andi	s1,s0,0xff
.LVL57:
	.loc 1 180 5
	call	Sec_Eng_PKA_CREG
.LVL58:
	.loc 1 181 5 is_stmt 1
	andi	s3,s3,0xff
.LVL59:
	mv	a7,s1
	mv	a5,s3
	li	a6,5
	mv	a4,s5
	mv	a2,s1
	mv	a0,s1
	sw	zero,0(sp)
	li	a3,4
	li	a1,4
	call	Sec_Eng_PKA_GF2Mont
.LVL60:
	.loc 1 188 5
	mv	a3,s4
	mv	a2,s7
	mv	a0,s0
	li	a4,0
	li	a1,5
	call	Sec_Eng_PKA_Write_Data
.LVL61:
	.loc 1 190 5
	li	a5,1
	mv	a6,s1
	mv	a4,s1
	li	a7,0
	sw	a5,0(sp)
	mv	a2,s1
	li	a5,5
	mv	a0,s1
	li	a3,4
	li	a1,6
	call	Sec_Eng_PKA_MEXP
.LVL62:
	.loc 1 193 5
	mv	a2,s2
	mv	a0,s0
	li	a3,0
	li	a1,10
	call	Sec_Eng_PKA_CREG
.LVL63:
	.loc 1 194 5
	mv	a2,s2
	mv	a0,s0
	li	a3,0
	li	a1,11
	call	Sec_Eng_PKA_CREG
.LVL64:
	.loc 1 196 5
	mv	a6,s3
	sw	s1,0(sp)
	mv	a4,s1
	mv	a2,s1
	mv	a0,s1
	sw	zero,4(sp)
	li	a7,5
	li	a5,2
	li	a3,6
	li	a1,7
	call	Sec_Eng_PKA_Mont2GF
.LVL65:
	.loc 1 197 5
	mv	a0,s0
	mv	a3,s2
	mv	a2,s6
	li	a1,7
	call	Sec_Eng_PKA_Read_Data
.LVL66:
	.loc 1 202 5
	.loc 1 203 1 is_stmt 0
	lw	ra,76(sp)
	.cfi_restore 1
	lw	s0,72(sp)
	.cfi_restore 8
.LVL67:
	lw	s1,68(sp)
	.cfi_restore 9
	lw	s2,64(sp)
	.cfi_restore 18
	lw	s3,60(sp)
	.cfi_restore 19
	lw	s4,56(sp)
	.cfi_restore 20
	lw	s5,52(sp)
	.cfi_restore 21
.LVL68:
	lw	s6,48(sp)
	.cfi_restore 22
.LVL69:
	lw	s7,44(sp)
	.cfi_restore 23
.LVL70:
	lw	s8,40(sp)
	.cfi_restore 24
.LVL71:
	lw	s9,36(sp)
	.cfi_restore 25
.LVL72:
	li	a0,0
	addi	sp,sp,80
	.cfi_def_cfa_offset 0
.LVL73:
	jr	ra
	.cfi_endproc
.LFE10:
	.size	bflb_dsa_mexp_mont, .-bflb_dsa_mexp_mont
	.section	.text.bflb_dsa_decrypt_crt,"ax",@progbits
	.align	1
	.globl	bflb_dsa_decrypt_crt
	.type	bflb_dsa_decrypt_crt, @function
bflb_dsa_decrypt_crt:
.LFB11:
	.loc 1 213 1 is_stmt 1
	.cfi_startproc
.LVL74:
	.loc 1 220 5
	.loc 1 213 1 is_stmt 0
	addi	sp,sp,-304
	.cfi_def_cfa_offset 304
	sw	ra,300(sp)
	sw	s0,296(sp)
	sw	s1,292(sp)
	.cfi_offset 1, -4
	.cfi_offset 8, -8
	.cfi_offset 9, -12
	mv	s0,a2
	sw	s2,288(sp)
	sw	s3,284(sp)
	sw	s4,280(sp)
	sw	s5,276(sp)
	sw	s6,272(sp)
	.cfi_offset 18, -16
	.cfi_offset 19, -20
	.cfi_offset 20, -24
	.cfi_offset 21, -28
	.cfi_offset 22, -32
	.loc 1 213 1
	mv	s3,a0
	mv	s5,a1
	mv	s6,a4
	.loc 1 220 40
	call	bflb_dsa_get_reg_size
.LVL75:
	mv	s1,a0
.LVL76:
	.loc 1 221 5 is_stmt 1
	.loc 1 221 40 is_stmt 0
	slli	a0,s3,1
	call	bflb_dsa_get_reg_size
.LVL77:
	.loc 1 245 5
	lw	a5,20(s0)
	lw	a4,16(s0)
	lw	a3,12(s0)
	lw	a2,0(s0)
	.loc 1 221 40
	mv	s4,a0
.LVL78:
	.loc 1 222 5 is_stmt 1
	.loc 1 245 5 is_stmt 0
	addi	a6,sp,16
	mv	a1,s5
	mv	a0,s3
.LVL79:
	call	bflb_dsa_mexp_mont
.LVL80:
	.loc 1 246 5
	lw	a5,32(s0)
	lw	a4,28(s0)
	lw	a3,24(s0)
	lw	a2,4(s0)
	.loc 1 222 14
	srli	s2,s3,5
.LVL81:
	.loc 1 233 5 is_stmt 1
	.loc 1 234 5
	.loc 1 245 5
	.loc 1 246 5
	addi	a6,sp,144
	mv	a1,s5
	mv	a0,s3
	.loc 1 248 5 is_stmt 0
	slli	s3,s2,16
.LVL82:
	.loc 1 246 5
	call	bflb_dsa_mexp_mont
.LVL83:
	.loc 1 248 5 is_stmt 1
	srli	s3,s3,16
	mv	a3,s3
	addi	a2,sp,16
	mv	a0,s1
	li	a4,0
	li	a1,4
	call	Sec_Eng_PKA_Write_Data
.LVL84:
	.loc 1 249 5
	mv	a3,s3
	addi	a2,sp,144
	mv	a0,s1
	li	a4,0
	li	a1,5
	call	Sec_Eng_PKA_Write_Data
.LVL85:
	.loc 1 250 5
	lw	a2,8(s0)
	mv	a3,s3
	mv	a0,s1
	li	a4,0
	li	a1,6
	call	Sec_Eng_PKA_Write_Data
.LVL86:
	.loc 1 251 5
	lw	a2,12(s0)
	mv	a3,s3
	mv	a0,s1
	li	a4,0
	li	a1,7
	call	Sec_Eng_PKA_Write_Data
.LVL87:
	.loc 1 252 5
	lw	a2,24(s0)
	mv	a3,s3
	mv	a0,s1
	li	a4,0
	li	a1,8
	call	Sec_Eng_PKA_Write_Data
.LVL88:
	.loc 1 255 4
	andi	s0,s1,0xff
.LVL89:
	li	a5,1
	li	a7,7
	mv	a6,s0
	mv	a4,s0
	sw	a5,0(sp)
	mv	a2,s0
	li	a5,5
	mv	a0,s0
	li	a3,4
	li	a1,4
	call	Sec_Eng_PKA_MSUB
.LVL90:
	.loc 1 262 5
	andi	s2,s2,0xff
.LVL91:
	mv	a2,s2
	mv	a0,s1
	li	a3,0
	li	a1,10
	call	Sec_Eng_PKA_CREG
.LVL92:
	.loc 1 263 5
	mv	a2,s2
	mv	a0,s1
	li	a3,0
	li	a1,11
	call	Sec_Eng_PKA_CREG
.LVL93:
	.loc 1 264 5
	andi	s3,s4,0xff
	mv	a4,s0
	mv	a2,s0
	mv	a0,s3
	li	a6,1
	li	a5,4
	li	a3,6
	li	a1,5
	call	Sec_Eng_PKA_LMUL
.LVL94:
	.loc 1 270 5
	mv	a4,s0
	li	a6,1
	li	a5,7
	mv	a2,s3
	mv	a0,s0
	li	a3,5
	li	a1,9
	call	Sec_Eng_PKA_MREM
.LVL95:
	.loc 1 278 5
	mv	a2,s2
	mv	a0,s1
	li	a3,0
	li	a1,10
	call	Sec_Eng_PKA_CREG
.LVL96:
	.loc 1 279 5
	mv	a2,s2
	mv	a0,s1
	li	a3,0
	li	a1,11
	call	Sec_Eng_PKA_CREG
.LVL97:
	.loc 1 280 5
	mv	a4,s0
	mv	a2,s0
	mv	a0,s3
	li	a6,1
	li	a5,8
	li	a3,9
	li	a1,5
	call	Sec_Eng_PKA_LMUL
.LVL98:
	.loc 1 287 5
	mv	a4,s0
	mv	a2,s3
	mv	a0,s3
	li	a6,1
	li	a5,5
	li	a3,5
	li	a1,5
	call	Sec_Eng_PKA_LADD
.LVL99:
	.loc 1 289 5
	slli	a3,s2,1
	mv	a0,s4
	mv	a2,s6
	andi	a3,a3,254
	li	a1,5
	call	Sec_Eng_PKA_Read_Data
.LVL100:
	.loc 1 294 5
	.loc 1 295 1 is_stmt 0
	lw	ra,300(sp)
	.cfi_restore 1
	lw	s0,296(sp)
	.cfi_restore 8
	lw	s1,292(sp)
	.cfi_restore 9
.LVL101:
	lw	s2,288(sp)
	.cfi_restore 18
	lw	s3,284(sp)
	.cfi_restore 19
	lw	s4,280(sp)
	.cfi_restore 20
.LVL102:
	lw	s5,276(sp)
	.cfi_restore 21
.LVL103:
	lw	s6,272(sp)
	.cfi_restore 22
.LVL104:
	li	a0,0
	addi	sp,sp,304
	.cfi_def_cfa_offset 0
	jr	ra
	.cfi_endproc
.LFE11:
	.size	bflb_dsa_decrypt_crt, .-bflb_dsa_decrypt_crt
	.section	.text.bflb_dsa_init,"ax",@progbits
	.align	1
	.globl	bflb_dsa_init
	.type	bflb_dsa_init, @function
bflb_dsa_init:
.LFB12:
	.loc 1 298 1 is_stmt 1
	.cfi_startproc
.LVL105:
	.loc 1 299 5
	.loc 1 300 1 is_stmt 0
	li	a0,0
.LVL106:
	ret
	.cfi_endproc
.LFE12:
	.size	bflb_dsa_init, .-bflb_dsa_init
	.section	.rodata
	.align	2
	.set	.LANCHOR0,. + 0
.LC0:
	.string	""
	.string	""
	.string	""
	.string	""
	.string	""
	.string	""
	.string	""
	.string	""
	.string	""
	.string	""
	.string	""
	.string	""
	.string	""
	.string	""
	.string	""
	.string	""
	.string	""
	.string	""
	.string	""
	.string	""
	.string	""
	.string	""
	.string	""
	.string	""
	.string	""
	.string	""
	.string	""
	.string	""
	.string	""
	.string	""
	.string	""
	.string	""
	.string	""
	.string	""
	.string	""
	.string	""
	.string	""
	.string	""
	.string	""
	.string	""
	.string	""
	.string	""
	.string	""
	.string	""
	.string	""
	.string	""
	.string	""
	.string	""
	.string	""
	.string	""
	.string	""
	.string	""
	.string	""
	.string	""
	.string	""
	.string	""
	.string	""
	.string	""
	.string	""
	.string	""
	.string	""
	.string	""
	.string	""
	.string	""
	.string	""
	.string	""
	.string	""
	.string	""
	.string	""
	.string	""
	.string	""
	.string	""
	.string	""
	.string	""
	.string	""
	.string	""
	.string	""
	.string	""
	.string	""
	.string	""
	.string	""
	.string	""
	.string	""
	.string	""
	.string	""
	.string	""
	.string	""
	.string	""
	.string	""
	.string	""
	.string	""
	.string	""
	.string	""
	.string	""
	.string	""
	.string	""
	.string	""
	.string	""
	.string	""
	.string	""
	.string	""
	.string	""
	.string	""
	.string	""
	.string	""
	.string	""
	.string	""
	.string	""
	.string	""
	.string	""
	.string	""
	.string	""
	.string	""
	.string	""
	.string	""
	.string	""
	.string	""
	.string	""
	.string	""
	.string	""
	.string	""
	.string	""
	.string	""
	.string	""
	.string	""
	.string	""
	.string	""
	.ascii	"\001"
	.text
.Letext0:
	.file 2 "/mnt/d/GitHub/bl_iot_sdk_for_aithinker/toolchain/riscv/Linux/riscv64-unknown-elf/include/machine/_default_types.h"
	.file 3 "/mnt/d/GitHub/bl_iot_sdk_for_aithinker/toolchain/riscv/Linux/riscv64-unknown-elf/include/sys/_stdint.h"
	.file 4 "/mnt/d/GitHub/bl_iot_sdk_for_aithinker/components/platform/soc/bl602/bl602_std/bl602_std/Common/cipher_suite/inc/bflb_dsa.h"
	.file 5 "/mnt/d/GitHub/bl_iot_sdk_for_aithinker/components/platform/soc/bl602/bl602_std/bl602_std/StdDriver/Inc/bl602_sec_eng.h"
	.file 6 "<built-in>"