	.file	"bl_adc.c"
	.option nopic
	.attribute arch, "rv32i2p0_m2p0_f2p0_c2p0"
	.attribute unaligned_access, 0
	.attribute stack_align, 16
	.text
.Ltext0:
	.cfi_sections	.debug_frame
	.section	.rodata.adc_data_update.str1.4,"aMS",@progbits,1
	.align	2
.LC1:
	.string	"bl_adc.c"
	.align	2
.LC2:
	.string	"\033[31mERROR\033[0m"
	.align	2
.LC3:
	.string	"%s (%d)[%s:%4d] get ctx error \r\n\r\n"
	.section	.text.adc_data_update,"ax",@progbits
	.align	1
	.type	adc_data_update, @function
adc_data_update:
.LFB37:
	.file 1 "/mnt/d/GitHub/bl_iot_sdk_for_aithinker/components/platform/hosal/bl602_hal/bl_adc.c"
	.loc 1 255 1
	.cfi_startproc
	.loc 1 256 5
	.loc 1 258 5
	.loc 1 255 1 is_stmt 0
	addi	sp,sp,-16
	.cfi_def_cfa_offset 16
	.loc 1 258 14
	li	a0,1
	.loc 1 255 1
	sw	ra,12(sp)
	.cfi_offset 1, -4
	.loc 1 258 14
	call	bl_dma_find_ctx_by_channel
.LVL0:
	.loc 1 259 5 is_stmt 1
	.loc 1 259 8 is_stmt 0
	bne	a0,zero,.L2
	.loc 1 260 9 is_stmt 1 discriminator 1
	.loc 1 260 47 discriminator 1
	.loc 1 260 52 discriminator 1
	.loc 1 260 74 is_stmt 0 discriminator 1
	lui	a5,%hi(_fsymc_level_hosal)
	.loc 1 260 55 discriminator 1
	lw	a4,%lo(_fsymc_level_hosal)(a5)
	li	a5,4
	bgtu	a4,a5,.L1
	.loc 1 260 118 discriminator 3
	lui	a4,%hi(_fsymf_level_hosalbl_adc)
	.loc 1 260 97 discriminator 3
	lw	a4,%lo(_fsymf_level_hosalbl_adc)(a4)
	bgtu	a4,a5,.L1
	.loc 1 260 150 is_stmt 1 discriminator 5
	.loc 1 260 233 is_stmt 0 discriminator 5
	call	xPortIsInsideInterrupt
.LVL1:
	.loc 1 260 150 discriminator 5
	beq	a0,zero,.L6
	.loc 1 260 262 discriminator 7
	call	xTaskGetTickCountFromISR
.LVL2:
.L14:
	.loc 1 277 1 discriminator 8
	lw	ra,12(sp)
	.cfi_remember_state
	.cfi_restore 1
	.loc 1 260 293 discriminator 8
	mv	a2,a0
	.loc 1 260 150 discriminator 8
	lui	a3,%hi(.LC1)
	lui	a1,%hi(.LC2)
	lui	a0,%hi(.LC3)
	.loc 1 277 1 discriminator 8
	.loc 1 260 150 discriminator 8
	li	a4,260
	addi	a3,a3,%lo(.LC1)
	addi	a1,a1,%lo(.LC2)
	addi	a0,a0,%lo(.LC3)
	.loc 1 277 1 discriminator 8
	addi	sp,sp,16
	.cfi_def_cfa_offset 0
	.loc 1 260 150 discriminator 8
	tail	bl_printk
.LVL3:
.L6:
	.cfi_restore_state
	.loc 1 260 293 discriminator 8
	call	xTaskGetTickCount
.LVL4:
	j	.L14
.LVL5:
.L2:
	.loc 1 264 5 is_stmt 1
	.loc 1 264 8 is_stmt 0
	lw	a4,12(a0)
	.loc 1 265 73
	lw	a5,8(a0)
	.loc 1 264 8
	bne	a4,zero,.L8
	.loc 1 265 9 is_stmt 1
	.loc 1 265 30 is_stmt 0
	lw	a5,4(a5)
	sw	a5,4(a0)
	.loc 1 266 9 is_stmt 1
	.loc 1 266 26 is_stmt 0
	li	a5,1
	sw	a5,12(a0)
.L9:
	.loc 1 272 5 is_stmt 1
	.loc 1 272 15 is_stmt 0
	lw	a5,24(a0)
	.loc 1 272 8
	beq	a5,zero,.L1
	.loc 1 273 9 is_stmt 1
	.loc 1 273 16 is_stmt 0
	lw	a2,20(a0)
	lw	a1,4(a0)
	.loc 1 277 1
	lw	ra,12(sp)
	.cfi_remember_state
	.cfi_restore 1
	.loc 1 273 16
	lw	a0,0(a0)
.LVL6:
	.loc 1 277 1
	addi	sp,sp,16
	.cfi_def_cfa_offset 0
	.loc 1 273 16
	jr	a5
.LVL7:
.L8:
	.cfi_restore_state
	.loc 1 268 9 is_stmt 1
	.loc 1 268 30 is_stmt 0
	lw	a5,20(a5)
	.loc 1 269 26
	sw	zero,12(a0)
	.loc 1 268 30
	sw	a5,4(a0)
	.loc 1 269 9 is_stmt 1
	j	.L9
.L1:
	.loc 1 277 1 is_stmt 0
	lw	ra,12(sp)
	.cfi_restore 1
	addi	sp,sp,16
	.cfi_def_cfa_offset 0
	jr	ra
	.cfi_endproc
.LFE37:
	.size	adc_data_update, .-adc_data_update
	.section	.rodata.ADC_Clock_Init.str1.4,"aMS",@progbits,1
	.align	2
.LC4:
	.string	"\033[32mINFO\033[0m"
	.align	2
.LC5:
	.string	"%s (%d)[%s:%4d] GLB_Set_ADC_CLK_Div(%d) == clock 96M/(%d+1)\r\n\r\n"
	.section	.text.ADC_Clock_Init,"ax",@progbits
	.align	1
	.globl	ADC_Clock_Init
	.type	ADC_Clock_Init, @function
ADC_Clock_Init:
.LFB30:
	.loc 1 47 1 is_stmt 1
	.cfi_startproc
.LVL8:
	.loc 1 48 5
	.loc 1 47 1 is_stmt 0
	addi	sp,sp,-16
	.cfi_def_cfa_offset 16
	sw	s0,8(sp)
	.loc 1 48 5
	mv	a2,a0
	.cfi_offset 8, -8
	.loc 1 47 1
	mv	s0,a0
	.loc 1 48 5
	li	a1,0
	li	a0,1
.LVL9:
	.loc 1 47 1
	sw	ra,12(sp)
	.cfi_offset 1, -4
	.loc 1 48 5
	call	GLB_Set_ADC_CLK
.LVL10:
	.loc 1 49 5 is_stmt 1
	.loc 1 49 43
	.loc 1 49 48
	.loc 1 49 69 is_stmt 0
	lui	a5,%hi(_fsymc_level_hosal)
	.loc 1 49 51
	lw	a4,%lo(_fsymc_level_hosal)(a5)
	li	a5,2
	bgtu	a4,a5,.L15
	.loc 1 49 112 discriminator 3
	lui	a4,%hi(_fsymf_level_hosalbl_adc)
	.loc 1 49 92 discriminator 3
	lw	a4,%lo(_fsymf_level_hosalbl_adc)(a4)
	bgtu	a4,a5,.L15
.LVL11:
.LBB6:
.LBB7:
	.loc 1 49 144 is_stmt 1
	.loc 1 49 255 is_stmt 0
	call	xPortIsInsideInterrupt
.LVL12:
	.loc 1 49 144
	beq	a0,zero,.L17
	.loc 1 49 284
	call	xTaskGetTickCountFromISR
.LVL13:
.L20:
	.loc 1 49 144
	mv	a6,s0
	mv	a5,s0
.LBE7:
.LBE6:
	.loc 1 50 1
	lw	s0,8(sp)
	.cfi_remember_state
	.cfi_restore 8
.LVL14:
	lw	ra,12(sp)
	.cfi_restore 1
.LBB11:
.LBB8:
	.loc 1 49 315
	mv	a2,a0
	.loc 1 49 144
	lui	a3,%hi(.LC1)
	lui	a1,%hi(.LC4)
	lui	a0,%hi(.LC5)
.LBE8:
.LBE11:
	.loc 1 50 1
.LBB12:
.LBB9:
	.loc 1 49 144
	li	a4,49
	addi	a3,a3,%lo(.LC1)
	addi	a1,a1,%lo(.LC4)
	addi	a0,a0,%lo(.LC5)
.LBE9:
.LBE12:
	.loc 1 50 1
	addi	sp,sp,16
	.cfi_def_cfa_offset 0
.LBB13:
.LBB10:
	.loc 1 49 144
	tail	bl_printk
.LVL15:
.L17:
	.cfi_restore_state
	.loc 1 49 315
	call	xTaskGetTickCount
.LVL16:
	j	.L20
.LVL17:
.L15:
.LBE10:
.LBE13:
	.loc 1 50 1
	lw	ra,12(sp)
	.cfi_restore 1
	lw	s0,8(sp)
	.cfi_restore 8
	addi	sp,sp,16
	.cfi_def_cfa_offset 0
	jr	ra
	.cfi_endproc
.LFE30:
	.size	ADC_Clock_Init, .-ADC_Clock_Init
	.section	.text.TSEN_Calibration,"ax",@progbits
	.align	1
	.globl	TSEN_Calibration
	.type	TSEN_Calibration, @function
TSEN_Calibration:
.LFB31:
	.loc 1 53 1 is_stmt 1
	.cfi_startproc
	.loc 1 54 5
	.loc 1 53 1 is_stmt 0
	addi	sp,sp,-16
	.cfi_def_cfa_offset 16
	sw	ra,12(sp)
	.cfi_offset 1, -4
	.loc 1 54 5
	call	ADC_SET_TSVBE_LOW
.LVL18:
	.loc 1 55 5 is_stmt 1
	call	ADC_Start
.LVL19:
	.loc 1 56 5
	li	a0,100
	call	BL602_Delay_MS
.LVL20:
	.loc 1 57 5
.L22:
	.loc 1 57 37 discriminator 1
	.loc 1 57 10 discriminator 1
	.loc 1 57 11 is_stmt 0 discriminator 1
	call	ADC_Get_FIFO_Count
.LVL21:
	.loc 1 57 10 discriminator 1
	beq	a0,zero,.L22
	.loc 1 58 5 is_stmt 1
	call	ADC_Read_FIFO
.LVL22:
	.loc 1 60 5
	call	ADC_SET_TSVBE_HIGH
.LVL23:
	.loc 1 61 5
	call	ADC_Start
.LVL24:
	.loc 1 62 5
	li	a0,100
	call	BL602_Delay_MS
.LVL25:
	.loc 1 63 5
.L23:
	.loc 1 63 37 discriminator 1
	.loc 1 63 10 discriminator 1
	.loc 1 63 11 is_stmt 0 discriminator 1
	call	ADC_Get_FIFO_Count
.LVL26:
	.loc 1 63 10 discriminator 1
	beq	a0,zero,.L23
	.loc 1 64 5 is_stmt 1
	call	ADC_Read_FIFO
.LVL27:
	.loc 1 66 5
	.loc 1 67 1 is_stmt 0
	lw	ra,12(sp)
	.cfi_restore 1
	addi	sp,sp,16
	.cfi_def_cfa_offset 0
	.loc 1 66 5
	tail	ADC_SET_TSVBE_LOW
.LVL28:
	.cfi_endproc
.LFE31:
	.size	TSEN_Calibration, .-TSEN_Calibration
	.section	.text.test_adc_init,"ax",@progbits
	.align	1
	.globl	test_adc_init
	.type	test_adc_init, @function
test_adc_init:
.LFB33:
	.loc 1 124 1 is_stmt 1
	.cfi_startproc
	.loc 1 125 5
	.loc 1 124 1 is_stmt 0
	addi	sp,sp,-16
	.cfi_def_cfa_offset 16
	.loc 1 125 5
	li	a0,2
	.loc 1 124 1
	sw	ra,12(sp)
	.cfi_offset 1, -4
	.loc 1 125 5
	call	ADC_Clock_Init
.LVL29:
	.loc 1 127 5 is_stmt 1
	call	ADC_Reset
.LVL30:
	.loc 1 129 5
	call	ADC_Disable
.LVL31:
	.loc 1 130 5
	call	ADC_Enable
.LVL32:
	.loc 1 132 5
	lui	a0,%hi(.LANCHOR0)
	addi	a0,a0,%lo(.LANCHOR0)
	call	ADC_Init
.LVL33:
	.loc 1 133 5
	li	a2,0
	li	a1,23
	li	a0,14
	call	ADC_Channel_Config
.LVL34:
	.loc 1 134 5
	li	a0,0
	call	ADC_Tsen_Init
.LVL35:
	.loc 1 136 5
	lui	a0,%hi(.LANCHOR1)
	addi	a0,a0,%lo(.LANCHOR1)
	call	ADC_FIFO_Cfg
.LVL36:
	.loc 1 137 5
	call	TSEN_Calibration
.LVL37:
	.loc 1 139 5
	.loc 1 140 1 is_stmt 0
	lw	ra,12(sp)
	.cfi_restore 1
	li	a0,0
	addi	sp,sp,16
	.cfi_def_cfa_offset 0
	jr	ra
	.cfi_endproc
.LFE33:
	.size	test_adc_init, .-test_adc_init
	.globl	__extendsfdf2
	.globl	__divdf3
	.globl	__truncdfsf2
	.section	.text.test_adc_get,"ax",@progbits
	.align	1
	.globl	test_adc_get
	.type	test_adc_get, @function
test_adc_get:
.LFB34:
	.loc 1 143 1 is_stmt 1
	.cfi_startproc
.LVL38:
	.loc 1 144 5
	.loc 1 145 5
	.loc 1 143 1 is_stmt 0
	addi	sp,sp,-64
	.cfi_def_cfa_offset 64
	.loc 1 172 21
	lui	a5,%hi(.LC6)
	.loc 1 143 1
	fsw	fs0,28(sp)
	.cfi_offset 40, -36
	.loc 1 172 21
	flw	fs0,%lo(.LC6)(a5)
	.loc 1 173 31
	lui	a5,%hi(.LC7)
	.loc 1 143 1
	sw	s4,40(sp)
	sw	s5,36(sp)
	.cfi_offset 20, -24
	.cfi_offset 21, -28
	.loc 1 173 31
	lw	s4,%lo(.LC7)(a5)
	lw	s5,%lo(.LC7+4)(a5)
	.loc 1 143 1
	sw	s0,56(sp)
	sw	s1,52(sp)
	sw	s2,48(sp)
	sw	s3,44(sp)
	sw	ra,60(sp)
	.cfi_offset 8, -8
	.cfi_offset 9, -12
	.cfi_offset 18, -16
	.cfi_offset 19, -20
	.cfi_offset 1, -4
	.loc 1 143 1
	mv	s1,a0
	.loc 1 145 14
	sw	zero,4(sp)
	.loc 1 146 5 is_stmt 1
.LVL39:
	.loc 1 147 5
	.loc 1 148 5
	.loc 1 150 5
	.loc 1 150 17
	.loc 1 147 19 is_stmt 0
	li	s3,0
	.loc 1 147 14
	li	s2,0
	.loc 1 150 12
	li	s0,0
.LVL40:
.L38:
	.loc 1 151 9 is_stmt 1
	call	ADC_Start
.LVL41:
	.loc 1 153 9
.L32:
	.loc 1 153 14
	.loc 1 153 15 is_stmt 0
	call	ADC_Get_FIFO_Count
.LVL42:
	.loc 1 153 14
	beq	a0,zero,.L33
.L36:
	.loc 1 158 9 is_stmt 1
	.loc 1 159 13
	.loc 1 159 22 is_stmt 0
	call	ADC_Read_FIFO
.LVL43:
	.loc 1 159 20
	sw	a0,4(sp)
	.loc 1 160 13 is_stmt 1
	addi	a2,sp,8
	li	a1,1
	addi	a0,sp,4
	call	ADC_Parse_Result
.LVL44:
	.loc 1 162 13
	lhu	a5,10(sp)
	.loc 1 162 15 is_stmt 0
	bne	s0,zero,.L34
	.loc 1 163 17 is_stmt 1
	.loc 1 163 20 is_stmt 0
	mv	s2,a5
.LVL45:
.L35:
	.loc 1 167 16 is_stmt 1
	.loc 1 167 17 is_stmt 0
	call	ADC_Get_FIFO_Count
.LVL46:
	.loc 1 167 9
	bne	a0,zero,.L36
	.loc 1 169 9 is_stmt 1
	.loc 1 169 12 is_stmt 0
	beq	s0,zero,.L37
	.loc 1 170 13 is_stmt 1
	.loc 1 170 35 is_stmt 0
	fcvt.s.wu	fa5,s3
	.loc 1 170 23
	fcvt.s.w	fa0,s2
	.loc 1 170 21
	fsub.s	fa0,fa0,fa5
.LVL47:
	.loc 1 172 13 is_stmt 1
	.loc 1 173 13
	.loc 1 173 31 is_stmt 0
	fsub.s	fa0,fa0,fs0
.LVL48:
	call	__extendsfdf2
.LVL49:
	mv	a2,s4
	mv	a3,s5
	call	__divdf3
.LVL50:
	.loc 1 176 13 is_stmt 1
	.loc 1 173 21 is_stmt 0
	call	__truncdfsf2
.LVL51:
	.loc 1 176 20
	fcvt.w.s a5,fa0,rtz
	sh	a5,0(s1)
	.loc 1 178 9 is_stmt 1
	.loc 1 181 13
	call	ADC_SET_TSVBE_LOW
.LVL52:
.L39:
	.loc 1 150 24 discriminator 2
	.loc 1 150 17 discriminator 2
	.loc 1 150 5 is_stmt 0 discriminator 2
	beq	s0,zero,.L40
	.loc 1 185 1
	lw	ra,60(sp)
	.cfi_remember_state
	.cfi_restore 1
	lw	s0,56(sp)
	.cfi_restore 8
.LVL53:
	lw	s1,52(sp)
	.cfi_restore 9
.LVL54:
	lw	s2,48(sp)
	.cfi_restore 18
.LVL55:
	lw	s3,44(sp)
	.cfi_restore 19
.LVL56:
	lw	s4,40(sp)
	.cfi_restore 20
	lw	s5,36(sp)
	.cfi_restore 21
	flw	fs0,28(sp)
	.cfi_restore 40
	li	a0,0
	addi	sp,sp,64
	.cfi_def_cfa_offset 0
	jr	ra
.LVL57:
.L40:
	.cfi_restore_state
	li	s0,1
.LVL58:
	j	.L38
.LVL59:
.L33:
.LBB14:
	.loc 1 154 13 is_stmt 1
	.loc 1 155 13
	li	a0,1
	call	aos_msleep
.LVL60:
	j	.L32
.L34:
.LBE14:
	.loc 1 165 17
	.loc 1 165 20 is_stmt 0
	mv	s3,a5
.LVL61:
	j	.L35
.L37:
	.loc 1 178 9 is_stmt 1
	.loc 1 179 13
	call	ADC_SET_TSVBE_HIGH
.LVL62:
	j	.L39
	.cfi_endproc
.LFE34:
	.size	test_adc_get, .-test_adc_get
	.section	.rodata.test_adc_test.str1.4,"aMS",@progbits,1
	.align	2
.LC8:
	.string	"%s (%d)[%s:%4d]  v0=%ld  v1 = %ld \n\r\n"
	.align	2
.LC9:
	.string	"%s (%d)[%s:%4d]  chip Tempture = %ld degree centigrade\n\r\n"
	.section	.text.test_adc_test,"ax",@progbits
	.align	1
	.globl	test_adc_test
	.type	test_adc_test, @function
test_adc_test:
.LFB35:
	.loc 1 188 1
	.cfi_startproc
	.loc 1 189 5
.LBB17:
.LBB18:
	.loc 1 71 2
	.loc 1 72 2
.LBE18:
.LBE17:
	.loc 1 188 1 is_stmt 0
	addi	sp,sp,-80
	.cfi_def_cfa_offset 80
	sw	ra,76(sp)
	sw	s0,72(sp)
	sw	s2,64(sp)
	sw	s3,60(sp)
	sw	s4,56(sp)
	sw	s5,52(sp)
	sw	s6,48(sp)
	sw	s7,44(sp)
	fsw	fs0,28(sp)
	sw	s1,68(sp)
	sw	s8,40(sp)
	.cfi_offset 1, -4
	.cfi_offset 8, -8
	.cfi_offset 18, -16
	.cfi_offset 19, -20
	.cfi_offset 20, -24
	.cfi_offset 21, -28
	.cfi_offset 22, -32
	.cfi_offset 23, -36
	.cfi_offset 40, -52
	.cfi_offset 9, -12
	.cfi_offset 24, -40
.LBB20:
.LBB19:
	.loc 1 72 11
	sw	zero,4(sp)
	.loc 1 73 5 is_stmt 1
.LVL63:
	.loc 1 74 5
	.loc 1 75 5
	.loc 1 77 5
	call	ADC_Reset
.LVL64:
	.loc 1 79 5
	call	ADC_Disable
.LVL65:
	.loc 1 80 5
	call	ADC_Enable
.LVL66:
	.loc 1 82 5
	lui	a0,%hi(.LANCHOR0)
	addi	a0,a0,%lo(.LANCHOR0)
	call	ADC_Init
.LVL67:
	.loc 1 83 5
	li	a2,0
	li	a1,23
	li	a0,14
	call	ADC_Channel_Config
.LVL68:
	.loc 1 84 5
	li	a0,0
	call	ADC_Tsen_Init
.LVL69:
	.loc 1 86 5
	lui	a0,%hi(.LANCHOR1)
	addi	a0,a0,%lo(.LANCHOR1)
	call	ADC_FIFO_Cfg
.LVL70:
	.loc 1 87 5
	call	TSEN_Calibration
.LVL71:
	.loc 1 89 2
	.loc 1 89 10
	.loc 1 107 23 is_stmt 0
	lui	a5,%hi(.LC6)
	flw	fs0,%lo(.LC6)(a5)
	.loc 1 108 33
	lui	a5,%hi(.LC7)
	lw	s2,%lo(.LC7)(a5)
	lw	s3,%lo(.LC7+4)(a5)
	.loc 1 74 19
	li	s5,0
	.loc 1 74 14
	li	s4,0
	.loc 1 89 7
	li	s0,0
	.loc 1 109 152
	lui	s6,%hi(.LC1)
	lui	s7,%hi(.LC4)
.LVL72:
.L59:
	.loc 1 90 3 is_stmt 1
	call	ADC_Start
.LVL73:
	.loc 1 92 3
.L45:
	.loc 1 92 35
	.loc 1 92 8
	.loc 1 92 9 is_stmt 0
	call	ADC_Get_FIFO_Count
.LVL74:
	.loc 1 92 8
	beq	a0,zero,.L45
	.loc 1 98 20
	andi	s1,s0,1
.L48:
	.loc 1 94 3 is_stmt 1
	.loc 1 95 4
	.loc 1 95 13 is_stmt 0
	call	ADC_Read_FIFO
.LVL75:
	.loc 1 95 11
	sw	a0,4(sp)
	.loc 1 96 4 is_stmt 1
	addi	a2,sp,8
	li	a1,1
	addi	a0,sp,4
	call	ADC_Parse_Result
.LVL76:
	.loc 1 98 13
	lhu	a5,10(sp)
	.loc 1 98 15 is_stmt 0
	bne	s1,zero,.L46
	.loc 1 99 17 is_stmt 1
	.loc 1 99 20 is_stmt 0
	mv	s4,a5
.LVL77:
.L47:
	.loc 1 103 9 is_stmt 1
	.loc 1 103 10 is_stmt 0
	call	ADC_Get_FIFO_Count
.LVL78:
	.loc 1 103 3
	bne	a0,zero,.L48
	.loc 1 105 9 is_stmt 1
	.loc 1 105 11 is_stmt 0
	beq	s1,zero,.L49
	.loc 1 106 15 is_stmt 1
.LVL79:
	.loc 1 107 15
	.loc 1 108 15
	.loc 1 109 13
	.loc 1 109 51
	.loc 1 109 56
	.loc 1 109 77 is_stmt 0
	lui	s1,%hi(_fsymc_level_hosal)
	.loc 1 109 59
	lw	a4,%lo(_fsymc_level_hosal)(s1)
	li	a5,2
	bgtu	a4,a5,.L58
	.loc 1 109 120
	lui	s8,%hi(_fsymf_level_hosalbl_adc)
	.loc 1 109 100
	lw	a4,%lo(_fsymf_level_hosalbl_adc)(s8)
	bgtu	a4,a5,.L58
	.loc 1 109 152 is_stmt 1
	.loc 1 109 236 is_stmt 0
	call	xPortIsInsideInterrupt
.LVL80:
	.loc 1 109 152
	beq	a0,zero,.L53
	.loc 1 109 265
	call	xTaskGetTickCountFromISR
.LVL81:
.L67:
	.loc 1 109 296
	mv	a2,a0
	.loc 1 109 152
	lui	a0,%hi(.LC8)
	mv	a5,s4
	li	a4,109
	mv	a6,s5
	addi	a3,s6,%lo(.LC1)
	addi	a1,s7,%lo(.LC4)
	addi	a0,a0,%lo(.LC8)
	call	bl_printk
.LVL82:
	.loc 1 109 352 is_stmt 1
	.loc 1 109 363
	.loc 1 111 13
	.loc 1 111 51
	.loc 1 111 56
	.loc 1 111 59 is_stmt 0
	lw	a4,%lo(_fsymc_level_hosal)(s1)
	li	a5,2
	bgtu	a4,a5,.L58
	.loc 1 111 100
	lw	a4,%lo(_fsymf_level_hosalbl_adc)(s8)
	bleu	a4,a5,.L52
.L58:
	.loc 1 111 386 is_stmt 1
	.loc 1 111 397
	.loc 1 113 9
	.loc 1 116 13
	call	ADC_SET_TSVBE_LOW
.LVL83:
	j	.L60
.LVL84:
.L46:
	.loc 1 101 17
	.loc 1 101 20 is_stmt 0
	mv	s5,a5
.LVL85:
	j	.L47
.LVL86:
.L53:
	.loc 1 109 296
	call	xTaskGetTickCount
.LVL87:
	j	.L67
.L52:
	.loc 1 111 152 is_stmt 1
	.loc 1 111 256 is_stmt 0
	call	xPortIsInsideInterrupt
.LVL88:
	.loc 1 111 152
	beq	a0,zero,.L56
	.loc 1 111 285
	call	xTaskGetTickCountFromISR
.LVL89:
.L68:
	.loc 1 106 37
	fcvt.s.wu	fa5,s5
	.loc 1 106 25
	fcvt.s.w	fa0,s4
	.loc 1 111 316
	mv	s1,a0
	.loc 1 106 23
	fsub.s	fa0,fa0,fa5
	.loc 1 108 33
	fsub.s	fa0,fa0,fs0
	call	__extendsfdf2
.LVL90:
	mv	a2,s2
	mv	a3,s3
	call	__divdf3
.LVL91:
	.loc 1 108 23
	call	__truncdfsf2
.LVL92:
	.loc 1 111 152
	fcvt.wu.s a5,fa0,rtz
	lui	a0,%hi(.LC9)
	li	a4,111
	addi	a3,s6,%lo(.LC1)
	mv	a2,s1
	addi	a1,s7,%lo(.LC4)
	addi	a0,a0,%lo(.LC9)
	call	bl_printk
.LVL93:
	j	.L58
.L56:
	.loc 1 111 316
	call	xTaskGetTickCount
.LVL94:
	j	.L68
.LVL95:
.L49:
	.loc 1 111 386 is_stmt 1
	.loc 1 111 397
	.loc 1 113 9
	.loc 1 114 13
	call	ADC_SET_TSVBE_HIGH
.LVL96:
.L60:
	.loc 1 118 3
	li	a0,500
	call	BL602_Delay_MS
.LVL97:
	.loc 1 89 15
	.loc 1 89 16 is_stmt 0
	addi	s0,s0,1
.LVL98:
	andi	s0,s0,0xff
.LVL99:
	.loc 1 89 10 is_stmt 1
	.loc 1 89 2 is_stmt 0
	li	a5,40
	bne	s0,a5,.L59
.LBE19:
.LBE20:
	.loc 1 191 1
	lw	ra,76(sp)
	.cfi_restore 1
	lw	s0,72(sp)
	.cfi_restore 8
.LVL100:
	lw	s1,68(sp)
	.cfi_restore 9
	lw	s2,64(sp)
	.cfi_restore 18
	lw	s3,60(sp)
	.cfi_restore 19
	lw	s4,56(sp)
	.cfi_restore 20
.LVL101:
	lw	s5,52(sp)
	.cfi_restore 21
.LVL102:
	lw	s6,48(sp)
	.cfi_restore 22
	lw	s7,44(sp)
	.cfi_restore 23
	lw	s8,40(sp)
	.cfi_restore 24
	flw	fs0,28(sp)
	.cfi_restore 40
	li	a0,0
	addi	sp,sp,80
	.cfi_def_cfa_offset 0
	jr	ra
	.cfi_endproc
.LFE35:
	.size	test_adc_test, .-test_adc_test
	.section	.rodata.bl_tsen_adc_get.str1.4,"aMS",@progbits,1
	.align	2
.LC10:
	.string	"%s (%d)[%s:%4d] read efuse data failed\r\n\r\n"
	.align	2
.LC11:
	.string	"%s (%d)[%s:%4d] offset = %d\r\n\r\n"
	.align	2
.LC12:
	.string	"%s (%d)[%s:%4d] temperature = %f Celsius\r\n\r\n"
	.section	.text.bl_tsen_adc_get,"ax",@progbits
	.align	1
	.globl	bl_tsen_adc_get
	.type	bl_tsen_adc_get, @function
bl_tsen_adc_get:
.LFB36:
	.loc 1 194 1 is_stmt 1
	.cfi_startproc
.LVL103:
	.loc 1 195 5
	.loc 1 196 5
	.loc 1 198 5
	.loc 1 194 1 is_stmt 0
	addi	sp,sp,-128
	.cfi_def_cfa_offset 128
	sw	s3,108(sp)
	.cfi_offset 19, -20
	.loc 1 198 16
	lui	s3,%hi(.LANCHOR2)
	.loc 1 198 8
	lhu	a4,%lo(.LANCHOR2)(s3)
	li	a5,65536
	.loc 1 194 1
	sw	s0,120(sp)
	sw	s1,116(sp)
	sw	s2,112(sp)
	sw	ra,124(sp)
	fsw	fs0,92(sp)
	.cfi_offset 8, -8
	.cfi_offset 9, -12
	.cfi_offset 18, -16
	.cfi_offset 1, -4
	.cfi_offset 40, -36
	.loc 1 198 8
	addi	a5,a5,-1
	.loc 1 194 1
	mv	s0,a0
	mv	s1,a1
	addi	s2,s3,%lo(.LANCHOR2)
	.loc 1 198 8
	bne	a4,a5,.L70
.LBB21:
	.loc 1 199 9 is_stmt 1
	.loc 1 200 22 is_stmt 0
	lui	a1,%hi(.LANCHOR3)
.LVL104:
	li	a2,52
	addi	a1,a1,%lo(.LANCHOR3)
	addi	a0,sp,28
.LVL105:
	.loc 1 199 21
	sh	zero,0(s2)
	.loc 1 200 9 is_stmt 1
	.loc 1 200 22 is_stmt 0
	call	memcpy
.LVL106:
	.loc 1 217 9 is_stmt 1
	.loc 1 222 9 is_stmt 0
	li	a2,7
	li	a1,0
	li	a0,1
	.loc 1 217 27
	sw	zero,20(sp)
	sw	zero,24(sp)
	.loc 1 222 9 is_stmt 1
	call	GLB_Set_ADC_CLK
.LVL107:
	.loc 1 224 9
	call	ADC_Disable
.LVL108:
	.loc 1 225 9
	call	ADC_Enable
.LVL109:
	.loc 1 227 9
	call	ADC_Reset
.LVL110:
	.loc 1 229 9
	addi	a0,sp,28
	call	ADC_Init
.LVL111:
	.loc 1 230 9
	li	a2,0
	li	a1,23
	li	a0,14
	call	ADC_Channel_Config
.LVL112:
	.loc 1 231 9
	li	a0,0
	call	ADC_Tsen_Init
.LVL113:
	.loc 1 233 9
	addi	a0,sp,20
	call	ADC_FIFO_Cfg
.LVL114:
	.loc 1 235 9
	.loc 1 235 13 is_stmt 0
	addi	a0,s3,%lo(.LANCHOR2)
	call	ADC_Trim_TSEN
.LVL115:
	.loc 1 235 12
	li	a4,1
	lui	a5,%hi(_fsymc_level_hosal)
	bne	a0,a4,.L71
	.loc 1 236 13 is_stmt 1 discriminator 1
	.loc 1 236 51 discriminator 1
	.loc 1 236 56 discriminator 1
	.loc 1 236 59 is_stmt 0 discriminator 1
	lw	a4,%lo(_fsymc_level_hosal)(a5)
	li	a5,4
	bgtu	a4,a5,.L70
	.loc 1 236 122 discriminator 3
	lui	a4,%hi(_fsymf_level_hosalbl_adc)
	.loc 1 236 101 discriminator 3
	lw	a4,%lo(_fsymf_level_hosalbl_adc)(a4)
	bgtu	a4,a5,.L70
	.loc 1 236 154 is_stmt 1 discriminator 5
	.loc 1 236 245 is_stmt 0 discriminator 5
	call	xPortIsInsideInterrupt
.LVL116:
	.loc 1 236 154 discriminator 5
	beq	a0,zero,.L73
	.loc 1 236 274 discriminator 7
	call	xTaskGetTickCountFromISR
.LVL117:
.L88:
	.loc 1 236 305 discriminator 8
	mv	a2,a0
	.loc 1 236 154 discriminator 8
	lui	a3,%hi(.LC1)
	lui	a1,%hi(.LC2)
	lui	a0,%hi(.LC10)
	li	a4,236
	addi	a3,a3,%lo(.LC1)
	addi	a1,a1,%lo(.LC2)
	addi	a0,a0,%lo(.LC10)
	call	bl_printk
.LVL118:
.L70:
.LBE21:
	.loc 1 241 5 is_stmt 1
	.loc 1 241 11 is_stmt 0
	lhu	a0,0(s2)
	call	TSEN_Get_Temp
.LVL119:
	fmv.s	fs0,fa0
.LVL120:
	.loc 1 242 5 is_stmt 1
	.loc 1 242 8 is_stmt 0
	beq	s1,zero,.L77
	.loc 1 243 9 is_stmt 1 discriminator 1
	.loc 1 243 47 discriminator 1
	.loc 1 243 52 discriminator 1
	.loc 1 243 73 is_stmt 0 discriminator 1
	lui	a5,%hi(_fsymc_level_hosal)
	.loc 1 243 55 discriminator 1
	lw	a4,%lo(_fsymc_level_hosal)(a5)
	li	a5,2
	bgtu	a4,a5,.L77
	.loc 1 243 116 discriminator 3
	lui	a4,%hi(_fsymf_level_hosalbl_adc)
	.loc 1 243 96 discriminator 3
	lw	a4,%lo(_fsymf_level_hosalbl_adc)(a4)
	bgtu	a4,a5,.L77
	.loc 1 243 148 is_stmt 1 discriminator 5
	.loc 1 243 240 is_stmt 0 discriminator 5
	call	xPortIsInsideInterrupt
.LVL121:
	.loc 1 243 148 discriminator 5
	beq	a0,zero,.L78
	.loc 1 243 269 discriminator 7
	call	xTaskGetTickCountFromISR
.LVL122:
.L90:
	.loc 1 243 148 discriminator 8
	fmv.s	fa0,fs0
	sw	a0,12(sp)
	call	__extendsfdf2
.LVL123:
	lw	a2,12(sp)
	mv	a6,a0
	mv	a7,a1
	lui	a3,%hi(.LC1)
	lui	a1,%hi(.LC4)
	lui	a0,%hi(.LC12)
	li	a4,243
	addi	a3,a3,%lo(.LC1)
	addi	a1,a1,%lo(.LC4)
	addi	a0,a0,%lo(.LC12)
	call	bl_printk
.LVL124:
.L77:
	.loc 1 243 355 is_stmt 1 discriminator 11
	.loc 1 243 366 discriminator 11
	.loc 1 246 5 discriminator 11
	.loc 1 246 8 is_stmt 0 discriminator 11
	beq	s0,zero,.L80
	.loc 1 247 9 is_stmt 1
	.loc 1 247 17 is_stmt 0
	fcvt.w.s a5,fs0,rtz
	sh	a5,0(s0)
.L80:
	.loc 1 250 5 is_stmt 1
	.loc 1 251 1 is_stmt 0
	lw	ra,124(sp)
	.cfi_remember_state
	.cfi_restore 1
	lw	s0,120(sp)
	.cfi_restore 8
.LVL125:
	lw	s1,116(sp)
	.cfi_restore 9
	lw	s2,112(sp)
	.cfi_restore 18
	lw	s3,108(sp)
	.cfi_restore 19
	flw	fs0,92(sp)
	.cfi_restore 40
.LVL126:
	li	a0,0
	addi	sp,sp,128
	.cfi_def_cfa_offset 0
	jr	ra
.LVL127:
.L73:
	.cfi_restore_state
.LBB22:
	.loc 1 236 305 discriminator 8
	call	xTaskGetTickCount
.LVL128:
	j	.L88
.L71:
	.loc 1 238 13 is_stmt 1 discriminator 1
	.loc 1 238 51 discriminator 1
	.loc 1 238 56 discriminator 1
	.loc 1 238 59 is_stmt 0 discriminator 1
	lw	a4,%lo(_fsymc_level_hosal)(a5)
	li	a5,2
	bgtu	a4,a5,.L70
	.loc 1 238 120 discriminator 3
	lui	a4,%hi(_fsymf_level_hosalbl_adc)
	.loc 1 238 100 discriminator 3
	lw	a4,%lo(_fsymf_level_hosalbl_adc)(a4)
	bgtu	a4,a5,.L70
	.loc 1 238 152 is_stmt 1 discriminator 5
	.loc 1 238 231 is_stmt 0 discriminator 5
	call	xPortIsInsideInterrupt
.LVL129:
	.loc 1 238 152 discriminator 5
	beq	a0,zero,.L75
	.loc 1 238 260 discriminator 7
	call	xTaskGetTickCountFromISR
.LVL130:
.L89:
	.loc 1 238 152 discriminator 8
	lhu	a5,0(s2)
	.loc 1 238 291 discriminator 8
	mv	a2,a0
	.loc 1 238 152 discriminator 8
	lui	a3,%hi(.LC1)
	lui	a1,%hi(.LC4)
	lui	a0,%hi(.LC11)
	li	a4,238
	addi	a3,a3,%lo(.LC1)
	addi	a1,a1,%lo(.LC4)
	addi	a0,a0,%lo(.LC11)
	call	bl_printk
.LVL131:
	.loc 1 238 354 is_stmt 1 discriminator 8
	.loc 1 238 365 discriminator 8
	j	.L70
.L75:
	.loc 1 238 291 is_stmt 0 discriminator 8
	call	xTaskGetTickCount
.LVL132:
	j	.L89
.LVL133:
.L78:
.LBE22:
	.loc 1 243 300 discriminator 8
	call	xTaskGetTickCount
.LVL134:
	j	.L90
	.cfi_endproc
.LFE36:
	.size	bl_tsen_adc_get, .-bl_tsen_adc_get
	.section	.rodata.bl_adc_freq_init.str1.4,"aMS",@progbits,1
	.align	2
.LC13:
	.string	"%s (%d)[%s:%4d] ADC freq: %ldHz. \r\n\r\n"
	.section	.text.bl_adc_freq_init,"ax",@progbits
	.align	1
	.globl	bl_adc_freq_init
	.type	bl_adc_freq_init, @function
bl_adc_freq_init:
.LFB38:
	.loc 1 282 1 is_stmt 1
	.cfi_startproc
.LVL135:
	.loc 1 283 5
	.loc 1 284 5
	.loc 1 285 5
	.loc 1 287 5
	.loc 1 282 1 is_stmt 0
	addi	sp,sp,-16
	.cfi_def_cfa_offset 16
	sw	s1,4(sp)
	sw	ra,12(sp)
	sw	s0,8(sp)
	.cfi_offset 9, -12
	.cfi_offset 1, -4
	.cfi_offset 8, -8
	.loc 1 290 19
	li	s1,1
	.loc 1 287 8
	bne	a0,zero,.L92
	li	s1,12
.L92:
.LVL136:
	.loc 1 293 5 is_stmt 1
	.loc 1 293 39 is_stmt 0
	li	a5,1280
	mul	s1,s1,a5
.LVL137:
	.loc 1 293 17
	li	a5,96002048
	addi	a5,a5,-2048
	divu	s1,a5,s1
.LVL138:
	.loc 1 294 5 is_stmt 1
	.loc 1 294 9 is_stmt 0
	divu	s0,s1,a1
.LVL139:
	.loc 1 295 5 is_stmt 1
	.loc 1 295 15 is_stmt 0
	addi	a4,s0,1
	.loc 1 295 20
	mul	a5,a4,a1
	.loc 1 295 8
	remu	a1,s1,a1
.LVL140:
	.loc 1 295 27
	sub	a5,a5,s1
	.loc 1 295 8
	bgeu	a5,a1,.L93
	.loc 1 296 13
	mv	s0,a4
.LVL141:
.L93:
	.loc 1 299 5 is_stmt 1
	li	a5,64
	bleu	s0,a5,.L94
	li	s0,64
.LVL142:
.L94:
	li	a5,3
	bgeu	s0,a5,.L95
	li	s0,3
.L95:
.LVL143:
	.loc 1 307 5
	.loc 1 307 43
	.loc 1 307 48
	.loc 1 307 69 is_stmt 0
	lui	a5,%hi(_fsymc_level_hosal)
	.loc 1 307 51
	lw	a4,%lo(_fsymc_level_hosal)(a5)
	li	a5,2
	bgtu	a4,a5,.L96
	.loc 1 307 112 discriminator 3
	lui	a4,%hi(_fsymf_level_hosalbl_adc)
	.loc 1 307 92 discriminator 3
	lw	a4,%lo(_fsymf_level_hosalbl_adc)(a4)
	bgtu	a4,a5,.L96
	.loc 1 307 144 is_stmt 1 discriminator 5
	.loc 1 307 229 is_stmt 0 discriminator 5
	call	xPortIsInsideInterrupt
.LVL144:
	.loc 1 307 144 discriminator 5
	beq	a0,zero,.L97
	.loc 1 307 258 discriminator 7
	call	xTaskGetTickCountFromISR
.LVL145:
.L103:
	.loc 1 307 144 discriminator 8
	divu	a5,s1,s0
	.loc 1 307 289 discriminator 8
	mv	a2,a0
	.loc 1 307 144 discriminator 8
	lui	a3,%hi(.LC1)
	lui	a1,%hi(.LC4)
	lui	a0,%hi(.LC13)
	li	a4,307
	addi	a3,a3,%lo(.LC1)
	addi	a1,a1,%lo(.LC4)
	addi	a0,a0,%lo(.LC13)
	call	bl_printk
.LVL146:
.L96:
	.loc 1 307 365 is_stmt 1 discriminator 11
	.loc 1 307 376 discriminator 11
	.loc 1 309 5 discriminator 11
	addi	a2,s0,-1
	andi	a2,a2,0xff
	li	a1,0
	li	a0,1
	call	GLB_Set_ADC_CLK
.LVL147:
	.loc 1 311 5 discriminator 11
	.loc 1 312 1 is_stmt 0 discriminator 11
	lw	ra,12(sp)
	.cfi_remember_state
	.cfi_restore 1
	lw	s0,8(sp)
	.cfi_restore 8
.LVL148:
	lw	s1,4(sp)
	.cfi_restore 9
.LVL149:
	li	a0,0
	addi	sp,sp,16
	.cfi_def_cfa_offset 0
	jr	ra
.LVL150:
.L97:
	.cfi_restore_state
	.loc 1 307 289 discriminator 8
	call	xTaskGetTickCount
.LVL151:
	j	.L103
	.cfi_endproc
.LFE38:
	.size	bl_adc_freq_init, .-bl_adc_freq_init
	.section	.rodata.bl_adc_dma_init.str1.4,"aMS",@progbits,1
	.align	2
.LC14:
	.string	"%s (%d)[%s:%4d] illegal para. \r\n\r\n"
	.align	2
.LC15:
	.string	"%s (%d)[%s:%4d] malloc adc_ctx failed \r\n\r\n"
	.align	2
.LC16:
	.string	"%s (%d)[%s:%4d] malloc lli failed. \r\n\r\n"
	.align	2
.LC17:
	.string	"%s (%d)[%s:%4d] malloc lli buf failed. \r\n\r\n"
	.section	.text.bl_adc_dma_init,"ax",@progbits
	.align	1
	.globl	bl_adc_dma_init
	.type	bl_adc_dma_init, @function
bl_adc_dma_init:
.LFB41:
	.loc 1 395 1 is_stmt 1
	.cfi_startproc
.LVL152:
	.loc 1 396 5
	.loc 1 397 5
	.loc 1 398 5
	.loc 1 399 5
	.loc 1 401 5
	.loc 1 395 1 is_stmt 0
	addi	sp,sp,-48
	.cfi_def_cfa_offset 48
	sw	ra,44(sp)
	sw	s0,40(sp)
	sw	s1,36(sp)
	sw	s2,32(sp)
	sw	s3,28(sp)
	sw	s4,24(sp)
	.cfi_offset 1, -4
	.cfi_offset 8, -8
	.cfi_offset 9, -12
	.cfi_offset 18, -16
	.cfi_offset 19, -20
	.cfi_offset 20, -24
	.loc 1 401 8
	bne	a1,zero,.L105
	.loc 1 402 9 is_stmt 1 discriminator 1
	.loc 1 402 47 discriminator 1
	.loc 1 402 52 discriminator 1
	.loc 1 402 74 is_stmt 0 discriminator 1
	lui	a5,%hi(_fsymc_level_hosal)
	.loc 1 402 55 discriminator 1
	lw	a4,%lo(_fsymc_level_hosal)(a5)
	li	a5,4
	bleu	a4,a5,.L106
.LVL153:
.L126:
	.loc 1 425 16 discriminator 10
	li	a0,-1
.L104:
	.loc 1 447 1
	lw	ra,44(sp)
	.cfi_remember_state
	.cfi_restore 1
	lw	s0,40(sp)
	.cfi_restore 8
	lw	s1,36(sp)
	.cfi_restore 9
	lw	s2,32(sp)
	.cfi_restore 18
	lw	s3,28(sp)
	.cfi_restore 19
	lw	s4,24(sp)
	.cfi_restore 20
	addi	sp,sp,48
	.cfi_def_cfa_offset 0
	jr	ra
.LVL154:
.L106:
	.cfi_restore_state
	.loc 1 402 118 discriminator 3
	lui	a4,%hi(_fsymf_level_hosalbl_adc)
	.loc 1 402 97 discriminator 3
	lw	a4,%lo(_fsymf_level_hosalbl_adc)(a4)
	bgtu	a4,a5,.L126
	.loc 1 402 150 is_stmt 1 discriminator 5
	.loc 1 402 233 is_stmt 0 discriminator 5
	call	xPortIsInsideInterrupt
.LVL155:
	.loc 1 402 150 discriminator 5
	beq	a0,zero,.L109
	.loc 1 402 262 discriminator 7
	call	xTaskGetTickCountFromISR
.LVL156:
.L121:
	.loc 1 402 293 discriminator 8
	mv	a2,a0
	.loc 1 402 150 discriminator 8
	lui	a3,%hi(.LC1)
	lui	a1,%hi(.LC2)
	lui	a0,%hi(.LC14)
	li	a4,402
	addi	a3,a3,%lo(.LC1)
	addi	a1,a1,%lo(.LC2)
	addi	a0,a0,%lo(.LC14)
.L125:
	.loc 1 423 150 discriminator 10
	call	bl_printk
.LVL157:
	j	.L126
.L109:
	.loc 1 402 293 discriminator 8
	call	xTaskGetTickCount
.LVL158:
	j	.L121
.LVL159:
.L105:
	mv	s4,a0
	.loc 1 407 14
	li	a0,28
.LVL160:
	mv	s3,a1
	.loc 1 407 5 is_stmt 1
	.loc 1 407 14 is_stmt 0
	call	pvPortMalloc
.LVL161:
	mv	s1,a0
.LVL162:
	.loc 1 408 5 is_stmt 1
	.loc 1 408 8 is_stmt 0
	bne	a0,zero,.L111
	.loc 1 409 9 is_stmt 1 discriminator 1
	.loc 1 409 47 discriminator 1
	.loc 1 409 52 discriminator 1
	.loc 1 409 74 is_stmt 0 discriminator 1
	lui	a5,%hi(_fsymc_level_hosal)
	.loc 1 409 55 discriminator 1
	lw	a4,%lo(_fsymc_level_hosal)(a5)
	li	a5,4
	bgtu	a4,a5,.L126
	.loc 1 409 118 discriminator 3
	lui	a4,%hi(_fsymf_level_hosalbl_adc)
	.loc 1 409 97 discriminator 3
	lw	a4,%lo(_fsymf_level_hosalbl_adc)(a4)
	bgtu	a4,a5,.L126
	.loc 1 409 150 is_stmt 1 discriminator 5
	.loc 1 409 241 is_stmt 0 discriminator 5
	call	xPortIsInsideInterrupt
.LVL163:
	.loc 1 409 150 discriminator 5
	beq	a0,zero,.L112
	.loc 1 409 270 discriminator 7
	call	xTaskGetTickCountFromISR
.LVL164:
.L122:
	.loc 1 409 301 discriminator 8
	mv	a2,a0
	.loc 1 409 150 discriminator 8
	lui	a3,%hi(.LC1)
	lui	a1,%hi(.LC2)
	lui	a0,%hi(.LC15)
	li	a4,409
	addi	a3,a3,%lo(.LC1)
	addi	a1,a1,%lo(.LC2)
	addi	a0,a0,%lo(.LC15)
	j	.L125
.L112:
	.loc 1 409 301 discriminator 8
	call	xTaskGetTickCount
.LVL165:
	j	.L122
.L111:
	.loc 1 414 5 is_stmt 1
	.loc 1 414 14 is_stmt 0
	li	a0,32
	call	pvPortMalloc
.LVL166:
	mv	s0,a0
.LVL167:
	.loc 1 415 5 is_stmt 1
	.loc 1 415 8 is_stmt 0
	bne	a0,zero,.L114
	.loc 1 416 9 is_stmt 1 discriminator 1
	.loc 1 416 47 discriminator 1
	.loc 1 416 52 discriminator 1
	.loc 1 416 74 is_stmt 0 discriminator 1
	lui	a5,%hi(_fsymc_level_hosal)
	.loc 1 416 55 discriminator 1
	lw	a4,%lo(_fsymc_level_hosal)(a5)
	li	a5,4
	bgtu	a4,a5,.L126
	.loc 1 416 118 discriminator 3
	lui	a4,%hi(_fsymf_level_hosalbl_adc)
	.loc 1 416 97 discriminator 3
	lw	a4,%lo(_fsymf_level_hosalbl_adc)(a4)
	bgtu	a4,a5,.L126
	.loc 1 416 150 is_stmt 1 discriminator 5
	.loc 1 416 238 is_stmt 0 discriminator 5
	call	xPortIsInsideInterrupt
.LVL168:
	.loc 1 416 150 discriminator 5
	beq	a0,zero,.L115
	.loc 1 416 267 discriminator 7
	call	xTaskGetTickCountFromISR
.LVL169:
.L123:
	.loc 1 416 298 discriminator 8
	mv	a2,a0
	.loc 1 416 150 discriminator 8
	lui	a3,%hi(.LC1)
	lui	a1,%hi(.LC2)
	lui	a0,%hi(.LC16)
	li	a4,416
	addi	a3,a3,%lo(.LC1)
	addi	a1,a1,%lo(.LC2)
	addi	a0,a0,%lo(.LC16)
	j	.L125
.L115:
	.loc 1 416 298 discriminator 8
	call	xTaskGetTickCount
.LVL170:
	j	.L123
.L114:
	.loc 1 421 5 is_stmt 1
	.loc 1 421 14 is_stmt 0
	slli	a0,s3,3
	call	pvPortMalloc
.LVL171:
	mv	s2,a0
.LVL172:
	.loc 1 422 5 is_stmt 1
	.loc 1 422 8 is_stmt 0
	bne	a0,zero,.L117
	.loc 1 423 9 is_stmt 1 discriminator 1
	.loc 1 423 47 discriminator 1
	.loc 1 423 52 discriminator 1
	.loc 1 423 74 is_stmt 0 discriminator 1
	lui	a5,%hi(_fsymc_level_hosal)
	.loc 1 423 55 discriminator 1
	lw	a4,%lo(_fsymc_level_hosal)(a5)
	li	a5,4
	bgtu	a4,a5,.L126
	.loc 1 423 118 discriminator 3
	lui	a4,%hi(_fsymf_level_hosalbl_adc)
	.loc 1 423 97 discriminator 3
	lw	a4,%lo(_fsymf_level_hosalbl_adc)(a4)
	bgtu	a4,a5,.L126
	.loc 1 423 150 is_stmt 1 discriminator 5
	.loc 1 423 242 is_stmt 0 discriminator 5
	call	xPortIsInsideInterrupt
.LVL173:
	.loc 1 423 150 discriminator 5
	beq	a0,zero,.L118
	.loc 1 423 271 discriminator 7
	call	xTaskGetTickCountFromISR
.LVL174:
.L124:
	.loc 1 423 302 discriminator 8
	mv	a2,a0
	.loc 1 423 150 discriminator 8
	lui	a3,%hi(.LC1)
	lui	a1,%hi(.LC2)
	lui	a0,%hi(.LC17)
	li	a4,423
	addi	a3,a3,%lo(.LC1)
	addi	a1,a1,%lo(.LC2)
	addi	a0,a0,%lo(.LC17)
	j	.L125
.L118:
	.loc 1 423 302 discriminator 8
	call	xTaskGetTickCount
.LVL175:
	j	.L124
.LVL176:
.L117:
	.loc 1 428 5 is_stmt 1
	.loc 1 428 16 is_stmt 0
	li	a5,2
	sw	a5,4(sp)
	.loc 1 429 5 is_stmt 1
	.loc 1 431 5 is_stmt 0
	li	a0,1
.LVL177:
	.loc 1 429 22
	li	a5,22
	sw	a5,8(sp)
	.loc 1 430 5 is_stmt 1
	.loc 1 430 22 is_stmt 0
	sw	zero,12(sp)
	.loc 1 431 5 is_stmt 1
	call	DMA_Channel_Disable
.LVL178:
	.loc 1 433 5
.LBB25:
.LBB26:
	.loc 1 368 5
	.loc 1 370 5
	.loc 1 371 5
	.loc 1 372 5
	.loc 1 373 5
	.loc 1 374 5
	.loc 1 375 5
	.loc 1 376 5
	.loc 1 377 5
	.loc 1 378 5
	.loc 1 379 5
	.loc 1 381 5
	.loc 1 383 35 is_stmt 0
	addi	a5,s0,16
	.loc 1 383 23
	sw	a5,8(s0)
	.loc 1 384 22
	slli	a5,s3,20
	li	a4,-2008547328
	srli	a5,a5,20
	or	a5,a5,a4
	lw	a4,12(s0)
	li	a3,33554432
	.loc 1 381 26
	li	a2,1073750016
	.loc 1 384 22
	and	a4,a3,a4
	or	a4,a5,a4
	sw	a4,12(s0)
	.loc 1 389 22
	lw	a4,28(s0)
	.loc 1 381 26
	addi	a2,a2,4
	.loc 1 382 27
	sw	s2,4(s0)
	.loc 1 389 22
	and	a3,a3,a4
	or	a5,a5,a3
	.loc 1 387 39
	addi	s2,s2,48
.LVL179:
	.loc 1 381 26
	sw	a2,0(s0)
	.loc 1 382 5 is_stmt 1
	.loc 1 383 5
	.loc 1 384 5
	.loc 1 386 5
	.loc 1 386 26 is_stmt 0
	sw	a2,16(s0)
	.loc 1 387 5 is_stmt 1
	.loc 1 389 22 is_stmt 0
	sw	a5,28(s0)
.LBE26:
.LBE25:
	.loc 1 434 5
	addi	a1,sp,4
	li	a0,1
.LBB28:
.LBB27:
	.loc 1 387 27
	sw	s2,20(s0)
	.loc 1 388 5 is_stmt 1
	.loc 1 388 23 is_stmt 0
	sw	s0,24(s0)
	.loc 1 389 5 is_stmt 1
	.loc 1 391 5
.LVL180:
.LBE27:
.LBE28:
	.loc 1 434 5
	call	DMA_LLI_Init
.LVL181:
	.loc 1 435 5
	mv	a1,s0
	li	a0,1
	call	DMA_LLI_Update
.LVL182:
	.loc 1 437 5
	.loc 1 444 5 is_stmt 0
	lui	a1,%hi(adc_data_update)
	.loc 1 437 18
	sw	s4,0(s1)
	.loc 1 438 5 is_stmt 1
	.loc 1 438 21 is_stmt 0
	sw	s0,8(s1)
	.loc 1 439 5 is_stmt 1
	.loc 1 439 22 is_stmt 0
	sw	zero,12(s1)
	.loc 1 440 5 is_stmt 1
	.loc 1 440 29 is_stmt 0
	sw	zero,16(s1)
	.loc 1 441 5 is_stmt 1
	.loc 1 441 26 is_stmt 0
	sw	zero,4(s1)
	.loc 1 442 5 is_stmt 1
	.loc 1 442 23 is_stmt 0
	sw	s3,20(s1)
	.loc 1 443 5 is_stmt 1
	.loc 1 443 16 is_stmt 0
	sw	zero,24(s1)
	.loc 1 444 5 is_stmt 1
	mv	a3,s1
	li	a2,0
	addi	a1,a1,%lo(adc_data_update)
	li	a0,1
	call	bl_dma_irq_register
.LVL183:
	.loc 1 446 5
	.loc 1 446 12 is_stmt 0
	li	a0,0
	j	.L104
	.cfi_endproc
.LFE41:
	.size	bl_adc_dma_init, .-bl_adc_dma_init
	.section	.text.bl_adc_start,"ax",@progbits
	.align	1
	.globl	bl_adc_start
	.type	bl_adc_start, @function
bl_adc_start:
.LFB42:
	.loc 1 450 1 is_stmt 1
	.cfi_startproc
	.loc 1 451 5
	.loc 1 450 1 is_stmt 0
	addi	sp,sp,-16
	.cfi_def_cfa_offset 16
	.loc 1 451 5
	li	a2,1
	li	a1,2
	li	a0,1
	.loc 1 450 1
	sw	ra,12(sp)
	.cfi_offset 1, -4
	.loc 1 451 5
	call	DMA_IntMask
.LVL184:
	.loc 1 452 5 is_stmt 1
	li	a2,0
	li	a1,0
	li	a0,1
	call	DMA_IntMask
.LVL185:
	.loc 1 453 5
	li	a2,0
	li	a1,1
	li	a0,1
	call	DMA_IntMask
.LVL186:
	.loc 1 455 5
	call	ADC_Start
.LVL187:
	.loc 1 456 5
	call	DMA_Enable
.LVL188:
	.loc 1 457 5
	li	a0,1
	call	DMA_Channel_Enable
.LVL189:
	.loc 1 459 5
	.loc 1 460 1 is_stmt 0
	lw	ra,12(sp)
	.cfi_restore 1
	li	a0,0
	addi	sp,sp,16
	.cfi_def_cfa_offset 0
	jr	ra
	.cfi_endproc
.LFE42:
	.size	bl_adc_start, .-bl_adc_start
	.section	.text.bl_adc_gpio_init,"ax",@progbits
	.align	1
	.globl	bl_adc_gpio_init
	.type	bl_adc_gpio_init, @function
bl_adc_gpio_init:
.LFB43:
	.loc 1 463 1 is_stmt 1
	.cfi_startproc
.LVL190:
	.loc 1 464 5
	.loc 1 463 1 is_stmt 0
	addi	sp,sp,-32
	.cfi_def_cfa_offset 32
	.loc 1 464 19
	sw	a0,12(sp)
	.loc 1 466 5 is_stmt 1
	addi	a1,sp,12
	li	a2,1
	li	a0,10
.LVL191:
	.loc 1 463 1 is_stmt 0
	sw	ra,28(sp)
	.cfi_offset 1, -4
	.loc 1 466 5
	call	GLB_GPIO_Func_Init
.LVL192:
	.loc 1 468 5 is_stmt 1
	.loc 1 469 1 is_stmt 0
	lw	ra,28(sp)
	.cfi_restore 1
	li	a0,0
	addi	sp,sp,32
	.cfi_def_cfa_offset 0
	jr	ra
	.cfi_endproc
.LFE43:
	.size	bl_adc_gpio_init, .-bl_adc_gpio_init
	.section	.text.bl_adc_parse_data,"ax",@progbits
	.align	1
	.globl	bl_adc_parse_data
	.type	bl_adc_parse_data, @function
bl_adc_parse_data:
.LFB45:
	.loc 1 482 1 is_stmt 1
	.cfi_startproc
.LVL193:
	.loc 1 483 5
	.loc 1 484 5
	.loc 1 486 5
	.loc 1 486 12 is_stmt 0
	li	a4,0
.LVL194:
.L132:
	.loc 1 486 17 is_stmt 1 discriminator 1
	.loc 1 486 5 is_stmt 0 discriminator 1
	blt	a4,a1,.L136
	.loc 1 499 12
	li	a0,-1
.LVL195:
	.loc 1 500 1
	ret
.LVL196:
.L136:
	.loc 1 487 9 is_stmt 1
	.loc 1 487 17 is_stmt 0
	slli	a5,a4,2
	add	a5,a0,a5
	lw	a5,0(a5)
	.loc 1 487 21
	srli	a6,a5,21
	.loc 1 487 12
	bne	a6,a2,.L133
	.loc 1 488 13 is_stmt 1
	li	a0,65536
.LVL197:
	addi	a0,a0,-1
	.loc 1 489 22 is_stmt 0
	and	a0,a5,a0
	.loc 1 488 16
	bne	a3,zero,.L134
	.loc 1 489 17 is_stmt 1
.LVL198:
	.loc 1 490 17
	.loc 1 490 24 is_stmt 0
	ret
.LVL199:
.L134:
	.loc 1 492 17 is_stmt 1
.LBB29:
.LBB30:
	.loc 1 473 5
	.loc 1 475 5
	.loc 1 476 5
	.loc 1 476 16 is_stmt 0
	li	a5,4096
	addi	a5,a5,-896
	mul	a0,a0,a5
.LVL200:
	.loc 1 478 5 is_stmt 1
	.loc 1 476 9 is_stmt 0
	srli	a0,a0,16
.LVL201:
.LBE30:
.LBE29:
	.loc 1 494 17 is_stmt 1
	.loc 1 494 24 is_stmt 0
	ret
.LVL202:
.L133:
	.loc 1 486 32 is_stmt 1 discriminator 2
	.loc 1 486 33 is_stmt 0 discriminator 2
	addi	a4,a4,1
.LVL203:
	j	.L132
	.cfi_endproc
.LFE45:
	.size	bl_adc_parse_data, .-bl_adc_parse_data
	.section	.text.bl_adc_get_channel_by_gpio,"ax",@progbits
	.align	1
	.globl	bl_adc_get_channel_by_gpio
	.type	bl_adc_get_channel_by_gpio, @function
bl_adc_get_channel_by_gpio:
.LFB46:
	.loc 1 503 1 is_stmt 1
	.cfi_startproc
.LVL204:
	.loc 1 504 5
	.loc 1 506 5
	.loc 1 506 8 is_stmt 0
	li	a4,4
	.loc 1 503 1
	mv	a5,a0
	.loc 1 506 8
	beq	a0,a4,.L139
	.loc 1 508 12 is_stmt 1
	.loc 1 508 15 is_stmt 0
	li	a4,5
	.loc 1 509 17
	li	a0,4
.LVL205:
	.loc 1 508 15
	beq	a5,a4,.L137
	.loc 1 510 12 is_stmt 1
	.loc 1 510 15 is_stmt 0
	li	a4,6
	.loc 1 511 17
	li	a0,5
	.loc 1 510 15
	beq	a5,a4,.L137
	.loc 1 512 12 is_stmt 1
	.loc 1 512 15 is_stmt 0
	li	a4,9
	.loc 1 513 17
	li	a0,7
	.loc 1 512 15
	beq	a5,a4,.L137
	.loc 1 514 12 is_stmt 1
	.loc 1 514 15 is_stmt 0
	li	a4,10
	.loc 1 515 17
	li	a0,9
	.loc 1 514 15
	beq	a5,a4,.L137
	.loc 1 516 12 is_stmt 1
	.loc 1 516 15 is_stmt 0
	li	a4,11
	.loc 1 517 17
	li	a0,10
	.loc 1 516 15
	beq	a5,a4,.L137
	.loc 1 518 12 is_stmt 1
	.loc 1 518 15 is_stmt 0
	li	a4,12
	.loc 1 519 17
	li	a0,0
	.loc 1 518 15
	beq	a5,a4,.L137
	.loc 1 520 12 is_stmt 1
	.loc 1 520 15 is_stmt 0
	li	a4,13
	.loc 1 521 17
	li	a0,3
	.loc 1 520 15
	beq	a5,a4,.L137
.LVL206:
.LBB33:
.LBB34:
	.loc 1 522 12 is_stmt 1
	.loc 1 522 15 is_stmt 0
	li	a4,14
	.loc 1 523 17
	li	a0,2
	.loc 1 522 15
	beq	a5,a4,.L137
	.loc 1 524 12 is_stmt 1
	.loc 1 524 15 is_stmt 0
	li	a4,15
	.loc 1 525 17
	li	a0,11
	.loc 1 524 15
	beq	a5,a4,.L137
	.loc 1 527 16
	li	a0,-1
	ret
.LVL207:
.L139:
.LBE34:
.LBE33:
	.loc 1 507 17
	li	a0,1
.LVL208:
.L137:
	.loc 1 531 1
	ret
	.cfi_endproc
.LFE46:
	.size	bl_adc_get_channel_by_gpio, .-bl_adc_get_channel_by_gpio
	.section	.text.bl_adc_init,"ax",@progbits
	.align	1
	.globl	bl_adc_init
	.type	bl_adc_init, @function
bl_adc_init:
.LFB39:
	.loc 1 315 1 is_stmt 1
	.cfi_startproc
.LVL209:
	.loc 1 316 5
	.loc 1 317 5
	.loc 1 318 5
	.loc 1 319 5
	.loc 1 320 5
	.loc 1 321 5
	.loc 1 322 5
	.loc 1 324 5
	.loc 1 315 1 is_stmt 0
	addi	sp,sp,-176
	.cfi_def_cfa_offset 176
	.loc 1 325 18
	li	a4,1
	.loc 1 324 18
	li	a5,2
	.loc 1 325 18
	sw	a4,112(sp)
	.loc 1 326 18
	li	a4,5
	.loc 1 315 1
	sw	ra,172(sp)
	sw	s0,168(sp)
	sw	s1,164(sp)
	.cfi_offset 1, -4
	.cfi_offset 8, -8
	.cfi_offset 9, -12
	.loc 1 315 1
	mv	s0,a0
	mv	s1,a1
	.loc 1 324 18
	sw	a5,108(sp)
	.loc 1 325 5 is_stmt 1
	.loc 1 326 5
	.loc 1 326 18 is_stmt 0
	sw	a4,116(sp)
	.loc 1 327 5 is_stmt 1
	.loc 1 334 20 is_stmt 0
	sw	a5,148(sp)
	.loc 1 327 17
	sw	zero,120(sp)
	.loc 1 328 5 is_stmt 1
	.loc 1 328 17 is_stmt 0
	sw	zero,124(sp)
	.loc 1 329 5 is_stmt 1
	.loc 1 329 20 is_stmt 0
	sw	zero,128(sp)
	.loc 1 330 5 is_stmt 1
	.loc 1 330 19 is_stmt 0
	sw	zero,132(sp)
	.loc 1 331 5 is_stmt 1
	.loc 1 331 15 is_stmt 0
	sw	zero,136(sp)
	.loc 1 332 5 is_stmt 1
	.loc 1 332 16 is_stmt 0
	sw	zero,140(sp)
	.loc 1 333 5 is_stmt 1
	.loc 1 333 21 is_stmt 0
	sw	zero,144(sp)
	.loc 1 334 5 is_stmt 1
	.loc 1 335 5
	.loc 1 335 25 is_stmt 0
	sw	zero,152(sp)
	.loc 1 336 5 is_stmt 1
	.loc 1 336 26 is_stmt 0
	sh	zero,156(sp)
	.loc 1 338 5 is_stmt 1
	call	ADC_Disable
.LVL210:
	.loc 1 339 5
	call	ADC_Enable
.LVL211:
	.loc 1 340 5
	call	ADC_Reset
.LVL212:
	.loc 1 342 5
	addi	a0,sp,108
	call	ADC_Init
.LVL213:
	.loc 1 344 5
	.loc 1 344 8 is_stmt 0
	bne	s0,zero,.L150
	addi	a4,sp,12
	addi	a5,sp,60
	.loc 1 347 34
	li	a2,23
	.loc 1 345 9
	li	a3,12
.LVL214:
.L151:
	.loc 1 346 13 is_stmt 1 discriminator 3
	.loc 1 346 34 is_stmt 0 discriminator 3
	sw	s0,0(a4)
	.loc 1 347 13 is_stmt 1 discriminator 3
	.loc 1 347 34 is_stmt 0 discriminator 3
	sw	a2,0(a5)
	.loc 1 345 29 is_stmt 1 discriminator 3
	.loc 1 345 30 is_stmt 0 discriminator 3
	addi	s0,s0,1
.LVL215:
	.loc 1 345 21 is_stmt 1 discriminator 3
	.loc 1 345 9 is_stmt 0 discriminator 3
	addi	a4,a4,4
	addi	a5,a5,4
	bne	s0,a3,.L151
.LVL216:
.L152:
	.loc 1 357 5 is_stmt 1
	andi	a2,s0,0xff
	addi	a1,sp,60
	addi	a0,sp,12
	li	a3,1
	call	ADC_Scan_Channel_Config
.LVL217:
	.loc 1 359 5
	.loc 1 361 5 is_stmt 0
	addi	a0,sp,4
	.loc 1 360 24
	li	a5,1
	.loc 1 359 32
	sw	zero,4(sp)
	.loc 1 360 5 is_stmt 1
	.loc 1 360 24 is_stmt 0
	sw	a5,8(sp)
	.loc 1 361 5 is_stmt 1
	call	ADC_FIFO_Cfg
.LVL218:
	.loc 1 363 5
	.loc 1 364 1 is_stmt 0
	lw	ra,172(sp)
	.cfi_remember_state
	.cfi_restore 1
	lw	s0,168(sp)
	.cfi_restore 8
.LVL219:
	lw	s1,164(sp)
	.cfi_restore 9
.LVL220:
	li	a0,0
	addi	sp,sp,176
	.cfi_def_cfa_offset 0
	jr	ra
.LVL221:
.L150:
	.cfi_restore_state
	.loc 1 352 9 is_stmt 1
	.loc 1 352 16 is_stmt 0
	mv	a0,s1
	call	bl_adc_get_channel_by_gpio
.LVL222:
	.loc 1 353 9 is_stmt 1
	.loc 1 354 30 is_stmt 0
	li	a5,23
	.loc 1 353 30
	sw	a0,12(sp)
	.loc 1 354 9 is_stmt 1
	.loc 1 354 30 is_stmt 0
	sw	a5,60(sp)
	.loc 1 355 9 is_stmt 1
.LVL223:
	.loc 1 355 21 is_stmt 0
	li	s0,1
.LVL224:
	j	.L152
	.cfi_endproc
.LFE39:
	.size	bl_adc_init, .-bl_adc_init
	.globl	adcFifoCfg
	.globl	adcCfg
	.globl	_fsymf_info_hosalbl_adc
	.section	.rodata.str1.4,"aMS",@progbits,1
	.align	2
.LC18:
	.string	"hosal.bl_adc"
	.comm	_fsymf_level_hosalbl_adc,4,4
	.align	2
.LC19:
	.string	"hosal"
	.weak	_fsymc_level_hosal
	.section	.srodata.cst4,"aM",@progbits,4
	.align	2
.LC6:
	.word	1158733824
	.section	.srodata.cst8,"aM",@progbits,8
	.align	3
.LC7:
	.word	1855425872
	.word	1075774226
	.section	.rodata
	.align	2
	.set	.LANCHOR3,. + 0
.LC0:
	.word	2
	.word	1
	.word	7
	.word	1
	.word	1
	.word	2
	.word	0
	.word	0
	.word	1
	.word	0
	.word	4
	.word	0
	.half	0
	.zero	2
	.section	.data.adcCfg,"aw"
	.align	2
	.set	.LANCHOR0,. + 0
	.type	adcCfg, @object
	.size	adcCfg, 52
adcCfg:
	.word	2
	.word	1
	.word	4
	.word	0
	.word	0
	.word	2
	.word	0
	.word	0
	.word	1
	.word	0
	.word	4
	.word	0
	.half	0
	.zero	2
	.section	.sbss._fsymc_level_hosal,"aw",@nobits
	.align	2
	.type	_fsymc_level_hosal, @object
	.size	_fsymc_level_hosal, 4
_fsymc_level_hosal:
	.zero	4
	.section	.sbss.adcFifoCfg,"aw",@nobits
	.align	2
	.set	.LANCHOR1,. + 0
	.type	adcFifoCfg, @object
	.size	adcFifoCfg, 8
adcFifoCfg:
	.zero	8
	.section	.sdata.tsen_offset.0,"aw"
	.align	1
	.set	.LANCHOR2,. + 0
	.type	tsen_offset.0, @object
	.size	tsen_offset.0, 2
tsen_offset.0:
	.half	-1
	.section	.srodata.BLOG_HARD_DECLARE_DISABLE,"a"
	.align	2
	.type	BLOG_HARD_DECLARE_DISABLE, @object
	.size	BLOG_HARD_DECLARE_DISABLE, 4
BLOG_HARD_DECLARE_DISABLE:
	.zero	4
	.section	.static_blogcomponent_code.hosal,"a"
	.align	2
	.type	_fsymc_info_hosal, @object
	.size	_fsymc_info_hosal, 8
_fsymc_info_hosal:
	.word	_fsymc_level_hosal
	.word	.LC19
	.section	.static_blogfile_code.hosalbl_adc,"a"
	.align	2
	.type	_fsymf_info_hosalbl_adc, @object
	.size	_fsymf_info_hosalbl_adc, 8
_fsymf_info_hosalbl_adc:
	.word	_fsymf_level_hosalbl_adc
	.word	.LC18
	.text
.Letext0:
	.file 2 "/mnt/d/GitHub/bl_iot_sdk_for_aithinker/toolchain/riscv/Linux/riscv64-unknown-elf/include/machine/_default_types.h"
	.file 3 "/mnt/d/GitHub/bl_iot_sdk_for_aithinker/toolchain/riscv/Linux/riscv64-unknown-elf/include/sys/_stdint.h"
	.file 4 "/mnt/d/GitHub/bl_iot_sdk_for_aithinker/components/platform/soc/bl602/bl602_std/bl602_std/StdDriver/Inc/bl602_common.h"
	.file 5 "/mnt/d/GitHub/bl_iot_sdk_for_aithinker/components/platform/soc/bl602/bl602_std/bl602_std/StdDriver/Inc/bl602_gpio.h"
	.file 6 "/mnt/d/GitHub/bl_iot_sdk_for_aithinker/components/platform/soc/bl602/bl602_std/bl602_std/StdDriver/Inc/bl602_glb.h"
	.file 7 "/mnt/d/GitHub/bl_iot_sdk_for_aithinker/components/platform/soc/bl602/bl602_std/bl602_std/Device/Bouffalo/BL602/Peripherals/dma_reg.h"
	.file 8 "/mnt/d/GitHub/bl_iot_sdk_for_aithinker/components/platform/soc/bl602/bl602_std/bl602_std/StdDriver/Inc/bl602_dma.h"
	.file 9 "/mnt/d/GitHub/bl_iot_sdk_for_aithinker/components/platform/soc/bl602/bl602_std/bl602_std/StdDriver/Inc/bl602_adc.h"
	.file 10 "/mnt/d/GitHub/bl_iot_sdk_for_aithinker/components/stage/blog/blog_type.h"
	.file 11 "/mnt/d/GitHub/bl_iot_sdk_for_aithinker/components/stage/blog/blog.h"
	.file 12 "/mnt/d/GitHub/bl_iot_sdk_for_aithinker/components/platform/hosal/bl602_hal/bl_adc.h"
	.file 13 "/mnt/d/GitHub/bl_iot_sdk_for_aithinker/components/platform/soc/bl602/freertos_riscv_ram/portable/GCC/RISC-V/portmacro.h"
	.file 14 "/mnt/d/GitHub/bl_iot_sdk_for_aithinker/components/platform/soc/bl602/freertos_riscv_ram/config/task.h"
	.file 15 "/mnt/d/GitHub/bl_iot_sdk_for_aithinker/components/utils/include/utils_log.h"
	.file 16 "/mnt/d/GitHub/bl_iot_sdk_for_aithinker/components/platform/soc/bl602/freertos_riscv_ram/config/portable.h"
	.file 17 "/mnt/d/GitHub/bl_iot_sdk_for_aithinker/components/platform/hosal/bl602_hal/bl_dma.h"
	.file 18 "<built-in>"