	.file	"bl_cks.c"
	.option nopic
	.attribute arch, "rv32i2p0_m2p0_f2p0_c2p0"
	.attribute unaligned_access, 0
	.attribute stack_align, 16
	.text
.Ltext0:
	.cfi_sections	.debug_frame
	.section	.rodata._cb_cmd.str1.4,"aMS",@progbits,1
	.align	2
.LC0:
	.string	"bl_cks.c"
	.align	2
.LC1:
	.string	"\033[32mINFO\033[0m"
	.align	2
.LC2:
	.string	"%s (%d)[%s:%4d] [DMA] [TEST] Callback is working, arg is %p\r\n\r\n"
	.section	.text._cb_cmd,"ax",@progbits
	.align	1
	.type	_cb_cmd, @function
_cb_cmd:
.LFB30:
	.file 1 "/mnt/d/GitHub/bl_iot_sdk_for_aithinker/components/platform/hosal/bl602_hal/bl_cks.c"
	.loc 1 196 1
	.cfi_startproc
.LVL0:
	.loc 1 197 5
	.loc 1 199 5
	.loc 1 200 69 is_stmt 0
	lui	a5,%hi(_fsymc_level_hosal)
	.loc 1 200 51
	lw	a4,%lo(_fsymc_level_hosal)(a5)
	.loc 1 196 1
	addi	sp,sp,-16
	.cfi_def_cfa_offset 16
	sw	s0,8(sp)
	sw	ra,12(sp)
	.cfi_offset 8, -8
	.cfi_offset 1, -4
	.loc 1 200 51
	li	a5,2
	.loc 1 196 1
	mv	s0,a0
.LVL1:
	.loc 1 200 5 is_stmt 1
	.loc 1 200 43
	.loc 1 200 48
	.loc 1 200 51 is_stmt 0
	bgtu	a4,a5,.L2
	.loc 1 200 112 discriminator 3
	lui	a4,%hi(_fsymf_level_hosalbl_cks)
	.loc 1 200 92 discriminator 3
	lw	a4,%lo(_fsymf_level_hosalbl_cks)(a4)
	bgtu	a4,a5,.L2
	.loc 1 200 144 is_stmt 1 discriminator 5
	.loc 1 200 255 is_stmt 0 discriminator 5
	call	xPortIsInsideInterrupt
.LVL2:
	.loc 1 200 144 discriminator 5
	beq	a0,zero,.L3
	.loc 1 200 284 discriminator 7
	call	xTaskGetTickCountFromISR
.LVL3:
.L6:
	.loc 1 200 315 discriminator 8
	mv	a2,a0
	.loc 1 200 144 discriminator 8
	lui	a3,%hi(.LC0)
	lui	a1,%hi(.LC1)
	lui	a0,%hi(.LC2)
	mv	a5,s0
	li	a4,200
	addi	a3,a3,%lo(.LC0)
	addi	a1,a1,%lo(.LC1)
	addi	a0,a0,%lo(.LC2)
	call	bl_printk
.LVL4:
.L2:
	.loc 1 200 370 is_stmt 1 discriminator 11
	.loc 1 200 381 discriminator 11
	.loc 1 201 5 discriminator 11
	.loc 1 202 1 is_stmt 0 discriminator 11
	lw	ra,12(sp)
	.cfi_remember_state
	.cfi_restore 1
	.loc 1 201 16 discriminator 11
	sw	zero,8(s0)
	.loc 1 202 1 discriminator 11
	lw	s0,8(sp)
	.cfi_restore 8
.LVL5:
	addi	sp,sp,16
	.cfi_def_cfa_offset 0
	jr	ra
.LVL6:
.L3:
	.cfi_restore_state
	.loc 1 200 315 discriminator 8
	call	xTaskGetTickCount
.LVL7:
	j	.L6
	.cfi_endproc
.LFE30:
	.size	_cb_cmd, .-_cb_cmd
	.section	.rodata.bl_cks_test.str1.4,"aMS",@progbits,1
	.align	2
.LC3:
	.string	"%s (%d)[%s:%4d] --->>> case1 test\r\n\r\n"
	.align	2
.LC4:
	.string	"%s (%d)[%s:%4d] CKS result with LE is %04x, should be %02x%02x\r\n\r\n"
	.align	2
.LC5:
	.string	"%s (%d)[%s:%4d] CKS result with BE is %04x, should be %02x%02x\r\n\r\n"
	.align	2
.LC6:
	.string	"%s (%d)[%s:%4d] --->>> case2 test\r\n\r\n"
	.align	2
.LC7:
	.string	"%s (%d)[%s:%4d] CKS LE result is %04x, %04x\r\n\r\n"
	.align	2
.LC8:
	.string	"%s (%d)[%s:%4d] CKS BE result is %04x, %04x\r\n\r\n"
	.align	2
.LC9:
	.string	"%s (%d)[%s:%4d] ====== Success %04X Checksum=====\r\n\r\n"
	.align	2
.LC10:
	.string	"%s (%d)[%s:%4d] ====== Failed %04X Checksum======\r\n\r\n"
	.align	2
.LC11:
	.string	"%s (%d)[%s:%4d] --->>> case3 test\r\n\r\n"
	.align	2
.LC12:
	.string	"\033[31mERROR\033[0m"
	.align	2
.LC13:
	.string	"%s (%d)[%s:%4d] --->>> case4 test\r\n\r\n"
	.align	2
.LC14:
	.string	"%s (%d)[%s:%4d] --->>> case5 test\r\n\r\n"
	.section	.text.bl_cks_test,"ax",@progbits
	.align	1
	.globl	bl_cks_test
	.type	bl_cks_test, @function
bl_cks_test:
.LFB32:
	.loc 1 281 1 is_stmt 1
	.cfi_startproc
	.loc 1 282 5
	.loc 1 282 43
	.loc 1 282 48
	.loc 1 281 1 is_stmt 0
	addi	sp,sp,-128
	.cfi_def_cfa_offset 128
	sw	s0,120(sp)
	.cfi_offset 8, -8
	.loc 1 282 69
	lui	s0,%hi(_fsymc_level_hosal)
	.loc 1 282 51
	lw	a4,%lo(_fsymc_level_hosal)(s0)
	.loc 1 281 1
	sw	ra,124(sp)
	sw	s1,116(sp)
	sw	s2,112(sp)
	sw	s3,108(sp)
	sw	s4,104(sp)
	sw	s5,100(sp)
	.cfi_offset 1, -4
	.cfi_offset 9, -12
	.cfi_offset 18, -16
	.cfi_offset 19, -20
	.cfi_offset 20, -24
	.cfi_offset 21, -28
	.loc 1 282 51
	li	a5,2
	bgtu	a4,a5,.L8
	.loc 1 282 112 discriminator 3
	lui	a4,%hi(_fsymf_level_hosalbl_cks)
	.loc 1 282 92 discriminator 3
	lw	a4,%lo(_fsymf_level_hosalbl_cks)(a4)
	bgtu	a4,a5,.L8
	.loc 1 282 144 is_stmt 1 discriminator 5
	.loc 1 282 229 is_stmt 0 discriminator 5
	call	xPortIsInsideInterrupt
.LVL8:
	.loc 1 282 144 discriminator 5
	beq	a0,zero,.L9
	.loc 1 282 258 discriminator 7
	call	xTaskGetTickCountFromISR
.LVL9:
.L111:
	.loc 1 282 289 discriminator 8
	mv	a2,a0
	.loc 1 282 144 discriminator 8
	lui	a3,%hi(.LC0)
	lui	a1,%hi(.LC1)
	lui	a0,%hi(.LC3)
	li	a4,282
	addi	a3,a3,%lo(.LC0)
	addi	a1,a1,%lo(.LC1)
	addi	a0,a0,%lo(.LC3)
	call	bl_printk
.LVL10:
.L8:
	.loc 1 282 339 is_stmt 1 discriminator 11
	.loc 1 282 350 discriminator 11
	.loc 1 283 5 discriminator 11
.LBB12:
.LBB13:
	.loc 1 16 5 discriminator 11
	.loc 1 21 5 discriminator 11
	.loc 1 25 5 discriminator 11
	.loc 1 26 5 discriminator 11
	.loc 1 27 5 discriminator 11
	.loc 1 28 5 discriminator 11
	.loc 1 30 5 discriminator 11
	.loc 1 30 36 is_stmt 0 discriminator 11
	li	a5,1073782784
	li	a4,1
	.loc 1 32 51 discriminator 11
	lui	s2,%hi(.LANCHOR0)
	.loc 1 30 36 discriminator 11
	sb	a4,1792(a5)
	.loc 1 31 5 is_stmt 1 discriminator 11
.LVL11:
	.loc 1 31 17 discriminator 11
	.loc 1 32 51 is_stmt 0 discriminator 11
	addi	s2,s2,%lo(.LANCHOR0)
	.loc 1 31 12 discriminator 11
	li	a5,0
	.loc 1 32 40 discriminator 11
	li	a4,1073782784
	.loc 1 31 5 discriminator 11
	li	a3,20
.LVL12:
.L11:
	.loc 1 32 9 is_stmt 1
	.loc 1 32 51 is_stmt 0
	add	a2,s2,a5
	lbu	a2,0(a2)
	.loc 1 31 41
	addi	a5,a5,1
.LVL13:
	.loc 1 32 40
	sb	a2,1796(a4)
	.loc 1 31 40 is_stmt 1
.LVL14:
	.loc 1 31 17
	.loc 1 31 5 is_stmt 0
	bne	a5,a3,.L11
	.loc 1 34 5 is_stmt 1
	.loc 1 34 9 is_stmt 0
	lhu	s1,1800(a4)
	.loc 1 35 51
	lw	a4,%lo(_fsymc_level_hosal)(s0)
	li	a5,2
.LVL15:
	.loc 1 34 9
	slli	s1,s1,16
	srli	s1,s1,16
.LVL16:
	.loc 1 35 5 is_stmt 1
	.loc 1 35 43
	.loc 1 35 48
	.loc 1 35 51 is_stmt 0
	bgtu	a4,a5,.L12
	.loc 1 35 112
	lui	a4,%hi(_fsymf_level_hosalbl_cks)
	.loc 1 35 92
	lw	a4,%lo(_fsymf_level_hosalbl_cks)(a4)
	bgtu	a4,a5,.L12
	.loc 1 35 144 is_stmt 1
	.loc 1 35 258 is_stmt 0
	call	xPortIsInsideInterrupt
.LVL17:
	.loc 1 35 144
	beq	a0,zero,.L13
	.loc 1 35 287
	call	xTaskGetTickCountFromISR
.LVL18:
.L112:
	.loc 1 35 318
	mv	a2,a0
	.loc 1 35 144
	lui	a3,%hi(.LC0)
	lui	a1,%hi(.LC1)
	lui	a0,%hi(.LC4)
	li	a7,184
	li	a6,97
	mv	a5,s1
	li	a4,35
	addi	a3,a3,%lo(.LC0)
	addi	a1,a1,%lo(.LC1)
	addi	a0,a0,%lo(.LC4)
	call	bl_printk
.LVL19:
.L12:
	.loc 1 35 408 is_stmt 1
	.loc 1 35 419
	.loc 1 37 5
	.loc 1 37 36 is_stmt 0
	li	a5,1073782784
	li	a4,1
	sb	a4,1792(a5)
	.loc 1 38 5 is_stmt 1
	.loc 1 38 36 is_stmt 0
	li	a4,2
	sb	a4,1792(a5)
	.loc 1 39 5 is_stmt 1
.LVL20:
	.loc 1 39 17
	.loc 1 39 5 is_stmt 0
	li	a3,20
	.loc 1 39 12
	li	a5,0
	.loc 1 40 40
	li	a4,1073782784
.LVL21:
.L15:
	.loc 1 40 9 is_stmt 1
	.loc 1 40 51 is_stmt 0
	add	a2,s2,a5
	lbu	a2,0(a2)
	.loc 1 39 41
	addi	a5,a5,1
.LVL22:
	.loc 1 40 40
	sb	a2,1796(a4)
	.loc 1 39 40 is_stmt 1
.LVL23:
	.loc 1 39 17
	.loc 1 39 5 is_stmt 0
	bne	a5,a3,.L15
	.loc 1 42 5 is_stmt 1
	.loc 1 42 9 is_stmt 0
	lhu	s1,1800(a4)
.LVL24:
	.loc 1 43 51
	lw	a4,%lo(_fsymc_level_hosal)(s0)
	li	a5,2
.LVL25:
	.loc 1 42 9
	slli	s1,s1,16
	srli	s1,s1,16
.LVL26:
	.loc 1 43 5 is_stmt 1
	.loc 1 43 43
	.loc 1 43 48
	.loc 1 43 51 is_stmt 0
	bgtu	a4,a5,.L17
	.loc 1 43 112
	lui	a4,%hi(_fsymf_level_hosalbl_cks)
	.loc 1 43 92
	lw	a3,%lo(_fsymf_level_hosalbl_cks)(a4)
	mv	s3,a4
	bgtu	a3,a5,.L17
	.loc 1 43 144 is_stmt 1
	.loc 1 43 258 is_stmt 0
	call	xPortIsInsideInterrupt
.LVL27:
	.loc 1 43 144
	beq	a0,zero,.L21
	.loc 1 43 287
	call	xTaskGetTickCountFromISR
.LVL28:
.L113:
	.loc 1 43 144
	mv	a5,s1
	.loc 1 43 318
	mv	a2,a0
	.loc 1 43 144
	lui	s2,%hi(.LC0)
	lui	s1,%hi(.LC1)
.LVL29:
	lui	a0,%hi(.LC5)
	li	a4,43
	li	a7,184
	li	a6,97
	addi	a3,s2,%lo(.LC0)
	addi	a1,s1,%lo(.LC1)
	addi	a0,a0,%lo(.LC5)
	call	bl_printk
.LVL30:
	.loc 1 43 408 is_stmt 1
	.loc 1 43 419
.LBE13:
.LBE12:
	.loc 1 284 5
	.loc 1 284 43
	.loc 1 284 48
	.loc 1 284 51 is_stmt 0
	lw	a4,%lo(_fsymc_level_hosal)(s0)
	li	a5,2
	bgtu	a4,a5,.L17
	.loc 1 284 92
	lw	a4,%lo(_fsymf_level_hosalbl_cks)(s3)
	bleu	a4,a5,.L20
.L17:
	.loc 1 284 339 is_stmt 1 discriminator 11
	.loc 1 284 350 discriminator 11
	.loc 1 285 5 discriminator 11
.LBB15:
.LBB16:
	.loc 1 48 5 discriminator 11
.LVL31:
	.loc 1 49 5 discriminator 11
	.loc 1 50 5 discriminator 11
	.loc 1 51 5 discriminator 11
	.loc 1 53 5 discriminator 11
	.loc 1 53 36 is_stmt 0 discriminator 11
	li	a5,1073782784
	li	a4,1
	sb	a4,1792(a5)
	.loc 1 54 5 is_stmt 1 discriminator 11
.LVL32:
	.loc 1 55 5 discriminator 11
	.loc 1 55 17 discriminator 11
	.loc 1 56 9 discriminator 11
	.loc 1 57 9 discriminator 11
	.loc 1 57 40 is_stmt 0 discriminator 11
	li	a4,31
	sb	a4,1796(a5)
	.loc 1 58 9 is_stmt 1 discriminator 11
	.loc 1 58 40 is_stmt 0 discriminator 11
	li	a4,63
	sb	a4,1796(a5)
	.loc 1 55 24 is_stmt 1 discriminator 11
.LVL33:
	.loc 1 55 17 discriminator 11
	.loc 1 60 11 discriminator 11
	.loc 1 64 5 discriminator 11
	.loc 1 64 9 is_stmt 0 discriminator 11
	lhu	s1,1800(a5)
	.loc 1 65 51 discriminator 11
	lw	a4,%lo(_fsymc_level_hosal)(s0)
	li	a5,2
	.loc 1 64 9 discriminator 11
	slli	s1,s1,16
	srli	s1,s1,16
.LVL34:
	.loc 1 65 5 is_stmt 1 discriminator 11
	.loc 1 65 43 discriminator 11
	.loc 1 65 48 discriminator 11
	.loc 1 65 51 is_stmt 0 discriminator 11
	bgtu	a4,a5,.L26
	.loc 1 65 112
	lui	a4,%hi(_fsymf_level_hosalbl_cks)
	.loc 1 65 92
	lw	a4,%lo(_fsymf_level_hosalbl_cks)(a4)
	bgtu	a4,a5,.L26
	.loc 1 65 144 is_stmt 1
	.loc 1 65 239 is_stmt 0
	call	xPortIsInsideInterrupt
.LVL35:
	.loc 1 65 144
	beq	a0,zero,.L27
	.loc 1 65 268
	call	xTaskGetTickCountFromISR
.LVL36:
.L115:
	.loc 1 65 299
	mv	a2,a0
	.loc 1 65 144
	li	a6,49152
	lui	a3,%hi(.LC0)
	lui	a1,%hi(.LC1)
	lui	a0,%hi(.LC7)
	addi	a6,a6,224
	mv	a5,s1
	li	a4,65
	addi	a3,a3,%lo(.LC0)
	addi	a1,a1,%lo(.LC1)
	addi	a0,a0,%lo(.LC7)
	call	bl_printk
.LVL37:
.L26:
	.loc 1 65 374 is_stmt 1
	.loc 1 68 6
	.loc 1 70 5
	.loc 1 70 36 is_stmt 0
	li	a5,1073782784
	li	a4,1
	sb	a4,1792(a5)
	.loc 1 71 5 is_stmt 1
	.loc 1 71 36 is_stmt 0
	li	a4,2
	sb	a4,1792(a5)
	.loc 1 72 5 is_stmt 1
.LVL38:
	.loc 1 73 5
	.loc 1 73 17
	.loc 1 74 9
	.loc 1 75 9
	.loc 1 75 40 is_stmt 0
	li	a3,31
	sb	a3,1796(a5)
	.loc 1 76 9 is_stmt 1
	.loc 1 76 40 is_stmt 0
	li	a3,63
	sb	a3,1796(a5)
	.loc 1 73 24 is_stmt 1
.LVL39:
	.loc 1 73 17
	.loc 1 78 11
	.loc 1 82 5
	.loc 1 82 9 is_stmt 0
	lhu	s1,1800(a5)
.LVL40:
	.loc 1 83 51
	lw	a5,%lo(_fsymc_level_hosal)(s0)
	.loc 1 82 9
	slli	s1,s1,16
	srli	s1,s1,16
.LVL41:
	.loc 1 83 5 is_stmt 1
	.loc 1 83 43
	.loc 1 83 48
	.loc 1 83 51 is_stmt 0
	bgtu	a5,a4,.L29
	.loc 1 83 112
	lui	s4,%hi(_fsymf_level_hosalbl_cks)
	.loc 1 83 92
	lw	a5,%lo(_fsymf_level_hosalbl_cks)(s4)
	bgtu	a5,a4,.L30
	.loc 1 83 144 is_stmt 1
	.loc 1 83 239 is_stmt 0
	call	xPortIsInsideInterrupt
.LVL42:
	.loc 1 83 144
	beq	a0,zero,.L31
	.loc 1 83 268
	call	xTaskGetTickCountFromISR
.LVL43:
.L116:
	.loc 1 83 299
	mv	a2,a0
	.loc 1 83 144
	li	s2,49152
	lui	s5,%hi(.LC0)
	lui	s3,%hi(.LC1)
	lui	a0,%hi(.LC8)
	addi	a6,s2,224
	mv	a5,s1
	li	a4,83
	addi	a3,s5,%lo(.LC0)
	addi	a1,s3,%lo(.LC1)
	addi	a0,a0,%lo(.LC8)
	.loc 1 87 8
	addi	s2,s2,224
	.loc 1 83 144
	call	bl_printk
.LVL44:
	.loc 1 83 374 is_stmt 1
	.loc 1 86 6
	.loc 1 87 5
	.loc 1 87 8 is_stmt 0
	bne	s1,s2,.L33
	.loc 1 88 9 is_stmt 1
	.loc 1 88 47
	.loc 1 88 52
	.loc 1 88 55 is_stmt 0
	lw	a4,%lo(_fsymc_level_hosal)(s0)
	li	a5,2
	bgtu	a4,a5,.L102
	.loc 1 88 96
	lw	a4,%lo(_fsymf_level_hosalbl_cks)(s4)
	bgtu	a4,a5,.L102
	.loc 1 88 148 is_stmt 1
	.loc 1 88 249 is_stmt 0
	call	xPortIsInsideInterrupt
.LVL45:
	.loc 1 88 148
	beq	a0,zero,.L36
	.loc 1 88 278
	call	xTaskGetTickCountFromISR
.LVL46:
.L117:
	.loc 1 88 309
	mv	a2,a0
	.loc 1 88 148
	li	a5,49152
	lui	a0,%hi(.LC9)
	addi	a5,a5,224
	li	a4,88
	addi	a3,s5,%lo(.LC0)
	addi	a1,s3,%lo(.LC1)
	addi	a0,a0,%lo(.LC9)
.L119:
	.loc 1 90 148
	call	bl_printk
.LVL47:
	.loc 1 90 363 is_stmt 1
	.loc 1 90 374
.LBE16:
.LBE15:
	.loc 1 286 5
	.loc 1 286 43
	.loc 1 286 48
	.loc 1 286 51 is_stmt 0
	lw	a4,%lo(_fsymc_level_hosal)(s0)
	li	a5,2
	bleu	a4,a5,.L41
.L102:
	.loc 1 286 339 is_stmt 1 discriminator 11
	.loc 1 286 350 discriminator 11
	.loc 1 287 5 discriminator 11
.LBB21:
.LBB22:
	.loc 1 96 5 discriminator 11
.LVL48:
	.loc 1 97 5 discriminator 11
	.loc 1 98 5 discriminator 11
	.loc 1 99 5 discriminator 11
	.loc 1 101 5 discriminator 11
	.loc 1 101 36 is_stmt 0 discriminator 11
	li	a5,1073782784
	li	a4,1
	sb	a4,1792(a5)
	.loc 1 102 5 is_stmt 1 discriminator 11
.LVL49:
	.loc 1 103 5 discriminator 11
	.loc 1 103 17 discriminator 11
	.loc 1 105 40 is_stmt 0 discriminator 11
	li	a2,31
	.loc 1 101 36 discriminator 11
	li	a4,1000
	.loc 1 105 40 discriminator 11
	addi	a5,a5,1796
	.loc 1 106 40 discriminator 11
	li	a3,63
.LVL50:
.L45:
	.loc 1 104 9 is_stmt 1
	.loc 1 105 9
	.loc 1 105 40 is_stmt 0
	sb	a2,0(a5)
	.loc 1 106 9 is_stmt 1
	.loc 1 106 40 is_stmt 0
	sb	a3,0(a5)
	.loc 1 103 27 is_stmt 1
.LVL51:
	.loc 1 103 17
	.loc 1 103 5 is_stmt 0
	addi	a4,a4,-1
.LVL52:
	bne	a4,zero,.L45
	.loc 1 104 18
	li	s1,16158720
	.loc 1 109 49
	li	a5,65536
	.loc 1 104 18
	addi	s1,s1,280
	.loc 1 109 49
	addi	a5,a5,-1
.LVL53:
.L46:
	.loc 1 108 11 is_stmt 1
	.loc 1 108 21 is_stmt 0
	srli	a4,s1,16
	.loc 1 108 11
	bne	a4,zero,.L47
	.loc 1 112 5 is_stmt 1
	.loc 1 112 9 is_stmt 0
	li	a5,1073782784
	lhu	s2,1800(a5)
	.loc 1 113 51
	lw	a4,%lo(_fsymc_level_hosal)(s0)
	li	a5,2
	.loc 1 112 9
	slli	s2,s2,16
	srli	s2,s2,16
.LVL54:
	.loc 1 113 5 is_stmt 1
	.loc 1 113 43
	.loc 1 113 48
	.loc 1 113 51 is_stmt 0
	bgtu	a4,a5,.L48
	.loc 1 113 112
	lui	a4,%hi(_fsymf_level_hosalbl_cks)
	.loc 1 113 92
	lw	a4,%lo(_fsymf_level_hosalbl_cks)(a4)
	bgtu	a4,a5,.L48
	.loc 1 113 144 is_stmt 1
	.loc 1 113 239 is_stmt 0
	call	xPortIsInsideInterrupt
.LVL55:
	.loc 1 113 144
	beq	a0,zero,.L49
	.loc 1 113 268
	call	xTaskGetTickCountFromISR
.LVL56:
.L121:
	.loc 1 113 343
	not	a6,s1
	.loc 1 113 299
	mv	a2,a0
	.loc 1 113 144
	slli	a6,a6,16
	lui	a3,%hi(.LC0)
	lui	a1,%hi(.LC1)
	lui	a0,%hi(.LC7)
	srli	a6,a6,16
	mv	a5,s2
	li	a4,113
	addi	a3,a3,%lo(.LC0)
	addi	a1,a1,%lo(.LC1)
	addi	a0,a0,%lo(.LC7)
	call	bl_printk
.LVL57:
.L48:
	.loc 1 113 375 is_stmt 1
	.loc 1 116 6
	.loc 1 118 5
	.loc 1 118 36 is_stmt 0
	li	a5,1073782784
	li	a4,1
	sb	a4,1792(a5)
	.loc 1 119 5 is_stmt 1
	.loc 1 119 36 is_stmt 0
	li	a4,2
	sb	a4,1792(a5)
	.loc 1 120 5 is_stmt 1
.LVL58:
	.loc 1 121 5
	.loc 1 121 17
	.loc 1 123 40 is_stmt 0
	li	a2,31
	.loc 1 119 36
	li	a4,1000
	.loc 1 123 40
	addi	a5,a5,1796
	.loc 1 124 40
	li	a3,63
.LVL59:
.L51:
	.loc 1 122 9 is_stmt 1
	.loc 1 123 9
	.loc 1 123 40 is_stmt 0
	sb	a2,0(a5)
	.loc 1 124 9 is_stmt 1
	.loc 1 124 40 is_stmt 0
	sb	a3,0(a5)
	.loc 1 121 27 is_stmt 1
.LVL60:
	.loc 1 121 17
	.loc 1 121 5 is_stmt 0
	addi	a4,a4,-1
.LVL61:
	bne	a4,zero,.L51
	.loc 1 122 18
	li	a4,16158720
.LVL62:
	.loc 1 127 49
	li	a5,65536
	.loc 1 122 18
	addi	a4,a4,280
	.loc 1 127 49
	addi	a5,a5,-1
.L52:
.LVL63:
	.loc 1 126 11 is_stmt 1
	.loc 1 126 21 is_stmt 0
	srli	a3,a4,16
	.loc 1 126 11
	bne	a3,zero,.L53
	.loc 1 130 5 is_stmt 1
	.loc 1 130 9 is_stmt 0
	li	a5,1073782784
	lhu	s2,1800(a5)
.LVL64:
	.loc 1 131 51
	lw	a3,%lo(_fsymc_level_hosal)(s0)
	li	a5,2
	.loc 1 130 9
	slli	s2,s2,16
	srli	s2,s2,16
.LVL65:
	.loc 1 131 5 is_stmt 1
	.loc 1 131 43
	.loc 1 131 48
	not	s1,a4
	.loc 1 131 51 is_stmt 0
	bgtu	a3,a5,.L54
	.loc 1 131 112
	lui	a4,%hi(_fsymf_level_hosalbl_cks)
.LVL66:
	.loc 1 131 92
	lw	a4,%lo(_fsymf_level_hosalbl_cks)(a4)
	bgtu	a4,a5,.L54
	.loc 1 131 144 is_stmt 1
	.loc 1 131 239 is_stmt 0
	call	xPortIsInsideInterrupt
.LVL67:
	.loc 1 131 144
	beq	a0,zero,.L55
	.loc 1 131 268
	call	xTaskGetTickCountFromISR
.LVL68:
.L122:
	.loc 1 131 299
	mv	a2,a0
	.loc 1 131 144
	slli	a6,s1,16
	lui	a3,%hi(.LC0)
	lui	a1,%hi(.LC1)
	lui	a0,%hi(.LC8)
	srli	a6,a6,16
	mv	a5,s2
	li	a4,131
	addi	a3,a3,%lo(.LC0)
	addi	a1,a1,%lo(.LC1)
	addi	a0,a0,%lo(.LC8)
	call	bl_printk
.LVL69:
.L54:
	.loc 1 131 375 is_stmt 1
	.loc 1 134 6
	.loc 1 135 5
	.loc 1 135 8 is_stmt 0
	slli	a4,s1,16
	srli	a4,a4,16
	.loc 1 136 73
	lw	a3,%lo(_fsymc_level_hosal)(s0)
	.loc 1 135 8
	bne	s2,a4,.L57
	.loc 1 136 9 is_stmt 1
	.loc 1 136 47
	.loc 1 136 52
	.loc 1 136 55 is_stmt 0
	li	a5,2
	bgtu	a3,a5,.L59
	.loc 1 136 116
	lui	a4,%hi(_fsymf_level_hosalbl_cks)
	.loc 1 136 96
	lw	a4,%lo(_fsymf_level_hosalbl_cks)(a4)
	bgtu	a4,a5,.L59
	.loc 1 136 148 is_stmt 1
	.loc 1 136 249 is_stmt 0
	call	xPortIsInsideInterrupt
.LVL70:
	.loc 1 136 148
	beq	a0,zero,.L63
	.loc 1 136 278
	call	xTaskGetTickCountFromISR
.LVL71:
.L123:
	.loc 1 136 309
	mv	a2,a0
	.loc 1 136 148
	lui	a3,%hi(.LC0)
	lui	a1,%hi(.LC1)
	lui	a0,%hi(.LC9)
	mv	a5,s2
	li	a4,136
	addi	a3,a3,%lo(.LC0)
	addi	a1,a1,%lo(.LC1)
	addi	a0,a0,%lo(.LC9)
.L125:
	.loc 1 138 150
	call	bl_printk
.LVL72:
.L65:
	.loc 1 138 367 is_stmt 1
	.loc 1 138 378
.LBE22:
.LBE21:
	.loc 1 288 5
	.loc 1 288 43
	.loc 1 288 48
	.loc 1 288 51 is_stmt 0
	lw	a4,%lo(_fsymc_level_hosal)(s0)
	li	a5,2
	bleu	a4,a5,.L68
.L59:
	.loc 1 288 339 is_stmt 1 discriminator 11
	.loc 1 288 350 discriminator 11
	.loc 1 289 5 discriminator 11
.LBB25:
.LBB26:
	.loc 1 144 5 discriminator 11
.LVL73:
	.loc 1 145 5 discriminator 11
	.loc 1 146 5 discriminator 11
	.loc 1 147 5 discriminator 11
	.loc 1 148 5 discriminator 11
	.loc 1 150 5 discriminator 11
	.loc 1 150 36 is_stmt 0 discriminator 11
	li	a5,1073782784
	li	a4,1
	sb	a4,1792(a5)
	.loc 1 151 5 is_stmt 1 discriminator 11
.LVL74:
	.loc 1 152 5 discriminator 11
	.loc 1 152 17 discriminator 11
	.loc 1 153 9 discriminator 11
	.loc 1 154 9 discriminator 11
	.loc 1 154 40 is_stmt 0 discriminator 11
	li	a4,31
	sb	a4,1796(a5)
	.loc 1 155 9 is_stmt 1 discriminator 11
	.loc 1 155 40 is_stmt 0 discriminator 11
	li	a4,63
	sb	a4,1796(a5)
	.loc 1 152 24 is_stmt 1 discriminator 11
.LVL75:
	.loc 1 152 17 discriminator 11
	.loc 1 157 5 discriminator 11
	.loc 1 158 5 discriminator 11
	.loc 1 158 11 discriminator 11
	.loc 1 161 5 discriminator 11
	.loc 1 161 36 is_stmt 0 discriminator 11
	li	a4,-95
	sb	a4,1796(a5)
	.loc 1 163 5 is_stmt 1 discriminator 11
	.loc 1 163 9 is_stmt 0 discriminator 11
	lhu	s1,1800(a5)
	.loc 1 164 51 discriminator 11
	lw	a4,%lo(_fsymc_level_hosal)(s0)
	li	a5,2
	.loc 1 163 9 discriminator 11
	slli	s1,s1,16
	srli	s1,s1,16
.LVL76:
	.loc 1 164 5 is_stmt 1 discriminator 11
	.loc 1 164 43 discriminator 11
	.loc 1 164 48 discriminator 11
	.loc 1 164 51 is_stmt 0 discriminator 11
	bgtu	a4,a5,.L71
	.loc 1 164 112
	lui	a4,%hi(_fsymf_level_hosalbl_cks)
	.loc 1 164 92
	lw	a4,%lo(_fsymf_level_hosalbl_cks)(a4)
	bgtu	a4,a5,.L71
	.loc 1 164 144 is_stmt 1
	.loc 1 164 239 is_stmt 0
	call	xPortIsInsideInterrupt
.LVL77:
	.loc 1 164 144
	beq	a0,zero,.L72
	.loc 1 164 268
	call	xTaskGetTickCountFromISR
.LVL78:
.L127:
	.loc 1 164 299
	mv	a2,a0
	.loc 1 164 144
	li	a6,49152
	lui	a3,%hi(.LC0)
	lui	a1,%hi(.LC1)
	lui	a0,%hi(.LC7)
	addi	a6,a6,63
	mv	a5,s1
	li	a4,164
	addi	a3,a3,%lo(.LC0)
	addi	a1,a1,%lo(.LC1)
	addi	a0,a0,%lo(.LC7)
	call	bl_printk
.LVL79:
.L71:
	.loc 1 164 375 is_stmt 1
	.loc 1 167 6
	.loc 1 169 5
	.loc 1 169 36 is_stmt 0
	li	a5,1073782784
	li	a4,1
	sb	a4,1792(a5)
	.loc 1 170 5 is_stmt 1
	.loc 1 170 36 is_stmt 0
	li	a4,2
	sb	a4,1792(a5)
	.loc 1 171 5 is_stmt 1
.LVL80:
	.loc 1 172 5
	.loc 1 172 17
	.loc 1 173 9
	.loc 1 174 9
	.loc 1 174 40 is_stmt 0
	li	a3,31
	sb	a3,1796(a5)
	.loc 1 175 9 is_stmt 1
	.loc 1 175 40 is_stmt 0
	li	a3,63
	sb	a3,1796(a5)
	.loc 1 172 24 is_stmt 1
.LVL81:
	.loc 1 172 17
	.loc 1 177 5
	.loc 1 178 5
	.loc 1 178 11
	.loc 1 181 5
	.loc 1 181 36 is_stmt 0
	li	a3,-95
	sb	a3,1796(a5)
	.loc 1 183 5 is_stmt 1
	.loc 1 183 9 is_stmt 0
	lhu	s2,1800(a5)
	.loc 1 184 51
	lw	a5,%lo(_fsymc_level_hosal)(s0)
	.loc 1 183 9
	slli	s2,s2,16
	srli	s2,s2,16
.LVL82:
	.loc 1 184 5 is_stmt 1
	.loc 1 184 43
	.loc 1 184 48
	.loc 1 184 51 is_stmt 0
	bgtu	a5,a4,.L74
	.loc 1 184 112
	lui	s4,%hi(_fsymf_level_hosalbl_cks)
	.loc 1 184 92
	lw	a5,%lo(_fsymf_level_hosalbl_cks)(s4)
	bgtu	a5,a4,.L75
	.loc 1 184 144 is_stmt 1
	.loc 1 184 239 is_stmt 0
	call	xPortIsInsideInterrupt
.LVL83:
	.loc 1 184 144
	beq	a0,zero,.L76
	.loc 1 184 268
	call	xTaskGetTickCountFromISR
.LVL84:
.L128:
	.loc 1 184 299
	mv	a2,a0
	.loc 1 184 144
	li	s1,49152
	lui	s5,%hi(.LC0)
	lui	s3,%hi(.LC1)
	lui	a0,%hi(.LC8)
	addi	a6,s1,63
	mv	a5,s2
	li	a4,184
	addi	a3,s5,%lo(.LC0)
	addi	a1,s3,%lo(.LC1)
	addi	a0,a0,%lo(.LC8)
	.loc 1 188 8
	addi	s1,s1,63
	.loc 1 184 144
	call	bl_printk
.LVL85:
	.loc 1 184 375 is_stmt 1
	.loc 1 187 6
	.loc 1 188 5
	.loc 1 188 8 is_stmt 0
	bne	s2,s1,.L78
	.loc 1 189 9 is_stmt 1
	.loc 1 189 47
	.loc 1 189 52
	.loc 1 189 55 is_stmt 0
	lw	a4,%lo(_fsymc_level_hosal)(s0)
	li	a5,2
	bgtu	a4,a5,.L80
	.loc 1 189 96
	lw	a4,%lo(_fsymf_level_hosalbl_cks)(s4)
	bleu	a4,a5,.L81
.LVL86:
.L80:
.LBE26:
.LBE25:
	.loc 1 290 339 is_stmt 1 discriminator 11
	.loc 1 290 350 discriminator 11
	.loc 1 291 5 discriminator 11
.LBB31:
.LBB32:
	.loc 1 206 5 discriminator 11
	.loc 1 207 5 discriminator 11
	.loc 1 208 5 discriminator 11
	.loc 1 209 5 discriminator 11
	.loc 1 209 14 is_stmt 0 discriminator 11
	li	a5,16384
	addi	a5,a5,-225
	.loc 1 216 5 discriminator 11
	addi	s1,sp,12
	.loc 1 209 14 discriminator 11
	sh	a5,0(sp)
	.loc 1 210 5 is_stmt 1 discriminator 11
	.loc 1 211 14 is_stmt 0 discriminator 11
	li	a5,1
	sw	a5,4(sp)
	.loc 1 216 5 discriminator 11
	li	a2,28
	.loc 1 211 14 discriminator 11
	li	a5,2
	.loc 1 216 5 discriminator 11
	li	a1,0
	mv	a0,s1
	.loc 1 211 14 discriminator 11
	sw	a5,8(sp)
	.loc 1 210 14 discriminator 11
	sh	zero,2(sp)
	.loc 1 211 5 is_stmt 1 discriminator 11
	.loc 1 216 5 discriminator 11
	call	memset
.LVL87:
	.loc 1 217 5 discriminator 11
	li	a2,28
	li	a1,0
	addi	a0,sp,40
	call	memset
.LVL88:
	.loc 1 218 5 discriminator 11
	li	a2,28
	li	a1,0
	addi	a0,sp,68
	call	memset
.LVL89:
	.loc 1 221 5 discriminator 11
	.loc 1 221 17 is_stmt 0 discriminator 11
	addi	a5,sp,4
	.loc 1 221 15 discriminator 11
	sw	a5,24(sp)
	.loc 1 222 5 is_stmt 1 discriminator 11
	.loc 1 222 15 is_stmt 0 discriminator 11
	li	a5,1073782784
	addi	a4,a5,1792
	sw	a4,28(sp)
	.loc 1 223 5 is_stmt 1 discriminator 11
	.loc 1 223 18 is_stmt 0 discriminator 11
	addi	a4,sp,52
	.loc 1 223 16 discriminator 11
	sw	a4,32(sp)
	.loc 1 224 5 is_stmt 1 discriminator 11
	.loc 1 224 16 is_stmt 0 discriminator 11
	li	a4,71827456
	addi	a4,a4,2
	sw	a4,36(sp)
	.loc 1 233 5 is_stmt 1 discriminator 11
	.loc 1 233 14 is_stmt 0 discriminator 11
	lui	a4,%hi(_cb_cmd)
	addi	a4,a4,%lo(_cb_cmd)
	sw	a4,16(sp)
	.loc 1 234 5 is_stmt 1 discriminator 11
	.loc 1 238 16 is_stmt 0 discriminator 11
	addi	a4,a5,1796
	.loc 1 252 14 discriminator 11
	addi	a5,a5,1800
	.loc 1 238 16 discriminator 11
	sw	a4,56(sp)
	.loc 1 252 14 discriminator 11
	sw	a5,80(sp)
	.loc 1 239 19 discriminator 11
	addi	a4,sp,80
	.loc 1 253 16 discriminator 11
	addi	a5,sp,2
	.loc 1 239 17 discriminator 11
	sw	a4,60(sp)
	.loc 1 253 14 discriminator 11
	sw	a5,84(sp)
	.loc 1 240 17 discriminator 11
	li	a4,262144
	.loc 1 255 15 discriminator 11
	li	a5,-2145124352
	.loc 1 240 17 discriminator 11
	addi	a4,a4,1000
	.loc 1 255 15 discriminator 11
	addi	a5,a5,1
	.loc 1 266 5 discriminator 11
	mv	a0,s1
	.loc 1 234 15 discriminator 11
	sw	s1,20(sp)
	.loc 1 237 5 is_stmt 1 discriminator 11
	.loc 1 237 16 is_stmt 0 discriminator 11
	sw	sp,52(sp)
	.loc 1 238 5 is_stmt 1 discriminator 11
	.loc 1 239 5 discriminator 11
	.loc 1 240 5 discriminator 11
	.loc 1 240 17 is_stmt 0 discriminator 11
	sw	a4,64(sp)
	.loc 1 248 5 is_stmt 1 discriminator 11
	.loc 1 248 15 is_stmt 0 discriminator 11
	sw	zero,44(sp)
	.loc 1 249 5 is_stmt 1 discriminator 11
	.loc 1 249 16 is_stmt 0 discriminator 11
	sw	zero,48(sp)
	.loc 1 252 5 is_stmt 1 discriminator 11
	.loc 1 253 5 discriminator 11
	.loc 1 254 5 discriminator 11
	.loc 1 254 15 is_stmt 0 discriminator 11
	sw	zero,88(sp)
	.loc 1 255 5 is_stmt 1 discriminator 11
	.loc 1 255 15 is_stmt 0 discriminator 11
	sw	a5,92(sp)
	.loc 1 263 5 is_stmt 1 discriminator 11
	.loc 1 263 13 is_stmt 0 discriminator 11
	sw	zero,72(sp)
	.loc 1 264 5 is_stmt 1 discriminator 11
	.loc 1 264 14 is_stmt 0 discriminator 11
	sw	zero,76(sp)
	.loc 1 266 5 is_stmt 1 discriminator 11
	call	bl_dma_copy
.LVL90:
	.loc 1 270 5 discriminator 11
.L93:
	.loc 1 270 11
	lw	a5,20(sp)
	bne	a5,zero,.L94
	.loc 1 273 5
	.loc 1 273 8 is_stmt 0
	lhu	a3,2(sp)
	li	a5,28672
	addi	a5,a5,-527
	.loc 1 274 73
	lw	a4,%lo(_fsymc_level_hosal)(s0)
	.loc 1 273 8
	bne	a3,a5,.L95
	.loc 1 274 9 is_stmt 1
	.loc 1 274 47
	.loc 1 274 52
	.loc 1 274 55 is_stmt 0
	li	a5,2
	bgtu	a4,a5,.L105
	.loc 1 274 116
	lui	a4,%hi(_fsymf_level_hosalbl_cks)
	.loc 1 274 96
	lw	a4,%lo(_fsymf_level_hosalbl_cks)(a4)
	bgtu	a4,a5,.L105
	.loc 1 274 148 is_stmt 1
	.loc 1 274 249 is_stmt 0
	call	xPortIsInsideInterrupt
.LVL91:
	.loc 1 274 148
	beq	a0,zero,.L97
	.loc 1 274 278
	call	xTaskGetTickCountFromISR
.LVL92:
.L133:
	.loc 1 274 148
	lhu	a5,2(sp)
	.loc 1 274 309
	mv	a2,a0
	.loc 1 274 148
	lui	a3,%hi(.LC0)
	lui	a1,%hi(.LC1)
	lui	a0,%hi(.LC9)
	li	a4,274
	addi	a3,a3,%lo(.LC0)
	addi	a1,a1,%lo(.LC1)
	addi	a0,a0,%lo(.LC9)
.L135:
	.loc 1 276 150
	call	bl_printk
.LVL93:
	.loc 1 276 374 is_stmt 1
	.loc 1 276 385
.LBE32:
.LBE31:
	.loc 1 292 5
.L105:
	.loc 1 293 1 is_stmt 0
	lw	ra,124(sp)
	.cfi_remember_state
	.cfi_restore 1
	lw	s0,120(sp)
	.cfi_restore 8
	lw	s1,116(sp)
	.cfi_restore 9
	lw	s2,112(sp)
	.cfi_restore 18
	lw	s3,108(sp)
	.cfi_restore 19
	lw	s4,104(sp)
	.cfi_restore 20
	lw	s5,100(sp)
	.cfi_restore 21
	li	a0,0
	addi	sp,sp,128
	.cfi_def_cfa_offset 0
	jr	ra
.LVL94:
.L9:
	.cfi_restore_state
	.loc 1 282 289 discriminator 8
	call	xTaskGetTickCount
.LVL95:
	j	.L111
.LVL96:
.L13:
.LBB34:
.LBB14:
	.loc 1 35 318
	call	xTaskGetTickCount
.LVL97:
	j	.L112
.L21:
	.loc 1 43 318
	call	xTaskGetTickCount
.LVL98:
	j	.L113
.LVL99:
.L20:
.LBE14:
.LBE34:
	.loc 1 284 144 is_stmt 1 discriminator 5
	.loc 1 284 229 is_stmt 0 discriminator 5
	call	xPortIsInsideInterrupt
.LVL100:
	.loc 1 284 144 discriminator 5
	beq	a0,zero,.L24
	.loc 1 284 258 discriminator 7
	call	xTaskGetTickCountFromISR
.LVL101:
.L114:
	.loc 1 284 289 discriminator 8
	mv	a2,a0
	.loc 1 284 144 discriminator 8
	lui	a0,%hi(.LC6)
	li	a4,284
	addi	a3,s2,%lo(.LC0)
	addi	a1,s1,%lo(.LC1)
	addi	a0,a0,%lo(.LC6)
	call	bl_printk
.LVL102:
	j	.L17
.L24:
	.loc 1 284 289 discriminator 8
	call	xTaskGetTickCount
.LVL103:
	j	.L114
.LVL104:
.L27:
.LBB35:
.LBB17:
	.loc 1 65 299
	call	xTaskGetTickCount
.LVL105:
	j	.L115
.L31:
	.loc 1 83 299
	call	xTaskGetTickCount
.LVL106:
	j	.L116
.L36:
	.loc 1 88 309
	call	xTaskGetTickCount
.LVL107:
	j	.L117
.L39:
	.loc 1 90 309
	call	xTaskGetTickCount
.LVL108:
	j	.L118
.LVL109:
.L43:
.LBE17:
.LBE35:
	.loc 1 286 289 discriminator 8
	call	xTaskGetTickCount
.LVL110:
	j	.L120
.LVL111:
.L47:
.LBB36:
.LBB23:
	.loc 1 109 9 is_stmt 1
	.loc 1 109 49 is_stmt 0
	and	s1,s1,a5
.LVL112:
	.loc 1 109 18
	add	s1,s1,a4
.LVL113:
	j	.L46
.LVL114:
.L49:
	.loc 1 113 299
	call	xTaskGetTickCount
.LVL115:
	j	.L121
.LVL116:
.L53:
	.loc 1 127 9 is_stmt 1
	.loc 1 127 49 is_stmt 0
	and	a4,a4,a5
.LVL117:
	.loc 1 127 18
	add	a4,a4,a3
.LVL118:
	j	.L52
.LVL119:
.L55:
	.loc 1 131 299
	call	xTaskGetTickCount
.LVL120:
	j	.L122
.LVL121:
.L68:
.LBE23:
.LBE36:
	.loc 1 288 112
	lui	a4,%hi(_fsymf_level_hosalbl_cks)
	.loc 1 288 92
	lw	a4,%lo(_fsymf_level_hosalbl_cks)(a4)
	bgtu	a4,a5,.L59
	.loc 1 288 144 is_stmt 1 discriminator 5
	.loc 1 288 229 is_stmt 0 discriminator 5
	call	xPortIsInsideInterrupt
.LVL122:
	.loc 1 288 144 discriminator 5
	beq	a0,zero,.L69
	.loc 1 288 258 discriminator 7
	call	xTaskGetTickCountFromISR
.LVL123:
.L126:
	.loc 1 288 289 discriminator 8
	mv	a2,a0
	.loc 1 288 144 discriminator 8
	lui	a3,%hi(.LC0)
	lui	a1,%hi(.LC1)
	lui	a0,%hi(.LC13)
	li	a4,288
	addi	a3,a3,%lo(.LC0)
	addi	a1,a1,%lo(.LC1)
	addi	a0,a0,%lo(.LC13)
	call	bl_printk
.LVL124:
	j	.L59
.LVL125:
.L63:
.LBB37:
.LBB24:
	.loc 1 136 309
	call	xTaskGetTickCount
.LVL126:
	j	.L123
.L57:
	.loc 1 138 9 is_stmt 1
	.loc 1 138 47
	.loc 1 138 52
	.loc 1 138 55 is_stmt 0
	li	a5,4
	bgtu	a3,a5,.L65
	.loc 1 138 118
	lui	a4,%hi(_fsymf_level_hosalbl_cks)
	.loc 1 138 97
	lw	a4,%lo(_fsymf_level_hosalbl_cks)(a4)
	bgtu	a4,a5,.L65
	.loc 1 138 150 is_stmt 1
	.loc 1 138 252 is_stmt 0
	call	xPortIsInsideInterrupt
.LVL127:
	.loc 1 138 150
	beq	a0,zero,.L66
	.loc 1 138 281
	call	xTaskGetTickCountFromISR
.LVL128:
.L124:
	.loc 1 138 312
	mv	a2,a0
	.loc 1 138 150
	lui	a3,%hi(.LC0)
	lui	a1,%hi(.LC12)
	lui	a0,%hi(.LC10)
	mv	a5,s2
	li	a4,138
	addi	a3,a3,%lo(.LC0)
	addi	a1,a1,%lo(.LC12)
	addi	a0,a0,%lo(.LC10)
	j	.L125
.L66:
	.loc 1 138 312
	call	xTaskGetTickCount
.LVL129:
	j	.L124
.LVL130:
.L69:
.LBE24:
.LBE37:
	.loc 1 288 289 discriminator 8
	call	xTaskGetTickCount
.LVL131:
	j	.L126
.LVL132:
.L72:
.LBB38:
.LBB27:
	.loc 1 164 299
	call	xTaskGetTickCount
.LVL133:
	j	.L127
.LVL134:
.L76:
	.loc 1 184 299
	call	xTaskGetTickCount
.LVL135:
	j	.L128
.L81:
	.loc 1 189 148 is_stmt 1
	.loc 1 189 249 is_stmt 0
	call	xPortIsInsideInterrupt
.LVL136:
	.loc 1 189 148
	beq	a0,zero,.L85
	.loc 1 189 278
	call	xTaskGetTickCountFromISR
.LVL137:
.L129:
	.loc 1 189 309
	mv	a2,a0
	.loc 1 189 148
	li	a5,49152
	lui	a0,%hi(.LC9)
	addi	a5,a5,63
	li	a4,189
	addi	a3,s5,%lo(.LC0)
	addi	a1,s3,%lo(.LC1)
	addi	a0,a0,%lo(.LC9)
.L131:
	.loc 1 191 150
	call	bl_printk
.LVL138:
.L87:
	.loc 1 191 367 is_stmt 1
	.loc 1 191 378
.LBE27:
.LBE38:
	.loc 1 290 5
	.loc 1 290 43
	.loc 1 290 48
	.loc 1 290 51 is_stmt 0
	lw	a4,%lo(_fsymc_level_hosal)(s0)
	li	a5,2
	bgtu	a4,a5,.L80
	.loc 1 290 112
	lui	a4,%hi(_fsymf_level_hosalbl_cks)
	.loc 1 290 92
	lw	a4,%lo(_fsymf_level_hosalbl_cks)(a4)
	bgtu	a4,a5,.L80
	.loc 1 290 144 is_stmt 1 discriminator 5
	.loc 1 290 229 is_stmt 0 discriminator 5
	call	xPortIsInsideInterrupt
.LVL139:
	.loc 1 290 144 discriminator 5
	beq	a0,zero,.L91
	.loc 1 290 258 discriminator 7
	call	xTaskGetTickCountFromISR
.LVL140:
.L132:
	.loc 1 290 289 discriminator 8
	mv	a2,a0
	.loc 1 290 144 discriminator 8
	lui	a3,%hi(.LC0)
	lui	a1,%hi(.LC1)
	lui	a0,%hi(.LC14)
	li	a4,290
	addi	a3,a3,%lo(.LC0)
	addi	a1,a1,%lo(.LC1)
	addi	a0,a0,%lo(.LC14)
	call	bl_printk
.LVL141:
	j	.L80
.LVL142:
.L85:
.LBB39:
.LBB28:
	.loc 1 189 309
	call	xTaskGetTickCount
.LVL143:
	j	.L129
.L88:
	.loc 1 191 312
	call	xTaskGetTickCount
.LVL144:
	j	.L130
.LVL145:
.L91:
.LBE28:
.LBE39:
	.loc 1 290 289 discriminator 8
	call	xTaskGetTickCount
.LVL146:
	j	.L132
.L94:
.LBB40:
.LBB33:
	.loc 1 271 9 is_stmt 1
	li	a0,2
	call	vTaskDelay
.LVL147:
	j	.L93
.L97:
	.loc 1 274 309 is_stmt 0
	call	xTaskGetTickCount
.LVL148:
	j	.L133
.L95:
	.loc 1 276 9 is_stmt 1
	.loc 1 276 47
	.loc 1 276 52
	.loc 1 276 55 is_stmt 0
	li	a5,4
	bgtu	a4,a5,.L105
	.loc 1 276 118
	lui	a4,%hi(_fsymf_level_hosalbl_cks)
	.loc 1 276 97
	lw	a4,%lo(_fsymf_level_hosalbl_cks)(a4)
	bgtu	a4,a5,.L105
	.loc 1 276 150 is_stmt 1
	.loc 1 276 252 is_stmt 0
	call	xPortIsInsideInterrupt
.LVL149:
	.loc 1 276 150
	beq	a0,zero,.L99
	.loc 1 276 281
	call	xTaskGetTickCountFromISR
.LVL150:
.L134:
	.loc 1 276 312
	mv	a2,a0
	.loc 1 276 150
	lui	a3,%hi(.LC0)
	lui	a1,%hi(.LC12)
	lui	a0,%hi(.LC10)
	lhu	a5,2(sp)
	li	a4,276
	addi	a3,a3,%lo(.LC0)
	addi	a1,a1,%lo(.LC12)
	addi	a0,a0,%lo(.LC10)
	j	.L135
.L99:
	.loc 1 276 312
	call	xTaskGetTickCount
.LVL151:
	j	.L134
.LVL152:
.L75:
.LBE33:
.LBE40:
.LBB41:
.LBB29:
	.loc 1 184 375 is_stmt 1
	.loc 1 187 6
	.loc 1 188 5
	.loc 1 188 8 is_stmt 0
	li	a5,49152
	addi	a5,a5,63
	bne	s2,a5,.L101
	j	.L80
.LVL153:
.L41:
.LBE29:
.LBE41:
.LBB42:
.LBB18:
	.loc 1 90 363 is_stmt 1
	.loc 1 90 374
.LBE18:
.LBE42:
	.loc 1 286 5
	.loc 1 286 43
	.loc 1 286 48
	.loc 1 286 112 is_stmt 0
	lui	a4,%hi(_fsymf_level_hosalbl_cks)
	.loc 1 286 92
	lw	a4,%lo(_fsymf_level_hosalbl_cks)(a4)
	bgtu	a4,a5,.L102
	.loc 1 286 144 is_stmt 1 discriminator 5
	.loc 1 286 229 is_stmt 0 discriminator 5
	call	xPortIsInsideInterrupt
.LVL154:
	.loc 1 286 144 discriminator 5
	beq	a0,zero,.L43
	.loc 1 286 258 discriminator 7
	call	xTaskGetTickCountFromISR
.LVL155:
.L120:
	.loc 1 286 289 discriminator 8
	mv	a2,a0
	.loc 1 286 144 discriminator 8
	lui	a3,%hi(.LC0)
	lui	a1,%hi(.LC1)
	lui	a0,%hi(.LC11)
	li	a4,286
	addi	a3,a3,%lo(.LC0)
	addi	a1,a1,%lo(.LC1)
	addi	a0,a0,%lo(.LC11)
	call	bl_printk
.LVL156:
	j	.L102
.LVL157:
.L30:
.LBB43:
.LBB19:
	.loc 1 83 374 is_stmt 1
	.loc 1 86 6
	.loc 1 87 5
	.loc 1 87 8 is_stmt 0
	li	a5,49152
	addi	a5,a5,224
	bne	s1,a5,.L104
	j	.L102
.LVL158:
.L74:
.LBE19:
.LBE43:
.LBB44:
.LBB30:
	.loc 1 184 375 is_stmt 1
	.loc 1 187 6
	.loc 1 188 5
	.loc 1 188 8 is_stmt 0
	li	a5,49152
	addi	a5,a5,63
	beq	s2,a5,.L80
.L78:
	.loc 1 191 9 is_stmt 1
	.loc 1 191 47
	.loc 1 191 52
	.loc 1 191 55 is_stmt 0
	lw	a4,%lo(_fsymc_level_hosal)(s0)
	li	a5,4
	bgtu	a4,a5,.L87
.L101:
	.loc 1 191 118
	lui	a5,%hi(_fsymf_level_hosalbl_cks)
	.loc 1 191 97
	lw	a4,%lo(_fsymf_level_hosalbl_cks)(a5)
	li	a5,4
	bgtu	a4,a5,.L87
	.loc 1 191 150 is_stmt 1
	.loc 1 191 252 is_stmt 0
	call	xPortIsInsideInterrupt
.LVL159:
	.loc 1 191 150
	beq	a0,zero,.L88
	.loc 1 191 281
	call	xTaskGetTickCountFromISR
.LVL160:
.L130:
	.loc 1 191 312
	mv	a2,a0
	.loc 1 191 150
	lui	a3,%hi(.LC0)
	lui	a1,%hi(.LC12)
	lui	a0,%hi(.LC10)
	mv	a5,s2
	li	a4,191
	addi	a3,a3,%lo(.LC0)
	addi	a1,a1,%lo(.LC12)
	addi	a0,a0,%lo(.LC10)
	j	.L131
.LVL161:
.L29:
.LBE30:
.LBE44:
.LBB45:
.LBB20:
	.loc 1 83 374 is_stmt 1
	.loc 1 86 6
	.loc 1 87 5
	.loc 1 87 8 is_stmt 0
	li	a5,49152
	addi	a5,a5,224
	beq	s1,a5,.L102
.L33:
	.loc 1 90 9 is_stmt 1
	.loc 1 90 47
	.loc 1 90 52
	.loc 1 90 55 is_stmt 0
	lw	a4,%lo(_fsymc_level_hosal)(s0)
	li	a5,2
	bgtu	a4,a5,.L102
.L104:
	.loc 1 90 116
	lui	a5,%hi(_fsymf_level_hosalbl_cks)
	.loc 1 90 96
	lw	a4,%lo(_fsymf_level_hosalbl_cks)(a5)
	li	a5,2
	bgtu	a4,a5,.L102
	.loc 1 90 148 is_stmt 1
	.loc 1 90 249 is_stmt 0
	call	xPortIsInsideInterrupt
.LVL162:
	.loc 1 90 148
	beq	a0,zero,.L39
	.loc 1 90 278
	call	xTaskGetTickCountFromISR
.LVL163:
.L118:
	.loc 1 90 309
	mv	a2,a0
	.loc 1 90 148
	lui	a3,%hi(.LC0)
	lui	a1,%hi(.LC1)
	lui	a0,%hi(.LC10)
	mv	a5,s1
	li	a4,90
	addi	a3,a3,%lo(.LC0)
	addi	a1,a1,%lo(.LC1)
	addi	a0,a0,%lo(.LC10)
	j	.L119
.LBE20:
.LBE45:
	.cfi_endproc
.LFE32:
	.size	bl_cks_test, .-bl_cks_test
	.globl	_fsymf_info_hosalbl_cks
	.section	.rodata.str1.4,"aMS",@progbits,1
	.align	2
.LC15:
	.string	"hosal.bl_cks"
	.comm	_fsymf_level_hosalbl_cks,4,4
	.align	2
.LC16:
	.string	"hosal"
	.weak	_fsymc_level_hosal
	.section	.rodata.data_src1.1,"a"
	.align	2
	.set	.LANCHOR0,. + 0
	.type	data_src1.1, @object
	.size	data_src1.1, 20
data_src1.1:
	.string	"E"
	.string	""
	.string	"s"
	.string	""
	.string	"@"
	.string	"@\021"
	.string	""
	.string	"\300\250"
	.string	"\001\300\250"
	.ascii	"\307"
	.section	.sbss._fsymc_level_hosal,"aw",@nobits
	.align	2
	.type	_fsymc_level_hosal, @object
	.size	_fsymc_level_hosal, 4
_fsymc_level_hosal:
	.zero	4
	.section	.srodata.BLOG_HARD_DECLARE_DISABLE,"a"
	.align	2
	.type	BLOG_HARD_DECLARE_DISABLE, @object
	.size	BLOG_HARD_DECLARE_DISABLE, 4
BLOG_HARD_DECLARE_DISABLE:
	.zero	4
	.section	.static_blogcomponent_code.hosal,"a"
	.align	2
	.type	_fsymc_info_hosal, @object
	.size	_fsymc_info_hosal, 8
_fsymc_info_hosal:
	.word	_fsymc_level_hosal
	.word	.LC16
	.section	.static_blogfile_code.hosalbl_cks,"a"
	.align	2
	.type	_fsymf_info_hosalbl_cks, @object
	.size	_fsymf_info_hosalbl_cks, 8
_fsymf_info_hosalbl_cks:
	.word	_fsymf_level_hosalbl_cks
	.word	.LC15
	.text
.Letext0:
	.file 2 "/mnt/d/GitHub/bl_iot_sdk_for_aithinker/toolchain/riscv/Linux/lib/gcc/riscv64-unknown-elf/10.2.0/include/stdint-gcc.h"
	.file 3 "/mnt/d/GitHub/bl_iot_sdk_for_aithinker/components/utils/include/utils_list.h"
	.file 4 "/mnt/d/GitHub/bl_iot_sdk_for_aithinker/components/platform/hosal/bl602_hal/bl_dma.h"
	.file 5 "/mnt/d/GitHub/bl_iot_sdk_for_aithinker/components/stage/blog/blog_type.h"
	.file 6 "/mnt/d/GitHub/bl_iot_sdk_for_aithinker/components/stage/blog/blog.h"
	.file 7 "/mnt/d/GitHub/bl_iot_sdk_for_aithinker/components/platform/soc/bl602/freertos_riscv_ram/portable/GCC/RISC-V/portmacro.h"
	.file 8 "/mnt/d/GitHub/bl_iot_sdk_for_aithinker/components/platform/soc/bl602/freertos_riscv_ram/config/task.h"
	.file 9 "/mnt/d/GitHub/bl_iot_sdk_for_aithinker/components/utils/include/utils_log.h"
	.file 10 "/mnt/d/GitHub/bl_iot_sdk_for_aithinker/toolchain/riscv/Linux/riscv64-unknown-elf/include/string.h"