	.file	"bl_clocktree.c"
	.option nopic
	.attribute arch, "rv32i2p0_m2p0_f2p0_c2p0"
	.attribute unaligned_access, 0
	.attribute stack_align, 16
	.text
.Ltext0:
	.cfi_sections	.debug_frame
	.section	.text.clock_root_clk_sel_0_parent_idx,"ax",@progbits
	.align	1
	.type	clock_root_clk_sel_0_parent_idx, @function
clock_root_clk_sel_0_parent_idx:
.LFB8:
	.file 1 "/mnt/d/GitHub/bl_iot_sdk_for_aithinker/components/platform/hosal/bl602_hal/bl_clocktree.c"
	.loc 1 39 1
	.cfi_startproc
.LVL0:
	.loc 1 40 5
	.loc 1 42 5
	.loc 1 42 12 is_stmt 0
	li	a5,1073741824
	lw	a0,0(a5)
.LVL1:
	.loc 1 43 5 is_stmt 1
	.loc 1 43 58 is_stmt 0
	srli	a0,a0,6
.LVL2:
	.loc 1 46 5 is_stmt 1
	.loc 1 47 1 is_stmt 0
	andi	a0,a0,1
.LVL3:
	ret
	.cfi_endproc
.LFE8:
	.size	clock_root_clk_sel_0_parent_idx, .-clock_root_clk_sel_0_parent_idx
	.section	.text.clock_root_clk_pll_sel_idx,"ax",@progbits
	.align	1
	.type	clock_root_clk_pll_sel_idx, @function
clock_root_clk_pll_sel_idx:
.LFB9:
	.loc 1 63 1 is_stmt 1
	.cfi_startproc
.LVL4:
	.loc 1 64 5
	.loc 1 66 5
	.loc 1 66 12 is_stmt 0
	li	a5,1073741824
	lw	a0,0(a5)
.LVL5:
	.loc 1 67 5 is_stmt 1
	.loc 1 67 58 is_stmt 0
	srli	a0,a0,4
.LVL6:
	.loc 1 69 5 is_stmt 1
	.loc 1 70 1 is_stmt 0
	andi	a0,a0,3
.LVL7:
	ret
	.cfi_endproc
.LFE9:
	.size	clock_root_clk_pll_sel_idx, .-clock_root_clk_pll_sel_idx
	.section	.text.clock_root_clk_sel_1_parent_idx,"ax",@progbits
	.align	1
	.type	clock_root_clk_sel_1_parent_idx, @function
clock_root_clk_sel_1_parent_idx:
.LFB10:
	.loc 1 88 1 is_stmt 1
	.cfi_startproc
.LVL8:
	.loc 1 89 5
	.loc 1 91 5
	.loc 1 91 12 is_stmt 0
	li	a5,1073741824
	lw	a0,0(a5)
.LVL9:
	.loc 1 92 5 is_stmt 1
	.loc 1 95 5
	.loc 1 95 21 is_stmt 0
	srli	a0,a0,7
.LVL10:
	.loc 1 96 1
	andi	a0,a0,1
	ret
	.cfi_endproc
.LFE10:
	.size	clock_root_clk_sel_1_parent_idx, .-clock_root_clk_sel_1_parent_idx
	.section	.text.clock_root_clk_sel_1_div_get,"ax",@progbits
	.align	1
	.type	clock_root_clk_sel_1_div_get, @function
clock_root_clk_sel_1_div_get:
.LFB11:
	.loc 1 99 1 is_stmt 1
	.cfi_startproc
.LVL11:
	.loc 1 100 5
	.loc 1 102 5
	.loc 1 102 12 is_stmt 0
	li	a5,1073741824
	lw	a0,0(a5)
.LVL12:
	.loc 1 103 5 is_stmt 1
	.loc 1 103 58 is_stmt 0
	srli	a0,a0,8
.LVL13:
	.loc 1 105 5 is_stmt 1
	.loc 1 103 12 is_stmt 0
	andi	a0,a0,255
.LVL14:
	.loc 1 106 1
	addi	a0,a0,1
.LVL15:
	ret
	.cfi_endproc
.LFE11:
	.size	clock_root_clk_sel_1_div_get, .-clock_root_clk_sel_1_div_get
	.section	.text.clock_root_bclk_div_get,"ax",@progbits
	.align	1
	.type	clock_root_bclk_div_get, @function
clock_root_bclk_div_get:
.LFB12:
	.loc 1 146 1 is_stmt 1
	.cfi_startproc
.LVL16:
	.loc 1 147 5
	.loc 1 149 5
	.loc 1 149 12 is_stmt 0
	li	a5,1073741824
	lw	a0,0(a5)
.LVL17:
	.loc 1 150 5 is_stmt 1
	.loc 1 150 59 is_stmt 0
	srli	a0,a0,16
.LVL18:
	.loc 1 152 5 is_stmt 1
	.loc 1 150 12 is_stmt 0
	andi	a0,a0,255
.LVL19:
	.loc 1 153 1
	addi	a0,a0,1
.LVL20:
	ret
	.cfi_endproc
.LFE12:
	.size	clock_root_bclk_div_get, .-clock_root_bclk_div_get
	.section	.text.clock_root_clk_pll_root_parent_idx,"ax",@progbits
	.align	1
	.type	clock_root_clk_pll_root_parent_idx, @function
clock_root_clk_pll_root_parent_idx:
.LFB13:
	.loc 1 189 1 is_stmt 1
	.cfi_startproc
.LVL21:
	.loc 1 190 5
	.loc 1 192 5
	.loc 1 192 12 is_stmt 0
	li	a5,1073799168
	lw	a0,1028(a5)
.LVL22:
	.loc 1 193 5 is_stmt 1
	.loc 1 193 59 is_stmt 0
	srli	a0,a0,12
.LVL23:
	.loc 1 195 5 is_stmt 1
	.loc 1 196 1 is_stmt 0
	andi	a0,a0,1
.LVL24:
	ret
	.cfi_endproc
.LFE13:
	.size	clock_root_clk_pll_root_parent_idx, .-clock_root_clk_pll_root_parent_idx
	.section	.text.clock_uart_parent_idx,"ax",@progbits
	.align	1
	.type	clock_uart_parent_idx, @function
clock_uart_parent_idx:
.LFB14:
	.loc 1 278 1 is_stmt 1
	.cfi_startproc
.LVL25:
	.loc 1 279 5
	.loc 1 281 5
	.loc 1 281 12 is_stmt 0
	li	a5,1073803264
	lw	a0,48(a5)
.LVL26:
	.loc 1 282 5 is_stmt 1
	.loc 1 282 58 is_stmt 0
	srli	a0,a0,2
.LVL27:
	.loc 1 284 5 is_stmt 1
	.loc 1 285 1 is_stmt 0
	andi	a0,a0,1
.LVL28:
	ret
	.cfi_endproc
.LFE14:
	.size	clock_uart_parent_idx, .-clock_uart_parent_idx
	.section	.text.clock_uart_gating_status,"ax",@progbits
	.align	1
	.type	clock_uart_gating_status, @function
clock_uart_gating_status:
.LFB15:
	.loc 1 288 1 is_stmt 1
	.cfi_startproc
.LVL29:
	.loc 1 289 5
	.loc 1 291 5
	.loc 1 291 12 is_stmt 0
	li	a5,1073741824
	lw	a0,8(a5)
.LVL30:
	.loc 1 292 5 is_stmt 1
	.loc 1 294 5
	.loc 1 292 58 is_stmt 0
	srli	a0,a0,4
.LVL31:
	.loc 1 294 28
	not	a0,a0
	.loc 1 295 1
	andi	a0,a0,1
	ret
	.cfi_endproc
.LFE15:
	.size	clock_uart_gating_status, .-clock_uart_gating_status
	.section	.text.clock_uart_div_get,"ax",@progbits
	.align	1
	.type	clock_uart_div_get, @function
clock_uart_div_get:
.LFB16:
	.loc 1 298 1 is_stmt 1
	.cfi_startproc
.LVL32:
	.loc 1 299 5
	.loc 1 301 5
	.loc 1 301 12 is_stmt 0
	li	a5,1073741824
	lw	a0,8(a5)
.LVL33:
	.loc 1 302 5 is_stmt 1
	.loc 1 304 5
	.loc 1 302 12 is_stmt 0
	andi	a0,a0,7
.LVL34:
	.loc 1 305 1
	addi	a0,a0,1
.LVL35:
	ret
	.cfi_endproc
.LFE16:
	.size	clock_uart_div_get, .-clock_uart_div_get
	.section	.text.clock_flash_div_get,"ax",@progbits
	.align	1
	.type	clock_flash_div_get, @function
clock_flash_div_get:
.LFB17:
	.loc 1 357 1 is_stmt 1
	.cfi_startproc
.LVL36:
	.loc 1 358 5
	.loc 1 360 5
	.loc 1 360 12 is_stmt 0
	li	a5,1073741824
	lw	a0,8(a5)
.LVL37:
	.loc 1 361 5 is_stmt 1
	.loc 1 361 58 is_stmt 0
	srli	a0,a0,8
.LVL38:
	.loc 1 363 5 is_stmt 1
	.loc 1 361 12 is_stmt 0
	andi	a0,a0,7
.LVL39:
	.loc 1 364 1
	addi	a0,a0,1
.LVL40:
	ret
	.cfi_endproc
.LFE17:
	.size	clock_flash_div_get, .-clock_flash_div_get
	.section	.text.clock_flash_gating_status,"ax",@progbits
	.align	1
	.type	clock_flash_gating_status, @function
clock_flash_gating_status:
.LFB18:
	.loc 1 367 1 is_stmt 1
	.cfi_startproc
.LVL41:
	.loc 1 368 5
	.loc 1 370 5
	.loc 1 370 12 is_stmt 0
	li	a5,1073741824
	lw	a0,8(a5)
.LVL42:
	.loc 1 371 5 is_stmt 1
	.loc 1 373 5
	.loc 1 371 59 is_stmt 0
	srli	a0,a0,11
.LVL43:
	.loc 1 373 28
	not	a0,a0
	.loc 1 374 1
	andi	a0,a0,1
	ret
	.cfi_endproc
.LFE18:
	.size	clock_flash_gating_status, .-clock_flash_gating_status
	.section	.text.clock_flash_parent_idx,"ax",@progbits
	.align	1
	.type	clock_flash_parent_idx, @function
clock_flash_parent_idx:
.LFB19:
	.loc 1 377 1 is_stmt 1
	.cfi_startproc
.LVL44:
	.loc 1 378 5
	.loc 1 381 5
	.loc 1 381 12 is_stmt 0
	li	a4,1073741824
	lw	a5,8(a4)
.LVL45:
	.loc 1 382 5 is_stmt 1
	.loc 1 384 13 is_stmt 0
	lw	a4,8(a4)
.LVL46:
	.loc 1 382 59
	srli	a5,a5,12
.LVL47:
	.loc 1 382 12
	andi	a5,a5,3
.LVL48:
	.loc 1 384 5 is_stmt 1
	.loc 1 385 5
	.loc 1 387 5
	.loc 1 391 13 is_stmt 0
	addi	a0,a5,2
.LVL49:
	.loc 1 387 8
	bne	a5,zero,.L14
	.loc 1 385 61
	srli	a4,a4,14
.LVL50:
	.loc 1 385 13
	andi	a0,a4,3
.LVL51:
.L14:
	.loc 1 394 5 is_stmt 1
	.loc 1 395 1 is_stmt 0
	ret
	.cfi_endproc
.LFE19:
	.size	clock_flash_parent_idx, .-clock_flash_parent_idx
	.section	.text.clock_i2c_gating_status,"ax",@progbits
	.align	1
	.type	clock_i2c_gating_status, @function
clock_i2c_gating_status:
.LFB20:
	.loc 1 417 1 is_stmt 1
	.cfi_startproc
.LVL52:
	.loc 1 418 5
	.loc 1 420 5
	.loc 1 420 12 is_stmt 0
	li	a5,1073741824
	lw	a0,12(a5)
.LVL53:
	.loc 1 421 5 is_stmt 1
	.loc 1 423 5
	.loc 1 421 59 is_stmt 0
	srli	a0,a0,24
.LVL54:
	.loc 1 423 28
	not	a0,a0
	.loc 1 424 1
	andi	a0,a0,1
	ret
	.cfi_endproc
.LFE20:
	.size	clock_i2c_gating_status, .-clock_i2c_gating_status
	.section	.text.clock_i2c_div_get,"ax",@progbits
	.align	1
	.type	clock_i2c_div_get, @function
clock_i2c_div_get:
.LFB21:
	.loc 1 427 1 is_stmt 1
	.cfi_startproc
.LVL55:
	.loc 1 428 5
	.loc 1 430 5
	.loc 1 430 12 is_stmt 0
	li	a5,1073741824
	lw	a0,12(a5)
.LVL56:
	.loc 1 431 5 is_stmt 1
	.loc 1 431 59 is_stmt 0
	srli	a0,a0,16
.LVL57:
	.loc 1 433 5 is_stmt 1
	.loc 1 431 12 is_stmt 0
	andi	a0,a0,255
.LVL58:
	.loc 1 434 1
	addi	a0,a0,1
.LVL59:
	ret
	.cfi_endproc
.LFE21:
	.size	clock_i2c_div_get, .-clock_i2c_div_get
	.section	.text.clock_spi_gating_status,"ax",@progbits
	.align	1
	.type	clock_spi_gating_status, @function
clock_spi_gating_status:
.LFB28:
	.cfi_startproc
	tail	clock_i2c_gating_status
	.cfi_endproc
.LFE28:
	.size	clock_spi_gating_status, .-clock_spi_gating_status
	.section	.text.clock_spi_div_get,"ax",@progbits
	.align	1
	.type	clock_spi_div_get, @function
clock_spi_div_get:
.LFB30:
	.cfi_startproc
	tail	clock_i2c_div_get
	.cfi_endproc
.LFE30:
	.size	clock_spi_div_get, .-clock_spi_div_get
	.section	.rodata._dump_node.str1.4,"aMS",@progbits,1
	.align	2
.LC0:
	.string	"bl_clocktree.c"
	.align	2
.LC1:
	.string	"\033[32mINFO\033[0m"
	.align	2
.LC2:
	.string	"%s (%d)[%s:%4d] node name %p %s\r\n\r\n"
	.align	2
.LC3:
	.string	"%s (%d)[%s:%4d] parents[%i] %p\r\n\r\n"
	.section	.text._dump_node,"ax",@progbits
	.align	1
	.type	_dump_node, @function
_dump_node:
.LFB24:
	.loc 1 493 1 is_stmt 1
	.cfi_startproc
.LVL60:
	.loc 1 494 5
	.loc 1 496 5
	.loc 1 496 43
	.loc 1 496 48
	.loc 1 493 1 is_stmt 0
	addi	sp,sp,-48
	.cfi_def_cfa_offset 48
	sw	s2,32(sp)
	.cfi_offset 18, -16
	.loc 1 496 69
	lui	s2,%hi(_fsymc_level_hosal)
	.loc 1 496 51
	lw	a4,%lo(_fsymc_level_hosal)(s2)
	.loc 1 493 1
	sw	s0,40(sp)
	sw	ra,44(sp)
	sw	s1,36(sp)
	sw	s3,28(sp)
	sw	s4,24(sp)
	sw	s5,20(sp)
	sw	s6,16(sp)
	sw	s7,12(sp)
	.cfi_offset 8, -8
	.cfi_offset 1, -4
	.cfi_offset 9, -12
	.cfi_offset 19, -20
	.cfi_offset 20, -24
	.cfi_offset 21, -28
	.cfi_offset 22, -32
	.cfi_offset 23, -36
	.loc 1 496 51
	li	a5,2
	.loc 1 493 1
	mv	s0,a0
	.loc 1 496 51
	bgtu	a4,a5,.L20
	.loc 1 496 112 discriminator 3
	lui	a4,%hi(_fsymf_level_hosalbl_clocktree)
	.loc 1 496 92 discriminator 3
	lw	a4,%lo(_fsymf_level_hosalbl_clocktree)(a4)
	bgtu	a4,a5,.L20
	.loc 1 496 150 is_stmt 1 discriminator 5
	.loc 1 496 233 is_stmt 0 discriminator 5
	call	xPortIsInsideInterrupt
.LVL61:
	.loc 1 496 150 discriminator 5
	beq	a0,zero,.L21
	.loc 1 496 262 discriminator 7
	call	xTaskGetTickCountFromISR
.LVL62:
.L29:
	.loc 1 496 150 discriminator 8
	lw	a6,0(s0)
	.loc 1 496 293 discriminator 8
	mv	a2,a0
	.loc 1 496 150 discriminator 8
	lui	a3,%hi(.LC0)
	lui	a1,%hi(.LC1)
	lui	a0,%hi(.LC2)
	mv	a5,s0
	li	a4,496
	addi	a3,a3,%lo(.LC0)
	addi	a1,a1,%lo(.LC1)
	addi	a0,a0,%lo(.LC2)
	call	bl_printk
.LVL63:
.L20:
	.loc 1 493 1 discriminator 2
	li	s1,0
	.loc 1 498 55 discriminator 2
	li	s3,2
	.loc 1 498 116 discriminator 2
	lui	s4,%hi(_fsymf_level_hosalbl_clocktree)
	.loc 1 498 154 discriminator 2
	lui	s5,%hi(.LC0)
	lui	s6,%hi(.LC1)
	lui	s7,%hi(.LC3)
.L23:
.LVL64:
	.loc 1 497 17 is_stmt 1 discriminator 2
	.loc 1 497 5 is_stmt 0 discriminator 2
	lw	a5,4(s0)
	bgt	a5,s1,.L27
	.loc 1 500 1
	lw	ra,44(sp)
	.cfi_remember_state
	.cfi_restore 1
	lw	s0,40(sp)
	.cfi_restore 8
.LVL65:
	lw	s1,36(sp)
	.cfi_restore 9
.LVL66:
	lw	s2,32(sp)
	.cfi_restore 18
	lw	s3,28(sp)
	.cfi_restore 19
	lw	s4,24(sp)
	.cfi_restore 20
	lw	s5,20(sp)
	.cfi_restore 21
	lw	s6,16(sp)
	.cfi_restore 22
	lw	s7,12(sp)
	.cfi_restore 23
	addi	sp,sp,48
	.cfi_def_cfa_offset 0
	jr	ra
.LVL67:
.L21:
	.cfi_restore_state
	.loc 1 496 293 discriminator 8
	call	xTaskGetTickCount
.LVL68:
	j	.L29
.LVL69:
.L27:
	.loc 1 498 9 is_stmt 1 discriminator 1
	.loc 1 498 47 discriminator 1
	.loc 1 498 52 discriminator 1
	.loc 1 498 55 is_stmt 0 discriminator 1
	lw	a5,%lo(_fsymc_level_hosal)(s2)
	bgtu	a5,s3,.L24
	.loc 1 498 96 discriminator 3
	lw	a5,%lo(_fsymf_level_hosalbl_clocktree)(s4)
	bgtu	a5,s3,.L24
	.loc 1 498 154 is_stmt 1 discriminator 5
	.loc 1 498 236 is_stmt 0 discriminator 5
	call	xPortIsInsideInterrupt
.LVL70:
	.loc 1 498 154 discriminator 5
	beq	a0,zero,.L25
	.loc 1 498 265 discriminator 7
	call	xTaskGetTickCountFromISR
.LVL71:
.L30:
	.loc 1 498 154 discriminator 8
	lw	a5,8(s0)
	slli	a4,s1,2
	.loc 1 498 296 discriminator 8
	mv	a2,a0
	.loc 1 498 154 discriminator 8
	add	a5,a5,a4
	lw	a6,0(a5)
	li	a4,498
	mv	a5,s1
	addi	a3,s5,%lo(.LC0)
	addi	a1,s6,%lo(.LC1)
	addi	a0,s7,%lo(.LC3)
	call	bl_printk
.LVL72:
.L24:
	.loc 1 498 373 is_stmt 1 discriminator 11
	.loc 1 498 384 discriminator 11
	.loc 1 497 40 discriminator 11
	.loc 1 497 41 is_stmt 0 discriminator 11
	addi	s1,s1,1
.LVL73:
	j	.L23
.L25:
	.loc 1 498 296 discriminator 8
	call	xTaskGetTickCount
.LVL74:
	j	.L30
	.cfi_endproc
.LFE24:
	.size	_dump_node, .-_dump_node
	.section	.rodata.clock_tree_dump.str1.4,"aMS",@progbits,1
	.align	2
.LC4:
	.string	""
	.align	2
.LC5:
	.string	"(Gating)"
	.align	2
.LC6:
	.string	"%s (%d)[%s:%4d]  (Div %u)\r\n"
	.align	2
.LC7:
	.string	" <<<"
	.align	2
.LC8:
	.string	"%s (%d)[%s:%4d] Got illegal idx %d\r\n\r\n"
	.align	2
.LC9:
	.string	"Clock Tree, ASSERT Here\r\n"
	.align	2
.LC10:
	.string	"%s (%d)[%s:%4d] (%d)-- \r\n"
	.align	2
.LC11:
	.string	"\r\n====================\r\n"
	.section	.text.clock_tree_dump,"ax",@progbits
	.align	1
	.globl	clock_tree_dump
	.type	clock_tree_dump, @function
clock_tree_dump:
.LFB26:
	.loc 1 544 1 is_stmt 1
	.cfi_startproc
	.loc 1 545 5
	.loc 1 546 5
	.loc 1 548 5
.LVL75:
	.loc 1 548 17
	.loc 1 544 1 is_stmt 0
	addi	sp,sp,-64
	.cfi_def_cfa_offset 64
	sw	s2,48(sp)
	.cfi_offset 18, -16
	lui	s2,%hi(.LANCHOR0)
	sw	s3,44(sp)
	sw	s4,40(sp)
	addi	s2,s2,%lo(.LANCHOR0)
	.cfi_offset 19, -20
	.cfi_offset 20, -24
.LBB4:
.LBB5:
	.loc 1 509 5
	lui	s3,%hi(.LC4)
	lui	s4,%hi(.LC5)
.LBE5:
.LBE4:
	.loc 1 544 1
	sw	s6,32(sp)
	sw	s7,28(sp)
	sw	s9,20(sp)
	sw	ra,60(sp)
	sw	s0,56(sp)
	sw	s1,52(sp)
	sw	s5,36(sp)
	sw	s8,24(sp)
	.cfi_offset 22, -32
	.cfi_offset 23, -36
	.cfi_offset 25, -44
	.cfi_offset 1, -4
	.cfi_offset 8, -8
	.cfi_offset 9, -12
	.cfi_offset 21, -28
	.cfi_offset 24, -40
	addi	s9,s2,28
.LBB8:
.LBB6:
	.loc 1 508 112
	lui	s6,%hi(_fsymf_level_hosalbl_clocktree)
	.loc 1 508 150
	lui	s7,%hi(.LC0)
	.loc 1 509 5
	addi	s3,s3,%lo(.LC4)
	addi	s4,s4,%lo(.LC5)
.LVL76:
.L54:
.LBE6:
.LBE8:
	.loc 1 549 9 is_stmt 1 discriminator 3
	.loc 1 549 14 is_stmt 0 discriminator 3
	lw	s0,0(s2)
.LVL77:
	.loc 1 550 9 is_stmt 1 discriminator 3
.LBB9:
.LBB7:
	.loc 1 508 69 is_stmt 0 discriminator 3
	lui	s5,%hi(_fsymc_level_hosal)
	.loc 1 508 150 discriminator 3
	lui	s8,%hi(.LC1)
.LVL78:
.L32:
	.loc 1 504 5 is_stmt 1
	.loc 1 505 5
	.loc 1 507 5
	lw	a0,0(s0)
	call	puts
.LVL79:
	.loc 1 508 5
	.loc 1 508 43
	.loc 1 508 48
	.loc 1 508 51 is_stmt 0
	lw	a4,%lo(_fsymc_level_hosal)(s5)
	li	a5,2
	bgtu	a4,a5,.L33
	.loc 1 508 92
	lw	a4,%lo(_fsymf_level_hosalbl_clocktree)(s6)
	bgtu	a4,a5,.L33
	.loc 1 508 150 is_stmt 1
	.loc 1 508 223 is_stmt 0
	call	xPortIsInsideInterrupt
.LVL80:
	.loc 1 508 150
	beq	a0,zero,.L34
	.loc 1 508 252
	call	xTaskGetTickCountFromISR
.LVL81:
.L63:
	.loc 1 508 332
	lw	a4,24(s0)
	.loc 1 508 283
	mv	a2,a0
	.loc 1 508 150
	li	a5,1
	beq	a4,zero,.L36
	sw	a0,12(sp)
	.loc 1 508 344
	mv	a0,s0
	jalr	a4
.LVL82:
	lw	a2,12(sp)
	mv	a5,a0
.L36:
	.loc 1 508 150
	lui	a0,%hi(.LC6)
	li	a4,508
	addi	a3,s7,%lo(.LC0)
	addi	a1,s8,%lo(.LC1)
	addi	a0,a0,%lo(.LC6)
	call	bl_printk
.LVL83:
.L33:
	.loc 1 508 380 is_stmt 1
	.loc 1 508 391
	.loc 1 509 5
	.loc 1 509 14 is_stmt 0
	lw	a5,32(s0)
	.loc 1 509 5
	beq	a5,zero,.L37
	.loc 1 509 28
	mv	a0,s0
	jalr	a5
.LVL84:
	.loc 1 509 19
	li	a4,1
	.loc 1 509 5
	mv	a5,s4
	.loc 1 509 19
	beq	a0,a4,.L38
.L37:
	.loc 1 509 5
	mv	a5,s3
.L38:
	mv	a0,a5
	call	puts
.LVL85:
	.loc 1 511 5 is_stmt 1
	.loc 1 511 8 is_stmt 0
	lw	a5,4(s0)
	beq	a5,zero,.L39
	.loc 1 515 5 is_stmt 1
	lui	a0,%hi(.LC7)
	addi	a0,a0,%lo(.LC7)
	call	puts
.LVL86:
	.loc 1 516 5
	.loc 1 516 13 is_stmt 0
	lw	a5,12(s0)
	.loc 1 516 8
	beq	a5,zero,.L40
	.loc 1 517 9 is_stmt 1
	.loc 1 517 15 is_stmt 0
	mv	a0,s0
	jalr	a5
.LVL87:
	.loc 1 518 12
	lw	a5,4(s0)
	.loc 1 517 15
	mv	s1,a0
.LVL88:
	.loc 1 518 9 is_stmt 1
	.loc 1 518 12 is_stmt 0
	blt	a0,a5,.L41
.L44:
	.loc 1 519 13 is_stmt 1
	.loc 1 519 51
	.loc 1 519 56
	.loc 1 519 59 is_stmt 0
	lw	a4,%lo(_fsymc_level_hosal)(s5)
	li	a5,2
	bleu	a4,a5,.L42
.L43:
	.loc 1 519 365 is_stmt 1
	.loc 1 519 376
	.loc 1 520 13
	mv	a0,s0
	call	_dump_node
.LVL89:
.L48:
	.loc 1 521 13
	.loc 1 523 13
	.loc 1 521 19
	j	.L48
.LVL90:
.L34:
	.loc 1 508 283 is_stmt 0
	call	xTaskGetTickCount
.LVL91:
	j	.L63
.LVL92:
.L41:
	.loc 1 518 38
	blt	a0,zero,.L44
.LVL93:
.L45:
	.loc 1 534 5 is_stmt 1
	.loc 1 534 43
	.loc 1 534 48
	.loc 1 534 51 is_stmt 0
	lw	a4,%lo(_fsymc_level_hosal)(s5)
	li	a5,2
	bgtu	a4,a5,.L50
	.loc 1 534 92
	lw	a4,%lo(_fsymf_level_hosalbl_clocktree)(s6)
	bgtu	a4,a5,.L50
	.loc 1 534 150 is_stmt 1
	.loc 1 534 221 is_stmt 0
	call	xPortIsInsideInterrupt
.LVL94:
	.loc 1 534 150
	beq	a0,zero,.L51
	.loc 1 534 250
	call	xTaskGetTickCountFromISR
.LVL95:
.L65:
	.loc 1 534 281
	mv	a2,a0
	.loc 1 534 150
	lui	a0,%hi(.LC10)
	mv	a5,s1
	li	a4,534
	addi	a3,s7,%lo(.LC0)
	addi	a1,s8,%lo(.LC1)
	addi	a0,a0,%lo(.LC10)
	call	bl_printk
.LVL96:
.L50:
	.loc 1 534 342 is_stmt 1
	.loc 1 534 353
	.loc 1 535 5
	.loc 1 535 12 is_stmt 0
	lw	a0,8(s0)
	slli	s1,s1,2
.LVL97:
	add	s1,a0,s1
	lw	s1,0(s1)
.LVL98:
	.loc 1 537 5 is_stmt 1
	.loc 1 537 8 is_stmt 0
	bne	s1,zero,.L53
	.loc 1 538 9 is_stmt 1
	mv	a0,s0
	call	_dump_node
.LVL99:
.L53:
	.loc 1 535 12 is_stmt 0
	mv	s0,s1
	j	.L32
.LVL100:
.L42:
	.loc 1 519 120
	lui	a4,%hi(_fsymf_level_hosalbl_clocktree)
	.loc 1 519 100
	lw	a4,%lo(_fsymf_level_hosalbl_clocktree)(a4)
	bgtu	a4,a5,.L43
	.loc 1 519 158 is_stmt 1
	.loc 1 519 244 is_stmt 0
	call	xPortIsInsideInterrupt
.LVL101:
	.loc 1 519 158
	beq	a0,zero,.L46
	.loc 1 519 273
	call	xTaskGetTickCountFromISR
.LVL102:
.L64:
	.loc 1 519 304
	mv	a2,a0
	.loc 1 519 158
	lui	a3,%hi(.LC0)
	lui	a1,%hi(.LC1)
	lui	a0,%hi(.LC8)
	mv	a5,s1
	li	a4,519
	addi	a3,a3,%lo(.LC0)
	addi	a1,a1,%lo(.LC1)
	addi	a0,a0,%lo(.LC8)
	call	bl_printk
.LVL103:
	j	.L43
.L46:
	.loc 1 519 304
	call	xTaskGetTickCount
.LVL104:
	j	.L64
.LVL105:
.L40:
	.loc 1 525 12 is_stmt 1
	.loc 1 525 15 is_stmt 0
	lw	a4,4(s0)
	li	a5,1
	beq	a4,a5,.L57
	.loc 1 529 9 is_stmt 1
.LVL106:
	.loc 1 530 9
	lui	a0,%hi(.LC9)
	addi	a0,a0,%lo(.LC9)
	call	puts
.LVL107:
.L49:
	.loc 1 531 9
	.loc 1 532 9
	.loc 1 531 15
	j	.L49
.LVL108:
.L57:
	.loc 1 526 13 is_stmt 0
	li	s1,0
	j	.L45
.LVL109:
.L51:
	.loc 1 534 281
	call	xTaskGetTickCount
.LVL110:
	j	.L65
.LVL111:
.L39:
	.loc 1 512 9 is_stmt 1 discriminator 3
.LBE7:
.LBE9:
	.loc 1 551 9 discriminator 3
	lui	a0,%hi(.LC11)
	addi	a0,a0,%lo(.LC11)
	.loc 1 548 5 is_stmt 0 discriminator 3
	addi	s2,s2,4
	.loc 1 551 9 discriminator 3
	call	puts
.LVL112:
	.loc 1 548 67 is_stmt 1 discriminator 3
	.loc 1 548 17 discriminator 3
	.loc 1 548 5 is_stmt 0 discriminator 3
	bne	s9,s2,.L54
	.loc 1 553 1
	lw	ra,60(sp)
	.cfi_restore 1
	lw	s0,56(sp)
	.cfi_restore 8
	lw	s1,52(sp)
	.cfi_restore 9
	lw	s2,48(sp)
	.cfi_restore 18
	lw	s3,44(sp)
	.cfi_restore 19
	lw	s4,40(sp)
	.cfi_restore 20
	lw	s5,36(sp)
	.cfi_restore 21
	lw	s6,32(sp)
	.cfi_restore 22
	lw	s7,28(sp)
	.cfi_restore 23
	lw	s8,24(sp)
	.cfi_restore 24
	lw	s9,20(sp)
	.cfi_restore 25
	addi	sp,sp,64
	.cfi_def_cfa_offset 0
	jr	ra
	.cfi_endproc
.LFE26:
	.size	clock_tree_dump, .-clock_tree_dump
	.section	.rodata.str1.4,"aMS",@progbits,1
	.align	2
.LC12:
	.string	"spi clk"
	.align	2
.LC13:
	.string	"i2c clk"
	.align	2
.LC14:
	.string	"flash clk"
	.align	2
.LC15:
	.string	"MCU bclk"
	.align	2
.LC16:
	.string	"MCU hclk"
	.align	2
.LC17:
	.string	"MCU fclk"
	.align	2
.LC18:
	.string	"uart clk"
	.align	2
.LC19:
	.string	"PLL Root"
	.align	2
.LC20:
	.string	"bclk"
	.align	2
.LC21:
	.string	"hclk"
	.align	2
.LC22:
	.string	"fclk"
	.align	2
.LC23:
	.string	"root_clk_sel_1"
	.align	2
.LC24:
	.string	"root_clk_sel_0"
	.align	2
.LC25:
	.string	"pll_sel"
	.align	2
.LC26:
	.string	"PLL_48m"
	.align	2
.LC27:
	.string	"PLL_80m"
	.align	2
.LC28:
	.string	"PLL_96m"
	.align	2
.LC29:
	.string	"PLL_120M"
	.align	2
.LC30:
	.string	"PLL_160M"
	.align	2
.LC31:
	.string	"PLL_192M"
	.align	2
.LC32:
	.string	"XTAL 40M"
	.align	2
.LC33:
	.string	"RC 32M"
	.globl	_fsymf_info_hosalbl_clocktree
	.align	2
.LC34:
	.string	"hosal.bl_clocktree"
	.comm	_fsymf_level_hosalbl_clocktree,4,4
	.align	2
.LC35:
	.string	"hosal"
	.weak	_fsymc_level_hosal
	.section	.data.__compound_literal.0,"aw"
	.align	2
	.type	__compound_literal.0, @object
	.size	__compound_literal.0, 12
__compound_literal.0:
	.word	clock_RC32M
	.word	clock_XTAL
	.word	0
	.section	.data.__compound_literal.1,"aw"
	.align	2
	.type	__compound_literal.1, @object
	.size	__compound_literal.1, 20
__compound_literal.1:
	.word	clock_pll_48m
	.word	clock_pll_120m
	.word	clock_pll_160m
	.word	clock_pll_192m
	.word	0
	.section	.data.__compound_literal.15,"aw"
	.align	2
	.type	__compound_literal.15, @object
	.size	__compound_literal.15, 12
__compound_literal.15:
	.word	clock_root_clk_sel_1
	.word	clock_pll_160m
	.word	0
	.section	.data.__compound_literal.19,"aw"
	.align	2
	.type	__compound_literal.19, @object
	.size	__compound_literal.19, 28
__compound_literal.19:
	.word	clock_pll_120m
	.word	clock_XTAL
	.word	clock_pll_48m
	.word	clock_pll_80m
	.word	clock_bclk
	.word	clock_pll_96m
	.word	0
	.section	.data.__compound_literal.2,"aw"
	.align	2
	.type	__compound_literal.2, @object
	.size	__compound_literal.2, 12
__compound_literal.2:
	.word	clock_root_clk_sel_0
	.word	clock_pll_sel
	.word	0
	.section	.data.__compound_literal.8,"aw"
	.align	2
	.type	__compound_literal.8, @object
	.size	__compound_literal.8, 12
__compound_literal.8:
	.word	clock_XTAL
	.word	clock_RC32M
	.word	0
	.section	.data.clock_PLL,"aw"
	.align	2
	.type	clock_PLL, @object
	.size	clock_PLL, 36
clock_PLL:
	.word	.LC19
	.word	2
	.word	__compound_literal.8
	.word	clock_root_clk_pll_root_parent_idx
	.word	0
	.word	0
	.zero	12
	.section	.data.clock_RC32M,"aw"
	.align	2
	.type	clock_RC32M, @object
	.size	clock_RC32M, 36
clock_RC32M:
	.word	.LC33
	.word	0
	.word	__compound_literal.6
	.zero	4
	.word	0
	.word	0
	.zero	12
	.section	.data.clock_XTAL,"aw"
	.align	2
	.type	clock_XTAL, @object
	.size	clock_XTAL, 36
clock_XTAL:
	.word	.LC32
	.word	0
	.word	__compound_literal.7
	.zero	4
	.word	0
	.word	0
	.zero	12
	.section	.data.clock_bclk,"aw"
	.align	2
	.type	clock_bclk, @object
	.size	clock_bclk, 36
clock_bclk:
	.word	.LC20
	.word	1
	.word	__compound_literal.5
	.zero	4
	.word	0
	.word	0
	.word	clock_root_bclk_div_get
	.zero	8
	.section	.data.clock_fclk,"aw"
	.align	2
	.type	clock_fclk, @object
	.size	clock_fclk, 36
clock_fclk:
	.word	.LC22
	.word	1
	.word	__compound_literal.3
	.zero	4
	.word	0
	.word	0
	.zero	12
	.section	.data.clock_hclk,"aw"
	.align	2
	.type	clock_hclk, @object
	.size	clock_hclk, 36
clock_hclk:
	.word	.LC21
	.word	1
	.word	__compound_literal.4
	.zero	4
	.word	0
	.word	0
	.zero	12
	.section	.data.clock_pll_120m,"aw"
	.align	2
	.type	clock_pll_120m, @object
	.size	clock_pll_120m, 36
clock_pll_120m:
	.word	.LC29
	.word	1
	.word	__compound_literal.11
	.zero	4
	.word	0
	.word	0
	.zero	12
	.section	.data.clock_pll_160m,"aw"
	.align	2
	.type	clock_pll_160m, @object
	.size	clock_pll_160m, 36
clock_pll_160m:
	.word	.LC30
	.word	1
	.word	__compound_literal.10
	.zero	4
	.word	0
	.word	0
	.zero	12
	.section	.data.clock_pll_192m,"aw"
	.align	2
	.type	clock_pll_192m, @object
	.size	clock_pll_192m, 36
clock_pll_192m:
	.word	.LC31
	.word	1
	.word	__compound_literal.9
	.zero	4
	.word	0
	.word	0
	.zero	12
	.section	.data.clock_pll_48m,"aw"
	.align	2
	.type	clock_pll_48m, @object
	.size	clock_pll_48m, 36
clock_pll_48m:
	.word	.LC26
	.word	1
	.word	__compound_literal.14
	.zero	4
	.word	0
	.word	0
	.zero	12
	.section	.data.clock_pll_80m,"aw"
	.align	2
	.type	clock_pll_80m, @object
	.size	clock_pll_80m, 36
clock_pll_80m:
	.word	.LC27
	.word	1
	.word	__compound_literal.13
	.zero	4
	.word	0
	.word	0
	.zero	12
	.section	.data.clock_pll_96m,"aw"
	.align	2
	.type	clock_pll_96m, @object
	.size	clock_pll_96m, 36
clock_pll_96m:
	.word	.LC28
	.word	1
	.word	__compound_literal.12
	.zero	4
	.word	0
	.word	0
	.zero	12
	.section	.data.clock_pll_sel,"aw"
	.align	2
	.type	clock_pll_sel, @object
	.size	clock_pll_sel, 36
clock_pll_sel:
	.word	.LC25
	.word	4
	.word	__compound_literal.1
	.word	clock_root_clk_pll_sel_idx
	.word	0
	.word	0
	.zero	12
	.section	.data.clock_root_clk_sel_0,"aw"
	.align	2
	.type	clock_root_clk_sel_0, @object
	.size	clock_root_clk_sel_0, 36
clock_root_clk_sel_0:
	.word	.LC24
	.word	2
	.word	__compound_literal.0
	.word	clock_root_clk_sel_0_parent_idx
	.word	0
	.word	0
	.zero	12
	.section	.data.clock_root_clk_sel_1,"aw"
	.align	2
	.type	clock_root_clk_sel_1, @object
	.size	clock_root_clk_sel_1, 36
clock_root_clk_sel_1:
	.word	.LC23
	.word	2
	.word	__compound_literal.2
	.word	clock_root_clk_sel_1_parent_idx
	.word	0
	.word	0
	.word	clock_root_clk_sel_1_div_get
	.zero	8
	.section	.data.clock_uart,"aw"
	.align	2
	.type	clock_uart, @object
	.size	clock_uart, 36
clock_uart:
	.word	.LC18
	.word	2
	.word	__compound_literal.15
	.word	clock_uart_parent_idx
	.word	0
	.word	0
	.word	clock_uart_div_get
	.zero	4
	.word	clock_uart_gating_status
	.section	.data.flash_clock,"aw"
	.align	2
	.type	flash_clock, @object
	.size	flash_clock, 36
flash_clock:
	.word	.LC14
	.word	6
	.word	__compound_literal.19
	.word	clock_flash_parent_idx
	.word	0
	.word	0
	.word	clock_flash_div_get
	.zero	4
	.word	clock_flash_gating_status
	.section	.data.i2c_clock,"aw"
	.align	2
	.type	i2c_clock, @object
	.size	i2c_clock, 36
i2c_clock:
	.word	.LC13
	.word	1
	.word	__compound_literal.20
	.zero	4
	.word	0
	.word	0
	.word	clock_i2c_div_get
	.zero	4
	.word	clock_i2c_gating_status
	.section	.data.leaf_mcu_bclk,"aw"
	.align	2
	.type	leaf_mcu_bclk, @object
	.size	leaf_mcu_bclk, 36
leaf_mcu_bclk:
	.word	.LC15
	.word	1
	.word	__compound_literal.18
	.zero	4
	.word	0
	.word	0
	.zero	12
	.section	.data.leaf_mcu_fclk,"aw"
	.align	2
	.type	leaf_mcu_fclk, @object
	.size	leaf_mcu_fclk, 36
leaf_mcu_fclk:
	.word	.LC17
	.word	1
	.word	__compound_literal.16
	.zero	4
	.word	0
	.word	0
	.zero	12
	.section	.data.leaf_mcu_hclk,"aw"
	.align	2
	.type	leaf_mcu_hclk, @object
	.size	leaf_mcu_hclk, 36
leaf_mcu_hclk:
	.word	.LC16
	.word	1
	.word	__compound_literal.17
	.zero	4
	.word	0
	.word	0
	.zero	12
	.section	.data.spi_clock,"aw"
	.align	2
	.type	spi_clock, @object
	.size	spi_clock, 36
spi_clock:
	.word	.LC12
	.word	1
	.word	__compound_literal.21
	.zero	4
	.word	0
	.word	0
	.word	clock_spi_div_get
	.zero	4
	.word	clock_spi_gating_status
	.section	.rodata.clock_leaves,"a"
	.align	2
	.set	.LANCHOR0,. + 0
	.type	clock_leaves, @object
	.size	clock_leaves, 28
clock_leaves:
	.word	flash_clock
	.word	i2c_clock
	.word	spi_clock
	.word	clock_uart
	.word	leaf_mcu_fclk
	.word	leaf_mcu_hclk
	.word	leaf_mcu_bclk
	.section	.sbss.__compound_literal.6,"aw",@nobits
	.align	2
	.type	__compound_literal.6, @object
	.size	__compound_literal.6, 4
__compound_literal.6:
	.zero	4
	.section	.sbss.__compound_literal.7,"aw",@nobits
	.align	2
	.type	__compound_literal.7, @object
	.size	__compound_literal.7, 4
__compound_literal.7:
	.zero	4
	.section	.sbss._fsymc_level_hosal,"aw",@nobits
	.align	2
	.type	_fsymc_level_hosal, @object
	.size	_fsymc_level_hosal, 4
_fsymc_level_hosal:
	.zero	4
	.section	.sdata.__compound_literal.10,"aw"
	.align	2
	.type	__compound_literal.10, @object
	.size	__compound_literal.10, 8
__compound_literal.10:
	.word	clock_PLL
	.word	0
	.section	.sdata.__compound_literal.11,"aw"
	.align	2
	.type	__compound_literal.11, @object
	.size	__compound_literal.11, 8
__compound_literal.11:
	.word	clock_PLL
	.word	0
	.section	.sdata.__compound_literal.12,"aw"
	.align	2
	.type	__compound_literal.12, @object
	.size	__compound_literal.12, 8
__compound_literal.12:
	.word	clock_PLL
	.word	0
	.section	.sdata.__compound_literal.13,"aw"
	.align	2
	.type	__compound_literal.13, @object
	.size	__compound_literal.13, 8
__compound_literal.13:
	.word	clock_PLL
	.word	0
	.section	.sdata.__compound_literal.14,"aw"
	.align	2
	.type	__compound_literal.14, @object
	.size	__compound_literal.14, 8
__compound_literal.14:
	.word	clock_PLL
	.word	0
	.section	.sdata.__compound_literal.16,"aw"
	.align	2
	.type	__compound_literal.16, @object
	.size	__compound_literal.16, 8
__compound_literal.16:
	.word	clock_fclk
	.word	0
	.section	.sdata.__compound_literal.17,"aw"
	.align	2
	.type	__compound_literal.17, @object
	.size	__compound_literal.17, 8
__compound_literal.17:
	.word	clock_hclk
	.word	0
	.section	.sdata.__compound_literal.18,"aw"
	.align	2
	.type	__compound_literal.18, @object
	.size	__compound_literal.18, 8
__compound_literal.18:
	.word	clock_bclk
	.word	0
	.section	.sdata.__compound_literal.20,"aw"
	.align	2
	.type	__compound_literal.20, @object
	.size	__compound_literal.20, 8
__compound_literal.20:
	.word	clock_bclk
	.word	0
	.section	.sdata.__compound_literal.21,"aw"
	.align	2
	.type	__compound_literal.21, @object
	.size	__compound_literal.21, 8
__compound_literal.21:
	.word	clock_bclk
	.word	0
	.section	.sdata.__compound_literal.3,"aw"
	.align	2
	.type	__compound_literal.3, @object
	.size	__compound_literal.3, 8
__compound_literal.3:
	.word	clock_root_clk_sel_1
	.word	0
	.section	.sdata.__compound_literal.4,"aw"
	.align	2
	.type	__compound_literal.4, @object
	.size	__compound_literal.4, 8
__compound_literal.4:
	.word	clock_root_clk_sel_1
	.word	0
	.section	.sdata.__compound_literal.5,"aw"
	.align	2
	.type	__compound_literal.5, @object
	.size	__compound_literal.5, 8
__compound_literal.5:
	.word	clock_root_clk_sel_1
	.word	0
	.section	.sdata.__compound_literal.9,"aw"
	.align	2
	.type	__compound_literal.9, @object
	.size	__compound_literal.9, 8
__compound_literal.9:
	.word	clock_PLL
	.word	0
	.section	.srodata.BLOG_HARD_DECLARE_DISABLE,"a"
	.align	2
	.type	BLOG_HARD_DECLARE_DISABLE, @object
	.size	BLOG_HARD_DECLARE_DISABLE, 4
BLOG_HARD_DECLARE_DISABLE:
	.zero	4
	.section	.static_blogcomponent_code.hosal,"a"
	.align	2
	.type	_fsymc_info_hosal, @object
	.size	_fsymc_info_hosal, 8
_fsymc_info_hosal:
	.word	_fsymc_level_hosal
	.word	.LC35
	.section	.static_blogfile_code.hosalbl_clocktree,"a"
	.align	2
	.type	_fsymf_info_hosalbl_clocktree, @object
	.size	_fsymf_info_hosalbl_clocktree, 8
_fsymf_info_hosalbl_clocktree:
	.word	_fsymf_level_hosalbl_clocktree
	.word	.LC34
	.text
.Letext0:
	.file 2 "/mnt/d/GitHub/bl_iot_sdk_for_aithinker/toolchain/riscv/Linux/riscv64-unknown-elf/include/machine/_default_types.h"
	.file 3 "/mnt/d/GitHub/bl_iot_sdk_for_aithinker/toolchain/riscv/Linux/riscv64-unknown-elf/include/sys/_stdint.h"
	.file 4 "/mnt/d/GitHub/bl_iot_sdk_for_aithinker/components/stage/blog/blog_type.h"
	.file 5 "/mnt/d/GitHub/bl_iot_sdk_for_aithinker/components/stage/blog/blog.h"
	.file 6 "/mnt/d/GitHub/bl_iot_sdk_for_aithinker/toolchain/riscv/Linux/riscv64-unknown-elf/include/stdio.h"
	.file 7 "/mnt/d/GitHub/bl_iot_sdk_for_aithinker/components/platform/soc/bl602/freertos_riscv_ram/portable/GCC/RISC-V/portmacro.h"
	.file 8 "/mnt/d/GitHub/bl_iot_sdk_for_aithinker/components/platform/soc/bl602/freertos_riscv_ram/config/task.h"
	.file 9 "/mnt/d/GitHub/bl_iot_sdk_for_aithinker/components/utils/include/utils_log.h"