	.file	"bl_dma.c"
	.option nopic
	.attribute arch, "rv32i2p0_m2p0_f2p0_c2p0"
	.attribute unaligned_access, 0
	.attribute stack_align, 16
	.text
.Ltext0:
	.cfi_sections	.debug_frame
	.section	.rodata._cb_cmd.str1.4,"aMS",@progbits,1
	.align	2
.LC0:
	.string	"bl_dma.c"
	.align	2
.LC1:
	.string	"\033[32mINFO\033[0m"
	.align	2
.LC2:
	.string	"%s (%d)[%s:%4d] [DMA] [TEST] Callback is working, arg is %p\r\n\r\n"
	.section	.text._cb_cmd,"ax",@progbits
	.align	1
	.type	_cb_cmd, @function
_cb_cmd:
.LFB44:
	.file 1 "/mnt/d/GitHub/bl_iot_sdk_for_aithinker/components/platform/hosal/bl602_hal/bl_dma.c"
	.loc 1 391 1
	.cfi_startproc
.LVL0:
	.loc 1 392 5
	.loc 1 394 5
	.loc 1 395 69 is_stmt 0
	lui	a5,%hi(_fsymc_level_hosal)
	.loc 1 395 51
	lw	a4,%lo(_fsymc_level_hosal)(a5)
	.loc 1 391 1
	addi	sp,sp,-16
	.cfi_def_cfa_offset 16
	sw	s0,8(sp)
	sw	ra,12(sp)
	.cfi_offset 8, -8
	.cfi_offset 1, -4
	.loc 1 395 51
	li	a5,2
	.loc 1 391 1
	mv	s0,a0
.LVL1:
	.loc 1 395 5 is_stmt 1
	.loc 1 395 43
	.loc 1 395 48
	.loc 1 395 51 is_stmt 0
	bgtu	a4,a5,.L2
	.loc 1 395 112 discriminator 3
	lui	a4,%hi(_fsymf_level_hosalbl_dma)
	.loc 1 395 92 discriminator 3
	lw	a4,%lo(_fsymf_level_hosalbl_dma)(a4)
	bgtu	a4,a5,.L2
	.loc 1 395 144 is_stmt 1 discriminator 5
	.loc 1 395 255 is_stmt 0 discriminator 5
	call	xPortIsInsideInterrupt
.LVL2:
	.loc 1 395 144 discriminator 5
	beq	a0,zero,.L3
	.loc 1 395 284 discriminator 7
	call	xTaskGetTickCountFromISR
.LVL3:
.L6:
	.loc 1 395 315 discriminator 8
	mv	a2,a0
	.loc 1 395 144 discriminator 8
	lui	a3,%hi(.LC0)
	lui	a1,%hi(.LC1)
	lui	a0,%hi(.LC2)
	mv	a5,s0
	li	a4,395
	addi	a3,a3,%lo(.LC0)
	addi	a1,a1,%lo(.LC1)
	addi	a0,a0,%lo(.LC2)
	call	bl_printk
.LVL4:
.L2:
	.loc 1 395 370 is_stmt 1 discriminator 11
	.loc 1 395 381 discriminator 11
	.loc 1 396 5 discriminator 11
	.loc 1 397 1 is_stmt 0 discriminator 11
	lw	ra,12(sp)
	.cfi_remember_state
	.cfi_restore 1
	.loc 1 396 16 discriminator 11
	sw	zero,8(s0)
	.loc 1 397 1 discriminator 11
	lw	s0,8(sp)
	.cfi_restore 8
.LVL5:
	addi	sp,sp,16
	.cfi_def_cfa_offset 0
	jr	ra
.LVL6:
.L3:
	.cfi_restore_state
	.loc 1 395 315 discriminator 8
	call	xTaskGetTickCount
.LVL7:
	j	.L6
	.cfi_endproc
.LFE44:
	.size	_cb_cmd, .-_cb_cmd
	.section	.text.bl_dma_int_process,"ax",@progbits
	.align	1
	.type	bl_dma_int_process, @function
bl_dma_int_process:
.LFB38:
	.loc 1 205 1 is_stmt 1
	.cfi_startproc
	.loc 1 206 5
	.loc 1 207 5
	.loc 1 208 5
	.loc 1 209 5
	.loc 1 210 5
	.loc 1 211 5
	.loc 1 212 5
.LVL8:
	.loc 1 213 5
	.loc 1 215 5
	.loc 1 205 1 is_stmt 0
	addi	sp,sp,-64
	.cfi_def_cfa_offset 64
	sw	s2,48(sp)
	sw	s3,44(sp)
	sw	s6,32(sp)
	sw	s8,24(sp)
	sw	ra,60(sp)
	sw	s0,56(sp)
	sw	s1,52(sp)
	sw	s4,40(sp)
	sw	s5,36(sp)
	sw	s7,28(sp)
	.cfi_offset 18, -16
	.cfi_offset 19, -20
	.cfi_offset 22, -32
	.cfi_offset 24, -40
	.cfi_offset 1, -4
	.cfi_offset 8, -8
	.cfi_offset 9, -12
	.cfi_offset 20, -24
	.cfi_offset 21, -28
	.cfi_offset 23, -36
	.loc 1 215 12
	li	a5,1073790976
	.loc 1 217 5
	addi	a1,sp,12
	li	a0,31
	.loc 1 215 12
	lw	s0,4(a5)
.LVL9:
	.loc 1 216 5 is_stmt 1
	.loc 1 218 13 is_stmt 0
	li	s2,0
	.loc 1 216 16
	lw	s7,12(a5)
.LVL10:
	.loc 1 217 5 is_stmt 1
	.loc 1 219 78 is_stmt 0
	li	s8,1
	.loc 1 217 5
	call	bl_irq_ctx_get
.LVL11:
	.loc 1 218 5 is_stmt 1
	.loc 1 218 18
	.loc 1 225 24 is_stmt 0
	li	s3,1073790976
	.loc 1 218 5
	li	s6,4
.LVL12:
.L18:
	.loc 1 219 9 is_stmt 1
	.loc 1 219 78 is_stmt 0
	sll	a5,s8,s2
	.loc 1 219 73
	and	s5,a5,s0
.LVL13:
	.loc 1 220 9 is_stmt 1
	.loc 1 220 81 is_stmt 0
	and	s4,a5,s7
.LVL14:
	.loc 1 222 9 is_stmt 1
	.loc 1 222 11 is_stmt 0
	bne	s5,zero,.L8
	.loc 1 222 27 discriminator 1
	beq	s4,zero,.L9
.L11:
.LVL15:
	.loc 1 234 17 is_stmt 1
	.loc 1 234 24 is_stmt 0
	lw	s0,16(s3)
.LVL16:
	.loc 1 235 17 is_stmt 1
	.loc 1 236 17
	.loc 1 237 17
	.loc 1 237 24 is_stmt 0
	or	s0,a5,s0
.LVL17:
	.loc 1 238 17 is_stmt 1
	.loc 1 238 72 is_stmt 0
	sw	s0,16(s3)
.L10:
	.loc 1 241 13 is_stmt 1
	.loc 1 241 64 is_stmt 0
	lw	a5,12(sp)
	.loc 1 241 23
	lw	a5,0(a5)
	lw	s1,4(a5)
.LVL18:
.L12:
	.loc 1 241 136 is_stmt 1 discriminator 1
	.loc 1 241 164 is_stmt 0 discriminator 1
	lw	a5,12(sp)
	.loc 1 241 13 discriminator 1
	lw	a5,0(a5)
	bne	s1,a5,.L17
.LVL19:
.L9:
	.loc 1 218 35 is_stmt 1 discriminator 2
	.loc 1 218 37 is_stmt 0 discriminator 2
	addi	s2,s2,1
.LVL20:
	.loc 1 218 18 is_stmt 1 discriminator 2
	.loc 1 218 5 is_stmt 0 discriminator 2
	bne	s2,s6,.L18
	.loc 1 258 1
	lw	ra,60(sp)
	.cfi_remember_state
	.cfi_restore 1
	lw	s0,56(sp)
	.cfi_restore 8
.LVL21:
	lw	s1,52(sp)
	.cfi_restore 9
	lw	s2,48(sp)
	.cfi_restore 18
.LVL22:
	lw	s3,44(sp)
	.cfi_restore 19
	lw	s4,40(sp)
	.cfi_restore 20
.LVL23:
	lw	s5,36(sp)
	.cfi_restore 21
.LVL24:
	lw	s6,32(sp)
	.cfi_restore 22
	lw	s7,28(sp)
	.cfi_restore 23
.LVL25:
	lw	s8,24(sp)
	.cfi_restore 24
	addi	sp,sp,64
	.cfi_def_cfa_offset 0
	jr	ra
.LVL26:
.L8:
	.cfi_restore_state
	.loc 1 223 13 is_stmt 1
	.loc 1 225 17
	.loc 1 225 24 is_stmt 0
	lw	s0,8(s3)
.LVL27:
	.loc 1 226 17 is_stmt 1
	.loc 1 227 17
	.loc 1 228 17
	.loc 1 228 24 is_stmt 0
	or	s0,a5,s0
.LVL28:
	.loc 1 229 17 is_stmt 1
	.loc 1 229 71 is_stmt 0
	sw	s0,8(s3)
	.loc 1 232 13 is_stmt 1
	.loc 1 232 16 is_stmt 0
	beq	s4,zero,.L10
	j	.L11
.LVL29:
.L17:
	.loc 1 242 17 is_stmt 1
	.loc 1 242 20 is_stmt 0
	lw	a5,8(s1)
	bne	a5,s2,.L14
	.loc 1 243 21 is_stmt 1
	.loc 1 243 29 is_stmt 0
	lw	a5,12(s1)
	.loc 1 243 24
	beq	a5,zero,.L15
	.loc 1 243 49 discriminator 1
	beq	s5,zero,.L15
	.loc 1 244 25 is_stmt 1
.LVL30:
	.loc 1 245 25
	jalr	a5
.LVL31:
.L15:
	.loc 1 248 21
	.loc 1 248 29 is_stmt 0
	lw	a5,16(s1)
	.loc 1 248 24
	beq	a5,zero,.L14
	.loc 1 248 53 discriminator 1
	beq	s4,zero,.L14
	.loc 1 249 25 is_stmt 1
.LVL32:
	.loc 1 250 25
	jalr	a5
.LVL33:
.L14:
	.loc 1 241 177 discriminator 2
	.loc 1 241 182 is_stmt 0 discriminator 2
	lw	s1,4(s1)
.LVL34:
	j	.L12
	.cfi_endproc
.LFE38:
	.size	bl_dma_int_process, .-bl_dma_int_process
	.section	.text.bl_dma_int_clear,"ax",@progbits
	.align	1
	.globl	bl_dma_int_clear
	.type	bl_dma_int_clear, @function
bl_dma_int_clear:
.LFB30:
	.loc 1 46 1 is_stmt 1
	.cfi_startproc
.LVL35:
	.loc 1 47 5
	.loc 1 48 5
	.loc 1 50 5
	.loc 1 52 5
	.loc 1 52 12 is_stmt 0
	li	a3,1073790976
	lw	a4,4(a3)
.LVL36:
	.loc 1 53 5 is_stmt 1
	.loc 1 53 68 is_stmt 0
	li	a5,1
	sll	a0,a5,a0
.LVL37:
	.loc 1 53 63
	and	a4,a0,a4
.LVL38:
	andi	a4,a4,255
	.loc 1 53 7
	beq	a4,zero,.L37
	.loc 1 55 9 is_stmt 1
	.loc 1 55 16 is_stmt 0
	lw	a5,8(a3)
.LVL39:
	.loc 1 56 9 is_stmt 1
	.loc 1 57 9
	.loc 1 58 9
	.loc 1 58 16 is_stmt 0
	or	a5,a0,a5
.LVL40:
	.loc 1 59 9 is_stmt 1
	.loc 1 59 47 is_stmt 0
	sw	a5,8(a3)
.LVL41:
.L37:
	.loc 1 62 5 is_stmt 1
	.loc 1 62 12 is_stmt 0
	li	a4,1073790976
	lw	a5,12(a4)
.LVL42:
	.loc 1 63 5 is_stmt 1
	.loc 1 63 63 is_stmt 0
	and	a5,a0,a5
.LVL43:
	andi	a5,a5,255
	.loc 1 63 7
	beq	a5,zero,.L38
	.loc 1 65 9 is_stmt 1
	.loc 1 65 16 is_stmt 0
	lw	a5,16(a4)
.LVL44:
	.loc 1 66 9 is_stmt 1
	.loc 1 67 9
	.loc 1 68 9
	.loc 1 68 16 is_stmt 0
	or	a0,a0,a5
.LVL45:
	.loc 1 69 9 is_stmt 1
	.loc 1 69 48 is_stmt 0
	sw	a0,16(a4)
.LVL46:
.L38:
	.loc 1 72 5 is_stmt 1
	.loc 1 73 1 is_stmt 0
	li	a0,0
	ret
	.cfi_endproc
.LFE30:
	.size	bl_dma_int_clear, .-bl_dma_int_clear
	.section	.rodata.bl_dma_IRQHandler.str1.4,"aMS",@progbits,1
	.align	2
.LC3:
	.string	"%s (%d)[%s:%4d] [INT] ASSERT here for empty chain\r\n\r\n"
	.section	.text.bl_dma_IRQHandler,"ax",@progbits
	.align	1
	.globl	bl_dma_IRQHandler
	.type	bl_dma_IRQHandler, @function
bl_dma_IRQHandler:
.LFB35:
	.loc 1 127 1 is_stmt 1
	.cfi_startproc
	.loc 1 128 5
	.loc 1 131 5
	.loc 1 127 1 is_stmt 0
	addi	sp,sp,-16
	.cfi_def_cfa_offset 16
	.loc 1 131 5
	li	a0,0
	.loc 1 127 1
	sw	s0,8(sp)
	sw	ra,12(sp)
	.cfi_offset 8, -8
	.cfi_offset 1, -4
	.loc 1 132 34
	lui	s0,%hi(.LANCHOR0)
	.loc 1 131 5
	call	bl_dma_int_clear
.LVL47:
	.loc 1 132 5 is_stmt 1
	.loc 1 132 34 is_stmt 0
	addi	a0,s0,%lo(.LANCHOR0)
	call	utils_list_pop_front
.LVL48:
	.loc 1 133 5 is_stmt 1
	.loc 1 133 8 is_stmt 0
	bne	a0,zero,.L46
.LBB24:
.LBB25:
	.loc 1 134 9 is_stmt 1
	.loc 1 134 47
	.loc 1 134 52
	.loc 1 134 73 is_stmt 0
	lui	a5,%hi(_fsymc_level_hosal)
	.loc 1 134 55
	lw	a4,%lo(_fsymc_level_hosal)(a5)
	li	a5,2
	bgtu	a4,a5,.L47
	.loc 1 134 116
	lui	a4,%hi(_fsymf_level_hosalbl_dma)
	.loc 1 134 96
	lw	a4,%lo(_fsymf_level_hosalbl_dma)(a4)
	bgtu	a4,a5,.L47
	.loc 1 134 148 is_stmt 1
	.loc 1 134 249 is_stmt 0
	call	xPortIsInsideInterrupt
.LVL49:
	.loc 1 134 148
	beq	a0,zero,.L48
	.loc 1 134 278
	call	xTaskGetTickCountFromISR
.LVL50:
.L57:
	.loc 1 134 309
	mv	a2,a0
	.loc 1 134 148
	lui	a3,%hi(.LC0)
	lui	a1,%hi(.LC1)
	lui	a0,%hi(.LC3)
	li	a4,134
	addi	a3,a3,%lo(.LC0)
	addi	a1,a1,%lo(.LC1)
	addi	a0,a0,%lo(.LC3)
	call	bl_printk
.LVL51:
.L47:
.L55:
	.loc 1 134 359 is_stmt 1
	.loc 1 134 370
	.loc 1 135 9
	.loc 1 136 9
	.loc 1 135 15
	j	.L55
.L48:
	.loc 1 134 309 is_stmt 0
	call	xTaskGetTickCount
.LVL52:
	j	.L57
.LVL53:
.L46:
.LBE25:
.LBE24:
	.loc 1 138 5 is_stmt 1
	.loc 1 138 14 is_stmt 0
	lw	a5,4(a0)
	.loc 1 138 8
	beq	a5,zero,.L50
	.loc 1 139 9 is_stmt 1
	lw	a0,8(a0)
.LVL54:
	jalr	a5
.LVL55:
.L50:
	.loc 1 143 5
.LBB26:
.LBB27:
	.file 2 "/mnt/d/GitHub/bl_iot_sdk_for_aithinker/components/utils/include/utils_list.h"
	.loc 2 226 5
	.loc 2 226 16 is_stmt 0
	lw	a1,%lo(.LANCHOR0)(s0)
.LVL56:
.LBE27:
.LBE26:
	.loc 1 144 5 is_stmt 1
	.loc 1 144 8 is_stmt 0
	beq	a1,zero,.L45
	.loc 1 145 9 is_stmt 1
.LVL57:
.LBB28:
.LBB29:
	.loc 1 112 5
	li	a0,0
	addi	a1,a1,12
.LVL58:
	call	DMA_LLI_Update
.LVL59:
	.loc 1 113 5
.LBE29:
.LBE28:
	.loc 1 147 1 is_stmt 0
	lw	s0,8(sp)
	.cfi_remember_state
	.cfi_restore 8
	lw	ra,12(sp)
	.cfi_restore 1
.LBB32:
.LBB30:
	.loc 1 113 5
	li	a0,0
.LBE30:
.LBE32:
	.loc 1 147 1
	addi	sp,sp,16
	.cfi_def_cfa_offset 0
.LBB33:
.LBB31:
	.loc 1 113 5
	tail	DMA_Channel_Enable
.LVL60:
.L45:
	.cfi_restore_state
.LBE31:
.LBE33:
	.loc 1 147 1
	lw	ra,12(sp)
	.cfi_restore 1
	lw	s0,8(sp)
	.cfi_restore 8
	addi	sp,sp,16
	.cfi_def_cfa_offset 0
	jr	ra
	.cfi_endproc
.LFE35:
	.size	bl_dma_IRQHandler, .-bl_dma_IRQHandler
	.section	.text.bl_dma_update_memsrc,"ax",@progbits
	.align	1
	.globl	bl_dma_update_memsrc
	.type	bl_dma_update_memsrc, @function
bl_dma_update_memsrc:
.LFB31:
	.loc 1 76 1 is_stmt 1
	.cfi_startproc
.LVL61:
	.loc 1 77 5
	.loc 1 79 5
	.loc 1 79 14 is_stmt 0
	li	a4,1073790976
	.loc 1 79 58
	slli	a0,a0,8
.LVL62:
	.loc 1 82 5 is_stmt 1
	.loc 1 85 5
	.loc 1 79 14 is_stmt 0
	addi	a3,a4,256
	add	a3,a0,a3
	.loc 1 87 44
	addi	a4,a4,268
	add	a0,a0,a4
.LVL63:
	.loc 1 85 43
	sw	a1,0(a3)
	.loc 1 87 5 is_stmt 1
	.loc 1 87 12 is_stmt 0
	lw	a5,0(a0)
.LVL64:
	.loc 1 88 5 is_stmt 1
	.loc 1 88 25 is_stmt 0
	li	a4,-4096
	and	a5,a5,a4
.LVL65:
	.loc 1 88 12
	or	a5,a5,a2
.LVL66:
	.loc 1 89 5 is_stmt 1
	.loc 1 89 43 is_stmt 0
	sw	a5,0(a0)
	.loc 1 90 1
	ret
	.cfi_endproc
.LFE31:
	.size	bl_dma_update_memsrc, .-bl_dma_update_memsrc
	.section	.text.bl_dma_update_memdst,"ax",@progbits
	.align	1
	.globl	bl_dma_update_memdst
	.type	bl_dma_update_memdst, @function
bl_dma_update_memdst:
.LFB32:
	.loc 1 93 1 is_stmt 1
	.cfi_startproc
.LVL67:
	.loc 1 94 5
	.loc 1 96 5
	.loc 1 102 35 is_stmt 0
	li	a4,1073790976
	.loc 1 96 58
	slli	a0,a0,8
.LVL68:
	.loc 1 99 5 is_stmt 1
	.loc 1 102 5
	.loc 1 102 35 is_stmt 0
	addi	a3,a4,260
	add	a3,a0,a3
	.loc 1 104 44
	addi	a4,a4,268
	add	a0,a0,a4
.LVL69:
	.loc 1 102 43
	sw	a1,0(a3)
	.loc 1 104 5 is_stmt 1
	.loc 1 104 12 is_stmt 0
	lw	a5,0(a0)
.LVL70:
	.loc 1 105 5 is_stmt 1
	.loc 1 105 25 is_stmt 0
	li	a4,-4096
	and	a5,a5,a4
.LVL71:
	.loc 1 105 12
	or	a5,a5,a2
.LVL72:
	.loc 1 106 5 is_stmt 1
	.loc 1 106 43 is_stmt 0
	sw	a5,0(a0)
	.loc 1 107 1
	ret
	.cfi_endproc
.LFE32:
	.size	bl_dma_update_memdst, .-bl_dma_update_memdst
	.section	.text.bl_dma_copy,"ax",@progbits
	.align	1
	.globl	bl_dma_copy
	.type	bl_dma_copy, @function
bl_dma_copy:
.LFB34:
	.loc 1 117 1 is_stmt 1
	.cfi_startproc
.LVL73:
	.loc 1 118 5
	.loc 1 117 1 is_stmt 0
	addi	sp,sp,-16
	.cfi_def_cfa_offset 16
	sw	s0,8(sp)
	sw	s1,4(sp)
	sw	ra,12(sp)
	.cfi_offset 8, -8
	.cfi_offset 9, -12
	.cfi_offset 1, -4
	.loc 1 117 1
	mv	s1,a0
	.loc 1 118 5
	call	vTaskEnterCritical
.LVL74:
	.loc 1 119 5 is_stmt 1
.LBB38:
.LBB39:
	.loc 2 201 5
	.loc 2 201 24 is_stmt 0
	lui	a5,%hi(.LANCHOR0)
.LBE39:
.LBE38:
	.loc 1 119 8
	lw	a4,%lo(.LANCHOR0)(a5)
	mv	s0,a5
	bne	a4,zero,.L61
	.loc 1 120 9 is_stmt 1
.LVL75:
.LBB40:
.LBB41:
	.loc 1 112 5
	li	a0,0
	addi	a1,s1,12
	call	DMA_LLI_Update
.LVL76:
	.loc 1 113 5
	li	a0,0
	call	DMA_Channel_Enable
.LVL77:
.L61:
.LBE41:
.LBE40:
	.loc 1 122 5
	mv	a1,s1
	addi	a0,s0,%lo(.LANCHOR0)
	call	utils_list_push_back
.LVL78:
	.loc 1 123 5
	.loc 1 124 1 is_stmt 0
	lw	s0,8(sp)
	.cfi_restore 8
	lw	ra,12(sp)
	.cfi_restore 1
	lw	s1,4(sp)
	.cfi_restore 9
.LVL79:
	addi	sp,sp,16
	.cfi_def_cfa_offset 0
	.loc 1 123 5
	tail	vTaskExitCritical
.LVL80:
	.cfi_endproc
.LFE34:
	.size	bl_dma_copy, .-bl_dma_copy
	.section	.text.bl_dma_mem_malloc,"ax",@progbits
	.align	1
	.globl	bl_dma_mem_malloc
	.type	bl_dma_mem_malloc, @function
bl_dma_mem_malloc:
.LFB36:
	.loc 1 150 1 is_stmt 1
	.cfi_startproc
.LVL81:
	.loc 1 151 5
	.loc 1 152 5
	.loc 1 153 5
	.loc 1 154 5
	.loc 1 155 5
	.loc 1 157 5
	.loc 1 158 5
	.loc 1 160 5
	.loc 1 150 1 is_stmt 0
	addi	sp,sp,-64
	.cfi_def_cfa_offset 64
	sw	ra,60(sp)
	sw	s1,52(sp)
	sw	s2,48(sp)
	sw	s0,56(sp)
	sw	s3,44(sp)
	sw	s4,40(sp)
	sw	s5,36(sp)
	sw	s6,32(sp)
	sw	s7,28(sp)
	sw	s8,24(sp)
	.cfi_offset 1, -4
	.cfi_offset 9, -12
	.cfi_offset 18, -16
	.cfi_offset 8, -8
	.cfi_offset 19, -20
	.cfi_offset 20, -24
	.cfi_offset 21, -28
	.cfi_offset 22, -32
	.cfi_offset 23, -36
	.cfi_offset 24, -40
	.loc 1 150 1
	mv	s2,a0
	.loc 1 160 21
	call	xPortGetFreeHeapSize
.LVL82:
	.loc 1 161 5 is_stmt 1
	.loc 1 160 44 is_stmt 0
	srli	a2,a0,10
	.loc 1 160 19
	addi	a2,a2,1
.LVL83:
	.loc 1 161 46
	slli	a2,a2,2
.LVL84:
	.loc 1 161 19
	mv	a0,a2
.LVL85:
	sw	a2,12(sp)
	call	pvPortMalloc
.LVL86:
	.loc 1 162 5
	lw	a2,12(sp)
	.loc 1 161 19
	mv	s1,a0
.LVL87:
	.loc 1 162 5 is_stmt 1
	li	a1,0
	call	memset
.LVL88:
	.loc 1 163 5
	.loc 1 163 8 is_stmt 0
	beq	s1,zero,.L63
	.loc 1 182 13
	li	s4,268435456
	mv	s8,s1
	.loc 1 168 12
	li	s3,0
	.loc 1 171 30
	li	s7,1023
	.loc 1 182 13
	addi	s4,s4,-1
	.loc 1 182 12
	li	s6,-33636352
	li	s5,229376
.L66:
.LVL89:
	.loc 1 169 5 is_stmt 1
	.loc 1 170 9
	.loc 1 170 21 is_stmt 0
	call	xPortGetFreeHeapSize
.LVL90:
	.loc 1 171 9 is_stmt 1
	.loc 1 171 12 is_stmt 0
	bltu	a0,s2,.L70
	.loc 1 171 30 discriminator 1
	bleu	a0,s7,.L70
	.loc 1 176 9 is_stmt 1
	.loc 1 176 15 is_stmt 0
	li	a0,1024
.LVL91:
	call	pvPortMalloc
.LVL92:
	mv	s0,a0
.LVL93:
	.loc 1 177 9 is_stmt 1
	.loc 1 177 12 is_stmt 0
	beq	a0,zero,.L65
	.loc 1 181 9 is_stmt 1
	.loc 1 182 13 is_stmt 0
	and	s0,a0,s4
.LVL94:
	.loc 1 181 31
	sw	a0,0(s8)
	.loc 1 182 12
	add	s0,s0,s6
	.loc 1 181 27
	addi	s3,s3,1
.LVL95:
	.loc 1 182 9 is_stmt 1
	.loc 1 182 12 is_stmt 0
	addi	s8,s8,4
	bgtu	s0,s5,.L66
	.loc 1 183 13 is_stmt 1
	.loc 1 184 17
	.loc 1 184 23 is_stmt 0
	mv	a0,s2
.LVL96:
	call	pvPortMalloc
.LVL97:
	mv	s0,a0
.LVL98:
	.loc 1 185 17 is_stmt 1
.L65:
	.loc 1 191 5
	.loc 1 191 16 is_stmt 0
	li	s2,0
.LVL99:
.L67:
	.loc 1 191 21 is_stmt 1 discriminator 1
	.loc 1 191 5 is_stmt 0 discriminator 1
	bne	s3,s2,.L68
	.loc 1 195 5 is_stmt 1
	mv	a0,s1
	call	vPortFree
.LVL100:
	.loc 1 196 5
	.loc 1 196 12 is_stmt 0
	mv	s1,s0
.LVL101:
.L63:
	.loc 1 197 1
	lw	ra,60(sp)
	.cfi_remember_state
	.cfi_restore 1
	lw	s0,56(sp)
	.cfi_restore 8
	lw	s2,48(sp)
	.cfi_restore 18
	lw	s3,44(sp)
	.cfi_restore 19
	lw	s4,40(sp)
	.cfi_restore 20
	lw	s5,36(sp)
	.cfi_restore 21
	lw	s6,32(sp)
	.cfi_restore 22
	lw	s7,28(sp)
	.cfi_restore 23
	lw	s8,24(sp)
	.cfi_restore 24
	mv	a0,s1
	lw	s1,52(sp)
	.cfi_restore 9
	addi	sp,sp,64
	.cfi_def_cfa_offset 0
	jr	ra
.LVL102:
.L70:
	.cfi_restore_state
	.loc 1 172 17
	li	s0,0
	j	.L65
.LVL103:
.L68:
	.loc 1 192 9 is_stmt 1 discriminator 3
	.loc 1 192 42 is_stmt 0 discriminator 3
	slli	a5,s2,2
	add	a5,s1,a5
	.loc 1 192 9 discriminator 3
	lw	a0,0(a5)
	.loc 1 191 42 discriminator 3
	addi	s2,s2,1
.LVL104:
	.loc 1 192 9 discriminator 3
	call	vPortFree
.LVL105:
	.loc 1 191 37 is_stmt 1 discriminator 3
	j	.L67
	.cfi_endproc
.LFE36:
	.size	bl_dma_mem_malloc, .-bl_dma_mem_malloc
	.section	.text.bl_dma_mem_free,"ax",@progbits
	.align	1
	.globl	bl_dma_mem_free
	.type	bl_dma_mem_free, @function
bl_dma_mem_free:
.LFB37:
	.loc 1 200 1
	.cfi_startproc
.LVL106:
	.loc 1 201 5
	tail	vPortFree
.LVL107:
	.cfi_endproc
.LFE37:
	.size	bl_dma_mem_free, .-bl_dma_mem_free
	.section	.rodata.bl_dma_irq_register.str1.4,"aMS",@progbits,1
	.align	2
.LC4:
	.string	"\033[31mERROR\033[0m"
	.align	2
.LC5:
	.string	"%s (%d)[%s:%4d] not valid para \r\n\r\n"
	.align	2
.LC6:
	.string	"\033[33mWARN\033[0m"
	.align	2
.LC7:
	.string	"%s (%d)[%s:%4d] channel %d already register \r\n\r\n"
	.align	2
.LC8:
	.string	"%s (%d)[%s:%4d] malloc dma node failed. \r\n\r\n"
	.section	.text.bl_dma_irq_register,"ax",@progbits
	.align	1
	.globl	bl_dma_irq_register
	.type	bl_dma_irq_register, @function
bl_dma_irq_register:
.LFB39:
	.loc 1 261 1
	.cfi_startproc
.LVL108:
	.loc 1 262 5
	.loc 1 263 5
	.loc 1 264 5
	.loc 1 266 5
	.loc 1 261 1 is_stmt 0
	addi	sp,sp,-48
	.cfi_def_cfa_offset 48
	sw	ra,44(sp)
	sw	s0,40(sp)
	sw	s1,36(sp)
	sw	s2,32(sp)
	sw	s3,28(sp)
	sw	s4,24(sp)
	.cfi_offset 1, -4
	.cfi_offset 8, -8
	.cfi_offset 9, -12
	.cfi_offset 18, -16
	.cfi_offset 19, -20
	.cfi_offset 20, -24
	.loc 1 266 8
	li	a5,4
	bgtu	a0,a5,.L81
	mv	s2,a1
	.loc 1 266 47 discriminator 1
	bne	a1,zero,.L82
.L81:
	.loc 1 267 9 is_stmt 1 discriminator 1
	.loc 1 267 47 discriminator 1
	.loc 1 267 52 discriminator 1
	.loc 1 267 74 is_stmt 0 discriminator 1
	lui	a5,%hi(_fsymc_level_hosal)
	.loc 1 267 55 discriminator 1
	lw	a4,%lo(_fsymc_level_hosal)(a5)
	li	a5,4
	bgtu	a4,a5,.L84
	.loc 1 267 118 discriminator 3
	lui	a4,%hi(_fsymf_level_hosalbl_dma)
	.loc 1 267 97 discriminator 3
	lw	a4,%lo(_fsymf_level_hosalbl_dma)(a4)
	bgtu	a4,a5,.L84
	.loc 1 267 150 is_stmt 1 discriminator 5
	.loc 1 267 234 is_stmt 0 discriminator 5
	call	xPortIsInsideInterrupt
.LVL109:
	.loc 1 267 150 discriminator 5
	beq	a0,zero,.L86
	.loc 1 267 263 discriminator 7
	call	xTaskGetTickCountFromISR
.LVL110:
.L97:
	.loc 1 267 294 discriminator 8
	mv	a2,a0
	.loc 1 267 150 discriminator 8
	lui	a3,%hi(.LC0)
	lui	a1,%hi(.LC4)
	lui	a0,%hi(.LC5)
	li	a4,267
	addi	a3,a3,%lo(.LC0)
	addi	a1,a1,%lo(.LC4)
	addi	a0,a0,%lo(.LC5)
	call	bl_printk
.LVL111:
.L84:
	.loc 1 290 1
	lw	ra,44(sp)
	.cfi_remember_state
	.cfi_restore 1
	lw	s0,40(sp)
	.cfi_restore 8
	lw	s1,36(sp)
	.cfi_restore 9
	lw	s2,32(sp)
	.cfi_restore 18
	lw	s3,28(sp)
	.cfi_restore 19
	lw	s4,24(sp)
	.cfi_restore 20
	li	a0,-1
	addi	sp,sp,48
	.cfi_def_cfa_offset 0
	jr	ra
.L86:
	.cfi_restore_state
	.loc 1 267 294 discriminator 8
	call	xTaskGetTickCount
.LVL112:
	j	.L97
.LVL113:
.L82:
	mv	s1,a0
	.loc 1 272 5
	addi	a1,sp,12
.LVL114:
	li	a0,31
.LVL115:
	mv	s4,a2
	mv	s3,a3
	.loc 1 272 5 is_stmt 1
	call	bl_irq_ctx_get
.LVL116:
	.loc 1 273 5
	.loc 1 273 56 is_stmt 0
	lw	a5,12(sp)
	lw	a5,0(a5)
	.loc 1 273 15
	lw	s0,4(a5)
.LVL117:
.L88:
	.loc 1 273 128 is_stmt 1 discriminator 1
	.loc 1 273 5 is_stmt 0 discriminator 1
	bne	a5,s0,.L92
	.loc 1 279 5 is_stmt 1
	.loc 1 279 15 is_stmt 0
	li	a0,24
	call	pvPortMalloc
.LVL118:
	mv	s0,a0
.LVL119:
	.loc 1 280 5 is_stmt 1
	.loc 1 280 8 is_stmt 0
	bne	a0,zero,.L93
	.loc 1 281 9 is_stmt 1 discriminator 1
	.loc 1 281 47 discriminator 1
	.loc 1 281 52 discriminator 1
	.loc 1 281 74 is_stmt 0 discriminator 1
	lui	a5,%hi(_fsymc_level_hosal)
	.loc 1 281 55 discriminator 1
	lw	a4,%lo(_fsymc_level_hosal)(a5)
	li	a5,4
	bgtu	a4,a5,.L93
	.loc 1 281 118 discriminator 3
	lui	a4,%hi(_fsymf_level_hosalbl_dma)
	.loc 1 281 97 discriminator 3
	lw	a4,%lo(_fsymf_level_hosalbl_dma)(a4)
	bgtu	a4,a5,.L93
	.loc 1 281 150 is_stmt 1 discriminator 5
	.loc 1 281 243 is_stmt 0 discriminator 5
	call	xPortIsInsideInterrupt
.LVL120:
	.loc 1 281 150 discriminator 5
	beq	a0,zero,.L94
	.loc 1 281 272 discriminator 7
	call	xTaskGetTickCountFromISR
.LVL121:
.L99:
	.loc 1 281 303 discriminator 8
	mv	a2,a0
	.loc 1 281 150 discriminator 8
	lui	a3,%hi(.LC0)
	lui	a1,%hi(.LC4)
	lui	a0,%hi(.LC8)
	li	a4,281
	addi	a3,a3,%lo(.LC0)
	addi	a1,a1,%lo(.LC4)
	addi	a0,a0,%lo(.LC8)
	call	bl_printk
.LVL122:
.L93:
	.loc 1 281 353 is_stmt 1 discriminator 11
	.loc 1 281 364 discriminator 11
	.loc 1 283 5 discriminator 11
	.loc 1 287 5 is_stmt 0 discriminator 11
	lw	a5,12(sp)
	.loc 1 283 22 discriminator 11
	sw	s1,8(s0)
	.loc 1 284 5 is_stmt 1 discriminator 11
	.loc 1 284 25 is_stmt 0 discriminator 11
	sw	s2,12(s0)
	.loc 1 285 5 is_stmt 1 discriminator 11
	.loc 1 285 29 is_stmt 0 discriminator 11
	sw	s4,16(s0)
	.loc 1 286 5 is_stmt 1 discriminator 11
	.loc 1 286 18 is_stmt 0 discriminator 11
	sw	s3,20(s0)
	.loc 1 287 5 is_stmt 1 discriminator 11
	lw	a5,0(a5)
.LVL123:
.LBB42:
.LBB43:
	.loc 2 286 5 discriminator 11
	.loc 2 286 41 is_stmt 0 discriminator 11
	lw	a4,4(a5)
.LVL124:
.LBB44:
.LBB45:
	.loc 2 266 5 is_stmt 1 discriminator 11
	.loc 2 267 16 is_stmt 0 discriminator 11
	sw	a5,0(s0)
	.loc 2 266 16 discriminator 11
	sw	a4,4(s0)
	.loc 2 267 5 is_stmt 1 discriminator 11
	.loc 2 269 5 discriminator 11
	.loc 2 269 16 is_stmt 0 discriminator 11
	sw	s0,4(a5)
	.loc 2 270 5 is_stmt 1 discriminator 11
	.loc 2 270 16 is_stmt 0 discriminator 11
	sw	s0,0(a4)
.LVL125:
.LBE45:
.LBE44:
.LBE43:
.LBE42:
	.loc 1 289 5 is_stmt 1 discriminator 11
	.loc 1 289 12 is_stmt 0 discriminator 11
	j	.L84
.LVL126:
.L92:
	.loc 1 274 9 is_stmt 1
	.loc 1 274 12 is_stmt 0
	lw	a4,8(s0)
	bne	a4,s1,.L89
	.loc 1 275 13 is_stmt 1 discriminator 1
	.loc 1 275 51 discriminator 1
	.loc 1 275 56 discriminator 1
	.loc 1 275 77 is_stmt 0 discriminator 1
	lui	a5,%hi(_fsymc_level_hosal)
	.loc 1 275 59 discriminator 1
	lw	a4,%lo(_fsymc_level_hosal)(a5)
	li	a5,3
	bgtu	a4,a5,.L84
	.loc 1 275 120 discriminator 3
	lui	a4,%hi(_fsymf_level_hosalbl_dma)
	.loc 1 275 100 discriminator 3
	lw	a4,%lo(_fsymf_level_hosalbl_dma)(a4)
	bgtu	a4,a5,.L84
	.loc 1 275 152 is_stmt 1 discriminator 5
	.loc 1 275 248 is_stmt 0 discriminator 5
	call	xPortIsInsideInterrupt
.LVL127:
	.loc 1 275 152 discriminator 5
	beq	a0,zero,.L90
	.loc 1 275 277 discriminator 7
	call	xTaskGetTickCountFromISR
.LVL128:
.L98:
	.loc 1 275 152 discriminator 8
	lw	a5,8(s0)
	.loc 1 275 308 discriminator 8
	mv	a2,a0
	.loc 1 275 152 discriminator 8
	lui	a3,%hi(.LC0)
	lui	a1,%hi(.LC6)
	lui	a0,%hi(.LC7)
	li	a4,275
	addi	a3,a3,%lo(.LC0)
	addi	a1,a1,%lo(.LC6)
	addi	a0,a0,%lo(.LC7)
	call	bl_printk
.LVL129:
	j	.L84
.L90:
	.loc 1 275 308 discriminator 8
	call	xTaskGetTickCount
.LVL130:
	j	.L98
.L89:
	.loc 1 273 169 is_stmt 1 discriminator 2
	.loc 1 273 174 is_stmt 0 discriminator 2
	lw	s0,4(s0)
.LVL131:
	j	.L88
.LVL132:
.L94:
	.loc 1 281 303 discriminator 8
	call	xTaskGetTickCount
.LVL133:
	j	.L99
	.cfi_endproc
.LFE39:
	.size	bl_dma_irq_register, .-bl_dma_irq_register
	.section	.rodata.bl_dma_find_node_by_channel.str1.4,"aMS",@progbits,1
	.align	2
.LC9:
	.string	"%s (%d)[%s:%4d] not find channel register. \r\n\r\n"
	.section	.text.bl_dma_find_node_by_channel,"ax",@progbits
	.align	1
	.globl	bl_dma_find_node_by_channel
	.type	bl_dma_find_node_by_channel, @function
bl_dma_find_node_by_channel:
.LFB40:
	.loc 1 293 1 is_stmt 1
	.cfi_startproc
.LVL134:
	.loc 1 294 5
	.loc 1 295 5
	.loc 1 297 5
	.loc 1 293 1 is_stmt 0
	addi	sp,sp,-32
	.cfi_def_cfa_offset 32
	sw	s0,24(sp)
	.loc 1 297 5
	addi	a1,sp,12
	.cfi_offset 8, -8
	.loc 1 293 1
	mv	s0,a0
	.loc 1 297 5
	li	a0,31
.LVL135:
	.loc 1 293 1
	sw	ra,28(sp)
	.cfi_offset 1, -4
	.loc 1 297 5
	call	bl_irq_ctx_get
.LVL136:
	.loc 1 298 5 is_stmt 1
	.loc 1 298 56 is_stmt 0
	lw	a5,12(sp)
	lw	a5,0(a5)
	.loc 1 298 15
	lw	a0,4(a5)
.LVL137:
.L101:
	.loc 1 298 128 is_stmt 1 discriminator 1
	.loc 1 298 5 is_stmt 0 discriminator 1
	bne	a5,a0,.L103
	.loc 1 304 5 is_stmt 1
.LVL138:
.LBB48:
.LBB49:
	.loc 1 305 9
	.loc 1 305 47
	.loc 1 305 52
	.loc 1 305 74 is_stmt 0
	lui	a5,%hi(_fsymc_level_hosal)
	.loc 1 305 55
	lw	a4,%lo(_fsymc_level_hosal)(a5)
	li	a5,4
	bgtu	a4,a5,.L112
	.loc 1 305 118
	lui	a4,%hi(_fsymf_level_hosalbl_dma)
	.loc 1 305 97
	lw	a4,%lo(_fsymf_level_hosalbl_dma)(a4)
	li	a0,0
.LVL139:
	bgtu	a4,a5,.L100
	.loc 1 305 150 is_stmt 1
	.loc 1 305 246 is_stmt 0
	call	xPortIsInsideInterrupt
.LVL140:
	.loc 1 305 150
	beq	a0,zero,.L105
	.loc 1 305 275
	call	xTaskGetTickCountFromISR
.LVL141:
.L111:
	.loc 1 305 306
	mv	a2,a0
	.loc 1 305 150
	lui	a3,%hi(.LC0)
	lui	a1,%hi(.LC4)
	lui	a0,%hi(.LC9)
	li	a4,305
	addi	a3,a3,%lo(.LC0)
	addi	a1,a1,%lo(.LC4)
	addi	a0,a0,%lo(.LC9)
	call	bl_printk
.LVL142:
.L112:
	li	a0,0
.LVL143:
.L100:
.LBE49:
.LBE48:
	.loc 1 311 1
	lw	ra,28(sp)
	.cfi_remember_state
	.cfi_restore 1
	lw	s0,24(sp)
	.cfi_restore 8
.LVL144:
	addi	sp,sp,32
	.cfi_def_cfa_offset 0
	jr	ra
.LVL145:
.L103:
	.cfi_restore_state
	.loc 1 299 9 is_stmt 1
	.loc 1 299 12 is_stmt 0
	lw	a4,8(a0)
	beq	a4,s0,.L100
	.loc 1 298 169 is_stmt 1 discriminator 2
	.loc 1 298 174 is_stmt 0 discriminator 2
	lw	a0,4(a0)
.LVL146:
	j	.L101
.LVL147:
.L105:
.LBB51:
.LBB50:
	.loc 1 305 306
	call	xTaskGetTickCount
.LVL148:
	j	.L111
.LBE50:
.LBE51:
	.cfi_endproc
.LFE40:
	.size	bl_dma_find_node_by_channel, .-bl_dma_find_node_by_channel
	.section	.text.bl_dma_find_ctx_by_channel,"ax",@progbits
	.align	1
	.globl	bl_dma_find_ctx_by_channel
	.type	bl_dma_find_ctx_by_channel, @function
bl_dma_find_ctx_by_channel:
.LFB41:
	.loc 1 314 1 is_stmt 1
	.cfi_startproc
.LVL149:
	.loc 1 315 5
	.loc 1 316 5
	.loc 1 318 5
	.loc 1 314 1 is_stmt 0
	addi	sp,sp,-16
	.cfi_def_cfa_offset 16
	sw	ra,12(sp)
	.cfi_offset 1, -4
	.loc 1 318 12
	call	bl_dma_find_node_by_channel
.LVL150:
	.loc 1 319 5 is_stmt 1
	.loc 1 321 5
	.loc 1 322 1 is_stmt 0
	lw	ra,12(sp)
	.cfi_restore 1
	lw	a0,20(a0)
.LVL151:
	addi	sp,sp,16
	.cfi_def_cfa_offset 0
	jr	ra
	.cfi_endproc
.LFE41:
	.size	bl_dma_find_ctx_by_channel, .-bl_dma_find_ctx_by_channel
	.section	.rodata.bl_dma_irq_unregister.str1.4,"aMS",@progbits,1
	.align	2
.LC10:
	.string	"%s (%d)[%s:%4d] not find node \r\n\r\n"
	.section	.text.bl_dma_irq_unregister,"ax",@progbits
	.align	1
	.globl	bl_dma_irq_unregister
	.type	bl_dma_irq_unregister, @function
bl_dma_irq_unregister:
.LFB42:
	.loc 1 325 1 is_stmt 1
	.cfi_startproc
.LVL152:
	.loc 1 326 5
	.loc 1 327 5
	.loc 1 329 5
	.loc 1 325 1 is_stmt 0
	addi	sp,sp,-32
	.cfi_def_cfa_offset 32
	sw	ra,28(sp)
	sw	s0,24(sp)
	sw	s1,20(sp)
	.cfi_offset 1, -4
	.cfi_offset 8, -8
	.cfi_offset 9, -12
	.loc 1 329 8
	li	a5,4
	bleu	a0,a5,.L116
	.loc 1 330 9 is_stmt 1 discriminator 1
	.loc 1 330 47 discriminator 1
	.loc 1 330 52 discriminator 1
	.loc 1 330 74 is_stmt 0 discriminator 1
	lui	a4,%hi(_fsymc_level_hosal)
	.loc 1 330 55 discriminator 1
	lw	a4,%lo(_fsymc_level_hosal)(a4)
	bleu	a4,a5,.L117
.LVL153:
.L133:
	.loc 1 346 16 discriminator 10
	li	a0,-1
.L115:
	.loc 1 350 1
	lw	ra,28(sp)
	.cfi_remember_state
	.cfi_restore 1
	lw	s0,24(sp)
	.cfi_restore 8
	lw	s1,20(sp)
	.cfi_restore 9
	addi	sp,sp,32
	.cfi_def_cfa_offset 0
	jr	ra
.LVL154:
.L117:
	.cfi_restore_state
	.loc 1 330 118 discriminator 3
	lui	a4,%hi(_fsymf_level_hosalbl_dma)
	.loc 1 330 97 discriminator 3
	lw	a4,%lo(_fsymf_level_hosalbl_dma)(a4)
	bgtu	a4,a5,.L133
	.loc 1 330 150 is_stmt 1 discriminator 5
	.loc 1 330 234 is_stmt 0 discriminator 5
	call	xPortIsInsideInterrupt
.LVL155:
	.loc 1 330 150 discriminator 5
	beq	a0,zero,.L120
	.loc 1 330 263 discriminator 7
	call	xTaskGetTickCountFromISR
.LVL156:
.L131:
	.loc 1 330 294 discriminator 8
	mv	a2,a0
	.loc 1 330 150 discriminator 8
	lui	a3,%hi(.LC0)
	lui	a1,%hi(.LC4)
	lui	a0,%hi(.LC5)
	li	a4,330
	addi	a3,a3,%lo(.LC0)
	addi	a1,a1,%lo(.LC4)
	addi	a0,a0,%lo(.LC5)
.L134:
	.loc 1 345 150 discriminator 10
	call	bl_printk
.LVL157:
	j	.L133
.L120:
	.loc 1 330 294 discriminator 8
	call	xTaskGetTickCount
.LVL158:
	j	.L131
.LVL159:
.L116:
	mv	s1,a0
	.loc 1 335 5 is_stmt 1
	addi	a1,sp,12
	li	a0,31
.LVL160:
	call	bl_irq_ctx_get
.LVL161:
	.loc 1 336 5
	.loc 1 336 56 is_stmt 0
	lw	a5,12(sp)
	lw	a4,0(a5)
	.loc 1 336 15
	lw	s0,4(a4)
.LVL162:
.L122:
	.loc 1 336 128 is_stmt 1 discriminator 1
	.loc 1 336 5 is_stmt 0 discriminator 1
	beq	a4,s0,.L125
	.loc 1 337 9 is_stmt 1
	.loc 1 337 12 is_stmt 0
	lw	a3,8(s0)
.LBB54:
.LBB55:
	.loc 2 297 20
	lw	a5,4(s0)
.LBE55:
.LBE54:
	.loc 1 337 12
	bne	a3,s1,.L128
	.loc 1 338 13 is_stmt 1
.LVL163:
.LBB59:
.LBB56:
	.loc 2 296 5
	.loc 2 296 20 is_stmt 0
	lw	a4,0(s0)
.LVL164:
	.loc 2 297 5 is_stmt 1
	.loc 2 299 5
.LBE56:
.LBE59:
	.loc 1 339 13 is_stmt 0
	mv	a0,s0
.LBB60:
.LBB57:
	.loc 2 299 16
	sw	a5,4(a4)
	.loc 2 300 5 is_stmt 1
	.loc 2 300 16 is_stmt 0
	sw	a4,0(a5)
.LVL165:
.LBE57:
.LBE60:
	.loc 1 339 13 is_stmt 1
	call	vPortFree
.LVL166:
	.loc 1 340 13
	.loc 1 344 5
	.loc 1 344 36 is_stmt 0
	lw	a5,12(sp)
	.loc 1 349 12
	li	a0,0
	.loc 1 344 8
	lw	a5,0(a5)
	bne	s0,a5,.L115
.L125:
	.loc 1 345 9 is_stmt 1
	.loc 1 345 47
	.loc 1 345 52
	.loc 1 345 74 is_stmt 0
	lui	a5,%hi(_fsymc_level_hosal)
	.loc 1 345 55
	lw	a4,%lo(_fsymc_level_hosal)(a5)
	li	a5,4
	bgtu	a4,a5,.L133
	.loc 1 345 118 discriminator 3
	lui	a4,%hi(_fsymf_level_hosalbl_dma)
	.loc 1 345 97 discriminator 3
	lw	a4,%lo(_fsymf_level_hosalbl_dma)(a4)
	bgtu	a4,a5,.L133
	.loc 1 345 150 is_stmt 1 discriminator 5
	.loc 1 345 233 is_stmt 0 discriminator 5
	call	xPortIsInsideInterrupt
.LVL167:
	.loc 1 345 150 discriminator 5
	beq	a0,zero,.L126
	.loc 1 345 262 discriminator 7
	call	xTaskGetTickCountFromISR
.LVL168:
.L132:
	.loc 1 345 293 discriminator 8
	mv	a2,a0
	.loc 1 345 150 discriminator 8
	lui	a3,%hi(.LC0)
	lui	a1,%hi(.LC4)
	lui	a0,%hi(.LC10)
	li	a4,345
	addi	a3,a3,%lo(.LC0)
	addi	a1,a1,%lo(.LC4)
	addi	a0,a0,%lo(.LC10)
	j	.L134
.L128:
.LBB61:
.LBB58:
	.loc 2 297 20
	mv	s0,a5
.LVL169:
	j	.L122
.LVL170:
.L126:
.LBE58:
.LBE61:
	.loc 1 345 293 discriminator 8
	call	xTaskGetTickCount
.LVL171:
	j	.L132
	.cfi_endproc
.LFE42:
	.size	bl_dma_irq_unregister, .-bl_dma_irq_unregister
	.section	.rodata.bl_dma_init.str1.4,"aMS",@progbits,1
	.align	2
.LC11:
	.string	"%s (%d)[%s:%4d] malloc dma ctx failed \r\n\r\n"
	.align	2
.LC12:
	.string	"%s (%d)[%s:%4d] malloc dma pstqueue failed \r\n\r\n"
	.section	.text.bl_dma_init,"ax",@progbits
	.align	1
	.globl	bl_dma_init
	.type	bl_dma_init, @function
bl_dma_init:
.LFB43:
	.loc 1 353 1 is_stmt 1
	.cfi_startproc
	.loc 1 354 5
	.loc 1 356 5
.LVL172:
	.loc 1 357 5
	.loc 1 363 5 is_stmt 0
	lui	a0,%hi(.LANCHOR0)
	.loc 1 353 1
	addi	sp,sp,-32
	.cfi_def_cfa_offset 32
	.loc 1 363 5
	addi	a0,a0,%lo(.LANCHOR0)
	.loc 1 353 1
	sw	ra,28(sp)
	sw	s0,24(sp)
	.cfi_offset 1, -4
	.cfi_offset 8, -8
	.loc 1 357 22
	sw	zero,4(sp)
	sw	zero,8(sp)
	sw	zero,12(sp)
	.loc 1 363 5 is_stmt 1
	call	utils_list_init
.LVL173:
	.loc 1 365 5
	.loc 1 365 14 is_stmt 0
	li	a0,4
	call	pvPortMalloc
.LVL174:
	.loc 1 366 5 is_stmt 1
	.loc 1 366 8 is_stmt 0
	bne	a0,zero,.L136
	.loc 1 367 9 is_stmt 1 discriminator 1
	.loc 1 367 47 discriminator 1
	.loc 1 367 52 discriminator 1
	.loc 1 367 74 is_stmt 0 discriminator 1
	lui	a5,%hi(_fsymc_level_hosal)
	.loc 1 367 55 discriminator 1
	lw	a4,%lo(_fsymc_level_hosal)(a5)
	li	a5,4
	bgtu	a4,a5,.L135
	.loc 1 367 118 discriminator 3
	lui	a4,%hi(_fsymf_level_hosalbl_dma)
	.loc 1 367 97 discriminator 3
	lw	a4,%lo(_fsymf_level_hosalbl_dma)(a4)
	bgtu	a4,a5,.L135
	.loc 1 367 150 is_stmt 1 discriminator 5
	.loc 1 367 241 is_stmt 0 discriminator 5
	call	xPortIsInsideInterrupt
.LVL175:
	.loc 1 367 150 discriminator 5
	beq	a0,zero,.L138
	.loc 1 367 270 discriminator 7
	call	xTaskGetTickCountFromISR
.LVL176:
.L146:
	.loc 1 367 301 discriminator 8
	mv	a2,a0
	.loc 1 367 150 discriminator 8
	lui	a3,%hi(.LC0)
	lui	a1,%hi(.LC4)
	lui	a0,%hi(.LC11)
	li	a4,367
	addi	a3,a3,%lo(.LC0)
	addi	a1,a1,%lo(.LC4)
	addi	a0,a0,%lo(.LC11)
.L148:
	.loc 1 374 150 discriminator 10
	call	bl_printk
.LVL177:
.L135:
	.loc 1 388 1
	lw	ra,28(sp)
	.cfi_remember_state
	.cfi_restore 1
	lw	s0,24(sp)
	.cfi_restore 8
	addi	sp,sp,32
	.cfi_def_cfa_offset 0
	jr	ra
.L138:
	.cfi_restore_state
	.loc 1 367 301 discriminator 8
	call	xTaskGetTickCount
.LVL178:
	j	.L146
.LVL179:
.L136:
	mv	s0,a0
	.loc 1 372 5 is_stmt 1
	.loc 1 372 24 is_stmt 0
	li	a0,8
.LVL180:
	call	pvPortMalloc
.LVL181:
	.loc 1 372 22
	sw	a0,0(s0)
	.loc 1 373 5 is_stmt 1
	.loc 1 373 8 is_stmt 0
	bne	a0,zero,.L141
	.loc 1 374 9 is_stmt 1 discriminator 1
	.loc 1 374 47 discriminator 1
	.loc 1 374 52 discriminator 1
	.loc 1 374 74 is_stmt 0 discriminator 1
	lui	a5,%hi(_fsymc_level_hosal)
	.loc 1 374 55 discriminator 1
	lw	a4,%lo(_fsymc_level_hosal)(a5)
	li	a5,4
	bgtu	a4,a5,.L135
	.loc 1 374 118 discriminator 3
	lui	a4,%hi(_fsymf_level_hosalbl_dma)
	.loc 1 374 97 discriminator 3
	lw	a4,%lo(_fsymf_level_hosalbl_dma)(a4)
	bgtu	a4,a5,.L135
	.loc 1 374 150 is_stmt 1 discriminator 5
	.loc 1 374 246 is_stmt 0 discriminator 5
	call	xPortIsInsideInterrupt
.LVL182:
	.loc 1 374 150 discriminator 5
	beq	a0,zero,.L142
	.loc 1 374 275 discriminator 7
	call	xTaskGetTickCountFromISR
.LVL183:
.L147:
	.loc 1 374 306 discriminator 8
	mv	a2,a0
	.loc 1 374 150 discriminator 8
	lui	a3,%hi(.LC0)
	lui	a1,%hi(.LC4)
	lui	a0,%hi(.LC12)
	li	a4,374
	addi	a3,a3,%lo(.LC0)
	addi	a1,a1,%lo(.LC4)
	addi	a0,a0,%lo(.LC12)
	j	.L148
.L142:
	.loc 1 374 306 discriminator 8
	call	xTaskGetTickCount
.LVL184:
	j	.L147
.L141:
	.loc 1 378 5 is_stmt 1
.LVL185:
.LBB62:
.LBB63:
	.loc 2 310 5
	.loc 2 310 16 is_stmt 0
	sw	a0,4(a0)
	.loc 2 311 5 is_stmt 1
	.loc 2 311 16 is_stmt 0
	sw	a0,0(a0)
.LVL186:
.LBE63:
.LBE62:
	.loc 1 380 5 is_stmt 1
	call	DMA_Enable
.LVL187:
	.loc 1 381 5
	li	a2,1
	li	a1,2
	li	a0,0
	call	DMA_IntMask
.LVL188:
	.loc 1 382 5
	li	a2,0
	li	a1,0
	li	a0,0
	call	DMA_IntMask
.LVL189:
	.loc 1 383 5
	li	a2,0
	li	a1,1
	li	a0,0
	call	DMA_IntMask
.LVL190:
	.loc 1 384 5
	addi	a1,sp,4
	li	a0,0
	call	DMA_LLI_Init
.LVL191:
	.loc 1 385 5
	lui	a1,%hi(bl_dma_int_process)
	mv	a2,s0
	addi	a1,a1,%lo(bl_dma_int_process)
	li	a0,31
	call	bl_irq_register_with_ctx
.LVL192:
	.loc 1 386 5
	lui	a1,%hi(bl_dma_IRQHandler)
	li	a3,0
	li	a2,0
	addi	a1,a1,%lo(bl_dma_IRQHandler)
	li	a0,0
	call	bl_dma_irq_register
.LVL193:
	.loc 1 387 5
	li	a0,31
	call	bl_irq_enable
.LVL194:
	j	.L135
	.cfi_endproc
.LFE43:
	.size	bl_dma_init, .-bl_dma_init
	.section	.rodata.bl_dma_test.str1.4,"aMS",@progbits,1
	.align	2
.LC13:
	.string	"%s (%d)[%s:%4d] [TEST] [DMA] first %p, src %p, dst %p\r\n\r\n"
	.section	.text.bl_dma_test,"ax",@progbits
	.align	1
	.globl	bl_dma_test
	.type	bl_dma_test, @function
bl_dma_test:
.LFB46:
	.loc 1 439 1
	.cfi_startproc
	.loc 1 440 5
.LBB66:
.LBB67:
	.loc 1 401 5
	.loc 1 402 5
	.loc 1 403 5
	.loc 1 404 5
.LVL195:
	.loc 1 406 5
.LBE67:
.LBE66:
	.loc 1 439 1 is_stmt 0
	addi	sp,sp,-16
	.cfi_def_cfa_offset 16
.LBB71:
.LBB68:
	.loc 1 406 13
	li	a0,28
.LBE68:
.LBE71:
	.loc 1 439 1
	sw	ra,12(sp)
	sw	s0,8(sp)
	sw	s1,4(sp)
	sw	s2,0(sp)
	.cfi_offset 1, -4
	.cfi_offset 8, -8
	.cfi_offset 9, -12
	.cfi_offset 18, -16
.LBB72:
.LBB69:
	.loc 1 406 13
	call	pvPortMalloc
.LVL196:
	mv	s0,a0
.LVL197:
	.loc 1 407 5 is_stmt 1
	.loc 1 407 11 is_stmt 0
	li	a0,68
	call	pvPortMalloc
.LVL198:
	mv	s2,a0
.LVL199:
	.loc 1 408 5 is_stmt 1
	.loc 1 408 11 is_stmt 0
	li	a0,68
.LVL200:
	call	pvPortMalloc
.LVL201:
	.loc 1 410 69
	lui	a5,%hi(_fsymc_level_hosal)
	.loc 1 410 51
	lw	a4,%lo(_fsymc_level_hosal)(a5)
	li	a5,2
	.loc 1 408 11
	mv	s1,a0
.LVL202:
	.loc 1 410 5 is_stmt 1
	.loc 1 410 43
	.loc 1 410 48
	.loc 1 410 51 is_stmt 0
	bgtu	a4,a5,.L150
	.loc 1 410 112
	lui	a4,%hi(_fsymf_level_hosalbl_dma)
	.loc 1 410 92
	lw	a4,%lo(_fsymf_level_hosalbl_dma)(a4)
	bgtu	a4,a5,.L150
	.loc 1 410 144 is_stmt 1
	.loc 1 410 249 is_stmt 0
	call	xPortIsInsideInterrupt
.LVL203:
	.loc 1 410 144
	beq	a0,zero,.L151
	.loc 1 410 278
	call	xTaskGetTickCountFromISR
.LVL204:
.L156:
	.loc 1 410 309
	mv	a2,a0
	.loc 1 410 144
	lui	a3,%hi(.LC0)
	lui	a1,%hi(.LC1)
	lui	a0,%hi(.LC13)
	mv	a7,s1
	mv	a6,s2
	mv	a5,s0
	li	a4,410
	addi	a3,a3,%lo(.LC0)
	addi	a1,a1,%lo(.LC1)
	addi	a0,a0,%lo(.LC13)
	call	bl_printk
.LVL205:
.L150:
	.loc 1 410 376 is_stmt 1
	.loc 1 414 6
	.loc 1 416 5
	li	a2,28
	li	a1,0
	mv	a0,s0
	call	memset
.LVL206:
	.loc 1 417 5
	li	a2,68
	li	a1,1
	mv	a0,s2
	call	memset
.LVL207:
	.loc 1 418 5
	li	a2,68
	li	a1,255
	mv	a0,s1
	call	memset
.LVL208:
	.loc 1 419 5
	.loc 1 422 17 is_stmt 0
	li	a5,-1941327872
	addi	a5,a5,17
	sw	a5,24(s0)
	.loc 1 423 15
	lui	a5,%hi(_cb_cmd)
	addi	a5,a5,%lo(_cb_cmd)
	.loc 1 419 16
	sw	s2,12(s0)
	.loc 1 420 5 is_stmt 1
	.loc 1 420 16 is_stmt 0
	sw	s1,16(s0)
	.loc 1 421 5 is_stmt 1
	.loc 1 421 17 is_stmt 0
	sw	zero,20(s0)
	.loc 1 422 5 is_stmt 1
	.loc 1 423 5
	.loc 1 423 15 is_stmt 0
	sw	a5,4(s0)
	.loc 1 424 5 is_stmt 1
	.loc 1 424 16 is_stmt 0
	sw	s0,8(s0)
	.loc 1 426 5 is_stmt 1
	mv	a0,s0
	call	bl_dma_copy
.LVL209:
	.loc 1 429 5
.L153:
	.loc 1 429 11
	lw	a5,8(s0)
	bne	a5,zero,.L154
	.loc 1 433 5
	lw	a0,12(s0)
	call	vPortFree
.LVL210:
	.loc 1 434 5
	lw	a0,16(s0)
	call	vPortFree
.LVL211:
	.loc 1 435 5
	mv	a0,s0
.LBE69:
.LBE72:
	.loc 1 441 1 is_stmt 0
	lw	s0,8(sp)
	.cfi_remember_state
	.cfi_restore 8
.LVL212:
	lw	ra,12(sp)
	.cfi_restore 1
	lw	s1,4(sp)
	.cfi_restore 9
.LVL213:
	lw	s2,0(sp)
	.cfi_restore 18
.LVL214:
	addi	sp,sp,16
	.cfi_def_cfa_offset 0
.LBB73:
.LBB70:
	.loc 1 435 5
	tail	vPortFree
.LVL215:
.L151:
	.cfi_restore_state
	.loc 1 410 309
	call	xTaskGetTickCount
.LVL216:
	j	.L156
.L154:
	.loc 1 430 9 is_stmt 1
	li	a0,2
	call	vTaskDelay
.LVL217:
	j	.L153
.LBE70:
.LBE73:
	.cfi_endproc
.LFE46:
	.size	bl_dma_test, .-bl_dma_test
	.globl	_fsymf_info_hosalbl_dma
	.section	.rodata.str1.4,"aMS",@progbits,1
	.align	2
.LC14:
	.string	"hosal.bl_dma"
	.comm	_fsymf_level_hosalbl_dma,4,4
	.align	2
.LC15:
	.string	"hosal"
	.weak	_fsymc_level_hosal
	.section	.sbss._fsymc_level_hosal,"aw",@nobits
	.align	2
	.type	_fsymc_level_hosal, @object
	.size	_fsymc_level_hosal, 4
_fsymc_level_hosal:
	.zero	4
	.section	.sbss.dma_copy_list,"aw",@nobits
	.align	2
	.set	.LANCHOR0,. + 0
	.type	dma_copy_list, @object
	.size	dma_copy_list, 8
dma_copy_list:
	.zero	8
	.section	.srodata.BLOG_HARD_DECLARE_DISABLE,"a"
	.align	2
	.type	BLOG_HARD_DECLARE_DISABLE, @object
	.size	BLOG_HARD_DECLARE_DISABLE, 4
BLOG_HARD_DECLARE_DISABLE:
	.zero	4
	.section	.static_blogcomponent_code.hosal,"a"
	.align	2
	.type	_fsymc_info_hosal, @object
	.size	_fsymc_info_hosal, 8
_fsymc_info_hosal:
	.word	_fsymc_level_hosal
	.word	.LC15
	.section	.static_blogfile_code.hosalbl_dma,"a"
	.align	2
	.type	_fsymf_info_hosalbl_dma, @object
	.size	_fsymf_info_hosalbl_dma, 8
_fsymf_info_hosalbl_dma:
	.word	_fsymf_level_hosalbl_dma
	.word	.LC14
	.text
.Letext0:
	.file 3 "/mnt/d/GitHub/bl_iot_sdk_for_aithinker/toolchain/riscv/Linux/riscv64-unknown-elf/include/machine/_default_types.h"
	.file 4 "/mnt/d/GitHub/bl_iot_sdk_for_aithinker/toolchain/riscv/Linux/lib/gcc/riscv64-unknown-elf/10.2.0/include/stddef.h"
	.file 5 "/mnt/d/GitHub/bl_iot_sdk_for_aithinker/toolchain/riscv/Linux/riscv64-unknown-elf/include/sys/_stdint.h"
	.file 6 "/mnt/d/GitHub/bl_iot_sdk_for_aithinker/components/platform/soc/bl602/bl602_std/bl602_std/Device/Bouffalo/BL602/Peripherals/bl602.h"
	.file 7 "/mnt/d/GitHub/bl_iot_sdk_for_aithinker/components/platform/soc/bl602/bl602_std/bl602_std/StdDriver/Inc/bl602_common.h"
	.file 8 "/mnt/d/GitHub/bl_iot_sdk_for_aithinker/components/platform/soc/bl602/bl602_std/bl602_std/StdDriver/Inc/bl602_dma.h"
	.file 9 "/mnt/d/GitHub/bl_iot_sdk_for_aithinker/components/platform/hosal/bl602_hal/bl_dma.h"
	.file 10 "/mnt/d/GitHub/bl_iot_sdk_for_aithinker/components/stage/blog/blog_type.h"
	.file 11 "/mnt/d/GitHub/bl_iot_sdk_for_aithinker/components/stage/blog/blog.h"
	.file 12 "/mnt/d/GitHub/bl_iot_sdk_for_aithinker/components/platform/soc/bl602/freertos_riscv_ram/config/portable.h"
	.file 13 "/mnt/d/GitHub/bl_iot_sdk_for_aithinker/components/platform/soc/bl602/freertos_riscv_ram/portable/GCC/RISC-V/portmacro.h"
	.file 14 "/mnt/d/GitHub/bl_iot_sdk_for_aithinker/components/platform/soc/bl602/freertos_riscv_ram/config/task.h"
	.file 15 "/mnt/d/GitHub/bl_iot_sdk_for_aithinker/components/utils/include/utils_log.h"
	.file 16 "/mnt/d/GitHub/bl_iot_sdk_for_aithinker/toolchain/riscv/Linux/riscv64-unknown-elf/include/string.h"
	.file 17 "/mnt/d/GitHub/bl_iot_sdk_for_aithinker/components/platform/hosal/bl602_hal/bl_irq.h"