	.file	"bl_dac_audio.c"
	.option nopic
	.attribute arch, "rv32i2p0_m2p0_f2p0_c2p0"
	.attribute unaligned_access, 0
	.attribute stack_align, 16
	.text
.Ltext0:
	.cfi_sections	.debug_frame
	.section	.text.__dma_irq_handler,"ax",@progbits
	.align	1
	.type	__dma_irq_handler, @function
__dma_irq_handler:
.LFB34:
	.file 1 "/mnt/d/GitHub/bl_iot_sdk_for_aithinker/components/platform/hosal/bl602_hal/bl_dac_audio.c"
	.loc 1 131 1
	.cfi_startproc
	.loc 1 132 5
	.loc 1 133 5
	.loc 1 135 5
	.loc 1 131 1 is_stmt 0
	addi	sp,sp,-16
	.cfi_def_cfa_offset 16
	sw	s0,8(sp)
	.cfi_offset 8, -8
	.loc 1 135 14
	lui	s0,%hi(.LANCHOR0)
	lw	a5,%lo(.LANCHOR0)(s0)
	.loc 1 131 1
	sw	ra,12(sp)
	.cfi_offset 1, -4
	.loc 1 135 8
	beq	a5,zero,.L1
	.loc 1 139 5 is_stmt 1
	.loc 1 139 12 is_stmt 0
	li	a4,1073790976
	lw	a4,4(a4)
.LVL0:
	.loc 1 140 5 is_stmt 1
	.loc 1 140 63 is_stmt 0
	andi	a4,a4,1
.LVL1:
	.loc 1 140 7
	beq	a4,zero,.L4
	.loc 1 142 9 is_stmt 1
.LVL2:
	.loc 1 144 9
	.loc 1 144 29 is_stmt 0
	lw	a6,48(a5)
	.loc 1 144 12
	beq	a6,zero,.L4
	.loc 1 145 17
	lbu	a4,0(a5)
	.loc 1 142 53
	lw	a2,40(a5)
	.loc 1 145 16
	li	a7,1
	.loc 1 145 17
	addi	a4,a4,1
	andi	a4,a4,0xff
	.loc 1 145 16
	sb	a4,0(a5)
	.loc 1 149 23
	lw	a0,52(a5)
	lw	a1,36(a5)
	lw	a3,44(a5)
	addi	s0,s0,%lo(.LANCHOR0)
	.loc 1 142 53
	srli	a2,a2,1
	.loc 1 145 13 is_stmt 1
	.loc 1 145 16 is_stmt 0
	bleu	a4,a7,.L5
	.loc 1 146 17 is_stmt 1
	.loc 1 146 44 is_stmt 0
	sb	zero,0(a5)
	.loc 1 148 13 is_stmt 1
.L6:
	.loc 1 154 17
	.loc 1 154 23 is_stmt 0
	add	a1,a1,a2
	j	.L27
.L5:
	.loc 1 148 13 is_stmt 1
	.loc 1 148 16 is_stmt 0
	beq	a4,zero,.L6
.L27:
	.loc 1 154 23
	jalr	a6
.LVL3:
	.loc 1 159 13 is_stmt 1
	.loc 1 160 33 is_stmt 0
	lw	a5,0(s0)
	.loc 1 159 16
	beq	a0,zero,.L8
	.loc 1 160 17 is_stmt 1
	.loc 1 160 47 is_stmt 0
	li	a4,1
	sw	a4,44(a5)
.LVL4:
.L4:
	.loc 1 166 5 is_stmt 1
.LBB4:
.LBB5:
	.loc 1 102 5
	.loc 1 103 5
	.loc 1 105 5
	.loc 1 107 5
	.loc 1 107 12 is_stmt 0
	li	a5,1073790976
	lw	a4,4(a5)
.LVL5:
	.loc 1 108 5 is_stmt 1
	.loc 1 108 63 is_stmt 0
	andi	a4,a4,1
.LVL6:
	.loc 1 108 7
	beq	a4,zero,.L9
	.loc 1 110 9 is_stmt 1
	.loc 1 110 16 is_stmt 0
	lw	a4,8(a5)
.LVL7:
	.loc 1 111 9 is_stmt 1
	.loc 1 112 9
	.loc 1 113 9
	.loc 1 113 16 is_stmt 0
	ori	a4,a4,1
.LVL8:
	.loc 1 114 9 is_stmt 1
	.loc 1 114 47 is_stmt 0
	sw	a4,8(a5)
.LVL9:
.L9:
	.loc 1 117 5 is_stmt 1
	.loc 1 117 12 is_stmt 0
	li	a5,1073790976
	lw	a4,12(a5)
.LVL10:
	.loc 1 118 5 is_stmt 1
	.loc 1 118 63 is_stmt 0
	andi	a4,a4,1
.LVL11:
	.loc 1 118 7
	beq	a4,zero,.L1
	.loc 1 120 9 is_stmt 1
	.loc 1 120 16 is_stmt 0
	lw	a4,16(a5)
.LVL12:
	.loc 1 121 9 is_stmt 1
	.loc 1 122 9
	.loc 1 123 9
	.loc 1 123 16 is_stmt 0
	ori	a4,a4,1
.LVL13:
	.loc 1 124 9 is_stmt 1
	.loc 1 124 48 is_stmt 0
	sw	a4,16(a5)
.LVL14:
.L1:
.LBE5:
.LBE4:
	.loc 1 167 1
	lw	ra,12(sp)
	.cfi_remember_state
	.cfi_restore 1
	lw	s0,8(sp)
	.cfi_restore 8
	addi	sp,sp,16
	.cfi_def_cfa_offset 0
	jr	ra
.LVL15:
.L8:
	.cfi_restore_state
	.loc 1 162 17 is_stmt 1
	.loc 1 162 47 is_stmt 0
	sw	zero,44(a5)
	j	.L4
	.cfi_endproc
.LFE34:
	.size	__dma_irq_handler, .-__dma_irq_handler
	.section	.text.bl_audio_dac_samplerate_set,"ax",@progbits
	.align	1
	.globl	bl_audio_dac_samplerate_set
	.type	bl_audio_dac_samplerate_set, @function
bl_audio_dac_samplerate_set:
.LFB35:
	.loc 1 170 1 is_stmt 1
	.cfi_startproc
.LVL16:
	.loc 1 171 5
	.loc 1 171 16 is_stmt 0
	lui	a5,%hi(.LANCHOR1+12)
	sw	a1,%lo(.LANCHOR1+12)(a5)
	.loc 1 172 5 is_stmt 1
	.loc 1 173 1 is_stmt 0
	li	a0,0
.LVL17:
	ret
	.cfi_endproc
.LFE35:
	.size	bl_audio_dac_samplerate_set, .-bl_audio_dac_samplerate_set
	.section	.text.bl_audio_dac_tx_ready_config,"ax",@progbits
	.align	1
	.globl	bl_audio_dac_tx_ready_config
	.type	bl_audio_dac_tx_ready_config, @function
bl_audio_dac_tx_ready_config:
.LFB36:
	.loc 1 178 1 is_stmt 1
	.cfi_startproc
.LVL18:
	.loc 1 179 5
	.loc 1 179 8 is_stmt 0
	beq	a0,zero,.L31
	.loc 1 182 5 is_stmt 1
	.loc 1 182 19 is_stmt 0
	sw	a1,48(a0)
	.loc 1 183 5 is_stmt 1
	.loc 1 183 22 is_stmt 0
	sw	a2,52(a0)
	.loc 1 184 5 is_stmt 1
	.loc 1 184 12 is_stmt 0
	li	a0,0
.LVL19:
	ret
.LVL20:
.L31:
	.loc 1 180 16
	li	a0,-1
.LVL21:
	.loc 1 185 1
	ret
	.cfi_endproc
.LFE36:
	.size	bl_audio_dac_tx_ready_config, .-bl_audio_dac_tx_ready_config
	.section	.text.bl_audio_dac_rx_ready_config,"ax",@progbits
	.align	1
	.globl	bl_audio_dac_rx_ready_config
	.type	bl_audio_dac_rx_ready_config, @function
bl_audio_dac_rx_ready_config:
.LFB37:
	.loc 1 190 1 is_stmt 1
	.cfi_startproc
.LVL22:
	.loc 1 191 5
	.loc 1 192 1 is_stmt 0
	li	a0,0
.LVL23:
	ret
	.cfi_endproc
.LFE37:
	.size	bl_audio_dac_rx_ready_config, .-bl_audio_dac_rx_ready_config
	.section	.text.bl_audio_dac_tx_buffer_config,"ax",@progbits
	.align	1
	.globl	bl_audio_dac_tx_buffer_config
	.type	bl_audio_dac_tx_buffer_config, @function
bl_audio_dac_tx_buffer_config:
.LFB38:
	.loc 1 195 1 is_stmt 1
	.cfi_startproc
.LVL24:
	.loc 1 196 5
	.loc 1 197 5
	.loc 1 199 5
	.loc 1 195 1 is_stmt 0
	addi	sp,sp,-16
	.cfi_def_cfa_offset 16
	sw	s0,8(sp)
	sw	s1,4(sp)
	sw	s2,0(sp)
	sw	ra,12(sp)
	.cfi_offset 8, -8
	.cfi_offset 9, -12
	.cfi_offset 18, -16
	.cfi_offset 1, -4
	.loc 1 199 8
	lw	a5,36(a0)
	.loc 1 195 1
	mv	s0,a0
	mv	s2,a1
	mv	s1,a2
	.loc 1 199 8
	bne	a5,zero,.L34
	.loc 1 200 9 is_stmt 1
	.loc 1 200 32 is_stmt 0
	mv	a0,a2
.LVL25:
	call	pvPortMalloc
.LVL26:
	.loc 1 200 30
	sw	a0,36(s0)
.L34:
	.loc 1 203 5 is_stmt 1
	.loc 1 203 21 is_stmt 0
	lw	a3,36(s0)
	.loc 1 204 16
	li	a0,-1
	.loc 1 203 8
	beq	a3,zero,.L33
	.loc 1 206 5 is_stmt 1
	.loc 1 206 14 is_stmt 0
	sw	a3,0(s2)
	.loc 1 207 5 is_stmt 1
	.loc 1 207 31 is_stmt 0
	sw	s1,40(s0)
	.loc 1 209 5 is_stmt 1
.LVL27:
	.loc 1 210 5
	.loc 1 210 12 is_stmt 0
	li	a5,0
	.loc 1 211 17
	li	a2,512
.LVL28:
.L36:
	.loc 1 210 17 is_stmt 1 discriminator 1
	.loc 1 210 48 is_stmt 0 discriminator 1
	lw	a4,40(s0)
	srli	a4,a4,1
	.loc 1 210 5 discriminator 1
	bgtu	a4,a5,.L37
	.loc 1 214 12
	li	a0,0
.LVL29:
.L33:
	.loc 1 215 1
	lw	ra,12(sp)
	.cfi_remember_state
	.cfi_restore 1
	lw	s0,8(sp)
	.cfi_restore 8
.LVL30:
	lw	s1,4(sp)
	.cfi_restore 9
.LVL31:
	lw	s2,0(sp)
	.cfi_restore 18
.LVL32:
	addi	sp,sp,16
	.cfi_def_cfa_offset 0
	jr	ra
.LVL33:
.L37:
	.cfi_restore_state
	.loc 1 211 9 is_stmt 1 discriminator 3
	.loc 1 211 17 is_stmt 0 discriminator 3
	slli	a4,a5,1
	add	a4,a3,a4
	sh	a2,0(a4)
	.loc 1 210 55 is_stmt 1 discriminator 3
	.loc 1 210 56 is_stmt 0 discriminator 3
	addi	a5,a5,1
.LVL34:
	j	.L36
	.cfi_endproc
.LFE38:
	.size	bl_audio_dac_tx_buffer_config, .-bl_audio_dac_tx_buffer_config
	.section	.text.bl_audio_dac_rx_buffer_config,"ax",@progbits
	.align	1
	.globl	bl_audio_dac_rx_buffer_config
	.type	bl_audio_dac_rx_buffer_config, @function
bl_audio_dac_rx_buffer_config:
.LFB39:
	.loc 1 220 1 is_stmt 1
	.cfi_startproc
.LVL35:
	.loc 1 221 5
	.loc 1 222 1 is_stmt 0
	li	a0,0
.LVL36:
	ret
	.cfi_endproc
.LFE39:
	.size	bl_audio_dac_rx_buffer_config, .-bl_audio_dac_rx_buffer_config
	.section	.text.bl_audio_dac_start,"ax",@progbits
	.align	1
	.globl	bl_audio_dac_start
	.type	bl_audio_dac_start, @function
bl_audio_dac_start:
.LFB40:
	.loc 1 225 1 is_stmt 1
	.cfi_startproc
.LVL37:
	.loc 1 226 5
	.loc 1 226 8 is_stmt 0
	beq	a0,zero,.L43
	.loc 1 225 1
	addi	sp,sp,-16
	.cfi_def_cfa_offset 16
	sw	ra,12(sp)
	sw	s0,8(sp)
	.cfi_offset 1, -4
	.cfi_offset 8, -8
	mv	s0,a0
	.loc 1 230 5 is_stmt 1
	call	DMA_Enable
.LVL38:
	.loc 1 231 5
	li	a0,0
	call	DMA_Channel_Disable
.LVL39:
	.loc 1 233 5
	li	a2,1
	li	a1,2
	li	a0,0
	call	DMA_IntMask
.LVL40:
	.loc 1 234 5
	li	a2,0
	li	a1,0
	li	a0,0
	call	DMA_IntMask
.LVL41:
	.loc 1 235 5
	lui	a1,%hi(__dma_irq_handler)
	addi	a1,a1,%lo(__dma_irq_handler)
	li	a0,31
	call	bl_irq_register
.LVL42:
	.loc 1 236 5
	li	a0,31
	call	bl_irq_enable
.LVL43:
	.loc 1 238 5
	lui	a0,%hi(.LANCHOR1)
	addi	a0,a0,%lo(.LANCHOR1)
	call	GLB_GPIP_DAC_Init
.LVL44:
	.loc 1 239 5
	li	a0,1
	call	GPIP_Set_DAC_DMA_TX_FORMAT_SEL
.LVL45:
	.loc 1 240 5
	call	GPIP_Set_DAC_DMA_TX_Enable
.LVL46:
	.loc 1 241 5
	call	GPIP_DAC_ChanA_Enable
.LVL47:
	.loc 1 242 5
	call	GPIP_DAC_ChanB_Enable
.LVL48:
	.loc 1 244 5
.LBB8:
.LBB9:
	.loc 1 84 5
	.loc 1 86 44 is_stmt 0
	addi	a5,s0,20
	.loc 1 84 37
	lw	a0,36(s0)
	.loc 1 86 32
	sw	a5,12(s0)
	.loc 1 87 40
	lw	a5,40(s0)
	.loc 1 85 36
	li	a2,1073750016
	addi	a2,a2,72
	.loc 1 87 32
	lui	a3,%hi(.LANCHOR2)
	.loc 1 85 36
	sw	a2,8(s0)
	.loc 1 87 32
	addi	a3,a3,%lo(.LANCHOR2)
	.loc 1 84 35
	sw	a0,4(s0)
	.loc 1 85 5 is_stmt 1
	.loc 1 86 5
	.loc 1 87 5
	.loc 1 87 32 is_stmt 0
	slli	a4,a5,17
	srli	a1,a4,20
	lw	a4,0(a3)
	li	a6,-4096
	.loc 1 90 99
	srli	a5,a5,1
	.loc 1 87 32
	and	a4,a4,a6
	or	a4,a4,a1
	sw	a4,0(a3)
	.loc 1 88 5 is_stmt 1
	.loc 1 90 70 is_stmt 0
	add	a5,a5,a0
	.loc 1 90 35
	sw	a5,20(s0)
	.loc 1 92 42
	addi	a5,s0,4
	.loc 1 92 31
	sw	a5,28(s0)
	.loc 1 94 31
	lw	a5,0(a3)
	.loc 1 96 5
	lui	a1,%hi(.LANCHOR3)
	.loc 1 88 31
	sw	a4,16(s0)
	.loc 1 90 5 is_stmt 1
	.loc 1 91 5
	.loc 1 91 36 is_stmt 0
	sw	a2,24(s0)
	.loc 1 92 5 is_stmt 1
	.loc 1 93 5
	.loc 1 94 5
	.loc 1 94 31 is_stmt 0
	sw	a5,32(s0)
	.loc 1 96 5 is_stmt 1
	addi	a1,a1,%lo(.LANCHOR3)
	li	a0,0
	call	DMA_LLI_Init
.LVL49:
	.loc 1 97 5
	.loc 1 97 39 is_stmt 0
	lui	a5,%hi(.LANCHOR0)
	lw	a1,%lo(.LANCHOR0)(a5)
	.loc 1 97 5
	li	a0,0
	addi	a1,a1,4
	call	DMA_LLI_Update
.LVL50:
.LBE9:
.LBE8:
	.loc 1 246 5 is_stmt 1
	li	a0,0
	call	DMA_Channel_Enable
.LVL51:
	.loc 1 248 5
	.loc 1 249 1 is_stmt 0
	lw	ra,12(sp)
	.cfi_restore 1
	lw	s0,8(sp)
	.cfi_restore 8
.LVL52:
	.loc 1 248 12
	li	a0,0
	.loc 1 249 1
	addi	sp,sp,16
	.cfi_def_cfa_offset 0
	jr	ra
.LVL53:
.L43:
	.loc 1 227 16
	li	a0,-1
.LVL54:
	.loc 1 249 1
	ret
	.cfi_endproc
.LFE40:
	.size	bl_audio_dac_start, .-bl_audio_dac_start
	.section	.text.bl_audio_dac_stop,"ax",@progbits
	.align	1
	.globl	bl_audio_dac_stop
	.type	bl_audio_dac_stop, @function
bl_audio_dac_stop:
.LFB41:
	.loc 1 252 1 is_stmt 1
	.cfi_startproc
.LVL55:
	.loc 1 253 5
	.loc 1 253 32 is_stmt 0
	lui	a5,%hi(.LANCHOR0)
	lw	a5,%lo(.LANCHOR0)(a5)
	.loc 1 252 1
	addi	sp,sp,-16
	.cfi_def_cfa_offset 16
	sw	ra,12(sp)
	.cfi_offset 1, -4
	.loc 1 253 32
	sb	zero,0(a5)
	.loc 1 255 5 is_stmt 1
	call	DMA_Disable
.LVL56:
	.loc 1 256 5
	li	a0,0
	call	DMA_Channel_Disable
.LVL57:
	.loc 1 257 5
	li	a0,31
	call	bl_irq_disable
.LVL58:
	.loc 1 259 5
	.loc 1 260 1 is_stmt 0
	lw	ra,12(sp)
	.cfi_restore 1
	li	a0,0
	addi	sp,sp,16
	.cfi_def_cfa_offset 0
	jr	ra
	.cfi_endproc
.LFE41:
	.size	bl_audio_dac_stop, .-bl_audio_dac_stop
	.section	.text.bl_audio_dac_init,"ax",@progbits
	.align	1
	.globl	bl_audio_dac_init
	.type	bl_audio_dac_init, @function
bl_audio_dac_init:
.LFB42:
	.loc 1 263 1 is_stmt 1
	.cfi_startproc
.LVL59:
	.loc 1 264 5
	.loc 1 264 8 is_stmt 0
	beq	a0,zero,.L52
	.loc 1 263 1
	addi	sp,sp,-16
	.cfi_def_cfa_offset 16
	.loc 1 267 5
	li	a2,56
	li	a1,0
	.loc 1 263 1
	sw	ra,12(sp)
	sw	s0,8(sp)
	.cfi_offset 1, -4
	.cfi_offset 8, -8
	mv	s0,a0
	.loc 1 267 5 is_stmt 1
	call	memset
.LVL60:
	.loc 1 268 5
.LBB14:
.LBB15:
	.loc 1 79 5 is_stmt 0
	lui	a0,%hi(.LANCHOR4)
.LBE15:
.LBE14:
	.loc 1 268 22
	lui	a5,%hi(.LANCHOR0)
.LBB18:
.LBB16:
	.loc 1 79 5
	addi	a0,a0,%lo(.LANCHOR4)
.LBE16:
.LBE18:
	.loc 1 268 22
	sw	s0,%lo(.LANCHOR0)(a5)
	.loc 1 270 5 is_stmt 1
.LBB19:
.LBB17:
	.loc 1 79 5
	call	GLB_GPIO_Init
.LVL61:
.LBE17:
.LBE19:
	.loc 1 271 5
.LBB20:
.LBB21:
	.loc 1 74 5
	li	a2,64
	li	a1,0
	li	a0,1
	call	GLB_Set_DAC_CLK
.LVL62:
.LBE21:
.LBE20:
	.loc 1 273 5
	lui	a0,%hi(.LANCHOR5)
	addi	a0,a0,%lo(.LANCHOR5)
	call	GLB_GPIP_DAC_Set_ChanA_Config
.LVL63:
	.loc 1 274 5
	lui	a0,%hi(.LANCHOR6)
	addi	a0,a0,%lo(.LANCHOR6)
	call	GLB_GPIP_DAC_Set_ChanB_Config
.LVL64:
	.loc 1 276 5
	.loc 1 277 1 is_stmt 0
	lw	ra,12(sp)
	.cfi_restore 1
	lw	s0,8(sp)
	.cfi_restore 8
.LVL65:
	.loc 1 276 12
	li	a0,0
	.loc 1 277 1
	addi	sp,sp,16
	.cfi_def_cfa_offset 0
	jr	ra
.LVL66:
.L52:
	.loc 1 265 16
	li	a0,-1
.LVL67:
	.loc 1 277 1
	ret
	.cfi_endproc
.LFE42:
	.size	bl_audio_dac_init, .-bl_audio_dac_init
	.section	.text.bl_audio_dac_deinit,"ax",@progbits
	.align	1
	.globl	bl_audio_dac_deinit
	.type	bl_audio_dac_deinit, @function
bl_audio_dac_deinit:
.LFB43:
	.loc 1 280 1 is_stmt 1
	.cfi_startproc
.LVL68:
	.loc 1 281 5
	.loc 1 280 1 is_stmt 0
	addi	sp,sp,-16
	.cfi_def_cfa_offset 16
	sw	s0,8(sp)
	sw	ra,12(sp)
	.cfi_offset 8, -8
	.cfi_offset 1, -4
	.loc 1 280 1
	mv	s0,a0
	.loc 1 281 5
	lw	a0,36(a0)
.LVL69:
	call	vPortFree
.LVL70:
	.loc 1 282 5 is_stmt 1
	.loc 1 285 1 is_stmt 0
	lw	ra,12(sp)
	.cfi_restore 1
	.loc 1 282 26
	sw	zero,36(s0)
	.loc 1 284 5 is_stmt 1
	.loc 1 285 1 is_stmt 0
	lw	s0,8(sp)
	.cfi_restore 8
.LVL71:
	li	a0,0
	addi	sp,sp,16
	.cfi_def_cfa_offset 0
	jr	ra
	.cfi_endproc
.LFE43:
	.size	bl_audio_dac_deinit, .-bl_audio_dac_deinit
	.section	.data.chACfg,"aw"
	.align	2
	.set	.LANCHOR5,. + 0
	.type	chACfg, @object
	.size	chACfg, 16
chACfg:
	.word	1
	.word	1
	.word	1
	.word	1
	.section	.data.chBCfg,"aw"
	.align	2
	.set	.LANCHOR6,. + 0
	.type	chBCfg, @object
	.size	chBCfg, 16
chBCfg:
	.word	1
	.word	1
	.word	1
	.word	4
	.section	.data.dacCfg,"aw"
	.align	2
	.set	.LANCHOR1,. + 0
	.type	dacCfg, @object
	.size	dacCfg, 24
dacCfg:
	.word	0
	.word	1
	.word	1
	.word	1
	.word	1
	.word	1
	.section	.data.gpioCfg,"aw"
	.align	2
	.set	.LANCHOR4,. + 0
	.type	gpioCfg, @object
	.size	gpioCfg, 12
gpioCfg:
	.byte	13
	.byte	10
	.byte	2
	.byte	2
	.byte	1
	.byte	1
	.byte	14
	.byte	10
	.byte	2
	.byte	2
	.byte	1
	.byte	1
	.section	.data.lliCfg,"aw"
	.align	2
	.set	.LANCHOR3,. + 0
	.type	lliCfg, @object
	.size	lliCfg, 12
lliCfg:
	.word	1
	.word	0
	.word	23
	.section	.sbss.gp_audio_dac_dev,"aw",@nobits
	.align	2
	.set	.LANCHOR0,. + 0
	.type	gp_audio_dac_dev, @object
	.size	gp_audio_dac_dev, 4
gp_audio_dac_dev:
	.zero	4
	.section	.sdata.dmaCtrlRegVal,"aw"
	.align	2
	.set	.LANCHOR2,. + 0
	.type	dmaCtrlRegVal, @object
	.size	dmaCtrlRegVal, 4
dmaCtrlRegVal:
	.byte	232
	.byte	3
	.byte	72
	.byte	132
	.text
.Letext0:
	.file 2 "/mnt/d/GitHub/bl_iot_sdk_for_aithinker/toolchain/riscv/Linux/lib/gcc/riscv64-unknown-elf/10.2.0/include/stdint-gcc.h"
	.file 3 "/mnt/d/GitHub/bl_iot_sdk_for_aithinker/components/platform/soc/bl602/bl602_std/bl602_std/Device/Bouffalo/BL602/Peripherals/dma_reg.h"
	.file 4 "/mnt/d/GitHub/bl_iot_sdk_for_aithinker/components/platform/soc/bl602/bl602_std/bl602_std/Device/Bouffalo/BL602/Peripherals/bl602.h"
	.file 5 "/mnt/d/GitHub/bl_iot_sdk_for_aithinker/components/platform/soc/bl602/bl602_std/bl602_std/StdDriver/Inc/bl602_common.h"
	.file 6 "/mnt/d/GitHub/bl_iot_sdk_for_aithinker/components/platform/soc/bl602/bl602_std/bl602_std/StdDriver/Inc/bl602_dma.h"
	.file 7 "/mnt/d/GitHub/bl_iot_sdk_for_aithinker/components/platform/soc/bl602/bl602_std/bl602_std/StdDriver/Inc/bl602_dac.h"
	.file 8 "/mnt/d/GitHub/bl_iot_sdk_for_aithinker/components/platform/hosal/bl602_hal/bl_dac_audio.h"
	.file 9 "/mnt/d/GitHub/bl_iot_sdk_for_aithinker/components/platform/soc/bl602/bl602_std/bl602_std/StdDriver/Inc/bl602_gpio.h"
	.file 10 "/mnt/d/GitHub/bl_iot_sdk_for_aithinker/components/platform/soc/bl602/bl602_std/bl602_std/StdDriver/Inc/bl602_glb.h"
	.file 11 "/mnt/d/GitHub/bl_iot_sdk_for_aithinker/components/platform/soc/bl602/bl602_std/bl602_std/Common/platform_print/bflb_platform.h"
	.file 12 "/mnt/d/GitHub/bl_iot_sdk_for_aithinker/toolchain/riscv/Linux/riscv64-unknown-elf/include/string.h"
	.file 13 "/mnt/d/GitHub/bl_iot_sdk_for_aithinker/components/platform/hosal/bl602_hal/bl_irq.h"