	.file	"bl_flash.c"
	.option nopic
	.attribute arch, "rv32i2p0_m2p0_f2p0_c2p0"
	.attribute unaligned_access, 0
	.attribute stack_align, 16
	.text
.Ltext0:
	.cfi_sections	.debug_frame
	.section	.tcm_code./mnt/d/GitHub/bl_iot_sdk_for_aithinker/components/platform/hosal/bl602_hal/bl_flash.c109,"ax",@progbits
	.align	1
	.globl	arch_memcpy
	.type	arch_memcpy, @function
arch_memcpy:
.LFB8:
	.file 1 "/mnt/d/GitHub/bl_iot_sdk_for_aithinker/components/platform/hosal/bl602_hal/bl_flash.c"
	.loc 1 110 1
	.cfi_startproc
.LVL0:
	.loc 1 111 5
	.loc 1 112 5
	.loc 1 114 5
	.loc 1 114 11 is_stmt 0
	li	a5,0
.LVL1:
.L2:
	.loc 1 114 11 is_stmt 1
	bne	a2,a5,.L3
	.loc 1 118 5
	.loc 1 119 1 is_stmt 0
	ret
.L3:
	.loc 1 115 9 is_stmt 1
.LVL2:
	.loc 1 115 16 is_stmt 0
	add	a4,a1,a5
	lbu	a3,0(a4)
	.loc 1 115 14
	add	a4,a0,a5
	addi	a5,a5,1
.LVL3:
	sb	a3,0(a4)
	j	.L2
	.cfi_endproc
.LFE8:
	.size	arch_memcpy, .-arch_memcpy
	.section	.text.flash_get_cfg,"ax",@progbits
	.align	1
	.globl	flash_get_cfg
	.type	flash_get_cfg, @function
flash_get_cfg:
.LFB9:
	.loc 1 127 1 is_stmt 1
	.cfi_startproc
.LVL4:
	.loc 1 128 5
	.loc 1 128 15 is_stmt 0
	lui	a5,%hi(.LANCHOR0)
	addi	a5,a5,%lo(.LANCHOR0)
	sw	a5,0(a0)
	.loc 1 129 5 is_stmt 1
	.loc 1 129 10 is_stmt 0
	li	a5,84
	sw	a5,0(a1)
	.loc 1 131 5 is_stmt 1
	.loc 1 132 1 is_stmt 0
	li	a0,0
.LVL5:
	ret
	.cfi_endproc
.LFE9:
	.size	flash_get_cfg, .-flash_get_cfg
	.section	.tcm_code./mnt/d/GitHub/bl_iot_sdk_for_aithinker/components/platform/hosal/bl602_hal/bl_flash.c139,"ax",@progbits
	.align	1
	.globl	flash_set_qspi_enable
	.type	flash_set_qspi_enable, @function
flash_set_qspi_enable:
.LFB10:
	.loc 1 140 1 is_stmt 1
	.cfi_startproc
.LVL6:
	.loc 1 141 5
	.loc 1 141 8 is_stmt 0
	lbu	a5,0(a0)
	andi	a5,a5,15
	addi	a5,a5,-2
	andi	a5,a5,253
	bne	a5,zero,.L8
	.loc 1 142 9 is_stmt 1
	.loc 1 140 1 is_stmt 0
	addi	sp,sp,-16
	.cfi_def_cfa_offset 16
	sw	ra,12(sp)
	.cfi_offset 1, -4
	.loc 1 142 9
	call	SFlash_Qspi_Enable
.LVL7:
	.loc 1 145 5 is_stmt 1
	.loc 1 146 1 is_stmt 0
	lw	ra,12(sp)
	.cfi_restore 1
	li	a0,0
	addi	sp,sp,16
	.cfi_def_cfa_offset 0
	jr	ra
.LVL8:
.L8:
	.loc 1 145 5 is_stmt 1
	.loc 1 146 1 is_stmt 0
	li	a0,0
.LVL9:
	ret
	.cfi_endproc
.LFE10:
	.size	flash_set_qspi_enable, .-flash_set_qspi_enable
	.section	.tcm_code./mnt/d/GitHub/bl_iot_sdk_for_aithinker/components/platform/hosal/bl602_hal/bl_flash.c153,"ax",@progbits
	.align	1
	.globl	flash_set_l1c_wrap
	.type	flash_set_l1c_wrap, @function
flash_set_l1c_wrap:
.LFB11:
	.loc 1 154 1 is_stmt 1
	.cfi_startproc
.LVL10:
	.loc 1 155 5
	.loc 1 154 1 is_stmt 0
	addi	sp,sp,-16
	.cfi_def_cfa_offset 16
	sw	ra,12(sp)
	sw	s0,8(sp)
	.cfi_offset 1, -4
	.cfi_offset 8, -8
	.loc 1 155 37
	lbu	a5,0(a0)
	srli	a5,a5,4
	.loc 1 155 8
	andi	a5,a5,1
	beq	a5,zero,.L12
	.loc 1 156 9 is_stmt 1
	li	a0,0
.LVL11:
	call	L1C_Set_Wrap
.LVL12:
.L13:
	.loc 1 164 5
	.loc 1 165 1 is_stmt 0
	lw	ra,12(sp)
	.cfi_remember_state
	.cfi_restore 1
	lw	s0,8(sp)
	.cfi_restore 8
	li	a0,0
	addi	sp,sp,16
	.cfi_def_cfa_offset 0
	jr	ra
.LVL13:
.L12:
	.cfi_restore_state
	mv	s0,a0
	.loc 1 158 9 is_stmt 1
	li	a0,1
.LVL14:
	call	L1C_Set_Wrap
.LVL15:
	.loc 1 159 9
	.loc 1 159 12 is_stmt 0
	lbu	a5,0(s0)
	andi	a5,a5,15
	addi	a5,a5,-2
	andi	a5,a5,253
	bne	a5,zero,.L13
	.loc 1 160 13 is_stmt 1
	mv	a0,s0
	call	SFlash_SetBurstWrap
.LVL16:
	j	.L13
	.cfi_endproc
.LFE11:
	.size	flash_set_l1c_wrap, .-flash_set_l1c_wrap
	.section	.tcm_code./mnt/d/GitHub/bl_iot_sdk_for_aithinker/components/platform/hosal/bl602_hal/bl_flash.c172,"ax",@progbits
	.align	1
	.globl	flash_get_clkdelay_from_bootheader
	.type	flash_get_clkdelay_from_bootheader, @function
flash_get_clkdelay_from_bootheader:
.LFB12:
	.loc 1 173 1
	.cfi_startproc
.LVL17:
	.loc 1 174 5
	.loc 1 175 5
	.loc 1 176 5
	.loc 1 177 5
	.loc 1 173 1 is_stmt 0
	addi	sp,sp,-208
	.cfi_def_cfa_offset 208
	sw	s0,200(sp)
	sw	ra,204(sp)
	.cfi_offset 8, -8
	.cfi_offset 1, -4
	.loc 1 179 5
	lbu	a1,0(a0)
	.loc 1 177 10
	li	a5,1195786240
	addi	a5,a5,838
	sw	a5,8(sp)
	.loc 1 179 5
	li	a2,0
	andi	a1,a1,15
	li	a5,92
	addi	a4,sp,100
	li	a3,8
	.loc 1 173 1
	mv	s0,a0
	.loc 1 177 10
	sb	zero,12(sp)
	.loc 1 179 5 is_stmt 1
	call	SFlash_Read
.LVL18:
	.loc 1 180 5
	.loc 1 180 8 is_stmt 0
	li	a2,4
	addi	a1,sp,8
	addi	a0,sp,100
	call	BL602_MemCmp
.LVL19:
	.loc 1 180 7
	beq	a0,zero,.L16
.L18:
	.loc 1 191 12
	li	a0,1
.L15:
	.loc 1 192 1
	lw	ra,204(sp)
	.cfi_remember_state
	.cfi_restore 1
	lw	s0,200(sp)
	.cfi_restore 8
.LVL20:
	addi	sp,sp,208
	.cfi_def_cfa_offset 0
	jr	ra
.LVL21:
.L16:
	.cfi_restore_state
	.loc 1 181 9 is_stmt 1
	.loc 1 181 13 is_stmt 0
	li	a1,84
	addi	a0,sp,104
	call	BFLB_Soft_CRC32
.LVL22:
	.loc 1 182 9 is_stmt 1
	.loc 1 183 9
	.loc 1 183 11 is_stmt 0
	lw	a5,188(sp)
	bne	a5,a0,.L18
	.loc 1 184 13 is_stmt 1
	li	a2,84
	addi	a1,sp,104
	addi	a0,sp,16
.LVL23:
	call	BL602_MemCpy_Fast
.LVL24:
	.loc 1 185 13
	.loc 1 185 35 is_stmt 0
	lbu	a5,18(sp)
	.loc 1 187 20
	li	a0,0
	.loc 1 185 35
	sb	a5,2(s0)
	.loc 1 186 13 is_stmt 1
	.loc 1 186 36 is_stmt 0
	lbu	a5,19(sp)
	sb	a5,3(s0)
	.loc 1 187 13 is_stmt 1
	.loc 1 187 20 is_stmt 0
	j	.L15
	.cfi_endproc
.LFE12:
	.size	flash_get_clkdelay_from_bootheader, .-flash_get_clkdelay_from_bootheader
	.section	.tcm_code./mnt/d/GitHub/bl_iot_sdk_for_aithinker/components/platform/hosal/bl602_hal/bl_flash.c233,"ax",@progbits
	.align	1
	.globl	bl_flash_init
	.type	bl_flash_init, @function
bl_flash_init:
.LFB14:
	.loc 1 234 1 is_stmt 1
	.cfi_startproc
	.loc 1 235 5
.LVL25:
	.loc 1 236 5
	.loc 1 234 1 is_stmt 0
	addi	sp,sp,-48
	.cfi_def_cfa_offset 48
	sw	ra,44(sp)
	sw	s0,40(sp)
	sw	s1,36(sp)
	sw	s2,32(sp)
	sw	s3,28(sp)
	.cfi_offset 1, -4
	.cfi_offset 8, -8
	.cfi_offset 9, -12
	.cfi_offset 18, -16
	.cfi_offset 19, -20
	.loc 1 236 14
	sw	zero,4(sp)
	.loc 1 238 5 is_stmt 1
.LVL26:
.LBB6:
.LBB7:
	.loc 1 201 5
	.loc 1 202 5
	.loc 1 202 13 is_stmt 0
	sb	zero,3(sp)
	.loc 1 203 5 is_stmt 1
	.loc 1 203 14 is_stmt 0
	sw	zero,8(sp)
	.loc 1 204 5 is_stmt 1
	.loc 1 204 14 is_stmt 0
	sw	zero,12(sp)
	.loc 1 206 5 is_stmt 1
.LBB8:
	.loc 1 206 14
	.loc 1 206 48 is_stmt 0
	call	bl_irq_save
.LVL27:
	mv	s2,a0
.LVL28:
	.loc 1 206 62 is_stmt 1
	.loc 1 207 5
	addi	a0,sp,3
.LVL29:
	call	XIP_SFlash_Opt_Enter
.LVL30:
	.loc 1 208 5
	lui	s0,%hi(.LANCHOR0)
	addi	a1,sp,12
	addi	a0,s0,%lo(.LANCHOR0)
	call	XIP_SFlash_State_Save_Ext
.LVL31:
	.loc 1 209 5
	addi	a1,sp,8
	addi	a0,s0,%lo(.LANCHOR0)
	call	SFlash_GetJedecId
.LVL32:
	.loc 1 210 5
	li	a2,3
	addi	a1,sp,8
	addi	a0,sp,4
.LVL33:
	call	arch_memcpy
.LVL34:
	.loc 1 211 5
	.loc 1 211 9 is_stmt 0
	lw	a5,8(sp)
	.loc 1 212 11
	addi	a1,s0,%lo(.LANCHOR0)
	.loc 1 211 9
	slli	a5,a5,8
	srli	a0,a5,8
	sw	a0,8(sp)
	.loc 1 212 5 is_stmt 1
	.loc 1 212 11 is_stmt 0
	call	SF_Cfg_Get_Flash_Cfg_Need_Lock_Ext
.LVL35:
	mv	s1,a0
.LVL36:
	.loc 1 213 5 is_stmt 1
	.loc 1 213 8 is_stmt 0
	bne	a0,zero,.L21
	.loc 1 214 26
	lw	a5,8(sp)
	addi	s3,s0,%lo(.LANCHOR0)
	.loc 1 214 9 is_stmt 1
	.loc 1 214 26 is_stmt 0
	sb	a5,13(s3)
.L21:
	.loc 1 216 5 is_stmt 1
	addi	a0,s0,%lo(.LANCHOR0)
	call	flash_get_clkdelay_from_bootheader
.LVL37:
	.loc 1 219 5
	addi	a0,s0,%lo(.LANCHOR0)
	call	flash_set_qspi_enable
.LVL38:
	.loc 1 220 5
	addi	a0,s0,%lo(.LANCHOR0)
	call	flash_set_l1c_wrap
.LVL39:
	.loc 1 221 5
	lw	a1,12(sp)
	addi	a0,s0,%lo(.LANCHOR0)
	call	XIP_SFlash_State_Restore_Ext
.LVL40:
	.loc 1 222 5
	lbu	a0,3(sp)
	call	XIP_SFlash_Opt_Exit
.LVL41:
	.loc 1 223 5
	mv	a0,s2
	call	bl_irq_restore
.LVL42:
.LBE8:
	.loc 1 223 52
	.loc 1 225 5
.LBE7:
.LBE6:
	.loc 1 247 5
	.loc 1 248 1 is_stmt 0
	lw	ra,44(sp)
	.cfi_restore 1
	lw	s0,40(sp)
	.cfi_restore 8
	lw	s2,32(sp)
	.cfi_restore 18
	lw	s3,28(sp)
	.cfi_restore 19
	mv	a0,s1
	lw	s1,36(sp)
	.cfi_restore 9
.LVL43:
	addi	sp,sp,48
	.cfi_def_cfa_offset 0
	jr	ra
	.cfi_endproc
.LFE14:
	.size	bl_flash_init, .-bl_flash_init
	.section	.tcm_code./mnt/d/GitHub/bl_iot_sdk_for_aithinker/components/platform/hosal/bl602_hal/bl_flash.c260,"ax",@progbits
	.align	1
	.globl	bl_flash_erase
	.type	bl_flash_erase, @function
bl_flash_erase:
.LFB15:
	.loc 1 261 1 is_stmt 1
	.cfi_startproc
.LVL44:
	.loc 1 262 5
	.loc 1 265 5
	.loc 1 261 1 is_stmt 0
	addi	sp,sp,-48
	.cfi_def_cfa_offset 48
	sw	s2,32(sp)
	.cfi_offset 18, -16
	.loc 1 265 25
	lui	s2,%hi(.LANCHOR0)
	.loc 1 261 1
	sw	ra,44(sp)
	sw	s0,40(sp)
	sw	s1,36(sp)
	sw	s3,28(sp)
	.cfi_offset 1, -4
	.cfi_offset 8, -8
	.cfi_offset 9, -12
	.cfi_offset 19, -20
	.loc 1 265 25
	addi	a5,s2,%lo(.LANCHOR0)
	.loc 1 265 8
	lbu	a5,13(a5)
	beq	a5,zero,.L25
	mv	s3,a1
	.loc 1 269 5 is_stmt 1 discriminator 1
.LBB9:
	.loc 1 269 14 discriminator 1
	mv	s0,a0
	.loc 1 269 48 is_stmt 0 discriminator 1
	call	bl_irq_save
.LVL45:
	mv	s1,a0
.LVL46:
	.loc 1 269 62 is_stmt 1 discriminator 1
	.loc 1 270 5 discriminator 1
	addi	a0,s2,%lo(.LANCHOR0)
	call	XIP_SFlash_Clear_Status_Register_Need_Lock
.LVL47:
	.loc 1 278 5 discriminator 1
	addi	a0,sp,15
	call	XIP_SFlash_Opt_Enter
.LVL48:
	.loc 1 279 5 discriminator 1
	.loc 1 279 115 is_stmt 0 discriminator 1
	li	a5,553717760
	.loc 1 279 6 discriminator 1
	lw	a5,-1396(a5)
	addi	a2,s0,-1
	add	a2,a2,s3
	mv	a1,s0
	addi	a0,s2,%lo(.LANCHOR0)
	jalr	a5
.LVL49:
	.loc 1 284 5 is_stmt 1 discriminator 1
	lbu	a0,15(sp)
	call	XIP_SFlash_Opt_Exit
.LVL50:
	.loc 1 286 5 discriminator 1
	mv	a0,s1
	call	bl_irq_restore
.LVL51:
.LBE9:
	.loc 1 286 52 discriminator 1
	.loc 1 288 5 discriminator 1
	.loc 1 288 12 is_stmt 0 discriminator 1
	li	a0,0
.LVL52:
.L23:
	.loc 1 289 1
	lw	ra,44(sp)
	.cfi_remember_state
	.cfi_restore 1
	lw	s0,40(sp)
	.cfi_restore 8
	lw	s1,36(sp)
	.cfi_restore 9
	lw	s2,32(sp)
	.cfi_restore 18
	lw	s3,28(sp)
	.cfi_restore 19
	addi	sp,sp,48
	.cfi_def_cfa_offset 0
	jr	ra
.LVL53:
.L25:
	.cfi_restore_state
	.loc 1 266 16
	li	a0,-1
.LVL54:
	j	.L23
	.cfi_endproc
.LFE15:
	.size	bl_flash_erase, .-bl_flash_erase
	.section	.tcm_code./mnt/d/GitHub/bl_iot_sdk_for_aithinker/components/platform/hosal/bl602_hal/bl_flash.c291,"ax",@progbits
	.align	1
	.globl	bl_flash_write
	.type	bl_flash_write, @function
bl_flash_write:
.LFB16:
	.loc 1 292 1 is_stmt 1
	.cfi_startproc
.LVL55:
	.loc 1 293 5
	.loc 1 296 5
	.loc 1 292 1 is_stmt 0
	addi	sp,sp,-64
	.cfi_def_cfa_offset 64
	sw	s1,52(sp)
	.cfi_offset 9, -12
	.loc 1 296 25
	lui	s1,%hi(.LANCHOR0)
	.loc 1 292 1
	sw	ra,60(sp)
	sw	s0,56(sp)
	sw	s2,48(sp)
	sw	s3,44(sp)
	.cfi_offset 1, -4
	.cfi_offset 8, -8
	.cfi_offset 18, -16
	.cfi_offset 19, -20
	.loc 1 296 25
	addi	a5,s1,%lo(.LANCHOR0)
	.loc 1 296 8
	lbu	a5,13(a5)
	.loc 1 292 1
	sw	a2,12(sp)
	.loc 1 296 8
	beq	a5,zero,.L29
	mv	s3,a1
	.loc 1 300 5 is_stmt 1 discriminator 1
.LBB10:
	.loc 1 300 14 discriminator 1
	mv	s2,a0
	.loc 1 300 48 is_stmt 0 discriminator 1
	call	bl_irq_save
.LVL56:
	mv	s0,a0
.LVL57:
	.loc 1 300 62 is_stmt 1 discriminator 1
	.loc 1 301 5 discriminator 1
	addi	a0,s1,%lo(.LANCHOR0)
	call	XIP_SFlash_Clear_Status_Register_Need_Lock
.LVL58:
	.loc 1 310 5 discriminator 1
	addi	a0,sp,31
	call	XIP_SFlash_Opt_Enter
.LVL59:
	.loc 1 311 5 discriminator 1
	.loc 1 311 121 is_stmt 0 discriminator 1
	li	a5,553717760
	.loc 1 311 6 discriminator 1
	lw	a5,-1392(a5)
	lw	a3,12(sp)
	mv	a2,s3
	mv	a1,s2
	addi	a0,s1,%lo(.LANCHOR0)
	jalr	a5
.LVL60:
	.loc 1 317 5 is_stmt 1 discriminator 1
	lbu	a0,31(sp)
	call	XIP_SFlash_Opt_Exit
.LVL61:
	.loc 1 319 5 discriminator 1
	mv	a0,s0
	call	bl_irq_restore
.LVL62:
.LBE10:
	.loc 1 319 52 discriminator 1
	.loc 1 321 5 discriminator 1
	.loc 1 321 12 is_stmt 0 discriminator 1
	li	a0,0
.LVL63:
.L27:
	.loc 1 322 1
	lw	ra,60(sp)
	.cfi_remember_state
	.cfi_restore 1
	lw	s0,56(sp)
	.cfi_restore 8
	lw	s1,52(sp)
	.cfi_restore 9
	lw	s2,48(sp)
	.cfi_restore 18
	lw	s3,44(sp)
	.cfi_restore 19
	addi	sp,sp,64
	.cfi_def_cfa_offset 0
.LVL64:
	jr	ra
.LVL65:
.L29:
	.cfi_restore_state
	.loc 1 297 16
	li	a0,-1
.LVL66:
	j	.L27
	.cfi_endproc
.LFE16:
	.size	bl_flash_write, .-bl_flash_write
	.section	.tcm_code./mnt/d/GitHub/bl_iot_sdk_for_aithinker/components/platform/hosal/bl602_hal/bl_flash.c324,"ax",@progbits
	.align	1
	.globl	bl_flash_read
	.type	bl_flash_read, @function
bl_flash_read:
.LFB17:
	.loc 1 325 1 is_stmt 1
	.cfi_startproc
.LVL67:
	.loc 1 326 5
	.loc 1 329 5
	.loc 1 325 1 is_stmt 0
	addi	sp,sp,-64
	.cfi_def_cfa_offset 64
	sw	s3,44(sp)
	.cfi_offset 19, -20
	.loc 1 329 25
	lui	s3,%hi(.LANCHOR0)
	.loc 1 325 1
	sw	ra,60(sp)
	sw	s0,56(sp)
	sw	s1,52(sp)
	sw	s2,48(sp)
	.cfi_offset 1, -4
	.cfi_offset 8, -8
	.cfi_offset 9, -12
	.cfi_offset 18, -16
	.loc 1 329 25
	addi	a5,s3,%lo(.LANCHOR0)
	.loc 1 329 8
	lbu	a5,13(a5)
	.loc 1 325 1
	sw	a2,12(sp)
	.loc 1 329 8
	beq	a5,zero,.L33
	mv	s2,a1
	.loc 1 333 5 is_stmt 1 discriminator 1
.LBB11:
	.loc 1 333 14 discriminator 1
	mv	s1,a0
	.loc 1 333 48 is_stmt 0 discriminator 1
	call	bl_irq_save
.LVL68:
	mv	s0,a0
.LVL69:
	.loc 1 333 62 is_stmt 1 discriminator 1
	.loc 1 342 5 discriminator 1
	addi	a0,sp,31
	call	XIP_SFlash_Opt_Enter
.LVL70:
	.loc 1 343 5 discriminator 1
	.loc 1 343 121 is_stmt 0 discriminator 1
	li	a5,553717760
	.loc 1 343 6 discriminator 1
	lw	a5,-1388(a5)
	lw	a3,12(sp)
	mv	a2,s2
	mv	a1,s1
	addi	a0,s3,%lo(.LANCHOR0)
	jalr	a5
.LVL71:
	.loc 1 349 5 is_stmt 1 discriminator 1
	lbu	a0,31(sp)
	call	XIP_SFlash_Opt_Exit
.LVL72:
	.loc 1 351 5 discriminator 1
	mv	a0,s0
	call	bl_irq_restore
.LVL73:
.LBE11:
	.loc 1 351 52 discriminator 1
	.loc 1 353 5 discriminator 1
	.loc 1 353 12 is_stmt 0 discriminator 1
	li	a0,0
.LVL74:
.L31:
	.loc 1 354 1
	lw	ra,60(sp)
	.cfi_remember_state
	.cfi_restore 1
	lw	s0,56(sp)
	.cfi_restore 8
	lw	s1,52(sp)
	.cfi_restore 9
	lw	s2,48(sp)
	.cfi_restore 18
	lw	s3,44(sp)
	.cfi_restore 19
	addi	sp,sp,64
	.cfi_def_cfa_offset 0
.LVL75:
	jr	ra
.LVL76:
.L33:
	.cfi_restore_state
	.loc 1 330 16
	li	a0,-1
.LVL77:
	j	.L31
	.cfi_endproc
.LFE17:
	.size	bl_flash_read, .-bl_flash_read
	.section	.rodata.bl_flash_config_update.str1.4,"aMS",@progbits,1
	.align	2
.LC0:
	.string	"bl_flash.c"
	.align	2
.LC1:
	.string	"\033[32mINFO\033[0m"
	.align	2
.LC2:
	.string	"%s (%d)[%s:%4d] ======= FlashCfg magiccode @%p=======\r\n\r\n"
	.align	2
.LC3:
	.string	"%s (%d)[%s:%4d] mid \t\t0x%X\r\n\r\n"
	.align	2
.LC4:
	.string	"%s (%d)[%s:%4d] clkDelay \t0x%X\r\n\r\n"
	.align	2
.LC5:
	.string	"%s (%d)[%s:%4d] clkInvert \t0x%X\r\n\r\n"
	.align	2
.LC6:
	.string	"%s (%d)[%s:%4d] sector size\t%uKBytes\r\n\r\n"
	.align	2
.LC7:
	.string	"%s (%d)[%s:%4d] page size\t%uBytes\r\n\r\n"
	.align	2
.LC8:
	.string	"%s (%d)[%s:%4d] ---------------------------------------------------------------\r\n\r\n"
	.section	.text.bl_flash_config_update,"ax",@progbits
	.align	1
	.globl	bl_flash_config_update
	.type	bl_flash_config_update, @function
bl_flash_config_update:
.LFB19:
	.loc 1 372 1 is_stmt 1
	.cfi_startproc
	.loc 1 373 5
.LBB14:
.LBB15:
	.loc 1 358 5
	.loc 1 360 5
	.loc 1 362 5
	.loc 1 362 43
	.loc 1 362 48
.LBE15:
.LBE14:
	.loc 1 372 1 is_stmt 0
	addi	sp,sp,-32
	.cfi_def_cfa_offset 32
	sw	s2,16(sp)
	.cfi_offset 18, -16
.LBB19:
.LBB16:
	.loc 1 362 69
	lui	s2,%hi(_fsymc_level_hosal)
	.loc 1 362 51
	lw	a4,%lo(_fsymc_level_hosal)(s2)
.LBE16:
.LBE19:
	.loc 1 372 1
	sw	ra,28(sp)
	sw	s0,24(sp)
	sw	s1,20(sp)
	sw	s3,12(sp)
	sw	s4,8(sp)
	.cfi_offset 1, -4
	.cfi_offset 8, -8
	.cfi_offset 9, -12
	.cfi_offset 19, -20
	.cfi_offset 20, -24
.LBB20:
.LBB17:
	.loc 1 362 51
	li	a5,2
	bgtu	a4,a5,.L74
	.loc 1 362 112
	lui	s3,%hi(_fsymf_level_hosalbl_flash)
	.loc 1 362 92
	lw	a4,%lo(_fsymf_level_hosalbl_flash)(s3)
	bgtu	a4,a5,.L74
	.loc 1 362 146 is_stmt 1
	.loc 1 362 251 is_stmt 0
	call	xPortIsInsideInterrupt
.LVL78:
	.loc 1 362 146
	beq	a0,zero,.L40
	.loc 1 362 280
	call	xTaskGetTickCountFromISR
.LVL79:
.L76:
	.loc 1 362 311
	mv	a2,a0
	.loc 1 362 146
	lui	a5,%hi(__boot2_flashCfg_src)
	lui	s1,%hi(.LC0)
	lui	s0,%hi(.LC1)
	lui	a0,%hi(.LC2)
	addi	a5,a5,%lo(__boot2_flashCfg_src)
	li	a4,362
	addi	a3,s1,%lo(.LC0)
	addi	a1,s0,%lo(.LC1)
	addi	a0,a0,%lo(.LC2)
	call	bl_printk
.LVL80:
	.loc 1 362 386 is_stmt 1
	.loc 1 362 397
	.loc 1 363 5
	.loc 1 363 43
	.loc 1 363 48
	.loc 1 363 51 is_stmt 0
	lw	a4,%lo(_fsymc_level_hosal)(s2)
	li	a5,2
	bgtu	a4,a5,.L74
	.loc 1 363 92
	lw	a4,%lo(_fsymf_level_hosalbl_flash)(s3)
	bleu	a4,a5,.L39
.L74:
	.loc 1 368 389 is_stmt 1
	.loc 1 368 400
.LBE17:
.LBE20:
	.loc 1 375 5
	.loc 1 376 1 is_stmt 0
	lw	ra,28(sp)
	.cfi_remember_state
	.cfi_restore 1
	lw	s0,24(sp)
	.cfi_restore 8
	lw	s1,20(sp)
	.cfi_restore 9
	lw	s2,16(sp)
	.cfi_restore 18
	lw	s3,12(sp)
	.cfi_restore 19
	lw	s4,8(sp)
	.cfi_restore 20
	li	a0,0
	addi	sp,sp,32
	.cfi_def_cfa_offset 0
	jr	ra
.L40:
	.cfi_restore_state
.LBB21:
.LBB18:
	.loc 1 362 311
	call	xTaskGetTickCount
.LVL81:
	j	.L76
.L39:
	.loc 1 363 146 is_stmt 1
	.loc 1 363 226 is_stmt 0
	call	xPortIsInsideInterrupt
.LVL82:
	.loc 1 363 146
	beq	a0,zero,.L45
	.loc 1 363 255
	call	xTaskGetTickCountFromISR
.LVL83:
.L77:
	.loc 1 363 338
	lui	s4,%hi(.LANCHOR0)
	addi	a5,s4,%lo(.LANCHOR0)
	.loc 1 363 146
	lbu	a5,13(a5)
	.loc 1 363 286
	mv	a2,a0
	.loc 1 363 146
	lui	a0,%hi(.LC3)
	li	a4,363
	addi	a3,s1,%lo(.LC0)
	addi	a1,s0,%lo(.LC1)
	addi	a0,a0,%lo(.LC3)
	call	bl_printk
.LVL84:
	.loc 1 363 355 is_stmt 1
	.loc 1 363 366
	.loc 1 364 5
	.loc 1 364 43
	.loc 1 364 48
	.loc 1 364 51 is_stmt 0
	lw	a4,%lo(_fsymc_level_hosal)(s2)
	li	a5,2
	addi	s4,s4,%lo(.LANCHOR0)
	bgtu	a4,a5,.L74
	.loc 1 364 92
	lw	a4,%lo(_fsymf_level_hosalbl_flash)(s3)
	bgtu	a4,a5,.L74
	.loc 1 364 146 is_stmt 1
	.loc 1 364 229 is_stmt 0
	call	xPortIsInsideInterrupt
.LVL85:
	.loc 1 364 146
	beq	a0,zero,.L51
	.loc 1 364 258
	call	xTaskGetTickCountFromISR
.LVL86:
.L78:
	.loc 1 364 146
	lbu	a5,2(s4)
	.loc 1 364 289
	mv	a2,a0
	.loc 1 364 146
	lui	a0,%hi(.LC4)
	li	a4,364
	addi	a3,s1,%lo(.LC0)
	addi	a1,s0,%lo(.LC1)
	addi	a0,a0,%lo(.LC4)
	call	bl_printk
.LVL87:
	.loc 1 364 363 is_stmt 1
	.loc 1 364 374
	.loc 1 365 5
	.loc 1 365 43
	.loc 1 365 48
	.loc 1 365 51 is_stmt 0
	lw	a4,%lo(_fsymc_level_hosal)(s2)
	li	a5,2
	bgtu	a4,a5,.L74
	.loc 1 365 92
	lw	a4,%lo(_fsymf_level_hosalbl_flash)(s3)
	bgtu	a4,a5,.L74
	.loc 1 365 146 is_stmt 1
	.loc 1 365 230 is_stmt 0
	call	xPortIsInsideInterrupt
.LVL88:
	.loc 1 365 146
	beq	a0,zero,.L57
	.loc 1 365 259
	call	xTaskGetTickCountFromISR
.LVL89:
.L79:
	.loc 1 365 146
	lbu	a5,3(s4)
	.loc 1 365 290
	mv	a2,a0
	.loc 1 365 146
	lui	a0,%hi(.LC5)
	li	a4,365
	addi	a3,s1,%lo(.LC0)
	addi	a1,s0,%lo(.LC1)
	addi	a0,a0,%lo(.LC5)
	call	bl_printk
.LVL90:
	.loc 1 365 365 is_stmt 1
	.loc 1 365 376
	.loc 1 366 5
	.loc 1 366 43
	.loc 1 366 48
	.loc 1 366 51 is_stmt 0
	lw	a4,%lo(_fsymc_level_hosal)(s2)
	li	a5,2
	bgtu	a4,a5,.L74
	.loc 1 366 92
	lw	a4,%lo(_fsymf_level_hosalbl_flash)(s3)
	bgtu	a4,a5,.L74
	.loc 1 366 146 is_stmt 1
	.loc 1 366 235 is_stmt 0
	call	xPortIsInsideInterrupt
.LVL91:
	.loc 1 366 146
	beq	a0,zero,.L63
	.loc 1 366 264
	call	xTaskGetTickCountFromISR
.LVL92:
.L80:
	.loc 1 366 146
	lbu	a5,12(s4)
	.loc 1 366 295
	mv	a2,a0
	.loc 1 366 146
	lui	a0,%hi(.LC6)
	li	a4,366
	addi	a3,s1,%lo(.LC0)
	addi	a1,s0,%lo(.LC1)
	addi	a0,a0,%lo(.LC6)
	call	bl_printk
.LVL93:
	.loc 1 366 371 is_stmt 1
	.loc 1 366 382
	.loc 1 367 5
	.loc 1 367 43
	.loc 1 367 48
	.loc 1 367 51 is_stmt 0
	lw	a4,%lo(_fsymc_level_hosal)(s2)
	li	a5,2
	bgtu	a4,a5,.L74
	.loc 1 367 92
	lw	a4,%lo(_fsymf_level_hosalbl_flash)(s3)
	bgtu	a4,a5,.L74
	.loc 1 367 146 is_stmt 1
	.loc 1 367 232 is_stmt 0
	call	xPortIsInsideInterrupt
.LVL94:
	.loc 1 367 146
	beq	a0,zero,.L69
	.loc 1 367 261
	call	xTaskGetTickCountFromISR
.LVL95:
.L81:
	.loc 1 367 146
	lhu	a5,14(s4)
	.loc 1 367 292
	mv	a2,a0
	.loc 1 367 146
	lui	a0,%hi(.LC7)
	li	a4,367
	addi	a3,s1,%lo(.LC0)
	addi	a1,s0,%lo(.LC1)
	addi	a0,a0,%lo(.LC7)
	call	bl_printk
.LVL96:
	.loc 1 367 366 is_stmt 1
	.loc 1 367 377
	.loc 1 368 5
	.loc 1 368 43
	.loc 1 368 48
	.loc 1 368 51 is_stmt 0
	lw	a4,%lo(_fsymc_level_hosal)(s2)
	li	a5,2
	bgtu	a4,a5,.L74
	.loc 1 368 92
	lw	a4,%lo(_fsymf_level_hosalbl_flash)(s3)
	bgtu	a4,a5,.L74
	.loc 1 368 146 is_stmt 1
	.loc 1 368 277 is_stmt 0
	call	xPortIsInsideInterrupt
.LVL97:
	.loc 1 368 146
	beq	a0,zero,.L72
	.loc 1 368 306
	call	xTaskGetTickCountFromISR
.LVL98:
.L82:
	.loc 1 368 337
	mv	a2,a0
	.loc 1 368 146
	lui	a0,%hi(.LC8)
	li	a4,368
	addi	a3,s1,%lo(.LC0)
	addi	a1,s0,%lo(.LC1)
	addi	a0,a0,%lo(.LC8)
	call	bl_printk
.LVL99:
	j	.L74
.L45:
	.loc 1 363 286
	call	xTaskGetTickCount
.LVL100:
	j	.L77
.L51:
	.loc 1 364 289
	call	xTaskGetTickCount
.LVL101:
	j	.L78
.L57:
	.loc 1 365 290
	call	xTaskGetTickCount
.LVL102:
	j	.L79
.L63:
	.loc 1 366 295
	call	xTaskGetTickCount
.LVL103:
	j	.L80
.L69:
	.loc 1 367 292
	call	xTaskGetTickCount
.LVL104:
	j	.L81
.L72:
	.loc 1 368 337
	call	xTaskGetTickCount
.LVL105:
	j	.L82
.LBE18:
.LBE21:
	.cfi_endproc
.LFE19:
	.size	bl_flash_config_update, .-bl_flash_config_update
	.section	.text.bl_flash_get_flashCfg,"ax",@progbits
	.align	1
	.globl	bl_flash_get_flashCfg
	.type	bl_flash_get_flashCfg, @function
bl_flash_get_flashCfg:
.LFB20:
	.loc 1 379 1 is_stmt 1
	.cfi_startproc
	.loc 1 380 5
	.loc 1 380 12 is_stmt 0
	lui	a0,%hi(.LANCHOR0)
	.loc 1 381 1
	addi	a0,a0,%lo(.LANCHOR0)
	ret
	.cfi_endproc
.LFE20:
	.size	bl_flash_get_flashCfg, .-bl_flash_get_flashCfg
	.section	.text.bl_flash_read_byxip,"ax",@progbits
	.align	1
	.globl	bl_flash_read_byxip
	.type	bl_flash_read_byxip, @function
bl_flash_read_byxip:
.LFB21:
	.loc 1 384 1 is_stmt 1
	.cfi_startproc
.LVL106:
	.loc 1 385 5
	.loc 1 386 5
	.loc 1 388 5
	.loc 1 384 1 is_stmt 0
	addi	sp,sp,-32
	.cfi_def_cfa_offset 32
	sw	s0,24(sp)
	sw	s1,20(sp)
	sw	ra,28(sp)
	.cfi_offset 8, -8
	.cfi_offset 9, -12
	.cfi_offset 1, -4
	.loc 1 384 1
	sw	a2,12(sp)
	.loc 1 388 60
	li	a5,553717760
	.loc 1 388 15
	lw	a5,-1440(a5)
	.loc 1 384 1
	mv	s0,a0
	mv	s1,a1
	.loc 1 388 15
	jalr	a5
.LVL107:
	.loc 1 390 5 is_stmt 1
	.loc 1 390 8 is_stmt 0
	bgtu	a0,s0,.L86
	.loc 1 390 25 discriminator 1
	li	a4,16777216
	mv	a5,a0
	.loc 1 392 16 discriminator 1
	li	a0,-1
.LVL108:
	.loc 1 390 25 discriminator 1
	bgeu	s0,a4,.L84
	.loc 1 395 5 is_stmt 1
.LVL109:
	.loc 1 397 5
	lw	a2,12(sp)
	.loc 1 395 13 is_stmt 0
	li	a1,587202560
	add	a1,s0,a1
	.loc 1 397 5
	sub	a1,a1,a5
	mv	a0,s1
	call	memcpy
.LVL110:
	.loc 1 399 5 is_stmt 1
	.loc 1 399 12 is_stmt 0
	li	a0,0
.L84:
	.loc 1 400 1
	lw	ra,28(sp)
	.cfi_remember_state
	.cfi_restore 1
	lw	s0,24(sp)
	.cfi_restore 8
.LVL111:
	lw	s1,20(sp)
	.cfi_restore 9
.LVL112:
	addi	sp,sp,32
	.cfi_def_cfa_offset 0
.LVL113:
	jr	ra
.LVL114:
.L86:
	.cfi_restore_state
	.loc 1 392 16
	li	a0,-1
.LVL115:
	j	.L84
	.cfi_endproc
.LFE21:
	.size	bl_flash_read_byxip, .-bl_flash_read_byxip
	.globl	_fsymf_info_hosalbl_flash
	.section	.rodata.str1.4,"aMS",@progbits,1
	.align	2
.LC9:
	.string	"hosal.bl_flash"
	.comm	_fsymf_level_hosalbl_flash,4,4
	.align	2
.LC10:
	.string	"hosal"
	.weak	_fsymc_level_hosal
	.section	.data.g_flash_cfg,"aw"
	.align	2
	.set	.LANCHOR0,. + 0
	.type	g_flash_cfg, @object
	.size	g_flash_cfg, 84
g_flash_cfg:
	.byte	4
	.byte	1
	.byte	1
	.byte	1
	.byte	102
	.byte	-103
	.byte	-1
	.byte	3
	.byte	-97
	.byte	0
	.byte	-97
	.byte	0
	.byte	4
	.byte	-56
	.half	256
	.byte	-57
	.byte	32
	.byte	82
	.byte	-40
	.byte	6
	.byte	2
	.byte	50
	.byte	0
	.byte	11
	.byte	1
	.byte	11
	.byte	1
	.byte	59
	.byte	1
	.byte	-69
	.byte	0
	.byte	107
	.byte	1
	.byte	-21
	.byte	2
	.byte	-21
	.byte	2
	.byte	2
	.byte	80
	.byte	0
	.byte	1
	.byte	0
	.byte	1
	.byte	1
	.byte	0
	.byte	0
	.byte	1
	.byte	2
	.byte	1
	.byte	-85
	.byte	1
	.string	"\0055"
	.zero	1
	.string	"\001\001"
	.zero	1
	.byte	56
	.byte	-1
	.byte	-96
	.byte	-1
	.byte	119
	.byte	3
	.byte	2
	.byte	64
	.byte	119
	.byte	3
	.byte	2
	.byte	-16
	.half	300
	.half	1200
	.half	1200
	.half	5
	.half	20000
	.byte	20
	.byte	0
	.section	.sbss._fsymc_level_hosal,"aw",@nobits
	.align	2
	.type	_fsymc_level_hosal, @object
	.size	_fsymc_level_hosal, 4
_fsymc_level_hosal:
	.zero	4
	.section	.srodata.BLOG_HARD_DECLARE_DISABLE,"a"
	.align	2
	.type	BLOG_HARD_DECLARE_DISABLE, @object
	.size	BLOG_HARD_DECLARE_DISABLE, 4
BLOG_HARD_DECLARE_DISABLE:
	.zero	4
	.section	.static_blogcomponent_code.hosal,"a"
	.align	2
	.type	_fsymc_info_hosal, @object
	.size	_fsymc_info_hosal, 8
_fsymc_info_hosal:
	.word	_fsymc_level_hosal
	.word	.LC10
	.section	.static_blogfile_code.hosalbl_flash,"a"
	.align	2
	.type	_fsymf_info_hosalbl_flash, @object
	.size	_fsymf_info_hosalbl_flash, 8
_fsymf_info_hosalbl_flash:
	.word	_fsymf_level_hosalbl_flash
	.word	.LC9
	.text
.Letext0:
	.file 2 "/mnt/d/GitHub/bl_iot_sdk_for_aithinker/toolchain/riscv/Linux/lib/gcc/riscv64-unknown-elf/10.2.0/include/stdint-gcc.h"
	.file 3 "/mnt/d/GitHub/bl_iot_sdk_for_aithinker/components/platform/soc/bl602/bl602_std/bl602_std/StdDriver/Inc/bl602_common.h"
	.file 4 "/mnt/d/GitHub/bl_iot_sdk_for_aithinker/components/platform/soc/bl602/bl602_std/bl602_std/StdDriver/Inc/bl602_sf_ctrl.h"
	.file 5 "/mnt/d/GitHub/bl_iot_sdk_for_aithinker/components/platform/soc/bl602/bl602_std/bl602_std/StdDriver/Inc/bl602_sflash.h"
	.file 6 "/mnt/d/GitHub/bl_iot_sdk_for_aithinker/components/platform/soc/bl602/bl602_std/bl602_std/StdDriver/Inc/bl602_romdriver.h"
	.file 7 "/mnt/d/GitHub/bl_iot_sdk_for_aithinker/components/stage/blog/blog_type.h"
	.file 8 "/mnt/d/GitHub/bl_iot_sdk_for_aithinker/components/stage/blog/blog.h"
	.file 9 "/mnt/d/GitHub/bl_iot_sdk_for_aithinker/toolchain/riscv/Linux/riscv64-unknown-elf/include/string.h"
	.file 10 "/mnt/d/GitHub/bl_iot_sdk_for_aithinker/components/platform/soc/bl602/freertos_riscv_ram/portable/GCC/RISC-V/portmacro.h"
	.file 11 "/mnt/d/GitHub/bl_iot_sdk_for_aithinker/components/platform/soc/bl602/freertos_riscv_ram/config/task.h"
	.file 12 "/mnt/d/GitHub/bl_iot_sdk_for_aithinker/components/utils/include/utils_log.h"
	.file 13 "/mnt/d/GitHub/bl_iot_sdk_for_aithinker/components/platform/hosal/bl602_hal/bl_irq.h"
	.file 14 "/mnt/d/GitHub/bl_iot_sdk_for_aithinker/components/platform/soc/bl602/bl602_std/bl602_std/StdDriver/Inc/bl602_xip_sflash.h"
	.file 15 "/mnt/d/GitHub/bl_iot_sdk_for_aithinker/components/platform/soc/bl602/bl602_std/bl602_std/StdDriver/Inc/bl602_xip_sflash_ext.h"
	.file 16 "/mnt/d/GitHub/bl_iot_sdk_for_aithinker/components/platform/soc/bl602/bl602_std/bl602_std/StdDriver/Inc/bl602_sf_cfg_ext.h"
	.file 17 "/mnt/d/GitHub/bl_iot_sdk_for_aithinker/components/platform/soc/bl602/bl602_std/bl602_std/Common/soft_crc/softcrc.h"
	.file 18 "/mnt/d/GitHub/bl_iot_sdk_for_aithinker/components/platform/soc/bl602/bl602_std/bl602_std/StdDriver/Inc/bl602_l1c.h"