	.file	"bl_gpio_cli.c"
	.option nopic
	.attribute arch, "rv32i2p0_m2p0_f2p0_c2p0"
	.attribute unaligned_access, 0
	.attribute stack_align, 16
	.text
.Ltext0:
	.cfi_sections	.debug_frame
	.section	.rodata.cmd_gpio_get.str1.4,"aMS",@progbits,1
	.align	2
.LC0:
	.string	"Err"
	.align	2
.LC1:
	.string	"high"
	.align	2
.LC2:
	.string	"low"
	.align	2
.LC3:
	.string	"bl_gpio_cli.c"
	.align	2
.LC4:
	.string	"\033[32mINFO\033[0m"
	.align	2
.LC5:
	.string	"%s (%d)[%s:%4d] Usage: %s 24\r\n  get GPIO24 value\r\n\r\n"
	.align	2
.LC6:
	.string	"Illegal arg\r\n"
	.align	2
.LC7:
	.string	"%s (%d)[%s:%4d] GPIO%d val is %s\r\n\r\n"
	.section	.text.cmd_gpio_get,"ax",@progbits
	.align	1
	.type	cmd_gpio_get, @function
cmd_gpio_get:
.LFB6:
	.file 1 "/mnt/d/GitHub/bl_iot_sdk_for_aithinker/components/platform/hosal/bl602_hal/bl_gpio_cli.c"
	.loc 1 65 1
	.cfi_startproc
.LVL0:
	.loc 1 66 5
	.loc 1 67 5
	.loc 1 69 5
	.loc 1 70 5
	.loc 1 65 1 is_stmt 0
	addi	sp,sp,-32
	.cfi_def_cfa_offset 32
	sw	s0,24(sp)
	sw	ra,28(sp)
	sw	s1,20(sp)
	sw	s2,16(sp)
	.cfi_offset 8, -8
	.cfi_offset 1, -4
	.cfi_offset 9, -12
	.cfi_offset 18, -16
	.loc 1 70 8
	li	a5,2
	.loc 1 65 1
	mv	s0,a3
	.loc 1 70 8
	beq	a2,a5,.L2
	.loc 1 71 9 is_stmt 1 discriminator 1
	.loc 1 71 47 discriminator 1
	.loc 1 71 52 discriminator 1
	.loc 1 71 73 is_stmt 0 discriminator 1
	lui	a4,%hi(_fsymc_level_hosal)
	.loc 1 71 55 discriminator 1
	lw	a4,%lo(_fsymc_level_hosal)(a4)
	bgtu	a4,a5,.L1
	.loc 1 71 116 discriminator 3
	lui	a4,%hi(_fsymf_level_hosalbl_gpio_cli)
	.loc 1 71 96 discriminator 3
	lw	a4,%lo(_fsymf_level_hosalbl_gpio_cli)(a4)
	bgtu	a4,a5,.L1
	.loc 1 71 153 is_stmt 1 discriminator 5
	.loc 1 71 255 is_stmt 0 discriminator 5
	call	xPortIsInsideInterrupt
.LVL1:
	.loc 1 71 153 discriminator 5
	beq	a0,zero,.L4
	.loc 1 71 284 discriminator 7
	call	xTaskGetTickCountFromISR
.LVL2:
.L14:
	.loc 1 71 153 discriminator 8
	lw	a5,0(s0)
	.loc 1 86 1 discriminator 8
	lw	s0,24(sp)
	.cfi_remember_state
	.cfi_restore 8
.LVL3:
	lw	ra,28(sp)
	.cfi_restore 1
	lw	s1,20(sp)
	.cfi_restore 9
	lw	s2,16(sp)
	.cfi_restore 18
	.loc 1 71 315 discriminator 8
	mv	a2,a0
	.loc 1 71 153 discriminator 8
	lui	a3,%hi(.LC3)
	lui	a1,%hi(.LC4)
	lui	a0,%hi(.LC5)
	.loc 1 86 1 discriminator 8
	.loc 1 71 153 discriminator 8
	li	a4,71
	addi	a3,a3,%lo(.LC3)
	addi	a1,a1,%lo(.LC4)
	addi	a0,a0,%lo(.LC5)
	.loc 1 86 1 discriminator 8
	addi	sp,sp,32
	.cfi_def_cfa_offset 0
	.loc 1 71 153 discriminator 8
	tail	bl_printk
.LVL4:
.L4:
	.cfi_restore_state
	.loc 1 71 315 discriminator 8
	call	xTaskGetTickCount
.LVL5:
	j	.L14
.LVL6:
.L2:
	.loc 1 76 13
	lw	a0,4(a3)
.LVL7:
	mv	s1,a2
	.loc 1 76 5 is_stmt 1
	.loc 1 76 13 is_stmt 0
	call	atoi
.LVL8:
	mv	s0,a0
.LVL9:
	.loc 1 77 5 is_stmt 1
	.loc 1 77 8 is_stmt 0
	bge	a0,zero,.L6
	.loc 1 78 9 is_stmt 1
	.loc 1 86 1 is_stmt 0
	lw	s0,24(sp)
	.cfi_remember_state
	.cfi_restore 8
.LVL10:
	lw	ra,28(sp)
	.cfi_restore 1
	lw	s1,20(sp)
	.cfi_restore 9
.LVL11:
	lw	s2,16(sp)
	.cfi_restore 18
	.loc 1 78 9
	lui	a0,%hi(.LC6)
.LVL12:
	.loc 1 86 1
	.loc 1 78 9
	addi	a0,a0,%lo(.LC6)
	.loc 1 86 1
	addi	sp,sp,32
	.cfi_def_cfa_offset 0
	.loc 1 78 9
	tail	puts
.LVL13:
.L6:
	.cfi_restore_state
	.loc 1 81 5 is_stmt 1
	.loc 1 81 11 is_stmt 0
	addi	a1,sp,15
	andi	a0,a0,0xff
	call	bl_gpio_input_get
.LVL14:
	.loc 1 82 69
	lui	a5,%hi(_fsymc_level_hosal)
	.loc 1 82 51
	lw	a5,%lo(_fsymc_level_hosal)(a5)
	.loc 1 81 11
	mv	s2,a0
.LVL15:
	.loc 1 82 5 is_stmt 1
	.loc 1 82 43
	.loc 1 82 48
	.loc 1 82 51 is_stmt 0
	bgtu	a5,s1,.L1
	.loc 1 82 112 discriminator 3
	lui	a5,%hi(_fsymf_level_hosalbl_gpio_cli)
	.loc 1 82 92 discriminator 3
	lw	a5,%lo(_fsymf_level_hosalbl_gpio_cli)(a5)
	bgtu	a5,s1,.L1
	.loc 1 82 149 is_stmt 1 discriminator 5
	.loc 1 82 233 is_stmt 0 discriminator 5
	call	xPortIsInsideInterrupt
.LVL16:
	.loc 1 82 149 discriminator 5
	beq	a0,zero,.L7
	.loc 1 82 262 discriminator 7
	call	xTaskGetTickCountFromISR
.LVL17:
.L15:
	.loc 1 82 293 discriminator 8
	mv	a2,a0
	.loc 1 82 149 discriminator 8
	bne	s2,zero,.L11
	.loc 1 82 368 discriminator 11
	lbu	a5,15(sp)
	bne	a5,zero,.L12
	.loc 1 82 368
	lui	a6,%hi(.LC2)
	addi	a6,a6,%lo(.LC2)
.L9:
	.loc 1 82 149 discriminator 18
	lui	a3,%hi(.LC3)
	lui	a1,%hi(.LC4)
	lui	a0,%hi(.LC7)
	mv	a5,s0
	li	a4,82
	addi	a3,a3,%lo(.LC3)
	addi	a1,a1,%lo(.LC4)
	addi	a0,a0,%lo(.LC7)
	call	bl_printk
.LVL18:
	.loc 1 82 397 is_stmt 1 discriminator 18
	.loc 1 85 6 discriminator 18
.L1:
	.loc 1 86 1 is_stmt 0
	lw	ra,28(sp)
	.cfi_remember_state
	.cfi_restore 1
	lw	s0,24(sp)
	.cfi_restore 8
	lw	s1,20(sp)
	.cfi_restore 9
	lw	s2,16(sp)
	.cfi_restore 18
	addi	sp,sp,32
	.cfi_def_cfa_offset 0
	jr	ra
.LVL19:
.L7:
	.cfi_restore_state
	.loc 1 82 293 discriminator 8
	call	xTaskGetTickCount
.LVL20:
	j	.L15
.L11:
	.loc 1 82 149
	lui	a6,%hi(.LC0)
	addi	a6,a6,%lo(.LC0)
	j	.L9
.L12:
	.loc 1 82 368
	lui	a6,%hi(.LC1)
	addi	a6,a6,%lo(.LC1)
	j	.L9
	.cfi_endproc
.LFE6:
	.size	cmd_gpio_get, .-cmd_gpio_get
	.section	.rodata.cmd_gpio_set.str1.4,"aMS",@progbits,1
	.align	2
.LC8:
	.string	"lo"
	.align	2
.LC9:
	.string	"%s (%d)[%s:%4d] Usage: %s 24 1\r\n  set GPIO24 output to high\r\n\r\n"
	.align	2
.LC10:
	.string	"\033[31mERROR\033[0m"
	.align	2
.LC11:
	.string	"%s (%d)[%s:%4d] Illegal arg\r\n\r\n"
	.align	2
.LC12:
	.string	"%s (%d)[%s:%4d] GPIO%d is set to %s\r\n\r\n"
	.section	.text.cmd_gpio_set,"ax",@progbits
	.align	1
	.type	cmd_gpio_set, @function
cmd_gpio_set:
.LFB5:
	.loc 1 42 1 is_stmt 1
	.cfi_startproc
.LVL21:
	.loc 1 43 5
	.loc 1 45 5
	.loc 1 42 1 is_stmt 0
	addi	sp,sp,-16
	.cfi_def_cfa_offset 16
	sw	s1,4(sp)
	sw	s2,0(sp)
	sw	ra,12(sp)
	sw	s0,8(sp)
	.cfi_offset 9, -12
	.cfi_offset 18, -16
	.cfi_offset 1, -4
	.cfi_offset 8, -8
	.loc 1 45 8
	li	a5,3
	.loc 1 42 1
	mv	s1,a3
	lui	s2,%hi(_fsymc_level_hosal)
	.loc 1 45 8
	beq	a2,a5,.L17
	.loc 1 46 9 is_stmt 1 discriminator 1
	.loc 1 46 47 discriminator 1
	.loc 1 46 52 discriminator 1
	.loc 1 46 55 is_stmt 0 discriminator 1
	lw	a4,%lo(_fsymc_level_hosal)(s2)
	li	a5,2
	bgtu	a4,a5,.L16
	.loc 1 46 116 discriminator 3
	lui	a4,%hi(_fsymf_level_hosalbl_gpio_cli)
	.loc 1 46 96 discriminator 3
	lw	a4,%lo(_fsymf_level_hosalbl_gpio_cli)(a4)
	bgtu	a4,a5,.L16
	.loc 1 46 153 is_stmt 1 discriminator 5
	.loc 1 46 266 is_stmt 0 discriminator 5
	call	xPortIsInsideInterrupt
.LVL22:
	.loc 1 46 153 discriminator 5
	beq	a0,zero,.L21
	.loc 1 46 295 discriminator 7
	call	xTaskGetTickCountFromISR
.LVL23:
.L33:
	.loc 1 62 1 discriminator 8
	lw	s0,8(sp)
	.cfi_remember_state
	.cfi_restore 8
	.loc 1 46 153 discriminator 8
	lw	a5,0(s1)
	.loc 1 62 1 discriminator 8
	lw	ra,12(sp)
	.cfi_restore 1
	lw	s1,4(sp)
	.cfi_restore 9
.LVL24:
	lw	s2,0(sp)
	.cfi_restore 18
	.loc 1 46 326 discriminator 8
	mv	a2,a0
	.loc 1 46 153 discriminator 8
	lui	a3,%hi(.LC3)
	lui	a1,%hi(.LC4)
	lui	a0,%hi(.LC9)
	.loc 1 62 1 discriminator 8
	.loc 1 46 153 discriminator 8
	li	a4,46
	addi	a3,a3,%lo(.LC3)
	addi	a1,a1,%lo(.LC4)
	addi	a0,a0,%lo(.LC9)
	.loc 1 62 1 discriminator 8
	addi	sp,sp,16
	.cfi_def_cfa_offset 0
	.loc 1 46 153 discriminator 8
	tail	bl_printk
.LVL25:
.L21:
	.cfi_restore_state
	.loc 1 46 326 discriminator 8
	call	xTaskGetTickCount
.LVL26:
	j	.L33
.LVL27:
.L17:
	.loc 1 51 5 is_stmt 1
	.loc 1 51 13 is_stmt 0
	lw	a0,4(a3)
.LVL28:
	call	atoi
.LVL29:
	mv	s0,a0
.LVL30:
	.loc 1 52 5 is_stmt 1
	.loc 1 52 11 is_stmt 0
	lw	a0,8(s1)
	call	atoi
.LVL31:
	.loc 1 54 55
	lw	a4,%lo(_fsymc_level_hosal)(s2)
	.loc 1 52 11
	mv	s1,a0
.LVL32:
	.loc 1 53 5 is_stmt 1
	.loc 1 53 8 is_stmt 0
	blt	s0,zero,.L23
	.loc 1 53 19 discriminator 1
	bge	a0,zero,.L24
.L23:
	.loc 1 54 9 is_stmt 1 discriminator 1
	.loc 1 54 47 discriminator 1
	.loc 1 54 52 discriminator 1
	.loc 1 54 55 is_stmt 0 discriminator 1
	li	a5,4
	bgtu	a4,a5,.L16
	.loc 1 54 118 discriminator 3
	lui	a4,%hi(_fsymf_level_hosalbl_gpio_cli)
	.loc 1 54 97 discriminator 3
	lw	a4,%lo(_fsymf_level_hosalbl_gpio_cli)(a4)
	bgtu	a4,a5,.L16
	.loc 1 54 155 is_stmt 1 discriminator 5
	.loc 1 54 235 is_stmt 0 discriminator 5
	call	xPortIsInsideInterrupt
.LVL33:
	.loc 1 54 155 discriminator 5
	beq	a0,zero,.L25
	.loc 1 54 264 discriminator 7
	call	xTaskGetTickCountFromISR
.LVL34:
.L34:
	.loc 1 62 1 discriminator 8
	lw	s0,8(sp)
	.cfi_remember_state
	.cfi_restore 8
.LVL35:
	lw	ra,12(sp)
	.cfi_restore 1
	lw	s1,4(sp)
	.cfi_restore 9
.LVL36:
	lw	s2,0(sp)
	.cfi_restore 18
	.loc 1 54 295 discriminator 8
	mv	a2,a0
	.loc 1 54 155 discriminator 8
	lui	a3,%hi(.LC3)
	lui	a1,%hi(.LC10)
	lui	a0,%hi(.LC11)
	.loc 1 62 1 discriminator 8
	.loc 1 54 155 discriminator 8
	li	a4,54
	addi	a3,a3,%lo(.LC3)
	addi	a1,a1,%lo(.LC10)
	addi	a0,a0,%lo(.LC11)
	.loc 1 62 1 discriminator 8
	addi	sp,sp,16
	.cfi_def_cfa_offset 0
	.loc 1 54 155 discriminator 8
	tail	bl_printk
.LVL37:
.L25:
	.cfi_restore_state
	.loc 1 54 295 discriminator 8
	call	xTaskGetTickCount
.LVL38:
	j	.L34
.L24:
	.loc 1 57 5 is_stmt 1 discriminator 1
	.loc 1 57 43 discriminator 1
	.loc 1 57 48 discriminator 1
	.loc 1 57 51 is_stmt 0 discriminator 1
	li	a5,2
	bgtu	a4,a5,.L27
	.loc 1 57 112 discriminator 3
	lui	a4,%hi(_fsymf_level_hosalbl_gpio_cli)
	.loc 1 57 92 discriminator 3
	lw	a4,%lo(_fsymf_level_hosalbl_gpio_cli)(a4)
	bgtu	a4,a5,.L27
	.loc 1 57 149 is_stmt 1 discriminator 5
	.loc 1 57 236 is_stmt 0 discriminator 5
	call	xPortIsInsideInterrupt
.LVL39:
	.loc 1 57 149 discriminator 5
	beq	a0,zero,.L28
	.loc 1 57 265 discriminator 7
	call	xTaskGetTickCountFromISR
.LVL40:
.L35:
	.loc 1 57 296 discriminator 8
	mv	a2,a0
	.loc 1 57 149 discriminator 8
	bne	s1,zero,.L31
	.loc 1 57 149
	lui	a6,%hi(.LC8)
	addi	a6,a6,%lo(.LC8)
.L30:
	.loc 1 57 149 discriminator 14
	lui	a3,%hi(.LC3)
	lui	a1,%hi(.LC4)
	lui	a0,%hi(.LC12)
	mv	a5,s0
	li	a4,57
	addi	a3,a3,%lo(.LC3)
	addi	a1,a1,%lo(.LC4)
	addi	a0,a0,%lo(.LC12)
	call	bl_printk
.LVL41:
.L27:
	.loc 1 57 378 is_stmt 1 discriminator 15
	.loc 1 60 6 discriminator 15
	.loc 1 61 5 discriminator 15
	andi	a0,s0,0xff
	.loc 1 62 1 is_stmt 0 discriminator 15
	lw	s0,8(sp)
	.cfi_remember_state
	.cfi_restore 8
.LVL42:
	lw	ra,12(sp)
	.cfi_restore 1
	lw	s2,0(sp)
	.cfi_restore 18
	.loc 1 61 5 discriminator 15
	snez	a1,s1
	.loc 1 62 1 discriminator 15
	lw	s1,4(sp)
	.cfi_restore 9
.LVL43:
	addi	sp,sp,16
	.cfi_def_cfa_offset 0
	.loc 1 61 5 discriminator 15
	tail	bl_gpio_output_set
.LVL44:
.L28:
	.cfi_restore_state
	.loc 1 57 296 discriminator 8
	call	xTaskGetTickCount
.LVL45:
	j	.L35
.L31:
	.loc 1 57 149
	lui	a6,%hi(.LC1)
	addi	a6,a6,%lo(.LC1)
	j	.L30
.LVL46:
.L16:
	.loc 1 62 1
	lw	ra,12(sp)
	.cfi_restore 1
	lw	s0,8(sp)
	.cfi_restore 8
	lw	s1,4(sp)
	.cfi_restore 9
	lw	s2,0(sp)
	.cfi_restore 18
	addi	sp,sp,16
	.cfi_def_cfa_offset 0
	jr	ra
	.cfi_endproc
.LFE5:
	.size	cmd_gpio_set, .-cmd_gpio_set
	.section	.rodata.cmd_gpio_func.str1.4,"aMS",@progbits,1
	.align	2
.LC13:
	.string	"input"
	.align	2
.LC14:
	.string	"output"
	.align	2
.LC15:
	.string	"Active"
	.align	2
.LC16:
	.string	"null"
	.align	2
.LC17:
	.string	"%s (%d)[%s:%4d] Usage: %s 24 1 1 0\r\n  set GPIO24 to input with pullup\r\n\r\n"
	.align	2
.LC18:
	.string	"%s (%d)[%s:%4d] GPIO%d is set %s with %s pullup %s pulldown\r\n\r\n"
	.section	.text.cmd_gpio_func,"ax",@progbits
	.align	1
	.type	cmd_gpio_func, @function
cmd_gpio_func:
.LFB4:
	.loc 1 11 1 is_stmt 1
	.cfi_startproc
.LVL47:
	.loc 1 12 5
	.loc 1 14 5
	.loc 1 11 1 is_stmt 0
	addi	sp,sp,-48
	.cfi_def_cfa_offset 48
	sw	s1,36(sp)
	sw	s4,24(sp)
	sw	ra,44(sp)
	sw	s0,40(sp)
	sw	s2,32(sp)
	sw	s3,28(sp)
	.cfi_offset 9, -12
	.cfi_offset 20, -24
	.cfi_offset 1, -4
	.cfi_offset 8, -8
	.cfi_offset 18, -16
	.cfi_offset 19, -20
	.loc 1 14 8
	li	a5,5
	.loc 1 11 1
	mv	s1,a3
	lui	s4,%hi(_fsymc_level_hosal)
	.loc 1 14 8
	beq	a2,a5,.L37
	.loc 1 15 9 is_stmt 1 discriminator 1
	.loc 1 15 47 discriminator 1
	.loc 1 15 52 discriminator 1
	.loc 1 15 55 is_stmt 0 discriminator 1
	lw	a4,%lo(_fsymc_level_hosal)(s4)
	li	a5,2
	bgtu	a4,a5,.L36
	.loc 1 15 116 discriminator 3
	lui	a4,%hi(_fsymf_level_hosalbl_gpio_cli)
	.loc 1 15 96 discriminator 3
	lw	a4,%lo(_fsymf_level_hosalbl_gpio_cli)(a4)
	bgtu	a4,a5,.L36
	.loc 1 15 153 is_stmt 1 discriminator 5
	.loc 1 15 276 is_stmt 0 discriminator 5
	call	xPortIsInsideInterrupt
.LVL48:
	.loc 1 15 153 discriminator 5
	beq	a0,zero,.L41
	.loc 1 15 305 discriminator 7
	call	xTaskGetTickCountFromISR
.LVL49:
.L58:
	.loc 1 39 1 discriminator 8
	lw	s0,40(sp)
	.cfi_remember_state
	.cfi_restore 8
	.loc 1 15 153 discriminator 8
	lw	a5,0(s1)
	.loc 1 39 1 discriminator 8
	lw	ra,44(sp)
	.cfi_restore 1
	lw	s1,36(sp)
	.cfi_restore 9
.LVL50:
	lw	s2,32(sp)
	.cfi_restore 18
	lw	s3,28(sp)
	.cfi_restore 19
	lw	s4,24(sp)
	.cfi_restore 20
	.loc 1 15 336 discriminator 8
	mv	a2,a0
	.loc 1 15 153 discriminator 8
	lui	a3,%hi(.LC3)
	lui	a1,%hi(.LC4)
	lui	a0,%hi(.LC17)
	.loc 1 39 1 discriminator 8
	.loc 1 15 153 discriminator 8
	li	a4,15
	addi	a3,a3,%lo(.LC3)
	addi	a1,a1,%lo(.LC4)
	addi	a0,a0,%lo(.LC17)
	.loc 1 39 1 discriminator 8
	addi	sp,sp,48
	.cfi_def_cfa_offset 0
	.loc 1 15 153 discriminator 8
	tail	bl_printk
.LVL51:
.L41:
	.cfi_restore_state
	.loc 1 15 336 discriminator 8
	call	xTaskGetTickCount
.LVL52:
	j	.L58
.LVL53:
.L37:
	.loc 1 20 5 is_stmt 1
	.loc 1 20 13 is_stmt 0
	lw	a0,4(a3)
.LVL54:
	call	atoi
.LVL55:
	mv	s0,a0
.LVL56:
	.loc 1 21 5 is_stmt 1
	.loc 1 21 17 is_stmt 0
	lw	a0,8(s1)
	call	atoi
.LVL57:
	mv	s3,a0
.LVL58:
	.loc 1 22 5 is_stmt 1
	.loc 1 22 14 is_stmt 0
	lw	a0,12(s1)
.LVL59:
	call	atoi
.LVL60:
	mv	s2,a0
.LVL61:
	.loc 1 23 5 is_stmt 1
	.loc 1 23 16 is_stmt 0
	lw	a0,16(s1)
.LVL62:
	call	atoi
.LVL63:
	mv	s1,a0
.LVL64:
	.loc 1 24 5 is_stmt 1
	.loc 1 24 8 is_stmt 0
	blt	s0,zero,.L43
	.loc 1 24 19 discriminator 1
	blt	s3,zero,.L43
	.loc 1 24 36 discriminator 2
	blt	s2,zero,.L43
	.loc 1 24 50 discriminator 3
	bge	a0,zero,.L44
.L43:
	.loc 1 25 9 is_stmt 1 discriminator 1
	.loc 1 25 47 discriminator 1
	.loc 1 25 52 discriminator 1
	.loc 1 25 55 is_stmt 0 discriminator 1
	lw	a4,%lo(_fsymc_level_hosal)(s4)
	li	a5,4
	bgtu	a4,a5,.L36
	.loc 1 25 118 discriminator 3
	lui	a4,%hi(_fsymf_level_hosalbl_gpio_cli)
	.loc 1 25 97 discriminator 3
	lw	a4,%lo(_fsymf_level_hosalbl_gpio_cli)(a4)
	bgtu	a4,a5,.L36
	.loc 1 25 155 is_stmt 1 discriminator 5
	.loc 1 25 235 is_stmt 0 discriminator 5
	call	xPortIsInsideInterrupt
.LVL65:
	.loc 1 25 155 discriminator 5
	beq	a0,zero,.L45
	.loc 1 25 264 discriminator 7
	call	xTaskGetTickCountFromISR
.LVL66:
.L59:
	.loc 1 39 1 discriminator 8
	lw	s0,40(sp)
	.cfi_remember_state
	.cfi_restore 8
.LVL67:
	lw	ra,44(sp)
	.cfi_restore 1
	lw	s1,36(sp)
	.cfi_restore 9
.LVL68:
	lw	s2,32(sp)
	.cfi_restore 18
.LVL69:
	lw	s3,28(sp)
	.cfi_restore 19
.LVL70:
	lw	s4,24(sp)
	.cfi_restore 20
	.loc 1 25 295 discriminator 8
	mv	a2,a0
	.loc 1 25 155 discriminator 8
	lui	a3,%hi(.LC3)
	lui	a1,%hi(.LC10)
	lui	a0,%hi(.LC11)
	.loc 1 39 1 discriminator 8
	.loc 1 25 155 discriminator 8
	li	a4,25
	addi	a3,a3,%lo(.LC3)
	addi	a1,a1,%lo(.LC10)
	addi	a0,a0,%lo(.LC11)
	.loc 1 39 1 discriminator 8
	addi	sp,sp,48
	.cfi_def_cfa_offset 0
	.loc 1 25 155 discriminator 8
	tail	bl_printk
.LVL71:
.L45:
	.cfi_restore_state
	.loc 1 25 295 discriminator 8
	call	xTaskGetTickCount
.LVL72:
	j	.L59
.L44:
	.loc 1 28 5 is_stmt 1 discriminator 1
	.loc 1 28 43 discriminator 1
	.loc 1 28 48 discriminator 1
	.loc 1 28 51 is_stmt 0 discriminator 1
	lw	a4,%lo(_fsymc_level_hosal)(s4)
	li	a5,2
	bgtu	a4,a5,.L47
	.loc 1 28 112 discriminator 3
	lui	a4,%hi(_fsymf_level_hosalbl_gpio_cli)
	.loc 1 28 92 discriminator 3
	lw	a4,%lo(_fsymf_level_hosalbl_gpio_cli)(a4)
	bgtu	a4,a5,.L47
	.loc 1 28 149 is_stmt 1 discriminator 5
	.loc 1 28 260 is_stmt 0 discriminator 5
	call	xPortIsInsideInterrupt
.LVL73:
	.loc 1 28 149 discriminator 5
	beq	a0,zero,.L48
	.loc 1 28 289 discriminator 7
	call	xTaskGetTickCountFromISR
.LVL74:
.L60:
	.loc 1 28 320 discriminator 8
	mv	a2,a0
	.loc 1 28 149 discriminator 8
	bne	s3,zero,.L54
	.loc 1 28 149
	lui	a6,%hi(.LC14)
	addi	a6,a6,%lo(.LC14)
.L50:
	.loc 1 28 149 discriminator 14
	bne	s2,zero,.L55
	.loc 1 28 149
	lui	a7,%hi(.LC16)
	addi	a7,a7,%lo(.LC16)
.L51:
	.loc 1 28 149 discriminator 18
	bne	s1,zero,.L56
	.loc 1 28 149
	lui	a5,%hi(.LC16)
	addi	a5,a5,%lo(.LC16)
.L52:
	.loc 1 28 149 discriminator 22
	lui	a3,%hi(.LC3)
	lui	a1,%hi(.LC4)
	lui	a0,%hi(.LC18)
	sw	a5,0(sp)
	li	a4,28
	mv	a5,s0
	addi	a3,a3,%lo(.LC3)
	addi	a1,a1,%lo(.LC4)
	addi	a0,a0,%lo(.LC18)
	call	bl_printk
.LVL75:
.L47:
	.loc 1 28 471 is_stmt 1 discriminator 23
	.loc 1 33 6 discriminator 23
	.loc 1 34 5 discriminator 23
	.loc 1 35 9 is_stmt 0 discriminator 23
	andi	a0,s0,0xff
	snez	a1,s2
	snez	a2,s1
	.loc 1 34 8 discriminator 23
	beq	s3,zero,.L53
	.loc 1 35 9 is_stmt 1
	.loc 1 39 1 is_stmt 0
	lw	s0,40(sp)
	.cfi_remember_state
	.cfi_restore 8
.LVL76:
	lw	ra,44(sp)
	.cfi_restore 1
	lw	s1,36(sp)
	.cfi_restore 9
.LVL77:
	lw	s2,32(sp)
	.cfi_restore 18
.LVL78:
	lw	s3,28(sp)
	.cfi_restore 19
.LVL79:
	lw	s4,24(sp)
	.cfi_restore 20
	addi	sp,sp,48
	.cfi_def_cfa_offset 0
	.loc 1 35 9
	tail	bl_gpio_enable_input
.LVL80:
.L48:
	.cfi_restore_state
	.loc 1 28 320 discriminator 8
	call	xTaskGetTickCount
.LVL81:
	j	.L60
.L54:
	.loc 1 28 149
	lui	a6,%hi(.LC13)
	addi	a6,a6,%lo(.LC13)
	j	.L50
.L55:
	lui	a7,%hi(.LC15)
	addi	a7,a7,%lo(.LC15)
	j	.L51
.L56:
	lui	a5,%hi(.LC15)
	addi	a5,a5,%lo(.LC15)
	j	.L52
.L53:
	.loc 1 37 9 is_stmt 1
	.loc 1 39 1 is_stmt 0
	lw	s0,40(sp)
	.cfi_remember_state
	.cfi_restore 8
.LVL82:
	lw	ra,44(sp)
	.cfi_restore 1
	lw	s1,36(sp)
	.cfi_restore 9
.LVL83:
	lw	s2,32(sp)
	.cfi_restore 18
.LVL84:
	lw	s3,28(sp)
	.cfi_restore 19
.LVL85:
	lw	s4,24(sp)
	.cfi_restore 20
	addi	sp,sp,48
	.cfi_def_cfa_offset 0
	.loc 1 37 9
	tail	bl_gpio_enable_output
.LVL86:
.L36:
	.cfi_restore_state
	.loc 1 39 1
	lw	ra,44(sp)
	.cfi_restore 1
	lw	s0,40(sp)
	.cfi_restore 8
	lw	s1,36(sp)
	.cfi_restore 9
	lw	s2,32(sp)
	.cfi_restore 18
	lw	s3,28(sp)
	.cfi_restore 19
	lw	s4,24(sp)
	.cfi_restore 20
	addi	sp,sp,48
	.cfi_def_cfa_offset 0
	jr	ra
	.cfi_endproc
.LFE4:
	.size	cmd_gpio_func, .-cmd_gpio_func
	.section	.text.bl_gpio_cli_init,"ax",@progbits
	.align	1
	.globl	bl_gpio_cli_init
	.type	bl_gpio_cli_init, @function
bl_gpio_cli_init:
.LFB7:
	.loc 1 96 1 is_stmt 1
	.cfi_startproc
	.loc 1 101 5
	.loc 1 102 1 is_stmt 0
	li	a0,0
	ret
	.cfi_endproc
.LFE7:
	.size	bl_gpio_cli_init, .-bl_gpio_cli_init
	.section	.rodata.str1.4,"aMS",@progbits,1
	.align	2
.LC19:
	.string	"gpio-func"
	.align	2
.LC20:
	.string	"gpio-func pinnum 0/1[0:output, 1:input] 0/1[pullup] 0/1[pulldown]"
	.align	2
.LC21:
	.string	"gpio-set"
	.align	2
.LC22:
	.string	"gpio-set pinnum 0/1"
	.align	2
.LC23:
	.string	"gpio-get"
	.align	2
.LC24:
	.string	"gpio-get pinnum"
	.globl	_fsymf_info_hosalbl_gpio_cli
	.align	2
.LC25:
	.string	"hosal.bl_gpio_cli"
	.comm	_fsymf_level_hosalbl_gpio_cli,4,4
	.align	2
.LC26:
	.string	"hosal"
	.weak	_fsymc_level_hosal
	.section	.sbss._fsymc_level_hosal,"aw",@nobits
	.align	2
	.type	_fsymc_level_hosal, @object
	.size	_fsymc_level_hosal, 4
_fsymc_level_hosal:
	.zero	4
	.section	.srodata.BLOG_HARD_DECLARE_DISABLE,"a"
	.align	2
	.type	BLOG_HARD_DECLARE_DISABLE, @object
	.size	BLOG_HARD_DECLARE_DISABLE, 4
BLOG_HARD_DECLARE_DISABLE:
	.zero	4
	.section	.static_blogcomponent_code.hosal,"a"
	.align	2
	.type	_fsymc_info_hosal, @object
	.size	_fsymc_info_hosal, 8
_fsymc_info_hosal:
	.word	_fsymc_level_hosal
	.word	.LC26
	.section	.static_blogfile_code.hosalbl_gpio_cli,"a"
	.align	2
	.type	_fsymf_info_hosalbl_gpio_cli, @object
	.size	_fsymf_info_hosalbl_gpio_cli, 8
_fsymf_info_hosalbl_gpio_cli:
	.word	_fsymf_level_hosalbl_gpio_cli
	.word	.LC25
	.section	.static_cli_cmds,"a"
	.align	2
	.type	cmds_user, @object
	.size	cmds_user, 36
cmds_user:
	.word	.LC19
	.word	.LC20
	.word	cmd_gpio_func
	.word	.LC21
	.word	.LC22
	.word	cmd_gpio_set
	.word	.LC23
	.word	.LC24
	.word	cmd_gpio_get
	.text
.Letext0:
	.file 2 "/mnt/d/GitHub/bl_iot_sdk_for_aithinker/toolchain/riscv/Linux/riscv64-unknown-elf/include/machine/_default_types.h"
	.file 3 "/mnt/d/GitHub/bl_iot_sdk_for_aithinker/toolchain/riscv/Linux/riscv64-unknown-elf/include/sys/_stdint.h"
	.file 4 "/mnt/d/GitHub/bl_iot_sdk_for_aithinker/components/stage/cli/cli/include/cli.h"
	.file 5 "/mnt/d/GitHub/bl_iot_sdk_for_aithinker/components/stage/blog/blog_type.h"
	.file 6 "/mnt/d/GitHub/bl_iot_sdk_for_aithinker/components/stage/blog/blog.h"
	.file 7 "/mnt/d/GitHub/bl_iot_sdk_for_aithinker/components/platform/soc/bl602/freertos_riscv_ram/portable/GCC/RISC-V/portmacro.h"
	.file 8 "/mnt/d/GitHub/bl_iot_sdk_for_aithinker/components/platform/soc/bl602/freertos_riscv_ram/config/task.h"
	.file 9 "/mnt/d/GitHub/bl_iot_sdk_for_aithinker/components/utils/include/utils_log.h"
	.file 10 "/mnt/d/GitHub/bl_iot_sdk_for_aithinker/toolchain/riscv/Linux/riscv64-unknown-elf/include/stdlib.h"
	.file 11 "/mnt/d/GitHub/bl_iot_sdk_for_aithinker/toolchain/riscv/Linux/riscv64-unknown-elf/include/stdio.h"
	.file 12 "/mnt/d/GitHub/bl_iot_sdk_for_aithinker/components/platform/hosal/bl602_hal/bl_gpio.h"