	.file	"bl_gpio.c"
	.option nopic
	.attribute arch, "rv32i2p0_m2p0_f2p0_c2p0"
	.attribute unaligned_access, 0
	.attribute stack_align, 16
	.text
.Ltext0:
	.cfi_sections	.debug_frame
	.section	.text.gpio_interrupt_entry,"ax",@progbits
	.align	1
	.type	gpio_interrupt_entry, @function
gpio_interrupt_entry:
.LFB18:
	.file 1 "/mnt/d/GitHub/bl_iot_sdk_for_aithinker/components/platform/hosal/bl602_hal/bl_gpio.c"
	.loc 1 123 1
	.cfi_startproc
.LVL0:
	.loc 1 124 5
	.loc 1 126 5
	.loc 1 123 1 is_stmt 0
	addi	sp,sp,-16
	.cfi_def_cfa_offset 16
	sw	s0,8(sp)
	sw	s1,4(sp)
	sw	s2,0(sp)
	sw	ra,12(sp)
	.cfi_offset 8, -8
	.cfi_offset 9, -12
	.cfi_offset 18, -16
	.cfi_offset 1, -4
	.loc 1 123 1
	mv	s0,a0
.LBB18:
.LBB19:
	.loc 1 101 14
	li	s1,1
	.loc 1 102 13
	li	s2,1073741824
.LVL1:
.L2:
.LBE19:
.LBE18:
	.loc 1 126 11 is_stmt 1
	bne	s0,zero,.L6
	.loc 1 135 1 is_stmt 0
	lw	ra,12(sp)
	.cfi_remember_state
	.cfi_restore 1
	lw	s0,8(sp)
	.cfi_restore 8
.LVL2:
	lw	s1,4(sp)
	.cfi_restore 9
	lw	s2,0(sp)
	.cfi_restore 18
	addi	sp,sp,16
	.cfi_def_cfa_offset 0
	jr	ra
.LVL3:
.L6:
	.cfi_restore_state
	.loc 1 127 9 is_stmt 1
	.loc 1 127 46 is_stmt 0
	lbu	a0,12(s0)
.LVL4:
.LBB21:
.LBB20:
	.loc 1 98 5 is_stmt 1
	.loc 1 99 5
	.loc 1 101 5
	.loc 1 104 19 is_stmt 0
	lw	a5,424(s2)
	.loc 1 101 14
	sll	a4,s1,a0
.LVL5:
	.loc 1 102 5 is_stmt 1
	.loc 1 104 5
	.loc 1 104 19 is_stmt 0
	and	a5,a4,a5
	.loc 1 104 8
	bne	a4,a5,.L4
	.loc 1 105 9 is_stmt 1
.LVL6:
.LBE20:
.LBE21:
	.loc 1 128 9
	.loc 1 129 13
.LBB22:
.LBB23:
	.loc 1 112 5
.LBB24:
.LBB25:
	.loc 1 72 5
	li	a1,1
	call	GLB_GPIO_IntMask
.LVL7:
.LBE25:
.LBE24:
	.loc 1 114 5
	.loc 1 114 16 is_stmt 0
	lw	a5,4(s0)
	.loc 1 114 8
	beq	a5,zero,.L4
	.loc 1 115 9 is_stmt 1
	mv	a0,s0
	jalr	a5
.LVL8:
	.loc 1 116 9
.L4:
.LBE23:
.LBE22:
	.loc 1 132 9
	.loc 1 132 17 is_stmt 0
	lw	s0,0(s0)
.LVL9:
	j	.L2
	.cfi_endproc
.LFE18:
	.size	gpio_interrupt_entry, .-gpio_interrupt_entry
	.section	.text.bl_gpio_enable_output,"ax",@progbits
	.align	1
	.globl	bl_gpio_enable_output
	.type	bl_gpio_enable_output, @function
bl_gpio_enable_output:
.LFB8:
	.loc 1 12 1 is_stmt 1
	.cfi_startproc
.LVL10:
	.loc 1 13 5
	.loc 1 15 5
	.loc 1 16 5
	.loc 1 12 1 is_stmt 0
	addi	sp,sp,-32
	.cfi_def_cfa_offset 32
	.loc 1 15 14
	li	a5,256
	sh	a5,12(sp)
	.loc 1 17 5 is_stmt 1
	.loc 1 18 17 is_stmt 0
	li	a5,11
	sb	a5,9(sp)
	.loc 1 19 18
	li	a5,1
	.loc 1 12 1
	sw	ra,28(sp)
	.cfi_offset 1, -4
	.loc 1 17 17
	sb	a0,8(sp)
	.loc 1 18 5 is_stmt 1
	.loc 1 19 5
	.loc 1 19 18 is_stmt 0
	sb	a5,10(sp)
	.loc 1 20 5 is_stmt 1
	.loc 1 21 5
	.loc 1 21 8 is_stmt 0
	bne	a1,zero,.L12
	.loc 1 20 18
	li	a5,2
	sb	a5,11(sp)
.L13:
	.loc 1 24 5 is_stmt 1
	.loc 1 24 8 is_stmt 0
	beq	a2,zero,.L14
	.loc 1 25 9 is_stmt 1
	.loc 1 25 22 is_stmt 0
	li	a5,1
	sb	a5,11(sp)
.L14:
	.loc 1 27 5 is_stmt 1
	addi	a0,sp,8
.LVL11:
	call	GLB_GPIO_Init
.LVL12:
	.loc 1 29 5
	.loc 1 30 1 is_stmt 0
	lw	ra,28(sp)
	.cfi_remember_state
	.cfi_restore 1
	li	a0,0
	addi	sp,sp,32
	.cfi_def_cfa_offset 0
	jr	ra
.LVL13:
.L12:
	.cfi_restore_state
	.loc 1 22 9 is_stmt 1
	.loc 1 22 22 is_stmt 0
	sb	zero,11(sp)
	j	.L13
	.cfi_endproc
.LFE8:
	.size	bl_gpio_enable_output, .-bl_gpio_enable_output
	.section	.text.bl_gpio_enable_input,"ax",@progbits
	.align	1
	.globl	bl_gpio_enable_input
	.type	bl_gpio_enable_input, @function
bl_gpio_enable_input:
.LFB9:
	.loc 1 33 1 is_stmt 1
	.cfi_startproc
.LVL14:
	.loc 1 34 5
	.loc 1 36 5
	.loc 1 37 5
	.loc 1 33 1 is_stmt 0
	addi	sp,sp,-32
	.cfi_def_cfa_offset 32
	.loc 1 36 14
	li	a5,256
	sh	a5,12(sp)
	.loc 1 38 5 is_stmt 1
	.loc 1 39 17 is_stmt 0
	li	a5,11
	.loc 1 33 1
	sw	ra,28(sp)
	.cfi_offset 1, -4
	.loc 1 38 17
	sb	a0,8(sp)
	.loc 1 39 5 is_stmt 1
	.loc 1 39 17 is_stmt 0
	sb	a5,9(sp)
	.loc 1 40 5 is_stmt 1
	.loc 1 40 18 is_stmt 0
	sb	zero,10(sp)
	.loc 1 41 5 is_stmt 1
	.loc 1 42 5
	.loc 1 42 8 is_stmt 0
	bne	a1,zero,.L20
	.loc 1 41 18
	li	a5,2
	sb	a5,11(sp)
.L21:
	.loc 1 45 5 is_stmt 1
	.loc 1 45 8 is_stmt 0
	beq	a2,zero,.L22
	.loc 1 46 9 is_stmt 1
	.loc 1 46 22 is_stmt 0
	li	a5,1
	sb	a5,11(sp)
.L22:
	.loc 1 48 5 is_stmt 1
	addi	a0,sp,8
.LVL15:
	call	GLB_GPIO_Init
.LVL16:
	.loc 1 50 5
	.loc 1 51 1 is_stmt 0
	lw	ra,28(sp)
	.cfi_remember_state
	.cfi_restore 1
	li	a0,0
	addi	sp,sp,32
	.cfi_def_cfa_offset 0
	jr	ra
.LVL17:
.L20:
	.cfi_restore_state
	.loc 1 43 9 is_stmt 1
	.loc 1 43 22 is_stmt 0
	sb	zero,11(sp)
	j	.L21
	.cfi_endproc
.LFE9:
	.size	bl_gpio_enable_input, .-bl_gpio_enable_input
	.section	.text.bl_gpio_output_set,"ax",@progbits
	.align	1
	.globl	bl_gpio_output_set
	.type	bl_gpio_output_set, @function
bl_gpio_output_set:
.LFB10:
	.loc 1 54 1 is_stmt 1
	.cfi_startproc
.LVL18:
	.loc 1 55 5
	.loc 1 54 1 is_stmt 0
	addi	sp,sp,-16
	.cfi_def_cfa_offset 16
	.loc 1 55 5
	snez	a1,a1
.LVL19:
	.loc 1 54 1
	sw	ra,12(sp)
	.cfi_offset 1, -4
	.loc 1 55 5
	call	GLB_GPIO_Write
.LVL20:
	.loc 1 56 5 is_stmt 1
	.loc 1 57 1 is_stmt 0
	lw	ra,12(sp)
	.cfi_restore 1
	li	a0,0
	addi	sp,sp,16
	.cfi_def_cfa_offset 0
	jr	ra
	.cfi_endproc
.LFE10:
	.size	bl_gpio_output_set, .-bl_gpio_output_set
	.section	.text.bl_gpio_input_get,"ax",@progbits
	.align	1
	.globl	bl_gpio_input_get
	.type	bl_gpio_input_get, @function
bl_gpio_input_get:
.LFB11:
	.loc 1 60 1 is_stmt 1
	.cfi_startproc
.LVL21:
	.loc 1 61 5
	.loc 1 60 1 is_stmt 0
	addi	sp,sp,-16
	.cfi_def_cfa_offset 16
	sw	s0,8(sp)
	sw	ra,12(sp)
	.cfi_offset 8, -8
	.cfi_offset 1, -4
	.loc 1 60 1
	mv	s0,a1
	.loc 1 61 14
	call	GLB_GPIO_Read
.LVL22:
	.loc 1 61 12
	sb	a0,0(s0)
	.loc 1 62 5 is_stmt 1
	.loc 1 63 1 is_stmt 0
	lw	ra,12(sp)
	.cfi_restore 1
	lw	s0,8(sp)
	.cfi_restore 8
.LVL23:
	li	a0,0
	addi	sp,sp,16
	.cfi_def_cfa_offset 0
	jr	ra
	.cfi_endproc
.LFE11:
	.size	bl_gpio_input_get, .-bl_gpio_input_get
	.section	.text.bl_gpio_input_get_value,"ax",@progbits
	.align	1
	.globl	bl_gpio_input_get_value
	.type	bl_gpio_input_get_value, @function
bl_gpio_input_get_value:
.LFB12:
	.loc 1 66 1 is_stmt 1
	.cfi_startproc
.LVL24:
	.loc 1 67 5
	.loc 1 67 12 is_stmt 0
	tail	GLB_GPIO_Read
.LVL25:
	.cfi_endproc
.LFE12:
	.size	bl_gpio_input_get_value, .-bl_gpio_input_get_value
	.section	.text.bl_gpio_intmask,"ax",@progbits
	.align	1
	.globl	bl_gpio_intmask
	.type	bl_gpio_intmask, @function
bl_gpio_intmask:
.LFB13:
	.loc 1 71 1 is_stmt 1
	.cfi_startproc
.LVL26:
	.loc 1 72 5
	snez	a1,a1
.LVL27:
	tail	GLB_GPIO_IntMask
.LVL28:
	.cfi_endproc
.LFE13:
	.size	bl_gpio_intmask, .-bl_gpio_intmask
	.section	.text.bl_set_gpio_intmod,"ax",@progbits
	.align	1
	.globl	bl_set_gpio_intmod
	.type	bl_set_gpio_intmod, @function
bl_set_gpio_intmod:
.LFB14:
	.loc 1 76 1
	.cfi_startproc
.LVL29:
	.loc 1 77 5
	tail	GLB_Set_GPIO_IntMod
.LVL30:
	.cfi_endproc
.LFE14:
	.size	bl_set_gpio_intmod, .-bl_set_gpio_intmod
	.section	.text.bl_gpio_int_clear,"ax",@progbits
	.align	1
	.globl	bl_gpio_int_clear
	.type	bl_gpio_int_clear, @function
bl_gpio_int_clear:
.LFB15:
	.loc 1 81 1
	.cfi_startproc
.LVL31:
	.loc 1 82 5
	.loc 1 83 5
	.loc 1 83 8 is_stmt 0
	li	a5,31
	bgtu	a0,a5,.L35
	.loc 1 85 9 is_stmt 1
	.loc 1 85 16 is_stmt 0
	li	a5,1073741824
	lw	a5,432(a5)
.LVL32:
	.loc 1 86 9 is_stmt 1
	.loc 1 87 31 is_stmt 0
	li	a4,1
	sll	a0,a4,a0
.LVL33:
	.loc 1 86 11
	bne	a1,a4,.L36
	.loc 1 87 13 is_stmt 1
	.loc 1 87 20 is_stmt 0
	or	a0,a0,a5
.LVL34:
.L37:
	.loc 1 91 9 is_stmt 1
	.loc 1 91 65 is_stmt 0
	li	a5,1073741824
	sw	a0,432(a5)
.LVL35:
.L35:
	.loc 1 93 5 is_stmt 1
	.loc 1 94 1 is_stmt 0
	li	a0,0
	ret
.LVL36:
.L36:
	.loc 1 89 13 is_stmt 1
	.loc 1 89 29 is_stmt 0
	not	a0,a0
	.loc 1 89 20
	and	a0,a0,a5
.LVL37:
	j	.L37
	.cfi_endproc
.LFE15:
	.size	bl_gpio_int_clear, .-bl_gpio_int_clear
	.section	.text.bl_gpio_register,"ax",@progbits
	.align	1
	.globl	bl_gpio_register
	.type	bl_gpio_register, @function
bl_gpio_register:
.LFB19:
	.loc 1 138 1 is_stmt 1
	.cfi_startproc
.LVL38:
	.loc 1 139 5
.LBB26:
.LBB27:
	.loc 1 72 5
.LBE27:
.LBE26:
	.loc 1 138 1 is_stmt 0
	addi	sp,sp,-16
	.cfi_def_cfa_offset 16
	sw	ra,12(sp)
.LVL39:
	sw	s0,8(sp)
	.cfi_offset 1, -4
	.cfi_offset 8, -8
	.loc 1 138 1
	mv	s0,a0
.LBB29:
.LBB28:
	.loc 1 72 5
	lbu	a0,12(a0)
.LVL40:
	li	a1,1
	call	GLB_GPIO_IntMask
.LVL41:
.LBE28:
.LBE29:
	.loc 1 140 5 is_stmt 1
.LBB30:
.LBB31:
	.loc 1 77 5
	lbu	a2,14(s0)
	lbu	a1,13(s0)
	lbu	a0,12(s0)
	call	GLB_Set_GPIO_IntMod
.LVL42:
.LBE31:
.LBE30:
	.loc 1 141 5
	lui	a1,%hi(gpio_interrupt_entry)
	mv	a2,s0
	addi	a1,a1,%lo(gpio_interrupt_entry)
	li	a0,60
	call	bl_irq_register_with_ctx
.LVL43:
	.loc 1 142 5
.LBB32:
.LBB33:
	.loc 1 72 5
	lbu	a0,12(s0)
	li	a1,0
	call	GLB_GPIO_IntMask
.LVL44:
.LBE33:
.LBE32:
	.loc 1 143 5
	.loc 1 144 1 is_stmt 0
	lw	s0,8(sp)
	.cfi_restore 8
.LVL45:
	lw	ra,12(sp)
	.cfi_restore 1
	.loc 1 143 5
	li	a0,60
	.loc 1 144 1
	addi	sp,sp,16
	.cfi_def_cfa_offset 0
	.loc 1 143 5
	tail	bl_irq_enable
.LVL46:
	.cfi_endproc
.LFE19:
	.size	bl_gpio_register, .-bl_gpio_register
	.text
.Letext0:
	.file 2 "/mnt/d/GitHub/bl_iot_sdk_for_aithinker/toolchain/riscv/Linux/lib/gcc/riscv64-unknown-elf/10.2.0/include/stdint-gcc.h"
	.file 3 "/mnt/d/GitHub/bl_iot_sdk_for_aithinker/components/platform/soc/bl602/bl602_std/bl602_std/Device/Bouffalo/BL602/Peripherals/bl602.h"
	.file 4 "/mnt/d/GitHub/bl_iot_sdk_for_aithinker/components/platform/soc/bl602/bl602_std/bl602_std/StdDriver/Inc/bl602_gpio.h"
	.file 5 "/mnt/d/GitHub/bl_iot_sdk_for_aithinker/components/platform/soc/bl602/bl602_std/bl602_std/StdDriver/Inc/bl602_common.h"
	.file 6 "/mnt/d/GitHub/bl_iot_sdk_for_aithinker/components/platform/hosal/bl602_hal/bl_gpio.h"
	.file 7 "/mnt/d/GitHub/bl_iot_sdk_for_aithinker/components/platform/soc/bl602/bl602_std/bl602_std/StdDriver/Inc/bl602_glb.h"
	.file 8 "/mnt/d/GitHub/bl_iot_sdk_for_aithinker/components/platform/hosal/bl602_hal/bl_irq.h"