	.file	"bl_hbn.c"
	.option nopic
	.attribute arch, "rv32i2p0_m2p0_f2p0_c2p0"
	.attribute unaligned_access, 0
	.attribute stack_align, 16
	.text
.Ltext0:
	.cfi_sections	.debug_frame
	.section	.rodata.bl_hbn_enter.str1.4,"aMS",@progbits,1
	.align	2
.LC1:
	.string	"invalid arg.\r\n"
	.align	2
.LC2:
	.string	"hbn"
	.align	2
.LC3:
	.string	" gpio%d"
	.align	2
.LC4:
	.string	".\r\n"
	.section	.text.bl_hbn_enter,"ax",@progbits
	.align	1
	.globl	bl_hbn_enter
	.type	bl_hbn_enter, @function
bl_hbn_enter:
.LFB8:
	.file 1 "/mnt/d/GitHub/bl_iot_sdk_for_aithinker/components/platform/hosal/bl602_hal/bl_hbn.c"
	.loc 1 15 1
	.cfi_startproc
.LVL0:
	.loc 1 115 5
	.loc 1 15 1 is_stmt 0
	addi	sp,sp,-48
	.cfi_def_cfa_offset 48
	sw	s1,36(sp)
	.cfi_offset 9, -12
	mv	s1,a1
	.loc 1 115 22
	lui	a1,%hi(.LANCHOR0)
.LVL1:
	.loc 1 15 1
	sw	s0,40(sp)
	.loc 1 115 22
	li	a2,28
	.cfi_offset 8, -8
	.loc 1 15 1
	mv	s0,a0
	.loc 1 115 22
	addi	a1,a1,%lo(.LANCHOR0)
	addi	a0,sp,4
.LVL2:
	.loc 1 15 1
	sw	ra,44(sp)
	sw	s2,32(sp)
	.cfi_offset 1, -4
	.cfi_offset 18, -16
	.loc 1 115 22
	call	memcpy
.LVL3:
	.loc 1 131 5 is_stmt 1
	.loc 1 131 28 is_stmt 0
	lw	a5,0(s1)
	.loc 1 131 35
	li	a4,1000
	.loc 1 138 20
	lbu	a6,0(s0)
	.loc 1 131 28
	addi	a5,a5,999
	.loc 1 131 35
	divu	a5,a5,a4
	.loc 1 138 5
	li	a2,0
	li	a3,4
	li	a1,0
	li	a4,0
	.loc 1 138 11
	li	a0,0
	.loc 1 139 12
	li	t1,7
	.loc 1 143 19
	li	t3,8
	.loc 1 147 19
	li	t4,255
	.loc 1 131 19
	sw	a5,8(sp)
	.loc 1 137 5 is_stmt 1
	.loc 1 138 5
.LVL4:
.L2:
	.loc 1 138 15 discriminator 1
	.loc 1 138 5 is_stmt 0 discriminator 1
	bgt	a6,a0,.L9
	beq	a1,zero,.L10
	sb	a4,12(sp)
.L10:
	beq	a2,zero,.L11
	sw	a3,16(sp)
.L11:
	.loc 1 155 5 is_stmt 1
	.loc 1 155 8 is_stmt 0
	beq	a6,zero,.L12
	.loc 1 156 9 is_stmt 1
	lui	a0,%hi(.LC2)
.LVL5:
	addi	a0,a0,%lo(.LC2)
	call	printf
.LVL6:
	.loc 1 157 9
	.loc 1 157 15 is_stmt 0
	li	s1,0
.LVL7:
	.loc 1 158 13
	lui	s2,%hi(.LC3)
.LVL8:
.L13:
	.loc 1 157 19 is_stmt 1 discriminator 1
	.loc 1 157 24 is_stmt 0 discriminator 1
	lbu	a5,0(s0)
	.loc 1 157 9 discriminator 1
	bgt	a5,s1,.L14
	.loc 1 160 9 is_stmt 1
	lui	a0,%hi(.LC4)
	addi	a0,a0,%lo(.LC4)
	call	printf
.LVL9:
.L12:
	.loc 1 163 5
	.loc 1 163 20 is_stmt 0
	call	bl_flash_get_flashCfg
.LVL10:
	.loc 1 163 18
	sw	a0,20(sp)
	.loc 1 165 5 is_stmt 1
	li	a0,0
	call	HBN_Clear_IRQ
.LVL11:
	.loc 1 166 5
	li	a0,1
	call	HBN_Clear_IRQ
.LVL12:
	.loc 1 168 5
	addi	a0,sp,4
	call	HBN_Mode_Enter
.LVL13:
	.loc 1 169 5
	.loc 1 169 12 is_stmt 0
	j	.L8
.LVL14:
.L9:
	.loc 1 139 9 is_stmt 1
	.loc 1 139 22 is_stmt 0
	add	a5,s0,a0
	lbu	a5,2(a5)
	andi	a7,a5,127
	.loc 1 139 12
	bne	a7,t1,.L3
	.loc 1 140 13 is_stmt 1
	.loc 1 140 31 is_stmt 0
	ori	a4,a4,1
	.loc 1 141 13 is_stmt 1
.L35:
	.loc 1 145 13
	.loc 1 145 16 is_stmt 0
	slli	a5,a5,24
	srai	a5,a5,24
	li	a1,1
	bge	a5,zero,.L4
	li	a2,1
	.loc 1 146 33
	li	a3,5
.L4:
	.loc 1 138 30 is_stmt 1 discriminator 2
	.loc 1 138 31 is_stmt 0 discriminator 2
	addi	a0,a0,1
.LVL15:
	j	.L2
.L3:
	.loc 1 143 16 is_stmt 1
	.loc 1 143 19 is_stmt 0
	bne	a7,t3,.L5
	.loc 1 144 13 is_stmt 1
	.loc 1 144 31 is_stmt 0
	ori	a4,a4,2
	j	.L35
.L5:
	.loc 1 147 16 is_stmt 1
	.loc 1 147 19 is_stmt 0
	beq	a5,t4,.L4
	beq	a1,zero,.L6
	sb	a4,12(sp)
.L6:
	beq	a2,zero,.L7
	sw	a3,16(sp)
.L7:
	.loc 1 150 13 is_stmt 1
	lui	a0,%hi(.LC1)
.LVL16:
	addi	a0,a0,%lo(.LC1)
	call	printf
.LVL17:
	.loc 1 151 13
.L8:
	.loc 1 170 1 is_stmt 0
	lw	ra,44(sp)
	.cfi_remember_state
	.cfi_restore 1
	lw	s0,40(sp)
	.cfi_restore 8
.LVL18:
	lw	s1,36(sp)
	.cfi_restore 9
	lw	s2,32(sp)
	.cfi_restore 18
	li	a0,-1
	addi	sp,sp,48
	.cfi_def_cfa_offset 0
	jr	ra
.LVL19:
.L14:
	.cfi_restore_state
	.loc 1 158 13 is_stmt 1 discriminator 3
	.loc 1 158 39 is_stmt 0 discriminator 3
	add	a5,s0,s1
	.loc 1 158 13 discriminator 3
	lbu	a1,2(a5)
	addi	a0,s2,%lo(.LC3)
	.loc 1 157 35 discriminator 3
	addi	s1,s1,1
.LVL20:
	.loc 1 158 13 discriminator 3
	call	printf
.LVL21:
	.loc 1 157 34 is_stmt 1 discriminator 3
	j	.L13
	.cfi_endproc
.LFE8:
	.size	bl_hbn_enter, .-bl_hbn_enter
	.globl	_fsymf_info_hosalbl_hbn
	.section	.rodata.str1.4,"aMS",@progbits,1
	.align	2
.LC5:
	.string	"hosal.bl_hbn"
	.comm	_fsymf_level_hosalbl_hbn,4,4
	.align	2
.LC6:
	.string	"hosal"
	.weak	_fsymc_level_hosal
	.section	.rodata
	.align	2
	.set	.LANCHOR0,. + 0
.LC0:
	.byte	0
	.zero	3
	.word	0
	.byte	0
	.zero	3
	.word	4
	.word	0
	.word	0
	.word	10
	.section	.sbss._fsymc_level_hosal,"aw",@nobits
	.align	2
	.type	_fsymc_level_hosal, @object
	.size	_fsymc_level_hosal, 4
_fsymc_level_hosal:
	.zero	4
	.section	.srodata.BLOG_HARD_DECLARE_DISABLE,"a"
	.align	2
	.type	BLOG_HARD_DECLARE_DISABLE, @object
	.size	BLOG_HARD_DECLARE_DISABLE, 4
BLOG_HARD_DECLARE_DISABLE:
	.zero	4
	.section	.static_blogcomponent_code.hosal,"a"
	.align	2
	.type	_fsymc_info_hosal, @object
	.size	_fsymc_info_hosal, 8
_fsymc_info_hosal:
	.word	_fsymc_level_hosal
	.word	.LC6
	.section	.static_blogfile_code.hosalbl_hbn,"a"
	.align	2
	.type	_fsymf_info_hosalbl_hbn, @object
	.size	_fsymf_info_hosalbl_hbn, 8
_fsymf_info_hosalbl_hbn:
	.word	_fsymf_level_hosalbl_hbn
	.word	.LC5
	.text
.Letext0:
	.file 2 "/mnt/d/GitHub/bl_iot_sdk_for_aithinker/toolchain/riscv/Linux/riscv64-unknown-elf/include/machine/_default_types.h"
	.file 3 "/mnt/d/GitHub/bl_iot_sdk_for_aithinker/toolchain/riscv/Linux/riscv64-unknown-elf/include/sys/_stdint.h"
	.file 4 "/mnt/d/GitHub/bl_iot_sdk_for_aithinker/components/platform/soc/bl602/bl602_std/bl602_std/StdDriver/Inc/bl602_sflash.h"
	.file 5 "/mnt/d/GitHub/bl_iot_sdk_for_aithinker/components/platform/soc/bl602/bl602_std/bl602_std/StdDriver/Inc/bl602_hbn.h"
	.file 6 "/mnt/d/GitHub/bl_iot_sdk_for_aithinker/components/platform/hosal/bl602_hal/bl_hbn.h"
	.file 7 "/mnt/d/GitHub/bl_iot_sdk_for_aithinker/components/stage/blog/blog_type.h"
	.file 8 "/mnt/d/GitHub/bl_iot_sdk_for_aithinker/components/stage/blog/blog.h"
	.file 9 "/mnt/d/GitHub/bl_iot_sdk_for_aithinker/toolchain/riscv/Linux/riscv64-unknown-elf/include/stdio.h"
	.file 10 "/mnt/d/GitHub/bl_iot_sdk_for_aithinker/components/platform/hosal/bl602_hal/bl_flash.h"
	.file 11 "<built-in>"