	.file	"bl_irq.c"
	.option nopic
	.attribute arch, "rv32i2p0_m2p0_f2p0_c2p0"
	.attribute unaligned_access, 0
	.attribute stack_align, 16
	.text
.Ltext0:
	.cfi_sections	.debug_frame
	.section	.rodata._irq_num_check.str1.4,"aMS",@progbits,1
	.align	2
.LC0:
	.string	"bl_irq.c"
	.align	2
.LC1:
	.string	"\033[31mERROR\033[0m"
	.align	2
.LC2:
	.string	"%s (%d)[%s:%4d] illegal irqnum %d\r\n\r\n"
	.section	.text._irq_num_check,"ax",@progbits
	.align	1
	.type	_irq_num_check, @function
_irq_num_check:
.LFB14:
	.file 1 "/mnt/d/GitHub/bl_iot_sdk_for_aithinker/components/platform/hosal/bl602_hal/bl_irq.c"
	.loc 1 87 1
	.cfi_startproc
.LVL0:
	.loc 1 88 5
	.loc 1 88 8 is_stmt 0
	li	a5,79
	bleu	a0,a5,.L1
.LVL1:
.LBB4:
.LBB5:
	.loc 1 89 9 is_stmt 1
	.loc 1 89 47
	.loc 1 89 52
	.loc 1 89 74 is_stmt 0
	lui	a5,%hi(_fsymc_level_hosal)
	.loc 1 89 55
	lw	a4,%lo(_fsymc_level_hosal)(a5)
	li	a5,4
	bgtu	a4,a5,.L8
	.loc 1 89 118
	lui	a4,%hi(_fsymf_level_hosalbl_irq)
	.loc 1 89 97
	lw	a4,%lo(_fsymf_level_hosalbl_irq)(a4)
	bgtu	a4,a5,.L8
.LBE5:
.LBE4:
	.loc 1 87 1
	addi	sp,sp,-16
	.cfi_def_cfa_offset 16
	sw	s0,8(sp)
	sw	ra,12(sp)
	.cfi_offset 8, -8
	.cfi_offset 1, -4
	mv	s0,a0
.LBB7:
.LBB6:
	.loc 1 89 150 is_stmt 1
	.loc 1 89 236 is_stmt 0
	call	xPortIsInsideInterrupt
.LVL2:
	.loc 1 89 150
	beq	a0,zero,.L4
	.loc 1 89 265
	call	xTaskGetTickCountFromISR
.LVL3:
.L12:
	.loc 1 89 296
	mv	a2,a0
	.loc 1 89 150
	lui	a3,%hi(.LC0)
	lui	a1,%hi(.LC1)
	lui	a0,%hi(.LC2)
	mv	a5,s0
	li	a4,89
	addi	a3,a3,%lo(.LC0)
	addi	a1,a1,%lo(.LC1)
	addi	a0,a0,%lo(.LC2)
	call	bl_printk
.LVL4:
.L6:
	.loc 1 89 353 is_stmt 1
	.loc 1 89 364
	.loc 1 90 9
	.loc 1 92 9
	.loc 1 90 15
	j	.L6
.L4:
	.loc 1 89 296 is_stmt 0
	call	xTaskGetTickCount
.LVL5:
	j	.L12
.LVL6:
.L1:
	.cfi_def_cfa_offset 0
	.cfi_restore 1
	.cfi_restore 8
	ret
.LVL7:
.L8:
.L9:
	.loc 1 89 353 is_stmt 1
	.loc 1 89 364
	.loc 1 90 9
	.loc 1 92 9
	.loc 1 90 15
	j	.L9
.LBE6:
.LBE7:
	.cfi_endproc
.LFE14:
	.size	_irq_num_check, .-_irq_num_check
	.section	.text.bl_irq_enable,"ax",@progbits
	.align	1
	.globl	bl_irq_enable
	.type	bl_irq_enable, @function
bl_irq_enable:
.LFB8:
	.loc 1 18 1
	.cfi_startproc
.LVL8:
	.loc 1 19 5
	.loc 1 19 47 is_stmt 0
	li	a5,41943040
	addi	a5,a5,1024
	add	a0,a0,a5
.LVL9:
	.loc 1 19 57
	li	a5,1
	sb	a5,0(a0)
	.loc 1 20 1
	ret
	.cfi_endproc
.LFE8:
	.size	bl_irq_enable, .-bl_irq_enable
	.section	.text.bl_irq_disable,"ax",@progbits
	.align	1
	.globl	bl_irq_disable
	.type	bl_irq_disable, @function
bl_irq_disable:
.LFB9:
	.loc 1 23 1 is_stmt 1
	.cfi_startproc
.LVL10:
	.loc 1 24 5
	.loc 1 24 47 is_stmt 0
	li	a5,41943040
	addi	a5,a5,1024
	add	a0,a0,a5
.LVL11:
	.loc 1 24 57
	sb	zero,0(a0)
	.loc 1 25 1
	ret
	.cfi_endproc
.LFE9:
	.size	bl_irq_disable, .-bl_irq_disable
	.section	.text.bl_irq_pending_set,"ax",@progbits
	.align	1
	.globl	bl_irq_pending_set
	.type	bl_irq_pending_set, @function
bl_irq_pending_set:
.LFB10:
	.loc 1 28 1 is_stmt 1
	.cfi_startproc
.LVL12:
	.loc 1 29 5
	.loc 1 29 47 is_stmt 0
	li	a5,41943040
	add	a0,a0,a5
.LVL13:
	.loc 1 29 57
	li	a5,1
	sb	a5,0(a0)
	.loc 1 30 1
	ret
	.cfi_endproc
.LFE10:
	.size	bl_irq_pending_set, .-bl_irq_pending_set
	.section	.text.bl_irq_pending_clear,"ax",@progbits
	.align	1
	.globl	bl_irq_pending_clear
	.type	bl_irq_pending_clear, @function
bl_irq_pending_clear:
.LFB11:
	.loc 1 33 1 is_stmt 1
	.cfi_startproc
.LVL14:
	.loc 1 34 5
	.loc 1 34 47 is_stmt 0
	li	a5,41943040
	add	a0,a0,a5
.LVL15:
	.loc 1 34 57
	sb	zero,0(a0)
	.loc 1 35 1
	ret
	.cfi_endproc
.LFE11:
	.size	bl_irq_pending_clear, .-bl_irq_pending_clear
	.section	.rodata.bl_irq_exception_trigger.str1.4,"aMS",@progbits,1
	.align	2
.LC3:
	.string	"\033[32mINFO\033[0m"
	.align	2
.LC4:
	.string	"%s (%d)[%s:%4d] Trigger exception val is %08lx\r\n\r\n"
	.section	.text.bl_irq_exception_trigger,"ax",@progbits
	.align	1
	.globl	bl_irq_exception_trigger
	.type	bl_irq_exception_trigger, @function
bl_irq_exception_trigger:
.LFB12:
	.loc 1 38 1 is_stmt 1
	.cfi_startproc
.LVL16:
	.loc 1 39 5
	.loc 1 39 31
	.loc 1 41 5
	.loc 1 38 1 is_stmt 0
	addi	sp,sp,-32
	.cfi_def_cfa_offset 32
	sw	ra,28(sp)
	sw	s0,24(sp)
	.cfi_offset 1, -4
	.cfi_offset 8, -8
	.loc 1 41 5
	li	a5,2
	bgtu	a0,a5,.L18
	beq	a0,zero,.L26
	.loc 1 49 13 is_stmt 1
	.loc 1 49 29 is_stmt 0
	li	s0,305418240
	addi	s0,s0,1656
	sw	s0,0(a1)
	.loc 1 51 9 is_stmt 1
	j	.L22
.L18:
	li	s0,305418240
	.loc 1 41 5 is_stmt 0
	li	a5,3
	addi	s0,s0,1656
	beq	a0,a5,.L21
.LVL17:
.L22:
	.loc 1 69 9 is_stmt 1 discriminator 1
	.loc 1 71 5 discriminator 1
	.loc 1 71 43 discriminator 1
	.loc 1 71 48 discriminator 1
	.loc 1 71 69 is_stmt 0 discriminator 1
	lui	a5,%hi(_fsymc_level_hosal)
	.loc 1 71 51 discriminator 1
	lw	a4,%lo(_fsymc_level_hosal)(a5)
	li	a5,2
	bgtu	a4,a5,.L17
	.loc 1 71 112 discriminator 3
	lui	a4,%hi(_fsymf_level_hosalbl_irq)
	.loc 1 71 92 discriminator 3
	lw	a4,%lo(_fsymf_level_hosalbl_irq)(a4)
	bgtu	a4,a5,.L17
	.loc 1 71 144 is_stmt 1 discriminator 5
	.loc 1 71 242 is_stmt 0 discriminator 5
	call	xPortIsInsideInterrupt
.LVL18:
	.loc 1 71 144 discriminator 5
	beq	a0,zero,.L24
	.loc 1 71 271 discriminator 7
	call	xTaskGetTickCountFromISR
.LVL19:
.L28:
	.loc 1 71 144 discriminator 8
	mv	a5,s0
	.loc 1 72 1 discriminator 8
	lw	s0,24(sp)
	.cfi_remember_state
	.cfi_restore 8
.LVL20:
	lw	ra,28(sp)
	.cfi_restore 1
	.loc 1 71 302 discriminator 8
	mv	a2,a0
	.loc 1 71 144 discriminator 8
	lui	a3,%hi(.LC0)
	lui	a1,%hi(.LC3)
	lui	a0,%hi(.LC4)
	.loc 1 72 1 discriminator 8
	.loc 1 71 144 discriminator 8
	li	a4,71
	addi	a3,a3,%lo(.LC0)
	addi	a1,a1,%lo(.LC3)
	addi	a0,a0,%lo(.LC4)
	.loc 1 72 1 discriminator 8
	addi	sp,sp,32
	.cfi_def_cfa_offset 0
	.loc 1 71 144 discriminator 8
	tail	bl_printk
.LVL21:
.L26:
	.cfi_restore_state
	.loc 1 44 13 is_stmt 1
	.loc 1 44 17 is_stmt 0
	lw	s0,0(a1)
.LVL22:
	.loc 1 46 9 is_stmt 1
	j	.L22
.LVL23:
.L21:
.LBB8:
	.loc 1 59 13
	.loc 1 60 13
	.loc 1 61 13
	.loc 1 63 13
	.loc 1 61 23 is_stmt 0
	addi	a5,sp,12
.LVL24:
	.loc 1 63 13
	jalr	a5
.LVL25:
.LBE8:
	.loc 1 65 9 is_stmt 1
	j	.L22
.LVL26:
.L24:
	.loc 1 71 302 is_stmt 0 discriminator 8
	call	xTaskGetTickCount
.LVL27:
	j	.L28
.L17:
	.loc 1 72 1
	lw	ra,28(sp)
	.cfi_restore 1
	lw	s0,24(sp)
	.cfi_restore 8
.LVL28:
	addi	sp,sp,32
	.cfi_def_cfa_offset 0
	jr	ra
	.cfi_endproc
.LFE12:
	.size	bl_irq_exception_trigger, .-bl_irq_exception_trigger
	.section	.text.bl_irq_default,"ax",@progbits
	.align	1
	.globl	bl_irq_default
	.type	bl_irq_default, @function
bl_irq_default:
.LFB13:
	.loc 1 75 1 is_stmt 1
	.cfi_startproc
.L30:
	.loc 1 76 5 discriminator 1
	.loc 1 78 5 discriminator 1
	.loc 1 76 11 discriminator 1
	j	.L30
	.cfi_endproc
.LFE13:
	.size	bl_irq_default, .-bl_irq_default
	.section	.rodata.bl_irq_register_with_ctx.str1.4,"aMS",@progbits,1
	.align	2
.LC5:
	.string	"\033[33mWARN\033[0m"
	.align	2
.LC6:
	.string	"%s (%d)[%s:%4d] IRQ %d already registered with %p \r\n\r\n"
	.align	2
.LC7:
	.string	"%s (%d)[%s:%4d] handler is NULL pointer! \r\n\r\n"
	.section	.text.bl_irq_register_with_ctx,"ax",@progbits
	.align	1
	.globl	bl_irq_register_with_ctx
	.type	bl_irq_register_with_ctx, @function
bl_irq_register_with_ctx:
.LFB15:
	.loc 1 97 1
	.cfi_startproc
.LVL29:
	.loc 1 98 5
	.loc 1 97 1 is_stmt 0
	addi	sp,sp,-32
	.cfi_def_cfa_offset 32
	sw	s0,24(sp)
	sw	s1,20(sp)
	sw	s2,16(sp)
	sw	s3,12(sp)
	sw	s4,8(sp)
	.cfi_offset 8, -8
	.cfi_offset 9, -12
	.cfi_offset 18, -16
	.cfi_offset 19, -20
	.cfi_offset 20, -24
	mv	s0,a0
	.loc 1 99 24
	lui	s2,%hi(.LANCHOR0)
	.loc 1 97 1
	sw	ra,28(sp)
	.cfi_offset 1, -4
	.loc 1 97 1
	mv	s3,a1
	mv	s4,a2
	.loc 1 98 5
	call	_irq_num_check
.LVL30:
	.loc 1 99 5 is_stmt 1
	.loc 1 99 24 is_stmt 0
	addi	a5,s2,%lo(.LANCHOR0)
	slli	s1,s0,2
	add	a5,a5,s1
	lw	a5,0(a5)
	addi	s2,s2,%lo(.LANCHOR0)
	.loc 1 99 8
	beq	a5,zero,.L32
	.loc 1 99 33 discriminator 1
	beq	a5,s3,.L33
	.loc 1 100 9 is_stmt 1 discriminator 1
	.loc 1 100 47 discriminator 1
	.loc 1 100 52 discriminator 1
	.loc 1 100 73 is_stmt 0 discriminator 1
	lui	a5,%hi(_fsymc_level_hosal)
	.loc 1 100 55 discriminator 1
	lw	a4,%lo(_fsymc_level_hosal)(a5)
	li	a5,3
	bgtu	a4,a5,.L32
	.loc 1 100 116 discriminator 3
	lui	a4,%hi(_fsymf_level_hosalbl_irq)
	.loc 1 100 96 discriminator 3
	lw	a4,%lo(_fsymf_level_hosalbl_irq)(a4)
	bgtu	a4,a5,.L34
	.loc 1 100 148 is_stmt 1 discriminator 5
	.loc 1 100 250 is_stmt 0 discriminator 5
	call	xPortIsInsideInterrupt
.LVL31:
	.loc 1 100 148 discriminator 5
	beq	a0,zero,.L35
	.loc 1 100 279 discriminator 7
	call	xTaskGetTickCountFromISR
.LVL32:
.L50:
	.loc 1 100 148 discriminator 8
	add	a5,s2,s1
	lw	a6,0(a5)
	.loc 1 100 310 discriminator 8
	mv	a2,a0
	.loc 1 100 148 discriminator 8
	lui	a3,%hi(.LC0)
	lui	a1,%hi(.LC5)
	lui	a0,%hi(.LC6)
	mv	a5,s0
	li	a4,100
	addi	a3,a3,%lo(.LC0)
	addi	a1,a1,%lo(.LC5)
	addi	a0,a0,%lo(.LC6)
	call	bl_printk
.LVL33:
.L32:
	.loc 1 100 393 is_stmt 1 discriminator 11
	.loc 1 103 10 discriminator 11
	.loc 1 106 5 discriminator 11
	.loc 1 106 8 is_stmt 0 discriminator 11
	bne	s3,zero,.L33
	.loc 1 107 9 is_stmt 1 discriminator 1
	.loc 1 107 47 discriminator 1
	.loc 1 107 52 discriminator 1
	.loc 1 107 74 is_stmt 0 discriminator 1
	lui	a5,%hi(_fsymc_level_hosal)
	.loc 1 107 55 discriminator 1
	lw	a4,%lo(_fsymc_level_hosal)(a5)
	li	a5,4
	bgtu	a4,a5,.L31
.L37:
	.loc 1 107 118
	lui	a5,%hi(_fsymf_level_hosalbl_irq)
	.loc 1 107 97
	lw	a4,%lo(_fsymf_level_hosalbl_irq)(a5)
	li	a5,4
	bgtu	a4,a5,.L31
	.loc 1 107 150 is_stmt 1 discriminator 5
	.loc 1 107 244 is_stmt 0 discriminator 5
	call	xPortIsInsideInterrupt
.LVL34:
	.loc 1 107 150 discriminator 5
	beq	a0,zero,.L40
	.loc 1 107 273 discriminator 7
	call	xTaskGetTickCountFromISR
.LVL35:
.L51:
	.loc 1 122 1 discriminator 8
	lw	s0,24(sp)
	.cfi_remember_state
	.cfi_restore 8
.LVL36:
	lw	ra,28(sp)
	.cfi_restore 1
	lw	s1,20(sp)
	.cfi_restore 9
	lw	s2,16(sp)
	.cfi_restore 18
	lw	s3,12(sp)
	.cfi_restore 19
.LVL37:
	lw	s4,8(sp)
	.cfi_restore 20
.LVL38:
	.loc 1 107 304 discriminator 8
	mv	a2,a0
	.loc 1 107 150 discriminator 8
	lui	a3,%hi(.LC0)
	lui	a1,%hi(.LC1)
	lui	a0,%hi(.LC7)
	.loc 1 122 1 discriminator 8
	.loc 1 107 150 discriminator 8
	li	a4,107
	addi	a3,a3,%lo(.LC0)
	addi	a1,a1,%lo(.LC1)
	addi	a0,a0,%lo(.LC7)
	.loc 1 122 1 discriminator 8
	addi	sp,sp,32
	.cfi_def_cfa_offset 0
	.loc 1 107 150 discriminator 8
	tail	bl_printk
.LVL39:
.L35:
	.cfi_restore_state
	.loc 1 100 310 discriminator 8
	call	xTaskGetTickCount
.LVL40:
	j	.L50
.L40:
	.loc 1 107 304 discriminator 8
	call	xTaskGetTickCount
.LVL41:
	j	.L51
.LVL42:
.L42:
	.loc 1 116 9 is_stmt 1
	.loc 1 117 33 is_stmt 0
	sw	s4,0(s0)
	j	.L31
.LVL43:
.L34:
	.loc 1 100 393 is_stmt 1
	.loc 1 103 10
	.loc 1 106 5
	.loc 1 106 8 is_stmt 0
	beq	s3,zero,.L37
.L33:
	.loc 1 111 5 is_stmt 1
	addi	s0,s0,80
.LVL44:
	.loc 1 112 33 is_stmt 0
	add	s1,s2,s1
	.loc 1 113 33
	slli	s0,s0,2
.LVL45:
	.loc 1 112 33
	sw	s3,0(s1)
	.loc 1 113 9 is_stmt 1
	.loc 1 113 33 is_stmt 0
	add	s0,s2,s0
	.loc 1 111 8
	bne	s4,zero,.L42
	.loc 1 112 9 is_stmt 1
	.loc 1 113 33 is_stmt 0
	sw	zero,0(s0)
.L31:
	.loc 1 122 1
	lw	ra,28(sp)
	.cfi_restore 1
	lw	s0,24(sp)
	.cfi_restore 8
	lw	s1,20(sp)
	.cfi_restore 9
	lw	s2,16(sp)
	.cfi_restore 18
	lw	s3,12(sp)
	.cfi_restore 19
.LVL46:
	lw	s4,8(sp)
	.cfi_restore 20
.LVL47:
	addi	sp,sp,32
	.cfi_def_cfa_offset 0
	jr	ra
	.cfi_endproc
.LFE15:
	.size	bl_irq_register_with_ctx, .-bl_irq_register_with_ctx
	.section	.text.bl_irq_ctx_get,"ax",@progbits
	.align	1
	.globl	bl_irq_ctx_get
	.type	bl_irq_ctx_get, @function
bl_irq_ctx_get:
.LFB16:
	.loc 1 125 1 is_stmt 1
	.cfi_startproc
.LVL48:
	.loc 1 126 5
	.loc 1 125 1 is_stmt 0
	addi	sp,sp,-16
	.cfi_def_cfa_offset 16
	sw	s0,8(sp)
	sw	s1,4(sp)
	sw	ra,12(sp)
	.cfi_offset 8, -8
	.cfi_offset 9, -12
	.cfi_offset 1, -4
	.loc 1 125 1
	mv	s1,a1
	mv	s0,a0
	.loc 1 126 5
	call	_irq_num_check
.LVL49:
	.loc 1 127 5 is_stmt 1
	.loc 1 127 27 is_stmt 0
	addi	s0,s0,80
.LVL50:
	lui	a5,%hi(.LANCHOR0)
	addi	a5,a5,%lo(.LANCHOR0)
	slli	s0,s0,2
.LVL51:
	add	s0,a5,s0
	.loc 1 127 10
	lw	a5,0(s0)
	.loc 1 130 1
	lw	ra,12(sp)
	.cfi_restore 1
	lw	s0,8(sp)
	.cfi_restore 8
	.loc 1 127 10
	sw	a5,0(s1)
	.loc 1 129 5 is_stmt 1
	.loc 1 130 1 is_stmt 0
	lw	s1,4(sp)
	.cfi_restore 9
.LVL52:
	addi	sp,sp,16
	.cfi_def_cfa_offset 0
	jr	ra
	.cfi_endproc
.LFE16:
	.size	bl_irq_ctx_get, .-bl_irq_ctx_get
	.section	.text.bl_irq_register,"ax",@progbits
	.align	1
	.globl	bl_irq_register
	.type	bl_irq_register, @function
bl_irq_register:
.LFB17:
	.loc 1 133 1 is_stmt 1
	.cfi_startproc
.LVL53:
	.loc 1 134 5
	li	a2,0
	tail	bl_irq_register_with_ctx
.LVL54:
	.cfi_endproc
.LFE17:
	.size	bl_irq_register, .-bl_irq_register
	.section	.text.bl_irq_unregister,"ax",@progbits
	.align	1
	.globl	bl_irq_unregister
	.type	bl_irq_unregister, @function
bl_irq_unregister:
.LFB18:
	.loc 1 138 1
	.cfi_startproc
.LVL55:
	.loc 1 139 5
	.loc 1 138 1 is_stmt 0
	addi	sp,sp,-16
	.cfi_def_cfa_offset 16
	sw	s0,8(sp)
	sw	ra,12(sp)
	.cfi_offset 8, -8
	.cfi_offset 1, -4
	.loc 1 138 1
	mv	s0,a0
	.loc 1 139 5
	call	_irq_num_check
.LVL56:
	.loc 1 140 5 is_stmt 1
	.loc 1 141 5
	.loc 1 142 5
	.loc 1 142 29 is_stmt 0
	lui	a0,%hi(.LANCHOR0)
	slli	s0,s0,2
.LVL57:
	addi	a0,a0,%lo(.LANCHOR0)
	add	a0,a0,s0
	sw	zero,0(a0)
	.loc 1 143 1
	lw	ra,12(sp)
	.cfi_restore 1
	lw	s0,8(sp)
	.cfi_restore 8
	addi	sp,sp,16
	.cfi_def_cfa_offset 0
	jr	ra
	.cfi_endproc
.LFE18:
	.size	bl_irq_unregister, .-bl_irq_unregister
	.section	.rodata.interrupt_entry.str1.4,"aMS",@progbits,1
	.align	2
.LC8:
	.string	"%s (%d)[%s:%4d] Cannot handle mcause 0x%lx:%lu, adjust to externel(0x%lx:%lu)\r\n\r\n"
	.section	.text.interrupt_entry,"ax",@progbits
	.align	1
	.globl	interrupt_entry
	.type	interrupt_entry, @function
interrupt_entry:
.LFB19:
	.loc 1 146 1 is_stmt 1
	.cfi_startproc
.LVL58:
	.loc 1 147 5
	.loc 1 148 5
	.loc 1 146 1 is_stmt 0
	addi	sp,sp,-32
	.cfi_def_cfa_offset 32
	sw	s0,24(sp)
	.cfi_offset 8, -8
	.loc 1 148 12
	slli	s0,a0,5
	.loc 1 146 1
	sw	ra,28(sp)
	.cfi_offset 1, -4
	.loc 1 148 12
	srli	s0,s0,5
.LVL59:
	.loc 1 149 5 is_stmt 1
	.loc 1 149 8 is_stmt 0
	li	a5,79
	bgtu	s0,a5,.L58
	.loc 1 150 9 is_stmt 1
	.loc 1 150 17 is_stmt 0
	lui	a5,%hi(.LANCHOR0)
	addi	a5,a5,%lo(.LANCHOR0)
	slli	a4,s0,2
	add	a4,a5,a4
	lw	a4,0(a4)
.LVL60:
	.loc 1 152 5 is_stmt 1
	.loc 1 152 8 is_stmt 0
	beq	a4,zero,.L58
	.loc 1 153 9 is_stmt 1
	.loc 1 153 28 is_stmt 0
	addi	s0,s0,80
.LVL61:
	slli	s0,s0,2
.LVL62:
	add	s0,a5,s0
	lw	a0,0(s0)
.LVL63:
	.loc 1 153 12
	beq	a0,zero,.L59
	.loc 1 154 12 is_stmt 1
	.loc 1 170 1 is_stmt 0
	lw	s0,24(sp)
	.cfi_remember_state
	.cfi_restore 8
	lw	ra,28(sp)
	.cfi_restore 1
	addi	sp,sp,32
	.cfi_def_cfa_offset 0
	.loc 1 154 13
	jr	a4
.LVL64:
.L59:
	.cfi_restore_state
	.loc 1 157 13 is_stmt 1
	.loc 1 170 1 is_stmt 0
	lw	s0,24(sp)
	.cfi_remember_state
	.cfi_restore 8
	lw	ra,28(sp)
	.cfi_restore 1
	addi	sp,sp,32
	.cfi_def_cfa_offset 0
	.loc 1 157 14
	jr	a4
.LVL65:
.L58:
	.cfi_restore_state
	.loc 1 160 9 is_stmt 1 discriminator 1
	.loc 1 160 47 discriminator 1
	.loc 1 160 52 discriminator 1
	.loc 1 160 73 is_stmt 0 discriminator 1
	lui	a5,%hi(_fsymc_level_hosal)
	.loc 1 160 55 discriminator 1
	lw	a4,%lo(_fsymc_level_hosal)(a5)
	li	a5,2
	bgtu	a4,a5,.L60
	.loc 1 160 116 discriminator 3
	lui	a4,%hi(_fsymf_level_hosalbl_irq)
	.loc 1 160 96 discriminator 3
	lw	a4,%lo(_fsymf_level_hosalbl_irq)(a4)
	bgtu	a4,a5,.L60
	.loc 1 160 148 is_stmt 1 discriminator 5
	.loc 1 160 277 is_stmt 0 discriminator 5
	call	xPortIsInsideInterrupt
.LVL66:
	.loc 1 160 148 discriminator 5
	beq	a0,zero,.L61
	.loc 1 160 306 discriminator 7
	call	xTaskGetTickCountFromISR
.LVL67:
.L68:
	.loc 1 160 337 discriminator 8
	mv	a2,a0
	.loc 1 160 148 discriminator 8
	addi	a7,s0,-16
	lui	a3,%hi(.LC0)
	lui	a1,%hi(.LC3)
	lui	a0,%hi(.LC8)
	sw	a7,0(sp)
	mv	a6,s0
	mv	a5,s0
	li	a4,160
	addi	a3,a3,%lo(.LC0)
	addi	a1,a1,%lo(.LC3)
	addi	a0,a0,%lo(.LC8)
	call	bl_printk
.LVL68:
.L60:
.L66:
	.loc 1 160 429 is_stmt 1 discriminator 1
	.loc 1 165 10 discriminator 1
	.loc 1 166 9 discriminator 1
	.loc 1 168 9 discriminator 1
	.loc 1 166 15 discriminator 1
	j	.L66
.L61:
	.loc 1 160 337 is_stmt 0 discriminator 8
	call	xTaskGetTickCount
.LVL69:
	j	.L68
	.cfi_endproc
.LFE19:
	.size	interrupt_entry, .-interrupt_entry
	.section	.rodata.exception_entry.str1.4,"aMS",@progbits,1
	.align	2
.LC9:
	.string	"%s (%d)[%s:%4d] Current task sp data:\r\n\r\n"
	.align	2
.LC10:
	.string	"%s (%d)[%s:%4d] RA:%08x, mstatus:%08x\r\n\r\n"
	.align	2
.LC11:
	.string	"%s (%d)[%s:%4d] A0:%08x A1:%08x A2:%08x A3:%08x A4:%08x A5:%08x A6:%08x A7:%08x\r\n\r\n"
	.align	2
.LC12:
	.string	"%s (%d)[%s:%4d] T0:%08x T1:%08x T2:%08x T3:%08x T4:%08x T5:%08x T6:%08x\r\n\r\n"
	.align	2
.LC13:
	.string	"%s (%d)[%s:%4d] S0:%08x S1:%08x S2:%08x S3:%08x S4:%08x S5:%08x S6:%08x S7:%08x\r\n\r\n"
	.align	2
.LC14:
	.string	"%s (%d)[%s:%4d] S8:%08x S9:%08x S10:%08x S11:%08x\r\n\r\n"
	.align	2
.LC15:
	.string	"Exception Entry--->>>\r\n"
	.align	2
.LC16:
	.string	"%s (%d)[%s:%4d] mcause %08lx, mepc %08lx, mtval %08lx\r\n\r\n"
	.align	2
.LC17:
	.string	"%s (%d)[%s:%4d] Exception code: %lu\r\n\r\n"
	.align	2
.LC18:
	.string	"  msg: Instruction address misaligned\r\n"
	.align	2
.LC19:
	.string	"  msg: Instruction access fault\r\n"
	.align	2
.LC20:
	.string	"  msg: Illegal instruction\r\n"
	.align	2
.LC21:
	.string	"  msg: Breakpoint\r\n"
	.align	2
.LC22:
	.string	"  msg: Load address misaligned\r\n"
	.align	2
.LC23:
	.string	"  msg: Load access fault\r\n"
	.align	2
.LC24:
	.string	"  msg: Store/AMO access misaligned\r\n"
	.align	2
.LC25:
	.string	"  msg: Store/AMO access fault\r\n"
	.align	2
.LC26:
	.string	"  msg: Environment call from U-mode\r\n"
	.align	2
.LC27:
	.string	"  msg: Environment call from S-mode\r\n"
	.align	2
.LC28:
	.string	"  msg: Reserved\r\n"
	.align	2
.LC29:
	.string	"  msg: Environment call from M-mode\r\n"
	.align	2
.LC30:
	.string	"  msg: Instruction page fault\r\n"
	.align	2
.LC31:
	.string	"  msg: Load page fault\r\n"
	.align	2
.LC32:
	.string	"  msg: Store/AMO page fault\r\n"
	.align	2
.LC33:
	.string	"  msg: Reserved default exception\r\n"
	.section	.text.exception_entry,"ax",@progbits
	.align	1
	.globl	exception_entry
	.type	exception_entry, @function
exception_entry:
.LFB22:
	.loc 1 345 1 is_stmt 1
	.cfi_startproc
.LVL70:
	.loc 1 346 5
	.loc 1 345 1 is_stmt 0
	addi	sp,sp,-96
	.cfi_def_cfa_offset 96
	.loc 1 346 19
	li	a5,11
	.loc 1 345 1
	sw	s0,88(sp)
	sw	s1,84(sp)
	sw	s6,64(sp)
	sw	s7,60(sp)
	.cfi_offset 8, -8
	.cfi_offset 9, -12
	.cfi_offset 22, -32
	.cfi_offset 23, -36
	mv	s0,a4
	.loc 1 346 19
	sw	a5,44(sp)
	.loc 1 353 5 is_stmt 1
	.loc 1 345 1 is_stmt 0
	sw	ra,92(sp)
	sw	s2,80(sp)
	sw	s3,76(sp)
	sw	s4,72(sp)
	sw	s5,68(sp)
	sw	s8,56(sp)
	.cfi_offset 1, -4
	.cfi_offset 18, -16
	.cfi_offset 19, -20
	.cfi_offset 20, -24
	.cfi_offset 21, -28
	.cfi_offset 24, -40
	.loc 1 353 17
	andi	a5,a0,1023
	.loc 1 353 8
	li	a4,4
.LVL71:
	.loc 1 345 1
	mv	s1,a0
	mv	s7,a1
	mv	s6,a3
	.loc 1 353 8
	bne	a5,a4,.L70
	.loc 1 354 9 is_stmt 1
	mv	a2,a1
.LVL72:
	mv	a1,a0
.LVL73:
	mv	a0,a3
.LVL74:
	call	misaligned_load_trap
.LVL75:
.L69:
	.loc 1 390 1 is_stmt 0
	lw	ra,92(sp)
	.cfi_remember_state
	.cfi_restore 1
	lw	s0,88(sp)
	.cfi_restore 8
.LVL76:
	lw	s1,84(sp)
	.cfi_restore 9
.LVL77:
	lw	s2,80(sp)
	.cfi_restore 18
	lw	s3,76(sp)
	.cfi_restore 19
	lw	s4,72(sp)
	.cfi_restore 20
	lw	s5,68(sp)
	.cfi_restore 21
	lw	s6,64(sp)
	.cfi_restore 22
.LVL78:
	lw	s7,60(sp)
	.cfi_restore 23
.LVL79:
	lw	s8,56(sp)
	.cfi_restore 24
	addi	sp,sp,96
	.cfi_def_cfa_offset 0
	jr	ra
.LVL80:
.L70:
	.cfi_restore_state
	.loc 1 355 12 is_stmt 1
	.loc 1 355 15 is_stmt 0
	li	a4,6
	bne	a5,a4,.L72
	.loc 1 356 9 is_stmt 1
	mv	a2,a1
.LVL81:
	mv	a1,a0
.LVL82:
	mv	a0,a3
	call	misaligned_store_trap
.LVL83:
	j	.L69
.LVL84:
.L72:
.LBB14:
.LBB15:
	.loc 1 324 67 is_stmt 0
	lui	s5,%hi(_fsymc_level_hosal)
	.loc 1 324 49
	lw	a4,%lo(_fsymc_level_hosal)(s5)
	li	a5,2
	mv	s8,a2
.LBE15:
.LBE14:
	.loc 1 358 9 is_stmt 1
.LVL85:
.LBB18:
.LBB16:
	.loc 1 324 3
	.loc 1 324 41
	.loc 1 324 46
	.loc 1 324 49 is_stmt 0
	bgtu	a4,a5,.L130
	.loc 1 324 110
	lui	s4,%hi(_fsymf_level_hosalbl_irq)
	.loc 1 324 90
	lw	a4,%lo(_fsymf_level_hosalbl_irq)(s4)
	bgtu	a4,a5,.L130
	.loc 1 324 142 is_stmt 1
	.loc 1 324 231 is_stmt 0
	call	xPortIsInsideInterrupt
.LVL86:
	.loc 1 324 142
	beq	a0,zero,.L77
	.loc 1 324 260
	call	xTaskGetTickCountFromISR
.LVL87:
.L132:
	.loc 1 324 291
	mv	a2,a0
	.loc 1 324 142
	lui	s3,%hi(.LC0)
	lui	s2,%hi(.LC3)
	lui	a0,%hi(.LC9)
	li	a4,324
	addi	a3,s3,%lo(.LC0)
	addi	a1,s2,%lo(.LC3)
	addi	a0,a0,%lo(.LC9)
	call	bl_printk
.LVL88:
	.loc 1 324 341 is_stmt 1
	.loc 1 324 352
	.loc 1 326 3
	.loc 1 326 41
	.loc 1 326 46
	.loc 1 326 49 is_stmt 0
	lw	a4,%lo(_fsymc_level_hosal)(s5)
	li	a5,2
	bgtu	a4,a5,.L130
	.loc 1 326 90
	lw	a4,%lo(_fsymf_level_hosalbl_irq)(s4)
	bleu	a4,a5,.L76
.L130:
	.loc 1 340 393 is_stmt 1
	.loc 1 341 68
.LVL89:
.LBE16:
.LBE18:
	.loc 1 359 9
	lui	a0,%hi(.LC15)
	addi	a0,a0,%lo(.LC15)
	call	puts
.LVL90:
	.loc 1 360 9
	.loc 1 360 47
	.loc 1 360 52
	.loc 1 360 55 is_stmt 0
	lw	a4,%lo(_fsymc_level_hosal)(s5)
	li	a5,2
	bgtu	a4,a5,.L105
	.loc 1 360 116 discriminator 3
	lui	a4,%hi(_fsymf_level_hosalbl_irq)
	.loc 1 360 96 discriminator 3
	lw	a4,%lo(_fsymf_level_hosalbl_irq)(a4)
	bgtu	a4,a5,.L105
	.loc 1 360 148 is_stmt 1 discriminator 5
	.loc 1 360 253 is_stmt 0 discriminator 5
	call	xPortIsInsideInterrupt
.LVL91:
	.loc 1 360 148 discriminator 5
	beq	a0,zero,.L106
	.loc 1 360 282 discriminator 7
	call	xTaskGetTickCountFromISR
.LVL92:
.L138:
	.loc 1 360 313 discriminator 8
	mv	a2,a0
	.loc 1 360 148 discriminator 8
	lui	a3,%hi(.LC0)
	lui	a1,%hi(.LC3)
	lui	a0,%hi(.LC16)
	mv	a7,s8
	mv	a6,s7
	mv	a5,s1
	li	a4,360
	addi	a3,a3,%lo(.LC0)
	addi	a1,a1,%lo(.LC3)
	addi	a0,a0,%lo(.LC16)
	call	bl_printk
.LVL93:
.L105:
	.loc 1 360 384 is_stmt 1 discriminator 11
	.loc 1 364 10 discriminator 11
	.loc 1 365 9 discriminator 11
.LBB19:
.LBB20:
	.loc 1 174 51 is_stmt 0 discriminator 11
	lw	a4,%lo(_fsymc_level_hosal)(s5)
.LBE20:
.LBE19:
	.loc 1 365 9 discriminator 11
	slli	s1,s1,16
.LVL94:
.LBB25:
.LBB21:
	.loc 1 174 51 discriminator 11
	li	a5,2
.LBE21:
.LBE25:
	.loc 1 365 9 discriminator 11
	srli	s1,s1,16
.LVL95:
.LBB26:
.LBB22:
	.loc 1 174 5 is_stmt 1 discriminator 11
	.loc 1 174 43 discriminator 11
	.loc 1 174 48 discriminator 11
	.loc 1 174 51 is_stmt 0 discriminator 11
	bgtu	a4,a5,.L108
	.loc 1 174 112
	lui	a4,%hi(_fsymf_level_hosalbl_irq)
	.loc 1 174 92
	lw	a4,%lo(_fsymf_level_hosalbl_irq)(a4)
	bgtu	a4,a5,.L108
	.loc 1 174 144 is_stmt 1
	.loc 1 174 231 is_stmt 0
	call	xPortIsInsideInterrupt
.LVL96:
	.loc 1 174 144
	beq	a0,zero,.L109
	.loc 1 174 260
	call	xTaskGetTickCountFromISR
.LVL97:
.L139:
	.loc 1 174 291
	mv	a2,a0
	.loc 1 174 144
	lui	a3,%hi(.LC0)
	lui	a1,%hi(.LC3)
	lui	a0,%hi(.LC17)
	mv	a5,s1
	li	a4,174
	addi	a3,a3,%lo(.LC0)
	addi	a1,a1,%lo(.LC3)
	addi	a0,a0,%lo(.LC17)
	call	bl_printk
.LVL98:
.L108:
	.loc 1 174 347 is_stmt 1
	.loc 1 174 358
	.loc 1 175 5
	li	a5,15
	bgtu	s1,a5,.L111
	lui	a5,%hi(.L113)
	addi	a5,a5,%lo(.L113)
	slli	s1,s1,2
.LVL99:
	add	s1,s1,a5
	lw	a5,0(s1)
	jr	a5
	.section	.rodata.exception_entry,"a",@progbits
	.align	2
	.align	2
.L113:
	.word	.L127
	.word	.L126
	.word	.L125
	.word	.L124
	.word	.L123
	.word	.L122
	.word	.L121
	.word	.L120
	.word	.L119
	.word	.L118
	.word	.L114
	.word	.L117
	.word	.L116
	.word	.L115
	.word	.L114
	.word	.L112
	.section	.text.exception_entry
.LVL100:
.L77:
.LBE22:
.LBE26:
.LBB27:
.LBB17:
	.loc 1 324 291 is_stmt 0
	call	xTaskGetTickCount
.LVL101:
	j	.L132
.L76:
	.loc 1 326 142 is_stmt 1
	.loc 1 326 231 is_stmt 0
	call	xPortIsInsideInterrupt
.LVL102:
	.loc 1 326 142
	beq	a0,zero,.L82
	.loc 1 326 260
	call	xTaskGetTickCountFromISR
.LVL103:
.L133:
	.loc 1 326 142
	lw	a5,4(s0)
	lw	a6,116(s0)
	.loc 1 326 291
	mv	a2,a0
	.loc 1 326 142
	lui	a0,%hi(.LC10)
	li	a4,326
	addi	a3,s3,%lo(.LC0)
	addi	a1,s2,%lo(.LC3)
	addi	a0,a0,%lo(.LC10)
	call	bl_printk
.LVL104:
	.loc 1 326 360 is_stmt 1
	.loc 1 327 43
	.loc 1 329 3
	.loc 1 329 41
	.loc 1 329 46
	.loc 1 329 49 is_stmt 0
	lw	a4,%lo(_fsymc_level_hosal)(s5)
	li	a5,2
	bgtu	a4,a5,.L130
	.loc 1 329 90
	lw	a4,%lo(_fsymf_level_hosalbl_irq)(s4)
	bgtu	a4,a5,.L130
	.loc 1 329 142 is_stmt 1
	.loc 1 329 276 is_stmt 0
	call	xPortIsInsideInterrupt
.LVL105:
	.loc 1 329 142
	beq	a0,zero,.L88
	.loc 1 329 305
	call	xTaskGetTickCountFromISR
.LVL106:
.L134:
	.loc 1 329 142
	lw	a5,52(s0)
	lw	a4,56(s0)
	.loc 1 329 336
	mv	a2,a0
	.loc 1 329 142
	sw	a5,12(sp)
	sw	a4,16(sp)
	sw	a5,8(sp)
	lw	a5,44(s0)
	lui	a0,%hi(.LC11)
	li	a4,329
	sw	a5,4(sp)
	lw	a5,40(s0)
	addi	a3,s3,%lo(.LC0)
	addi	a1,s2,%lo(.LC3)
	sw	a5,0(sp)
	lw	a5,28(s0)
	lw	a7,36(s0)
	lw	a6,32(s0)
	addi	a0,a0,%lo(.LC11)
	call	bl_printk
.LVL107:
	.loc 1 329 463 is_stmt 1
	.loc 1 332 66
	.loc 1 333 3
	.loc 1 333 41
	.loc 1 333 46
	.loc 1 333 49 is_stmt 0
	lw	a4,%lo(_fsymc_level_hosal)(s5)
	li	a5,2
	bgtu	a4,a5,.L130
	.loc 1 333 90
	lw	a4,%lo(_fsymf_level_hosalbl_irq)(s4)
	bgtu	a4,a5,.L130
	.loc 1 333 142 is_stmt 1
	.loc 1 333 265 is_stmt 0
	call	xPortIsInsideInterrupt
.LVL108:
	.loc 1 333 142
	beq	a0,zero,.L94
	.loc 1 333 294
	call	xTaskGetTickCountFromISR
.LVL109:
.L135:
	.loc 1 333 142
	lw	a5,112(s0)
	.loc 1 333 325
	mv	a2,a0
	.loc 1 333 142
	lui	a0,%hi(.LC12)
	sw	a5,12(sp)
	lw	a5,108(s0)
	li	a4,333
	addi	a3,s3,%lo(.LC0)
	sw	a5,8(sp)
	lw	a5,104(s0)
	addi	a1,s2,%lo(.LC3)
	addi	a0,a0,%lo(.LC12)
	sw	a5,4(sp)
	lw	a5,100(s0)
	sw	a5,0(sp)
	lw	a5,8(s0)
	lw	a7,16(s0)
	lw	a6,12(s0)
	call	bl_printk
.LVL110:
	.loc 1 333 442 is_stmt 1
	.loc 1 335 52
	.loc 1 336 3
	.loc 1 336 41
	.loc 1 336 46
	.loc 1 336 49 is_stmt 0
	lw	a4,%lo(_fsymc_level_hosal)(s5)
	li	a5,2
	bgtu	a4,a5,.L130
	.loc 1 336 90
	lw	a4,%lo(_fsymf_level_hosalbl_irq)(s4)
	bgtu	a4,a5,.L130
	.loc 1 336 142 is_stmt 1
	.loc 1 336 276 is_stmt 0
	call	xPortIsInsideInterrupt
.LVL111:
	.loc 1 336 142
	beq	a0,zero,.L100
	.loc 1 336 305
	call	xTaskGetTickCountFromISR
.LVL112:
.L136:
	.loc 1 336 142
	lw	a5,80(s0)
	.loc 1 336 336
	mv	a2,a0
	.loc 1 336 142
	lui	a0,%hi(.LC13)
	sw	a5,16(sp)
	lw	a5,76(s0)
	li	a4,336
	addi	a3,s3,%lo(.LC0)
	sw	a5,12(sp)
	lw	a5,72(s0)
	addi	a1,s2,%lo(.LC3)
	addi	a0,a0,%lo(.LC13)
	sw	a5,8(sp)
	lw	a5,68(s0)
	sw	a5,4(sp)
	lw	a5,64(s0)
	sw	a5,0(sp)
	lw	a5,20(s0)
	lw	a7,60(s0)
	lw	a6,24(s0)
	call	bl_printk
.LVL113:
	.loc 1 336 464 is_stmt 1
	.loc 1 339 66
	.loc 1 340 3
	.loc 1 340 41
	.loc 1 340 46
	.loc 1 340 49 is_stmt 0
	lw	a4,%lo(_fsymc_level_hosal)(s5)
	li	a5,2
	bgtu	a4,a5,.L130
	.loc 1 340 90
	lw	a4,%lo(_fsymf_level_hosalbl_irq)(s4)
	bgtu	a4,a5,.L130
	.loc 1 340 142 is_stmt 1
	.loc 1 340 243 is_stmt 0
	call	xPortIsInsideInterrupt
.LVL114:
	.loc 1 340 142
	beq	a0,zero,.L103
	.loc 1 340 272
	call	xTaskGetTickCountFromISR
.LVL115:
.L137:
	.loc 1 340 142
	lw	a5,96(s0)
	.loc 1 340 303
	mv	a2,a0
	.loc 1 340 142
	lui	a0,%hi(.LC14)
	sw	a5,0(sp)
	lw	a7,92(s0)
	lw	a6,88(s0)
	lw	a5,84(s0)
	li	a4,340
	addi	a3,s3,%lo(.LC0)
	addi	a1,s2,%lo(.LC3)
	addi	a0,a0,%lo(.LC14)
	call	bl_printk
.LVL116:
	j	.L130
.L82:
	.loc 1 326 291
	call	xTaskGetTickCount
.LVL117:
	j	.L133
.L88:
	.loc 1 329 336
	call	xTaskGetTickCount
.LVL118:
	j	.L134
.L94:
	.loc 1 333 325
	call	xTaskGetTickCount
.LVL119:
	j	.L135
.L100:
	.loc 1 336 336
	call	xTaskGetTickCount
.LVL120:
	j	.L136
.L103:
	.loc 1 340 303
	call	xTaskGetTickCount
.LVL121:
	j	.L137
.LVL122:
.L106:
.LBE17:
.LBE27:
	.loc 1 360 313 discriminator 8
	call	xTaskGetTickCount
.LVL123:
	j	.L138
.LVL124:
.L109:
.LBB28:
.LBB23:
	.loc 1 174 291
	call	xTaskGetTickCount
.LVL125:
	j	.L139
.LVL126:
.L127:
	.loc 1 179 13 is_stmt 1
	lui	a0,%hi(.LC18)
	addi	a0,a0,%lo(.LC18)
.L140:
	.loc 1 268 13 is_stmt 0
	call	puts
.LVL127:
.LBE23:
.LBE28:
	.loc 1 367 9 is_stmt 1
	lui	a0,%hi(puts)
	mv	a1,s6
	addi	a0,a0,%lo(puts)
	call	backtrace_now_task
.LVL128:
	.loc 1 369 9
	li	a0,4096
	addi	a0,a0,904
	call	bl_wdt_init
.LVL129:
	.loc 1 371 9
	li	a2,1
	addi	a1,sp,44
	li	a0,14
	call	GLB_GPIO_Func_Init
.LVL130:
	.loc 1 372 9
	.loc 1 372 13 is_stmt 0
	li	a5,12
	.loc 1 373 9
	li	a2,1
	addi	a1,sp,44
	li	a0,14
	.loc 1 372 13
	sw	a5,44(sp)
	.loc 1 373 9 is_stmt 1
	call	GLB_GPIO_Func_Init
.LVL131:
	.loc 1 374 9
	.loc 1 374 13 is_stmt 0
	li	a5,14
	.loc 1 375 9
	li	a2,1
	addi	a1,sp,44
	li	a0,14
	.loc 1 374 13
	sw	a5,44(sp)
	.loc 1 375 9 is_stmt 1
	call	GLB_GPIO_Func_Init
.LVL132:
	.loc 1 376 9
	.loc 1 376 13 is_stmt 0
	li	a5,17
	.loc 1 377 9
	li	a2,1
	addi	a1,sp,44
	li	a0,14
.LBB29:
	.loc 1 385 13
	lui	s0,%hi(_sp_main)
.LVL133:
.LBE29:
	.loc 1 376 13
	sw	a5,44(sp)
	.loc 1 377 9 is_stmt 1
.LBB30:
	.loc 1 385 13 is_stmt 0
	addi	s0,s0,%lo(_sp_main)
.LBE30:
	.loc 1 377 9
	call	GLB_GPIO_Func_Init
.LVL134:
.L129:
	.loc 1 379 9 is_stmt 1 discriminator 1
.LBB31:
	.loc 1 383 13 discriminator 1
	.loc 1 385 13 discriminator 1
 #APP
# 385 "/mnt/d/GitHub/bl_iot_sdk_for_aithinker/components/platform/hosal/bl602_hal/bl_irq.c" 1
	add sp, x0, s0
# 0 "" 2
	.loc 1 386 13 discriminator 1
 #NO_APP
	call	bl_coredump_run
.LVL135:
.LBE31:
	.loc 1 379 15 discriminator 1
	j	.L129
.LVL136:
.L126:
.LBB32:
.LBB24:
	.loc 1 185 13
	lui	a0,%hi(.LC19)
	addi	a0,a0,%lo(.LC19)
	j	.L140
.L125:
	.loc 1 191 13
	lui	a0,%hi(.LC20)
	addi	a0,a0,%lo(.LC20)
	j	.L140
.L124:
	.loc 1 197 13
	lui	a0,%hi(.LC21)
	addi	a0,a0,%lo(.LC21)
	j	.L140
.L123:
	.loc 1 203 13
	lui	a0,%hi(.LC22)
	addi	a0,a0,%lo(.LC22)
	j	.L140
.L122:
	.loc 1 209 13
	lui	a0,%hi(.LC23)
	addi	a0,a0,%lo(.LC23)
	j	.L140
.L121:
	.loc 1 215 13
	lui	a0,%hi(.LC24)
	addi	a0,a0,%lo(.LC24)
	j	.L140
.L120:
	.loc 1 221 13
	lui	a0,%hi(.LC25)
	addi	a0,a0,%lo(.LC25)
	j	.L140
.L119:
	.loc 1 227 13
	lui	a0,%hi(.LC26)
	addi	a0,a0,%lo(.LC26)
	j	.L140
.L118:
	.loc 1 233 13
	lui	a0,%hi(.LC27)
	addi	a0,a0,%lo(.LC27)
	j	.L140
.L114:
	.loc 1 240 13
	lui	a0,%hi(.LC28)
	addi	a0,a0,%lo(.LC28)
	j	.L140
.L117:
	.loc 1 246 13
	lui	a0,%hi(.LC29)
	addi	a0,a0,%lo(.LC29)
	j	.L140
.L116:
	.loc 1 252 13
	lui	a0,%hi(.LC30)
	addi	a0,a0,%lo(.LC30)
	j	.L140
.L115:
	.loc 1 258 13
	lui	a0,%hi(.LC31)
	addi	a0,a0,%lo(.LC31)
	j	.L140
.L112:
	.loc 1 264 13
	lui	a0,%hi(.LC32)
	addi	a0,a0,%lo(.LC32)
	j	.L140
.LVL137:
.L111:
	.loc 1 268 13
	lui	a0,%hi(.LC33)
	addi	a0,a0,%lo(.LC33)
	j	.L140
.LBE24:
.LBE32:
	.cfi_endproc
.LFE22:
	.size	exception_entry, .-exception_entry
	.section	.rodata.bl_irq_init.str1.4,"aMS",@progbits,1
	.align	2
.LC34:
	.string	"[IRQ] Clearing and Disable all the pending IRQ...\r\n"
	.section	.text.bl_irq_init,"ax",@progbits
	.align	1
	.globl	bl_irq_init
	.type	bl_irq_init, @function
bl_irq_init:
.LFB23:
	.loc 1 393 1
	.cfi_startproc
	.loc 1 394 5
	.loc 1 396 5
	lui	a0,%hi(.LC34)
	.loc 1 393 1 is_stmt 0
	addi	sp,sp,-16
	.cfi_def_cfa_offset 16
	.loc 1 396 5
	addi	a0,a0,%lo(.LC34)
	.loc 1 393 1
	sw	ra,12(sp)
	.cfi_offset 1, -4
	.loc 1 396 5
	call	puts
.LVL138:
	.loc 1 399 5 is_stmt 1
	.loc 1 399 28
	.loc 1 399 14 is_stmt 0
	li	a5,41943040
	addi	a4,a5,1024
	.loc 1 399 5
	addi	a5,a5,1152
.LVL139:
.L142:
	.loc 1 400 9 is_stmt 1 discriminator 3
	.loc 1 400 24 is_stmt 0 discriminator 3
	sb	zero,0(a4)
	.loc 1 399 52 is_stmt 1 discriminator 3
	.loc 1 399 55 is_stmt 0 discriminator 3
	addi	a4,a4,1
.LVL140:
	.loc 1 399 28 is_stmt 1 discriminator 3
	.loc 1 399 5 is_stmt 0 discriminator 3
	bne	a4,a5,.L142
	.loc 1 403 14
	li	a5,41943040
	.loc 1 403 5
	addi	a4,a5,128
.LVL141:
.L143:
	.loc 1 404 9 is_stmt 1 discriminator 3
	.loc 1 404 24 is_stmt 0 discriminator 3
	sb	zero,0(a5)
	.loc 1 403 52 is_stmt 1 discriminator 3
	.loc 1 403 55 is_stmt 0 discriminator 3
	addi	a5,a5,1
.LVL142:
	.loc 1 403 28 is_stmt 1 discriminator 3
	.loc 1 403 5 is_stmt 0 discriminator 3
	bne	a5,a4,.L143
	.loc 1 406 1
	lw	ra,12(sp)
	.cfi_restore 1
	addi	sp,sp,16
	.cfi_def_cfa_offset 0
	jr	ra
	.cfi_endproc
.LFE23:
	.size	bl_irq_init, .-bl_irq_init
	.section	.text.bl_irq_save,"ax",@progbits
	.align	1
	.globl	bl_irq_save
	.type	bl_irq_save, @function
bl_irq_save:
.LFB24:
	.loc 1 409 1 is_stmt 1
	.cfi_startproc
	.loc 1 410 5
	.loc 1 413 5
	li	a0,8
 #APP
# 413 "/mnt/d/GitHub/bl_iot_sdk_for_aithinker/components/platform/hosal/bl602_hal/bl_irq.c" 1
	csrrc a0, mstatus, a0
# 0 "" 2
.LVL143:
	.loc 1 414 5
	.loc 1 415 1 is_stmt 0
 #NO_APP
	ret
	.cfi_endproc
.LFE24:
	.size	bl_irq_save, .-bl_irq_save
	.section	.text.bl_irq_restore,"ax",@progbits
	.align	1
	.globl	bl_irq_restore
	.type	bl_irq_restore, @function
bl_irq_restore:
.LFB25:
	.loc 1 418 1 is_stmt 1
	.cfi_startproc
.LVL144:
	.loc 1 419 5
 #APP
# 419 "/mnt/d/GitHub/bl_iot_sdk_for_aithinker/components/platform/hosal/bl602_hal/bl_irq.c" 1
	csrw mstatus, a0
# 0 "" 2
	.loc 1 422 1 is_stmt 0
 #NO_APP
	ret
	.cfi_endproc
.LFE25:
	.size	bl_irq_restore, .-bl_irq_restore
	.globl	_fsymf_info_hosalbl_irq
	.section	.rodata.str1.4,"aMS",@progbits,1
	.align	2
.LC35:
	.string	"hosal.bl_irq"
	.comm	_fsymf_level_hosalbl_irq,4,4
	.align	2
.LC36:
	.string	"hosal"
	.weak	_fsymc_level_hosal
	.section	.bss.handler_list,"aw",@nobits
	.align	2
	.set	.LANCHOR0,. + 0
	.type	handler_list, @object
	.size	handler_list, 640
handler_list:
	.zero	640
	.section	.sbss._fsymc_level_hosal,"aw",@nobits
	.align	2
	.type	_fsymc_level_hosal, @object
	.size	_fsymc_level_hosal, 4
_fsymc_level_hosal:
	.zero	4
	.section	.srodata.BLOG_HARD_DECLARE_DISABLE,"a"
	.align	2
	.type	BLOG_HARD_DECLARE_DISABLE, @object
	.size	BLOG_HARD_DECLARE_DISABLE, 4
BLOG_HARD_DECLARE_DISABLE:
	.zero	4
	.section	.static_blogcomponent_code.hosal,"a"
	.align	2
	.type	_fsymc_info_hosal, @object
	.size	_fsymc_info_hosal, 8
_fsymc_info_hosal:
	.word	_fsymc_level_hosal
	.word	.LC36
	.section	.static_blogfile_code.hosalbl_irq,"a"
	.align	2
	.type	_fsymf_info_hosalbl_irq, @object
	.size	_fsymf_info_hosalbl_irq, 8
_fsymf_info_hosalbl_irq:
	.word	_fsymf_level_hosalbl_irq
	.word	.LC35
	.text
.Letext0:
	.file 2 "/mnt/d/GitHub/bl_iot_sdk_for_aithinker/toolchain/riscv/Linux/lib/gcc/riscv64-unknown-elf/10.2.0/include/stdint-gcc.h"
	.file 3 "/mnt/d/GitHub/bl_iot_sdk_for_aithinker/components/stage/blog/blog_type.h"
	.file 4 "/mnt/d/GitHub/bl_iot_sdk_for_aithinker/components/stage/blog/blog.h"
	.file 5 "/mnt/d/GitHub/bl_iot_sdk_for_aithinker/components/platform/hosal/bl602_hal/bl_irq.h"
	.file 6 "/mnt/d/GitHub/bl_iot_sdk_for_aithinker/components/platform/soc/bl602/bl602_std/bl602_std/StdDriver/Inc/bl602_gpio.h"
	.file 7 "/mnt/d/GitHub/bl_iot_sdk_for_aithinker/toolchain/riscv/Linux/riscv64-unknown-elf/include/stdio.h"
	.file 8 "/mnt/d/GitHub/bl_iot_sdk_for_aithinker/components/stage/coredump/inc/bl_coredump.h"
	.file 9 "/mnt/d/GitHub/bl_iot_sdk_for_aithinker/components/platform/soc/bl602/freertos_riscv_ram/portable/GCC/RISC-V/portmacro.h"
	.file 10 "/mnt/d/GitHub/bl_iot_sdk_for_aithinker/components/platform/soc/bl602/freertos_riscv_ram/config/task.h"
	.file 11 "/mnt/d/GitHub/bl_iot_sdk_for_aithinker/components/utils/include/utils_log.h"
	.file 12 "/mnt/d/GitHub/bl_iot_sdk_for_aithinker/components/platform/soc/bl602/freertos_riscv_ram/panic/panic.h"
	.file 13 "/mnt/d/GitHub/bl_iot_sdk_for_aithinker/components/platform/hosal/bl602_hal/bl_wdt.h"
	.file 14 "/mnt/d/GitHub/bl_iot_sdk_for_aithinker/components/platform/soc/bl602/bl602_std/bl602_std/StdDriver/Inc/bl602_glb.h"