	.file	"bl_pwm.c"
	.option nopic
	.attribute arch, "rv32i2p0_m2p0_f2p0_c2p0"
	.attribute unaligned_access, 0
	.attribute stack_align, 16
	.text
.Ltext0:
	.cfi_sections	.debug_frame
	.section	.rodata.bl_pwm_init.str1.4,"aMS",@progbits,1
	.align	2
.LC0:
	.string	"bl_pwm.c"
	.align	2
.LC1:
	.string	"\033[31mERROR\033[0m"
	.align	2
.LC2:
	.string	"%s (%d)[%s:%4d] arg error. bl_pwm_init freq = %ld\r\n\r\n"
	.section	.text.bl_pwm_init,"ax",@progbits
	.align	1
	.globl	bl_pwm_init
	.type	bl_pwm_init, @function
bl_pwm_init:
.LFB10:
	.file 1 "/mnt/d/GitHub/bl_iot_sdk_for_aithinker/components/platform/hosal/bl602_hal/bl_pwm.c"
	.loc 1 53 1
	.cfi_startproc
.LVL0:
	.loc 1 54 5
	.loc 1 54 8 is_stmt 0
	li	a5,22
	bgtu	a1,a5,.L6
	.loc 1 53 1
	addi	sp,sp,-48
	.cfi_def_cfa_offset 48
	.loc 1 59 8
	li	a5,798720
	.loc 1 53 1
	sw	s0,40(sp)
	sw	ra,44(sp)
	sw	s1,36(sp)
	.cfi_offset 8, -8
	.cfi_offset 1, -4
	.cfi_offset 9, -12
	.loc 1 59 23
	addi	a4,a2,-2000
	.loc 1 59 8
	addi	a5,a5,-720
	mv	s0,a2
	.loc 1 59 5 is_stmt 1
	.loc 1 59 8 is_stmt 0
	bleu	a4,a5,.L3
	.loc 1 60 9 is_stmt 1 discriminator 1
	.loc 1 60 47 discriminator 1
	.loc 1 60 52 discriminator 1
	.loc 1 60 74 is_stmt 0 discriminator 1
	lui	a5,%hi(_fsymc_level_hosal)
	.loc 1 60 55 discriminator 1
	lw	a4,%lo(_fsymc_level_hosal)(a5)
	li	a5,4
	.loc 1 55 16 discriminator 1
	li	a0,-1
.LVL1:
	.loc 1 60 55 discriminator 1
	bgtu	a4,a5,.L1
	.loc 1 60 118 discriminator 3
	lui	a4,%hi(_fsymf_level_hosalbl_pwm)
	.loc 1 60 97 discriminator 3
	lw	a4,%lo(_fsymf_level_hosalbl_pwm)(a4)
	bgtu	a4,a5,.L1
	.loc 1 60 150 is_stmt 1 discriminator 5
	.loc 1 60 252 is_stmt 0 discriminator 5
	call	xPortIsInsideInterrupt
.LVL2:
	.loc 1 60 150 discriminator 5
	beq	a0,zero,.L4
	.loc 1 60 281 discriminator 7
	call	xTaskGetTickCountFromISR
.LVL3:
.L13:
	.loc 1 60 312 discriminator 8
	mv	a2,a0
	.loc 1 60 150 discriminator 8
	lui	a3,%hi(.LC0)
	lui	a1,%hi(.LC1)
	lui	a0,%hi(.LC2)
	addi	a0,a0,%lo(.LC2)
	mv	a5,s0
	li	a4,60
	addi	a3,a3,%lo(.LC0)
	addi	a1,a1,%lo(.LC1)
	call	bl_printk
.LVL4:
	.loc 1 61 16 discriminator 8
	li	a0,-1
.L1:
	.loc 1 69 1
	lw	ra,44(sp)
	.cfi_remember_state
	.cfi_restore 1
	lw	s0,40(sp)
	.cfi_restore 8
.LVL5:
	lw	s1,36(sp)
	.cfi_restore 9
	addi	sp,sp,48
	.cfi_def_cfa_offset 0
	jr	ra
.LVL6:
.L4:
	.cfi_restore_state
	.loc 1 60 312 discriminator 8
	call	xTaskGetTickCount
.LVL7:
	j	.L13
.LVL8:
.L3:
.LBB6:
.LBB7:
	.loc 1 19 17
	li	a5,8
	sb	a5,5(sp)
	.loc 1 16 15
	li	a5,257
	mv	s1,a0
.LBE7:
.LBE6:
	.loc 1 65 5 is_stmt 1
.LVL9:
.LBB9:
.LBB8:
	.loc 1 12 2
	.loc 1 14 2
	.loc 1 15 2
	.loc 1 16 2
	.loc 1 17 2
	.loc 1 18 5
	.loc 1 16 15 is_stmt 0
	sh	a5,6(sp)
	.loc 1 21 5
	addi	a0,sp,4
.LVL10:
	.loc 1 14 12
	li	a5,256
	sh	a5,8(sp)
	.loc 1 18 17
	sb	a1,4(sp)
	.loc 1 19 5 is_stmt 1
	.loc 1 21 5
	call	GLB_GPIO_Init
.LVL11:
.LBE8:
.LBE9:
	.loc 1 66 5
.LBB10:
.LBB11:
	.loc 1 26 5
	.loc 1 26 21 is_stmt 0
	li	a1,0
	li	a2,24
	addi	a0,sp,8
	call	memset
.LVL12:
	.loc 1 39 5 is_stmt 1
	.loc 1 43 5
	.loc 1 43 29 is_stmt 0
	li	a4,40001536
	addi	a4,a4,-1536
	divu	a2,a4,s0
	.loc 1 46 5
	mv	a0,s1
	.loc 1 44 15
	sw	s1,4(sp)
	.loc 1 43 19
	sh	a2,22(sp)
	.loc 1 44 5 is_stmt 1
	.loc 1 46 5
	call	PWM_Channel_Disable
.LVL13:
	.loc 1 47 5
	addi	a0,sp,4
	call	PWM_Channel_Init
.LVL14:
	.loc 1 49 5
.LBE11:
.LBE10:
	.loc 1 68 12 is_stmt 0
	li	a0,0
	j	.L1
.LVL15:
.L6:
	.cfi_def_cfa_offset 0
	.cfi_restore 1
	.cfi_restore 8
	.cfi_restore 9
	.loc 1 55 16
	li	a0,-1
.LVL16:
	.loc 1 69 1
	ret
	.cfi_endproc
.LFE10:
	.size	bl_pwm_init, .-bl_pwm_init
	.section	.text.bl_pwm_start,"ax",@progbits
	.align	1
	.globl	bl_pwm_start
	.type	bl_pwm_start, @function
bl_pwm_start:
.LFB11:
	.loc 1 72 1 is_stmt 1
	.cfi_startproc
.LVL17:
	.loc 1 73 5
	.loc 1 72 1 is_stmt 0
	addi	sp,sp,-16
	.cfi_def_cfa_offset 16
	sw	ra,12(sp)
	.cfi_offset 1, -4
	.loc 1 73 5
	call	PWM_Channel_Enable
.LVL18:
	.loc 1 74 5 is_stmt 1
	.loc 1 75 1 is_stmt 0
	lw	ra,12(sp)
	.cfi_restore 1
	li	a0,0
	addi	sp,sp,16
	.cfi_def_cfa_offset 0
	jr	ra
	.cfi_endproc
.LFE11:
	.size	bl_pwm_start, .-bl_pwm_start
	.section	.text.bl_pwm_stop,"ax",@progbits
	.align	1
	.globl	bl_pwm_stop
	.type	bl_pwm_stop, @function
bl_pwm_stop:
.LFB12:
	.loc 1 78 1 is_stmt 1
	.cfi_startproc
.LVL19:
	.loc 1 79 5
	.loc 1 78 1 is_stmt 0
	addi	sp,sp,-16
	.cfi_def_cfa_offset 16
	sw	ra,12(sp)
	.cfi_offset 1, -4
	.loc 1 79 5
	call	PWM_Channel_Disable
.LVL20:
	.loc 1 80 5 is_stmt 1
	.loc 1 81 1 is_stmt 0
	lw	ra,12(sp)
	.cfi_restore 1
	li	a0,0
	addi	sp,sp,16
	.cfi_def_cfa_offset 0
	jr	ra
	.cfi_endproc
.LFE12:
	.size	bl_pwm_stop, .-bl_pwm_stop
	.section	.text.bl_pwm_set_freq,"ax",@progbits
	.align	1
	.globl	bl_pwm_set_freq
	.type	bl_pwm_set_freq, @function
bl_pwm_set_freq:
.LFB13:
	.loc 1 84 1 is_stmt 1
	.cfi_startproc
.LVL21:
	.loc 1 85 5
	.loc 1 84 1 is_stmt 0
	addi	sp,sp,-16
	.cfi_def_cfa_offset 16
	sw	ra,12(sp)
	sw	s0,8(sp)
	sw	s1,4(sp)
	.cfi_offset 1, -4
	.cfi_offset 8, -8
	.cfi_offset 9, -12
	.loc 1 84 1
	mv	s0,a0
	mv	s1,a1
	.loc 1 85 5
	call	PWM_Channel_Disable
.LVL22:
	.loc 1 87 5 is_stmt 1
	.loc 1 88 5
	.loc 1 89 5
	.loc 1 91 5
	.loc 1 87 31 is_stmt 0
	li	a5,40001536
	addi	a5,a5,-1536
	divu	a1,a5,s1
	.loc 1 91 5
	mv	a0,s0
	li	a3,0
	li	a2,0
	slli	a1,a1,16
	srli	a1,a1,16
	call	PWM_Channel_Update
.LVL23:
	.loc 1 92 5 is_stmt 1
	mv	a0,s0
	call	PWM_Channel_Enable
.LVL24:
	.loc 1 94 5
	.loc 1 95 1 is_stmt 0
	lw	ra,12(sp)
	.cfi_restore 1
	lw	s0,8(sp)
	.cfi_restore 8
	lw	s1,4(sp)
	.cfi_restore 9
.LVL25:
	li	a0,0
	addi	sp,sp,16
	.cfi_def_cfa_offset 0
	jr	ra
	.cfi_endproc
.LFE13:
	.size	bl_pwm_set_freq, .-bl_pwm_set_freq
	.section	.text.bl_pwm_set_duty,"ax",@progbits
	.align	1
	.globl	bl_pwm_set_duty
	.type	bl_pwm_set_duty, @function
bl_pwm_set_duty:
.LFB14:
	.loc 1 98 1 is_stmt 1
	.cfi_startproc
.LVL26:
	.loc 1 99 5
	.loc 1 100 5
	.loc 1 101 5
	.loc 1 103 5
	.loc 1 98 1 is_stmt 0
	addi	sp,sp,-48
	.cfi_def_cfa_offset 48
	.loc 1 103 5
	addi	a3,sp,14
	addi	a2,sp,12
	addi	a1,sp,10
	.loc 1 98 1
	sw	ra,44(sp)
	sw	s0,40(sp)
	fsw	fs0,28(sp)
	.cfi_offset 1, -4
	.cfi_offset 8, -8
	.cfi_offset 40, -20
	.loc 1 98 1
	mv	s0,a0
	fmv.s	fs0,fa0
	.loc 1 103 5
	call	PWM_Channel_Get
.LVL27:
	.loc 1 105 5 is_stmt 1
	.loc 1 106 35 is_stmt 0
	lhu	a5,10(sp)
	li	a4,100
	.loc 1 108 5
	mv	a0,s0
	.loc 1 106 35
	divu	a5,a5,a4
	.loc 1 108 5
	li	a1,0
	.loc 1 105 16
	sh	zero,12(sp)
	.loc 1 106 5 is_stmt 1
	.loc 1 106 40 is_stmt 0
	fcvt.s.w	fa0,a5
	fmul.s	fa0,fa0,fs0
	.loc 1 106 18
	fcvt.wu.s a5,fa0,rtz
	sh	a5,14(sp)
	.loc 1 108 5 is_stmt 1
	call	PWM_Channel_Set_Threshold1
.LVL28:
	.loc 1 109 5
	lhu	a1,14(sp)
	mv	a0,s0
	call	PWM_Channel_Set_Threshold2
.LVL29:
	.loc 1 110 5
	.loc 1 111 1 is_stmt 0
	lw	ra,44(sp)
	.cfi_restore 1
	lw	s0,40(sp)
	.cfi_restore 8
	flw	fs0,28(sp)
	.cfi_restore 40
.LVL30:
	li	a0,0
	addi	sp,sp,48
	.cfi_def_cfa_offset 0
	jr	ra
	.cfi_endproc
.LFE14:
	.size	bl_pwm_set_duty, .-bl_pwm_set_duty
	.section	.text.bl_pwm_get_duty,"ax",@progbits
	.align	1
	.globl	bl_pwm_get_duty
	.type	bl_pwm_get_duty, @function
bl_pwm_get_duty:
.LFB15:
	.loc 1 114 1 is_stmt 1
	.cfi_startproc
.LVL31:
	.loc 1 115 5
	.loc 1 116 5
	.loc 1 117 5
	.loc 1 119 5
	.loc 1 119 8 is_stmt 0
	beq	a1,zero,.L24
	.loc 1 114 1
	addi	sp,sp,-32
	.cfi_def_cfa_offset 32
	sw	s0,24(sp)
	.loc 1 122 5
	addi	a3,sp,14
	.cfi_offset 8, -8
	mv	s0,a1
	.loc 1 122 5 is_stmt 1
	addi	a2,sp,12
	addi	a1,sp,10
.LVL32:
	.loc 1 114 1 is_stmt 0
	sw	ra,28(sp)
	.cfi_offset 1, -4
	.loc 1 122 5
	call	PWM_Channel_Get
.LVL33:
	.loc 1 124 5 is_stmt 1
	.loc 1 124 15 is_stmt 0
	lhu	a5,14(sp)
	.loc 1 126 12
	li	a0,0
	.loc 1 124 15
	fcvt.s.wu	fa5,a5
	.loc 1 124 33
	lui	a5,%hi(.LC3)
	flw	fa4,%lo(.LC3)(a5)
	.loc 1 124 39
	lhu	a5,10(sp)
	.loc 1 124 33
	fmul.s	fa5,fa5,fa4
	.loc 1 124 39
	fcvt.s.w	fa4,a5
	fdiv.s	fa5,fa5,fa4
	.loc 1 124 13
	fsw	fa5,0(s0)
	.loc 1 126 5 is_stmt 1
	.loc 1 127 1 is_stmt 0
	lw	ra,28(sp)
	.cfi_restore 1
	lw	s0,24(sp)
	.cfi_restore 8
.LVL34:
	addi	sp,sp,32
	.cfi_def_cfa_offset 0
	jr	ra
.LVL35:
.L24:
	.loc 1 120 16
	li	a0,-1
.LVL36:
	.loc 1 127 1
	ret
	.cfi_endproc
.LFE15:
	.size	bl_pwm_get_duty, .-bl_pwm_get_duty
	.globl	_fsymf_info_hosalbl_pwm
	.section	.rodata.str1.4,"aMS",@progbits,1
	.align	2
.LC4:
	.string	"hosal.bl_pwm"
	.comm	_fsymf_level_hosalbl_pwm,4,4
	.align	2
.LC5:
	.string	"hosal"
	.weak	_fsymc_level_hosal
	.section	.srodata.cst4,"aM",@progbits,4
	.align	2
.LC3:
	.word	1120403456
	.section	.sbss._fsymc_level_hosal,"aw",@nobits
	.align	2
	.type	_fsymc_level_hosal, @object
	.size	_fsymc_level_hosal, 4
_fsymc_level_hosal:
	.zero	4
	.section	.srodata.BLOG_HARD_DECLARE_DISABLE,"a"
	.align	2
	.type	BLOG_HARD_DECLARE_DISABLE, @object
	.size	BLOG_HARD_DECLARE_DISABLE, 4
BLOG_HARD_DECLARE_DISABLE:
	.zero	4
	.section	.static_blogcomponent_code.hosal,"a"
	.align	2
	.type	_fsymc_info_hosal, @object
	.size	_fsymc_info_hosal, 8
_fsymc_info_hosal:
	.word	_fsymc_level_hosal
	.word	.LC5
	.section	.static_blogfile_code.hosalbl_pwm,"a"
	.align	2
	.type	_fsymf_info_hosalbl_pwm, @object
	.size	_fsymf_info_hosalbl_pwm, 8
_fsymf_info_hosalbl_pwm:
	.word	_fsymf_level_hosalbl_pwm
	.word	.LC4
	.text
.Letext0:
	.file 2 "/mnt/d/GitHub/bl_iot_sdk_for_aithinker/toolchain/riscv/Linux/lib/gcc/riscv64-unknown-elf/10.2.0/include/stdint-gcc.h"
	.file 3 "/mnt/d/GitHub/bl_iot_sdk_for_aithinker/components/platform/soc/bl602/bl602_std/bl602_std/StdDriver/Inc/bl602_pwm.h"
	.file 4 "/mnt/d/GitHub/bl_iot_sdk_for_aithinker/components/platform/soc/bl602/bl602_std/bl602_std/StdDriver/Inc/bl602_gpio.h"
	.file 5 "/mnt/d/GitHub/bl_iot_sdk_for_aithinker/components/stage/blog/blog_type.h"
	.file 6 "/mnt/d/GitHub/bl_iot_sdk_for_aithinker/components/stage/blog/blog.h"
	.file 7 "/mnt/d/GitHub/bl_iot_sdk_for_aithinker/components/platform/soc/bl602/bl602_std/bl602_std/StdDriver/Inc/bl602_glb.h"
	.file 8 "/mnt/d/GitHub/bl_iot_sdk_for_aithinker/components/platform/soc/bl602/freertos_riscv_ram/portable/GCC/RISC-V/portmacro.h"
	.file 9 "/mnt/d/GitHub/bl_iot_sdk_for_aithinker/components/platform/soc/bl602/freertos_riscv_ram/config/task.h"
	.file 10 "/mnt/d/GitHub/bl_iot_sdk_for_aithinker/components/utils/include/utils_log.h"
	.file 11 "<built-in>"