	.file	"bl_pm.c"
	.option nopic
	.attribute arch, "rv32i2p0_m2p0_f2p0_c2p0"
	.attribute unaligned_access, 0
	.attribute stack_align, 16
	.text
.Ltext0:
	.cfi_sections	.debug_frame
	.section	.rodata.pm_post_event.str1.4,"aMS",@progbits,1
	.align	2
.LC0:
	.string	"bl_pm.c"
	.align	2
.LC1:
	.string	"\033[31mERROR\033[0m"
	.align	2
.LC2:
	.string	"%s (%d)[%s:%4d] pm not init or is running.\r\n\r\n"
	.align	2
.LC3:
	.string	"%s (%d)[%s:%4d] pm is not running.\r\n\r\n"
	.section	.text.pm_post_event,"ax",@progbits
	.align	1
	.globl	pm_post_event
	.type	pm_post_event, @function
pm_post_event:
.LFB37:
	.file 1 "/mnt/d/GitHub/bl_iot_sdk_for_aithinker/components/platform/hosal/bl602_hal/bl_pm.c"
	.loc 1 266 1
	.cfi_startproc
.LVL0:
	.loc 1 267 5
	.loc 1 266 1 is_stmt 0
	addi	sp,sp,-32
	.cfi_def_cfa_offset 32
	sw	s2,16(sp)
	.cfi_offset 18, -16
	.loc 1 267 9
	lui	s2,%hi(.LANCHOR0)
	lw	a5,%lo(.LANCHOR0)(s2)
	.loc 1 266 1
	sw	ra,28(sp)
	sw	s0,24(sp)
	sw	s1,20(sp)
	sw	s3,12(sp)
	sw	s4,8(sp)
	sw	s5,4(sp)
	sw	s6,0(sp)
	.cfi_offset 1, -4
	.cfi_offset 8, -8
	.cfi_offset 9, -12
	.cfi_offset 19, -20
	.cfi_offset 20, -24
	.cfi_offset 21, -28
	.cfi_offset 22, -32
	.loc 1 267 8
	beq	a5,zero,.L20
	.loc 1 271 5
	lw	a5,20(a5)
	.loc 1 271 52
	slli	s4,a0,3
	mv	s5,a0
	mv	s1,a1
	mv	s0,a2
	addi	s2,s2,%lo(.LANCHOR0)
	.loc 1 271 5 is_stmt 1
	add	s4,a5,s4
.LVL1:
.LBB56:
.LBB57:
	.loc 1 190 5
	.loc 1 191 5
	.loc 1 192 5
	.loc 1 194 5
	.loc 1 194 8 is_stmt 0
	beq	a2,zero,.L3
	.loc 1 195 9 is_stmt 1
	.loc 1 195 17 is_stmt 0
	sw	zero,0(a2)
.L3:
	.loc 1 198 5 is_stmt 1
	.loc 1 198 15 is_stmt 0
	lw	a5,4(s4)
.LVL2:
	.loc 1 198 157
	li	s3,0
	beq	a5,zero,.L4
	lw	s3,4(a5)
.L4:
.LBB58:
.LBB59:
	.loc 1 179 42
	li	s6,4
.LVL3:
.L5:
.LBE59:
.LBE58:
	.loc 1 198 6 is_stmt 1
	.loc 1 198 5 is_stmt 0
	bne	s4,a5,.L11
.LVL4:
.LBE57:
.LBE56:
	.loc 1 272 5 is_stmt 1
.LBB65:
.LBB66:
	.loc 1 218 5
	.loc 1 220 5
.LBE66:
.LBE65:
	.loc 1 274 12 is_stmt 0
	li	a0,0
.LBB81:
.LBB75:
	.loc 1 220 5
	bne	s5,zero,.L1
	.loc 1 223 13 is_stmt 1
	beq	s1,zero,.L12
	li	a5,1
	beq	s1,a5,.L13
.LVL5:
.L1:
.LBE75:
.LBE81:
	.loc 1 275 1 is_stmt 0
	lw	ra,28(sp)
	.cfi_remember_state
	.cfi_restore 1
	lw	s0,24(sp)
	.cfi_restore 8
	lw	s1,20(sp)
	.cfi_restore 9
	lw	s2,16(sp)
	.cfi_restore 18
	lw	s3,12(sp)
	.cfi_restore 19
	lw	s4,8(sp)
	.cfi_restore 20
	lw	s5,4(sp)
	.cfi_restore 21
	lw	s6,0(sp)
	.cfi_restore 22
	addi	sp,sp,32
	.cfi_def_cfa_offset 0
	jr	ra
.LVL6:
.L11:
	.cfi_restore_state
.LBB82:
.LBB64:
	.loc 1 199 9 is_stmt 1
	.loc 1 199 12 is_stmt 0
	lw	a4,28(a5)
	beq	a4,zero,.L7
	.loc 1 199 28
	lw	a4,12(a5)
	bne	s1,a4,.L7
	.loc 1 199 65
	lw	a3,0(s2)
	.loc 1 199 91
	lw	a4,20(a5)
	.loc 1 199 85
	lw	a2,4(a3)
	and	a2,a4,a2
	.loc 1 199 52
	beq	a2,zero,.L7
	.loc 1 200 45
	lw	a2,8(a3)
	and	a4,a4,a2
	.loc 1 199 102
	beq	a4,zero,.L7
	.loc 1 202 13 is_stmt 1
.LVL7:
.LBB61:
.LBB60:
	.loc 1 177 5
	.loc 1 179 5
	.loc 1 179 8 is_stmt 0
	beq	s5,zero,.L9
	.loc 1 179 42
	lw	a4,12(a3)
	bne	a4,s6,.L22
.L9:
.LVL8:
.LBE60:
.LBE61:
	.loc 1 206 13 is_stmt 1
.LBB62:
.LBB63:
	.loc 1 168 5
	.loc 1 168 13 is_stmt 0
	lw	a4,24(a5)
	.loc 1 168 8
	beq	a4,zero,.L7
	.loc 1 172 5 is_stmt 1
	.loc 1 172 12 is_stmt 0
	lw	a0,32(a5)
	jalr	a4
.LVL9:
.LBE63:
.LBE62:
	.loc 1 207 13 is_stmt 1
	.loc 1 207 16 is_stmt 0
	beq	a0,zero,.L7
	.loc 1 207 21
	beq	s0,zero,.L7
	.loc 1 208 17 is_stmt 1
	.loc 1 208 25 is_stmt 0
	lw	a5,0(s0)
	ori	a5,a5,1
	sw	a5,0(s0)
.LVL10:
.L7:
	.loc 1 198 36 is_stmt 1
	.loc 1 198 153 is_stmt 0
	li	a4,0
	beq	s3,zero,.L10
	lw	a4,4(s3)
.L10:
	mv	a5,s3
	mv	s3,a4
.LVL11:
	j	.L5
.LVL12:
.L12:
.LBE64:
.LBE82:
.LBB83:
.LBB76:
	.loc 1 226 21 is_stmt 1
.LBB67:
.LBB68:
	.loc 1 138 5
	.loc 1 138 21 is_stmt 0
	lw	a5,0(s2)
	lw	a4,12(a5)
.LBE68:
.LBE67:
	.loc 1 226 24
	beq	a4,zero,.L14
.LBE76:
.LBE83:
	.loc 1 138 5 is_stmt 1
.LBB84:
.LBB77:
	.loc 1 226 61 is_stmt 0
	li	a3,3
	beq	a4,a3,.L14
	.loc 1 227 25 is_stmt 1
	.loc 1 227 63
	.loc 1 227 68
	.loc 1 227 90 is_stmt 0
	lui	a5,%hi(_fsymc_level_hosal)
	.loc 1 227 71
	lw	a4,%lo(_fsymc_level_hosal)(a5)
	li	a5,4
.LBE77:
.LBE84:
	.loc 1 274 12
	li	a0,0
.LBB85:
.LBB78:
	.loc 1 227 71
	bgtu	a4,a5,.L1
	.loc 1 227 134
	lui	a4,%hi(_fsymf_level_hosalbl_pm)
	.loc 1 227 113
	lw	a4,%lo(_fsymf_level_hosalbl_pm)(a4)
	bgtu	a4,a5,.L1
	.loc 1 227 165 is_stmt 1
	.loc 1 227 260 is_stmt 0
	call	xPortIsInsideInterrupt
.LVL13:
	.loc 1 227 165
	beq	a0,zero,.L15
	.loc 1 227 289
	call	xTaskGetTickCountFromISR
.LVL14:
.L54:
	.loc 1 227 320
	mv	a2,a0
	.loc 1 227 165
	lui	a3,%hi(.LC0)
	lui	a1,%hi(.LC1)
	lui	a0,%hi(.LC2)
	li	a4,227
	addi	a3,a3,%lo(.LC0)
	addi	a1,a1,%lo(.LC1)
	addi	a0,a0,%lo(.LC2)
.L56:
	.loc 1 239 165
	call	bl_printk
.LVL15:
	j	.L22
.L15:
	.loc 1 227 320
	call	xTaskGetTickCount
.LVL16:
	j	.L54
.L14:
	.loc 1 232 21 is_stmt 1
.LVL17:
.LBB69:
.LBB70:
	.loc 1 131 5
	.loc 1 131 22 is_stmt 0
	li	a4,2
	sw	a4,12(a5)
	.loc 1 133 5 is_stmt 1
.LVL18:
.L22:
.LBE70:
.LBE69:
.LBE78:
.LBE85:
	.loc 1 274 12 is_stmt 0
	li	a0,0
	j	.L1
.LVL19:
.L13:
.LBB86:
.LBB79:
	.loc 1 238 21 is_stmt 1
.LBB71:
.LBB72:
	.loc 1 138 5
	.loc 1 138 21 is_stmt 0
	lw	a4,0(s2)
.LBE72:
.LBE71:
	.loc 1 238 24
	li	a5,4
	lw	a3,12(a4)
	beq	a3,a5,.L17
	.loc 1 239 25 is_stmt 1
	.loc 1 239 63
	.loc 1 239 68
	.loc 1 239 90 is_stmt 0
	lui	a4,%hi(_fsymc_level_hosal)
	.loc 1 239 71
	lw	a4,%lo(_fsymc_level_hosal)(a4)
.LBE79:
.LBE86:
	.loc 1 274 12
	li	a0,0
.LBB87:
.LBB80:
	.loc 1 239 71
	bgtu	a4,a5,.L1
	.loc 1 239 134
	lui	a4,%hi(_fsymf_level_hosalbl_pm)
	.loc 1 239 113
	lw	a4,%lo(_fsymf_level_hosalbl_pm)(a4)
	bgtu	a4,a5,.L1
	.loc 1 239 165 is_stmt 1
	.loc 1 239 252 is_stmt 0
	call	xPortIsInsideInterrupt
.LVL20:
	.loc 1 239 165
	beq	a0,zero,.L18
	.loc 1 239 281
	call	xTaskGetTickCountFromISR
.LVL21:
.L55:
	.loc 1 239 312
	mv	a2,a0
	.loc 1 239 165
	lui	a3,%hi(.LC0)
	lui	a1,%hi(.LC1)
	lui	a0,%hi(.LC3)
	li	a4,239
	addi	a3,a3,%lo(.LC0)
	addi	a1,a1,%lo(.LC1)
	addi	a0,a0,%lo(.LC3)
	j	.L56
.L18:
	.loc 1 239 312
	call	xTaskGetTickCount
.LVL22:
	j	.L55
.L17:
	.loc 1 245 21 is_stmt 1
.LVL23:
.LBB73:
.LBB74:
	.loc 1 131 5
	.loc 1 131 22 is_stmt 0
	sw	s1,12(a4)
	.loc 1 133 5 is_stmt 1
	j	.L22
.LVL24:
.L20:
.LBE74:
.LBE73:
.LBE80:
.LBE87:
	.loc 1 268 16 is_stmt 0
	li	a0,-1
.LVL25:
	j	.L1
	.cfi_endproc
.LFE37:
	.size	pm_post_event, .-pm_post_event
	.section	.rodata.bl_pm_event_register.str1.4,"aMS",@progbits,1
	.align	2
.LC4:
	.string	"p_node"
	.align	2
.LC5:
	.string	"/mnt/d/GitHub/bl_iot_sdk_for_aithinker/components/platform/hosal/bl602_hal/bl_pm.c"
	.section	.text.bl_pm_event_register,"ax",@progbits
	.align	1
	.globl	bl_pm_event_register
	.type	bl_pm_event_register, @function
bl_pm_event_register:
.LFB38:
	.loc 1 278 1 is_stmt 1
	.cfi_startproc
.LVL26:
	.loc 1 279 5
	.loc 1 281 5
	.loc 1 278 1 is_stmt 0
	addi	sp,sp,-48
	.cfi_def_cfa_offset 48
	sw	s2,32(sp)
	.cfi_offset 18, -16
	.loc 1 281 9
	lui	s2,%hi(.LANCHOR0)
	.loc 1 278 1
	sw	s5,20(sp)
	.cfi_offset 21, -28
	mv	s5,a5
	.loc 1 281 8
	lw	a5,%lo(.LANCHOR0)(s2)
.LVL27:
	.loc 1 278 1
	sw	ra,44(sp)
	sw	s0,40(sp)
	sw	s1,36(sp)
	sw	s3,28(sp)
	sw	s4,24(sp)
	sw	s6,16(sp)
	sw	s7,12(sp)
	sw	s8,8(sp)
	.cfi_offset 1, -4
	.cfi_offset 8, -8
	.cfi_offset 9, -12
	.cfi_offset 19, -20
	.cfi_offset 20, -24
	.cfi_offset 22, -32
	.cfi_offset 23, -36
	.cfi_offset 24, -40
	.loc 1 281 8
	beq	a5,zero,.L66
	mv	s1,a0
	.loc 1 285 14
	li	a0,36
.LVL28:
	mv	s8,a1
	mv	s7,a2
	mv	s4,a3
	mv	s6,a4
	mv	s3,a6
	.loc 1 285 5 is_stmt 1
	.loc 1 285 14 is_stmt 0
	call	pvPortMalloc
.LVL29:
	mv	s0,a0
.LVL30:
	.loc 1 286 4 is_stmt 1
	.loc 1 286 16 is_stmt 0
	bne	a0,zero,.L59
	.loc 1 286 18 discriminator 1
	lui	a3,%hi(.LC4)
	lui	a2,%hi(.LANCHOR1)
	lui	a0,%hi(.LC5)
	addi	a3,a3,%lo(.LC4)
	addi	a2,a2,%lo(.LANCHOR1)
	li	a1,286
	addi	a0,a0,%lo(.LC5)
	call	__assert_func
.LVL31:
.L59:
	.loc 1 288 5
	li	a2,36
	li	a1,0
	call	memset
.LVL32:
	addi	s2,s2,%lo(.LANCHOR0)
	.loc 1 288 5 is_stmt 1
	.loc 1 289 5
	.loc 1 297 36 is_stmt 0
	lw	a3,0(s2)
	.loc 1 289 19
	sw	s1,8(s0)
	.loc 1 290 5 is_stmt 1
	.loc 1 290 18 is_stmt 0
	sw	s8,12(s0)
	.loc 1 291 5 is_stmt 1
	.loc 1 291 21 is_stmt 0
	sw	s7,20(s0)
	.loc 1 292 5 is_stmt 1
	.loc 1 292 22 is_stmt 0
	sh	s4,16(s0)
	.loc 1 293 5 is_stmt 1
	.loc 1 293 17 is_stmt 0
	sw	s6,24(s0)
	.loc 1 294 5 is_stmt 1
	.loc 1 294 17 is_stmt 0
	sw	s5,32(s0)
	.loc 1 295 5 is_stmt 1
	.loc 1 295 20 is_stmt 0
	sw	s3,28(s0)
	.loc 1 297 5 is_stmt 1
	.loc 1 297 46 is_stmt 0
	slli	a0,s1,3
	.loc 1 297 5
	lw	s1,20(a3)
.LVL33:
.LBB98:
.LBB99:
	.loc 1 148 157
	li	a4,0
.LBE99:
.LBE98:
	.loc 1 297 5
	add	s1,s1,a0
.LVL34:
.LBB110:
.LBB108:
	.loc 1 143 5 is_stmt 1
	.loc 1 144 5
	.loc 1 145 5
	.loc 1 147 5
	.loc 1 148 5
	.loc 1 148 15 is_stmt 0
	lw	a5,4(s1)
.LVL35:
	.loc 1 148 157
	beq	a5,zero,.L60
	lw	a4,4(a5)
.L60:
	.loc 1 148 153
	mv	s3,s1
.LVL36:
.L61:
	.loc 1 148 6 is_stmt 1
	.loc 1 148 5 is_stmt 0
	bne	s1,a5,.L64
	.loc 1 159 5 is_stmt 1
	.loc 1 160 9
	lw	a0,16(a3)
	li	a1,-1
	call	xQueueSemaphoreTake
.LVL37:
	.loc 1 161 9
.LBB100:
.LBB101:
	.file 2 "/mnt/d/GitHub/bl_iot_sdk_for_aithinker/components/utils/include/utils_list.h"
	.loc 2 291 5
	.loc 2 291 34 is_stmt 0
	lw	a5,0(s1)
.LVL38:
.LBB102:
.LBB103:
	.loc 2 266 5 is_stmt 1
	.loc 2 266 16 is_stmt 0
	sw	s1,4(s0)
	.loc 2 267 5 is_stmt 1
	.loc 2 267 16 is_stmt 0
	sw	a5,0(s0)
	.loc 2 269 5 is_stmt 1
	.loc 2 269 16 is_stmt 0
	sw	s0,4(a5)
	.loc 2 270 5 is_stmt 1
	.loc 2 270 16 is_stmt 0
	sw	s0,0(s1)
	j	.L71
.LVL39:
.L64:
.LBE103:
.LBE102:
.LBE101:
.LBE100:
	.loc 1 149 9 is_stmt 1
	.loc 1 149 12 is_stmt 0
	lhu	a2,16(a5)
	bleu	a2,s4,.L62
	.loc 1 150 13 is_stmt 1
	lw	a0,16(a3)
	li	a1,-1
	call	xQueueSemaphoreTake
.LVL40:
	.loc 1 151 13
.LBB104:
.LBB105:
	.loc 2 286 5
	.loc 2 286 41 is_stmt 0
	lw	a5,4(s3)
.LVL41:
.LBB106:
.LBB107:
	.loc 2 266 5 is_stmt 1
	.loc 2 267 16 is_stmt 0
	sw	s3,0(s0)
	.loc 2 266 16
	sw	a5,4(s0)
	.loc 2 267 5 is_stmt 1
	.loc 2 269 5
	.loc 2 269 16 is_stmt 0
	sw	s0,4(s3)
	.loc 2 270 5 is_stmt 1
	.loc 2 270 16 is_stmt 0
	sw	s0,0(a5)
.LVL42:
.LBE107:
.LBE106:
.LBE105:
.LBE104:
	.loc 1 152 13 is_stmt 1
.L71:
	.loc 1 162 9
	.loc 1 162 57 is_stmt 0
	lw	a5,0(s2)
	.loc 1 162 9
	li	a3,0
	li	a2,0
	lw	a0,16(a5)
	li	a1,0
	call	xQueueGenericSend
.LVL43:
.LBE108:
.LBE110:
	.loc 1 299 12
	li	a0,0
	j	.L57
.LVL44:
.L62:
.LBB111:
.LBB109:
	.loc 1 156 9 is_stmt 1
	.loc 1 148 36
	.loc 1 148 153 is_stmt 0
	li	a2,0
	beq	a4,zero,.L63
	lw	a2,4(a4)
.L63:
	mv	s3,a5
	mv	a5,a4
.LVL45:
	mv	a4,a2
.LVL46:
	j	.L61
.LVL47:
.L66:
.LBE109:
.LBE111:
	.loc 1 282 16
	li	a0,-1
.LVL48:
.L57:
	.loc 1 300 1
	lw	ra,44(sp)
	.cfi_restore 1
	lw	s0,40(sp)
	.cfi_restore 8
	lw	s1,36(sp)
	.cfi_restore 9
	lw	s2,32(sp)
	.cfi_restore 18
	lw	s3,28(sp)
	.cfi_restore 19
	lw	s4,24(sp)
	.cfi_restore 20
	lw	s5,20(sp)
	.cfi_restore 21
.LVL49:
	lw	s6,16(sp)
	.cfi_restore 22
	lw	s7,12(sp)
	.cfi_restore 23
	lw	s8,8(sp)
	.cfi_restore 24
	addi	sp,sp,48
	.cfi_def_cfa_offset 0
	jr	ra
	.cfi_endproc
.LFE38:
	.size	bl_pm_event_register, .-bl_pm_event_register
	.section	.text.bl_pm_event_switch,"ax",@progbits
	.align	1
	.globl	bl_pm_event_switch
	.type	bl_pm_event_switch, @function
bl_pm_event_switch:
.LFB39:
	.loc 1 303 1 is_stmt 1
	.cfi_startproc
.LVL50:
	.loc 1 304 5
	.loc 1 305 5
	.loc 1 306 5
	.loc 1 307 5
	.loc 1 309 5
	.loc 1 309 9 is_stmt 0
	lui	a5,%hi(.LANCHOR0)
	lw	a5,%lo(.LANCHOR0)(a5)
	.loc 1 309 8
	beq	a5,zero,.L79
	.loc 1 313 5 is_stmt 1
	.loc 1 313 11 is_stmt 0
	lw	a3,20(a5)
	.loc 1 313 34
	slli	a0,a0,3
.LVL51:
	.loc 1 315 157
	li	a4,0
	.loc 1 313 11
	add	a3,a3,a0
.LVL52:
	.loc 1 315 5 is_stmt 1
	.loc 1 315 15 is_stmt 0
	lw	a5,4(a3)
.LVL53:
	.loc 1 315 157
	beq	a5,zero,.L74
	.loc 1 315 157 discriminator 1
	lw	a4,4(a5)
.L74:
	.loc 1 315 153 discriminator 10
	li	a0,-1
.LVL54:
.L75:
	.loc 1 315 6 is_stmt 1 discriminator 10
	.loc 1 315 5 is_stmt 0 discriminator 10
	bne	a5,a3,.L78
	ret
.L78:
	.loc 1 316 9 is_stmt 1
	.loc 1 316 12 is_stmt 0
	lw	a6,12(a5)
	bne	a6,a1,.L76
	.loc 1 317 13 is_stmt 1
	.loc 1 317 26 is_stmt 0
	sw	a2,28(a5)
	.loc 1 319 13 is_stmt 1
.LVL55:
	.loc 1 319 17 is_stmt 0
	li	a0,0
.LVL56:
.L76:
	.loc 1 315 36 is_stmt 1
	.loc 1 315 153 is_stmt 0
	li	a6,0
	beq	a4,zero,.L77
	.loc 1 315 153 discriminator 6
	lw	a6,4(a4)
.L77:
	.loc 1 315 153 discriminator 10
	mv	a5,a4
	mv	a4,a6
.LVL57:
	j	.L75
.LVL58:
.L79:
	.loc 1 310 16
	li	a0,-1
.LVL59:
	.loc 1 324 1
	ret
	.cfi_endproc
.LFE39:
	.size	bl_pm_event_switch, .-bl_pm_event_switch
	.section	.text.bl_pm_state_run,"ax",@progbits
	.align	1
	.globl	bl_pm_state_run
	.type	bl_pm_state_run, @function
bl_pm_state_run:
.LFB40:
	.loc 1 327 1 is_stmt 1
	.cfi_startproc
	.loc 1 328 5
.LVL60:
	.loc 1 330 5
	.loc 1 330 9 is_stmt 0
	lui	a5,%hi(.LANCHOR0)
	lw	a5,%lo(.LANCHOR0)(a5)
	.loc 1 331 16
	li	a0,-1
	.loc 1 330 8
	beq	a5,zero,.L89
	.loc 1 334 5 is_stmt 1
	.loc 1 327 1 is_stmt 0
	addi	sp,sp,-16
	.cfi_def_cfa_offset 16
	sw	ra,12(sp)
	.cfi_offset 1, -4
	.loc 1 334 22
	lw	a4,12(a5)
	.loc 1 334 5
	li	a3,2
	beq	a4,a3,.L84
	li	a3,4
	li	a0,0
	beq	a4,a3,.L82
	li	a3,1
	beq	a4,a3,.L85
.L92:
	.loc 1 353 9 is_stmt 1
	.loc 1 328 9 is_stmt 0
	li	a0,-1
	.loc 1 353 9
	j	.L82
.L84:
	.loc 1 342 13 is_stmt 1
.LVL61:
.LBB112:
.LBB113:
	.loc 1 131 5
	.loc 1 131 22 is_stmt 0
	li	a4,4
	sw	a4,12(a5)
	.loc 1 133 5 is_stmt 1
.LVL62:
.LBE113:
.LBE112:
	.loc 1 343 13
	li	a2,0
	li	a1,2
	li	a0,0
	call	pm_post_event
.LVL63:
	.loc 1 343 75
	.loc 1 344 13
	.loc 1 346 9
	.loc 1 344 17 is_stmt 0
	li	a0,0
.LVL64:
.L82:
	.loc 1 373 1
	lw	ra,12(sp)
	.cfi_remember_state
	.cfi_restore 1
	addi	sp,sp,16
	.cfi_def_cfa_offset 0
	jr	ra
.LVL65:
.L85:
	.cfi_restore_state
	.loc 1 350 13 is_stmt 1
.LBB114:
.LBB115:
	.loc 1 131 5
	.loc 1 131 22 is_stmt 0
	li	a4,3
	sw	a4,12(a5)
	.loc 1 133 5 is_stmt 1
.LVL66:
.LBE115:
.LBE114:
	.loc 1 351 13
	li	a2,0
	li	a1,3
	li	a0,0
	call	pm_post_event
.LVL67:
	j	.L92
.L89:
	.cfi_def_cfa_offset 0
	.cfi_restore 1
	.loc 1 373 1 is_stmt 0
	ret
	.cfi_endproc
.LFE40:
	.size	bl_pm_state_run, .-bl_pm_state_run
	.section	.rodata.bl_pm_capacity_set.str1.4,"aMS",@progbits,1
	.align	2
.LC6:
	.string	"gp_pm_env"
	.section	.text.bl_pm_capacity_set,"ax",@progbits
	.align	1
	.globl	bl_pm_capacity_set
	.type	bl_pm_capacity_set, @function
bl_pm_capacity_set:
.LFB41:
	.loc 1 376 1 is_stmt 1
	.cfi_startproc
.LVL68:
	.loc 1 377 5
	.loc 1 379 5
	addi	a5,a0,-1
	li	a4,5
	bgtu	a5,a4,.L96
	lui	a0,%hi(.LANCHOR2)
.LVL69:
	addi	a0,a0,%lo(.LANCHOR2)
	add	a0,a0,a5
.LBB118:
.LBB119:
	.loc 1 122 6 is_stmt 0
	lui	a5,%hi(.LANCHOR0)
.LVL70:
	lw	a5,%lo(.LANCHOR0)(a5)
	lbu	a4,0(a0)
.LVL71:
.LBE119:
.LBE118:
	.loc 1 444 5 is_stmt 1
.LBB124:
.LBB120:
	.loc 1 122 4
	.loc 1 122 16 is_stmt 0
	bne	a5,zero,.L95
	.loc 1 122 18
	lui	a3,%hi(.LC6)
	lui	a2,%hi(.LANCHOR3)
	lui	a0,%hi(.LC5)
.LBE120:
.LBE124:
	.loc 1 376 1
	addi	sp,sp,-16
	.cfi_def_cfa_offset 16
.LBB125:
.LBB121:
	.loc 1 122 18
	addi	a3,a3,%lo(.LC6)
	addi	a2,a2,%lo(.LANCHOR3)
	li	a1,122
	addi	a0,a0,%lo(.LC5)
.LBE121:
.LBE125:
	.loc 1 376 1
	sw	ra,12(sp)
	.cfi_offset 1, -4
.LBB126:
.LBB122:
	.loc 1 122 18
	call	__assert_func
.LVL72:
.L95:
	.cfi_def_cfa_offset 0
	.cfi_restore 1
	.loc 1 124 5 is_stmt 1
	.loc 1 124 34 is_stmt 0
	sw	a4,4(a5)
	.loc 1 126 5 is_stmt 1
.LBE122:
.LBE126:
	.loc 1 446 12 is_stmt 0
	li	a0,0
.LBB127:
.LBB123:
	.loc 1 126 12
	ret
.LVL73:
.L96:
.LBE123:
.LBE127:
	.loc 1 382 20
	li	a0,-1
.LVL74:
	.loc 1 447 1
	ret
	.cfi_endproc
.LFE41:
	.size	bl_pm_capacity_set, .-bl_pm_capacity_set
	.section	.rodata.bl_pm_init.str1.4,"aMS",@progbits,1
	.align	2
.LC7:
	.string	"!gp_pm_env"
	.align	2
.LC8:
	.string	"gp_pm_env->pm_list"
	.align	2
.LC9:
	.string	"gp_pm_env->pm_mux"
	.section	.text.bl_pm_init,"ax",@progbits
	.align	1
	.globl	bl_pm_init
	.type	bl_pm_init, @function
bl_pm_init:
.LFB42:
	.loc 1 450 1 is_stmt 1
	.cfi_startproc
	.loc 1 451 5
.LBB132:
.LBB133:
	.loc 1 57 5
.LVL75:
	.loc 1 59 4
.LBE133:
.LBE132:
	.loc 1 450 1 is_stmt 0
	addi	sp,sp,-16
	.cfi_def_cfa_offset 16
	sw	s0,8(sp)
	.cfi_offset 8, -8
.LBB138:
.LBB136:
	.loc 1 59 4
	lui	s0,%hi(.LANCHOR0)
	addi	s0,s0,%lo(.LANCHOR0)
	.loc 1 59 16
	lw	a5,0(s0)
.LBE136:
.LBE138:
	.loc 1 450 1
	sw	ra,12(sp)
	sw	s1,4(sp)
	.cfi_offset 1, -4
	.cfi_offset 9, -12
.LBB139:
.LBB137:
	.loc 1 59 16
	beq	a5,zero,.L101
	.loc 1 59 18
	lui	a3,%hi(.LC7)
	lui	a2,%hi(.LANCHOR4)
	addi	a3,a3,%lo(.LC7)
	addi	a2,a2,%lo(.LANCHOR4)
	li	a1,59
.L109:
	.loc 1 62 18
	lui	a0,%hi(.LC5)
	addi	a0,a0,%lo(.LC5)
	call	__assert_func
.LVL76:
.L101:
	.loc 1 61 5 is_stmt 1
	.loc 1 61 17 is_stmt 0
	li	a0,24
	call	pvPortMalloc
.LVL77:
	.loc 1 61 15
	sw	a0,0(s0)
	.loc 1 62 4 is_stmt 1
	.loc 1 62 16 is_stmt 0
	bne	a0,zero,.L102
	.loc 1 62 18
	lui	a3,%hi(.LC6)
	lui	a2,%hi(.LANCHOR4)
	addi	a3,a3,%lo(.LC6)
	addi	a2,a2,%lo(.LANCHOR4)
	li	a1,62
	j	.L109
.L102:
	.loc 1 64 5 is_stmt 1
	li	a2,24
	li	a1,0
	call	memset
.LVL78:
	.loc 1 65 5
	.loc 1 65 26 is_stmt 0
	li	a0,48
	.loc 1 65 14
	lw	s1,0(s0)
	.loc 1 65 26
	call	pvPortMalloc
.LVL79:
	.loc 1 66 13
	lw	a5,0(s0)
	.loc 1 65 24
	sw	a0,20(s1)
	.loc 1 66 4 is_stmt 1
	.loc 1 66 13 is_stmt 0
	lw	a0,20(a5)
	.loc 1 66 16
	bne	a0,zero,.L103
	.loc 1 66 18
	lui	a3,%hi(.LC8)
	lui	a2,%hi(.LANCHOR4)
	addi	a3,a3,%lo(.LC8)
	addi	a2,a2,%lo(.LANCHOR4)
	li	a1,66
	j	.L109
.L103:
	.loc 1 68 5 is_stmt 1
	li	a2,24
	li	a1,0
	call	memset
.LVL80:
	.loc 1 70 5
	.loc 1 70 25 is_stmt 0
	li	a0,1
	.loc 1 70 14
	lw	s1,0(s0)
	.loc 1 70 25
	call	xQueueCreateMutex
.LVL81:
	.loc 1 71 13
	lw	a4,0(s0)
	.loc 1 70 23
	sw	a0,16(s1)
	.loc 1 71 4 is_stmt 1
	li	a3,0
	.loc 1 71 16 is_stmt 0
	lw	a5,16(a4)
	.loc 1 73 5
	li	a2,48
	.loc 1 71 16
	bne	a5,zero,.L104
	.loc 1 71 18
	lui	a3,%hi(.LC9)
	lui	a2,%hi(.LANCHOR4)
	addi	a3,a3,%lo(.LC9)
	addi	a2,a2,%lo(.LANCHOR4)
	li	a1,71
	j	.L109
.LVL82:
.L104:
	.loc 1 74 9 is_stmt 1
	lw	a5,20(a4)
	add	a5,a5,a3
.LVL83:
.LBB134:
.LBB135:
	.loc 2 310 5
	.loc 2 310 16 is_stmt 0
	sw	a5,4(a5)
	.loc 2 311 5 is_stmt 1
	.loc 2 311 16 is_stmt 0
	sw	a5,0(a5)
.LVL84:
.LBE135:
.LBE134:
	.loc 1 73 35 is_stmt 1
	.loc 1 73 17
	.loc 1 73 5 is_stmt 0
	addi	a3,a3,8
	bne	a3,a2,.L104
	.loc 1 77 5 is_stmt 1
	.loc 1 80 32 is_stmt 0
	li	a5,65536
	addi	a5,a5,-1
	.loc 1 77 22
	sw	zero,12(a4)
	.loc 1 80 5 is_stmt 1
	.loc 1 80 32 is_stmt 0
	sw	a5,8(a4)
	.loc 1 82 5 is_stmt 1
.LBE137:
.LBE139:
	.loc 1 453 5
	.loc 1 454 1 is_stmt 0
	lw	ra,12(sp)
	.cfi_restore 1
	lw	s0,8(sp)
	.cfi_restore 8
	lw	s1,4(sp)
	.cfi_restore 9
	li	a0,0
	addi	sp,sp,16
	.cfi_def_cfa_offset 0
	jr	ra
	.cfi_endproc
.LFE42:
	.size	bl_pm_init, .-bl_pm_init
	.section	.text.bl_pm_deinit,"ax",@progbits
	.align	1
	.globl	bl_pm_deinit
	.type	bl_pm_deinit, @function
bl_pm_deinit:
.LFB43:
	.loc 1 457 1 is_stmt 1
	.cfi_startproc
	.loc 1 458 5
.LBB146:
.LBB147:
	.loc 1 100 5
.LVL85:
	.loc 1 102 4
.LBE147:
.LBE146:
	.loc 1 457 1 is_stmt 0
	addi	sp,sp,-32
	.cfi_def_cfa_offset 32
	sw	s0,24(sp)
	.cfi_offset 8, -8
.LBB162:
.LBB158:
	.loc 1 102 6
	lui	s0,%hi(.LANCHOR0)
	.loc 1 102 16
	lw	a5,%lo(.LANCHOR0)(s0)
.LBE158:
.LBE162:
	.loc 1 457 1
	sw	ra,28(sp)
	sw	s1,20(sp)
	sw	s2,16(sp)
	sw	s3,12(sp)
	sw	s4,8(sp)
	sw	s5,4(sp)
	.cfi_offset 1, -4
	.cfi_offset 9, -12
	.cfi_offset 18, -16
	.cfi_offset 19, -20
	.cfi_offset 20, -24
	.cfi_offset 21, -28
.LBB163:
.LBB159:
	.loc 1 102 16
	bne	a5,zero,.L121
	.loc 1 102 18
	lui	a3,%hi(.LC6)
	lui	a2,%hi(.LANCHOR5)
	lui	a0,%hi(.LC5)
	addi	a3,a3,%lo(.LC6)
	addi	a2,a2,%lo(.LANCHOR5)
	li	a1,102
	addi	a0,a0,%lo(.LC5)
	call	__assert_func
.LVL86:
.L121:
	addi	s0,s0,%lo(.LANCHOR0)
	li	s3,0
	li	s5,48
.LVL87:
.L111:
	.loc 1 105 9 is_stmt 1
	.loc 1 105 35 is_stmt 0
	lw	a5,0(s0)
.LBB148:
.LBB149:
	.loc 1 90 157
	li	s2,0
.LBE149:
.LBE148:
	.loc 1 105 9
	lw	s4,20(a5)
	add	s4,s4,s3
.LVL88:
.LBB156:
.LBB154:
	.loc 1 87 5 is_stmt 1
	.loc 1 88 5
	.loc 1 90 5
	.loc 1 90 15 is_stmt 0
	lw	s1,4(s4)
.LVL89:
	.loc 1 90 157
	beq	s1,zero,.L113
	lw	s2,4(s1)
.L113:
.LVL90:
	.loc 1 90 6 is_stmt 1
	.loc 1 91 41 is_stmt 0
	lw	a5,0(s0)
	.loc 1 90 5
	bne	s4,s1,.L115
.LVL91:
.LBE154:
.LBE156:
	.loc 1 104 35 is_stmt 1
	.loc 1 104 17
	.loc 1 104 5 is_stmt 0
	addi	s3,s3,8
	bne	s3,s5,.L111
	.loc 1 108 5 is_stmt 1
	lw	a0,20(a5)
	call	vPortFree
.LVL92:
	.loc 1 109 5
	.loc 1 109 14 is_stmt 0
	lw	a5,0(s0)
	.loc 1 111 5
	lw	a0,16(a5)
	.loc 1 109 24
	sw	zero,20(a5)
	.loc 1 111 5 is_stmt 1
	call	vQueueDelete
.LVL93:
	.loc 1 112 5
	.loc 1 112 14 is_stmt 0
	lw	a0,0(s0)
	.loc 1 112 23
	sw	zero,16(a0)
	.loc 1 114 5 is_stmt 1
	call	vPortFree
.LVL94:
	.loc 1 115 5
.LBE159:
.LBE163:
	.loc 1 461 1 is_stmt 0
	lw	ra,28(sp)
	.cfi_remember_state
	.cfi_restore 1
.LBB164:
.LBB160:
	.loc 1 115 15
	sw	zero,0(s0)
	.loc 1 117 5 is_stmt 1
.LBE160:
.LBE164:
	.loc 1 460 5
	.loc 1 461 1 is_stmt 0
	lw	s0,24(sp)
	.cfi_restore 8
	lw	s1,20(sp)
	.cfi_restore 9
	lw	s2,16(sp)
	.cfi_restore 18
	lw	s3,12(sp)
	.cfi_restore 19
	lw	s4,8(sp)
	.cfi_restore 20
	lw	s5,4(sp)
	.cfi_restore 21
	li	a0,0
	addi	sp,sp,32
	.cfi_def_cfa_offset 0
	jr	ra
.LVL95:
.L115:
	.cfi_restore_state
.LBB165:
.LBB161:
.LBB157:
.LBB155:
	.loc 1 91 9 is_stmt 1
	lw	a0,16(a5)
	li	a1,-1
	call	xQueueSemaphoreTake
.LVL96:
	.loc 1 92 9
.LBB150:
.LBB151:
	.loc 2 296 5
	.loc 2 296 20 is_stmt 0
	lw	a4,0(s1)
.LVL97:
	.loc 2 297 5 is_stmt 1
	.loc 2 297 20 is_stmt 0
	lw	a5,4(s1)
.LVL98:
	.loc 2 299 5 is_stmt 1
.LBE151:
.LBE150:
	.loc 1 93 9 is_stmt 0
	mv	a0,s1
.LBB153:
.LBB152:
	.loc 2 299 16
	sw	a5,4(a4)
	.loc 2 300 5 is_stmt 1
	.loc 2 300 16 is_stmt 0
	sw	a4,0(a5)
.LVL99:
.LBE152:
.LBE153:
	.loc 1 93 9 is_stmt 1
	call	vPortFree
.LVL100:
	.loc 1 94 9
	.loc 1 94 57 is_stmt 0
	lw	a5,0(s0)
	.loc 1 94 9
	li	a3,0
	li	a2,0
	lw	a0,16(a5)
	li	a1,0
	call	xQueueGenericSend
.LVL101:
	.loc 1 90 36 is_stmt 1
	.loc 1 90 153 is_stmt 0
	li	a5,0
	beq	s2,zero,.L114
	lw	a5,4(s2)
.L114:
	mv	s1,s2
	mv	s2,a5
.LVL102:
	j	.L113
.LBE155:
.LBE157:
.LBE161:
.LBE165:
	.cfi_endproc
.LFE43:
	.size	bl_pm_deinit, .-bl_pm_deinit
	.globl	_fsymf_info_hosalbl_pm
	.section	.rodata.str1.4,"aMS",@progbits,1
	.align	2
.LC10:
	.string	"hosal.bl_pm"
	.comm	_fsymf_level_hosalbl_pm,4,4
	.align	2
.LC11:
	.string	"hosal"
	.weak	_fsymc_level_hosal
	.section	.rodata.__func__.0,"a"
	.align	2
	.set	.LANCHOR5,. + 0
	.type	__func__.0, @object
	.size	__func__.0, 10
__func__.0:
	.string	"pm_deinit"
	.section	.rodata.__func__.1,"a"
	.align	2
	.set	.LANCHOR4,. + 0
	.type	__func__.1, @object
	.size	__func__.1, 12
__func__.1:
	.string	"pm_env_init"
	.section	.rodata.__func__.2,"a"
	.align	2
	.set	.LANCHOR3,. + 0
	.type	__func__.2, @object
	.size	__func__.2, 21
__func__.2:
	.string	"pm_set_wlan_capacity"
	.section	.rodata.__func__.3,"a"
	.align	2
	.set	.LANCHOR1,. + 0
	.type	__func__.3, @object
	.size	__func__.3, 21
__func__.3:
	.string	"bl_pm_event_register"
	.section	.sbss._fsymc_level_hosal,"aw",@nobits
	.align	2
	.type	_fsymc_level_hosal, @object
	.size	_fsymc_level_hosal, 4
_fsymc_level_hosal:
	.zero	4
	.section	.sbss.gp_pm_env,"aw",@nobits
	.align	2
	.set	.LANCHOR0,. + 0
	.type	gp_pm_env, @object
	.size	gp_pm_env, 4
gp_pm_env:
	.zero	4
	.section	.srodata.BLOG_HARD_DECLARE_DISABLE,"a"
	.align	2
	.type	BLOG_HARD_DECLARE_DISABLE, @object
	.size	BLOG_HARD_DECLARE_DISABLE, 4
BLOG_HARD_DECLARE_DISABLE:
	.zero	4
	.section	.srodata.CSWTCH.76,"a"
	.align	2
	.set	.LANCHOR2,. + 0
	.type	CSWTCH.76, @object
	.size	CSWTCH.76, 6
CSWTCH.76:
	.byte	3
	.byte	51
	.byte	47
	.byte	63
	.byte	14
	.byte	6
	.section	.static_blogcomponent_code.hosal,"a"
	.align	2
	.type	_fsymc_info_hosal, @object
	.size	_fsymc_info_hosal, 8
_fsymc_info_hosal:
	.word	_fsymc_level_hosal
	.word	.LC11
	.section	.static_blogfile_code.hosalbl_pm,"a"
	.align	2
	.type	_fsymf_info_hosalbl_pm, @object
	.size	_fsymf_info_hosalbl_pm, 8
_fsymf_info_hosalbl_pm:
	.word	_fsymf_level_hosalbl_pm
	.word	.LC10
	.text
.Letext0:
	.file 3 "/mnt/d/GitHub/bl_iot_sdk_for_aithinker/toolchain/riscv/Linux/lib/gcc/riscv64-unknown-elf/10.2.0/include/stddef.h"
	.file 4 "/mnt/d/GitHub/bl_iot_sdk_for_aithinker/toolchain/riscv/Linux/lib/gcc/riscv64-unknown-elf/10.2.0/include/stdint-gcc.h"
	.file 5 "/mnt/d/GitHub/bl_iot_sdk_for_aithinker/components/platform/soc/bl602/freertos_riscv_ram/portable/GCC/RISC-V/portmacro.h"
	.file 6 "/mnt/d/GitHub/bl_iot_sdk_for_aithinker/components/platform/soc/bl602/freertos_riscv_ram/config/queue.h"
	.file 7 "/mnt/d/GitHub/bl_iot_sdk_for_aithinker/components/platform/soc/bl602/freertos_riscv_ram/config/semphr.h"
	.file 8 "/mnt/d/GitHub/bl_iot_sdk_for_aithinker/components/stage/blog/blog_type.h"
	.file 9 "/mnt/d/GitHub/bl_iot_sdk_for_aithinker/components/stage/blog/blog.h"
	.file 10 "/mnt/d/GitHub/bl_iot_sdk_for_aithinker/components/platform/hosal/bl602_hal/bl_pm.h"
	.file 11 "/mnt/d/GitHub/bl_iot_sdk_for_aithinker/components/platform/soc/bl602/freertos_riscv_ram/config/portable.h"
	.file 12 "/mnt/d/GitHub/bl_iot_sdk_for_aithinker/toolchain/riscv/Linux/riscv64-unknown-elf/include/assert.h"
	.file 13 "/mnt/d/GitHub/bl_iot_sdk_for_aithinker/toolchain/riscv/Linux/riscv64-unknown-elf/include/string.h"
	.file 14 "/mnt/d/GitHub/bl_iot_sdk_for_aithinker/components/platform/soc/bl602/freertos_riscv_ram/config/task.h"
	.file 15 "/mnt/d/GitHub/bl_iot_sdk_for_aithinker/components/utils/include/utils_log.h"