	.file	"bl_pds.c"
	.option nopic
	.attribute arch, "rv32i2p0_m2p0_f2p0_c2p0"
	.attribute unaligned_access, 0
	.attribute stack_align, 16
	.text
.Ltext0:
	.cfi_sections	.debug_frame
	.section	.tcm_code./mnt/d/GitHub/bl_iot_sdk_for_aithinker/components/platform/hosal/bl602_hal/bl_pds.c347,"ax",@progbits
	.align	1
	.globl	bl_pds_init
	.type	bl_pds_init, @function
bl_pds_init:
.LFB30:
	.file 1 "/mnt/d/GitHub/bl_iot_sdk_for_aithinker/components/platform/hosal/bl602_hal/bl_pds.c"
	.loc 1 348 1
	.cfi_startproc
	.loc 1 350 5
.LBB10:
.LBB11:
	.file 2 "/mnt/d/GitHub/bl_iot_sdk_for_aithinker/components/platform/soc/bl602/bl602_std/bl602_std/RISCV/Core/Include/cmsis_compatible_gcc.h"
	.loc 2 94 3
.LBE11:
.LBE10:
	.loc 1 348 1 is_stmt 0
	addi	sp,sp,-16
	.cfi_def_cfa_offset 16
	sw	ra,12(sp)
	sw	s0,8(sp)
	.cfi_offset 1, -4
	.cfi_offset 8, -8
.LBB13:
.LBB12:
	.loc 2 94 3
 #APP
# 94 "/mnt/d/GitHub/bl_iot_sdk_for_aithinker/components/platform/soc/bl602/bl602_std/bl602_std/RISCV/Core/Include/cmsis_compatible_gcc.h" 1
	csrci mstatus, 8
# 0 "" 2
 #NO_APP
.LBE12:
.LBE13:
	.loc 1 351 5 is_stmt 1
	call	SFlash_Cache_Flush
.LVL0:
	.loc 1 352 5
	li	s0,587202560
	lui	a1,%hi(.LANCHOR0)
	li	a2,84
	addi	a1,a1,%lo(.LANCHOR0)
	addi	a0,s0,12
	call	XIP_SFlash_Read_Via_Cache_Need_Lock
.LVL1:
	.loc 1 353 5
	lui	a1,%hi(.LANCHOR1)
	li	a2,1
	addi	a1,a1,%lo(.LANCHOR1)
	addi	a0,s0,104
	call	XIP_SFlash_Read_Via_Cache_Need_Lock
.LVL2:
	.loc 1 354 5
	call	SFlash_Cache_Flush
.LVL3:
	.loc 1 355 5
.LBB14:
.LBB15:
	.loc 2 89 3
 #APP
# 89 "/mnt/d/GitHub/bl_iot_sdk_for_aithinker/components/platform/soc/bl602/bl602_std/bl602_std/RISCV/Core/Include/cmsis_compatible_gcc.h" 1
	csrsi mstatus, 8
# 0 "" 2
 #NO_APP
.LBE15:
.LBE14:
	.loc 1 358 5
	.loc 1 358 21 is_stmt 0
	li	a5,1073786880
	lw	a5,20(a5)
	.loc 1 358 19
	lui	a4,%hi(.LANCHOR2)
	.loc 1 364 5
	li	a0,0
	.loc 1 358 70
	srli	a5,a5,27
	xori	a5,a5,1
	andi	a5,a5,1
	.loc 1 358 19
	sb	a5,%lo(.LANCHOR2)(a4)
	.loc 1 364 5 is_stmt 1
	call	HBN_32K_Sel
.LVL4:
	.loc 1 371 5
	li	a1,2
	li	a0,1
	call	GLB_AHB_Slave1_Clock_Gate
.LVL5:
	.loc 1 372 5
	li	a1,3
	li	a0,1
	call	GLB_AHB_Slave1_Clock_Gate
.LVL6:
	.loc 1 377 5
	li	a1,8
	li	a0,1
	call	GLB_AHB_Slave1_Clock_Gate
.LVL7:
	.loc 1 380 5
	li	a1,12
	li	a0,1
	call	GLB_AHB_Slave1_Clock_Gate
.LVL8:
	.loc 1 381 5
	li	a1,13
	li	a0,1
	call	GLB_AHB_Slave1_Clock_Gate
.LVL9:
	.loc 1 386 5
	li	a1,18
	li	a0,1
	call	GLB_AHB_Slave1_Clock_Gate
.LVL10:
	.loc 1 387 5
	li	a1,19
	li	a0,1
	call	GLB_AHB_Slave1_Clock_Gate
.LVL11:
	.loc 1 388 5
	li	a1,20
	li	a0,1
	call	GLB_AHB_Slave1_Clock_Gate
.LVL12:
	.loc 1 390 5
	li	a1,22
	li	a0,1
	call	GLB_AHB_Slave1_Clock_Gate
.LVL13:
	.loc 1 391 5
	.loc 1 393 1 is_stmt 0
	lw	s0,8(sp)
	.cfi_restore 8
	lw	ra,12(sp)
	.cfi_restore 1
	.loc 1 391 5
	li	a1,23
	.loc 1 393 1
	.loc 1 391 5
	li	a0,1
	.loc 1 393 1
	addi	sp,sp,16
	.cfi_def_cfa_offset 0
	.loc 1 391 5
	tail	GLB_AHB_Slave1_Clock_Gate
.LVL14:
	.cfi_endproc
.LFE30:
	.size	bl_pds_init, .-bl_pds_init
	.section	.text.bl_pds_fastboot_cfg,"ax",@progbits
	.align	1
	.globl	bl_pds_fastboot_cfg
	.type	bl_pds_fastboot_cfg, @function
bl_pds_fastboot_cfg:
.LFB31:
	.loc 1 396 1 is_stmt 1
	.cfi_startproc
.LVL15:
	.loc 1 397 5
	.loc 1 396 1 is_stmt 0
	addi	sp,sp,-16
	.cfi_def_cfa_offset 16
	sw	ra,12(sp)
	.cfi_offset 1, -4
	.loc 1 397 5
	call	HBN_Set_Wakeup_Addr
.LVL16:
	.loc 1 398 5 is_stmt 1
	.loc 1 399 1 is_stmt 0
	lw	ra,12(sp)
	.cfi_restore 1
	.loc 1 398 5
	li	a0,1312968704
	.loc 1 399 1
	.loc 1 398 5
	addi	a0,a0,-1979
	.loc 1 399 1
	addi	sp,sp,16
	.cfi_def_cfa_offset 0
	.loc 1 398 5
	tail	HBN_Set_Status_Flag
.LVL17:
	.cfi_endproc
.LFE31:
	.size	bl_pds_fastboot_cfg, .-bl_pds_fastboot_cfg
	.section	.tcm_code./mnt/d/GitHub/bl_iot_sdk_for_aithinker/components/platform/hosal/bl602_hal/bl_pds.c401,"ax",@progbits
	.align	1
	.globl	bl_pds_enter
	.type	bl_pds_enter, @function
bl_pds_enter:
.LFB32:
	.loc 1 402 1 is_stmt 1
	.cfi_startproc
.LVL18:
	.loc 1 403 5
	.loc 1 404 5
	.loc 1 406 5
	.loc 1 402 1 is_stmt 0
	addi	sp,sp,-32
	.cfi_def_cfa_offset 32
	sw	s4,8(sp)
	sw	ra,28(sp)
	sw	s0,24(sp)
	sw	s1,20(sp)
	sw	s2,16(sp)
	sw	s3,12(sp)
	sw	s5,4(sp)
	sw	s6,0(sp)
	.cfi_offset 20, -24
	.cfi_offset 1, -4
	.cfi_offset 8, -8
	.cfi_offset 9, -12
	.cfi_offset 18, -16
	.cfi_offset 19, -20
	.cfi_offset 21, -28
	.cfi_offset 22, -32
	.loc 1 402 1
	mv	s4,a1
	.loc 1 406 7
	beq	a0,zero,.L11
	.loc 1 408 11 is_stmt 1
	.loc 1 408 13 is_stmt 0
	li	a5,1
	beq	a0,a5,.L12
	.loc 1 410 11 is_stmt 1
	.loc 1 410 13 is_stmt 0
	li	a5,2
	beq	a0,a5,.L13
	.loc 1 412 11 is_stmt 1
	.loc 1 412 13 is_stmt 0
	li	a5,3
	beq	a0,a5,.L14
	.loc 1 414 11 is_stmt 1
	.loc 1 414 13 is_stmt 0
	li	a5,7
	bne	a0,a5,.L5
	.loc 1 415 16
	lui	s0,%hi(.LANCHOR7)
	addi	s0,s0,%lo(.LANCHOR7)
.L6:
.LVL19:
	.loc 1 421 5 is_stmt 1
.LBB16:
.LBB17:
	.loc 2 94 3
 #APP
# 94 "/mnt/d/GitHub/bl_iot_sdk_for_aithinker/components/platform/soc/bl602/bl602_std/bl602_std/RISCV/Core/Include/cmsis_compatible_gcc.h" 1
	csrci mstatus, 8
# 0 "" 2
 #NO_APP
.LBE17:
.LBE16:
	.loc 1 424 5
	li	a0,0
.LVL20:
	call	HBN_Hw_Pu_Pd_Cfg
.LVL21:
	.loc 1 427 5
	li	a0,0
	call	HBN_Aon_Pad_IeSmt_Cfg
.LVL22:
	.loc 1 433 5
	call	SEC_Eng_Turn_Off_Sec_Ring
.LVL23:
	.loc 1 435 5
	call	Sec_Eng_Trng_Disable
.LVL24:
	.loc 1 438 5
	li	a0,0
	call	SF_Ctrl_Set_Owner
.LVL25:
	.loc 1 439 5
	lui	s2,%hi(.LANCHOR0)
	addi	a0,s2,%lo(.LANCHOR0)
	call	SFlash_Reset_Continue_Read
.LVL26:
	.loc 1 440 5
	.loc 1 443 12 is_stmt 0
	li	s3,23
	.loc 1 440 5
	call	SFlash_Powerdown
.LVL27:
	.loc 1 443 5 is_stmt 1
	.loc 1 443 17
	.loc 1 443 5 is_stmt 0
	li	s1,29
.LVL28:
.L8:
	.loc 1 444 9 is_stmt 1 discriminator 3
	mv	a0,s3
	.loc 1 443 29 is_stmt 0 discriminator 3
	addi	s3,s3,1
.LVL29:
	.loc 1 444 9 discriminator 3
	call	GLB_GPIO_Set_HZ
.LVL30:
	.loc 1 443 26 is_stmt 1 discriminator 3
	.loc 1 443 17 discriminator 3
	.loc 1 443 5 is_stmt 0 discriminator 3
	bne	s3,s1,.L8
	.loc 1 449 12
	li	s1,0
	.loc 1 450 11
	li	s5,7
	.loc 1 450 23
	li	s6,16
	.loc 1 449 5
	li	s3,23
.LVL31:
.L10:
	.loc 1 450 9 is_stmt 1
	.loc 1 450 11 is_stmt 0
	beq	s1,s5,.L9
	.loc 1 450 23 discriminator 1
	beq	s1,s6,.L9
	.loc 1 453 9 is_stmt 1
	mv	a0,s1
	call	GLB_GPIO_Set_HZ
.LVL32:
.L9:
	.loc 1 449 25 discriminator 2
	.loc 1 449 28 is_stmt 0 discriminator 2
	addi	s1,s1,1
.LVL33:
	.loc 1 449 16 is_stmt 1 discriminator 2
	.loc 1 449 5 is_stmt 0 discriminator 2
	bne	s1,s3,.L10
	.loc 1 458 5 is_stmt 1
	li	a0,0
	call	HBN_Set_ROOT_CLK_Sel
.LVL34:
	.loc 1 459 5
	call	PDS_Power_Off_PLL
.LVL35:
	.loc 1 462 5
	mv	a2,s4
	li	a1,0
	mv	a0,s0
	call	PDS_Default_Level_Config
.LVL36:
	.loc 1 465 5
	lui	a5,%hi(.LANCHOR1)
	lbu	a0,%lo(.LANCHOR1)(a5)
	call	PDS_Power_On_PLL
.LVL37:
	.loc 1 466 5
	li	a0,2
	call	HBN_Set_ROOT_CLK_Sel
.LVL38:
	.loc 1 469 5
	li	a1,1
	li	a0,0
	call	SF_Cfg_Init_Flash_Gpio
.LVL39:
	.loc 1 472 5
	li	a0,0
	call	SF_Ctrl_Set_Owner
.LVL40:
	.loc 1 473 5
	lui	a5,%hi(.LANCHOR2)
	lbu	a1,%lo(.LANCHOR2)(a5)
	addi	a0,s2,%lo(.LANCHOR0)
	call	SFlash_Restore_From_Powerdown
.LVL41:
	.loc 1 479 5
	call	SEC_Eng_Turn_On_Sec_Ring
.LVL42:
	.loc 1 481 5
	call	Sec_Eng_Trng_Enable
.LVL43:
	.loc 1 484 5
	li	a0,1
	call	HBN_Aon_Pad_IeSmt_Cfg
.LVL44:
	.loc 1 487 5
	li	a0,1
	call	HBN_Hw_Pu_Pd_Cfg
.LVL45:
	.loc 1 490 5
.LBB18:
.LBB19:
	.loc 2 89 3
 #APP
# 89 "/mnt/d/GitHub/bl_iot_sdk_for_aithinker/components/platform/soc/bl602/bl602_std/bl602_std/RISCV/Core/Include/cmsis_compatible_gcc.h" 1
	csrsi mstatus, 8
# 0 "" 2
.LVL46:
 #NO_APP
.L5:
.LBE19:
.LBE18:
	.loc 1 491 1 is_stmt 0
	lw	ra,28(sp)
	.cfi_remember_state
	.cfi_restore 1
	lw	s0,24(sp)
	.cfi_restore 8
	lw	s1,20(sp)
	.cfi_restore 9
	lw	s2,16(sp)
	.cfi_restore 18
	lw	s3,12(sp)
	.cfi_restore 19
	lw	s4,8(sp)
	.cfi_restore 20
.LVL47:
	lw	s5,4(sp)
	.cfi_restore 21
	lw	s6,0(sp)
	.cfi_restore 22
	addi	sp,sp,32
	.cfi_def_cfa_offset 0
	jr	ra
.LVL48:
.L11:
	.cfi_restore_state
	.loc 1 407 16
	lui	s0,%hi(.LANCHOR5)
	addi	s0,s0,%lo(.LANCHOR5)
	j	.L6
.L12:
	.loc 1 409 16
	lui	s0,%hi(.LANCHOR6)
	addi	s0,s0,%lo(.LANCHOR6)
	j	.L6
.L13:
	.loc 1 411 16
	lui	s0,%hi(.LANCHOR3)
	addi	s0,s0,%lo(.LANCHOR3)
	j	.L6
.L14:
	.loc 1 413 16
	lui	s0,%hi(.LANCHOR4)
	addi	s0,s0,%lo(.LANCHOR4)
	j	.L6
	.cfi_endproc
.LFE32:
	.size	bl_pds_enter, .-bl_pds_enter
	.section	.text.bl_pds_rf_turnoff,"ax",@progbits
	.align	1
	.globl	bl_pds_rf_turnoff
	.type	bl_pds_rf_turnoff, @function
bl_pds_rf_turnoff:
.LFB33:
	.loc 1 494 1 is_stmt 1
	.cfi_startproc
.LVL49:
	.loc 1 495 5
	.loc 1 494 1 is_stmt 0
	addi	sp,sp,-16
	.cfi_def_cfa_offset 16
	sw	ra,12(sp)
	.cfi_offset 1, -4
	.loc 1 495 5
	call	AON_LowPower_Enter_PDS0
.LVL50:
	.loc 1 497 5 is_stmt 1
	.loc 1 498 1 is_stmt 0
	lw	ra,12(sp)
	.cfi_restore 1
	li	a0,0
	addi	sp,sp,16
	.cfi_def_cfa_offset 0
	jr	ra
	.cfi_endproc
.LFE33:
	.size	bl_pds_rf_turnoff, .-bl_pds_rf_turnoff
	.section	.text.bl_pds_rf_turnon,"ax",@progbits
	.align	1
	.globl	bl_pds_rf_turnon
	.type	bl_pds_rf_turnon, @function
bl_pds_rf_turnon:
.LFB34:
	.loc 1 501 1 is_stmt 1
	.cfi_startproc
.LVL51:
	.loc 1 502 5
	.loc 1 501 1 is_stmt 0
	addi	sp,sp,-16
	.cfi_def_cfa_offset 16
	sw	ra,12(sp)
	.cfi_offset 1, -4
	.loc 1 502 5
	call	AON_LowPower_Exit_PDS0
.LVL52:
	.loc 1 504 5 is_stmt 1
	.loc 1 505 1 is_stmt 0
	lw	ra,12(sp)
	.cfi_restore 1
	li	a0,0
	addi	sp,sp,16
	.cfi_def_cfa_offset 0
	jr	ra
	.cfi_endproc
.LFE34:
	.size	bl_pds_rf_turnon, .-bl_pds_rf_turnon
	.globl	_fsymf_info_hosalbl_pds
	.section	.rodata.str1.4,"aMS",@progbits,1
	.align	2
.LC0:
	.string	"hosal.bl_pds"
	.comm	_fsymf_level_hosalbl_pds,4,4
	.align	2
.LC1:
	.string	"hosal"
	.weak	_fsymc_level_hosal
	.section	.bss.flashCfg,"aw",@nobits
	.align	2
	.set	.LANCHOR0,. + 0
	.type	flashCfg, @object
	.size	flashCfg, 84
flashCfg:
	.zero	84
	.section	.data.pdsCfgLevel0,"aw"
	.align	2
	.set	.LANCHOR5,. + 0
	.type	pdsCfgLevel0, @object
	.size	pdsCfgLevel0, 16
pdsCfgLevel0:
	.byte	49
	.byte	235
	.byte	32
	.byte	58
	.byte	0
	.byte	0
	.byte	0
	.zero	1
	.byte	0
	.byte	0
	.zero	1
	.byte	0
	.byte	12
	.byte	192
	.zero	1
	.byte	12
	.section	.data.pdsCfgLevel1,"aw"
	.align	2
	.set	.LANCHOR6,. + 0
	.type	pdsCfgLevel1, @object
	.size	pdsCfgLevel1, 16
pdsCfgLevel1:
	.byte	49
	.byte	235
	.byte	32
	.byte	42
	.byte	0
	.byte	0
	.byte	0
	.zero	1
	.byte	0
	.byte	0
	.zero	1
	.byte	8
	.byte	12
	.byte	240
	.zero	1
	.byte	12
	.section	.data.pdsCfgLevel2,"aw"
	.align	2
	.set	.LANCHOR3,. + 0
	.type	pdsCfgLevel2, @object
	.size	pdsCfgLevel2, 16
pdsCfgLevel2:
	.byte	49
	.byte	235
	.byte	32
	.byte	58
	.byte	0
	.byte	0
	.byte	0
	.zero	1
	.byte	0
	.byte	0
	.zero	1
	.byte	1
	.byte	15
	.byte	192
	.zero	1
	.byte	12
	.section	.data.pdsCfgLevel3,"aw"
	.align	2
	.set	.LANCHOR4,. + 0
	.type	pdsCfgLevel3, @object
	.size	pdsCfgLevel3, 16
pdsCfgLevel3:
	.byte	49
	.byte	235
	.byte	32
	.byte	42
	.byte	0
	.byte	0
	.byte	0
	.zero	1
	.byte	0
	.byte	0
	.zero	1
	.byte	9
	.byte	15
	.byte	240
	.zero	1
	.byte	12
	.section	.data.pdsCfgLevel7,"aw"
	.align	2
	.set	.LANCHOR7,. + 0
	.type	pdsCfgLevel7, @object
	.size	pdsCfgLevel7, 16
pdsCfgLevel7:
	.byte	49
	.byte	107
	.byte	96
	.byte	42
	.byte	0
	.byte	0
	.byte	0
	.zero	1
	.byte	0
	.byte	0
	.zero	1
	.byte	73
	.byte	15
	.byte	240
	.zero	1
	.byte	15
	.section	.sbss._fsymc_level_hosal,"aw",@nobits
	.align	2
	.type	_fsymc_level_hosal, @object
	.size	_fsymc_level_hosal, 4
_fsymc_level_hosal:
	.zero	4
	.section	.sbss.flashContRead,"aw",@nobits
	.set	.LANCHOR2,. + 0
	.type	flashContRead, @object
	.size	flashContRead, 1
flashContRead:
	.zero	1
	.section	.sbss.xtalType,"aw",@nobits
	.set	.LANCHOR1,. + 0
	.type	xtalType, @object
	.size	xtalType, 1
xtalType:
	.zero	1
	.section	.srodata.BLOG_HARD_DECLARE_DISABLE,"a"
	.align	2
	.type	BLOG_HARD_DECLARE_DISABLE, @object
	.size	BLOG_HARD_DECLARE_DISABLE, 4
BLOG_HARD_DECLARE_DISABLE:
	.zero	4
	.section	.static_blogcomponent_code.hosal,"a"
	.align	2
	.type	_fsymc_info_hosal, @object
	.size	_fsymc_info_hosal, 8
_fsymc_info_hosal:
	.word	_fsymc_level_hosal
	.word	.LC1
	.section	.static_blogfile_code.hosalbl_pds,"a"
	.align	2
	.type	_fsymf_info_hosalbl_pds, @object
	.size	_fsymf_info_hosalbl_pds, 8
_fsymf_info_hosalbl_pds:
	.word	_fsymf_level_hosalbl_pds
	.word	.LC0
	.text
.Letext0:
	.file 3 "/mnt/d/GitHub/bl_iot_sdk_for_aithinker/toolchain/riscv/Linux/lib/gcc/riscv64-unknown-elf/10.2.0/include/stdint-gcc.h"
	.file 4 "/mnt/d/GitHub/bl_iot_sdk_for_aithinker/components/platform/soc/bl602/bl602_std/bl602_std/Device/Bouffalo/BL602/Peripherals/bl602.h"
	.file 5 "/mnt/d/GitHub/bl_iot_sdk_for_aithinker/components/platform/soc/bl602/bl602_std/bl602_std/StdDriver/Inc/bl602_common.h"
	.file 6 "/mnt/d/GitHub/bl_iot_sdk_for_aithinker/components/platform/soc/bl602/bl602_std/bl602_std/StdDriver/Inc/bl602_sf_ctrl.h"
	.file 7 "/mnt/d/GitHub/bl_iot_sdk_for_aithinker/components/platform/soc/bl602/bl602_std/bl602_std/StdDriver/Inc/bl602_sflash.h"
	.file 8 "/mnt/d/GitHub/bl_iot_sdk_for_aithinker/components/platform/soc/bl602/bl602_std/bl602_std/StdDriver/Inc/bl602_hbn.h"
	.file 9 "/mnt/d/GitHub/bl_iot_sdk_for_aithinker/components/platform/soc/bl602/bl602_std/bl602_std/StdDriver/Inc/bl602_pds.h"
	.file 10 "/mnt/d/GitHub/bl_iot_sdk_for_aithinker/components/stage/blog/blog_type.h"
	.file 11 "/mnt/d/GitHub/bl_iot_sdk_for_aithinker/components/stage/blog/blog.h"
	.file 12 "/mnt/d/GitHub/bl_iot_sdk_for_aithinker/components/platform/soc/bl602/bl602_std/bl602_std/StdDriver/Inc/bl602_aon.h"
	.file 13 "/mnt/d/GitHub/bl_iot_sdk_for_aithinker/components/platform/soc/bl602/bl602_std/bl602_std/StdDriver/Inc/bl602_sec_eng.h"
	.file 14 "/mnt/d/GitHub/bl_iot_sdk_for_aithinker/components/platform/soc/bl602/bl602_std/bl602_std/StdDriver/Inc/bl602_glb.h"
	.file 15 "/mnt/d/GitHub/bl_iot_sdk_for_aithinker/components/platform/soc/bl602/bl602_std/bl602_std/StdDriver/Inc/bl602_sf_cfg.h"
	.file 16 "/mnt/d/GitHub/bl_iot_sdk_for_aithinker/components/platform/soc/bl602/bl602_std/bl602_std/StdDriver/Inc/bl602_sflash_ext.h"
	.file 17 "/mnt/d/GitHub/bl_iot_sdk_for_aithinker/components/platform/soc/bl602/bl602_std/bl602_std/StdDriver/Inc/bl602_xip_sflash.h"