	.file	"bl_rtc.c"
	.option nopic
	.attribute arch, "rv32i2p0_m2p0_f2p0_c2p0"
	.attribute unaligned_access, 0
	.attribute stack_align, 16
	.text
.Ltext0:
	.cfi_sections	.debug_frame
	.section	.text.bl_rtc_init,"ax",@progbits
	.align	1
	.globl	bl_rtc_init
	.type	bl_rtc_init, @function
bl_rtc_init:
.LFB8:
	.file 1 "/mnt/d/GitHub/bl_iot_sdk_for_aithinker/components/platform/hosal/bl602_hal/bl_rtc.c"
	.loc 1 5 1
	.cfi_startproc
	.loc 1 9 5
	.loc 1 5 1 is_stmt 0
	addi	sp,sp,-16
	.cfi_def_cfa_offset 16
	.loc 1 9 5
	li	a0,0
	.loc 1 5 1
	sw	ra,12(sp)
	.cfi_offset 1, -4
	.loc 1 9 5
	call	HBN_32K_Sel
.LVL0:
	.loc 1 12 5 is_stmt 1
	call	HBN_Clear_RTC_Counter
.LVL1:
	.loc 1 13 5
	.loc 1 14 1 is_stmt 0
	lw	ra,12(sp)
	.cfi_restore 1
	addi	sp,sp,16
	.cfi_def_cfa_offset 0
	.loc 1 13 5
	tail	HBN_Enable_RTC_Counter
.LVL2:
	.cfi_endproc
.LFE8:
	.size	bl_rtc_init, .-bl_rtc_init
	.section	.text.bl_rtc_get_counter,"ax",@progbits
	.align	1
	.globl	bl_rtc_get_counter
	.type	bl_rtc_get_counter, @function
bl_rtc_get_counter:
.LFB9:
	.loc 1 17 1 is_stmt 1
	.cfi_startproc
	.loc 1 18 5
	.loc 1 20 5
	.loc 1 17 1 is_stmt 0
	addi	sp,sp,-32
	.cfi_def_cfa_offset 32
	.loc 1 20 5
	addi	a1,sp,12
	addi	a0,sp,8
	.loc 1 17 1
	sw	ra,28(sp)
	.cfi_offset 1, -4
	.loc 1 20 5
	call	HBN_Get_RTC_Timer_Val
.LVL3:
	.loc 1 22 5 is_stmt 1
	.loc 1 23 1 is_stmt 0
	lw	ra,28(sp)
	.cfi_restore 1
	lw	a0,8(sp)
	lw	a1,12(sp)
	addi	sp,sp,32
	.cfi_def_cfa_offset 0
	jr	ra
	.cfi_endproc
.LFE9:
	.size	bl_rtc_get_counter, .-bl_rtc_get_counter
	.section	.text.bl_rtc_get_timestamp_ms,"ax",@progbits
	.align	1
	.globl	bl_rtc_get_timestamp_ms
	.type	bl_rtc_get_timestamp_ms, @function
bl_rtc_get_timestamp_ms:
.LFB10:
	.loc 1 26 1 is_stmt 1
	.cfi_startproc
	.loc 1 27 5
	.loc 1 29 5
	.loc 1 26 1 is_stmt 0
	addi	sp,sp,-16
	.cfi_def_cfa_offset 16
	sw	ra,12(sp)
	.cfi_offset 1, -4
	.loc 1 29 11
	call	bl_rtc_get_counter
.LVL4:
	.loc 1 31 5 is_stmt 1
	.loc 1 31 20 is_stmt 0
	slli	a5,a1,27
	srli	a4,a0,5
	or	a4,a5,a4
	.loc 1 31 35
	slli	a2,a1,21
	srli	a5,a0,11
	.loc 1 31 51
	slli	a6,a1,20
	srli	a0,a0,12
.LVL5:
	.loc 1 31 35
	or	a5,a2,a5
	.loc 1 31 51
	or	a0,a6,a0
	.loc 1 31 20
	srli	a3,a1,5
	.loc 1 31 35
	srli	a2,a1,11
	.loc 1 31 42
	add	a0,a5,a0
	.loc 1 31 51
	srli	a1,a1,12
	.loc 1 32 1
	lw	ra,12(sp)
	.cfi_restore 1
	.loc 1 31 42
	sltu	a5,a0,a5
	add	a1,a2,a1
	sub	a0,a4,a0
	add	a5,a5,a1
	sgtu	a4,a0,a4
	sub	a1,a3,a5
	.loc 1 32 1
	sub	a1,a1,a4
	addi	sp,sp,16
	.cfi_def_cfa_offset 0
	jr	ra
	.cfi_endproc
.LFE10:
	.size	bl_rtc_get_timestamp_ms, .-bl_rtc_get_timestamp_ms
	.section	.text.bl_rtc_get_delta_counter,"ax",@progbits
	.align	1
	.globl	bl_rtc_get_delta_counter
	.type	bl_rtc_get_delta_counter, @function
bl_rtc_get_delta_counter:
.LFB11:
	.loc 1 35 1 is_stmt 1
	.cfi_startproc
.LVL6:
	.loc 1 36 5
	.loc 1 38 5
	.loc 1 35 1 is_stmt 0
	addi	sp,sp,-16
	.cfi_def_cfa_offset 16
	sw	s0,8(sp)
	sw	s1,4(sp)
	sw	ra,12(sp)
	.cfi_offset 8, -8
	.cfi_offset 9, -12
	.cfi_offset 1, -4
	.loc 1 35 1
	mv	s1,a1
	mv	s0,a0
	.loc 1 38 11
	call	bl_rtc_get_counter
.LVL7:
	.loc 1 39 13
	andi	a4,s1,255
	.loc 1 38 11
	mv	a5,a0
.LVL8:
	.loc 1 39 5 is_stmt 1
	.loc 1 41 5
	.loc 1 41 7 is_stmt 0
	bgtu	a4,a1,.L10
	bne	a4,a1,.L8
	bleu	s0,a0,.L8
.L10:
	.loc 1 42 9 is_stmt 1
	.loc 1 42 13 is_stmt 0
	addi	a1,a1,256
.LVL9:
.L8:
	.loc 1 45 5 is_stmt 1
	.loc 1 45 16 is_stmt 0
	sub	a0,a5,s0
.LVL10:
	.loc 1 46 1
	lw	ra,12(sp)
	.cfi_restore 1
	lw	s0,8(sp)
	.cfi_restore 8
.LVL11:
	.loc 1 45 16
	sgtu	a5,a0,a5
.LVL12:
	sub	a1,a1,a4
	.loc 1 46 1
	lw	s1,4(sp)
	.cfi_restore 9
	sub	a1,a1,a5
	addi	sp,sp,16
	.cfi_def_cfa_offset 0
	jr	ra
	.cfi_endproc
.LFE11:
	.size	bl_rtc_get_delta_counter, .-bl_rtc_get_delta_counter
	.section	.text.bl_rtc_get_delta_time_ms,"ax",@progbits
	.align	1
	.globl	bl_rtc_get_delta_time_ms
	.type	bl_rtc_get_delta_time_ms, @function
bl_rtc_get_delta_time_ms:
.LFB12:
	.loc 1 49 1 is_stmt 1
	.cfi_startproc
.LVL13:
	.loc 1 50 5
	.loc 1 52 5
	.loc 1 49 1 is_stmt 0
	addi	sp,sp,-16
	.cfi_def_cfa_offset 16
	sw	ra,12(sp)
	.cfi_offset 1, -4
	.loc 1 52 11
	call	bl_rtc_get_delta_counter
.LVL14:
	.loc 1 54 5 is_stmt 1
	.loc 1 54 20 is_stmt 0
	slli	a5,a1,27
	srli	a4,a0,5
	or	a4,a5,a4
	.loc 1 54 35
	slli	a2,a1,21
	srli	a5,a0,11
	.loc 1 54 51
	slli	a6,a1,20
	srli	a0,a0,12
.LVL15:
	.loc 1 54 35
	or	a5,a2,a5
	.loc 1 54 51
	or	a0,a6,a0
	.loc 1 54 20
	srli	a3,a1,5
	.loc 1 54 35
	srli	a2,a1,11
	.loc 1 54 42
	add	a0,a5,a0
	.loc 1 54 51
	srli	a1,a1,12
	.loc 1 55 1
	lw	ra,12(sp)
	.cfi_restore 1
	.loc 1 54 42
	sltu	a5,a0,a5
	add	a1,a2,a1
	sub	a0,a4,a0
	add	a5,a5,a1
	sgtu	a4,a0,a4
	sub	a1,a3,a5
	.loc 1 55 1
	sub	a1,a1,a4
	addi	sp,sp,16
	.cfi_def_cfa_offset 0
	jr	ra
	.cfi_endproc
.LFE12:
	.size	bl_rtc_get_delta_time_ms, .-bl_rtc_get_delta_time_ms
	.text
.Letext0:
	.file 2 "/mnt/d/GitHub/bl_iot_sdk_for_aithinker/toolchain/riscv/Linux/lib/gcc/riscv64-unknown-elf/10.2.0/include/stdint-gcc.h"
	.file 3 "/mnt/d/GitHub/bl_iot_sdk_for_aithinker/components/platform/soc/bl602/bl602_std/bl602_std/StdDriver/Inc/bl602_hbn.h"