	.file	"bl_sec_pka.c"
	.option nopic
	.attribute arch, "rv32i2p0_m2p0_f2p0_c2p0"
	.attribute unaligned_access, 0
	.attribute stack_align, 16
	.text
.Ltext0:
	.cfi_sections	.debug_frame
	.section	.text.mpi_words,"ax",@progbits
	.align	1
	.type	mpi_words, @function
mpi_words:
.LFB11:
	.file 1 "/mnt/d/GitHub/bl_iot_sdk_for_aithinker/components/platform/hosal/bl602_hal/bl_sec_pka.c"
	.loc 1 102 1
	.cfi_startproc
.LVL0:
	.loc 1 103 5
.LBB2:
	.loc 1 103 10
.LBE2:
	.loc 1 102 1 is_stmt 0
	mv	a5,a0
.LBB3:
	.loc 1 103 17
	lw	a0,4(a0)
.LVL1:
.L2:
	.loc 1 103 29 is_stmt 1 discriminator 1
	.loc 1 103 5 is_stmt 0 discriminator 1
	bne	a0,zero,.L4
.L1:
.LBE3:
	.loc 1 109 1
	ret
.L4:
.LBB4:
	.loc 1 104 9 is_stmt 1
	.loc 1 104 19 is_stmt 0
	lw	a4,8(a5)
	slli	a3,a0,2
	add	a4,a4,a3
	.loc 1 104 12
	lw	a4,-4(a4)
	bne	a4,zero,.L1
	.loc 1 103 36 is_stmt 1 discriminator 2
	.loc 1 103 37 is_stmt 0 discriminator 2
	addi	a0,a0,-1
.LVL2:
	j	.L2
.LBE4:
	.cfi_endproc
.LFE11:
	.size	mpi_words, .-mpi_words
	.section	.text.mpi_words_to_reg_size,"ax",@progbits
	.align	1
	.type	mpi_words_to_reg_size, @function
mpi_words_to_reg_size:
.LFB12:
	.loc 1 112 1 is_stmt 1
	.cfi_startproc
.LVL3:
	.loc 1 113 5
	.loc 1 113 12 is_stmt 0
	slli	a5,a0,2
.LVL4:
	.loc 1 114 5 is_stmt 1
	.loc 1 114 8 is_stmt 0
	li	a4,8
	bleu	a5,a4,.L7
	.loc 1 115 10 is_stmt 1
	.loc 1 115 13 is_stmt 0
	li	a4,16
	.loc 1 115 34
	li	a0,2
.LVL5:
	.loc 1 115 13
	bleu	a5,a4,.L5
	.loc 1 116 10 is_stmt 1
	.loc 1 116 13 is_stmt 0
	li	a4,32
	.loc 1 116 34
	li	a0,3
	.loc 1 116 13
	bleu	a5,a4,.L5
	.loc 1 117 10 is_stmt 1
	.loc 1 117 13 is_stmt 0
	li	a4,64
	.loc 1 117 34
	li	a0,4
	.loc 1 117 13
	bleu	a5,a4,.L5
	.loc 1 118 10 is_stmt 1
	.loc 1 118 13 is_stmt 0
	li	a4,96
	.loc 1 118 34
	li	a0,5
	.loc 1 118 13
	bleu	a5,a4,.L5
	.loc 1 119 10 is_stmt 1
	.loc 1 119 13 is_stmt 0
	li	a4,128
	.loc 1 119 35
	li	a0,6
	.loc 1 119 13
	bleu	a5,a4,.L5
	.loc 1 120 10 is_stmt 1
	.loc 1 120 13 is_stmt 0
	li	a4,192
	.loc 1 120 35
	li	a0,7
	.loc 1 120 13
	bleu	a5,a4,.L5
	.loc 1 121 10 is_stmt 1
	.loc 1 121 13 is_stmt 0
	li	a4,256
	.loc 1 121 35
	li	a0,8
	.loc 1 121 13
	bleu	a5,a4,.L5
	.loc 1 122 10 is_stmt 1
	.loc 1 122 13 is_stmt 0
	li	a4,384
	.loc 1 122 35
	li	a0,9
	.loc 1 122 13
	bleu	a5,a4,.L5
	.loc 1 123 10 is_stmt 1
	.loc 1 123 13 is_stmt 0
	li	a4,512
	.loc 1 123 35
	li	a0,10
	.loc 1 123 13
	bleu	a5,a4,.L5
	.loc 1 124 17
	li	a0,0
	ret
.LVL6:
.L7:
	.loc 1 114 28
	li	a0,1
.LVL7:
.L5:
	.loc 1 125 1
	ret
	.cfi_endproc
.LFE12:
	.size	mpi_words_to_reg_size, .-mpi_words_to_reg_size
	.section	.text.mpi_reg_size_to_words,"ax",@progbits
	.align	1
	.type	mpi_reg_size_to_words, @function
mpi_reg_size_to_words:
.LFB13:
	.loc 1 128 1 is_stmt 1
	.cfi_startproc
.LVL8:
	.loc 1 129 5
	.loc 1 129 8 is_stmt 0
	li	a4,1
	.loc 1 128 1
	mv	a5,a0
	.loc 1 129 8
	beq	a0,a4,.L19
	.loc 1 130 10 is_stmt 1
	.loc 1 130 13 is_stmt 0
	li	a4,2
	.loc 1 130 58
	li	a0,4
.LVL9:
	.loc 1 130 13
	beq	a5,a4,.L17
	.loc 1 131 10 is_stmt 1
	.loc 1 131 13 is_stmt 0
	li	a4,3
	.loc 1 131 58
	li	a0,8
	.loc 1 131 13
	beq	a5,a4,.L17
	.loc 1 132 10 is_stmt 1
	.loc 1 132 13 is_stmt 0
	li	a4,4
	.loc 1 132 58
	li	a0,16
	.loc 1 132 13
	beq	a5,a4,.L17
	.loc 1 133 10 is_stmt 1
	.loc 1 133 13 is_stmt 0
	li	a4,5
	.loc 1 133 58
	li	a0,24
	.loc 1 133 13
	beq	a5,a4,.L17
	.loc 1 134 10 is_stmt 1
	.loc 1 134 13 is_stmt 0
	li	a4,6
	.loc 1 134 59
	li	a0,32
	.loc 1 134 13
	beq	a5,a4,.L17
	.loc 1 135 10 is_stmt 1
	.loc 1 135 13 is_stmt 0
	li	a4,7
	.loc 1 135 59
	li	a0,48
	.loc 1 135 13
	beq	a5,a4,.L17
	.loc 1 136 10 is_stmt 1
	.loc 1 136 13 is_stmt 0
	li	a4,8
	.loc 1 136 59
	li	a0,64
	.loc 1 136 13
	beq	a5,a4,.L17
.LVL10:
.LBB7:
.LBB8:
	.loc 1 137 10 is_stmt 1
	.loc 1 137 13 is_stmt 0
	li	a4,9
	.loc 1 137 59
	li	a0,96
	.loc 1 137 13
	beq	a5,a4,.L17
	.loc 1 138 10 is_stmt 1
	.loc 1 138 13 is_stmt 0
	li	a4,10
	.loc 1 138 59
	li	a0,128
	.loc 1 138 13
	beq	a5,a4,.L17
	.loc 1 139 17
	li	a0,0
	ret
.LVL11:
.L19:
.LBE8:
.LBE7:
	.loc 1 129 52
	li	a0,2
.LVL12:
.L17:
	.loc 1 140 1
	ret
	.cfi_endproc
.LFE13:
	.size	mpi_reg_size_to_words, .-mpi_reg_size_to_words
	.section	.text.bl_sec_pka_init,"ax",@progbits
	.align	1
	.globl	bl_sec_pka_init
	.type	bl_sec_pka_init, @function
bl_sec_pka_init:
.LFB8:
	.loc 1 75 1 is_stmt 1
	.cfi_startproc
	.loc 1 76 5
	.loc 1 75 1 is_stmt 0
	addi	sp,sp,-16
	.cfi_def_cfa_offset 16
	.loc 1 76 5
	li	a0,0
	.loc 1 75 1
	sw	ra,12(sp)
	.cfi_offset 1, -4
	.loc 1 76 5
	call	GLB_Set_PKA_CLK_Sel
.LVL13:
	.loc 1 77 5 is_stmt 1
	.loc 1 77 17 is_stmt 0
	lui	a1,%hi(.LANCHOR0)
	addi	a1,a1,%lo(.LANCHOR0)
	li	a0,1
	call	xQueueCreateMutexStatic
.LVL14:
	.loc 1 83 1
	lw	ra,12(sp)
	.cfi_restore 1
	.loc 1 77 15
	lui	a5,%hi(.LANCHOR1)
	sw	a0,%lo(.LANCHOR1)(a5)
	.loc 1 78 5 is_stmt 1
	.loc 1 78 8 is_stmt 0
	seqz	a0,a0
	.loc 1 83 1
	neg	a0,a0
	addi	sp,sp,16
	.cfi_def_cfa_offset 0
	jr	ra
	.cfi_endproc
.LFE8:
	.size	bl_sec_pka_init, .-bl_sec_pka_init
	.section	.text.bl_sec_pka_mutex_take,"ax",@progbits
	.align	1
	.globl	bl_sec_pka_mutex_take
	.type	bl_sec_pka_mutex_take, @function
bl_sec_pka_mutex_take:
.LFB9:
	.loc 1 86 1 is_stmt 1
	.cfi_startproc
	.loc 1 87 5
	.loc 1 87 37 is_stmt 0
	lui	a5,%hi(.LANCHOR1)
	lw	a0,%lo(.LANCHOR1)(a5)
	.loc 1 86 1
	addi	sp,sp,-16
	.cfi_def_cfa_offset 16
	.loc 1 87 37
	li	a1,-1
	.loc 1 86 1
	sw	ra,12(sp)
	.cfi_offset 1, -4
	.loc 1 87 37
	call	xQueueSemaphoreTake
.LVL15:
	.loc 1 91 1
	lw	ra,12(sp)
	.cfi_restore 1
	.loc 1 87 8
	addi	a0,a0,-1
	snez	a0,a0
	.loc 1 91 1
	neg	a0,a0
	addi	sp,sp,16
	.cfi_def_cfa_offset 0
	jr	ra
	.cfi_endproc
.LFE9:
	.size	bl_sec_pka_mutex_take, .-bl_sec_pka_mutex_take
	.section	.text.bl_sec_pka_mutex_give,"ax",@progbits
	.align	1
	.globl	bl_sec_pka_mutex_give
	.type	bl_sec_pka_mutex_give, @function
bl_sec_pka_mutex_give:
.LFB10:
	.loc 1 94 1 is_stmt 1
	.cfi_startproc
	.loc 1 95 5
	.loc 1 95 37 is_stmt 0
	lui	a5,%hi(.LANCHOR1)
	lw	a0,%lo(.LANCHOR1)(a5)
	.loc 1 94 1
	addi	sp,sp,-16
	.cfi_def_cfa_offset 16
	.loc 1 95 37
	li	a3,0
	li	a2,0
	li	a1,0
	.loc 1 94 1
	sw	ra,12(sp)
	.cfi_offset 1, -4
	.loc 1 95 37
	call	xQueueGenericSend
.LVL16:
	.loc 1 99 1
	lw	ra,12(sp)
	.cfi_restore 1
	.loc 1 95 8
	addi	a0,a0,-1
	snez	a0,a0
	.loc 1 99 1
	neg	a0,a0
	addi	sp,sp,16
	.cfi_def_cfa_offset 0
	jr	ra
	.cfi_endproc
.LFE10:
	.size	bl_sec_pka_mutex_give, .-bl_sec_pka_mutex_give
	.section	.text.mpi_clear_upper_bits,"ax",@progbits
	.align	1
	.globl	mpi_clear_upper_bits
	.type	mpi_clear_upper_bits, @function
mpi_clear_upper_bits:
.LFB14:
	.loc 1 144 1 is_stmt 1
	.cfi_startproc
.LVL17:
	.loc 1 145 5
	.loc 1 147 5
	.loc 1 144 1 is_stmt 0
	mv	a4,a0
	.loc 1 147 8
	beq	a0,zero,.L39
	.loc 1 149 5 is_stmt 1
	.loc 1 149 47 is_stmt 0
	addi	a5,a1,31
	.loc 1 149 12
	srli	a5,a5,5
.LVL18:
	.loc 1 151 5 is_stmt 1
.LBB9:
	.loc 1 151 10
	.loc 1 151 17 is_stmt 0
	mv	a3,a5
.LVL19:
.L37:
	.loc 1 151 38 is_stmt 1 discriminator 1
	.loc 1 151 43 is_stmt 0 discriminator 1
	lw	a2,4(a4)
	.loc 1 151 5 discriminator 1
	bgtu	a2,a3,.L38
.LBE9:
	.loc 1 154 5 is_stmt 1
	.loc 1 154 12 is_stmt 0
	andi	a1,a1,31
.LVL20:
	.loc 1 155 5 is_stmt 1
	.loc 1 162 12 is_stmt 0
	li	a0,0
	.loc 1 155 8
	beq	a1,zero,.L35
	.loc 1 155 39 discriminator 1
	addi	a3,a5,-1
.LVL21:
	.loc 1 155 20 discriminator 1
	bleu	a2,a3,.L35
.LBB10:
	.loc 1 156 9 is_stmt 1
.LVL22:
	.loc 1 157 9
	.loc 1 158 9
	.loc 1 159 9
	.loc 1 159 35 is_stmt 0
	lw	a4,8(a4)
.LVL23:
	slli	a5,a5,2
.LVL24:
	addi	a5,a5,-4
	add	a5,a4,a5
	li	a4,-1
	sll	a1,a4,a1
.LVL25:
	lw	a4,0(a5)
	not	a1,a1
	and	a1,a4,a1
	sw	a1,0(a5)
	ret
.LVL26:
.L38:
.LBE10:
.LBB11:
	.loc 1 152 9 is_stmt 1 discriminator 3
	.loc 1 152 17 is_stmt 0 discriminator 3
	lw	a2,8(a4)
	slli	a0,a3,2
	.loc 1 151 48 discriminator 3
	addi	a3,a3,1
.LVL27:
	.loc 1 152 17 discriminator 3
	add	a2,a2,a0
	sw	zero,0(a2)
	.loc 1 151 48 is_stmt 1 discriminator 3
.LVL28:
	j	.L37
.LVL29:
.L39:
.LBE11:
	.loc 1 148 16 is_stmt 0
	li	a0,-1
.LVL30:
.L35:
	.loc 1 163 1
	ret
	.cfi_endproc
.LFE14:
	.size	mpi_clear_upper_bits, .-mpi_clear_upper_bits
	.section	.text.mpi_mod_2n,"ax",@progbits
	.align	1
	.globl	mpi_mod_2n
	.type	mpi_mod_2n, @function
mpi_mod_2n:
.LFB15:
	.loc 1 166 1 is_stmt 1
	.cfi_startproc
.LVL31:
	.loc 1 167 5
	.loc 1 168 5
	.loc 1 169 5
	.loc 1 166 1 is_stmt 0
	addi	sp,sp,-32
	.cfi_def_cfa_offset 32
	sw	s0,24(sp)
	sw	ra,28(sp)
	sw	s1,20(sp)
	sw	s2,16(sp)
	.cfi_offset 8, -8
	.cfi_offset 1, -4
	.cfi_offset 9, -12
	.cfi_offset 18, -16
	.loc 1 170 16
	li	s0,-1
	.loc 1 169 8
	beq	a0,zero,.L43
	mv	s1,a0
	mv	s2,a1
	.loc 1 172 5 is_stmt 1
	call	mpi_clear_upper_bits
.LVL32:
	.loc 1 173 5
	addi	a0,sp,4
	call	mbedtls_mpi_init
.LVL33:
	.loc 1 174 5
	.loc 1 174 8 is_stmt 0
	lw	a5,0(s1)
	.loc 1 167 9
	li	s0,0
	.loc 1 174 8
	bge	a5,zero,.L45
	.loc 1 175 9 is_stmt 1
	.loc 1 175 14
	.loc 1 175 27 is_stmt 0
	li	a2,1
	mv	a1,s2
	addi	a0,sp,4
	call	mbedtls_mpi_set_bit
.LVL34:
	mv	s0,a0
.LVL35:
	.loc 1 175 16
	bne	a0,zero,.L45
	.loc 1 175 88 is_stmt 1 discriminator 2
	.loc 1 176 9 discriminator 2
	.loc 1 176 14 discriminator 2
	.loc 1 176 27 is_stmt 0 discriminator 2
	addi	a2,sp,4
	mv	a1,s1
	mv	a0,s1
	call	mbedtls_mpi_add_mpi
.LVL36:
	mv	s0,a0
.LVL37:
	.loc 1 176 16 discriminator 2
	bne	a0,zero,.L45
	.loc 1 176 88 is_stmt 1 discriminator 2
	.loc 1 177 9 discriminator 2
	.loc 1 177 14 discriminator 2
	.loc 1 177 27 is_stmt 0 discriminator 2
	li	a2,0
	mv	a1,s2
	mv	a0,s1
	call	mbedtls_mpi_set_bit
.LVL38:
	mv	s0,a0
.LVL39:
.L45:
	.loc 1 177 87 is_stmt 1 discriminator 3
	.loc 1 180 5 discriminator 3
	addi	a0,sp,4
	call	mbedtls_mpi_free
.LVL40:
	.loc 1 181 5 discriminator 3
.L43:
	.loc 1 182 1 is_stmt 0
	lw	ra,28(sp)
	.cfi_restore 1
	mv	a0,s0
	lw	s0,24(sp)
	.cfi_restore 8
	lw	s1,20(sp)
	.cfi_restore 9
	lw	s2,16(sp)
	.cfi_restore 18
	addi	sp,sp,32
	.cfi_def_cfa_offset 0
	jr	ra
	.cfi_endproc
.LFE15:
	.size	mpi_mod_2n, .-mpi_mod_2n
	.section	.text.mpi_hensel_quad_mod_inv_prime_n,"ax",@progbits
	.align	1
	.globl	mpi_hensel_quad_mod_inv_prime_n
	.type	mpi_hensel_quad_mod_inv_prime_n, @function
mpi_hensel_quad_mod_inv_prime_n:
.LFB16:
	.loc 1 185 1 is_stmt 1
	.cfi_startproc
.LVL41:
	.loc 1 186 5
	.loc 1 187 5
	.loc 1 187 8 is_stmt 0
	beq	a0,zero,.L56
	.loc 1 185 1 discriminator 1
	addi	sp,sp,-64
	.cfi_def_cfa_offset 64
	sw	s0,56(sp)
	sw	s2,48(sp)
	sw	ra,60(sp)
	sw	s1,52(sp)
	sw	s3,44(sp)
	.cfi_offset 8, -8
	.cfi_offset 18, -16
	.cfi_offset 1, -4
	.cfi_offset 9, -12
	.cfi_offset 19, -20
	mv	s0,a0
	mv	s2,a1
	.loc 1 188 16 discriminator 1
	li	a0,-1
.LVL42:
	.loc 1 187 13 discriminator 1
	beq	a1,zero,.L49
	mv	s1,a2
	.loc 1 187 9 discriminator 2
	beq	a2,zero,.L49
	.loc 1 190 5 is_stmt 1
	.loc 1 190 14 is_stmt 0
	lw	a5,8(a1)
	.loc 1 190 18
	lw	a5,0(a5)
	andi	a5,a5,1
	.loc 1 190 8
	beq	a5,zero,.L49
	.loc 1 193 5 is_stmt 1
	.loc 1 194 5
	addi	a0,sp,8
	call	mbedtls_mpi_init
.LVL43:
	.loc 1 196 5
	li	a1,1
	mv	a0,s0
	call	mbedtls_mpi_lset
.LVL44:
	.loc 1 197 5
.LBB12:
	.loc 1 197 10
	.loc 1 197 17 is_stmt 0
	li	s3,2
.LVL45:
.L51:
	.loc 1 197 24 is_stmt 1 discriminator 2
	.loc 1 198 27 is_stmt 0 discriminator 2
	mv	a2,s0
	mv	a1,s0
	addi	a0,sp,8
	.loc 1 197 5 discriminator 2
	bltu	s3,s1,.L55
.LBE12:
	.loc 1 205 5 is_stmt 1
	.loc 1 205 10
	.loc 1 205 23 is_stmt 0
	call	mbedtls_mpi_mul_mpi
.LVL46:
	.loc 1 205 12
	bne	a0,zero,.L53
	.loc 1 205 86 is_stmt 1 discriminator 2
	.loc 1 206 5 discriminator 2
	.loc 1 206 10 discriminator 2
	.loc 1 206 23 is_stmt 0 discriminator 2
	mv	a1,s1
	addi	a0,sp,8
.LVL47:
	call	mpi_mod_2n
.LVL48:
	.loc 1 206 12 discriminator 2
	bne	a0,zero,.L53
	.loc 1 206 74 is_stmt 1 discriminator 2
	.loc 1 207 5 discriminator 2
	.loc 1 207 10 discriminator 2
	.loc 1 207 23 is_stmt 0 discriminator 2
	addi	a1,sp,8
	mv	a2,s2
	mv	a0,a1
.LVL49:
	call	mbedtls_mpi_mul_mpi
.LVL50:
	.loc 1 207 12 discriminator 2
	bne	a0,zero,.L53
	.loc 1 207 89 is_stmt 1 discriminator 2
	.loc 1 208 5 discriminator 2
	.loc 1 208 10 discriminator 2
	.loc 1 208 23 is_stmt 0 discriminator 2
	mv	a1,s1
	addi	a0,sp,8
.LVL51:
	call	mpi_mod_2n
.LVL52:
	.loc 1 208 12 discriminator 2
	bne	a0,zero,.L53
	.loc 1 208 74 is_stmt 1 discriminator 2
	.loc 1 209 5 discriminator 2
	.loc 1 209 10 discriminator 2
	.loc 1 209 23 is_stmt 0 discriminator 2
	li	a1,1
	mv	a0,s0
.LVL53:
	call	mbedtls_mpi_shift_l
.LVL54:
	.loc 1 209 12 discriminator 2
	bne	a0,zero,.L53
	.loc 1 209 80 is_stmt 1 discriminator 2
	.loc 1 210 5 discriminator 2
	.loc 1 210 10 discriminator 2
	.loc 1 210 23 is_stmt 0 discriminator 2
	addi	a2,sp,8
	mv	a1,s0
	mv	a0,s0
.LVL55:
	call	mbedtls_mpi_sub_mpi
.LVL56:
	.loc 1 210 12 discriminator 2
	bne	a0,zero,.L53
	.loc 1 210 86 is_stmt 1 discriminator 2
	.loc 1 211 5 discriminator 2
	.loc 1 211 10 discriminator 2
	.loc 1 211 23 is_stmt 0 discriminator 2
	mv	a1,s1
	mv	a0,s0
.LVL57:
	call	mpi_mod_2n
.LVL58:
	.loc 1 211 12 discriminator 2
	bne	a0,zero,.L53
	.loc 1 211 71 is_stmt 1 discriminator 2
	.loc 1 213 5 discriminator 2
	.loc 1 214 5 discriminator 2
	.loc 1 215 12 is_stmt 0 discriminator 2
	li	a5,1
	sw	a5,20(sp)
	.loc 1 216 12 discriminator 2
	sw	a5,24(sp)
	.loc 1 218 23 discriminator 2
	mv	a2,s0
	.loc 1 217 12 discriminator 2
	addi	a5,sp,4
	.loc 1 218 23 discriminator 2
	addi	a1,sp,20
	mv	a0,s0
.LVL59:
	.loc 1 214 22 discriminator 2
	sw	zero,4(sp)
	.loc 1 215 5 is_stmt 1 discriminator 2
	.loc 1 216 5 discriminator 2
	.loc 1 217 5 discriminator 2
	.loc 1 217 12 is_stmt 0 discriminator 2
	sw	a5,28(sp)
	.loc 1 218 5 is_stmt 1 discriminator 2
	.loc 1 218 10 discriminator 2
	.loc 1 218 23 is_stmt 0 discriminator 2
	call	mbedtls_mpi_sub_mpi
.LVL60:
	.loc 1 218 12 discriminator 2
	bne	a0,zero,.L53
	.loc 1 218 87 is_stmt 1 discriminator 2
	.loc 1 219 5 discriminator 2
	.loc 1 219 10 discriminator 2
	.loc 1 219 23 is_stmt 0 discriminator 2
	mv	a1,s1
	mv	a0,s0
.LVL61:
	call	mpi_mod_2n
.LVL62:
.L53:
	.loc 1 219 71 is_stmt 1 discriminator 3
	.loc 1 222 5 discriminator 3
	addi	a0,sp,8
	call	mbedtls_mpi_free
.LVL63:
	.loc 1 224 5 discriminator 3
	.loc 1 224 12 is_stmt 0 discriminator 3
	li	a0,0
.LVL64:
.L49:
	.loc 1 225 1
	lw	ra,60(sp)
	.cfi_remember_state
	.cfi_restore 1
	lw	s0,56(sp)
	.cfi_restore 8
.LVL65:
	lw	s1,52(sp)
	.cfi_restore 9
	lw	s2,48(sp)
	.cfi_restore 18
.LVL66:
	lw	s3,44(sp)
	.cfi_restore 19
	addi	sp,sp,64
	.cfi_def_cfa_offset 0
	jr	ra
.LVL67:
.L55:
	.cfi_restore_state
.LBB13:
	.loc 1 198 9 is_stmt 1
	.loc 1 198 14
	.loc 1 198 27 is_stmt 0
	call	mbedtls_mpi_mul_mpi
.LVL68:
	.loc 1 198 16
	bne	a0,zero,.L53
	.loc 1 198 90 is_stmt 1 discriminator 2
	.loc 1 199 9 discriminator 2
	.loc 1 199 14 discriminator 2
	.loc 1 199 27 is_stmt 0 discriminator 2
	mv	a1,s3
	addi	a0,sp,8
.LVL69:
	call	mpi_mod_2n
.LVL70:
	.loc 1 199 16 discriminator 2
	bne	a0,zero,.L53
	.loc 1 199 78 is_stmt 1 discriminator 2
	.loc 1 200 9 discriminator 2
	.loc 1 200 14 discriminator 2
	.loc 1 200 27 is_stmt 0 discriminator 2
	addi	a1,sp,8
	mv	a2,s2
	mv	a0,a1
.LVL71:
	call	mbedtls_mpi_mul_mpi
.LVL72:
	.loc 1 200 16 discriminator 2
	bne	a0,zero,.L53
	.loc 1 200 93 is_stmt 1 discriminator 2
	.loc 1 201 9 discriminator 2
	.loc 1 201 14 discriminator 2
	.loc 1 201 27 is_stmt 0 discriminator 2
	mv	a1,s3
	addi	a0,sp,8
.LVL73:
	call	mpi_mod_2n
.LVL74:
	.loc 1 201 16 discriminator 2
	bne	a0,zero,.L53
	.loc 1 201 78 is_stmt 1 discriminator 2
	.loc 1 202 9 discriminator 2
	.loc 1 202 14 discriminator 2
	.loc 1 202 27 is_stmt 0 discriminator 2
	li	a1,1
	mv	a0,s0
.LVL75:
	call	mbedtls_mpi_shift_l
.LVL76:
	.loc 1 202 16 discriminator 2
	bne	a0,zero,.L53
	.loc 1 202 84 is_stmt 1 discriminator 2
	.loc 1 203 9 discriminator 2
	.loc 1 203 14 discriminator 2
	.loc 1 203 27 is_stmt 0 discriminator 2
	addi	a2,sp,8
	mv	a1,s0
	mv	a0,s0
.LVL77:
	call	mbedtls_mpi_sub_mpi
.LVL78:
	.loc 1 203 16 discriminator 2
	bne	a0,zero,.L53
	.loc 1 203 90 is_stmt 1 discriminator 2
	.loc 1 197 31 discriminator 2
	.loc 1 197 33 is_stmt 0 discriminator 2
	slli	s3,s3,1
.LVL79:
	j	.L51
.LVL80:
.L56:
	.cfi_def_cfa_offset 0
	.cfi_restore 1
	.cfi_restore 8
	.cfi_restore 9
	.cfi_restore 18
	.cfi_restore 19
.LBE13:
	.loc 1 188 16
	li	a0,-1
.LVL81:
	.loc 1 225 1
	ret
	.cfi_endproc
.LFE16:
	.size	mpi_hensel_quad_mod_inv_prime_n, .-mpi_hensel_quad_mod_inv_prime_n
	.section	.text.bl_sec_mpi_exp_mod_wo_lock,"ax",@progbits
	.align	1
	.globl	bl_sec_mpi_exp_mod_wo_lock
	.type	bl_sec_mpi_exp_mod_wo_lock, @function
bl_sec_mpi_exp_mod_wo_lock:
.LFB17:
	.loc 1 228 1 is_stmt 1
	.cfi_startproc
.LVL82:
	.loc 1 229 5
	.loc 1 230 5
	.loc 1 231 5
	.loc 1 232 5
	.loc 1 233 5
	.loc 1 233 10
	.loc 1 233 12 is_stmt 0
	bne	a0,zero,.L65
	.loc 1 233 16
	li	a5,-4
	.loc 1 388 1
	mv	a0,a5
.LVL83:
	ret
.LVL84:
.L67:
	.cfi_def_cfa_offset 112
	.cfi_offset 1, -4
	.cfi_offset 8, -8
	.cfi_offset 9, -12
	.cfi_offset 18, -16
	.cfi_offset 19, -20
	.cfi_offset 20, -24
	.cfi_offset 21, -28
	.cfi_offset 22, -32
	.cfi_offset 23, -36
	.cfi_offset 24, -40
	.cfi_offset 25, -44
	.cfi_offset 26, -48
	.cfi_offset 27, -52
	.loc 1 233 16
	li	a5,-4
.L64:
	.loc 1 388 1
	lw	ra,108(sp)
	.cfi_restore 1
	lw	s0,104(sp)
	.cfi_restore 8
	lw	s1,100(sp)
	.cfi_restore 9
	lw	s2,96(sp)
	.cfi_restore 18
	lw	s3,92(sp)
	.cfi_restore 19
	lw	s4,88(sp)
	.cfi_restore 20
	lw	s5,84(sp)
	.cfi_restore 21
	lw	s6,80(sp)
	.cfi_restore 22
	lw	s7,76(sp)
	.cfi_restore 23
	lw	s8,72(sp)
	.cfi_restore 24
	lw	s9,68(sp)
	.cfi_restore 25
	lw	s10,64(sp)
	.cfi_restore 26
	lw	s11,60(sp)
	.cfi_restore 27
.LVL85:
	mv	a0,a5
	addi	sp,sp,112
	.cfi_def_cfa_offset 0
	jr	ra
.LVL86:
.L65:
	.loc 1 228 1 discriminator 2
	addi	sp,sp,-112
	.cfi_def_cfa_offset 112
	sw	s11,60(sp)
	sw	ra,108(sp)
	sw	s0,104(sp)
	sw	s1,100(sp)
	sw	s2,96(sp)
	sw	s3,92(sp)
	sw	s4,88(sp)
	sw	s5,84(sp)
	sw	s6,80(sp)
	sw	s7,76(sp)
	sw	s8,72(sp)
	sw	s9,68(sp)
	sw	s10,64(sp)
	.cfi_offset 27, -52
	.cfi_offset 1, -4
	.cfi_offset 8, -8
	.cfi_offset 9, -12
	.cfi_offset 18, -16
	.cfi_offset 19, -20
	.cfi_offset 20, -24
	.cfi_offset 21, -28
	.cfi_offset 22, -32
	.cfi_offset 23, -36
	.cfi_offset 24, -40
	.cfi_offset 25, -44
	.cfi_offset 26, -48
	mv	s11,a1
	.loc 1 233 38 is_stmt 1 discriminator 2
	.loc 1 234 5 discriminator 2
	.loc 1 234 10 discriminator 2
	.loc 1 234 12 is_stmt 0 discriminator 2
	beq	a1,zero,.L67
	mv	s2,a2
	.loc 1 234 38 is_stmt 1 discriminator 2
	.loc 1 235 5 discriminator 2
	.loc 1 235 10 discriminator 2
	.loc 1 235 12 is_stmt 0 discriminator 2
	beq	a2,zero,.L67
	mv	s4,a3
	.loc 1 235 38 is_stmt 1 discriminator 2
	.loc 1 236 5 discriminator 2
	.loc 1 236 10 discriminator 2
	.loc 1 236 12 is_stmt 0 discriminator 2
	beq	a3,zero,.L67
	mv	s3,a0
	.loc 1 238 28 discriminator 2
	mv	a0,a1
.LVL87:
	mv	s6,a4
	.loc 1 236 38 is_stmt 1 discriminator 2
	.loc 1 238 5 discriminator 2
	.loc 1 238 28 is_stmt 0 discriminator 2
	call	mpi_words
.LVL88:
	mv	s0,a0
.LVL89:
	.loc 1 239 5 is_stmt 1 discriminator 2
	.loc 1 239 28 is_stmt 0 discriminator 2
	mv	a0,s2
	call	mpi_words
.LVL90:
	sw	a0,20(sp)
.LVL91:
	.loc 1 240 5 is_stmt 1 discriminator 2
	.loc 1 240 28 is_stmt 0 discriminator 2
	mv	a0,s4
.LVL92:
	call	mpi_words
.LVL93:
	.loc 1 242 18 discriminator 2
	lw	a5,20(sp)
	.loc 1 240 28 discriminator 2
	mv	s5,a0
.LVL94:
	.loc 1 242 5 is_stmt 1 discriminator 2
	.loc 1 244 5 discriminator 2
	.loc 1 242 18 is_stmt 0 discriminator 2
	mv	a0,s0
.LVL95:
	bgeu	s0,a5,.L68
	mv	a0,a5
.LVL96:
.L68:
	bgeu	a0,s5,.L69
	mv	a0,s5
.L69:
	.loc 1 244 26 discriminator 2
	call	mpi_words_to_reg_size
.LVL97:
	mv	s10,a0
.LVL98:
	.loc 1 245 5 is_stmt 1 discriminator 2
	.loc 1 246 5 discriminator 2
	.loc 1 247 5 discriminator 2
	.loc 1 248 5 discriminator 2
	.loc 1 249 5 discriminator 2
	.loc 1 250 5 discriminator 2
	.loc 1 251 5 discriminator 2
	.loc 1 252 5 discriminator 2
	.loc 1 253 5 discriminator 2
	.loc 1 254 5 discriminator 2
	.loc 1 254 26 is_stmt 0 discriminator 2
	mv	a0,s2
.LVL99:
	call	mbedtls_mpi_bitlen
.LVL100:
	sw	a0,16(sp)
.LVL101:
	.loc 1 255 5 is_stmt 1 discriminator 2
	.loc 1 256 4 discriminator 2
	.loc 1 257 5 discriminator 2
	.loc 1 260 5 discriminator 2
	.loc 1 260 8 is_stmt 0 discriminator 2
	li	a5,8
	bgt	s10,a5,.L96
	.loc 1 268 5 is_stmt 1
	.loc 1 268 9 is_stmt 0
	li	a1,0
	mv	a0,s4
.LVL102:
	call	mbedtls_mpi_cmp_int
.LVL103:
	.loc 1 268 8
	ble	a0,zero,.L67
	.loc 1 268 48 discriminator 1
	lw	a5,8(s4)
	.loc 1 268 52 discriminator 1
	lw	a5,0(a5)
	andi	a5,a5,1
	.loc 1 268 40 discriminator 1
	beq	a5,zero,.L67
	.loc 1 271 5 is_stmt 1
	.loc 1 271 9 is_stmt 0
	li	a1,0
	mv	a0,s2
	call	mbedtls_mpi_cmp_int
.LVL104:
	.loc 1 271 8
	blt	a0,zero,.L67
	.loc 1 274 5 is_stmt 1
	.loc 1 274 9 is_stmt 0
	li	a1,0
	mv	a0,s2
	call	mbedtls_mpi_cmp_int
.LVL105:
	.loc 1 274 8
	bne	a0,zero,.L70
	.loc 1 275 9 is_stmt 1
	.loc 1 388 1 is_stmt 0
	lw	s0,104(sp)
	.cfi_remember_state
	.cfi_restore 8
.LVL106:
	lw	ra,108(sp)
	.cfi_restore 1
	lw	s1,100(sp)
	.cfi_restore 9
	lw	s2,96(sp)
	.cfi_restore 18
.LVL107:
	lw	s4,88(sp)
	.cfi_restore 20
.LVL108:
	lw	s5,84(sp)
	.cfi_restore 21
.LVL109:
	lw	s6,80(sp)
	.cfi_restore 22
.LVL110:
	lw	s7,76(sp)
	.cfi_restore 23
	lw	s8,72(sp)
	.cfi_restore 24
	lw	s9,68(sp)
	.cfi_restore 25
	lw	s10,64(sp)
	.cfi_restore 26
.LVL111:
	lw	s11,60(sp)
	.cfi_restore 27
.LVL112:
	.loc 1 275 16
	mv	a0,s3
	.loc 1 388 1
	lw	s3,92(sp)
	.cfi_restore 19
.LVL113:
	.loc 1 275 16
	li	a1,1
	.loc 1 388 1
	addi	sp,sp,112
	.cfi_def_cfa_offset 0
.LVL114:
	.loc 1 275 16
	tail	mbedtls_mpi_lset
.LVL115:
.L70:
	.cfi_restore_state
	.loc 1 245 23
	mv	a0,s10
	call	mpi_reg_size_to_words
.LVL116:
	.loc 1 278 16
	mv	a1,a0
	.loc 1 245 23
	mv	s9,a0
	.loc 1 278 5 is_stmt 1
	.loc 1 278 16 is_stmt 0
	mv	a0,s3
	call	mbedtls_mpi_grow
.LVL117:
	mv	a5,a0
.LVL118:
	.loc 1 278 8
	bne	a0,zero,.L64
	.loc 1 282 5 is_stmt 1
	.loc 1 282 40 is_stmt 0
	slli	s0,s9,2
.LVL119:
	.loc 1 282 16
	mv	a1,s0
	li	a0,1
.LVL120:
	call	mbedtls_calloc
.LVL121:
	mv	s1,a0
.LVL122:
	.loc 1 283 16
	li	a5,-16
	.loc 1 282 8
	beq	a0,zero,.L64
	.loc 1 246 28
	mv	a0,s5
	call	mpi_words_to_reg_size
.LVL123:
	mv	s7,a0
	.loc 1 247 25
	call	mpi_reg_size_to_words
.LVL124:
	mv	s5,a0
.LVL125:
	.loc 1 286 5 is_stmt 1
	call	Sec_Eng_PKA_Reset
.LVL126:
	.loc 1 287 5
	call	Sec_Eng_PKA_BigEndian_Enable
.LVL127:
	.loc 1 289 5
	addi	a0,sp,36
.LVL128:
	call	mbedtls_mpi_init
.LVL129:
	.loc 1 291 5
	.loc 1 291 8 is_stmt 0
	beq	s6,zero,.L71
	.loc 1 291 20 discriminator 1
	lw	a5,8(s6)
	bne	a5,zero,.L72
.L71:
	.loc 1 292 9 is_stmt 1
	.loc 1 292 14
	.loc 1 292 27 is_stmt 0
	slli	a2,s5,5
	mv	a1,s4
	addi	a0,sp,36
.LVL130:
	call	mpi_hensel_quad_mod_inv_prime_n
.LVL131:
	mv	a5,a0
	.loc 1 292 16
	bne	a0,zero,.L73
	.loc 1 292 120 is_stmt 1 discriminator 2
	.loc 1 293 9 discriminator 2
	.loc 1 293 12 is_stmt 0 discriminator 2
	bne	s6,zero,.L74
.L75:
	.loc 1 252 18
	addi	s6,sp,36
.LVL132:
.L72:
	.loc 1 300 5 is_stmt 1
	.loc 1 300 10
	.loc 1 300 64 is_stmt 0
	slli	s8,s5,2
	.loc 1 300 23
	mv	a2,s8
	mv	a1,s1
	mv	a0,s4
	call	mbedtls_mpi_write_binary
.LVL133:
	mv	a5,a0
	.loc 1 300 12
	bne	a0,zero,.L73
	.loc 1 300 100 is_stmt 1 discriminator 2
	.loc 1 301 5 discriminator 2
	slli	a5,s5,16
	srli	a5,a5,16
	mv	a3,a5
	li	a4,1
	mv	a2,s1
	li	a1,0
	mv	a0,s7
.LVL134:
	sw	a5,24(sp)
	call	Sec_Eng_PKA_Write_Data
.LVL135:
	.loc 1 302 5 discriminator 2
	.loc 1 302 10 discriminator 2
	.loc 1 302 23 is_stmt 0 discriminator 2
	mv	a2,s0
	mv	a1,s1
	mv	a0,s11
	call	mbedtls_mpi_write_binary
.LVL136:
	mv	a5,a0
	.loc 1 302 12 discriminator 2
	bne	a0,zero,.L73
	.loc 1 302 98 is_stmt 1 discriminator 2
	.loc 1 303 5 discriminator 2
	slli	a3,s9,16
	li	a4,1
	srli	a3,a3,16
	mv	a2,s1
	li	a1,2
	mv	a0,s10
.LVL137:
	call	Sec_Eng_PKA_Write_Data
.LVL138:
	.loc 1 304 5 discriminator 2
	.loc 1 250 28 is_stmt 0 discriminator 2
	slli	a0,s9,1
	call	mpi_words_to_reg_size
.LVL139:
	.loc 1 304 5 discriminator 2
	andi	s0,s7,0xff
	andi	a5,a0,0xff
	mv	a7,s0
	li	a6,2
	slli	a4,s5,5
	li	a3,2
	andi	a2,s10,0xff
	li	a1,3
	mv	a0,s0
	sw	zero,0(sp)
	call	Sec_Eng_PKA_GF2Mont
.LVL140:
	.loc 1 306 5 is_stmt 1 discriminator 2
	.loc 1 306 10 discriminator 2
	.loc 1 306 23 is_stmt 0 discriminator 2
	mv	a2,s8
	mv	a1,s1
	mv	a0,s6
	call	mbedtls_mpi_write_binary
.LVL141:
	mv	a5,a0
	.loc 1 306 12 discriminator 2
	bne	a0,zero,.L73
	.loc 1 306 105 is_stmt 1 discriminator 2
	.loc 1 307 5 discriminator 2
	slli	a3,s5,16
	li	a4,1
	srli	a3,a3,16
	mv	a2,s1
	li	a1,1
	mv	a0,s7
.LVL142:
	call	Sec_Eng_PKA_Write_Data
.LVL143:
	.loc 1 309 5 discriminator 2
	.loc 1 310 5 discriminator 2
	.loc 1 310 24 is_stmt 0 discriminator 2
	lw	a4,16(sp)
	li	a5,79
	bgt	a4,a5,.L98
	.loc 1 310 37 discriminator 1
	li	a5,23
	bgt	a4,a5,.L99
	.loc 1 248 28
	lw	a0,20(sp)
	call	mpi_words_to_reg_size
.LVL144:
	mv	s6,a0
.LVL145:
	.loc 1 249 25
	call	mpi_reg_size_to_words
.LVL146:
	.loc 1 324 27
	slli	a2,a0,2
	.loc 1 249 25
	mv	s9,a0
.LVL147:
	.loc 1 311 5 is_stmt 1
	.loc 1 323 9
	.loc 1 324 9
	.loc 1 324 14
	.loc 1 324 27 is_stmt 0
	mv	a1,s1
	mv	a0,s2
	call	mbedtls_mpi_write_binary
.LVL148:
	mv	a5,a0
	.loc 1 324 16
	bne	a0,zero,.L73
	.loc 1 324 104 is_stmt 1 discriminator 2
	.loc 1 325 9 discriminator 2
	.loc 1 323 34 is_stmt 0 discriminator 2
	add	a5,s8,s9
	.loc 1 323 44 discriminator 2
	addi	a5,a5,-1
	.loc 1 323 19 discriminator 2
	div	a5,a5,s9
	.loc 1 325 9 discriminator 2
	slli	a3,s9,16
	li	a4,1
	srli	a3,a3,16
	mv	a2,s1
	mv	a0,s6
.LVL149:
	andi	a5,a5,0xff
	mv	a1,a5
	sw	a5,16(sp)
.LVL150:
	call	Sec_Eng_PKA_Write_Data
.LVL151:
	.loc 1 327 9 is_stmt 1 discriminator 2
	lw	a5,16(sp)
	li	a4,1
	sw	a4,0(sp)
	li	a7,0
	mv	a6,s0
	andi	a4,s6,0xff
	li	a3,3
	mv	a2,s0
	li	a1,2
	mv	a0,s0
	call	Sec_Eng_PKA_MEXP
.LVL152:
	.loc 1 328 9 discriminator 2
.L80:
	.loc 1 369 5
	mv	a2,s8
	li	a1,0
	mv	a0,s1
	call	memset
.LVL153:
	.loc 1 370 5
	.loc 1 371 5 is_stmt 0
	lw	a3,24(sp)
	.loc 1 370 26
	add	a5,s1,s8
	li	s6,1
	sb	s6,-1(a5)
	.loc 1 371 5 is_stmt 1
	li	a4,1
	mv	a2,s1
	li	a1,3
	mv	a0,s7
	call	Sec_Eng_PKA_Write_Data
.LVL154:
	.loc 1 372 5
	li	a5,3
	li	a7,0
	mv	a6,s0
	mv	a4,s0
	li	a3,2
	mv	a2,s0
	li	a1,4
	mv	a0,s0
	sw	s6,0(sp)
	call	Sec_Eng_PKA_MMUL
.LVL155:
	.loc 1 373 5
	andi	a3,s5,0xff
	mv	a2,s1
	li	a1,4
	mv	a0,s7
	call	Sec_Eng_PKA_Read_Data
.LVL156:
	.loc 1 374 5
	.loc 1 374 10
	.loc 1 374 23 is_stmt 0
	mv	a2,s8
	mv	a1,s1
	mv	a0,s3
	call	mbedtls_mpi_read_binary
.LVL157:
	mv	a5,a0
	.loc 1 374 12
	bne	a0,zero,.L73
	.loc 1 374 99 is_stmt 1 discriminator 2
	.loc 1 377 5 discriminator 2
	.loc 1 377 8 is_stmt 0 discriminator 2
	lw	a3,0(s11)
	li	a4,-1
	bne	a3,a4,.L94
	.loc 1 377 28 discriminator 1
	lw	a4,8(s2)
	.loc 1 377 32 discriminator 1
	lw	a4,0(a4)
	andi	a4,a4,1
	.loc 1 377 20 discriminator 1
	beq	a4,zero,.L94
	.loc 1 378 9 is_stmt 1
	.loc 1 378 14 is_stmt 0
	sw	a3,0(s3)
	.loc 1 379 9 is_stmt 1
	.loc 1 379 14
	.loc 1 379 27 is_stmt 0
	mv	a2,s3
	mv	a1,s4
	mv	a0,s3
.LVL158:
	call	mbedtls_mpi_add_mpi
.LVL159:
	mv	a5,a0
	j	.L73
.LVL160:
.L74:
	.loc 1 294 13 is_stmt 1
	.loc 1 294 18
	.loc 1 294 31 is_stmt 0
	addi	a1,sp,36
.LVL161:
	mv	a0,s6
.LVL162:
	call	mbedtls_mpi_copy
.LVL163:
	mv	a5,a0
	.loc 1 294 20
	beq	a0,zero,.L75
.LVL164:
.L73:
	.loc 1 385 5
	mv	a0,s1
.LVL165:
	sw	a5,16(sp)
	.loc 1 385 5 is_stmt 1
	call	mbedtls_free
.LVL166:
	.loc 1 386 5
	addi	a0,sp,36
	call	mbedtls_mpi_free
.LVL167:
	.loc 1 387 5
	.loc 1 387 12 is_stmt 0
	lw	a5,16(sp)
	j	.L64
.LVL168:
.L82:
.LBB14:
	.loc 1 337 13 is_stmt 1
	.loc 1 338 13
	.loc 1 339 13
	.loc 1 339 27 is_stmt 0
	addi	s10,s6,1
	mv	a5,s10
	ble	s10,s9,.L86
	mv	s10,s9
	.loc 1 342 19 is_stmt 1
.LVL169:
.L86:
	.loc 1 343 17
	.loc 1 343 21 is_stmt 0
	sub	a1,a5,s10
	mv	a0,s2
	sw	a5,20(sp)
	call	mbedtls_mpi_get_bit
.LVL170:
	.loc 1 343 20
	bne	a0,zero,.L85
	.loc 1 345 17 is_stmt 1
	.loc 1 345 30 is_stmt 0
	addi	s10,s10,-1
.LVL171:
	.loc 1 342 19 is_stmt 1
	lw	a5,20(sp)
	bne	s10,zero,.L86
.L85:
.LBE14:
.LBB16:
	.loc 1 315 13 is_stmt 0 discriminator 1
	li	a5,0
	li	a7,0
.LVL172:
.L87:
.LBE16:
.LBB17:
	.loc 1 347 25 is_stmt 1 discriminator 1
	.loc 1 347 13 is_stmt 0 discriminator 1
	bne	a7,s10,.L90
	.loc 1 356 13 is_stmt 1
	.loc 1 356 33 is_stmt 0
	addi	a5,a5,-1
.LVL173:
	.loc 1 357 16
	lw	a4,16(sp)
	.loc 1 356 38
	srai	a5,a5,1
.LVL174:
	.loc 1 356 15
	addi	a5,a5,4
.LVL175:
	.loc 1 357 13 is_stmt 1
	andi	a5,a5,0xff
.LVL176:
	.loc 1 357 16 is_stmt 0
	beq	a4,zero,.L91
	.loc 1 358 17 is_stmt 1
	li	a4,1
	mv	a3,a5
	mv	a2,s0
	li	a1,2
	mv	a0,s0
	call	Sec_Eng_PKA_Move_Data
.LVL177:
	.loc 1 359 17
.L92:
	.loc 1 364 13
	.loc 1 364 23 is_stmt 0
	sub	s6,s6,s10
.LVL178:
	sw	zero,16(sp)
	j	.L81
.LVL179:
.L90:
.LBB15:
	.loc 1 348 31
	sub	a1,s6,a7
	mv	a0,s2
	sw	a7,20(sp)
	sw	a5,28(sp)
.LVL180:
	.loc 1 348 17 is_stmt 1
	.loc 1 348 31 is_stmt 0
	call	mbedtls_mpi_get_bit
.LVL181:
	.loc 1 349 20
	lw	a7,20(sp)
	.loc 1 348 31
	mv	t3,a0
.LVL182:
	.loc 1 349 17 is_stmt 1
	.loc 1 349 20 is_stmt 0
	beq	a7,zero,.L88
	.loc 1 352 21 is_stmt 1
	.loc 1 352 52 is_stmt 0
	lw	a5,28(sp)
	slli	a5,a5,1
	.loc 1 352 35
	add	t3,a0,a5
.LVL183:
.L88:
	.loc 1 353 17 is_stmt 1
	.loc 1 353 20 is_stmt 0
	lw	a5,16(sp)
	bne	a5,zero,.L89
	.loc 1 354 21
	li	a6,1
	mv	a4,s0
	li	a3,2
	mv	a2,s0
	li	a1,2
	mv	a0,s0
	sw	t3,28(sp)
	sw	a7,20(sp)
	.loc 1 354 21 is_stmt 1
	call	Sec_Eng_PKA_MSQR
.LVL184:
	lw	t3,28(sp)
	lw	a7,20(sp)
.LVL185:
.L89:
.LBE15:
	.loc 1 347 44 discriminator 2
	addi	a7,a7,1
.LVL186:
	mv	a5,t3
	j	.L87
.LVL187:
.L91:
	.loc 1 361 17
	li	a4,1
	sw	a4,0(sp)
	li	a7,0
	mv	a6,s0
	mv	a4,s0
	li	a3,2
	mv	a2,s0
	li	a1,2
	mv	a0,s0
	call	Sec_Eng_PKA_MMUL
.LVL188:
	j	.L92
.LVL189:
.L94:
.LBE17:
	.loc 1 381 9
	.loc 1 381 14 is_stmt 0
	li	a4,1
	sw	a4,0(s3)
	j	.L73
.LVL190:
.L96:
	.loc 1 264 16
	li	a5,-14
	j	.L64
.LVL191:
.L98:
	.loc 1 310 24
	li	s9,4
.L76:
.LVL192:
	.loc 1 311 5 is_stmt 1
	.loc 1 311 8 is_stmt 0
	li	a5,32
	ble	s5,a5,.L95
	.loc 1 312 15
	li	s9,3
.LVL193:
.L95:
.LBB18:
	.loc 1 315 9 is_stmt 1
	.loc 1 316 9
	li	a4,1
	li	a3,3
	mv	a2,s0
	li	a1,4
	mv	a0,s0
	call	Sec_Eng_PKA_Move_Data
.LVL194:
	.loc 1 317 9
	li	a5,0
	li	a6,1
	mv	a4,s0
	li	a3,3
	mv	a2,s0
	li	a1,3
	mv	a0,s0
	call	Sec_Eng_PKA_MSQR
.LVL195:
	.loc 1 319 9
	.loc 1 320 9
	.loc 1 320 21
	.loc 1 319 26 is_stmt 0
	addi	a5,s9,-1
	.loc 1 319 16
	li	s6,1
.LVL196:
	sll	s6,s6,a5
	addi	s6,s6,4
	.loc 1 315 13
	li	s10,5
.LVL197:
	.loc 1 321 13
	li	t1,1
.LVL198:
.L78:
	.loc 1 321 13 is_stmt 1 discriminator 3
	andi	a1,s10,0xff
	addi	a3,a1,-1
	sw	t1,0(sp)
	li	a7,0
	mv	a6,s0
	li	a5,3
	mv	a4,s0
	andi	a3,a3,0xff
	mv	a2,s0
	mv	a0,s0
	call	Sec_Eng_PKA_MMUL
.LVL199:
	.loc 1 320 28 discriminator 3
	.loc 1 320 33 is_stmt 0 discriminator 3
	addi	s10,s10,1
.LVL200:
	.loc 1 320 21 is_stmt 1 discriminator 3
	.loc 1 320 9 is_stmt 0 discriminator 3
	li	t1,1
	bne	s6,s10,.L78
.LBE18:
	.loc 1 331 5 is_stmt 1
	.loc 1 331 15 is_stmt 0
	lw	a5,16(sp)
	addi	s6,a5,-1
.LVL201:
	.loc 1 332 5 is_stmt 1
	.loc 1 256 9 is_stmt 0
	li	a5,1
	sw	a5,16(sp)
.LVL202:
.L81:
	.loc 1 332 11 is_stmt 1
	blt	s6,zero,.L80
	.loc 1 333 9
	.loc 1 333 13 is_stmt 0
	mv	a1,s6
	mv	a0,s2
	call	mbedtls_mpi_get_bit
.LVL203:
	.loc 1 333 12
	bne	a0,zero,.L82
	.loc 1 334 13 is_stmt 1
	li	a6,1
	li	a5,0
	mv	a4,s0
	li	a3,2
	mv	a2,s0
	li	a1,2
	mv	a0,s0
	call	Sec_Eng_PKA_MSQR
.LVL204:
	.loc 1 335 13
	.loc 1 335 22 is_stmt 0
	addi	s6,s6,-1
.LVL205:
	j	.L81
.LVL206:
.L99:
	.loc 1 310 37
	li	s9,3
	j	.L76
	.cfi_endproc
.LFE17:
	.size	bl_sec_mpi_exp_mod_wo_lock, .-bl_sec_mpi_exp_mod_wo_lock
	.section	.text.bl_sec_mpi_exp_mod,"ax",@progbits
	.align	1
	.globl	bl_sec_mpi_exp_mod
	.type	bl_sec_mpi_exp_mod, @function
bl_sec_mpi_exp_mod:
.LFB18:
	.loc 1 391 1 is_stmt 1
	.cfi_startproc
.LVL207:
	.loc 1 392 5
	.loc 1 393 5
	.loc 1 391 1 is_stmt 0
	addi	sp,sp,-32
	.cfi_def_cfa_offset 32
	sw	s0,24(sp)
	sw	ra,28(sp)
	.cfi_offset 8, -8
	.cfi_offset 1, -4
	.loc 1 391 1
	mv	s0,a0
	sw	a1,12(sp)
	sw	a2,8(sp)
	sw	a3,4(sp)
	sw	a4,0(sp)
	.loc 1 393 9
	call	bl_sec_pka_mutex_take
.LVL208:
	.loc 1 393 8
	bne	a0,zero,.L129
	.loc 1 395 5 is_stmt 1
	.loc 1 395 11 is_stmt 0
	lw	a4,0(sp)
	lw	a3,4(sp)
	lw	a2,8(sp)
	lw	a1,12(sp)
	mv	a0,s0
	call	bl_sec_mpi_exp_mod_wo_lock
.LVL209:
	mv	s0,a0
.LVL210:
	.loc 1 396 5 is_stmt 1
	.loc 1 396 9 is_stmt 0
	call	bl_sec_pka_mutex_give
.LVL211:
	.loc 1 396 8
	beq	a0,zero,.L128
.LVL212:
.L129:
	.loc 1 397 9 is_stmt 1
	.loc 1 397 16 is_stmt 0
	li	s0,-1
.L128:
	.loc 1 399 1
	lw	ra,28(sp)
	.cfi_restore 1
	mv	a0,s0
	lw	s0,24(sp)
	.cfi_restore 8
	addi	sp,sp,32
	.cfi_def_cfa_offset 0
.LVL213:
	jr	ra
	.cfi_endproc
.LFE18:
	.size	bl_sec_mpi_exp_mod, .-bl_sec_mpi_exp_mod
	.section	.bss.pka_mutex_buf,"aw",@nobits
	.align	2
	.set	.LANCHOR0,. + 0
	.type	pka_mutex_buf, @object
	.size	pka_mutex_buf, 80
pka_mutex_buf:
	.zero	80
	.section	.sbss.pka_mutex,"aw",@nobits
	.align	2
	.set	.LANCHOR1,. + 0
	.type	pka_mutex, @object
	.size	pka_mutex, 4
pka_mutex:
	.zero	4
	.text
.Letext0:
	.file 2 "/mnt/d/GitHub/bl_iot_sdk_for_aithinker/toolchain/riscv/Linux/lib/gcc/riscv64-unknown-elf/10.2.0/include/stddef.h"
	.file 3 "/mnt/d/GitHub/bl_iot_sdk_for_aithinker/toolchain/riscv/Linux/lib/gcc/riscv64-unknown-elf/10.2.0/include/stdint-gcc.h"
	.file 4 "/mnt/d/GitHub/bl_iot_sdk_for_aithinker/components/platform/soc/bl602/freertos_riscv_ram/portable/GCC/RISC-V/portmacro.h"
	.file 5 "/mnt/d/GitHub/bl_iot_sdk_for_aithinker/components/platform/soc/bl602/freertos_riscv_ram/config/FreeRTOS.h"
	.file 6 "/mnt/d/GitHub/bl_iot_sdk_for_aithinker/components/platform/soc/bl602/freertos_riscv_ram/config/queue.h"
	.file 7 "/mnt/d/GitHub/bl_iot_sdk_for_aithinker/components/platform/soc/bl602/freertos_riscv_ram/config/semphr.h"
	.file 8 "/mnt/d/GitHub/bl_iot_sdk_for_aithinker/components/security/mbedtls_lts/mbedtls/include/mbedtls/bignum.h"
	.file 9 "/mnt/d/GitHub/bl_iot_sdk_for_aithinker/components/platform/soc/bl602/bl602_std/bl602_std/StdDriver/Inc/bl602_glb.h"
	.file 10 "/mnt/d/GitHub/bl_iot_sdk_for_aithinker/components/platform/soc/bl602/bl602_std/bl602_std/StdDriver/Inc/bl602_sec_eng.h"
	.file 11 "/mnt/d/GitHub/bl_iot_sdk_for_aithinker/components/security/mbedtls_lts/mbedtls/include/mbedtls/platform.h"
	.file 12 "/mnt/d/GitHub/bl_iot_sdk_for_aithinker/toolchain/riscv/Linux/riscv64-unknown-elf/include/string.h"