	.file	"bl_sys_cli.c"
	.option nopic
	.attribute arch, "rv32i2p0_m2p0_f2p0_c2p0"
	.attribute unaligned_access, 0
	.attribute stack_align, 16
	.text
.Ltext0:
	.cfi_sections	.debug_frame
	.section	.rodata.clk.str1.4,"aMS",@progbits,1
	.align	2
.LC0:
	.string	"bl_sys_cli.c"
	.align	2
.LC1:
	.string	"\033[32mINFO\033[0m"
	.align	2
.LC2:
	.string	"%s (%d)[%s:%4d] hdiv:%d, bdiv:%d\r\n\r\n"
	.section	.text.clk,"ax",@progbits
	.align	1
	.type	clk, @function
clk:
.LFB8:
	.file 1 "/mnt/d/GitHub/bl_iot_sdk_for_aithinker/components/platform/hosal/bl602_hal/bl_sys_cli.c"
	.loc 1 15 1
	.cfi_startproc
.LVL0:
	.loc 1 16 5
	.loc 1 17 5
	.loc 1 19 69 is_stmt 0
	lui	a5,%hi(_fsymc_level_hosal)
	.loc 1 19 51
	lw	a4,%lo(_fsymc_level_hosal)(a5)
	.loc 1 15 1
	addi	sp,sp,-16
	.cfi_def_cfa_offset 16
	sw	ra,12(sp)
	sw	s0,8(sp)
	sw	s1,4(sp)
	.cfi_offset 1, -4
	.cfi_offset 8, -8
	.cfi_offset 9, -12
	.loc 1 19 51
	li	a5,2
	.loc 1 17 9
	lw	s0,0(a0)
.LVL1:
	.loc 1 18 5 is_stmt 1
	.loc 1 18 9 is_stmt 0
	lw	s1,4(a0)
.LVL2:
	.loc 1 19 5 is_stmt 1
	.loc 1 19 43
	.loc 1 19 48
	.loc 1 19 51 is_stmt 0
	bgtu	a4,a5,.L2
	.loc 1 19 112 discriminator 3
	lui	a4,%hi(_fsymf_level_hosalbl_sys_cli)
	.loc 1 19 92 discriminator 3
	lw	a4,%lo(_fsymf_level_hosalbl_sys_cli)(a4)
	bgtu	a4,a5,.L2
	.loc 1 19 148 is_stmt 1 discriminator 5
	.loc 1 19 232 is_stmt 0 discriminator 5
	call	xPortIsInsideInterrupt
.LVL3:
	.loc 1 19 148 discriminator 5
	beq	a0,zero,.L3
	.loc 1 19 261 discriminator 7
	call	xTaskGetTickCountFromISR
.LVL4:
.L6:
	.loc 1 19 292 discriminator 8
	mv	a2,a0
	.loc 1 19 148 discriminator 8
	lui	a3,%hi(.LC0)
	lui	a1,%hi(.LC1)
	lui	a0,%hi(.LC2)
	mv	a6,s1
	mv	a5,s0
	li	a4,19
	addi	a3,a3,%lo(.LC0)
	addi	a1,a1,%lo(.LC1)
	addi	a0,a0,%lo(.LC2)
	call	bl_printk
.LVL5:
.L2:
	.loc 1 19 357 is_stmt 1 discriminator 11
	.loc 1 19 368 discriminator 11
	.loc 1 21 5 discriminator 11
	call	vTaskEnterCritical
.LVL6:
	.loc 1 22 5 discriminator 11
.LBB6:
.LBB7:
	.file 2 "/mnt/d/GitHub/bl_iot_sdk_for_aithinker/components/platform/soc/bl602/bl602_std/bl602_std/RISCV/Core/Include/cmsis_compatible_gcc.h"
	.loc 2 94 3 discriminator 11
 #APP
# 94 "/mnt/d/GitHub/bl_iot_sdk_for_aithinker/components/platform/soc/bl602/bl602_std/bl602_std/RISCV/Core/Include/cmsis_compatible_gcc.h" 1
	csrci mstatus, 8
# 0 "" 2
 #NO_APP
.LBE7:
.LBE6:
	.loc 1 23 5 discriminator 11
	andi	a1,s1,0xff
	andi	a0,s0,0xff
	call	GLB_Set_System_CLK_Div
.LVL7:
	.loc 1 24 5 discriminator 11
.LBB8:
.LBB9:
	.loc 2 89 3 discriminator 11
 #APP
# 89 "/mnt/d/GitHub/bl_iot_sdk_for_aithinker/components/platform/soc/bl602/bl602_std/bl602_std/RISCV/Core/Include/cmsis_compatible_gcc.h" 1
	csrsi mstatus, 8
# 0 "" 2
 #NO_APP
.LBE9:
.LBE8:
	.loc 1 25 5 discriminator 11
	call	vTaskExitCritical
.LVL8:
	.loc 1 26 5 discriminator 11
	.loc 1 27 1 is_stmt 0 discriminator 11
	lw	s0,8(sp)
	.cfi_remember_state
	.cfi_restore 8
.LVL9:
	lw	ra,12(sp)
	.cfi_restore 1
	lw	s1,4(sp)
	.cfi_restore 9
.LVL10:
	.loc 1 26 5 discriminator 11
	li	a0,0
	.loc 1 27 1 discriminator 11
	addi	sp,sp,16
	.cfi_def_cfa_offset 0
	.loc 1 26 5 discriminator 11
	tail	vTaskDelete
.LVL11:
.L3:
	.cfi_restore_state
	.loc 1 19 292 discriminator 8
	call	xTaskGetTickCount
.LVL12:
	j	.L6
	.cfi_endproc
.LFE8:
	.size	clk, .-clk
	.section	.rodata.cmd_clk_change.str1.4,"aMS",@progbits,1
	.align	2
.LC3:
	.string	"\033[31mERROR\033[0m"
	.align	2
.LC4:
	.string	"%s (%d)[%s:%4d] please input para!\r\n\r\n"
	.align	2
.LC5:
	.string	"clk"
	.section	.text.cmd_clk_change,"ax",@progbits
	.align	1
	.type	cmd_clk_change, @function
cmd_clk_change:
.LFB9:
	.loc 1 30 1 is_stmt 1
	.cfi_startproc
.LVL13:
	.loc 1 31 5
	.loc 1 32 5
	.loc 1 30 1 is_stmt 0
	addi	sp,sp,-32
	.cfi_def_cfa_offset 32
	sw	ra,28(sp)
	sw	s0,24(sp)
	.cfi_offset 1, -4
	.cfi_offset 8, -8
	.loc 1 32 8
	li	a5,3
	beq	a2,a5,.L8
.LVL14:
.LBB12:
.LBB13:
	.loc 1 33 9 is_stmt 1
	.loc 1 33 47
	.loc 1 33 52
	.loc 1 33 74 is_stmt 0
	lui	a5,%hi(_fsymc_level_hosal)
	.loc 1 33 55
	lw	a4,%lo(_fsymc_level_hosal)(a5)
	li	a5,4
	bgtu	a4,a5,.L7
	.loc 1 33 118
	lui	a4,%hi(_fsymf_level_hosalbl_sys_cli)
	.loc 1 33 97
	lw	a4,%lo(_fsymf_level_hosalbl_sys_cli)(a4)
	bgtu	a4,a5,.L7
	.loc 1 33 154 is_stmt 1
	.loc 1 33 241 is_stmt 0
	call	xPortIsInsideInterrupt
.LVL15:
	.loc 1 33 154
	beq	a0,zero,.L10
	.loc 1 33 270
	call	xTaskGetTickCountFromISR
.LVL16:
.L13:
.LBE13:
.LBE12:
	.loc 1 40 1
	lw	s0,24(sp)
	.cfi_remember_state
	.cfi_restore 8
	lw	ra,28(sp)
	.cfi_restore 1
.LBB17:
.LBB14:
	.loc 1 33 301
	mv	a2,a0
	.loc 1 33 154
	lui	a3,%hi(.LC0)
	lui	a1,%hi(.LC3)
	lui	a0,%hi(.LC4)
.LBE14:
.LBE17:
	.loc 1 40 1
.LBB18:
.LBB15:
	.loc 1 33 154
	li	a4,33
	addi	a3,a3,%lo(.LC0)
	addi	a1,a1,%lo(.LC3)
	addi	a0,a0,%lo(.LC4)
.LBE15:
.LBE18:
	.loc 1 40 1
	addi	sp,sp,32
	.cfi_def_cfa_offset 0
.LBB19:
.LBB16:
	.loc 1 33 154
	tail	bl_printk
.LVL17:
.L10:
	.cfi_restore_state
	.loc 1 33 301
	call	xTaskGetTickCount
.LVL18:
	j	.L13
.LVL19:
.L8:
.LBE16:
.LBE19:
	.loc 1 36 24
	lw	a0,4(a3)
.LVL20:
	mv	s0,a3
	.loc 1 36 9 is_stmt 1
	.loc 1 36 24 is_stmt 0
	call	atoi
.LVL21:
	.loc 1 36 22
	sw	a0,8(sp)
	.loc 1 37 9 is_stmt 1
	.loc 1 37 24 is_stmt 0
	lw	a0,8(s0)
	call	atoi
.LVL22:
	.loc 1 37 22
	sw	a0,12(sp)
	.loc 1 38 9 is_stmt 1
	lui	a1,%hi(.LC5)
	lui	a0,%hi(clk)
	li	a5,0
	li	a4,20
	addi	a3,sp,8
	li	a2,512
	addi	a1,a1,%lo(.LC5)
	addi	a0,a0,%lo(clk)
	call	xTaskCreate
.LVL23:
.L7:
	.loc 1 40 1 is_stmt 0
	lw	ra,28(sp)
	.cfi_restore 1
	lw	s0,24(sp)
	.cfi_restore 8
	addi	sp,sp,32
	.cfi_def_cfa_offset 0
	jr	ra
	.cfi_endproc
.LFE9:
	.size	cmd_clk_change, .-cmd_clk_change
	.section	.text.bl_sys_cli_init,"ax",@progbits
	.align	1
	.globl	bl_sys_cli_init
	.type	bl_sys_cli_init, @function
bl_sys_cli_init:
.LFB10:
	.loc 1 47 1 is_stmt 1
	.cfi_startproc
	.loc 1 52 5
	.loc 1 53 1 is_stmt 0
	li	a0,0
	ret
	.cfi_endproc
.LFE10:
	.size	bl_sys_cli_init, .-bl_sys_cli_init
	.section	.rodata.str1.4,"aMS",@progbits,1
	.align	2
.LC6:
	.string	"change hdiv and bdiv"
	.globl	_fsymf_info_hosalbl_sys_cli
	.align	2
.LC7:
	.string	"hosal.bl_sys_cli"
	.comm	_fsymf_level_hosalbl_sys_cli,4,4
	.align	2
.LC8:
	.string	"hosal"
	.weak	_fsymc_level_hosal
	.section	.sbss._fsymc_level_hosal,"aw",@nobits
	.align	2
	.type	_fsymc_level_hosal, @object
	.size	_fsymc_level_hosal, 4
_fsymc_level_hosal:
	.zero	4
	.section	.srodata.BLOG_HARD_DECLARE_DISABLE,"a"
	.align	2
	.type	BLOG_HARD_DECLARE_DISABLE, @object
	.size	BLOG_HARD_DECLARE_DISABLE, 4
BLOG_HARD_DECLARE_DISABLE:
	.zero	4
	.section	.static_blogcomponent_code.hosal,"a"
	.align	2
	.type	_fsymc_info_hosal, @object
	.size	_fsymc_info_hosal, 8
_fsymc_info_hosal:
	.word	_fsymc_level_hosal
	.word	.LC8
	.section	.static_blogfile_code.hosalbl_sys_cli,"a"
	.align	2
	.type	_fsymf_info_hosalbl_sys_cli, @object
	.size	_fsymf_info_hosalbl_sys_cli, 8
_fsymf_info_hosalbl_sys_cli:
	.word	_fsymf_level_hosalbl_sys_cli
	.word	.LC7
	.section	.static_cli_cmds,"a"
	.align	2
	.type	cmds_user, @object
	.size	cmds_user, 12
cmds_user:
	.word	.LC5
	.word	.LC6
	.word	cmd_clk_change
	.text
.Letext0:
	.file 3 "/mnt/d/GitHub/bl_iot_sdk_for_aithinker/toolchain/riscv/Linux/riscv64-unknown-elf/include/machine/_default_types.h"
	.file 4 "/mnt/d/GitHub/bl_iot_sdk_for_aithinker/toolchain/riscv/Linux/riscv64-unknown-elf/include/sys/_stdint.h"
	.file 5 "/mnt/d/GitHub/bl_iot_sdk_for_aithinker/components/stage/cli/cli/include/cli.h"
	.file 6 "/mnt/d/GitHub/bl_iot_sdk_for_aithinker/components/stage/blog/blog_type.h"
	.file 7 "/mnt/d/GitHub/bl_iot_sdk_for_aithinker/components/stage/blog/blog.h"
	.file 8 "/mnt/d/GitHub/bl_iot_sdk_for_aithinker/components/platform/soc/bl602/freertos_riscv_ram/portable/GCC/RISC-V/portmacro.h"
	.file 9 "/mnt/d/GitHub/bl_iot_sdk_for_aithinker/components/platform/soc/bl602/freertos_riscv_ram/config/task.h"
	.file 10 "/mnt/d/GitHub/bl_iot_sdk_for_aithinker/components/utils/include/utils_log.h"
	.file 11 "/mnt/d/GitHub/bl_iot_sdk_for_aithinker/components/platform/soc/bl602/bl602_std/bl602_std/StdDriver/Inc/bl602_glb.h"
	.file 12 "/mnt/d/GitHub/bl_iot_sdk_for_aithinker/toolchain/riscv/Linux/riscv64-unknown-elf/include/stdlib.h"