	.file	"bl_sec.c"
	.option nopic
	.attribute arch, "rv32i2p0_m2p0_f2p0_c2p0"
	.attribute unaligned_access, 0
	.attribute stack_align, 16
	.text
.Ltext0:
	.cfi_sections	.debug_frame
	.section	.text._trng_trigger,"ax",@progbits
	.align	1
	.type	_trng_trigger, @function
_trng_trigger:
.LFB8:
	.file 1 "/mnt/d/GitHub/bl_iot_sdk_for_aithinker/components/platform/hosal/bl602_hal/bl_sec.c"
	.loc 1 28 1
	.cfi_startproc
	.loc 1 29 5
.LVL0:
	.loc 1 30 5
	.loc 1 32 5
	.loc 1 32 9 is_stmt 0
	li	a5,1073758208
	lw	a4,512(a5)
.LVL1:
	.loc 1 33 5 is_stmt 1
	.loc 1 33 17 is_stmt 0
	andi	a3,a4,1
	.loc 1 33 8
	bne	a3,zero,.L1
	.loc 1 36 5 is_stmt 1
	.loc 1 36 56 is_stmt 0
	lui	a3,%hi(.LANCHOR0)
	addi	a3,a3,%lo(.LANCHOR0)
	lw	a2,0(a3)
	.loc 1 41 9
	ori	a4,a4,1542
.LVL2:
	.loc 1 36 43
	sw	a2,556(a5)
	.loc 1 37 5 is_stmt 1
	.loc 1 37 56 is_stmt 0
	lw	a3,4(a3)
	.loc 1 37 43
	sw	a3,560(a5)
	.loc 1 38 5 is_stmt 1
	.loc 1 39 5
	.loc 1 40 5
	.loc 1 41 5
.LVL3:
	.loc 1 43 5
	.loc 1 43 42 is_stmt 0
	sw	a4,512(a5)
.L1:
	.loc 1 44 1
	ret
	.cfi_endproc
.LFE8:
	.size	_trng_trigger, .-_trng_trigger
	.section	.rodata.wait_trng4feed.str1.4,"aMS",@progbits,1
	.align	2
.LC0:
	.string	"bl_sec.c"
	.align	2
.LC1:
	.string	"DEBUG"
	.align	2
.LC2:
	.string	"%s (%d)[%s:%4d] Feed random number is %08lx\r\n\r\n"
	.section	.text.wait_trng4feed,"ax",@progbits
	.align	1
	.type	wait_trng4feed, @function
wait_trng4feed:
.LFB9:
	.loc 1 47 1 is_stmt 1
	.cfi_startproc
	.loc 1 48 5
.LVL4:
	.loc 1 49 5
	.loc 1 51 5
	.loc 1 47 1 is_stmt 0
	addi	sp,sp,-16
	.cfi_def_cfa_offset 16
	sw	ra,12(sp)
	sw	s0,8(sp)
	.cfi_offset 1, -4
	.cfi_offset 8, -8
	.loc 1 51 9
	li	a5,1073758208
	lw	a5,512(a5)
.LVL5:
	.loc 1 53 5 is_stmt 1
	.loc 1 55 13 is_stmt 0
	li	a3,1073758208
.L4:
	.loc 1 53 11 is_stmt 1
	.loc 1 53 20 is_stmt 0
	andi	a4,a5,1
	.loc 1 53 11
	bne	a4,zero,.L5
	.loc 1 58 5 is_stmt 1
.LVL6:
	.loc 1 59 5
	andi	a5,a5,-3
.LVL7:
	.loc 1 59 9 is_stmt 0
	ori	a5,a5,512
.LVL8:
	.loc 1 60 5 is_stmt 1
	.loc 1 60 42 is_stmt 0
	li	a4,1073758208
	sw	a5,512(a4)
	.loc 1 62 5 is_stmt 1
	.loc 1 62 43
	.loc 1 62 48
	.loc 1 62 70 is_stmt 0
	lui	a5,%hi(_fsymc_level_hosal)
.LVL9:
	.loc 1 62 51
	lw	a4,%lo(_fsymc_level_hosal)(a5)
	lui	s0,%hi(.LANCHOR0)
	li	a5,1
	addi	s0,s0,%lo(.LANCHOR0)
	bgtu	a4,a5,.L6
	.loc 1 62 114 discriminator 3
	lui	a4,%hi(_fsymf_level_hosalbl_sec)
	.loc 1 62 93 discriminator 3
	lw	a4,%lo(_fsymf_level_hosalbl_sec)(a4)
	bgtu	a4,a5,.L6
	.loc 1 62 146 is_stmt 1 discriminator 5
	.loc 1 62 227 is_stmt 0 discriminator 5
	call	xPortIsInsideInterrupt
.LVL10:
	.loc 1 62 146 discriminator 5
	beq	a0,zero,.L7
	.loc 1 62 256 discriminator 7
	call	xTaskGetTickCountFromISR
.LVL11:
.L10:
	.loc 1 62 146 discriminator 8
	lw	a5,0(s0)
	.loc 1 62 287 discriminator 8
	mv	a2,a0
	.loc 1 62 146 discriminator 8
	lui	a3,%hi(.LC0)
	lui	a1,%hi(.LC1)
	lui	a0,%hi(.LC2)
	li	a4,62
	addi	a3,a3,%lo(.LC0)
	addi	a1,a1,%lo(.LC1)
	addi	a0,a0,%lo(.LC2)
	call	bl_printk
.LVL12:
.L6:
	.loc 1 62 352 is_stmt 1 discriminator 11
	.loc 1 62 363 discriminator 11
	.loc 1 63 5 discriminator 11
	.loc 1 63 23 is_stmt 0 discriminator 11
	li	a5,1073758208
	addi	a5,a5,512
	lw	a4,8(a5)
	.loc 1 71 1 discriminator 11
	lw	ra,12(sp)
	.cfi_remember_state
	.cfi_restore 1
	.loc 1 63 20 discriminator 11
	sw	a4,0(s0)
	.loc 1 64 5 is_stmt 1 discriminator 11
	.loc 1 64 23 is_stmt 0 discriminator 11
	lw	a4,12(a5)
	.loc 1 64 20 discriminator 11
	sw	a4,4(s0)
	.loc 1 65 5 is_stmt 1 discriminator 11
	.loc 1 65 23 is_stmt 0 discriminator 11
	lw	a4,16(a5)
	.loc 1 65 20 discriminator 11
	sw	a4,8(s0)
	.loc 1 66 5 is_stmt 1 discriminator 11
	.loc 1 66 23 is_stmt 0 discriminator 11
	lw	a4,20(a5)
	.loc 1 66 20 discriminator 11
	sw	a4,12(s0)
	.loc 1 67 5 is_stmt 1 discriminator 11
	.loc 1 67 23 is_stmt 0 discriminator 11
	lw	a4,24(a5)
	.loc 1 67 20 discriminator 11
	sw	a4,16(s0)
	.loc 1 68 5 is_stmt 1 discriminator 11
	.loc 1 68 23 is_stmt 0 discriminator 11
	lw	a4,28(a5)
	.loc 1 68 20 discriminator 11
	sw	a4,20(s0)
	.loc 1 69 5 is_stmt 1 discriminator 11
	.loc 1 69 23 is_stmt 0 discriminator 11
	lw	a4,32(a5)
	.loc 1 69 20 discriminator 11
	sw	a4,24(s0)
	.loc 1 70 5 is_stmt 1 discriminator 11
	.loc 1 70 23 is_stmt 0 discriminator 11
	lw	a5,36(a5)
	.loc 1 70 20 discriminator 11
	sw	a5,28(s0)
	.loc 1 71 1 discriminator 11
	lw	s0,8(sp)
	.cfi_restore 8
	addi	sp,sp,16
	.cfi_def_cfa_offset 0
	jr	ra
.LVL13:
.L5:
	.cfi_restore_state
	.loc 1 55 9 is_stmt 1
	.loc 1 55 13 is_stmt 0
	lw	a5,512(a3)
.LVL14:
	j	.L4
.LVL15:
.L7:
	.loc 1 62 287 discriminator 8
	call	xTaskGetTickCount
.LVL16:
	j	.L10
	.cfi_endproc
.LFE9:
	.size	wait_trng4feed, .-wait_trng4feed
	.section	.rodata.sec_trng_IRQHandler.str1.4,"aMS",@progbits,1
	.align	2
.LC3:
	.string	"[BL] [SEC] TRNG Handler\r\n"
	.align	2
.LC4:
	.string	"%s (%d)[%s:%4d] random number is %08lx\r\n\r\n"
	.section	.text.sec_trng_IRQHandler,"ax",@progbits
	.align	1
	.globl	sec_trng_IRQHandler
	.type	sec_trng_IRQHandler, @function
sec_trng_IRQHandler:
.LFB13:
	.loc 1 129 1 is_stmt 1
	.cfi_startproc
	.loc 1 130 5
.LVL17:
	.loc 1 131 5
	.loc 1 133 5
	.loc 1 129 1 is_stmt 0
	addi	sp,sp,-16
	.cfi_def_cfa_offset 16
	sw	ra,12(sp)
	sw	s0,8(sp)
	.cfi_offset 1, -4
	.cfi_offset 8, -8
	.loc 1 133 9
	call	aos_now_ms
.LVL18:
	.loc 1 133 8
	bgt	a1,zero,.L12
	bne	a1,zero,.L17
	li	a5,1999
	bgtu	a0,a5,.L12
.L17:
	.loc 1 135 9 is_stmt 1
	lui	a0,%hi(.LC3)
	addi	a0,a0,%lo(.LC3)
	call	puts
.LVL19:
.L12:
	.loc 1 137 5
	.loc 1 137 9 is_stmt 0
	li	a4,1073758208
	lw	a5,512(a4)
.LVL20:
	.loc 1 138 5 is_stmt 1
	.loc 1 139 5
	lui	s0,%hi(.LANCHOR0)
	addi	s0,s0,%lo(.LANCHOR0)
	andi	a5,a5,-3
.LVL21:
	.loc 1 139 9 is_stmt 0
	ori	a5,a5,512
.LVL22:
	.loc 1 140 5 is_stmt 1
	.loc 1 140 42 is_stmt 0
	sw	a5,512(a4)
	.loc 1 142 5 is_stmt 1
	.loc 1 142 43
	.loc 1 142 48
	.loc 1 142 70 is_stmt 0
	lui	a5,%hi(_fsymc_level_hosal)
.LVL23:
	.loc 1 142 51
	lw	a4,%lo(_fsymc_level_hosal)(a5)
.LVL24:
	li	a5,1
	bgtu	a4,a5,.L14
	.loc 1 142 114 discriminator 3
	lui	a4,%hi(_fsymf_level_hosalbl_sec)
	.loc 1 142 93 discriminator 3
	lw	a4,%lo(_fsymf_level_hosalbl_sec)(a4)
	bgtu	a4,a5,.L14
	.loc 1 142 146 is_stmt 1 discriminator 5
	.loc 1 142 222 is_stmt 0 discriminator 5
	call	xPortIsInsideInterrupt
.LVL25:
	.loc 1 142 146 discriminator 5
	beq	a0,zero,.L15
	.loc 1 142 251 discriminator 7
	call	xTaskGetTickCountFromISR
.LVL26:
.L19:
	.loc 1 142 146 discriminator 8
	lw	a5,0(s0)
	.loc 1 142 282 discriminator 8
	mv	a2,a0
	.loc 1 142 146 discriminator 8
	lui	a3,%hi(.LC0)
	lui	a1,%hi(.LC1)
	lui	a0,%hi(.LC4)
	li	a4,142
	addi	a3,a3,%lo(.LC0)
	addi	a1,a1,%lo(.LC1)
	addi	a0,a0,%lo(.LC4)
	call	bl_printk
.LVL27:
.L14:
	.loc 1 142 348 is_stmt 1 discriminator 11
	.loc 1 142 359 discriminator 11
	.loc 1 143 5 discriminator 11
	.loc 1 143 23 is_stmt 0 discriminator 11
	li	a5,1073758208
	addi	a5,a5,512
	lw	a4,8(a5)
	.loc 1 151 1 discriminator 11
	lw	ra,12(sp)
	.cfi_remember_state
	.cfi_restore 1
	.loc 1 143 20 discriminator 11
	sw	a4,0(s0)
	.loc 1 144 5 is_stmt 1 discriminator 11
	.loc 1 144 23 is_stmt 0 discriminator 11
	lw	a4,12(a5)
	.loc 1 144 20 discriminator 11
	sw	a4,4(s0)
	.loc 1 145 5 is_stmt 1 discriminator 11
	.loc 1 145 23 is_stmt 0 discriminator 11
	lw	a4,16(a5)
	.loc 1 145 20 discriminator 11
	sw	a4,8(s0)
	.loc 1 146 5 is_stmt 1 discriminator 11
	.loc 1 146 23 is_stmt 0 discriminator 11
	lw	a4,20(a5)
	.loc 1 146 20 discriminator 11
	sw	a4,12(s0)
	.loc 1 147 5 is_stmt 1 discriminator 11
	.loc 1 147 23 is_stmt 0 discriminator 11
	lw	a4,24(a5)
	.loc 1 147 20 discriminator 11
	sw	a4,16(s0)
	.loc 1 148 5 is_stmt 1 discriminator 11
	.loc 1 148 23 is_stmt 0 discriminator 11
	lw	a4,28(a5)
	.loc 1 148 20 discriminator 11
	sw	a4,20(s0)
	.loc 1 149 5 is_stmt 1 discriminator 11
	.loc 1 149 23 is_stmt 0 discriminator 11
	lw	a4,32(a5)
	.loc 1 149 20 discriminator 11
	sw	a4,24(s0)
	.loc 1 150 5 is_stmt 1 discriminator 11
	.loc 1 150 23 is_stmt 0 discriminator 11
	lw	a5,36(a5)
	.loc 1 150 20 discriminator 11
	sw	a5,28(s0)
	.loc 1 151 1 discriminator 11
	lw	s0,8(sp)
	.cfi_restore 8
	addi	sp,sp,16
	.cfi_def_cfa_offset 0
	jr	ra
.L15:
	.cfi_restore_state
	.loc 1 142 282 discriminator 8
	call	xTaskGetTickCount
.LVL28:
	j	.L19
	.cfi_endproc
.LFE13:
	.size	sec_trng_IRQHandler, .-sec_trng_IRQHandler
	.section	.rodata.bl_sec_pka_IRQHandler.str1.4,"aMS",@progbits,1
	.align	2
.LC5:
	.string	"--->>> PKA IRQ\r\n"
	.section	.text.bl_sec_pka_IRQHandler,"ax",@progbits
	.align	1
	.globl	bl_sec_pka_IRQHandler
	.type	bl_sec_pka_IRQHandler, @function
bl_sec_pka_IRQHandler:
.LFB23:
	.loc 1 752 1 is_stmt 1
	.cfi_startproc
	.loc 1 753 5
	lui	a0,%hi(.LC5)
	.loc 1 752 1 is_stmt 0
	addi	sp,sp,-16
	.cfi_def_cfa_offset 16
	.loc 1 753 5
	addi	a0,a0,%lo(.LC5)
	.loc 1 752 1
	sw	ra,12(sp)
	.cfi_offset 1, -4
	.loc 1 753 5
	call	puts
.LVL29:
	.loc 1 754 5 is_stmt 1
	.loc 1 755 1 is_stmt 0
	lw	ra,12(sp)
	.cfi_restore 1
	.loc 1 754 5
	li	a1,1
	.loc 1 755 1
	.loc 1 754 5
	li	a0,3
	.loc 1 755 1
	addi	sp,sp,16
	.cfi_def_cfa_offset 0
	.loc 1 754 5
	tail	SEC_Eng_IntMask
.LVL30:
	.cfi_endproc
.LFE23:
	.size	bl_sec_pka_IRQHandler, .-bl_sec_pka_IRQHandler
	.section	.text.bl_sec_get_random_word,"ax",@progbits
	.align	1
	.globl	bl_sec_get_random_word
	.type	bl_sec_get_random_word, @function
bl_sec_get_random_word:
.LFB10:
	.loc 1 74 1 is_stmt 1
	.cfi_startproc
	.loc 1 75 5
	.loc 1 74 1 is_stmt 0
	addi	sp,sp,-16
	.cfi_def_cfa_offset 16
	.loc 1 75 26
	lui	a5,%hi(.LANCHOR1)
	.loc 1 74 1
	sw	s0,8(sp)
	.cfi_offset 8, -8
	.loc 1 75 26
	lw	s0,%lo(.LANCHOR1)(a5)
	.loc 1 74 1
	sw	s1,4(sp)
	sw	ra,12(sp)
	.cfi_offset 9, -12
	.cfi_offset 1, -4
	.loc 1 75 26
	andi	s0,s0,7
	.loc 1 76 5 is_stmt 1
	addi	s1,a5,%lo(.LANCHOR1)
	.loc 1 76 8 is_stmt 0
	bne	s0,zero,.L23
	.loc 1 77 9 is_stmt 1
	call	_trng_trigger
.LVL31:
.L23:
	.loc 1 79 5
	.loc 1 79 32 is_stmt 0
	addi	a5,s0,1
	sw	a5,0(s1)
	.loc 1 79 23
	lui	a5,%hi(.LANCHOR0)
	slli	s0,s0,2
	addi	a5,a5,%lo(.LANCHOR0)
	add	s0,a5,s0
	.loc 1 80 1
	lw	a0,0(s0)
	lw	ra,12(sp)
	.cfi_restore 1
	lw	s0,8(sp)
	.cfi_restore 8
	lw	s1,4(sp)
	.cfi_restore 9
	addi	sp,sp,16
	.cfi_def_cfa_offset 0
	jr	ra
	.cfi_endproc
.LFE10:
	.size	bl_sec_get_random_word, .-bl_sec_get_random_word
	.section	.text.bl_rand_stream,"ax",@progbits
	.align	1
	.globl	bl_rand_stream
	.type	bl_rand_stream, @function
bl_rand_stream:
.LFB11:
	.loc 1 83 1 is_stmt 1
	.cfi_startproc
.LVL32:
	.loc 1 84 5
	.loc 1 86 5
	.loc 1 87 5
	.loc 1 83 1 is_stmt 0
	addi	sp,sp,-48
	.cfi_def_cfa_offset 48
	sw	s0,40(sp)
	.cfi_offset 8, -8
	.loc 1 87 9
	lui	s0,%hi(.LANCHOR1)
	.loc 1 87 8
	lw	a5,%lo(.LANCHOR1)(s0)
	.loc 1 83 1
	sw	s1,36(sp)
	sw	s4,24(sp)
	sw	ra,44(sp)
	sw	s2,32(sp)
	sw	s3,28(sp)
	sw	s5,20(sp)
	sw	s6,16(sp)
	sw	s7,12(sp)
	.cfi_offset 9, -12
	.cfi_offset 20, -24
	.cfi_offset 1, -4
	.cfi_offset 18, -16
	.cfi_offset 19, -20
	.cfi_offset 21, -28
	.cfi_offset 22, -32
	.cfi_offset 23, -36
	.loc 1 83 1
	mv	s4,a0
	mv	s1,a1
	addi	s0,s0,%lo(.LANCHOR1)
	.loc 1 87 8
	beq	a5,zero,.L26
	.loc 1 89 9 is_stmt 1
	call	_trng_trigger
.LVL33:
	.loc 1 90 9
	call	wait_trng4feed
.LVL34:
	.loc 1 91 9
	.loc 1 91 18 is_stmt 0
	sw	zero,0(s0)
.L26:
	.loc 1 83 1
	li	s3,0
	.loc 1 101 18
	li	s5,32
	.loc 1 102 9
	lui	s6,%hi(.LANCHOR0)
	.loc 1 105 18
	li	s7,31
.LVL35:
.L27:
	.loc 1 94 11 is_stmt 1
	bgt	s1,zero,.L30
	.loc 1 107 5
	call	_trng_trigger
.LVL36:
	.loc 1 108 5
	call	wait_trng4feed
.LVL37:
	.loc 1 109 5
	.loc 1 110 1 is_stmt 0
	lw	ra,44(sp)
	.cfi_remember_state
	.cfi_restore 1
	.loc 1 109 14
	sw	zero,0(s0)
	.loc 1 110 1
	lw	s0,40(sp)
	.cfi_restore 8
	lw	s1,36(sp)
	.cfi_restore 9
.LVL38:
	lw	s2,32(sp)
	.cfi_restore 18
	lw	s3,28(sp)
	.cfi_restore 19
.LVL39:
	lw	s4,24(sp)
	.cfi_restore 20
.LVL40:
	lw	s5,20(sp)
	.cfi_restore 21
	lw	s6,16(sp)
	.cfi_restore 22
	lw	s7,12(sp)
	.cfi_restore 23
	addi	sp,sp,48
	.cfi_def_cfa_offset 0
	jr	ra
.LVL41:
.L30:
	.cfi_restore_state
	.loc 1 95 9 is_stmt 1
	.loc 1 95 12 is_stmt 0
	lw	a5,0(s0)
	beq	a5,zero,.L28
	.loc 1 97 13 is_stmt 1
	call	_trng_trigger
.LVL42:
	.loc 1 98 13
	call	wait_trng4feed
.LVL43:
	.loc 1 99 13
	.loc 1 99 22 is_stmt 0
	sw	zero,0(s0)
.L28:
	.loc 1 101 9 is_stmt 1
	.loc 1 101 18 is_stmt 0
	mv	s2,s1
	ble	s1,s5,.L29
	li	s2,32
.L29:
.LVL44:
	.loc 1 102 9 is_stmt 1
	add	a0,s4,s3
	mv	a2,s2
	addi	a1,s6,%lo(.LANCHOR0)
	call	memcpy
.LVL45:
	.loc 1 103 9
	.loc 1 103 13 is_stmt 0
	add	s3,s3,s2
.LVL46:
	.loc 1 104 9 is_stmt 1
	.loc 1 104 13 is_stmt 0
	sub	s1,s1,s2
.LVL47:
	.loc 1 105 9 is_stmt 1
	.loc 1 105 18 is_stmt 0
	sw	s7,0(s0)
	j	.L27
	.cfi_endproc
.LFE11:
	.size	bl_rand_stream, .-bl_rand_stream
	.section	.rodata.bl_rand.str1.4,"aMS",@progbits,1
	.align	2
.LC6:
	.string	"[BL] [SEC] Failed after loop (17)\r\n"
	.section	.text.bl_rand,"ax",@progbits
	.align	1
	.globl	bl_rand
	.type	bl_rand, @function
bl_rand:
.LFB12:
	.loc 1 113 1 is_stmt 1
	.cfi_startproc
	.loc 1 114 5
	.loc 1 115 5
.LVL48:
	.loc 1 113 1 is_stmt 0
	addi	sp,sp,-16
	.cfi_def_cfa_offset 16
	sw	s1,4(sp)
	sw	ra,12(sp)
	sw	s0,8(sp)
	.cfi_offset 9, -12
	.cfi_offset 1, -4
	.cfi_offset 8, -8
	.loc 1 113 1
	li	s1,19
.LVL49:
.L41:
	.loc 1 117 5 is_stmt 1
	.loc 1 118 9
	.loc 1 118 15 is_stmt 0
	call	bl_sec_get_random_word
.LVL50:
	.loc 1 119 12
	addi	s1,s1,-1
.LVL51:
	.loc 1 118 15
	mv	s0,a0
.LVL52:
	.loc 1 119 9 is_stmt 1
	.loc 1 119 12 is_stmt 0
	bne	s1,zero,.L39
	.loc 1 120 13 is_stmt 1
	lui	a0,%hi(.LC6)
	addi	a0,a0,%lo(.LC6)
	call	puts
.LVL53:
	.loc 1 121 13
.L40:
	.loc 1 124 5
	.loc 1 125 5
	.loc 1 126 1 is_stmt 0
	lw	ra,12(sp)
	.cfi_remember_state
	.cfi_restore 1
	srli	a0,s0,1
.LVL54:
	lw	s0,8(sp)
	.cfi_restore 8
	lw	s1,4(sp)
	.cfi_restore 9
	addi	sp,sp,16
	.cfi_def_cfa_offset 0
	jr	ra
.LVL55:
.L39:
	.cfi_restore_state
	.loc 1 123 13 is_stmt 1
	.loc 1 123 5 is_stmt 0
	beq	a0,zero,.L41
	j	.L40
	.cfi_endproc
.LFE12:
	.size	bl_rand, .-bl_rand
	.section	.text.bl_sec_init,"ax",@progbits
	.align	1
	.globl	bl_sec_init
	.type	bl_sec_init, @function
bl_sec_init:
.LFB14:
	.loc 1 154 1 is_stmt 1
	.cfi_startproc
	.loc 1 155 5
	.loc 1 154 1 is_stmt 0
	addi	sp,sp,-16
	.cfi_def_cfa_offset 16
	sw	s0,8(sp)
	.cfi_offset 8, -8
	.loc 1 155 9
	lui	s0,%hi(.LANCHOR2)
	addi	s0,s0,%lo(.LANCHOR2)
	.loc 1 155 8
	lw	a5,0(s0)
	.loc 1 154 1
	sw	ra,12(sp)
	.cfi_offset 1, -4
	.loc 1 155 8
	bne	a5,zero,.L46
	.loc 1 158 5 is_stmt 1
	.loc 1 158 26 is_stmt 0
	lui	a1,%hi(.LANCHOR3)
	addi	a1,a1,%lo(.LANCHOR3)
	li	a0,1
	call	xQueueCreateMutexStatic
.LVL56:
	.loc 1 158 24
	sw	a0,0(s0)
	.loc 1 159 5 is_stmt 1
	call	bl_sec_pka_init
.LVL57:
	.loc 1 160 5
	call	_trng_trigger
.LVL58:
	.loc 1 161 5
	call	wait_trng4feed
.LVL59:
	.loc 1 163 5
	call	_trng_trigger
.LVL60:
	.loc 1 164 5
	call	wait_trng4feed
.LVL61:
	.loc 1 165 5
	lui	a1,%hi(sec_trng_IRQHandler)
	li	a0,28
	addi	a1,a1,%lo(sec_trng_IRQHandler)
	call	bl_irq_register
.LVL62:
	.loc 1 166 5
	li	a0,28
	call	bl_irq_enable
.LVL63:
	.loc 1 168 5
.L46:
	.loc 1 169 1 is_stmt 0
	lw	ra,12(sp)
	.cfi_restore 1
	lw	s0,8(sp)
	.cfi_restore 8
	li	a0,0
	addi	sp,sp,16
	.cfi_def_cfa_offset 0
	jr	ra
	.cfi_endproc
.LFE14:
	.size	bl_sec_init, .-bl_sec_init
	.section	.text.bl_exp_mod,"ax",@progbits
	.align	1
	.globl	bl_exp_mod
	.type	bl_exp_mod, @function
bl_exp_mod:
.LFB15:
	.loc 1 172 1 is_stmt 1
	.cfi_startproc
.LVL64:
	.loc 1 173 5
	.loc 1 174 1 is_stmt 0
	li	a0,0
.LVL65:
	ret
	.cfi_endproc
.LFE15:
	.size	bl_exp_mod, .-bl_exp_mod
	.section	.rodata.bl_sec_test.str1.4,"aMS",@progbits,1
	.align	2
.LC7:
	.string	"------------------TRNG TEST---------------------------------\r\n"
	.align	2
.LC8:
	.string	"**********TRNG TEST rand[%08x]**************\r\n"
	.align	2
.LC9:
	.string	"------------------------------------------------------------\r\n"
	.section	.text.bl_sec_test,"ax",@progbits
	.align	1
	.globl	bl_sec_test
	.type	bl_sec_test, @function
bl_sec_test:
.LFB16:
	.loc 1 177 1 is_stmt 1
	.cfi_startproc
	.loc 1 178 5
	lui	a0,%hi(.LC7)
	.loc 1 177 1 is_stmt 0
	addi	sp,sp,-16
	.cfi_def_cfa_offset 16
	.loc 1 178 5
	addi	a0,a0,%lo(.LC7)
	.loc 1 177 1
	sw	ra,12(sp)
	sw	s0,8(sp)
	.cfi_offset 1, -4
	.cfi_offset 8, -8
	.loc 1 178 5
	call	bl_printk
.LVL66:
	.loc 1 179 5 is_stmt 1
	call	bl_rand
.LVL67:
	lui	s0,%hi(.LC8)
	mv	a1,a0
	addi	a0,s0,%lo(.LC8)
	call	bl_printk
.LVL68:
	.loc 1 180 5
	call	bl_rand
.LVL69:
	mv	a1,a0
	addi	a0,s0,%lo(.LC8)
	call	bl_printk
.LVL70:
	.loc 1 181 5
	lui	a0,%hi(.LC9)
	addi	a0,a0,%lo(.LC9)
	call	bl_printk
.LVL71:
	.loc 1 183 5
	.loc 1 184 1 is_stmt 0
	lw	ra,12(sp)
	.cfi_restore 1
	lw	s0,8(sp)
	.cfi_restore 8
	li	a0,0
	addi	sp,sp,16
	.cfi_def_cfa_offset 0
	jr	ra
	.cfi_endproc
.LFE16:
	.size	bl_sec_test, .-bl_sec_test
	.section	.rodata._dump_rsa_data.str1.4,"aMS",@progbits,1
	.align	2
.LC10:
	.string	"[%04X]:"
	.align	2
.LC11:
	.string	" %02X"
	.align	2
.LC12:
	.string	"\r\n"
	.section	.text._dump_rsa_data,"ax",@progbits
	.align	1
	.globl	_dump_rsa_data
	.type	_dump_rsa_data, @function
_dump_rsa_data:
.LFB17:
	.loc 1 187 1 is_stmt 1
	.cfi_startproc
.LVL72:
	.loc 1 188 5
	.loc 1 190 5
	.loc 1 187 1 is_stmt 0
	addi	sp,sp,-32
	.cfi_def_cfa_offset 32
	sw	s0,24(sp)
	sw	s1,20(sp)
	sw	s2,16(sp)
	sw	s3,12(sp)
	sw	s4,8(sp)
	sw	s5,4(sp)
	sw	s6,0(sp)
	sw	ra,28(sp)
	.cfi_offset 8, -8
	.cfi_offset 9, -12
	.cfi_offset 18, -16
	.cfi_offset 19, -20
	.cfi_offset 20, -24
	.cfi_offset 21, -28
	.cfi_offset 22, -32
	.cfi_offset 1, -4
	.loc 1 187 1
	mv	s2,a1
	mv	s0,a0
	.loc 1 190 12
	li	s1,0
	lui	s3,%hi(.LC11)
	.loc 1 194 17
	lui	s4,%hi(.LC10)
	.loc 1 191 9
	li	s5,15
	.loc 1 201 17
	lui	s6,%hi(.LC12)
.LVL73:
.L52:
	.loc 1 190 17 is_stmt 1 discriminator 1
	.loc 1 190 5 is_stmt 0 discriminator 1
	blt	s1,s2,.L57
	.loc 1 210 1
	lw	ra,28(sp)
	.cfi_remember_state
	.cfi_restore 1
	lw	s0,24(sp)
	.cfi_restore 8
	lw	s1,20(sp)
	.cfi_restore 9
.LVL74:
	lw	s2,16(sp)
	.cfi_restore 18
.LVL75:
	lw	s3,12(sp)
	.cfi_restore 19
	lw	s4,8(sp)
	.cfi_restore 20
	lw	s5,4(sp)
	.cfi_restore 21
	lw	s6,0(sp)
	.cfi_restore 22
	addi	sp,sp,32
	.cfi_def_cfa_offset 0
	jr	ra
.LVL76:
.L57:
	.cfi_restore_state
	.loc 1 191 9 is_stmt 1
	.loc 1 191 19 is_stmt 0
	andi	a5,s1,15
	.loc 1 191 9
	beq	a5,zero,.L53
	beq	a5,s5,.L54
.L58:
	.loc 1 206 17 is_stmt 1
	lbu	a1,0(s0)
	addi	a0,s3,%lo(.LC11)
	call	bl_printk
.LVL77:
	j	.L56
.L53:
	.loc 1 194 17
	mv	a1,s1
	addi	a0,s4,%lo(.LC10)
	call	bl_printk
.LVL78:
	.loc 1 195 17
	j	.L58
.L54:
	.loc 1 200 17
	lbu	a1,0(s0)
	addi	a0,s3,%lo(.LC11)
	call	bl_printk
.LVL79:
	.loc 1 201 17
	addi	a0,s6,%lo(.LC12)
	call	puts
.LVL80:
	.loc 1 203 13
.L56:
	.loc 1 190 27 discriminator 2
	.loc 1 190 28 is_stmt 0 discriminator 2
	addi	s1,s1,1
.LVL81:
	addi	s0,s0,1
	j	.L52
	.cfi_endproc
.LFE17:
	.size	_dump_rsa_data, .-_dump_rsa_data
	.section	.text._pka_test_case_xgcd,"ax",@progbits
	.align	1
	.type	_pka_test_case_xgcd, @function
_pka_test_case_xgcd:
.LFB21:
	.loc 1 461 1 is_stmt 1
	.cfi_startproc
	.loc 1 462 5
.LVL82:
	.loc 1 463 5
	.loc 1 519 5
	.loc 1 537 5
	.loc 1 555 5
	.loc 1 556 5
	.loc 1 461 1 is_stmt 0
	addi	sp,sp,-288
	.cfi_def_cfa_offset 288
	sw	ra,284(sp)
	sw	s0,280(sp)
	sw	s1,276(sp)
	.cfi_offset 1, -4
	.cfi_offset 8, -8
	.cfi_offset 9, -12
	.loc 1 556 13
	sb	zero,15(sp)
	.loc 1 559 5 is_stmt 1
	.loc 1 560 5
	call	Sec_Eng_PKA_Reset
.LVL83:
	.loc 1 561 5
	call	Sec_Eng_PKA_BigEndian_Enable
.LVL84:
	.loc 1 563 5
	lui	a2,%hi(.LANCHOR4)
	li	a4,0
	li	a3,64
	addi	a2,a2,%lo(.LANCHOR4)
	li	a1,1
	li	a0,8
	call	Sec_Eng_PKA_Write_Data
.LVL85:
	.loc 1 564 5
	li	a3,0
	li	a2,0
	li	a1,2
	li	a0,8
	call	Sec_Eng_PKA_CREG
.LVL86:
	.loc 1 565 5
	li	a3,1
	li	a2,0
	li	a1,3
	li	a0,8
	call	Sec_Eng_PKA_CREG
.LVL87:
	.loc 1 566 5
	lui	s0,%hi(.LANCHOR5)
	li	a4,0
	li	a3,64
	addi	a2,s0,%lo(.LANCHOR5)
	li	a1,0
	li	a0,8
	call	Sec_Eng_PKA_Write_Data
.LVL88:
	.loc 1 569 5
	li	a4,4096
	li	a5,0
	addi	a4,a4,-2048
	li	a3,0
	li	a2,8
	li	a1,1
	li	a0,10
	call	Sec_Eng_PKA_LMUL2N
.LVL89:
	.loc 1 575 5
	li	a6,0
	li	a5,1
	li	a4,8
	li	a3,1
	li	a2,10
	li	a1,0
	li	a0,8
	call	Sec_Eng_PKA_LDIV
.LVL90:
	.loc 1 581 5
	li	a6,0
	li	a5,1
	li	a4,8
	li	a3,1
	li	a2,10
	li	a1,4
	li	a0,8
	call	Sec_Eng_PKA_MREM
.LVL91:
	.loc 1 587 5
	li	a3,1
	li	a2,0
	li	a1,1
	li	a0,10
	call	Sec_Eng_PKA_CREG
.LVL92:
	.loc 1 588 5
	li	a4,0
	li	a3,1
	li	a2,8
	li	a1,2
	li	a0,8
	call	Sec_Eng_PKA_Move_Data
.LVL93:
	.loc 1 593 5
	li	a4,1
	li	a3,4
	li	a2,8
	li	a1,1
	li	a0,8
	call	Sec_Eng_PKA_Move_Data
.LVL94:
	.loc 1 598 5
	lui	s1,%hi(.LANCHOR6)
	li	a4,0
	li	a3,64
	addi	a2,s1,%lo(.LANCHOR6)
	li	a1,4
	li	a0,8
	call	Sec_Eng_PKA_Write_Data
.LVL95:
	.loc 1 599 5
	li	a4,0
	li	a3,64
	addi	a2,s0,%lo(.LANCHOR5)
	li	a1,5
	li	a0,8
	call	Sec_Eng_PKA_Write_Data
.LVL96:
	.loc 1 600 5
	li	a4,0
	li	a3,64
	addi	a2,s0,%lo(.LANCHOR5)
	li	a1,6
	li	a0,8
	call	Sec_Eng_PKA_Write_Data
.LVL97:
	.loc 1 601 5
	li	a4,0
	li	a3,64
	addi	a2,s1,%lo(.LANCHOR6)
	li	a1,7
	li	a0,8
	call	Sec_Eng_PKA_Write_Data
.LVL98:
	.loc 1 603 5
	li	a6,0
	li	a5,5
	li	a4,8
	li	a3,0
	li	a2,8
	li	a1,8
	li	a0,8
	call	Sec_Eng_PKA_LMUL
.LVL99:
	.loc 1 609 5
	li	a6,0
	li	a5,8
	li	a4,8
	li	a3,4
	li	a2,8
	li	a1,8
	li	a0,8
	call	Sec_Eng_PKA_LSUB
.LVL100:
	.loc 1 615 5
	li	a6,0
	li	a5,7
	li	a4,8
	li	a3,0
	li	a2,8
	li	a1,9
	li	a0,8
	call	Sec_Eng_PKA_LMUL
.LVL101:
	.loc 1 621 5
	li	a6,0
	li	a5,9
	li	a4,8
	li	a3,6
	li	a2,8
	li	a1,9
	li	a0,8
	call	Sec_Eng_PKA_LSUB
.LVL102:
	.loc 1 627 5
	li	a4,0
	li	a3,5
	li	a2,8
	li	a1,4
	li	a0,8
	call	Sec_Eng_PKA_Move_Data
.LVL103:
	.loc 1 632 5
	li	a4,0
	li	a3,8
	li	a2,8
	li	a1,5
	li	a0,8
	call	Sec_Eng_PKA_Move_Data
.LVL104:
	.loc 1 637 5
	li	a4,0
	li	a3,7
	li	a2,8
	li	a1,6
	li	a0,8
	call	Sec_Eng_PKA_Move_Data
.LVL105:
	.loc 1 642 5
	li	a4,1
	li	a3,9
	li	a2,8
	li	a1,7
	li	a0,8
	call	Sec_Eng_PKA_Move_Data
.LVL106:
	.loc 1 652 5
.L61:
	.loc 1 652 11
	lbu	a5,15(sp)
	beq	a5,zero,.L62
	.loc 1 730 5
	addi	a2,sp,16
	li	a3,64
	li	a1,6
	li	a0,8
	call	Sec_Eng_PKA_Read_Data
.LVL107:
	.loc 1 735 5
	addi	a0,sp,16
	li	a1,256
	call	_dump_rsa_data
.LVL108:
	.loc 1 737 1 is_stmt 0
	lw	ra,284(sp)
	.cfi_remember_state
	.cfi_restore 1
	lw	s0,280(sp)
	.cfi_restore 8
	lw	s1,276(sp)
	.cfi_restore 9
	addi	sp,sp,288
	.cfi_def_cfa_offset 0
	jr	ra
.L62:
	.cfi_restore_state
	.loc 1 653 9 is_stmt 1
	li	a6,0
	li	a5,1
	li	a4,8
	li	a3,2
	li	a2,8
	li	a1,0
	li	a0,8
	call	Sec_Eng_PKA_LDIV
.LVL109:
	.loc 1 659 9
	li	a6,0
	li	a5,1
	li	a4,8
	li	a3,2
	li	a2,8
	li	a1,3
	li	a0,8
	call	Sec_Eng_PKA_MREM
.LVL110:
	.loc 1 665 9
	li	a6,0
	li	a5,5
	li	a4,8
	li	a3,0
	li	a2,8
	li	a1,8
	li	a0,8
	call	Sec_Eng_PKA_LMUL
.LVL111:
	.loc 1 671 9
	li	a6,0
	li	a5,8
	li	a4,8
	li	a3,4
	li	a2,8
	li	a1,8
	li	a0,8
	call	Sec_Eng_PKA_LSUB
.LVL112:
	.loc 1 677 9
	li	a6,0
	li	a5,7
	li	a4,8
	li	a3,0
	li	a2,8
	li	a1,9
	li	a0,8
	call	Sec_Eng_PKA_LMUL
.LVL113:
	.loc 1 683 9
	li	a6,0
	li	a5,9
	li	a4,8
	li	a3,6
	li	a2,8
	li	a1,9
	li	a0,8
	call	Sec_Eng_PKA_LSUB
.LVL114:
	.loc 1 689 9
	li	a4,0
	li	a3,1
	li	a2,8
	li	a1,2
	li	a0,8
	call	Sec_Eng_PKA_Move_Data
.LVL115:
	.loc 1 694 9
	li	a4,0
	li	a3,5
	li	a2,8
	li	a1,4
	li	a0,8
	call	Sec_Eng_PKA_Move_Data
.LVL116:
	.loc 1 699 9
	li	a4,0
	li	a3,8
	li	a2,8
	li	a1,5
	li	a0,8
	call	Sec_Eng_PKA_Move_Data
.LVL117:
	.loc 1 704 9
	li	a4,0
	li	a3,7
	li	a2,8
	li	a1,6
	li	a0,8
	call	Sec_Eng_PKA_Move_Data
.LVL118:
	.loc 1 709 9
	li	a4,1
	li	a3,9
	li	a2,8
	li	a1,7
	li	a0,8
	call	Sec_Eng_PKA_Move_Data
.LVL119:
	.loc 1 714 9
	li	a4,1
	li	a3,3
	li	a2,8
	li	a1,1
	li	a0,8
	call	Sec_Eng_PKA_Move_Data
.LVL120:
	.loc 1 719 9
	addi	a2,s0,%lo(.LANCHOR5)
	li	a4,0
	li	a3,64
	li	a1,10
	li	a0,8
	call	Sec_Eng_PKA_Write_Data
.LVL121:
	.loc 1 720 9
	li	a4,10
	li	a3,8
	li	a2,1
	li	a1,8
	addi	a0,sp,15
	call	Sec_Eng_PKA_LCMP
.LVL122:
	j	.L61
	.cfi_endproc
.LFE21:
	.size	_pka_test_case_xgcd, .-_pka_test_case_xgcd
	.section	.rodata._pka_test_case2.str1.4,"aMS",@progbits,1
	.align	2
.LC13:
	.string	"S"
	.align	2
.LC14:
	.string	"F"
	.align	2
.LC15:
	.string	"\033[32mINFO\033[0m"
	.align	2
.LC16:
	.string	"%s (%d)[%s:%4d] %s[%02d], %02x %02x\r\n\r\n"
	.align	2
.LC17:
	.string	"\033[31mERROR\033[0m"
	.align	2
.LC18:
	.string	"%s (%d)[%s:%4d] ====== Failed %lu Bytes======\r\n\r\n"
	.align	2
.LC19:
	.string	"%s (%d)[%s:%4d] ====== Success %lu Bytes=====\r\n\r\n"
	.section	.text._pka_test_case2,"ax",@progbits
	.align	1
	.type	_pka_test_case2, @function
_pka_test_case2:
.LFB19:
	.loc 1 235 1
	.cfi_startproc
	.loc 1 236 5
	.loc 1 254 5
	.loc 1 272 5
	.loc 1 275 5
	.loc 1 293 5
	.loc 1 311 5
	.loc 1 312 5
	.loc 1 331 5
	.loc 1 235 1 is_stmt 0
	addi	sp,sp,-320
	.cfi_def_cfa_offset 320
	sw	ra,316(sp)
	sw	s0,312(sp)
	sw	s1,308(sp)
	sw	s2,304(sp)
	sw	s3,300(sp)
	sw	s4,296(sp)
	sw	s5,292(sp)
	sw	s6,288(sp)
	sw	s7,284(sp)
	sw	s8,280(sp)
	.cfi_offset 1, -4
	.cfi_offset 8, -8
	.cfi_offset 9, -12
	.cfi_offset 18, -16
	.cfi_offset 19, -20
	.cfi_offset 20, -24
	.cfi_offset 21, -28
	.cfi_offset 22, -32
	.cfi_offset 23, -36
	.cfi_offset 24, -40
	.loc 1 331 5
	call	Sec_Eng_PKA_Reset
.LVL123:
	.loc 1 332 5 is_stmt 1
	call	Sec_Eng_PKA_BigEndian_Enable
.LVL124:
	.loc 1 334 5
	lui	a2,%hi(.LANCHOR7)
	li	a4,0
	li	a3,64
	addi	a2,a2,%lo(.LANCHOR7)
	li	a1,0
	li	a0,8
	call	Sec_Eng_PKA_Write_Data
.LVL125:
	.loc 1 335 5
	lui	a2,%hi(.LANCHOR8)
	li	a4,0
	li	a3,64
	addi	a2,a2,%lo(.LANCHOR8)
	li	a1,1
	li	a0,8
	call	Sec_Eng_PKA_Write_Data
.LVL126:
	.loc 1 336 5
	lui	a2,%hi(.LANCHOR9)
	li	a4,0
	li	a3,64
	addi	a2,a2,%lo(.LANCHOR9)
	li	a1,2
	li	a0,8
	call	Sec_Eng_PKA_Write_Data
.LVL127:
	.loc 1 337 5
	lui	a2,%hi(.LANCHOR10)
	li	a4,0
	li	a3,1
	addi	a2,a2,%lo(.LANCHOR10)
	li	a1,3
	li	a0,8
	call	Sec_Eng_PKA_Write_Data
.LVL128:
	.loc 1 339 5
	li	a3,0
	li	a2,0
	li	a1,4
	li	a0,8
	call	Sec_Eng_PKA_CREG
.LVL129:
	.loc 1 340 5
	li	a3,1
	li	a2,0
	li	a1,5
	li	a0,8
	call	Sec_Eng_PKA_CREG
.LVL130:
	.loc 1 341 5
	li	a4,4096
	li	a5,0
	addi	a4,a4,-2048
	li	a3,2
	li	a2,8
	li	a1,2
	li	a0,10
	call	Sec_Eng_PKA_LMUL2N
.LVL131:
	.loc 1 347 5
	li	a6,0
	li	a5,0
	li	a4,8
	li	a3,2
	li	a2,10
	li	a1,2
	li	a0,8
	call	Sec_Eng_PKA_MREM
.LVL132:
	.loc 1 353 5
	li	a3,1
	li	a2,0
	li	a1,2
	li	a0,10
	call	Sec_Eng_PKA_CREG
.LVL133:
	.loc 1 355 5
	li	a5,1
	li	a7,0
	li	a6,8
	sw	a5,0(sp)
	li	a4,8
	li	a5,3
	li	a3,2
	li	a2,8
	li	a1,4
	li	a0,8
	call	Sec_Eng_PKA_MEXP
.LVL134:
	.loc 1 362 5
	li	a4,1
	li	a3,4
	li	a2,8
	li	a1,2
	li	a0,8
	call	Sec_Eng_PKA_Move_Data
.LVL135:
	.loc 1 367 5
	lui	a2,%hi(.LANCHOR11)
	li	a4,0
	li	a3,64
	addi	a2,a2,%lo(.LANCHOR11)
	li	a1,1
	li	a0,8
	call	Sec_Eng_PKA_Write_Data
.LVL136:
	.loc 1 368 5
	li	a3,0
	li	a2,0
	li	a1,4
	li	a0,8
	call	Sec_Eng_PKA_CREG
.LVL137:
	.loc 1 369 5
	li	a3,1
	li	a2,0
	li	a1,5
	li	a0,8
	call	Sec_Eng_PKA_CREG
.LVL138:
	.loc 1 370 5
	li	a6,0
	li	a5,1
	li	a4,8
	li	a3,2
	li	a2,8
	li	a1,2
	li	a0,10
	call	Sec_Eng_PKA_LMUL
.LVL139:
	.loc 1 376 5
	li	a4,8
	li	a6,0
	li	a5,0
	li	a3,2
	li	a2,10
	li	a1,2
	li	a0,8
	call	Sec_Eng_PKA_MREM
.LVL140:
	.loc 1 382 5
	li	a3,1
	li	a2,0
	li	a1,2
	li	a0,10
	call	Sec_Eng_PKA_CREG
.LVL141:
	.loc 1 383 5
	li	a3,64
	addi	a2,sp,16
	li	a1,2
	li	a0,8
	call	Sec_Eng_PKA_Read_Data
.LVL142:
	.loc 1 388 5
	li	a1,256
	addi	a0,sp,16
	call	_dump_rsa_data
.LVL143:
	.loc 1 389 5
	lui	s1,%hi(.LANCHOR12)
.LBB4:
.LBB5:
	.loc 1 219 152 is_stmt 0
	lui	s3,%hi(.LC13)
	lui	s4,%hi(.LC14)
	addi	s0,sp,16
.LVL144:
	addi	s1,s1,%lo(.LANCHOR12)
	.loc 1 214 16
	li	a4,0
	.loc 1 216 12
	li	s2,0
	.loc 1 219 77
	lui	s5,%hi(_fsymc_level_hosal)
	.loc 1 219 120
	lui	s6,%hi(_fsymf_level_hosalbl_sec)
	.loc 1 219 152
	lui	s7,%hi(.LC0)
	lui	s8,%hi(.LC15)
	addi	s3,s3,%lo(.LC13)
	addi	s4,s4,%lo(.LC14)
.LVL145:
.L65:
	.loc 1 216 17 is_stmt 1
	.loc 1 216 5 is_stmt 0
	li	a3,256
	.loc 1 219 77
	lw	a5,%lo(_fsymc_level_hosal)(s5)
	.loc 1 216 5
	bne	s2,a3,.L70
	.loc 1 227 5 is_stmt 1
	.loc 1 227 8 is_stmt 0
	beq	a4,zero,.L71
	.loc 1 228 9 is_stmt 1
	.loc 1 228 47
	.loc 1 228 52
	.loc 1 228 55 is_stmt 0
	li	a4,4
.LVL146:
	bgtu	a5,a4,.L64
	.loc 1 228 118
	lui	a5,%hi(_fsymf_level_hosalbl_sec)
	.loc 1 228 97
	lw	a5,%lo(_fsymf_level_hosalbl_sec)(a5)
	bgtu	a5,a4,.L64
	.loc 1 228 150 is_stmt 1
	.loc 1 228 248 is_stmt 0
	call	xPortIsInsideInterrupt
.LVL147:
	.loc 1 228 150
	beq	a0,zero,.L73
	.loc 1 228 277
	call	xTaskGetTickCountFromISR
.LVL148:
.L82:
	.loc 1 228 308
	mv	a2,a0
	.loc 1 228 150
	lui	a3,%hi(.LC0)
	lui	a1,%hi(.LC17)
	lui	a0,%hi(.LC18)
	li	a5,256
	li	a4,228
	addi	a3,a3,%lo(.LC0)
	addi	a1,a1,%lo(.LC17)
	addi	a0,a0,%lo(.LC18)
.L84:
	.loc 1 230 148
	call	bl_printk
.LVL149:
	.loc 1 230 360 is_stmt 1
	.loc 1 230 371
.L64:
.LBE5:
.LBE4:
	.loc 1 390 1 is_stmt 0
	lw	ra,316(sp)
	.cfi_remember_state
	.cfi_restore 1
	lw	s0,312(sp)
	.cfi_restore 8
	lw	s1,308(sp)
	.cfi_restore 9
	lw	s2,304(sp)
	.cfi_restore 18
	lw	s3,300(sp)
	.cfi_restore 19
	lw	s4,296(sp)
	.cfi_restore 20
	lw	s5,292(sp)
	.cfi_restore 21
	lw	s6,288(sp)
	.cfi_restore 22
	lw	s7,284(sp)
	.cfi_restore 23
	lw	s8,280(sp)
	.cfi_restore 24
	addi	sp,sp,320
	.cfi_def_cfa_offset 0
	jr	ra
.LVL150:
.L70:
	.cfi_restore_state
.LBB7:
.LBB6:
	.loc 1 217 9 is_stmt 1
	.loc 1 217 12 is_stmt 0
	lbu	a2,0(s0)
	lbu	a3,0(s1)
	beq	a2,a3,.L66
	.loc 1 218 13 is_stmt 1
.LVL151:
	.loc 1 219 13
	.loc 1 219 51
	.loc 1 219 56
	.loc 1 219 59 is_stmt 0
	li	a3,2
	.loc 1 218 23
	li	a4,1
	.loc 1 219 59
	bgtu	a5,a3,.L66
	.loc 1 219 100
	lw	a5,%lo(_fsymf_level_hosalbl_sec)(s6)
	bgtu	a5,a3,.L66
	.loc 1 219 152 is_stmt 1
	.loc 1 219 239 is_stmt 0
	call	xPortIsInsideInterrupt
.LVL152:
	.loc 1 219 152
	beq	a0,zero,.L67
	.loc 1 219 268
	call	xTaskGetTickCountFromISR
.LVL153:
.L81:
	.loc 1 219 343
	lbu	a7,0(s0)
	.loc 1 219 357
	lbu	a4,0(s1)
	.loc 1 219 299
	mv	a2,a0
	.loc 1 219 152
	mv	a5,s3
	beq	a7,a4,.L69
	mv	a5,s4
.L69:
	lui	a0,%hi(.LC16)
	sw	a4,0(sp)
	mv	a6,s2
	li	a4,219
	addi	a3,s7,%lo(.LC0)
	addi	a1,s8,%lo(.LC15)
	addi	a0,a0,%lo(.LC16)
	call	bl_printk
.LVL154:
	.loc 1 218 23
	li	a4,1
.LVL155:
.L66:
	.loc 1 219 411 is_stmt 1
	.loc 1 224 14
	.loc 1 216 26
	.loc 1 216 27 is_stmt 0
	addi	s2,s2,1
.LVL156:
	addi	s0,s0,1
	addi	s1,s1,1
	j	.L65
.LVL157:
.L67:
	.loc 1 219 299
	call	xTaskGetTickCount
.LVL158:
	j	.L81
.LVL159:
.L73:
	.loc 1 228 308
	call	xTaskGetTickCount
.LVL160:
	j	.L82
.LVL161:
.L71:
	.loc 1 230 9 is_stmt 1
	.loc 1 230 47
	.loc 1 230 52
	.loc 1 230 55 is_stmt 0
	li	a4,2
.LVL162:
	bgtu	a5,a4,.L64
	.loc 1 230 116
	lui	a5,%hi(_fsymf_level_hosalbl_sec)
	.loc 1 230 96
	lw	a5,%lo(_fsymf_level_hosalbl_sec)(a5)
	bgtu	a5,a4,.L64
	.loc 1 230 148 is_stmt 1
	.loc 1 230 245 is_stmt 0
	call	xPortIsInsideInterrupt
.LVL163:
	.loc 1 230 148
	beq	a0,zero,.L75
	.loc 1 230 274
	call	xTaskGetTickCountFromISR
.LVL164:
.L83:
	.loc 1 230 305
	mv	a2,a0
	.loc 1 230 148
	lui	a3,%hi(.LC0)
	lui	a1,%hi(.LC15)
	lui	a0,%hi(.LC19)
	li	a5,256
	li	a4,230
	addi	a3,a3,%lo(.LC0)
	addi	a1,a1,%lo(.LC15)
	addi	a0,a0,%lo(.LC19)
	j	.L84
.L75:
	.loc 1 230 305
	call	xTaskGetTickCount
.LVL165:
	j	.L83
.LBE6:
.LBE7:
	.cfi_endproc
.LFE19:
	.size	_pka_test_case2, .-_pka_test_case2
	.section	.text.bl_pka_test,"ax",@progbits
	.align	1
	.globl	bl_pka_test
	.type	bl_pka_test, @function
bl_pka_test:
.LFB22:
	.loc 1 740 1 is_stmt 1
	.cfi_startproc
	.loc 1 741 5
	lui	a1,%hi(bl_sec_pka_IRQHandler)
	.loc 1 740 1 is_stmt 0
	addi	sp,sp,-16
	.cfi_def_cfa_offset 16
	.loc 1 741 5
	addi	a1,a1,%lo(bl_sec_pka_IRQHandler)
	li	a0,27
	.loc 1 740 1
	sw	ra,12(sp)
	.cfi_offset 1, -4
	.loc 1 741 5
	call	bl_irq_register
.LVL166:
	.loc 1 742 5 is_stmt 1
	li	a0,27
	call	bl_irq_enable
.LVL167:
	.loc 1 744 5
	call	_pka_test_case2
.LVL168:
	.loc 1 745 5
	call	_pka_test_case_xgcd
.LVL169:
	.loc 1 746 5
	call	_pka_test_case2
.LVL170:
	.loc 1 748 5
	.loc 1 749 1 is_stmt 0
	lw	ra,12(sp)
	.cfi_restore 1
	li	a0,0
	addi	sp,sp,16
	.cfi_def_cfa_offset 0
	jr	ra
	.cfi_endproc
.LFE22:
	.size	bl_pka_test, .-bl_pka_test
	.globl	g_bl_sec_sha_mutex
	.globl	_fsymf_info_hosalbl_sec
	.section	.rodata.str1.4,"aMS",@progbits,1
	.align	2
.LC20:
	.string	"hosal.bl_sec"
	.comm	_fsymf_level_hosalbl_sec,4,4
	.align	2
.LC21:
	.string	"hosal"
	.weak	_fsymc_level_hosal
	.section	.bss.sha_mutex_buf,"aw",@nobits
	.align	2
	.set	.LANCHOR3,. + 0
	.type	sha_mutex_buf, @object
	.size	sha_mutex_buf, 80
sha_mutex_buf:
	.zero	80
	.section	.bss.trng_buffer,"aw",@nobits
	.align	2
	.set	.LANCHOR0,. + 0
	.type	trng_buffer, @object
	.size	trng_buffer, 32
trng_buffer:
	.zero	32
	.section	.rodata.all_zero.6,"a"
	.align	2
	.set	.LANCHOR6,. + 0
	.type	all_zero.6, @object
	.size	all_zero.6, 256
all_zero.6:
	.zero	256
	.section	.rodata.encrypted.0,"a"
	.align	2
	.set	.LANCHOR12,. + 0
	.type	encrypted.0, @object
	.size	encrypted.0, 256
encrypted.0:
	.string	"\236\366oF\365Q\032\274\302\234I\002!l \256I\221\315\272\271O\257\375\215\232'\274\013iW\304\272\030\341VEU\273?{\312E\263\232\016\327dnq\316\323\b\311K\227\253$\344l\343\307R\227<E\027;\027\n\220P\355sKI\007\356\023\257G\036\320$\261\322\310\tu\363\024\234q\231\343\224[\366\357.y\365\035\334\247\305\355\n?\035C\320\031\024:\2675\302?\241\234"
	.ascii	"\336\366\226U\370\fy\bh\363\204|.\fQ\266^\236\315P\314_q\231"
	.ascii	"\301\r\360<\320\200\002\360\217\022>I\244\233\037\024\005\362"
	.ascii	"{A\301>\212\262\253p(/ \224\027e\363\211(m\315\f\352\003J\020"
	.ascii	"\235\371.\364dyz\354F\264\337\316j\216\3305b\263\004\352\371"
	.ascii	"\304\336\272*^\277Y\372\357*B\030\311\365zs\270gx\227muK\335"
	.ascii	"\373\233\346L\004\234a_\232\022\277.uc\335P\272,\357\260\232"
	.ascii	"e$"
	.section	.rodata.inv_r.1,"a"
	.align	2
	.set	.LANCHOR11,. + 0
	.type	inv_r.1, @object
	.size	inv_r.1, 256
inv_r.1:
	.string	"/\267\365J\322\031\336$|\333\315Rn\274,\\v\2326\303\2073\367\351=[=\3153z;NU\365\331Bvc(z\250|\367\321\366\r&\272\276\2375\364\206\305\223L\350v\332\210\270\276\255%k\347D;\034,\231\025\3563F\306\340\2609m \262h\307uA,\377\313\223\035@\322\016d\352.\nU\237\004\235\375^$\251(\\-\033)\207akPj11C\022\023\343\037G\212\021\322[&^y\004\013\250\2606\"\332<^\271\tH\26028%\354\375^\357\377\2003\237\224\214n*\373\277e\030\230~\377A\336"
	.ascii	"/\322}\277LTN\034F\326\253\366\0074c\343\013\201\240\224}\257"
	.ascii	"~7\326\305\246J\220lDj\331\017 \262\357\"\240\3378-\013\263\003"
	.ascii	"\262\310\346\215t\277E\221\340\"\026\277\304\332T&\252e\205\210"
	.ascii	"\303\373\237\374\024\304\377\213\210G_\261U\337G\\\300'9{\350"
	.ascii	"\255"
	.section	.rodata.m.3,"a"
	.align	2
	.set	.LANCHOR9,. + 0
	.type	m.3, @object
	.size	m.3, 256
m.3:
	.ascii	"016da41f4bf58a625aa5c307bcd1a7503db06c97b091938a21b5f68e377a"
	.ascii	"b899bef7ca1650e8f08d7287dd0f6d2ad64128838c595a2d10e467ab5453"
	.ascii	"c4ec770538ac9f806f08ff308e6edb5541f9f046c672b1207755b05f56d3"
	.ascii	"a6617dc754d5e204c1616a13e3b14e8e29c953386eedbc09407b94348776"
	.ascii	"67cb309c63042262"
	.section	.rodata.n.5,"a"
	.align	2
	.set	.LANCHOR7,. + 0
	.type	n.5, @object
	.size	n.5, 256
n.5:
	.string	"\330\246O\352(\371\337\007\004U\372\373P]\276\266\237{S\226\357\005^\n\365-\343gx\007k\366\262\027\254.QB\204\273\376>_\f\205\304\235\324\213\325\372\027-\261&\201\347y\007E\202B\"=\r\227\317\336\352\270\272\026\005\212[\017\354\0070\244\306\277\377 R\033\224\255\372\267n\203\024HX\024\231\347\243\236\301\b\275\376 \021V\333\226\n\273\013\274\3247U\371\234m[\207NP\237$\016:\032\fTg\275\0174\003^E[\223B\276q\346\247\371I\032\263\262\373\016\356=\317\fZ\370\265\200B|\fu\305\341\027)9U+\261\365r\006\236T\013\016\362\225\310[i\257[\201\227\256\261n\304m\225\330\"\0369\360vT\031\226\003L%\205/\341\204\327\301b\341\236\237\037\324\270\360\302hv|\317C>`\223\320\211e\256r\315\326"
	.ascii	"\r\221B\220\230\002\251\366\202\033\265\"\375\266\302\\\255\206"
	.ascii	"\201\035"
	.section	.rodata.n.8,"a"
	.align	2
	.set	.LANCHOR4,. + 0
	.type	n.8, @object
	.size	n.8, 256
n.8:
	.string	"\330\246O\352(\371\337\007\004U\372\373P]\276\266\237{S\226\357\005^\n\365-\343gx\007k\366\262\027\254.QB\204\273\376>_\f\205\304\235\324\213\325\372\027-\261&\201\347y\007E\202B\"=\r\227\317\336\352\270\272\026\005\212[\017\354\0070\244\306\277\377 R\033\224\255\372\267n\203\024HX\024\231\347\243\236\301\b\275\376 \021V\333\226\n\273\013\274\3247U\371\234m[\207NP\237$\016:\032\fTg\275\0174\003^E[\223B\276q\346\247\371I\032\263\262\373\016\356=\317\fZ\370\265\200B|\fu\305\341\027)9U+\261\365r\006\236T\013\016\362\225\310[i\257[\201\227\256\261n\304m\225\330\"\0369\360vT\031\226\003L%\205/\341\204\327\301b\341\236\237\037\324\270\360\302hv|\317C>`\223\320\211e\256r\315\326"
	.ascii	"\r\221B\220\230\002\251\366\202\033\265\"\375\266\302\\\255\206"
	.ascii	"\201\035"
	.section	.rodata.n_exp.7,"a"
	.align	2
	.set	.LANCHOR5,. + 0
	.type	n_exp.7, @object
	.size	n_exp.7, 256
n_exp.7:
	.string	""
	.string	""
	.string	""
	.string	""
	.string	""
	.string	""
	.string	""
	.string	""
	.string	""
	.string	""
	.string	""
	.string	""
	.string	""
	.string	""
	.string	""
	.string	""
	.string	""
	.string	""
	.string	""
	.string	""
	.string	""
	.string	""
	.string	""
	.string	""
	.string	""
	.string	""
	.string	""
	.string	""
	.string	""
	.string	""
	.string	""
	.string	""
	.string	""
	.string	""
	.string	""
	.string	""
	.string	""
	.string	""
	.string	""
	.string	""
	.string	""
	.string	""
	.string	""
	.string	""
	.string	""
	.string	""
	.string	""
	.string	""
	.string	""
	.string	""
	.string	""
	.string	""
	.string	""
	.string	""
	.string	""
	.string	""
	.string	""
	.string	""
	.string	""
	.string	""
	.string	""
	.string	""
	.string	""
	.string	""
	.string	""
	.string	""
	.string	""
	.string	""
	.string	""
	.string	""
	.string	""
	.string	""
	.string	""
	.string	""
	.string	""
	.string	""
	.string	""
	.string	""
	.string	""
	.string	""
	.string	""
	.string	""
	.string	""
	.string	""
	.string	""
	.string	""
	.string	""
	.string	""
	.string	""
	.string	""
	.string	""
	.string	""
	.string	""
	.string	""
	.string	""
	.string	""
	.string	""
	.string	""
	.string	""
	.string	""
	.string	""
	.string	""
	.string	""
	.string	""
	.string	""
	.string	""
	.string	""
	.string	""
	.string	""
	.string	""
	.string	""
	.string	""
	.string	""
	.string	""
	.string	""
	.string	""
	.string	""
	.string	""
	.string	""
	.string	""
	.string	""
	.string	""
	.string	""
	.string	""
	.string	""
	.string	""
	.string	""
	.string	""
	.string	""
	.string	""
	.string	""
	.string	""
	.string	""
	.string	""
	.string	""
	.string	""
	.string	""
	.string	""
	.string	""
	.string	""
	.string	""
	.string	""
	.string	""
	.string	""
	.string	""
	.string	""
	.string	""
	.string	""
	.string	""
	.string	""
	.string	""
	.string	""
	.string	""
	.string	""
	.string	""
	.string	""
	.string	""
	.string	""
	.string	""
	.string	""
	.string	""
	.string	""
	.string	""
	.string	""
	.string	""
	.string	""
	.string	""
	.string	""
	.string	""
	.string	""
	.string	""
	.string	""
	.string	""
	.string	""
	.string	""
	.string	""
	.string	""
	.string	""
	.string	""
	.string	""
	.string	""
	.string	""
	.string	""
	.string	""
	.string	""
	.string	""
	.string	""
	.string	""
	.string	""
	.string	""
	.string	""
	.string	""
	.string	""
	.string	""
	.string	""
	.string	""
	.string	""
	.string	""
	.string	""
	.string	""
	.string	""
	.string	""
	.string	""
	.string	""
	.string	""
	.string	""
	.string	""
	.string	""
	.string	""
	.string	""
	.string	""
	.string	""
	.string	""
	.string	""
	.string	""
	.string	""
	.string	""
	.string	""
	.string	""
	.string	""
	.string	""
	.string	""
	.string	""
	.string	""
	.string	""
	.string	""
	.string	""
	.string	""
	.string	""
	.string	""
	.string	""
	.string	""
	.string	""
	.string	""
	.string	""
	.string	""
	.string	""
	.string	""
	.string	""
	.string	""
	.string	""
	.string	""
	.string	""
	.string	""
	.string	""
	.string	""
	.string	""
	.string	""
	.string	""
	.string	""
	.string	""
	.string	""
	.string	""
	.string	""
	.string	""
	.ascii	"\001"
	.section	.rodata.nprime.4,"a"
	.align	2
	.set	.LANCHOR8,. + 0
	.type	nprime.4, @object
	.size	nprime.4, 256
nprime.4:
	.string	"8b\301\365U-=`^B\341e\336\3555\325\305\205\344N\353t\245\"\263\355_[\261\271\351\n}\245tX\370\241\253\027t\320\007\243\177\322\233P*\355^\334Zi\376\016\261\330S5\233\357\035vR\236\207<\260\202N\003\337u\355\t\237=7\366\350\r\311.\201\362\235.\252\346Syk\231\357F6\331.\235\025\321\177#\024\271\3533\247\324\216\206`\311\331|\312TYW\224\036RM\310?\233$(%\313W\312\217\026Z7\302\306\256\305\347\304.\363$\034\267\351\365\222N\324QP\377\336D<\256r\275\0269c\212\"\234\225\332!\360L\0226-"
	.ascii	"\255\263\211\265\t\236=$\201\374\357\231\225\"\235\263\22492"
	.ascii	"\335\304+/\260\023\376\265^\307d\223z\265\201\223\037\237\226"
	.ascii	"\036z\\\215\336\217\256\331\310\3355\036\027G\266\253\355\266"
	.ascii	"\202\"Lb\275\022ND\\H+uc\034\336\372\025\r\261P1\266\313"
	.section	.sbss._fsymc_level_hosal,"aw",@nobits
	.align	2
	.type	_fsymc_level_hosal, @object
	.size	_fsymc_level_hosal, 4
_fsymc_level_hosal:
	.zero	4
	.section	.sbss.g_bl_sec_sha_mutex,"aw",@nobits
	.align	2
	.set	.LANCHOR2,. + 0
	.type	g_bl_sec_sha_mutex, @object
	.size	g_bl_sec_sha_mutex, 4
g_bl_sec_sha_mutex:
	.zero	4
	.section	.sbss.trng_idx,"aw",@nobits
	.align	2
	.set	.LANCHOR1,. + 0
	.type	trng_idx, @object
	.size	trng_idx, 4
trng_idx:
	.zero	4
	.section	.srodata.BLOG_HARD_DECLARE_DISABLE,"a"
	.align	2
	.type	BLOG_HARD_DECLARE_DISABLE, @object
	.size	BLOG_HARD_DECLARE_DISABLE, 4
BLOG_HARD_DECLARE_DISABLE:
	.zero	4
	.section	.srodata.e.2,"a"
	.align	2
	.set	.LANCHOR10,. + 0
	.type	e.2, @object
	.size	e.2, 4
e.2:
	.string	""
	.string	"\001"
	.ascii	"\001"
	.section	.static_blogcomponent_code.hosal,"a"
	.align	2
	.type	_fsymc_info_hosal, @object
	.size	_fsymc_info_hosal, 8
_fsymc_info_hosal:
	.word	_fsymc_level_hosal
	.word	.LC21
	.section	.static_blogfile_code.hosalbl_sec,"a"
	.align	2
	.type	_fsymf_info_hosalbl_sec, @object
	.size	_fsymf_info_hosalbl_sec, 8
_fsymf_info_hosalbl_sec:
	.word	_fsymf_level_hosalbl_sec
	.word	.LC20
	.text
.Letext0:
	.file 2 "/mnt/d/GitHub/bl_iot_sdk_for_aithinker/toolchain/riscv/Linux/riscv64-unknown-elf/include/machine/_default_types.h"
	.file 3 "/mnt/d/GitHub/bl_iot_sdk_for_aithinker/toolchain/riscv/Linux/riscv64-unknown-elf/include/sys/_stdint.h"
	.file 4 "/mnt/d/GitHub/bl_iot_sdk_for_aithinker/components/platform/soc/bl602/bl602_std/bl602_std/Device/Bouffalo/BL602/Peripherals/bl602.h"
	.file 5 "/mnt/d/GitHub/bl_iot_sdk_for_aithinker/components/platform/soc/bl602/bl602_std/bl602_std/StdDriver/Inc/bl602_common.h"
	.file 6 "/mnt/d/GitHub/bl_iot_sdk_for_aithinker/components/platform/soc/bl602/bl602_std/bl602_std/StdDriver/Inc/bl602_sec_eng.h"
	.file 7 "/mnt/d/GitHub/bl_iot_sdk_for_aithinker/components/platform/soc/bl602/freertos_riscv_ram/portable/GCC/RISC-V/portmacro.h"
	.file 8 "/mnt/d/GitHub/bl_iot_sdk_for_aithinker/components/platform/soc/bl602/freertos_riscv_ram/config/FreeRTOS.h"
	.file 9 "/mnt/d/GitHub/bl_iot_sdk_for_aithinker/components/platform/soc/bl602/freertos_riscv_ram/config/queue.h"
	.file 10 "/mnt/d/GitHub/bl_iot_sdk_for_aithinker/components/platform/soc/bl602/freertos_riscv_ram/config/semphr.h"
	.file 11 "/mnt/d/GitHub/bl_iot_sdk_for_aithinker/components/stage/blog/blog_type.h"
	.file 12 "/mnt/d/GitHub/bl_iot_sdk_for_aithinker/components/platform/hosal/bl602_hal/bl_sec.h"
	.file 13 "/mnt/d/GitHub/bl_iot_sdk_for_aithinker/components/stage/blog/blog.h"
	.file 14 "/mnt/d/GitHub/bl_iot_sdk_for_aithinker/toolchain/riscv/Linux/riscv64-unknown-elf/include/stdio.h"
	.file 15 "/mnt/d/GitHub/bl_iot_sdk_for_aithinker/components/platform/hosal/bl602_hal/bl_irq.h"
	.file 16 "/mnt/d/GitHub/bl_iot_sdk_for_aithinker/components/platform/soc/bl602/freertos_riscv_ram/config/task.h"
	.file 17 "/mnt/d/GitHub/bl_iot_sdk_for_aithinker/components/utils/include/utils_log.h"
	.file 18 "/mnt/d/GitHub/bl_iot_sdk_for_aithinker/components/stage/yloop/include/aos/kernel.h"
	.file 19 "/mnt/d/GitHub/bl_iot_sdk_for_aithinker/toolchain/riscv/Linux/riscv64-unknown-elf/include/string.h"