	.file	"bl_sys.c"
	.option nopic
	.attribute arch, "rv32i2p0_m2p0_f2p0_c2p0"
	.attribute unaligned_access, 0
	.attribute stack_align, 16
	.text
.Ltext0:
	.cfi_sections	.debug_frame
	.section	.text.bl_sys_rstinfo_get,"ax",@progbits
	.align	1
	.globl	bl_sys_rstinfo_get
	.type	bl_sys_rstinfo_get, @function
bl_sys_rstinfo_get:
.LFB8:
	.file 1 "/mnt/d/GitHub/bl_iot_sdk_for_aithinker/components/platform/hosal/bl602_hal/bl_sys.c"
	.loc 1 29 1
	.cfi_startproc
	.loc 1 30 5
	.loc 1 30 21 is_stmt 0
	lui	a5,%hi(.LANCHOR0)
	addi	a5,a5,%lo(.LANCHOR0)
	lw	a0,0(a5)
.LVL0:
	.loc 1 32 5 is_stmt 1
	.loc 1 32 18 is_stmt 0
	sw	zero,0(a5)
	.loc 1 34 5 is_stmt 1
	.loc 1 35 1 is_stmt 0
	ret
	.cfi_endproc
.LFE8:
	.size	bl_sys_rstinfo_get, .-bl_sys_rstinfo_get
	.section	.text.bl_sys_rstinfo_set,"ax",@progbits
	.align	1
	.globl	bl_sys_rstinfo_set
	.type	bl_sys_rstinfo_set, @function
bl_sys_rstinfo_set:
.LFB9:
	.loc 1 38 1 is_stmt 1
	.cfi_startproc
.LVL1:
	.loc 1 39 5
	.loc 1 39 8 is_stmt 0
	li	a5,3
	bne	a0,a5,.L3
	.loc 1 40 9 is_stmt 1
	.loc 1 40 46 is_stmt 0
	li	a5,2003070976
	li	a4,1073807360
	addi	a5,a5,-153
.L5:
	.loc 1 42 46
	sw	a5,0(a4)
.L4:
	.loc 1 45 5 is_stmt 1
	.loc 1 46 1 is_stmt 0
	li	a0,0
.LVL2:
	ret
.LVL3:
.L3:
	.loc 1 41 12 is_stmt 1
	.loc 1 41 15 is_stmt 0
	li	a5,4
	bne	a0,a5,.L4
	.loc 1 42 9 is_stmt 1
	.loc 1 42 46 is_stmt 0
	li	a5,1936678912
	li	a4,1073807360
	addi	a5,a5,1652
	j	.L5
	.cfi_endproc
.LFE9:
	.size	bl_sys_rstinfo_set, .-bl_sys_rstinfo_set
	.section	.text.bl_sys_rstinfo_init,"ax",@progbits
	.align	1
	.globl	bl_sys_rstinfo_init
	.type	bl_sys_rstinfo_init, @function
bl_sys_rstinfo_init:
.LFB10:
	.loc 1 49 1 is_stmt 1
	.cfi_startproc
	.loc 1 50 5
	.loc 1 50 10 is_stmt 0
	li	a3,1073807360
	lw	a2,0(a3)
	.loc 1 50 8
	li	a4,2003070976
	lui	a5,%hi(.LANCHOR0)
	addi	a4,a4,-153
	addi	a5,a5,%lo(.LANCHOR0)
	bne	a2,a4,.L7
	.loc 1 51 9 is_stmt 1
	.loc 1 51 22 is_stmt 0
	li	a4,3
.L10:
	.loc 1 53 22
	sw	a4,0(a5)
.L8:
	.loc 1 58 5 is_stmt 1
.LVL4:
.LBB12:
.LBB13:
	.loc 1 39 5
	.loc 1 40 9
	.loc 1 40 46 is_stmt 0
	li	a5,2003070976
	li	a4,1073807360
	addi	a5,a5,-153
	sw	a5,0(a4)
	.loc 1 45 5 is_stmt 1
.LVL5:
.LBE13:
.LBE12:
	.loc 1 59 1 is_stmt 0
	ret
.L7:
	.loc 1 52 12 is_stmt 1
	.loc 1 52 17 is_stmt 0
	lw	a3,0(a3)
	.loc 1 52 15
	li	a4,1936678912
	addi	a4,a4,1652
	bne	a3,a4,.L9
	.loc 1 53 9 is_stmt 1
	.loc 1 53 22 is_stmt 0
	li	a4,4
	j	.L10
.L9:
	.loc 1 55 9 is_stmt 1
	.loc 1 55 22 is_stmt 0
	sw	zero,0(a5)
	j	.L8
	.cfi_endproc
.LFE10:
	.size	bl_sys_rstinfo_init, .-bl_sys_rstinfo_init
	.section	.text.bl_sys_rstinfo_getsting,"ax",@progbits
	.align	1
	.globl	bl_sys_rstinfo_getsting
	.type	bl_sys_rstinfo_getsting, @function
bl_sys_rstinfo_getsting:
.LFB11:
	.loc 1 62 1 is_stmt 1
	.cfi_startproc
.LVL6:
	.loc 1 63 5
	.loc 1 62 1 is_stmt 0
	addi	sp,sp,-32
	.cfi_def_cfa_offset 32
	sw	s2,16(sp)
	.cfi_offset 18, -16
	.loc 1 63 5
	lui	s2,%hi(.LANCHOR0)
	addi	s2,s2,%lo(.LANCHOR0)
	.loc 1 63 18
	lw	a5,0(s2)
	.loc 1 62 1
	sw	s1,20(sp)
	.cfi_offset 9, -12
	.loc 1 63 18
	lui	s1,%hi(.LANCHOR1)
	addi	s1,s1,%lo(.LANCHOR1)
	slli	a5,a5,2
	add	a5,s1,a5
	lw	a1,0(a5)
	.loc 1 62 1
	sw	s0,24(sp)
	.cfi_offset 8, -8
	mv	s0,a0
	.loc 1 63 5
	mv	a0,a1
.LVL7:
	.loc 1 62 1
	sw	ra,28(sp)
	.cfi_offset 1, -4
	.loc 1 63 5
	sw	a1,12(sp)
	call	strlen
.LVL8:
	lw	a1,12(sp)
	mv	a2,a0
	mv	a0,s0
	call	memcpy
.LVL9:
	.loc 1 64 5 is_stmt 1
	.loc 1 64 37 is_stmt 0
	lw	a5,0(s2)
	slli	a5,a5,2
	add	s1,s1,a5
	.loc 1 64 14
	lw	a0,0(s1)
	call	strlen
.LVL10:
	.loc 1 64 54
	add	s0,s0,a0
.LVL11:
	sb	zero,0(s0)
	.loc 1 65 5 is_stmt 1
	.loc 1 66 1 is_stmt 0
	lw	ra,28(sp)
	.cfi_restore 1
	lw	s0,24(sp)
	.cfi_restore 8
	lw	s1,20(sp)
	.cfi_restore 9
	lw	s2,16(sp)
	.cfi_restore 18
	li	a0,0
	addi	sp,sp,32
	.cfi_def_cfa_offset 0
	jr	ra
	.cfi_endproc
.LFE11:
	.size	bl_sys_rstinfo_getsting, .-bl_sys_rstinfo_getsting
	.section	.text.bl_sys_logall_enable,"ax",@progbits
	.align	1
	.globl	bl_sys_logall_enable
	.type	bl_sys_logall_enable, @function
bl_sys_logall_enable:
.LFB12:
	.loc 1 69 1 is_stmt 1
	.cfi_startproc
	.loc 1 70 5
	.loc 1 70 24 is_stmt 0
	lui	a5,%hi(.LANCHOR2)
	li	a4,1
	sb	a4,%lo(.LANCHOR2)(a5)
	.loc 1 71 5 is_stmt 1
	.loc 1 72 1 is_stmt 0
	li	a0,0
	ret
	.cfi_endproc
.LFE12:
	.size	bl_sys_logall_enable, .-bl_sys_logall_enable
	.section	.text.bl_sys_logall_disable,"ax",@progbits
	.align	1
	.globl	bl_sys_logall_disable
	.type	bl_sys_logall_disable, @function
bl_sys_logall_disable:
.LFB13:
	.loc 1 75 1 is_stmt 1
	.cfi_startproc
	.loc 1 76 5
	.loc 1 76 24 is_stmt 0
	lui	a5,%hi(.LANCHOR2)
	sb	zero,%lo(.LANCHOR2)(a5)
	.loc 1 77 5 is_stmt 1
	.loc 1 78 1 is_stmt 0
	li	a0,0
	ret
	.cfi_endproc
.LFE13:
	.size	bl_sys_logall_disable, .-bl_sys_logall_disable
	.section	.text.bl_sys_mfg_config,"ax",@progbits
	.align	1
	.globl	bl_sys_mfg_config
	.type	bl_sys_mfg_config, @function
bl_sys_mfg_config:
.LFB14:
	.loc 1 81 1 is_stmt 1
	.cfi_startproc
	.loc 1 82 5
.LVL12:
	.loc 1 89 5
	.loc 1 89 41 is_stmt 0
	li	a5,1734766592
	li	a4,1073803264
	addi	a5,a5,-720
	sw	a5,256(a4)
.LVL13:
	.loc 1 90 1
	ret
	.cfi_endproc
.LFE14:
	.size	bl_sys_mfg_config, .-bl_sys_mfg_config
	.section	.text.bl_sys_reset_por,"ax",@progbits
	.align	1
	.globl	bl_sys_reset_por
	.type	bl_sys_reset_por, @function
bl_sys_reset_por:
.LFB15:
	.loc 1 93 1 is_stmt 1
	.cfi_startproc
	.loc 1 94 5
.LVL14:
.LBB14:
.LBB15:
	.loc 1 39 5
	.loc 1 41 12
	.loc 1 42 9
.LBE15:
.LBE14:
	.loc 1 93 1 is_stmt 0
	addi	sp,sp,-16
	.cfi_def_cfa_offset 16
.LBB18:
.LBB16:
	.loc 1 42 46
	li	a5,1936678912
.LBE16:
.LBE18:
	.loc 1 93 1
	sw	ra,12(sp)
	.cfi_offset 1, -4
.LBB19:
.LBB17:
	.loc 1 42 46
	li	a4,1073807360
	addi	a5,a5,1652
	sw	a5,0(a4)
	.loc 1 45 5 is_stmt 1
.LVL15:
.LBE17:
.LBE19:
	.loc 1 95 5
.LBB20:
.LBB21:
	.file 2 "/mnt/d/GitHub/bl_iot_sdk_for_aithinker/components/platform/soc/bl602/bl602_std/bl602_std/RISCV/Core/Include/cmsis_compatible_gcc.h"
	.loc 2 94 3
 #APP
# 94 "/mnt/d/GitHub/bl_iot_sdk_for_aithinker/components/platform/soc/bl602/bl602_std/bl602_std/RISCV/Core/Include/cmsis_compatible_gcc.h" 1
	csrci mstatus, 8
# 0 "" 2
 #NO_APP
.LBE21:
.LBE20:
	.loc 1 96 5
	call	GLB_SW_POR_Reset
.LVL16:
.L17:
	.loc 1 97 5 discriminator 1
	.loc 1 99 5 discriminator 1
	.loc 1 97 11 discriminator 1
	j	.L17
	.cfi_endproc
.LFE15:
	.size	bl_sys_reset_por, .-bl_sys_reset_por
	.section	.text.bl_sys_reset_system,"ax",@progbits
	.align	1
	.globl	bl_sys_reset_system
	.type	bl_sys_reset_system, @function
bl_sys_reset_system:
.LFB16:
	.loc 1 105 1
	.cfi_startproc
	.loc 1 106 5
.LBB22:
.LBB23:
	.loc 2 94 3
.LBE23:
.LBE22:
	.loc 1 105 1 is_stmt 0
	addi	sp,sp,-16
	.cfi_def_cfa_offset 16
	sw	ra,12(sp)
	.cfi_offset 1, -4
.LBB25:
.LBB24:
	.loc 2 94 3
 #APP
# 94 "/mnt/d/GitHub/bl_iot_sdk_for_aithinker/components/platform/soc/bl602/bl602_std/bl602_std/RISCV/Core/Include/cmsis_compatible_gcc.h" 1
	csrci mstatus, 8
# 0 "" 2
 #NO_APP
.LBE24:
.LBE25:
	.loc 1 107 5 is_stmt 1
	call	GLB_SW_System_Reset
.LVL17:
.L20:
	.loc 1 108 5 discriminator 1
	.loc 1 110 5 discriminator 1
	.loc 1 108 11 discriminator 1
	j	.L20
	.cfi_endproc
.LFE16:
	.size	bl_sys_reset_system, .-bl_sys_reset_system
	.section	.text.bl_sys_isxipaddr,"ax",@progbits
	.align	1
	.globl	bl_sys_isxipaddr
	.type	bl_sys_isxipaddr, @function
bl_sys_isxipaddr:
.LFB17:
	.loc 1 114 1
	.cfi_startproc
.LVL18:
	.loc 1 115 5
	.loc 1 115 16 is_stmt 0
	li	a5,-16777216
	and	a0,a0,a5
.LVL19:
	.loc 1 115 8
	li	a5,-587202560
	add	a0,a0,a5
	li	a5,-553648128
	and	a0,a0,a5
	.loc 1 119 1
	seqz	a0,a0
	ret
	.cfi_endproc
.LFE17:
	.size	bl_sys_isxipaddr, .-bl_sys_isxipaddr
	.section	.text.bl_sys_em_config,"ax",@progbits
	.align	1
	.globl	bl_sys_em_config
	.type	bl_sys_em_config, @function
bl_sys_em_config:
.LFB18:
	.loc 1 122 1 is_stmt 1
	.cfi_startproc
	.loc 1 123 5
	.loc 1 124 5
	.loc 1 126 5
	.loc 1 126 15 is_stmt 0
	lui	a5,%hi(__LD_CONFIG_EM_SEL)
	.loc 1 122 1
	addi	sp,sp,-32
	.cfi_def_cfa_offset 32
	.loc 1 126 15
	addi	a5,a5,%lo(__LD_CONFIG_EM_SEL)
	.loc 1 126 13
	sw	a5,12(sp)
	.loc 1 128 5 is_stmt 1
	lw	a5,12(sp)
	.loc 1 122 1 is_stmt 0
	sw	ra,28(sp)
	.cfi_offset 1, -4
	.loc 1 128 5
	li	a4,8192
	beq	a5,a4,.L24
	li	a4,16384
	beq	a5,a4,.L25
	.loc 1 131 13
	li	a0,0
	.loc 1 128 5
	beq	a5,zero,.L28
.L26:
	.loc 1 147 9 is_stmt 1
	.loc 1 150 5
	.loc 1 151 1 is_stmt 0
	lw	ra,28(sp)
	.cfi_remember_state
	.cfi_restore 1
	li	a0,0
	addi	sp,sp,32
	.cfi_def_cfa_offset 0
	jr	ra
.L24:
	.cfi_restore_state
	.loc 1 136 13 is_stmt 1
	li	a0,3
.L28:
	.loc 1 141 13 is_stmt 0
	call	GLB_Set_EM_Sel
.LVL20:
	.loc 1 143 9 is_stmt 1
	j	.L26
.L25:
	.loc 1 141 13
	li	a0,15
	j	.L28
	.cfi_endproc
.LFE18:
	.size	bl_sys_em_config, .-bl_sys_em_config
	.section	.text.bl_sys_early_init,"ax",@progbits
	.align	1
	.globl	bl_sys_early_init
	.type	bl_sys_early_init, @function
bl_sys_early_init:
.LFB19:
	.loc 1 154 1
	.cfi_startproc
	.loc 1 163 5
	.loc 1 154 1 is_stmt 0
	addi	sp,sp,-32
	.cfi_def_cfa_offset 32
	sw	ra,28(sp)
	.cfi_offset 1, -4
	.loc 1 163 5
	call	bl_flash_init
.LVL21:
	.loc 1 166 5 is_stmt 1
	.loc 1 167 5
	.loc 1 169 5
	.loc 1 169 13 is_stmt 0
	addi	a0,sp,15
	call	EF_Ctrl_Read_Ldo11VoutSel_Opt
.LVL22:
	.loc 1 169 7
	bne	a0,zero,.L30
	.loc 1 170 9 is_stmt 1
	lbu	a0,15(sp)
	call	HBN_Set_Ldo11_Soc_Vout
.LVL23:
.L30:
	.loc 1 173 5
	.loc 1 174 5
	li	a0,1
	call	HBN_Aon_Pad_IeSmt_Cfg
.LVL24:
	.loc 1 176 5
	.loc 1 177 5
	.loc 1 177 204
	lui	a5,%hi(freertos_risc_v_trap_handler)
	addi	a5,a5,%lo(freertos_risc_v_trap_handler)
 #APP
# 177 "/mnt/d/GitHub/bl_iot_sdk_for_aithinker/components/platform/hosal/bl602_hal/bl_sys.c" 1
	csrw mtvec, a5
# 0 "" 2
	.loc 1 180 5
 #NO_APP
	li	a0,21
	call	GLB_AHB_Slave1_Reset
.LVL25:
	.loc 1 182 5
	.loc 1 183 1 is_stmt 0
	lw	ra,28(sp)
	.cfi_restore 1
	li	a0,0
	addi	sp,sp,32
	.cfi_def_cfa_offset 0
	jr	ra
	.cfi_endproc
.LFE19:
	.size	bl_sys_early_init, .-bl_sys_early_init
	.section	.text.bl_sys_init,"ax",@progbits
	.align	1
	.globl	bl_sys_init
	.type	bl_sys_init, @function
bl_sys_init:
.LFB20:
	.loc 1 186 1 is_stmt 1
	.cfi_startproc
	.loc 1 187 5
	.loc 1 186 1 is_stmt 0
	addi	sp,sp,-16
	.cfi_def_cfa_offset 16
	sw	ra,12(sp)
	.cfi_offset 1, -4
	.loc 1 187 5
	call	bl_sys_em_config
.LVL26:
	.loc 1 188 5 is_stmt 1
	call	bl_sys_rstinfo_get
.LVL27:
	.loc 1 189 5
	call	bl_sys_rstinfo_init
.LVL28:
	.loc 1 190 5
	.loc 1 191 1 is_stmt 0
	lw	ra,12(sp)
	.cfi_restore 1
	li	a0,0
	addi	sp,sp,16
	.cfi_def_cfa_offset 0
	jr	ra
	.cfi_endproc
.LFE20:
	.size	bl_sys_init, .-bl_sys_init
	.globl	sys_log_all_enable
	.section	.rodata.str1.4,"aMS",@progbits,1
	.align	2
.LC0:
	.string	"BL_RST_POWER_OFF"
	.align	2
.LC1:
	.string	"BL_RST_HARDWARE_WATCHDOG"
	.align	2
.LC2:
	.string	"BL_RST_FATAL_EXCEPTION"
	.align	2
.LC3:
	.string	"BL_RST_SOFTWARE_WATCHDOG"
	.align	2
.LC4:
	.string	"BL_RST_SOFTWARE"
	.section	.rodata.RST_REASON_ARRAY,"a"
	.align	2
	.set	.LANCHOR1,. + 0
	.type	RST_REASON_ARRAY, @object
	.size	RST_REASON_ARRAY, 20
RST_REASON_ARRAY:
	.word	.LC0
	.word	.LC1
	.word	.LC2
	.word	.LC3
	.word	.LC4
	.section	.sbss.s_rst_reason,"aw",@nobits
	.align	2
	.set	.LANCHOR0,. + 0
	.type	s_rst_reason, @object
	.size	s_rst_reason, 4
s_rst_reason:
	.zero	4
	.section	.sdata.sys_log_all_enable,"aw"
	.set	.LANCHOR2,. + 0
	.type	sys_log_all_enable, @object
	.size	sys_log_all_enable, 1
sys_log_all_enable:
	.byte	1
	.text
.Letext0:
	.file 3 "/mnt/d/GitHub/bl_iot_sdk_for_aithinker/toolchain/riscv/Linux/lib/gcc/riscv64-unknown-elf/10.2.0/include/stdint-gcc.h"
	.file 4 "/mnt/d/GitHub/bl_iot_sdk_for_aithinker/components/platform/soc/bl602/bl602_std/bl602_std/Device/Bouffalo/BL602/Peripherals/bl602.h"
	.file 5 "/mnt/d/GitHub/bl_iot_sdk_for_aithinker/components/platform/soc/bl602/bl602_std/bl602_std/StdDriver/Inc/bl602_common.h"
	.file 6 "/mnt/d/GitHub/bl_iot_sdk_for_aithinker/components/platform/soc/bl602/bl602_std/bl602_std/StdDriver/Inc/bl602_hbn.h"
	.file 7 "/mnt/d/GitHub/bl_iot_sdk_for_aithinker/components/platform/soc/bl602/bl602_std/bl602_std/StdDriver/Inc/bl602_glb.h"
	.file 8 "/mnt/d/GitHub/bl_iot_sdk_for_aithinker/components/platform/hosal/bl602_hal/bl_sys.h"
	.file 9 "/mnt/d/GitHub/bl_iot_sdk_for_aithinker/components/platform/hosal/bl602_hal/bl_flash.h"
	.file 10 "/mnt/d/GitHub/bl_iot_sdk_for_aithinker/toolchain/riscv/Linux/riscv64-unknown-elf/include/string.h"