	.file	"bl_uart.c"
	.option nopic
	.attribute arch, "rv32i2p0_m2p0_f2p0_c2p0"
	.attribute unaligned_access, 0
	.attribute stack_align, 16
	.text
.Ltext0:
	.cfi_sections	.debug_frame
	.section	.text.uart_generic_notify_handler,"ax",@progbits
	.align	1
	.type	uart_generic_notify_handler, @function
uart_generic_notify_handler:
.LFB27:
	.file 1 "/mnt/d/GitHub/bl_iot_sdk_for_aithinker/components/platform/hosal/bl602_hal/bl_uart.c"
	.loc 1 402 1
	.cfi_startproc
.LVL0:
	.loc 1 403 5
	.loc 1 404 5
	.loc 1 405 5
	.loc 1 406 5
	.loc 1 407 5
	.loc 1 407 14 is_stmt 0
	lui	a5,%hi(.LANCHOR0)
	slli	a4,a0,2
	addi	a5,a5,%lo(.LANCHOR0)
	.loc 1 402 1
	addi	sp,sp,-32
	.cfi_def_cfa_offset 32
	.loc 1 407 14
	add	a5,a5,a4
	.loc 1 402 1
	sw	s3,12(sp)
	.cfi_offset 19, -20
	.loc 1 407 14
	lw	s3,0(a5)
.LVL1:
	.loc 1 409 5 is_stmt 1
	.loc 1 402 1 is_stmt 0
	sw	s0,24(sp)
	sw	ra,28(sp)
	sw	s1,20(sp)
	sw	s2,16(sp)
	.cfi_offset 8, -8
	.cfi_offset 1, -4
	.cfi_offset 9, -12
	.cfi_offset 18, -16
	.loc 1 409 12
	lw	s2,32(s3)
.LVL2:
	.loc 1 410 5 is_stmt 1
	.loc 1 410 13 is_stmt 0
	lw	s1,36(s3)
.LVL3:
	.loc 1 414 5 is_stmt 1
	.loc 1 402 1 is_stmt 0
	mv	s0,a0
	.loc 1 414 19
	andi	a5,s2,1
	.loc 1 414 7
	beq	a5,zero,.L2
	.loc 1 414 56 discriminator 1
	andi	a5,s1,1
	.loc 1 414 40 discriminator 1
	bne	a5,zero,.L2
	.loc 1 415 9 is_stmt 1
	.loc 1 415 47 is_stmt 0
	li	a5,1
	sw	a5,40(s3)
.L2:
	.loc 1 419 5 is_stmt 1
	.loc 1 419 19 is_stmt 0
	andi	a5,s2,2
	.loc 1 419 7
	beq	a5,zero,.L4
	.loc 1 419 56 discriminator 1
	andi	a5,s1,2
	.loc 1 419 40 discriminator 1
	bne	a5,zero,.L4
	.loc 1 420 9 is_stmt 1
	.loc 1 420 47 is_stmt 0
	li	a5,2
	.loc 1 423 12
	lui	a4,%hi(.LANCHOR1)
	addi	a4,a4,%lo(.LANCHOR1)
	.loc 1 420 47
	sw	a5,40(s3)
	.loc 1 423 9 is_stmt 1
	.loc 1 423 12 is_stmt 0
	slli	a5,s0,4
	add	a5,a4,a5
	lw	a4,0(a5)
.LVL4:
	.loc 1 424 9 is_stmt 1
	.loc 1 426 9
	.loc 1 426 12 is_stmt 0
	beq	a4,zero,.L4
	.loc 1 428 13 is_stmt 1
	lw	a0,4(a5)
.LVL5:
	jalr	a4
.LVL6:
.L4:
	.loc 1 433 5
	.loc 1 433 19 is_stmt 0
	andi	a5,s2,4
	.loc 1 433 7
	beq	a5,zero,.L6
	.loc 1 433 56 discriminator 1
	andi	a5,s1,4
	.loc 1 433 40 discriminator 1
	bne	a5,zero,.L6
	.loc 1 435 9 is_stmt 1
	.loc 1 435 12 is_stmt 0
	lui	a4,%hi(.LANCHOR1)
	addi	a4,a4,%lo(.LANCHOR1)
	slli	a5,s0,4
	add	a5,a4,a5
	lw	a4,8(a5)
.LVL7:
	.loc 1 436 9 is_stmt 1
	.loc 1 438 9
	.loc 1 438 12 is_stmt 0
	beq	a4,zero,.L6
	.loc 1 440 13 is_stmt 1
	lw	a0,12(a5)
	jalr	a4
.LVL8:
.L6:
	.loc 1 445 5
	.loc 1 445 19 is_stmt 0
	andi	a5,s2,8
	.loc 1 445 7
	beq	a5,zero,.L7
	.loc 1 445 56 discriminator 1
	andi	a5,s1,8
	.loc 1 445 40 discriminator 1
	bne	a5,zero,.L7
	.loc 1 448 9 is_stmt 1
	.loc 1 448 12 is_stmt 0
	lui	a4,%hi(.LANCHOR1)
	addi	a4,a4,%lo(.LANCHOR1)
	slli	a5,s0,4
	add	a5,a4,a5
	lw	a4,0(a5)
.LVL9:
	.loc 1 449 9 is_stmt 1
	.loc 1 451 9
	.loc 1 451 12 is_stmt 0
	beq	a4,zero,.L7
	.loc 1 453 13 is_stmt 1
	lw	a0,4(a5)
	jalr	a4
.LVL10:
.L7:
	.loc 1 458 5
	.loc 1 458 20 is_stmt 0
	andi	a5,s2,16
	.loc 1 458 8
	beq	a5,zero,.L9
	.loc 1 458 57 discriminator 1
	andi	a5,s1,16
	.loc 1 458 41 discriminator 1
	bne	a5,zero,.L9
	.loc 1 459 9 is_stmt 1
	.loc 1 462 12 is_stmt 0
	lui	a0,%hi(.LANCHOR1)
	slli	s0,s0,4
	addi	a0,a0,%lo(.LANCHOR1)
	.loc 1 459 47
	li	a5,16
	.loc 1 462 12
	add	s0,a0,s0
	.loc 1 459 47
	sw	a5,40(s3)
	.loc 1 462 9 is_stmt 1
	.loc 1 462 12 is_stmt 0
	lw	a5,0(s0)
.LVL11:
	.loc 1 463 9 is_stmt 1
	.loc 1 465 9
	.loc 1 465 12 is_stmt 0
	beq	a5,zero,.L9
	.loc 1 467 13 is_stmt 1
	lw	a0,4(s0)
	jalr	a5
.LVL12:
.L9:
	.loc 1 472 5
	.loc 1 472 19 is_stmt 0
	andi	a5,s2,32
	.loc 1 472 7
	beq	a5,zero,.L1
	.loc 1 472 56 discriminator 1
	andi	a5,s1,32
	.loc 1 472 40 discriminator 1
	bne	a5,zero,.L1
	.loc 1 473 9 is_stmt 1
	.loc 1 473 47 is_stmt 0
	li	a5,32
	sw	a5,40(s3)
	.loc 1 477 5 is_stmt 1
	.loc 1 478 5
	.loc 1 481 5
	.loc 1 482 5
	.loc 1 484 5
.L1:
	.loc 1 485 1 is_stmt 0
	lw	ra,28(sp)
	.cfi_restore 1
	lw	s0,24(sp)
	.cfi_restore 8
	lw	s1,20(sp)
	.cfi_restore 9
.LVL13:
	lw	s2,16(sp)
	.cfi_restore 18
.LVL14:
	lw	s3,12(sp)
	.cfi_restore 19
.LVL15:
	addi	sp,sp,32
	.cfi_def_cfa_offset 0
	jr	ra
	.cfi_endproc
.LFE27:
	.size	uart_generic_notify_handler, .-uart_generic_notify_handler
	.section	.text.UART0_IRQHandler,"ax",@progbits
	.align	1
	.globl	UART0_IRQHandler
	.type	UART0_IRQHandler, @function
UART0_IRQHandler:
.LFB28:
	.loc 1 488 1 is_stmt 1
	.cfi_startproc
	.loc 1 489 5
	li	a0,0
	tail	uart_generic_notify_handler
.LVL16:
	.cfi_endproc
.LFE28:
	.size	UART0_IRQHandler, .-UART0_IRQHandler
	.section	.text.UART1_IRQHandler,"ax",@progbits
	.align	1
	.globl	UART1_IRQHandler
	.type	UART1_IRQHandler, @function
UART1_IRQHandler:
.LFB29:
	.loc 1 493 1
	.cfi_startproc
	.loc 1 494 5
	li	a0,1
	tail	uart_generic_notify_handler
.LVL17:
	.cfi_endproc
.LFE29:
	.size	UART1_IRQHandler, .-UART1_IRQHandler
	.section	.text.gpio_init.constprop.0,"ax",@progbits
	.align	1
	.type	gpio_init.constprop.0, @function
gpio_init.constprop.0:
.LFB30:
	.loc 1 28 13
	.cfi_startproc
.LVL18:
	.loc 1 30 5
	.loc 1 31 5
	.loc 1 33 5
	.loc 1 34 5
	.loc 1 35 5
	.loc 1 37 5
	.loc 1 28 13 is_stmt 0
	addi	sp,sp,-48
	.cfi_def_cfa_offset 48
	.loc 1 35 17
	li	a5,7
	.loc 1 28 13
	sw	s2,32(sp)
	sw	s3,28(sp)
	.cfi_offset 18, -16
	.cfi_offset 19, -20
	mv	s2,a0
	.loc 1 35 17
	sb	a5,9(sp)
	.loc 1 38 18
	li	s3,2
	.loc 1 33 15
	li	a5,257
	.loc 1 40 5
	addi	a0,sp,8
.LVL19:
	.loc 1 28 13
	sw	s0,40(sp)
	sw	s1,36(sp)
	sw	ra,44(sp)
	.cfi_offset 8, -8
	.cfi_offset 9, -12
	.cfi_offset 1, -4
	.loc 1 28 13
	mv	s1,a1
	mv	s0,a2
	.loc 1 37 17
	sb	a2,8(sp)
	.loc 1 38 5 is_stmt 1
	.loc 1 39 5
	.loc 1 38 18 is_stmt 0
	sh	s3,10(sp)
	.loc 1 33 15
	sh	a5,12(sp)
	.loc 1 40 5 is_stmt 1
	call	GLB_GPIO_Init
.LVL20:
	.loc 1 42 5
	.loc 1 45 5 is_stmt 0
	addi	a0,sp,8
	.loc 1 42 17
	sb	s1,8(sp)
	.loc 1 43 5 is_stmt 1
	.loc 1 44 5
	.loc 1 43 18 is_stmt 0
	sh	s3,10(sp)
	.loc 1 45 5 is_stmt 1
	call	GLB_GPIO_Init
.LVL21:
	.loc 1 48 5
	.loc 1 48 8 is_stmt 0
	beq	s2,zero,.L41
	.loc 1 53 19
	li	s2,7
	.loc 1 52 19
	li	a1,6
.L40:
.LVL22:
	.loc 1 59 5 is_stmt 1
	andi	a0,s1,7
	call	GLB_UART_Fun_Sel
.LVL23:
	.loc 1 60 5
	mv	a1,s2
	andi	a0,s0,7
	call	GLB_UART_Fun_Sel
.LVL24:
	.loc 1 61 1 is_stmt 0
	lw	ra,44(sp)
	.cfi_remember_state
	.cfi_restore 1
	lw	s0,40(sp)
	.cfi_restore 8
	lw	s1,36(sp)
	.cfi_restore 9
	lw	s2,32(sp)
	.cfi_restore 18
.LVL25:
	lw	s3,28(sp)
	.cfi_restore 19
	addi	sp,sp,48
	.cfi_def_cfa_offset 0
	jr	ra
.L41:
	.cfi_restore_state
	.loc 1 50 19
	li	s2,3
	.loc 1 49 19
	li	a1,2
	j	.L40
	.cfi_endproc
.LFE30:
	.size	gpio_init.constprop.0, .-gpio_init.constprop.0
	.section	.text.bl_uart_init,"ax",@progbits
	.align	1
	.globl	bl_uart_init
	.type	bl_uart_init, @function
bl_uart_init:
.LFB9:
	.loc 1 64 1 is_stmt 1
	.cfi_startproc
.LVL26:
	.loc 1 65 5
	.loc 1 66 5
	.loc 1 68 5
	.loc 1 64 1 is_stmt 0
	addi	sp,sp,-80
	.cfi_def_cfa_offset 80
	sw	s3,60(sp)
	.cfi_offset 19, -20
	mv	s3,a1
	.loc 1 68 19
	lui	a1,%hi(.LANCHOR2)
.LVL27:
	.loc 1 64 1
	sw	s0,72(sp)
	sw	s1,68(sp)
	sw	s4,56(sp)
	.cfi_offset 8, -8
	.cfi_offset 9, -12
	.cfi_offset 20, -24
	.loc 1 68 19
	addi	s1,a1,%lo(.LANCHOR2)
	.loc 1 64 1
	mv	s0,a0
	.loc 1 68 19
	addi	a1,a1,%lo(.LANCHOR2)
	.loc 1 64 1
	mv	s4,a2
	.loc 1 68 19
	addi	a0,sp,12
.LVL28:
	li	a2,36
.LVL29:
	.loc 1 64 1
	sw	ra,76(sp)
	sw	s2,64(sp)
	.cfi_offset 1, -4
	.cfi_offset 18, -16
	.loc 1 64 1
	mv	s2,a5
	.loc 1 68 19
	call	memcpy
.LVL30:
	.loc 1 80 5 is_stmt 1
	.loc 1 80 23 is_stmt 0
	addi	a1,s1,36
	li	a2,12
	mv	a0,sp
	.loc 1 89 11
	lui	s1,%hi(.LANCHOR3)
	.loc 1 80 23
	call	memcpy
.LVL31:
	.loc 1 89 5 is_stmt 1
	.loc 1 89 11 is_stmt 0
	addi	s1,s1,%lo(.LANCHOR3)
	.loc 1 89 8
	lbu	a5,0(s1)
	bne	a5,zero,.L44
	.loc 1 90 9 is_stmt 1
	li	a2,3
	li	a1,1
	li	a0,1
	call	GLB_Set_UART_CLK
.LVL32:
	.loc 1 91 9
	.loc 1 91 23 is_stmt 0
	li	a5,1
	sb	a5,0(s1)
.L44:
	.loc 1 95 5 is_stmt 1
	mv	a2,s4
	mv	a1,s3
	mv	a0,s0
	call	gpio_init.constprop.0
.LVL33:
	.loc 1 97 5
	.loc 1 98 21 is_stmt 0
	li	a5,40001536
	addi	a5,a5,-1536
	.loc 1 101 5
	li	a2,1
	li	a1,8
	mv	a0,s0
	.loc 1 98 21
	sw	a5,12(sp)
	.loc 1 97 22
	sw	s2,16(sp)
	.loc 1 98 5 is_stmt 1
	.loc 1 101 5
	call	UART_IntMask
.LVL34:
	.loc 1 104 5
	li	a1,2
	mv	a0,s0
	call	UART_Disable
.LVL35:
	.loc 1 107 5
	addi	a1,sp,12
	mv	a0,s0
	call	UART_Init
.LVL36:
	.loc 1 110 5
	li	a1,1
	mv	a0,s0
	call	UART_TxFreeRun
.LVL37:
	.loc 1 113 5
	mv	a1,sp
	mv	a0,s0
	call	UART_FifoConfig
.LVL38:
	.loc 1 116 5
	mv	a0,s0
	li	a1,2
	call	UART_Enable
.LVL39:
	.loc 1 118 5
	.loc 1 119 1 is_stmt 0
	lw	ra,76(sp)
	.cfi_restore 1
	lw	s0,72(sp)
	.cfi_restore 8
	lw	s1,68(sp)
	.cfi_restore 9
	lw	s2,64(sp)
	.cfi_restore 18
.LVL40:
	lw	s3,60(sp)
	.cfi_restore 19
	lw	s4,56(sp)
	.cfi_restore 20
	li	a0,0
	addi	sp,sp,80
	.cfi_def_cfa_offset 0
	jr	ra
	.cfi_endproc
.LFE9:
	.size	bl_uart_init, .-bl_uart_init
	.section	.text.bl_uart_init_ex,"ax",@progbits
	.align	1
	.globl	bl_uart_init_ex
	.type	bl_uart_init_ex, @function
bl_uart_init_ex:
.LFB10:
	.loc 1 123 1 is_stmt 1
	.cfi_startproc
.LVL41:
	.loc 1 124 5
	.loc 1 125 5
	.loc 1 127 5
	.loc 1 123 1 is_stmt 0
	addi	sp,sp,-80
	.cfi_def_cfa_offset 80
	sw	s5,52(sp)
	.cfi_offset 21, -28
	mv	s5,a1
	.loc 1 127 19
	lui	a1,%hi(.LANCHOR2)
.LVL42:
	.loc 1 123 1
	sw	s0,72(sp)
	sw	s1,68(sp)
	sw	s6,48(sp)
	.cfi_offset 8, -8
	.cfi_offset 9, -12
	.cfi_offset 22, -32
	.loc 1 127 19
	addi	s1,a1,%lo(.LANCHOR2)
	.loc 1 123 1
	mv	s0,a0
	.loc 1 127 19
	addi	a1,a1,%lo(.LANCHOR2)
	.loc 1 123 1
	mv	s6,a2
	.loc 1 127 19
	addi	a0,sp,12
.LVL43:
	li	a2,36
.LVL44:
	.loc 1 123 1
	sw	ra,76(sp)
	sw	s2,64(sp)
	sw	s3,60(sp)
	sw	s4,56(sp)
	.cfi_offset 1, -4
	.cfi_offset 18, -16
	.cfi_offset 19, -20
	.cfi_offset 20, -24
	.loc 1 123 1
	mv	s3,a6
	mv	s4,a5
	mv	s2,a7
	.loc 1 127 19
	call	memcpy
.LVL45:
	.loc 1 139 5 is_stmt 1
	.loc 1 139 23 is_stmt 0
	addi	a1,s1,36
	li	a2,12
	mv	a0,sp
	.loc 1 148 11
	lui	s1,%hi(.LANCHOR4)
	.loc 1 139 23
	call	memcpy
.LVL46:
	.loc 1 148 5 is_stmt 1
	.loc 1 148 11 is_stmt 0
	addi	s1,s1,%lo(.LANCHOR4)
	.loc 1 148 8
	lbu	a5,0(s1)
	bne	a5,zero,.L47
	.loc 1 149 9 is_stmt 1
	li	a2,3
	li	a1,1
	li	a0,1
	call	GLB_Set_UART_CLK
.LVL47:
	.loc 1 150 9
	.loc 1 150 23 is_stmt 0
	li	a5,1
	sb	a5,0(s1)
.L47:
	.loc 1 154 5 is_stmt 1
	mv	a2,s6
	mv	a1,s5
	mv	a0,s0
	call	gpio_init.constprop.0
.LVL48:
	.loc 1 156 5
	.loc 1 157 21 is_stmt 0
	li	a5,40001536
	addi	a5,a5,-1536
	sw	a5,12(sp)
	.loc 1 160 20
	lw	a5,80(sp)
	.loc 1 163 5
	li	a2,1
	li	a1,8
	mv	a0,s0
	.loc 1 160 20
	sw	a5,28(sp)
	.loc 1 156 22
	sw	s4,16(sp)
	.loc 1 157 5 is_stmt 1
	.loc 1 158 5
	.loc 1 158 22 is_stmt 0
	sw	s3,20(sp)
	.loc 1 159 5 is_stmt 1
	.loc 1 159 22 is_stmt 0
	sw	s2,24(sp)
	.loc 1 160 5 is_stmt 1
	.loc 1 163 5
	call	UART_IntMask
.LVL49:
	.loc 1 166 5
	li	a1,2
	mv	a0,s0
	call	UART_Disable
.LVL50:
	.loc 1 169 5
	addi	a1,sp,12
	mv	a0,s0
	call	UART_Init
.LVL51:
	.loc 1 172 5
	li	a1,1
	mv	a0,s0
	call	UART_TxFreeRun
.LVL52:
	.loc 1 175 5
	mv	a1,sp
	mv	a0,s0
	call	UART_FifoConfig
.LVL53:
	.loc 1 178 5
	mv	a0,s0
	li	a1,2
	call	UART_Enable
.LVL54:
	.loc 1 180 5
	.loc 1 181 1 is_stmt 0
	lw	ra,76(sp)
	.cfi_restore 1
	lw	s0,72(sp)
	.cfi_restore 8
	lw	s1,68(sp)
	.cfi_restore 9
	lw	s2,64(sp)
	.cfi_restore 18
.LVL55:
	lw	s3,60(sp)
	.cfi_restore 19
.LVL56:
	lw	s4,56(sp)
	.cfi_restore 20
.LVL57:
	lw	s5,52(sp)
	.cfi_restore 21
	lw	s6,48(sp)
	.cfi_restore 22
	li	a0,0
	addi	sp,sp,80
	.cfi_def_cfa_offset 0
.LVL58:
	jr	ra
	.cfi_endproc
.LFE10:
	.size	bl_uart_init_ex, .-bl_uart_init_ex
	.section	.text.bl_uart_data_send,"ax",@progbits
	.align	1
	.globl	bl_uart_data_send
	.type	bl_uart_data_send, @function
bl_uart_data_send:
.LFB11:
	.loc 1 185 1 is_stmt 1
	.cfi_startproc
.LVL59:
	.loc 1 186 5
	.loc 1 186 14 is_stmt 0
	lui	a5,%hi(.LANCHOR0)
	slli	a4,a0,2
	addi	a5,a5,%lo(.LANCHOR0)
	.loc 1 185 1
	addi	sp,sp,-16
	.cfi_def_cfa_offset 16
	.loc 1 186 14
	add	a5,a5,a4
	.loc 1 185 1
	sw	s2,0(sp)
	.cfi_offset 18, -16
	.loc 1 186 14
	lw	s2,0(a5)
.LVL60:
	.loc 1 189 5 is_stmt 1
	.loc 1 185 1 is_stmt 0
	sw	s0,8(sp)
	sw	s1,4(sp)
	sw	ra,12(sp)
	.cfi_offset 8, -8
	.cfi_offset 9, -12
	.cfi_offset 1, -4
	.loc 1 185 1
	mv	s0,a0
	mv	s1,a1
.LVL61:
.L50:
	.loc 1 190 5 is_stmt 1 discriminator 1
	.loc 1 189 11 discriminator 1
	.loc 1 189 12 is_stmt 0 discriminator 1
	mv	a0,s0
	call	UART_GetTxFifoCount
.LVL62:
	.loc 1 189 11 discriminator 1
	beq	a0,zero,.L50
	.loc 1 192 5 is_stmt 1
	.loc 1 192 44 is_stmt 0
	sb	s1,136(s2)
	.loc 1 194 5 is_stmt 1
	.loc 1 195 1 is_stmt 0
	lw	ra,12(sp)
	.cfi_restore 1
	lw	s0,8(sp)
	.cfi_restore 8
	lw	s1,4(sp)
	.cfi_restore 9
	lw	s2,0(sp)
	.cfi_restore 18
.LVL63:
	li	a0,0
	addi	sp,sp,16
	.cfi_def_cfa_offset 0
	jr	ra
	.cfi_endproc
.LFE11:
	.size	bl_uart_data_send, .-bl_uart_data_send
	.section	.text.bl_uart_data_recv,"ax",@progbits
	.align	1
	.globl	bl_uart_data_recv
	.type	bl_uart_data_recv, @function
bl_uart_data_recv:
.LFB12:
	.loc 1 198 1 is_stmt 1
	.cfi_startproc
.LVL64:
	.loc 1 199 5
	.loc 1 200 5
	.loc 1 200 14 is_stmt 0
	lui	a5,%hi(.LANCHOR0)
	slli	a4,a0,2
	addi	a5,a5,%lo(.LANCHOR0)
	.loc 1 198 1
	addi	sp,sp,-16
	.cfi_def_cfa_offset 16
	.loc 1 200 14
	add	a5,a5,a4
	.loc 1 198 1
	sw	s0,8(sp)
	sw	ra,12(sp)
	.cfi_offset 8, -8
	.cfi_offset 1, -4
	.loc 1 200 14
	lw	s0,0(a5)
.LVL65:
	.loc 1 203 5 is_stmt 1
	.loc 1 203 9 is_stmt 0
	call	UART_GetRxFifoCount
.LVL66:
	.loc 1 203 8
	beq	a0,zero,.L56
	.loc 1 204 9 is_stmt 1
	.loc 1 204 16 is_stmt 0
	lbu	a0,140(s0)
	andi	a0,a0,0xff
.LVL67:
.L54:
	.loc 1 210 1
	lw	ra,12(sp)
	.cfi_remember_state
	.cfi_restore 1
	lw	s0,8(sp)
	.cfi_restore 8
.LVL68:
	addi	sp,sp,16
	.cfi_def_cfa_offset 0
	jr	ra
.LVL69:
.L56:
	.cfi_restore_state
	.loc 1 206 13
	li	a0,-1
.LVL70:
	.loc 1 209 5 is_stmt 1
	.loc 1 209 12 is_stmt 0
	j	.L54
	.cfi_endproc
.LFE12:
	.size	bl_uart_data_recv, .-bl_uart_data_recv
	.section	.text.bl_uart_int_rx_enable,"ax",@progbits
	.align	1
	.globl	bl_uart_int_rx_enable
	.type	bl_uart_int_rx_enable, @function
bl_uart_int_rx_enable:
.LFB13:
	.loc 1 213 1 is_stmt 1
	.cfi_startproc
.LVL71:
	.loc 1 214 5
	.loc 1 213 1 is_stmt 0
	addi	sp,sp,-16
	.cfi_def_cfa_offset 16
	.loc 1 214 5
	li	a1,24
	.loc 1 213 1
	sw	ra,12(sp)
	sw	s0,8(sp)
	.cfi_offset 1, -4
	.cfi_offset 8, -8
	.loc 1 213 1
	mv	s0,a0
	.loc 1 214 5
	call	UART_SetRxTimeoutValue
.LVL72:
	.loc 1 215 5 is_stmt 1
	li	a2,0
	li	a1,3
	mv	a0,s0
	call	UART_IntMask
.LVL73:
	.loc 1 216 5
	li	a2,0
	li	a1,1
	mv	a0,s0
	call	UART_IntMask
.LVL74:
	.loc 1 217 5
	mv	a0,s0
	li	a2,0
	li	a1,4
	call	UART_IntMask
.LVL75:
	.loc 1 218 5
	.loc 1 219 1 is_stmt 0
	lw	ra,12(sp)
	.cfi_restore 1
	lw	s0,8(sp)
	.cfi_restore 8
	li	a0,0
	addi	sp,sp,16
	.cfi_def_cfa_offset 0
	jr	ra
	.cfi_endproc
.LFE13:
	.size	bl_uart_int_rx_enable, .-bl_uart_int_rx_enable
	.section	.text.bl_uart_int_rx_disable,"ax",@progbits
	.align	1
	.globl	bl_uart_int_rx_disable
	.type	bl_uart_int_rx_disable, @function
bl_uart_int_rx_disable:
.LFB14:
	.loc 1 222 1 is_stmt 1
	.cfi_startproc
.LVL76:
	.loc 1 223 5
	.loc 1 222 1 is_stmt 0
	addi	sp,sp,-16
	.cfi_def_cfa_offset 16
	.loc 1 223 5
	li	a2,1
	li	a1,3
	.loc 1 222 1
	sw	ra,12(sp)
	sw	s0,8(sp)
	.cfi_offset 1, -4
	.cfi_offset 8, -8
	.loc 1 222 1
	mv	s0,a0
	.loc 1 223 5
	call	UART_IntMask
.LVL77:
	.loc 1 224 5 is_stmt 1
	li	a2,1
	li	a1,1
	mv	a0,s0
	call	UART_IntMask
.LVL78:
	.loc 1 225 5
	mv	a0,s0
	li	a2,1
	li	a1,4
	call	UART_IntMask
.LVL79:
	.loc 1 226 5
	.loc 1 227 1 is_stmt 0
	lw	ra,12(sp)
	.cfi_restore 1
	lw	s0,8(sp)
	.cfi_restore 8
	li	a0,0
	addi	sp,sp,16
	.cfi_def_cfa_offset 0
	jr	ra
	.cfi_endproc
.LFE14:
	.size	bl_uart_int_rx_disable, .-bl_uart_int_rx_disable
	.section	.text.bl_uart_int_tx_enable,"ax",@progbits
	.align	1
	.globl	bl_uart_int_tx_enable
	.type	bl_uart_int_tx_enable, @function
bl_uart_int_tx_enable:
.LFB15:
	.loc 1 230 1 is_stmt 1
	.cfi_startproc
.LVL80:
	.loc 1 231 5
	.loc 1 230 1 is_stmt 0
	addi	sp,sp,-16
	.cfi_def_cfa_offset 16
	.loc 1 231 5
	li	a2,0
	li	a1,2
	.loc 1 230 1
	sw	ra,12(sp)
	.cfi_offset 1, -4
	.loc 1 231 5
	call	UART_IntMask
.LVL81:
	.loc 1 232 5 is_stmt 1
	.loc 1 233 1 is_stmt 0
	lw	ra,12(sp)
	.cfi_restore 1
	li	a0,0
	addi	sp,sp,16
	.cfi_def_cfa_offset 0
	jr	ra
	.cfi_endproc
.LFE15:
	.size	bl_uart_int_tx_enable, .-bl_uart_int_tx_enable
	.section	.text.bl_uart_int_tx_disable,"ax",@progbits
	.align	1
	.globl	bl_uart_int_tx_disable
	.type	bl_uart_int_tx_disable, @function
bl_uart_int_tx_disable:
.LFB16:
	.loc 1 236 1 is_stmt 1
	.cfi_startproc
.LVL82:
	.loc 1 237 5
	.loc 1 236 1 is_stmt 0
	addi	sp,sp,-16
	.cfi_def_cfa_offset 16
	.loc 1 237 5
	li	a2,1
	li	a1,2
	.loc 1 236 1
	sw	ra,12(sp)
	.cfi_offset 1, -4
	.loc 1 237 5
	call	UART_IntMask
.LVL83:
	.loc 1 238 5 is_stmt 1
	.loc 1 239 1 is_stmt 0
	lw	ra,12(sp)
	.cfi_restore 1
	li	a0,0
	addi	sp,sp,16
	.cfi_def_cfa_offset 0
	jr	ra
	.cfi_endproc
.LFE16:
	.size	bl_uart_int_tx_disable, .-bl_uart_int_tx_disable
	.section	.text.bl_uart_flush,"ax",@progbits
	.align	1
	.globl	bl_uart_flush
	.type	bl_uart_flush, @function
bl_uart_flush:
.LFB17:
	.loc 1 242 1 is_stmt 1
	.cfi_startproc
.LVL84:
	.loc 1 244 5
	.loc 1 242 1 is_stmt 0
	addi	sp,sp,-16
	.cfi_def_cfa_offset 16
	sw	s0,8(sp)
	sw	s1,4(sp)
	sw	ra,12(sp)
	.cfi_offset 8, -8
	.cfi_offset 9, -12
	.cfi_offset 1, -4
	.loc 1 242 1
	mv	s0,a0
	.loc 1 244 11
	li	s1,32
.LVL85:
.L67:
	.loc 1 245 5 is_stmt 1 discriminator 1
	.loc 1 244 11 discriminator 1
	.loc 1 244 20 is_stmt 0 discriminator 1
	mv	a0,s0
	call	UART_GetTxFifoCount
.LVL86:
	.loc 1 244 11 discriminator 1
	bne	a0,s1,.L67
	.loc 1 247 10
	li	s1,1
.L68:
	.loc 1 247 47 is_stmt 1 discriminator 1
	.loc 1 247 10 discriminator 1
	.loc 1 247 11 is_stmt 0 discriminator 1
	mv	a0,s0
	call	UART_GetTxBusBusyStatus
.LVL87:
	.loc 1 247 10 discriminator 1
	beq	a0,s1,.L68
	.loc 1 249 5 is_stmt 1
	.loc 1 250 1 is_stmt 0
	lw	ra,12(sp)
	.cfi_restore 1
	lw	s0,8(sp)
	.cfi_restore 8
	lw	s1,4(sp)
	.cfi_restore 9
	li	a0,0
	addi	sp,sp,16
	.cfi_def_cfa_offset 0
	jr	ra
	.cfi_endproc
.LFE17:
	.size	bl_uart_flush, .-bl_uart_flush
	.section	.text.bl_uart_getdefconfig,"ax",@progbits
	.align	1
	.globl	bl_uart_getdefconfig
	.type	bl_uart_getdefconfig, @function
bl_uart_getdefconfig:
.LFB18:
	.loc 1 253 1 is_stmt 1
	.cfi_startproc
.LVL88:
	.loc 1 254 5
	.loc 1 254 8 is_stmt 0
	beq	a1,zero,.L72
	.loc 1 259 5 is_stmt 1
	.loc 1 259 13 is_stmt 0
	sb	zero,0(a1)
.L72:
	.loc 1 260 1
	ret
	.cfi_endproc
.LFE18:
	.size	bl_uart_getdefconfig, .-bl_uart_getdefconfig
	.section	.text.bl_uart_setconfig,"ax",@progbits
	.align	1
	.globl	bl_uart_setconfig
	.type	bl_uart_setconfig, @function
bl_uart_setconfig:
.LFB19:
	.loc 1 263 1 is_stmt 1
	.cfi_startproc
.LVL89:
	.loc 1 264 5
	.loc 1 263 1 is_stmt 0
	addi	sp,sp,-64
	.cfi_def_cfa_offset 64
	sw	s2,48(sp)
	.cfi_offset 18, -16
	mv	s2,a1
	.loc 1 264 19
	lui	a1,%hi(.LANCHOR2+48)
.LVL90:
	.loc 1 263 1
	sw	s0,56(sp)
	sw	s1,52(sp)
	.cfi_offset 8, -8
	.cfi_offset 9, -12
	mv	s0,a0
	mv	s1,a2
	.loc 1 264 19
	addi	a1,a1,%lo(.LANCHOR2+48)
	li	a2,36
.LVL91:
	addi	a0,sp,12
.LVL92:
	.loc 1 263 1
	sw	ra,60(sp)
	.cfi_offset 1, -4
	.loc 1 264 19
	call	memcpy
.LVL93:
	.loc 1 277 5 is_stmt 1
	.loc 1 281 5 is_stmt 0
	li	a1,2
	mv	a0,s0
	.loc 1 277 22
	sw	s2,16(sp)
	.loc 1 278 5 is_stmt 1
	.loc 1 278 20 is_stmt 0
	sw	s1,28(sp)
	.loc 1 281 5 is_stmt 1
	call	UART_Disable
.LVL94:
	.loc 1 283 5
	addi	a1,sp,12
	mv	a0,s0
	call	UART_Init
.LVL95:
	.loc 1 285 5
	li	a1,1
	mv	a0,s0
	call	UART_TxFreeRun
.LVL96:
	.loc 1 287 5
	mv	a0,s0
	li	a1,2
	call	UART_Enable
.LVL97:
	.loc 1 288 1 is_stmt 0
	lw	ra,60(sp)
	.cfi_restore 1
	lw	s0,56(sp)
	.cfi_restore 8
	lw	s1,52(sp)
	.cfi_restore 9
.LVL98:
	lw	s2,48(sp)
	.cfi_restore 18
.LVL99:
	addi	sp,sp,64
	.cfi_def_cfa_offset 0
	jr	ra
	.cfi_endproc
.LFE19:
	.size	bl_uart_setconfig, .-bl_uart_setconfig
	.section	.text.bl_uart_setbaud,"ax",@progbits
	.align	1
	.globl	bl_uart_setbaud
	.type	bl_uart_setbaud, @function
bl_uart_setbaud:
.LFB20:
	.loc 1 291 1 is_stmt 1
	.cfi_startproc
.LVL100:
	.loc 1 292 5
	li	a2,0
	tail	bl_uart_setconfig
.LVL101:
	.cfi_endproc
.LFE20:
	.size	bl_uart_setbaud, .-bl_uart_setbaud
	.section	.text.bl_uart_int_enable,"ax",@progbits
	.align	1
	.globl	bl_uart_int_enable
	.type	bl_uart_int_enable, @function
bl_uart_int_enable:
.LFB21:
	.loc 1 296 1
	.cfi_startproc
.LVL102:
	.loc 1 297 5
	.loc 1 296 1 is_stmt 0
	addi	sp,sp,-16
	.cfi_def_cfa_offset 16
	sw	ra,12(sp)
	.cfi_offset 1, -4
	.loc 1 297 5
	beq	a0,zero,.L81
	li	a4,1
	beq	a0,a4,.L82
	li	a0,-1
.LVL103:
.L80:
	.loc 1 321 1
	lw	ra,12(sp)
	.cfi_remember_state
	.cfi_restore 1
	addi	sp,sp,16
	.cfi_def_cfa_offset 0
	jr	ra
.LVL104:
.L81:
	.cfi_restore_state
	.loc 1 300 13 is_stmt 1
	call	bl_uart_int_rx_enable
.LVL105:
	.loc 1 301 13
	li	a0,0
	call	bl_uart_int_tx_enable
.LVL106:
	.loc 1 302 13
	lui	a1,%hi(UART0_IRQHandler)
	li	a0,45
	addi	a1,a1,%lo(UART0_IRQHandler)
	call	bl_irq_register
.LVL107:
	.loc 1 303 13
	li	a0,45
.L85:
	.loc 1 311 13 is_stmt 0
	call	bl_irq_enable
.LVL108:
	.loc 1 313 9 is_stmt 1
	.loc 1 320 12 is_stmt 0
	li	a0,0
	.loc 1 313 9
	j	.L80
.LVL109:
.L82:
	.loc 1 308 13 is_stmt 1
	call	bl_uart_int_rx_enable
.LVL110:
	.loc 1 309 13
	li	a0,1
	call	bl_uart_int_tx_enable
.LVL111:
	.loc 1 310 13
	lui	a1,%hi(UART1_IRQHandler)
	li	a0,46
	addi	a1,a1,%lo(UART1_IRQHandler)
	call	bl_irq_register
.LVL112:
	.loc 1 311 13
	li	a0,46
	j	.L85
	.cfi_endproc
.LFE21:
	.size	bl_uart_int_enable, .-bl_uart_int_enable
	.section	.text.bl_uart_int_disable,"ax",@progbits
	.align	1
	.globl	bl_uart_int_disable
	.type	bl_uart_int_disable, @function
bl_uart_int_disable:
.LFB22:
	.loc 1 324 1
	.cfi_startproc
.LVL113:
	.loc 1 325 5
	.loc 1 324 1 is_stmt 0
	addi	sp,sp,-16
	.cfi_def_cfa_offset 16
	sw	ra,12(sp)
	.cfi_offset 1, -4
	.loc 1 325 5
	beq	a0,zero,.L87
	li	a4,1
	beq	a0,a4,.L88
	li	a0,-1
.LVL114:
.L86:
	.loc 1 349 1
	lw	ra,12(sp)
	.cfi_remember_state
	.cfi_restore 1
	addi	sp,sp,16
	.cfi_def_cfa_offset 0
	jr	ra
.LVL115:
.L87:
	.cfi_restore_state
	.loc 1 328 13 is_stmt 1
	call	bl_uart_int_rx_disable
.LVL116:
	.loc 1 329 13
	li	a0,0
	call	bl_uart_int_tx_disable
.LVL117:
	.loc 1 330 13
	lui	a1,%hi(UART0_IRQHandler)
	li	a0,45
	addi	a1,a1,%lo(UART0_IRQHandler)
	call	bl_irq_unregister
.LVL118:
	.loc 1 331 13
	li	a0,45
.L91:
	.loc 1 339 13 is_stmt 0
	call	bl_irq_disable
.LVL119:
	.loc 1 341 9 is_stmt 1
	.loc 1 348 12 is_stmt 0
	li	a0,0
	.loc 1 341 9
	j	.L86
.LVL120:
.L88:
	.loc 1 336 13 is_stmt 1
	call	bl_uart_int_rx_disable
.LVL121:
	.loc 1 337 13
	li	a0,1
	call	bl_uart_int_tx_disable
.LVL122:
	.loc 1 338 13
	lui	a1,%hi(UART1_IRQHandler)
	li	a0,46
	addi	a1,a1,%lo(UART1_IRQHandler)
	call	bl_irq_unregister
.LVL123:
	.loc 1 339 13
	li	a0,46
	j	.L91
	.cfi_endproc
.LFE22:
	.size	bl_uart_int_disable, .-bl_uart_int_disable
	.section	.text.bl_uart_int_rx_notify_register,"ax",@progbits
	.align	1
	.globl	bl_uart_int_rx_notify_register
	.type	bl_uart_int_rx_notify_register, @function
bl_uart_int_rx_notify_register:
.LFB23:
	.loc 1 352 1
	.cfi_startproc
.LVL124:
	.loc 1 353 5
	.loc 1 353 8 is_stmt 0
	li	a5,1
	bgtu	a0,a5,.L94
	.loc 1 358 5 is_stmt 1
	.loc 1 358 33 is_stmt 0
	slli	a5,a0,4
	lui	a0,%hi(.LANCHOR1)
.LVL125:
	addi	a0,a0,%lo(.LANCHOR1)
	add	a0,a0,a5
	sw	a1,0(a0)
	.loc 1 359 5 is_stmt 1
	.loc 1 359 37 is_stmt 0
	sw	a2,4(a0)
	.loc 1 361 5 is_stmt 1
	.loc 1 361 12 is_stmt 0
	li	a0,0
	ret
.LVL126:
.L94:
	.loc 1 355 16
	li	a0,-1
.LVL127:
	.loc 1 362 1
	ret
	.cfi_endproc
.LFE23:
	.size	bl_uart_int_rx_notify_register, .-bl_uart_int_rx_notify_register
	.section	.text.bl_uart_int_tx_notify_register,"ax",@progbits
	.align	1
	.globl	bl_uart_int_tx_notify_register
	.type	bl_uart_int_tx_notify_register, @function
bl_uart_int_tx_notify_register:
.LFB24:
	.loc 1 365 1 is_stmt 1
	.cfi_startproc
.LVL128:
	.loc 1 366 5
	.loc 1 366 8 is_stmt 0
	li	a5,1
	bgtu	a0,a5,.L97
	.loc 1 371 5 is_stmt 1
	.loc 1 371 33 is_stmt 0
	slli	a5,a0,4
	lui	a0,%hi(.LANCHOR1)
.LVL129:
	addi	a0,a0,%lo(.LANCHOR1)
	add	a0,a0,a5
	sw	a1,8(a0)
	.loc 1 372 5 is_stmt 1
	.loc 1 372 37 is_stmt 0
	sw	a2,12(a0)
	.loc 1 374 5 is_stmt 1
	.loc 1 374 12 is_stmt 0
	li	a0,0
	ret
.LVL130:
.L97:
	.loc 1 368 16
	li	a0,-1
.LVL131:
	.loc 1 375 1
	ret
	.cfi_endproc
.LFE24:
	.size	bl_uart_int_tx_notify_register, .-bl_uart_int_tx_notify_register
	.section	.text.bl_uart_int_rx_notify_unregister,"ax",@progbits
	.align	1
	.globl	bl_uart_int_rx_notify_unregister
	.type	bl_uart_int_rx_notify_unregister, @function
bl_uart_int_rx_notify_unregister:
.LFB25:
	.loc 1 378 1 is_stmt 1
	.cfi_startproc
.LVL132:
	.loc 1 379 5
	.loc 1 379 8 is_stmt 0
	li	a5,1
	bgtu	a0,a5,.L100
	.loc 1 383 5 is_stmt 1
	.loc 1 383 33 is_stmt 0
	slli	a5,a0,4
	lui	a0,%hi(.LANCHOR1)
.LVL133:
	addi	a0,a0,%lo(.LANCHOR1)
	add	a0,a0,a5
	sw	zero,0(a0)
	.loc 1 384 5 is_stmt 1
	.loc 1 384 37 is_stmt 0
	sw	zero,4(a0)
	.loc 1 386 5 is_stmt 1
	.loc 1 386 12 is_stmt 0
	li	a0,0
	ret
.LVL134:
.L100:
	.loc 1 381 16
	li	a0,-1
.LVL135:
	.loc 1 387 1
	ret
	.cfi_endproc
.LFE25:
	.size	bl_uart_int_rx_notify_unregister, .-bl_uart_int_rx_notify_unregister
	.section	.text.bl_uart_int_tx_notify_unregister,"ax",@progbits
	.align	1
	.globl	bl_uart_int_tx_notify_unregister
	.type	bl_uart_int_tx_notify_unregister, @function
bl_uart_int_tx_notify_unregister:
.LFB26:
	.loc 1 390 1 is_stmt 1
	.cfi_startproc
.LVL136:
	.loc 1 391 5
	.loc 1 391 8 is_stmt 0
	li	a5,1
	bgtu	a0,a5,.L103
	.loc 1 395 5 is_stmt 1
	.loc 1 395 33 is_stmt 0
	slli	a5,a0,4
	lui	a0,%hi(.LANCHOR1)
.LVL137:
	addi	a0,a0,%lo(.LANCHOR1)
	add	a0,a0,a5
	sw	zero,8(a0)
	.loc 1 396 5 is_stmt 1
	.loc 1 396 37 is_stmt 0
	sw	zero,12(a0)
	.loc 1 398 5 is_stmt 1
	.loc 1 398 12 is_stmt 0
	li	a0,0
	ret
.LVL138:
.L103:
	.loc 1 393 16
	li	a0,-1
.LVL139:
	.loc 1 399 1
	ret
	.cfi_endproc
.LFE26:
	.size	bl_uart_int_tx_notify_unregister, .-bl_uart_int_tx_notify_unregister
	.section	.rodata
	.align	2
	.set	.LANCHOR2,. + 0
.LC0:
	.word	160000000
	.word	115200
	.word	3
	.word	1
	.word	0
	.word	0
	.word	0
	.word	0
	.word	0
.LC1:
	.byte	16
	.byte	16
	.zero	2
	.word	0
	.word	0
.LC2:
	.word	40000000
	.word	115200
	.word	3
	.word	1
	.word	0
	.word	0
	.word	0
	.word	0
	.word	0
	.section	.bss.g_uart_notify_arg,"aw",@nobits
	.align	2
	.set	.LANCHOR1,. + 0
	.type	g_uart_notify_arg, @object
	.size	g_uart_notify_arg, 32
g_uart_notify_arg:
	.zero	32
	.section	.sbss.uart_clk_init.0,"aw",@nobits
	.set	.LANCHOR4,. + 0
	.type	uart_clk_init.0, @object
	.size	uart_clk_init.0, 1
uart_clk_init.0:
	.zero	1
	.section	.sbss.uart_clk_init.1,"aw",@nobits
	.set	.LANCHOR3,. + 0
	.type	uart_clk_init.1, @object
	.size	uart_clk_init.1, 1
uart_clk_init.1:
	.zero	1
	.section	.srodata.uartAddr,"a"
	.align	2
	.set	.LANCHOR0,. + 0
	.type	uartAddr, @object
	.size	uartAddr, 8
uartAddr:
	.word	1073782784
	.word	1073783040
	.text
.Letext0:
	.file 2 "/mnt/d/GitHub/bl_iot_sdk_for_aithinker/toolchain/riscv/Linux/lib/gcc/riscv64-unknown-elf/10.2.0/include/stdint-gcc.h"
	.file 3 "/mnt/d/GitHub/bl_iot_sdk_for_aithinker/components/platform/soc/bl602/bl602_std/bl602_std/Device/Bouffalo/BL602/Peripherals/bl602.h"
	.file 4 "/mnt/d/GitHub/bl_iot_sdk_for_aithinker/components/platform/soc/bl602/bl602_std/bl602_std/StdDriver/Inc/bl602_common.h"
	.file 5 "/mnt/d/GitHub/bl_iot_sdk_for_aithinker/components/platform/soc/bl602/bl602_std/bl602_std/StdDriver/Inc/bl602_uart.h"
	.file 6 "/mnt/d/GitHub/bl_iot_sdk_for_aithinker/components/platform/soc/bl602/bl602_std/bl602_std/StdDriver/Inc/bl602_gpio.h"
	.file 7 "/mnt/d/GitHub/bl_iot_sdk_for_aithinker/components/platform/soc/bl602/bl602_std/bl602_std/StdDriver/Inc/bl602_hbn.h"
	.file 8 "/mnt/d/GitHub/bl_iot_sdk_for_aithinker/components/platform/soc/bl602/bl602_std/bl602_std/StdDriver/Inc/bl602_glb.h"
	.file 9 "/mnt/d/GitHub/bl_iot_sdk_for_aithinker/components/platform/hosal/bl602_hal/bl_uart.h"
	.file 10 "/mnt/d/GitHub/bl_iot_sdk_for_aithinker/components/platform/hosal/bl602_hal/bl_irq.h"
	.file 11 "<built-in>"