	.file	"bl_wdt_cli.c"
	.option nopic
	.attribute arch, "rv32i2p0_m2p0_f2p0_c2p0"
	.attribute unaligned_access, 0
	.attribute stack_align, 16
	.text
.Ltext0:
	.cfi_sections	.debug_frame
	.section	.text.cmd_timer_start,"ax",@progbits
	.align	1
	.type	cmd_timer_start, @function
cmd_timer_start:
.LFB7:
	.file 1 "/mnt/d/GitHub/bl_iot_sdk_for_aithinker/components/platform/hosal/bl602_hal/bl_wdt_cli.c"
	.loc 1 35 1
	.cfi_startproc
.LVL0:
	.loc 1 36 1
	.loc 1 37 5
	tail	bl_timer_tick_enable
.LVL1:
	.cfi_endproc
.LFE7:
	.size	cmd_timer_start, .-cmd_timer_start
	.section	.text.cmd_wdt_disable,"ax",@progbits
	.align	1
	.type	cmd_wdt_disable, @function
cmd_wdt_disable:
.LFB6:
	.loc 1 30 1
	.cfi_startproc
.LVL2:
	.loc 1 31 5
	tail	bl_wdt_disable
.LVL3:
	.cfi_endproc
.LFE6:
	.size	cmd_wdt_disable, .-cmd_wdt_disable
	.section	.text.cmd_wdt_feed,"ax",@progbits
	.align	1
	.type	cmd_wdt_feed, @function
cmd_wdt_feed:
.LFB5:
	.loc 1 25 1
	.cfi_startproc
.LVL4:
	.loc 1 26 5
	tail	bl_wdt_feed
.LVL5:
	.cfi_endproc
.LFE5:
	.size	cmd_wdt_feed, .-cmd_wdt_feed
	.section	.rodata.cmd_wdt_init.str1.4,"aMS",@progbits,1
	.align	2
.LC0:
	.string	"bl_wdt_cli.c"
	.align	2
.LC1:
	.string	"\033[31mERROR\033[0m"
	.align	2
.LC2:
	.string	"%s (%d)[%s:%4d] Usage: %s ms\r\n\r\n"
	.align	2
.LC3:
	.string	"\033[32mINFO\033[0m"
	.align	2
.LC4:
	.string	"%s (%d)[%s:%4d] Init WDT with %dms\r\n\r\n"
	.section	.text.cmd_wdt_init,"ax",@progbits
	.align	1
	.type	cmd_wdt_init, @function
cmd_wdt_init:
.LFB4:
	.loc 1 9 1
	.cfi_startproc
.LVL6:
	.loc 1 10 5
	.loc 1 12 5
	.loc 1 9 1 is_stmt 0
	addi	sp,sp,-16
	.cfi_def_cfa_offset 16
	sw	s0,8(sp)
	sw	s2,0(sp)
	sw	ra,12(sp)
	sw	s1,4(sp)
	.cfi_offset 8, -8
	.cfi_offset 18, -16
	.cfi_offset 1, -4
	.cfi_offset 9, -12
	.loc 1 12 8
	li	a5,2
	.loc 1 9 1
	mv	s0,a3
	lui	s2,%hi(_fsymc_level_hosal)
	.loc 1 12 8
	beq	a2,a5,.L5
	.loc 1 13 9 is_stmt 1 discriminator 1
	.loc 1 13 47 discriminator 1
	.loc 1 13 52 discriminator 1
	.loc 1 13 55 is_stmt 0 discriminator 1
	lw	a4,%lo(_fsymc_level_hosal)(s2)
	li	a5,4
	bgtu	a4,a5,.L4
	.loc 1 13 118 discriminator 3
	lui	a4,%hi(_fsymf_level_hosalbl_wdt_cli)
	.loc 1 13 97 discriminator 3
	lw	a4,%lo(_fsymf_level_hosalbl_wdt_cli)(a4)
	bgtu	a4,a5,.L4
	.loc 1 13 154 is_stmt 1 discriminator 5
	.loc 1 13 235 is_stmt 0 discriminator 5
	call	xPortIsInsideInterrupt
.LVL7:
	.loc 1 13 154 discriminator 5
	beq	a0,zero,.L9
	.loc 1 13 264 discriminator 7
	call	xTaskGetTickCountFromISR
.LVL8:
.L15:
	.loc 1 13 154 discriminator 8
	lw	a5,0(s0)
	.loc 1 22 1 discriminator 8
	lw	s0,8(sp)
	.cfi_remember_state
	.cfi_restore 8
.LVL9:
	lw	ra,12(sp)
	.cfi_restore 1
	lw	s1,4(sp)
	.cfi_restore 9
	lw	s2,0(sp)
	.cfi_restore 18
	.loc 1 13 295 discriminator 8
	mv	a2,a0
	.loc 1 13 154 discriminator 8
	lui	a3,%hi(.LC0)
	lui	a1,%hi(.LC1)
	lui	a0,%hi(.LC2)
	.loc 1 22 1 discriminator 8
	.loc 1 13 154 discriminator 8
	li	a4,13
	addi	a3,a3,%lo(.LC0)
	addi	a1,a1,%lo(.LC1)
	addi	a0,a0,%lo(.LC2)
	.loc 1 22 1 discriminator 8
	addi	sp,sp,16
	.cfi_def_cfa_offset 0
	.loc 1 13 154 discriminator 8
	tail	bl_printk
.LVL10:
.L9:
	.cfi_restore_state
	.loc 1 13 295 discriminator 8
	call	xTaskGetTickCount
.LVL11:
	j	.L15
.LVL12:
.L5:
	.loc 1 16 10
	lw	a0,4(a3)
.LVL13:
	mv	s1,a2
	.loc 1 16 5 is_stmt 1
	.loc 1 16 10 is_stmt 0
	call	atoi
.LVL14:
	.loc 1 17 51
	lw	a5,%lo(_fsymc_level_hosal)(s2)
	.loc 1 16 10
	mv	s0,a0
.LVL15:
	.loc 1 17 5 is_stmt 1
	.loc 1 17 43
	.loc 1 17 48
	.loc 1 17 51 is_stmt 0
	bgtu	a5,s1,.L11
	.loc 1 17 112 discriminator 3
	lui	a5,%hi(_fsymf_level_hosalbl_wdt_cli)
	.loc 1 17 92 discriminator 3
	lw	a5,%lo(_fsymf_level_hosalbl_wdt_cli)(a5)
	bgtu	a5,s1,.L11
	.loc 1 17 148 is_stmt 1 discriminator 5
	.loc 1 17 234 is_stmt 0 discriminator 5
	call	xPortIsInsideInterrupt
.LVL16:
	.loc 1 17 148 discriminator 5
	beq	a0,zero,.L12
	.loc 1 17 263 discriminator 7
	call	xTaskGetTickCountFromISR
.LVL17:
.L16:
	.loc 1 17 294 discriminator 8
	mv	a2,a0
	.loc 1 17 148 discriminator 8
	lui	a3,%hi(.LC0)
	lui	a1,%hi(.LC3)
	lui	a0,%hi(.LC4)
	mv	a5,s0
	li	a4,17
	addi	a3,a3,%lo(.LC0)
	addi	a1,a1,%lo(.LC3)
	addi	a0,a0,%lo(.LC4)
	call	bl_printk
.LVL18:
.L11:
	.loc 1 17 351 is_stmt 1 discriminator 11
	.loc 1 17 362 discriminator 11
	.loc 1 18 5 discriminator 11
	.loc 1 18 8 is_stmt 0 discriminator 11
	ble	s0,zero,.L4
	.loc 1 21 5 is_stmt 1
	mv	a0,s0
	.loc 1 22 1 is_stmt 0
	lw	s0,8(sp)
	.cfi_remember_state
	.cfi_restore 8
.LVL19:
	lw	ra,12(sp)
	.cfi_restore 1
	lw	s1,4(sp)
	.cfi_restore 9
.LVL20:
	lw	s2,0(sp)
	.cfi_restore 18
	addi	sp,sp,16
	.cfi_def_cfa_offset 0
	.loc 1 21 5
	tail	bl_wdt_init
.LVL21:
.L12:
	.cfi_restore_state
	.loc 1 17 294 discriminator 8
	call	xTaskGetTickCount
.LVL22:
	j	.L16
.LVL23:
.L4:
	.loc 1 22 1
	lw	ra,12(sp)
	.cfi_restore 1
	lw	s0,8(sp)
	.cfi_restore 8
	lw	s1,4(sp)
	.cfi_restore 9
	lw	s2,0(sp)
	.cfi_restore 18
	addi	sp,sp,16
	.cfi_def_cfa_offset 0
	jr	ra
	.cfi_endproc
.LFE4:
	.size	cmd_wdt_init, .-cmd_wdt_init
	.section	.text.bl_wdt_cli_init,"ax",@progbits
	.align	1
	.globl	bl_wdt_cli_init
	.type	bl_wdt_cli_init, @function
bl_wdt_cli_init:
.LFB8:
	.loc 1 48 1 is_stmt 1
	.cfi_startproc
	.loc 1 53 5
	.loc 1 54 1 is_stmt 0
	li	a0,0
	ret
	.cfi_endproc
.LFE8:
	.size	bl_wdt_cli_init, .-bl_wdt_cli_init
	.section	.rodata.str1.4,"aMS",@progbits,1
	.align	2
.LC5:
	.string	"wdt-init"
	.align	2
.LC6:
	.string	"wdt-init ms"
	.align	2
.LC7:
	.string	"wdt-feed"
	.align	2
.LC8:
	.string	"wdt-disable"
	.align	2
.LC9:
	.string	"timer-start"
	.globl	_fsymf_info_hosalbl_wdt_cli
	.align	2
.LC10:
	.string	"hosal.bl_wdt_cli"
	.comm	_fsymf_level_hosalbl_wdt_cli,4,4
	.align	2
.LC11:
	.string	"hosal"
	.weak	_fsymc_level_hosal
	.section	.sbss._fsymc_level_hosal,"aw",@nobits
	.align	2
	.type	_fsymc_level_hosal, @object
	.size	_fsymc_level_hosal, 4
_fsymc_level_hosal:
	.zero	4
	.section	.srodata.BLOG_HARD_DECLARE_DISABLE,"a"
	.align	2
	.type	BLOG_HARD_DECLARE_DISABLE, @object
	.size	BLOG_HARD_DECLARE_DISABLE, 4
BLOG_HARD_DECLARE_DISABLE:
	.zero	4
	.section	.static_blogcomponent_code.hosal,"a"
	.align	2
	.type	_fsymc_info_hosal, @object
	.size	_fsymc_info_hosal, 8
_fsymc_info_hosal:
	.word	_fsymc_level_hosal
	.word	.LC11
	.section	.static_blogfile_code.hosalbl_wdt_cli,"a"
	.align	2
	.type	_fsymf_info_hosalbl_wdt_cli, @object
	.size	_fsymf_info_hosalbl_wdt_cli, 8
_fsymf_info_hosalbl_wdt_cli:
	.word	_fsymf_level_hosalbl_wdt_cli
	.word	.LC10
	.section	.static_cli_cmds,"a"
	.align	2
	.type	cmds_user, @object
	.size	cmds_user, 48
cmds_user:
	.word	.LC5
	.word	.LC6
	.word	cmd_wdt_init
	.word	.LC7
	.word	.LC7
	.word	cmd_wdt_feed
	.word	.LC8
	.word	.LC8
	.word	cmd_wdt_disable
	.word	.LC9
	.word	.LC9
	.word	cmd_timer_start
	.text
.Letext0:
	.file 2 "/mnt/d/GitHub/bl_iot_sdk_for_aithinker/toolchain/riscv/Linux/riscv64-unknown-elf/include/machine/_default_types.h"
	.file 3 "/mnt/d/GitHub/bl_iot_sdk_for_aithinker/toolchain/riscv/Linux/riscv64-unknown-elf/include/sys/_stdint.h"
	.file 4 "/mnt/d/GitHub/bl_iot_sdk_for_aithinker/components/stage/cli/cli/include/cli.h"
	.file 5 "/mnt/d/GitHub/bl_iot_sdk_for_aithinker/components/stage/blog/blog_type.h"
	.file 6 "/mnt/d/GitHub/bl_iot_sdk_for_aithinker/components/stage/blog/blog.h"
	.file 7 "/mnt/d/GitHub/bl_iot_sdk_for_aithinker/components/platform/hosal/bl602_hal/bl_wdt.h"
	.file 8 "/mnt/d/GitHub/bl_iot_sdk_for_aithinker/components/platform/soc/bl602/freertos_riscv_ram/portable/GCC/RISC-V/portmacro.h"
	.file 9 "/mnt/d/GitHub/bl_iot_sdk_for_aithinker/components/platform/soc/bl602/freertos_riscv_ram/config/task.h"
	.file 10 "/mnt/d/GitHub/bl_iot_sdk_for_aithinker/components/utils/include/utils_log.h"
	.file 11 "/mnt/d/GitHub/bl_iot_sdk_for_aithinker/toolchain/riscv/Linux/riscv64-unknown-elf/include/stdlib.h"