	.file	"bl_wdt.c"
	.option nopic
	.attribute arch, "rv32i2p0_m2p0_f2p0_c2p0"
	.attribute unaligned_access, 0
	.attribute stack_align, 16
	.text
.Ltext0:
	.cfi_sections	.debug_frame
	.section	.text.bl_wdt_feed,"ax",@progbits
	.align	1
	.globl	bl_wdt_feed
	.type	bl_wdt_feed, @function
bl_wdt_feed:
.LFB9:
	.file 1 "/mnt/d/GitHub/bl_iot_sdk_for_aithinker/components/platform/hosal/bl602_hal/bl_wdt.c"
	.loc 1 27 1
	.cfi_startproc
	.loc 1 28 5
	tail	WDT_ResetCounterValue
.LVL0:
	.cfi_endproc
.LFE9:
	.size	bl_wdt_feed, .-bl_wdt_feed
	.section	.text.bl_wdt_disable,"ax",@progbits
	.align	1
	.globl	bl_wdt_disable
	.type	bl_wdt_disable, @function
bl_wdt_disable:
.LFB10:
	.loc 1 32 1
	.cfi_startproc
	.loc 1 33 5
	tail	WDT_Disable
.LVL1:
	.cfi_endproc
.LFE10:
	.size	bl_wdt_disable, .-bl_wdt_disable
	.section	.text.bl_wdt_init,"ax",@progbits
	.align	1
	.globl	bl_wdt_init
	.type	bl_wdt_init, @function
bl_wdt_init:
.LFB11:
	.loc 1 37 1
	.cfi_startproc
.LVL2:
	.loc 1 38 5
	.loc 1 38 8 is_stmt 0
	li	a5,65536
	addi	a5,a5,-2
	bgt	a0,a5,.L5
	.loc 1 37 1
	addi	sp,sp,-16
	.cfi_def_cfa_offset 16
	sw	ra,12(sp)
	sw	s0,8(sp)
	.cfi_offset 1, -4
	.cfi_offset 8, -8
	mv	s0,a0
	.loc 1 41 5 is_stmt 1
.LVL3:
.LBB4:
.LBB5:
	.loc 1 16 5
	call	WDT_Disable
.LVL4:
	.loc 1 17 5
	li	a1,31
	li	a0,1
	call	WDT_Set_Clock
.LVL5:
	.loc 1 18 5
	slli	a0,s0,16
	srli	a0,a0,16
	call	WDT_SetCompValue
.LVL6:
	.loc 1 20 5
	call	WDT_ResetCounterValue
.LVL7:
	.loc 1 21 5
	li	a0,0
	li	a1,1
	call	WDT_IntMask
.LVL8:
	.loc 1 23 5
	call	WDT_Enable
.LVL9:
.LBE5:
.LBE4:
	.loc 1 43 1 is_stmt 0
	lw	ra,12(sp)
	.cfi_restore 1
	lw	s0,8(sp)
	.cfi_restore 8
.LVL10:
	.loc 1 42 12
	li	a0,0
	.loc 1 43 1
	addi	sp,sp,16
	.cfi_def_cfa_offset 0
	jr	ra
.LVL11:
.L5:
	.loc 1 39 16
	li	a0,-1
.LVL12:
	.loc 1 43 1
	ret
	.cfi_endproc
.LFE11:
	.size	bl_wdt_init, .-bl_wdt_init
	.text
.Letext0:
	.file 2 "/mnt/d/GitHub/bl_iot_sdk_for_aithinker/components/platform/soc/bl602/bl602_std/bl602_std/StdDriver/Inc/bl602_common.h"
	.file 3 "/mnt/d/GitHub/bl_iot_sdk_for_aithinker/components/platform/soc/bl602/bl602_std/bl602_std/StdDriver/Inc/bl602_timer.h"