	.file	"bl_wifi.c"
	.option nopic
	.attribute arch, "rv32i2p0_m2p0_f2p0_c2p0"
	.attribute unaligned_access, 0
	.attribute stack_align, 16
	.text
.Ltext0:
	.cfi_sections	.debug_frame
	.section	.text.bl_wifi_clock_enable,"ax",@progbits
	.align	1
	.globl	bl_wifi_clock_enable
	.type	bl_wifi_clock_enable, @function
bl_wifi_clock_enable:
.LFB8:
	.file 1 "/mnt/d/GitHub/bl_iot_sdk_for_aithinker/components/platform/hosal/bl602_hal/bl_wifi.c"
	.loc 1 28 1
	.cfi_startproc
	.loc 1 29 5
	.loc 1 30 5
	.loc 1 30 11 is_stmt 0
	lui	a5,%hi(.LANCHOR0)
	addi	a5,a5,%lo(.LANCHOR0)
	.loc 1 30 8
	lw	a4,0(a5)
	bne	a4,zero,.L2
	.loc 1 31 9 is_stmt 1
	.loc 1 31 16 is_stmt 0
	li	a4,1
	sw	a4,0(a5)
.L2:
	.loc 1 35 5 is_stmt 1
	.loc 1 36 1 is_stmt 0
	li	a0,0
	ret
	.cfi_endproc
.LFE8:
	.size	bl_wifi_clock_enable, .-bl_wifi_clock_enable
	.section	.rodata.bl_wifi_enable_irq.str1.4,"aMS",@progbits,1
	.align	2
.LC0:
	.string	"Enable BMX IRQ\r\n"
	.section	.text.bl_wifi_enable_irq,"ax",@progbits
	.align	1
	.globl	bl_wifi_enable_irq
	.type	bl_wifi_enable_irq, @function
bl_wifi_enable_irq:
.LFB9:
	.loc 1 42 1 is_stmt 1
	.cfi_startproc
	.loc 1 43 5
	lui	a1,%hi(mac_irq)
	.loc 1 42 1 is_stmt 0
	addi	sp,sp,-16
	.cfi_def_cfa_offset 16
	.loc 1 43 5
	addi	a1,a1,%lo(mac_irq)
	li	a0,70
	.loc 1 42 1
	sw	ra,12(sp)
	.cfi_offset 1, -4
	.loc 1 43 5
	call	bl_irq_register
.LVL0:
	.loc 1 44 5 is_stmt 1
	lui	a1,%hi(bl_irq_handler)
	addi	a1,a1,%lo(bl_irq_handler)
	li	a0,79
	call	bl_irq_register
.LVL1:
	.loc 1 45 5
	li	a0,70
	call	bl_irq_enable
.LVL2:
	.loc 1 46 5
	li	a0,79
	call	bl_irq_enable
.LVL3:
	.loc 1 50 5
	lui	a0,%hi(.LC0)
	addi	a0,a0,%lo(.LC0)
	call	puts
.LVL4:
	.loc 1 58 5
	.loc 1 59 1 is_stmt 0
	lw	ra,12(sp)
	.cfi_restore 1
	li	a0,0
	addi	sp,sp,16
	.cfi_def_cfa_offset 0
	jr	ra
	.cfi_endproc
.LFE9:
	.size	bl_wifi_enable_irq, .-bl_wifi_enable_irq
	.section	.text.bl_wifi_sta_mac_addr_set,"ax",@progbits
	.align	1
	.globl	bl_wifi_sta_mac_addr_set
	.type	bl_wifi_sta_mac_addr_set, @function
bl_wifi_sta_mac_addr_set:
.LFB10:
	.loc 1 63 1 is_stmt 1
	.cfi_startproc
.LVL5:
	.loc 1 64 5
	.loc 1 63 1 is_stmt 0
	mv	a1,a0
	.loc 1 64 5
	lui	a0,%hi(wifi_env)
.LVL6:
	.loc 1 63 1
	addi	sp,sp,-16
	.cfi_def_cfa_offset 16
	.loc 1 64 5
	li	a2,6
	addi	a0,a0,%lo(wifi_env)
	.loc 1 63 1
	sw	ra,12(sp)
	.cfi_offset 1, -4
	.loc 1 64 5
	call	memcpy
.LVL7:
	.loc 1 65 5 is_stmt 1
	.loc 1 66 1 is_stmt 0
	lw	ra,12(sp)
	.cfi_restore 1
	li	a0,0
	addi	sp,sp,16
	.cfi_def_cfa_offset 0
	jr	ra
	.cfi_endproc
.LFE10:
	.size	bl_wifi_sta_mac_addr_set, .-bl_wifi_sta_mac_addr_set
	.section	.text.bl_wifi_ap_mac_addr_set,"ax",@progbits
	.align	1
	.globl	bl_wifi_ap_mac_addr_set
	.type	bl_wifi_ap_mac_addr_set, @function
bl_wifi_ap_mac_addr_set:
.LFB11:
	.loc 1 69 1 is_stmt 1
	.cfi_startproc
.LVL8:
	.loc 1 70 5
	.loc 1 69 1 is_stmt 0
	mv	a1,a0
	.loc 1 70 5
	lui	a0,%hi(wifi_env+12)
.LVL9:
	.loc 1 69 1
	addi	sp,sp,-16
	.cfi_def_cfa_offset 16
	.loc 1 70 5
	li	a2,6
	addi	a0,a0,%lo(wifi_env+12)
	.loc 1 69 1
	sw	ra,12(sp)
	.cfi_offset 1, -4
	.loc 1 70 5
	call	memcpy
.LVL10:
	.loc 1 71 5 is_stmt 1
	.loc 1 72 1 is_stmt 0
	lw	ra,12(sp)
	.cfi_restore 1
	li	a0,0
	addi	sp,sp,16
	.cfi_def_cfa_offset 0
	jr	ra
	.cfi_endproc
.LFE11:
	.size	bl_wifi_ap_mac_addr_set, .-bl_wifi_ap_mac_addr_set
	.section	.text.bl_wifi_mac_addr_set,"ax",@progbits
	.align	1
	.globl	bl_wifi_mac_addr_set
	.type	bl_wifi_mac_addr_set, @function
bl_wifi_mac_addr_set:
.LFB12:
	.loc 1 75 1 is_stmt 1
	.cfi_startproc
.LVL11:
	.loc 1 76 5
	.loc 1 75 1 is_stmt 0
	mv	a1,a0
	.loc 1 76 5
	lui	a0,%hi(wifi_env+6)
.LVL12:
	.loc 1 75 1
	addi	sp,sp,-16
	.cfi_def_cfa_offset 16
	.loc 1 76 5
	li	a2,6
	addi	a0,a0,%lo(wifi_env+6)
	.loc 1 75 1
	sw	ra,12(sp)
	.cfi_offset 1, -4
	.loc 1 76 5
	call	memcpy
.LVL13:
	.loc 1 77 5 is_stmt 1
	.loc 1 78 1 is_stmt 0
	lw	ra,12(sp)
	.cfi_restore 1
	li	a0,0
	addi	sp,sp,16
	.cfi_def_cfa_offset 0
	jr	ra
	.cfi_endproc
.LFE12:
	.size	bl_wifi_mac_addr_set, .-bl_wifi_mac_addr_set
	.section	.text.bl_wifi_mac_addr_get,"ax",@progbits
	.align	1
	.globl	bl_wifi_mac_addr_get
	.type	bl_wifi_mac_addr_get, @function
bl_wifi_mac_addr_get:
.LFB13:
	.loc 1 81 1 is_stmt 1
	.cfi_startproc
.LVL14:
	.loc 1 82 5
	lui	a1,%hi(wifi_env)
	.loc 1 81 1 is_stmt 0
	addi	sp,sp,-16
	.cfi_def_cfa_offset 16
	.loc 1 82 5
	li	a2,6
	addi	a1,a1,%lo(wifi_env)
	.loc 1 81 1
	sw	ra,12(sp)
	.cfi_offset 1, -4
	.loc 1 82 5
	call	memcpy
.LVL15:
	.loc 1 83 5 is_stmt 1
	.loc 1 84 1 is_stmt 0
	lw	ra,12(sp)
	.cfi_restore 1
	li	a0,0
	addi	sp,sp,16
	.cfi_def_cfa_offset 0
	jr	ra
	.cfi_endproc
.LFE13:
	.size	bl_wifi_mac_addr_get, .-bl_wifi_mac_addr_get
	.section	.text.bl_wifi_country_code_set,"ax",@progbits
	.align	1
	.globl	bl_wifi_country_code_set
	.type	bl_wifi_country_code_set, @function
bl_wifi_country_code_set:
.LFB14:
	.loc 1 88 1 is_stmt 1
	.cfi_startproc
.LVL16:
	.loc 1 89 5
	.loc 1 89 27 is_stmt 0
	lui	a5,%hi(wifi_env+24)
	sb	a0,%lo(wifi_env+24)(a5)
	.loc 1 90 5 is_stmt 1
	.loc 1 91 1 is_stmt 0
	li	a0,0
.LVL17:
	ret
	.cfi_endproc
.LFE14:
	.size	bl_wifi_country_code_set, .-bl_wifi_country_code_set
	.section	.text.bl_wifi_ap_info_set,"ax",@progbits
	.align	1
	.globl	bl_wifi_ap_info_set
	.type	bl_wifi_ap_info_set, @function
bl_wifi_ap_info_set:
.LFB15:
	.loc 1 104 1 is_stmt 1
	.cfi_startproc
.LVL18:
	.loc 1 105 5
	.loc 1 104 1 is_stmt 0
	addi	sp,sp,-32
	.cfi_def_cfa_offset 32
	sw	s5,4(sp)
	.cfi_offset 21, -28
	.loc 1 105 5
	lui	s5,%hi(wifi_env+25)
	.loc 1 104 1
	sw	s1,20(sp)
	sw	s3,12(sp)
	sw	s4,8(sp)
	.cfi_offset 9, -12
	.cfi_offset 19, -20
	.cfi_offset 20, -24
	mv	s3,a0
	mv	s4,a1
	mv	s1,a2
	.loc 1 105 5
	li	a1,0
.LVL19:
	li	a2,99
.LVL20:
	addi	a0,s5,%lo(wifi_env+25)
.LVL21:
	.loc 1 104 1
	sw	ra,28(sp)
	sw	s0,24(sp)
	sw	s2,16(sp)
	.cfi_offset 1, -4
	.cfi_offset 8, -8
	.cfi_offset 18, -16
	.loc 1 104 1
	mv	s0,a4
	mv	s2,a3
	.loc 1 105 5
	call	memset
.LVL22:
	.loc 1 106 5 is_stmt 1
	mv	a2,s4
	mv	a1,s3
	addi	a0,s5,%lo(wifi_env+25)
	call	memcpy
.LVL23:
	.loc 1 107 5
	lui	a0,%hi(wifi_env+58)
	mv	a2,s2
	mv	a1,s1
	addi	a0,a0,%lo(wifi_env+58)
	call	memcpy
.LVL24:
	.loc 1 108 5
	.loc 1 108 27 is_stmt 0
	lui	a5,%hi(wifi_env)
	addi	a5,a5,%lo(wifi_env)
	.loc 1 109 25
	li	a4,1
	.loc 1 108 27
	sb	s0,123(a5)
	.loc 1 109 5 is_stmt 1
	.loc 1 109 25 is_stmt 0
	sb	a4,124(a5)
	.loc 1 110 5 is_stmt 1
	.loc 1 111 1 is_stmt 0
	lw	ra,28(sp)
	.cfi_restore 1
	lw	s0,24(sp)
	.cfi_restore 8
	lw	s1,20(sp)
	.cfi_restore 9
.LVL25:
	lw	s2,16(sp)
	.cfi_restore 18
	lw	s3,12(sp)
	.cfi_restore 19
.LVL26:
	lw	s4,8(sp)
	.cfi_restore 20
	lw	s5,4(sp)
	.cfi_restore 21
	li	a0,0
	addi	sp,sp,32
	.cfi_def_cfa_offset 0
	jr	ra
	.cfi_endproc
.LFE15:
	.size	bl_wifi_ap_info_set, .-bl_wifi_ap_info_set
	.section	.text.bl_wifi_ap_info_get,"ax",@progbits
	.align	1
	.globl	bl_wifi_ap_info_get
	.type	bl_wifi_ap_info_get, @function
bl_wifi_ap_info_get:
.LFB16:
	.loc 1 114 1 is_stmt 1
	.cfi_startproc
.LVL27:
	.loc 1 115 5
	.loc 1 115 17 is_stmt 0
	lui	a5,%hi(wifi_env+124)
	.loc 1 115 8
	lbu	a4,%lo(wifi_env+124)(a5)
	li	a5,1
	bne	a4,a5,.L18
	.loc 1 118 5 is_stmt 1
	lui	a1,%hi(wifi_env+25)
	.loc 1 114 1 is_stmt 0
	addi	sp,sp,-16
	.cfi_def_cfa_offset 16
	.loc 1 118 5
	li	a2,99
	addi	a1,a1,%lo(wifi_env+25)
	.loc 1 114 1
	sw	ra,12(sp)
	.cfi_offset 1, -4
	.loc 1 118 5
	call	memcpy
.LVL28:
	.loc 1 119 5 is_stmt 1
	.loc 1 120 1 is_stmt 0
	lw	ra,12(sp)
	.cfi_restore 1
	.loc 1 119 12
	li	a0,0
	.loc 1 120 1
	addi	sp,sp,16
	.cfi_def_cfa_offset 0
	jr	ra
.LVL29:
.L18:
	.loc 1 116 16
	li	a0,-1
.LVL30:
	.loc 1 120 1
	ret
	.cfi_endproc
.LFE16:
	.size	bl_wifi_ap_info_get, .-bl_wifi_ap_info_get
	.section	.text.bl_wifi_sta_info_set,"ax",@progbits
	.align	1
	.globl	bl_wifi_sta_info_set
	.type	bl_wifi_sta_info_set, @function
bl_wifi_sta_info_set:
.LFB17:
	.loc 1 123 1 is_stmt 1
	.cfi_startproc
.LVL31:
	.loc 1 124 5
	.loc 1 123 1 is_stmt 0
	addi	sp,sp,-32
	.cfi_def_cfa_offset 32
	sw	s5,4(sp)
	.cfi_offset 21, -28
	.loc 1 124 5
	lui	s5,%hi(wifi_env+125)
	.loc 1 123 1
	sw	s1,20(sp)
	sw	s3,12(sp)
	sw	s4,8(sp)
	.cfi_offset 9, -12
	.cfi_offset 19, -20
	.cfi_offset 20, -24
	mv	s3,a0
	mv	s4,a1
	mv	s1,a2
	.loc 1 124 5
	li	a1,0
.LVL32:
	li	a2,99
.LVL33:
	addi	a0,s5,%lo(wifi_env+125)
.LVL34:
	.loc 1 123 1
	sw	ra,28(sp)
	sw	s0,24(sp)
	sw	s2,16(sp)
	.cfi_offset 1, -4
	.cfi_offset 8, -8
	.cfi_offset 18, -16
	.loc 1 123 1
	mv	s0,a4
	mv	s2,a3
	.loc 1 124 5
	call	memset
.LVL35:
	.loc 1 125 5 is_stmt 1
	mv	a2,s4
	mv	a1,s3
	addi	a0,s5,%lo(wifi_env+125)
	call	memcpy
.LVL36:
	.loc 1 126 5
	lui	a0,%hi(wifi_env+158)
	mv	a2,s2
	mv	a1,s1
	addi	a0,a0,%lo(wifi_env+158)
	call	memcpy
.LVL37:
	.loc 1 127 5
	.loc 1 127 26 is_stmt 0
	lui	a5,%hi(wifi_env+224)
	.loc 1 129 1
	lw	ra,28(sp)
	.cfi_restore 1
	.loc 1 127 26
	sb	s0,%lo(wifi_env+224)(a5)
	.loc 1 128 5 is_stmt 1
	.loc 1 129 1 is_stmt 0
	lw	s0,24(sp)
	.cfi_restore 8
.LVL38:
	lw	s1,20(sp)
	.cfi_restore 9
.LVL39:
	lw	s2,16(sp)
	.cfi_restore 18
	lw	s3,12(sp)
	.cfi_restore 19
.LVL40:
	lw	s4,8(sp)
	.cfi_restore 20
	lw	s5,4(sp)
	.cfi_restore 21
	li	a0,0
	addi	sp,sp,32
	.cfi_def_cfa_offset 0
	jr	ra
	.cfi_endproc
.LFE17:
	.size	bl_wifi_sta_info_set, .-bl_wifi_sta_info_set
	.section	.text.bl_wifi_sta_info_get,"ax",@progbits
	.align	1
	.globl	bl_wifi_sta_info_get
	.type	bl_wifi_sta_info_get, @function
bl_wifi_sta_info_get:
.LFB18:
	.loc 1 132 1 is_stmt 1
	.cfi_startproc
.LVL41:
	.loc 1 133 5
	.loc 1 133 17 is_stmt 0
	lui	a5,%hi(wifi_env+224)
	.loc 1 133 8
	lbu	a4,%lo(wifi_env+224)(a5)
	li	a5,1
	bne	a4,a5,.L27
	.loc 1 136 5 is_stmt 1
	lui	a1,%hi(wifi_env+125)
	.loc 1 132 1 is_stmt 0
	addi	sp,sp,-16
	.cfi_def_cfa_offset 16
	.loc 1 136 5
	li	a2,99
	addi	a1,a1,%lo(wifi_env+125)
	.loc 1 132 1
	sw	ra,12(sp)
	.cfi_offset 1, -4
	.loc 1 136 5
	call	memcpy
.LVL42:
	.loc 1 137 5 is_stmt 1
	.loc 1 138 1 is_stmt 0
	lw	ra,12(sp)
	.cfi_restore 1
	.loc 1 137 12
	li	a0,0
	.loc 1 138 1
	addi	sp,sp,16
	.cfi_def_cfa_offset 0
	jr	ra
.LVL43:
.L27:
	.loc 1 134 16
	li	a0,-1
.LVL44:
	.loc 1 138 1
	ret
	.cfi_endproc
.LFE18:
	.size	bl_wifi_sta_info_get, .-bl_wifi_sta_info_get
	.comm	wifi_env,225,4
	.section	.sbss.called.0,"aw",@nobits
	.align	2
	.set	.LANCHOR0,. + 0
	.type	called.0, @object
	.size	called.0, 4
called.0:
	.zero	4
	.text
.Letext0:
	.file 2 "/mnt/d/GitHub/bl_iot_sdk_for_aithinker/components/platform/hosal/bl602_hal/bl_wifi.h"
	.file 3 "/mnt/d/GitHub/bl_iot_sdk_for_aithinker/toolchain/riscv/Linux/lib/gcc/riscv64-unknown-elf/10.2.0/include/stdint-gcc.h"
	.file 4 "/mnt/d/GitHub/bl_iot_sdk_for_aithinker/toolchain/riscv/Linux/riscv64-unknown-elf/include/string.h"
	.file 5 "/mnt/d/GitHub/bl_iot_sdk_for_aithinker/components/platform/hosal/bl602_hal/bl_irq.h"
	.file 6 "/mnt/d/GitHub/bl_iot_sdk_for_aithinker/toolchain/riscv/Linux/riscv64-unknown-elf/include/stdio.h"
	.file 7 "/mnt/d/GitHub/bl_iot_sdk_for_aithinker/components/platform/soc/bl602/bl602_std/bl602_std/Device/Bouffalo/BL602/Peripherals/bl602.h"