	.file	"hal_button.c"
	.option nopic
	.attribute arch, "rv32i2p0_m2p0_f2p0_c2p0"
	.attribute unaligned_access, 0
	.attribute stack_align, 16
	.text
.Ltext0:
	.cfi_sections	.debug_frame
	.section	.text.fdt32_to_cpu,"ax",@progbits
	.align	1
	.type	fdt32_to_cpu, @function
fdt32_to_cpu:
.LFB6:
	.file 1 "/mnt/d/GitHub/bl_iot_sdk_for_aithinker/components/stage/blfdt/inc/libfdt_env.h"
	.loc 1 92 1
	.cfi_startproc
.LVL0:
	.loc 1 93 5
	.loc 1 93 212 is_stmt 0
	srli	a4,a0,24
	.loc 1 93 12
	slli	a5,a0,24
	or	a5,a5,a4
	.loc 1 93 112
	srli	a4,a0,8
	andi	a4,a4,0xff
	.loc 1 93 163
	srli	a0,a0,16
.LVL1:
	.loc 1 93 117
	slli	a4,a4,16
	.loc 1 93 163
	andi	a0,a0,0xff
	.loc 1 93 12
	or	a5,a5,a4
	.loc 1 93 168
	slli	a0,a0,8
	.loc 1 94 1
	or	a0,a5,a0
	ret
	.cfi_endproc
.LFE6:
	.size	fdt32_to_cpu, .-fdt32_to_cpu
	.section	.text.check_button_is_up,"ax",@progbits
	.align	1
	.type	check_button_is_up, @function
check_button_is_up:
.LFB40:
	.file 2 "/mnt/d/GitHub/bl_iot_sdk_for_aithinker/components/platform/hosal/bl602_hal/hal_button.c"
	.loc 2 67 1 is_stmt 1
	.cfi_startproc
.LVL2:
	.loc 2 68 5
	.loc 2 70 5
	.loc 2 67 1 is_stmt 0
	addi	sp,sp,-16
	.cfi_def_cfa_offset 16
	sw	s0,8(sp)
	sw	ra,12(sp)
	.cfi_offset 8, -8
	.cfi_offset 1, -4
	.loc 2 67 1
	mv	s0,a0
	.loc 2 70 11
	lbu	a0,60(a0)
.LVL3:
	call	bl_gpio_input_get_value
.LVL4:
	.loc 2 71 5 is_stmt 1
	.loc 2 71 8 is_stmt 0
	lw	a5,56(s0)
	.loc 2 76 1
	lw	ra,12(sp)
	.cfi_restore 1
	lw	s0,8(sp)
	.cfi_restore 8
.LVL5:
	.loc 2 71 8
	sub	a0,a5,a0
.LVL6:
	.loc 2 76 1
	seqz	a0,a0
	addi	sp,sp,16
	.cfi_def_cfa_offset 0
	jr	ra
	.cfi_endproc
.LFE40:
	.size	check_button_is_up, .-check_button_is_up
	.section	.rodata.accumulate_time.str1.4,"aMS",@progbits,1
	.align	2
.LC0:
	.string	"hal_button.c"
	.align	2
.LC1:
	.string	"\033[31mERROR\033[0m"
	.align	2
.LC2:
	.string	"%s (%d)[%s:%4d] NULL pointer \r\n\r\n"
	.section	.text.accumulate_time,"ax",@progbits
	.align	1
	.type	accumulate_time, @function
accumulate_time:
.LFB39:
	.loc 2 53 1 is_stmt 1
	.cfi_startproc
.LVL7:
	.loc 2 54 5
	.loc 2 56 5
	.loc 2 56 8 is_stmt 0
	bne	a0,zero,.L5
.LVL8:
.LBB4:
.LBB5:
	.loc 2 57 9 is_stmt 1
	.loc 2 57 47
	.loc 2 57 52
	.loc 2 57 74 is_stmt 0
	lui	a5,%hi(_fsymc_level_hosal)
	.loc 2 57 55
	lw	a4,%lo(_fsymc_level_hosal)(a5)
	li	a5,4
	li	a0,-1
.LVL9:
	bgtu	a4,a5,.L12
	.loc 2 57 118
	lui	a4,%hi(_fsymf_level_hosalhal_button)
	.loc 2 57 97
	lw	a4,%lo(_fsymf_level_hosalhal_button)(a4)
	bgtu	a4,a5,.L12
	.loc 2 57 154 is_stmt 1
.LBE5:
.LBE4:
	.loc 2 53 1 is_stmt 0
	addi	sp,sp,-16
	.cfi_def_cfa_offset 16
	sw	ra,12(sp)
	.cfi_offset 1, -4
.LBB9:
.LBB6:
	.loc 2 57 236
	call	xPortIsInsideInterrupt
.LVL10:
	.loc 2 57 154
	beq	a0,zero,.L7
	.loc 2 57 265
	call	xTaskGetTickCountFromISR
.LVL11:
.L15:
	.loc 2 57 296
	mv	a2,a0
	.loc 2 57 154
	lui	a3,%hi(.LC0)
	lui	a1,%hi(.LC1)
	lui	a0,%hi(.LC2)
	addi	a0,a0,%lo(.LC2)
	li	a4,57
	addi	a3,a3,%lo(.LC0)
	addi	a1,a1,%lo(.LC1)
	call	bl_printk
.LVL12:
.LBE6:
.LBE9:
	.loc 2 64 1
	lw	ra,12(sp)
	.cfi_remember_state
	.cfi_restore 1
.LBB10:
.LBB7:
	.loc 2 57 154
	li	a0,-1
.LBE7:
.LBE10:
	.loc 2 64 1
	addi	sp,sp,16
	.cfi_def_cfa_offset 0
	jr	ra
.L7:
	.cfi_restore_state
.LBB11:
.LBB8:
	.loc 2 57 296
	call	xTaskGetTickCount
.LVL13:
	j	.L15
.LVL14:
.L5:
	.cfi_def_cfa_offset 0
	.cfi_restore 1
.LBE8:
.LBE11:
	.loc 2 61 5 is_stmt 1
	.loc 2 61 38 is_stmt 0
	lw	a4,12(a0)
	li	a5,20
	.loc 2 61 15
	lw	a0,52(a0)
.LVL15:
	.loc 2 61 38
	mul	a5,a5,a4
	.loc 2 61 15
	add	a0,a5,a0
.LVL16:
	.loc 2 63 5 is_stmt 1
	.loc 2 63 12 is_stmt 0
	ret
.LVL17:
.L12:
	.loc 2 64 1
	ret
	.cfi_endproc
.LFE39:
	.size	accumulate_time, .-accumulate_time
	.section	.rodata.clear_button_states.str1.4,"aMS",@progbits,1
	.align	2
.LC3:
	.string	"%s (%d)[%s:%4d] stop timer failed \r\n\r\n"
	.section	.text.clear_button_states,"ax",@progbits
	.align	1
	.type	clear_button_states, @function
clear_button_states:
.LFB42:
	.loc 2 84 1 is_stmt 1
	.cfi_startproc
.LVL18:
	.loc 2 85 5
	.loc 2 84 1 is_stmt 0
	addi	sp,sp,-16
	.cfi_def_cfa_offset 16
	sw	ra,12(sp)
	.cfi_offset 1, -4
	.loc 2 85 26
	sw	zero,8(a0)
	.loc 2 86 5 is_stmt 1
	.loc 2 86 26 is_stmt 0
	sw	zero,12(a0)
	.loc 2 87 5 is_stmt 1
	.loc 2 87 32 is_stmt 0
	sw	zero,48(a0)
	.loc 2 89 5 is_stmt 1
	.loc 2 89 9 is_stmt 0
	lw	a0,4(a0)
.LVL19:
	li	a4,0
	li	a3,0
	li	a2,0
	li	a1,3
	call	xTimerGenericCommand
.LVL20:
	.loc 2 89 8
	li	a5,1
	beq	a0,a5,.L16
	.loc 2 90 9 is_stmt 1 discriminator 1
	.loc 2 90 47 discriminator 1
	.loc 2 90 52 discriminator 1
	.loc 2 90 74 is_stmt 0 discriminator 1
	lui	a5,%hi(_fsymc_level_hosal)
	.loc 2 90 55 discriminator 1
	lw	a4,%lo(_fsymc_level_hosal)(a5)
	li	a5,4
	bgtu	a4,a5,.L16
	.loc 2 90 118 discriminator 3
	lui	a4,%hi(_fsymf_level_hosalhal_button)
	.loc 2 90 97 discriminator 3
	lw	a4,%lo(_fsymf_level_hosalhal_button)(a4)
	bgtu	a4,a5,.L16
.LVL21:
.LBB14:
.LBB15:
	.loc 2 90 154 is_stmt 1
	.loc 2 90 241 is_stmt 0
	call	xPortIsInsideInterrupt
.LVL22:
	.loc 2 90 154
	beq	a0,zero,.L18
	.loc 2 90 270
	call	xTaskGetTickCountFromISR
.LVL23:
.L21:
.LBE15:
.LBE14:
	.loc 2 94 1
	lw	ra,12(sp)
	.cfi_remember_state
	.cfi_restore 1
.LBB19:
.LBB16:
	.loc 2 90 301
	mv	a2,a0
	.loc 2 90 154
	lui	a3,%hi(.LC0)
	lui	a1,%hi(.LC1)
	lui	a0,%hi(.LC3)
.LBE16:
.LBE19:
	.loc 2 94 1
.LBB20:
.LBB17:
	.loc 2 90 154
	li	a4,90
	addi	a3,a3,%lo(.LC0)
	addi	a1,a1,%lo(.LC1)
	addi	a0,a0,%lo(.LC3)
.LBE17:
.LBE20:
	.loc 2 94 1
	addi	sp,sp,16
	.cfi_def_cfa_offset 0
.LBB21:
.LBB18:
	.loc 2 90 154
	tail	bl_printk
.LVL24:
.L18:
	.cfi_restore_state
	.loc 2 90 301
	call	xTaskGetTickCount
.LVL25:
	j	.L21
.LVL26:
.L16:
.LBE18:
.LBE21:
	.loc 2 94 1
	lw	ra,12(sp)
	.cfi_restore 1
	addi	sp,sp,16
	.cfi_def_cfa_offset 0
	jr	ra
	.cfi_endproc
.LFE42:
	.size	clear_button_states, .-clear_button_states
	.section	.rodata.button_callback.str1.4,"aMS",@progbits,1
	.align	2
.LC4:
	.string	"%s (%d)[%s:%4d] start timer failed \r\n\r\n"
	.section	.text.button_callback,"ax",@progbits
	.align	1
	.type	button_callback, @function
button_callback:
.LFB44:
	.loc 2 228 1 is_stmt 1
	.cfi_startproc
.LVL27:
	.loc 2 229 5
	.loc 2 230 5
	.loc 2 232 5
	.loc 2 228 1 is_stmt 0
	addi	sp,sp,-32
	.cfi_def_cfa_offset 32
	sw	ra,28(sp)
	sw	s0,24(sp)
	.cfi_offset 1, -4
	.cfi_offset 8, -8
	.loc 2 232 11
	lw	a5,8(a0)
	lw	s0,4(a5)
	call	xTaskGetTickCountFromISR
.LVL28:
	mv	a2,a0
	li	a4,0
	addi	a3,sp,12
	li	a1,6
	mv	a0,s0
	call	xTimerGenericCommand
.LVL29:
	.loc 2 233 5 is_stmt 1
	.loc 2 233 8 is_stmt 0
	li	a5,1
	beq	a0,a5,.L23
.LVL30:
.LBB24:
.LBB25:
	.loc 2 234 9 is_stmt 1
	.loc 2 234 47
	.loc 2 234 52
	.loc 2 234 74 is_stmt 0
	lui	a5,%hi(_fsymc_level_hosal)
	.loc 2 234 55
	lw	a4,%lo(_fsymc_level_hosal)(a5)
	li	a5,4
	bgtu	a4,a5,.L22
	.loc 2 234 118
	lui	a4,%hi(_fsymf_level_hosalhal_button)
	.loc 2 234 97
	lw	a4,%lo(_fsymf_level_hosalhal_button)(a4)
	bgtu	a4,a5,.L22
	.loc 2 234 154 is_stmt 1
	.loc 2 234 242 is_stmt 0
	call	xPortIsInsideInterrupt
.LVL31:
	.loc 2 234 154
	beq	a0,zero,.L25
	.loc 2 234 271
	call	xTaskGetTickCountFromISR
.LVL32:
.L31:
	.loc 2 234 302
	mv	a2,a0
	.loc 2 234 154
	lui	a3,%hi(.LC0)
	lui	a1,%hi(.LC1)
	lui	a0,%hi(.LC4)
	li	a4,234
	addi	a3,a3,%lo(.LC0)
	addi	a1,a1,%lo(.LC1)
	addi	a0,a0,%lo(.LC4)
	call	bl_printk
.LVL33:
.L22:
.LBE25:
.LBE24:
	.loc 2 239 1
	lw	ra,28(sp)
	.cfi_remember_state
	.cfi_restore 1
	lw	s0,24(sp)
	.cfi_restore 8
	addi	sp,sp,32
	.cfi_def_cfa_offset 0
	jr	ra
.LVL34:
.L25:
	.cfi_restore_state
.LBB27:
.LBB26:
	.loc 2 234 302
	call	xTaskGetTickCount
.LVL35:
	j	.L31
.LVL36:
.L23:
.LBE26:
.LBE27:
	.loc 2 237 5 is_stmt 1
	.loc 2 237 7 is_stmt 0
	lw	a5,12(sp)
	beq	a5,zero,.L22
	.loc 2 237 36 is_stmt 1 discriminator 1
	call	vTaskSwitchContext
.LVL37:
	j	.L22
	.cfi_endproc
.LFE44:
	.size	button_callback, .-button_callback
	.section	.text.button_int_umask.isra.0,"ax",@progbits
	.align	1
	.type	button_int_umask.isra.0, @function
button_int_umask.isra.0:
.LFB50:
	.loc 2 78 13
	.cfi_startproc
.LVL38:
	.loc 2 80 5
	li	a1,0
	andi	a0,a0,0xff
	tail	bl_gpio_intmask
.LVL39:
	.cfi_endproc
.LFE50:
	.size	button_int_umask.isra.0, .-button_int_umask.isra.0
	.section	.rodata.button_process.str1.4,"aMS",@progbits,1
	.align	2
.LC5:
	.string	"\033[32mINFO\033[0m"
	.align	2
.LC6:
	.string	"%s (%d)[%s:%4d] process not true pressed! \r\n\r\n"
	.align	2
.LC7:
	.string	"%s (%d)[%s:%4d] change period failed \r\n\r\n"
	.align	2
.LC8:
	.string	"%s (%d)[%s:%4d] process short press \r\n\r\n"
	.align	2
.LC9:
	.string	"%s (%d)[%s:%4d] process not defined press time \r\n\r\n"
	.align	2
.LC10:
	.string	"%s (%d)[%s:%4d] process long press \r\n\r\n"
	.align	2
.LC11:
	.string	"%s (%d)[%s:%4d] process longlong press \r\n\r\n"
	.section	.text.button_process,"ax",@progbits
	.align	1
	.type	button_process, @function
button_process:
.LFB43:
	.loc 2 97 1
	.cfi_startproc
.LVL40:
	.loc 2 98 5
	.loc 2 99 5
	.loc 2 100 5
	.loc 2 102 5
	.loc 2 97 1 is_stmt 0
	addi	sp,sp,-16
	.cfi_def_cfa_offset 16
	sw	s0,8(sp)
	sw	s1,4(sp)
	sw	s2,0(sp)
	sw	ra,12(sp)
	.cfi_offset 8, -8
	.cfi_offset 9, -12
	.cfi_offset 18, -16
	.cfi_offset 1, -4
	.loc 2 102 31
	call	pvTimerGetTimerID
.LVL41:
	.loc 2 104 20
	lw	s2,8(a0)
	.loc 2 104 5
	li	s1,2
	.loc 2 102 31
	mv	s0,a0
.LVL42:
	.loc 2 104 5 is_stmt 1
	beq	s2,s1,.L34
	bgt	s2,s1,.L35
	beq	s2,zero,.L36
	li	a5,1
	beq	s2,a5,.L37
.L33:
	.loc 2 224 1 is_stmt 0
	lw	ra,12(sp)
	.cfi_remember_state
	.cfi_restore 1
	lw	s0,8(sp)
	.cfi_restore 8
.LVL43:
	lw	s1,4(sp)
	.cfi_restore 9
	lw	s2,0(sp)
	.cfi_restore 18
	addi	sp,sp,16
	.cfi_def_cfa_offset 0
	jr	ra
.LVL44:
.L35:
	.cfi_restore_state
	.loc 2 104 5
	li	a5,3
	bne	s2,a5,.L33
	.loc 2 204 13 is_stmt 1
	.loc 2 204 33 is_stmt 0
	lw	a5,12(a0)
	addi	a5,a5,1
	sw	a5,12(a0)
	.loc 2 205 13 is_stmt 1
	.loc 2 205 25 is_stmt 0
	call	accumulate_time
.LVL45:
	.loc 2 206 13 is_stmt 1
	.loc 2 206 16 is_stmt 0
	lw	a5,40(s0)
	bgt	a5,a0,.L66
	.loc 2 206 57 discriminator 1
	lw	a5,48(s0)
	bne	a5,zero,.L66
	.loc 2 207 17 is_stmt 1 discriminator 1
	.loc 2 207 55 discriminator 1
	.loc 2 207 60 discriminator 1
	.loc 2 207 81 is_stmt 0 discriminator 1
	lui	a5,%hi(_fsymc_level_hosal)
	.loc 2 207 63 discriminator 1
	lw	a5,%lo(_fsymc_level_hosal)(a5)
	bgtu	a5,s1,.L67
	.loc 2 207 124 discriminator 3
	lui	a5,%hi(_fsymf_level_hosalhal_button)
	.loc 2 207 104 discriminator 3
	lw	a5,%lo(_fsymf_level_hosalhal_button)(a5)
	bgtu	a5,s1,.L67
	.loc 2 207 160 is_stmt 1 discriminator 5
	.loc 2 207 251 is_stmt 0 discriminator 5
	call	xPortIsInsideInterrupt
.LVL46:
	.loc 2 207 160 discriminator 5
	beq	a0,zero,.L68
	.loc 2 207 280 discriminator 7
	call	xTaskGetTickCountFromISR
.LVL47:
.L77:
	.loc 2 207 311 discriminator 8
	mv	a2,a0
	.loc 2 207 160 discriminator 8
	lui	a3,%hi(.LC0)
	lui	a1,%hi(.LC5)
	lui	a0,%hi(.LC11)
	li	a4,207
	addi	a3,a3,%lo(.LC0)
	addi	a1,a1,%lo(.LC5)
	addi	a0,a0,%lo(.LC11)
	call	bl_printk
.LVL48:
.L67:
	.loc 2 207 365 is_stmt 1 discriminator 11
	.loc 2 207 376 discriminator 11
	.loc 2 208 17 discriminator 11
	lhu	a1,44(s0)
	li	a2,0
	li	a0,513
	call	aos_post_event
.LVL49:
	.loc 2 209 17 discriminator 11
	.loc 2 209 44 is_stmt 0 discriminator 11
	li	a5,1
	sw	a5,48(s0)
	.loc 2 211 17 is_stmt 1 discriminator 11
	j	.L33
.L36:
	.loc 2 107 13
	.loc 2 107 19 is_stmt 0
	call	check_button_is_up
.LVL50:
	.loc 2 108 13 is_stmt 1
	.loc 2 108 16 is_stmt 0
	bne	a0,zero,.L40
	.loc 2 109 17 is_stmt 1 discriminator 1
	.loc 2 109 55 discriminator 1
	.loc 2 109 60 discriminator 1
	.loc 2 109 81 is_stmt 0 discriminator 1
	lui	a5,%hi(_fsymc_level_hosal)
	.loc 2 109 63 discriminator 1
	lw	a5,%lo(_fsymc_level_hosal)(a5)
	bgtu	a5,s1,.L78
	.loc 2 109 124 discriminator 3
	lui	a5,%hi(_fsymf_level_hosalhal_button)
	.loc 2 109 104 discriminator 3
	lw	a5,%lo(_fsymf_level_hosalhal_button)(a5)
	bgtu	a5,s1,.L78
	.loc 2 109 160 is_stmt 1 discriminator 5
	.loc 2 109 254 is_stmt 0 discriminator 5
	call	xPortIsInsideInterrupt
.LVL51:
	.loc 2 109 160 discriminator 5
	beq	a0,zero,.L42
	.loc 2 109 283 discriminator 7
	call	xTaskGetTickCountFromISR
.LVL52:
.L71:
	.loc 2 109 314 discriminator 8
	mv	a2,a0
	.loc 2 109 160 discriminator 8
	lui	a3,%hi(.LC0)
	lui	a1,%hi(.LC5)
	lui	a0,%hi(.LC6)
	li	a4,109
	addi	a3,a3,%lo(.LC0)
	addi	a1,a1,%lo(.LC5)
	addi	a0,a0,%lo(.LC6)
.L79:
	.loc 2 187 164 discriminator 8
	call	bl_printk
.LVL53:
	.loc 2 187 377 is_stmt 1 discriminator 8
	.loc 2 187 388 discriminator 8
	.loc 2 188 21 discriminator 8
	j	.L78
.L42:
	.loc 2 109 314 is_stmt 0 discriminator 8
	call	xTaskGetTickCount
.LVL54:
	j	.L71
.LVL55:
.L40:
	.loc 2 116 13 is_stmt 1
	.loc 2 116 17 is_stmt 0
	lw	a0,4(s0)
.LVL56:
	li	a4,100
	li	a3,0
	li	a2,20
	li	a1,4
	call	xTimerGenericCommand
.LVL57:
	.loc 2 116 16
	li	a5,1
	beq	a0,a5,.L44
	.loc 2 117 17 is_stmt 1 discriminator 1
	.loc 2 117 55 discriminator 1
	.loc 2 117 60 discriminator 1
	.loc 2 117 82 is_stmt 0 discriminator 1
	lui	a5,%hi(_fsymc_level_hosal)
	.loc 2 117 63 discriminator 1
	lw	a4,%lo(_fsymc_level_hosal)(a5)
	li	a5,4
	bgtu	a4,a5,.L45
	.loc 2 117 126 discriminator 3
	lui	a4,%hi(_fsymf_level_hosalhal_button)
	.loc 2 117 105 discriminator 3
	lw	a4,%lo(_fsymf_level_hosalhal_button)(a4)
	bgtu	a4,a5,.L45
	.loc 2 117 162 is_stmt 1 discriminator 5
	.loc 2 117 252 is_stmt 0 discriminator 5
	call	xPortIsInsideInterrupt
.LVL58:
	.loc 2 117 162 discriminator 5
	beq	a0,zero,.L46
	.loc 2 117 281 discriminator 7
	call	xTaskGetTickCountFromISR
.LVL59:
.L72:
	.loc 2 117 312 discriminator 8
	mv	a2,a0
	.loc 2 117 162 discriminator 8
	lui	a3,%hi(.LC0)
	lui	a1,%hi(.LC1)
	lui	a0,%hi(.LC7)
	li	a4,117
	addi	a3,a3,%lo(.LC0)
	addi	a1,a1,%lo(.LC1)
	addi	a0,a0,%lo(.LC7)
	call	bl_printk
.LVL60:
.L45:
	.loc 2 117 366 is_stmt 1 discriminator 11
	.loc 2 117 377 discriminator 11
	.loc 2 118 17 discriminator 11
	lw	a0,60(s0)
	call	button_int_umask.isra.0
.LVL61:
	.loc 2 119 17 discriminator 11
	mv	a0,s0
	.loc 2 224 1 is_stmt 0 discriminator 11
	lw	s0,8(sp)
	.cfi_remember_state
	.cfi_restore 8
.LVL62:
	lw	ra,12(sp)
	.cfi_restore 1
	lw	s1,4(sp)
	.cfi_restore 9
	lw	s2,0(sp)
	.cfi_restore 18
	addi	sp,sp,16
	.cfi_def_cfa_offset 0
	.loc 2 119 17 discriminator 11
	tail	clear_button_states
.LVL63:
.L46:
	.cfi_restore_state
	.loc 2 117 312 discriminator 8
	call	xTaskGetTickCount
.LVL64:
	j	.L72
.L44:
	.loc 2 123 13 is_stmt 1
	.loc 2 123 34 is_stmt 0
	sw	a0,8(s0)
	.loc 2 125 9 is_stmt 1
	j	.L33
.L37:
	.loc 2 129 13
	.loc 2 129 33 is_stmt 0
	lw	a5,12(a0)
	addi	a5,a5,1
	sw	a5,12(a0)
	.loc 2 130 13 is_stmt 1
	.loc 2 130 25 is_stmt 0
	call	accumulate_time
.LVL65:
	.loc 2 131 13 is_stmt 1
	.loc 2 131 36 is_stmt 0
	lw	a5,20(s0)
	.loc 2 131 16
	bge	a5,a0,.L48
	.loc 2 132 17 is_stmt 1
	.loc 2 132 38 is_stmt 0
	sw	s1,8(s0)
	.loc 2 134 17 is_stmt 1
	j	.L33
.L48:
	.loc 2 136 18
	.loc 2 136 21 is_stmt 0
	lw	a4,16(s0)
	bgt	a4,a0,.L49
	.loc 2 136 65 discriminator 1
	ble	a5,a0,.L33
	.loc 2 137 17 is_stmt 1
	.loc 2 137 23 is_stmt 0
	mv	a0,s0
.LVL66:
	call	check_button_is_up
.LVL67:
	.loc 2 138 17 is_stmt 1
	.loc 2 138 20 is_stmt 0
	bne	a0,zero,.L33
	.loc 2 139 21 is_stmt 1 discriminator 1
	.loc 2 139 59 discriminator 1
	.loc 2 139 64 discriminator 1
	.loc 2 139 85 is_stmt 0 discriminator 1
	lui	a5,%hi(_fsymc_level_hosal)
	.loc 2 139 67 discriminator 1
	lw	a5,%lo(_fsymc_level_hosal)(a5)
	bgtu	a5,s1,.L52
	.loc 2 139 128 discriminator 3
	lui	a5,%hi(_fsymf_level_hosalhal_button)
	.loc 2 139 108 discriminator 3
	lw	a5,%lo(_fsymf_level_hosalhal_button)(a5)
	bgtu	a5,s1,.L52
	.loc 2 139 164 is_stmt 1 discriminator 5
	.loc 2 139 252 is_stmt 0 discriminator 5
	call	xPortIsInsideInterrupt
.LVL68:
	.loc 2 139 164 discriminator 5
	beq	a0,zero,.L53
	.loc 2 139 281 discriminator 7
	call	xTaskGetTickCountFromISR
.LVL69:
.L73:
	.loc 2 139 312 discriminator 8
	mv	a2,a0
	.loc 2 139 164 discriminator 8
	lui	a3,%hi(.LC0)
	lui	a1,%hi(.LC5)
	lui	a0,%hi(.LC8)
	li	a4,139
	addi	a3,a3,%lo(.LC0)
	addi	a1,a1,%lo(.LC5)
	addi	a0,a0,%lo(.LC8)
	call	bl_printk
.LVL70:
.L52:
	.loc 2 139 366 is_stmt 1 discriminator 11
	.loc 2 139 377 discriminator 11
	.loc 2 140 21 discriminator 11
	lhu	a1,24(s0)
	li	a2,0
.L80:
	.loc 2 178 21 is_stmt 0 discriminator 11
	li	a0,513
	call	aos_post_event
.LVL71:
	.loc 2 179 21 is_stmt 1 discriminator 11
.L78:
	.loc 2 216 17
	mv	a0,s0
	call	clear_button_states
.LVL72:
	.loc 2 217 17
	lw	a0,60(s0)
	.loc 2 224 1 is_stmt 0
	lw	s0,8(sp)
	.cfi_remember_state
	.cfi_restore 8
.LVL73:
	lw	ra,12(sp)
	.cfi_restore 1
	lw	s1,4(sp)
	.cfi_restore 9
	lw	s2,0(sp)
	.cfi_restore 18
	addi	sp,sp,16
	.cfi_def_cfa_offset 0
	.loc 2 217 17
	tail	button_int_umask.isra.0
.LVL74:
.L53:
	.cfi_restore_state
	.loc 2 139 312 discriminator 8
	call	xTaskGetTickCount
.LVL75:
	j	.L73
.LVL76:
.L49:
	.loc 2 147 18 is_stmt 1
	.loc 2 148 17
	.loc 2 148 23 is_stmt 0
	mv	a0,s0
.LVL77:
	call	check_button_is_up
.LVL78:
	.loc 2 149 17 is_stmt 1
	.loc 2 149 20 is_stmt 0
	bne	a0,zero,.L33
	.loc 2 150 21 is_stmt 1 discriminator 1
	.loc 2 150 59 discriminator 1
	.loc 2 150 64 discriminator 1
	.loc 2 150 85 is_stmt 0 discriminator 1
	lui	a5,%hi(_fsymc_level_hosal)
	.loc 2 150 67 discriminator 1
	lw	a5,%lo(_fsymc_level_hosal)(a5)
	bgtu	a5,s1,.L78
	.loc 2 150 128 discriminator 3
	lui	a5,%hi(_fsymf_level_hosalhal_button)
	.loc 2 150 108 discriminator 3
	lw	a5,%lo(_fsymf_level_hosalhal_button)(a5)
	bgtu	a5,s1,.L78
	.loc 2 150 164 is_stmt 1 discriminator 5
	.loc 2 150 263 is_stmt 0 discriminator 5
	call	xPortIsInsideInterrupt
.LVL79:
	.loc 2 150 164 discriminator 5
	beq	a0,zero,.L56
	.loc 2 150 292 discriminator 7
	call	xTaskGetTickCountFromISR
.LVL80:
.L74:
	.loc 2 150 323 discriminator 8
	mv	a2,a0
	.loc 2 150 164 discriminator 8
	li	a4,150
.L81:
	.loc 2 187 164 discriminator 8
	lui	a3,%hi(.LC0)
	lui	a1,%hi(.LC5)
	lui	a0,%hi(.LC9)
	addi	a3,a3,%lo(.LC0)
	addi	a1,a1,%lo(.LC5)
	addi	a0,a0,%lo(.LC9)
	j	.L79
.L56:
	.loc 2 150 323 discriminator 8
	call	xTaskGetTickCount
.LVL81:
	j	.L74
.L34:
	.loc 2 167 13 is_stmt 1
	.loc 2 167 33 is_stmt 0
	lw	a5,12(a0)
	addi	a5,a5,1
	sw	a5,12(a0)
	.loc 2 168 13 is_stmt 1
	.loc 2 168 25 is_stmt 0
	call	accumulate_time
.LVL82:
	.loc 2 169 13 is_stmt 1
	.loc 2 169 36 is_stmt 0
	lw	a5,32(s0)
	.loc 2 169 16
	bge	a5,a0,.L58
	.loc 2 170 17 is_stmt 1
	.loc 2 170 38 is_stmt 0
	li	a5,3
	sw	a5,8(s0)
	.loc 2 172 17 is_stmt 1
	j	.L33
.L58:
	.loc 2 174 18
	.loc 2 174 21 is_stmt 0
	lw	a4,28(s0)
	bgt	a4,a0,.L59
	.loc 2 174 64 discriminator 1
	ble	a5,a0,.L33
	.loc 2 175 17 is_stmt 1
	.loc 2 175 23 is_stmt 0
	mv	a0,s0
.LVL83:
	call	check_button_is_up
.LVL84:
	.loc 2 176 17 is_stmt 1
	.loc 2 176 20 is_stmt 0
	bne	a0,zero,.L33
	.loc 2 177 21 is_stmt 1 discriminator 1
	.loc 2 177 59 discriminator 1
	.loc 2 177 64 discriminator 1
	.loc 2 177 85 is_stmt 0 discriminator 1
	lui	a5,%hi(_fsymc_level_hosal)
	.loc 2 177 67 discriminator 1
	lw	a5,%lo(_fsymc_level_hosal)(a5)
	bgtu	a5,s2,.L60
	.loc 2 177 128 discriminator 3
	lui	a5,%hi(_fsymf_level_hosalhal_button)
	.loc 2 177 108 discriminator 3
	lw	a5,%lo(_fsymf_level_hosalhal_button)(a5)
	bgtu	a5,s2,.L60
	.loc 2 177 164 is_stmt 1 discriminator 5
	.loc 2 177 251 is_stmt 0 discriminator 5
	call	xPortIsInsideInterrupt
.LVL85:
	.loc 2 177 164 discriminator 5
	beq	a0,zero,.L61
	.loc 2 177 280 discriminator 7
	call	xTaskGetTickCountFromISR
.LVL86:
.L75:
	.loc 2 177 311 discriminator 8
	mv	a2,a0
	.loc 2 177 164 discriminator 8
	lui	a3,%hi(.LC0)
	lui	a1,%hi(.LC5)
	lui	a0,%hi(.LC10)
	li	a4,177
	addi	a3,a3,%lo(.LC0)
	addi	a1,a1,%lo(.LC5)
	addi	a0,a0,%lo(.LC10)
	call	bl_printk
.LVL87:
.L60:
	.loc 2 177 365 is_stmt 1 discriminator 11
	.loc 2 177 376 discriminator 11
	.loc 2 178 21 discriminator 11
	lhu	a1,36(s0)
	li	a2,0
	j	.L80
.L61:
	.loc 2 177 311 is_stmt 0 discriminator 8
	call	xTaskGetTickCount
.LVL88:
	j	.L75
.LVL89:
.L59:
	.loc 2 184 18 is_stmt 1
	.loc 2 185 17
	.loc 2 185 23 is_stmt 0
	mv	a0,s0
.LVL90:
	call	check_button_is_up
.LVL91:
	.loc 2 186 17 is_stmt 1
	.loc 2 186 20 is_stmt 0
	bne	a0,zero,.L33
	.loc 2 187 21 is_stmt 1 discriminator 1
	.loc 2 187 59 discriminator 1
	.loc 2 187 64 discriminator 1
	.loc 2 187 85 is_stmt 0 discriminator 1
	lui	a5,%hi(_fsymc_level_hosal)
	.loc 2 187 67 discriminator 1
	lw	a5,%lo(_fsymc_level_hosal)(a5)
	bgtu	a5,s2,.L78
	.loc 2 187 128 discriminator 3
	lui	a5,%hi(_fsymf_level_hosalhal_button)
	.loc 2 187 108 discriminator 3
	lw	a5,%lo(_fsymf_level_hosalhal_button)(a5)
	bgtu	a5,s2,.L78
	.loc 2 187 164 is_stmt 1 discriminator 5
	.loc 2 187 263 is_stmt 0 discriminator 5
	call	xPortIsInsideInterrupt
.LVL92:
	.loc 2 187 164 discriminator 5
	beq	a0,zero,.L64
	.loc 2 187 292 discriminator 7
	call	xTaskGetTickCountFromISR
.LVL93:
.L76:
	.loc 2 187 323 discriminator 8
	mv	a2,a0
	.loc 2 187 164 discriminator 8
	li	a4,187
	j	.L81
.L64:
	.loc 2 187 323 discriminator 8
	call	xTaskGetTickCount
.LVL94:
	j	.L76
.L68:
	.loc 2 207 311 discriminator 8
	call	xTaskGetTickCount
.LVL95:
	j	.L77
.LVL96:
.L66:
	.loc 2 214 13 is_stmt 1
	.loc 2 214 19 is_stmt 0
	mv	a0,s0
.LVL97:
	call	check_button_is_up
.LVL98:
	.loc 2 215 13 is_stmt 1
	.loc 2 215 16 is_stmt 0
	bne	a0,zero,.L33
	j	.L78
	.cfi_endproc
.LFE43:
	.size	button_process, .-button_process
	.section	.rodata.fdt_button_module_init.str1.4,"aMS",@progbits,1
	.align	2
.LC12:
	.string	"%s (%d)[%s:%4d] mem error.\r\n\r\n"
	.align	2
.LC13:
	.string	"gpio%d"
	.align	2
.LC14:
	.string	"status"
	.align	2
.LC15:
	.string	"\033[33mWARN\033[0m"
	.align	2
.LC16:
	.string	"%s (%d)[%s:%4d] gpio[%d] status_countindex = %d NULL. \r\n\r\n"
	.align	2
.LC17:
	.string	"okay"
	.align	2
.LC18:
	.string	"%s (%d)[%s:%4d] gpio[%d] status = %s\r\n\r\n"
	.align	2
.LC19:
	.string	"feature"
	.align	2
.LC20:
	.string	"%s (%d)[%s:%4d] gpio[%d] feature_countindex = %d NULL. \r\n\r\n"
	.align	2
.LC21:
	.string	"button"
	.align	2
.LC22:
	.string	"%s (%d)[%s:%4d] gpio[%d] feature = %s\r\n\r\n"
	.align	2
.LC23:
	.string	"mode"
	.align	2
.LC24:
	.string	"%s (%d)[%s:%4d] gpio[%d] mode = %d NULL. \r\n\r\n"
	.align	2
.LC25:
	.string	"multipress"
	.align	2
.LC26:
	.string	"%s (%d)[%s:%4d] gpio[%d] multipress = %s\r\n\r\n"
	.align	2
.LC27:
	.string	"pin"
	.align	2
.LC28:
	.string	"%s (%d)[%s:%4d] gpio[%d] pin NULL. \r\n\r\n"
	.align	2
.LC29:
	.string	"%s (%d)[%s:%4d] i = %d, stgpio.gpioPin = %d\r\n\r\n"
	.align	2
.LC30:
	.string	"hbn_use"
	.align	2
.LC31:
	.string	"%s (%d)[%s:%4d] button feature NULL \r\n\r\n"
	.align	2
.LC32:
	.string	"debounce"
	.align	2
.LC33:
	.string	"%s (%d)[%s:%4d] debounce NULL. \r\n\r\n"
	.align	2
.LC34:
	.string	"%s (%d)[%s:%4d] dehounce = %ld \r\n\r\n"
	.align	2
.LC35:
	.string	"short_press_ms"
	.align	2
.LC36:
	.string	"%s (%d)[%s:%4d] gpio[%d] short_press_ms feature NULL \r\n\r\n"
	.align	2
.LC37:
	.string	"start"
	.align	2
.LC38:
	.string	"%s (%d)[%s:%4d] press start  NULL. \r\n\r\n"
	.align	2
.LC39:
	.string	"end"
	.align	2
.LC40:
	.string	"%s (%d)[%s:%4d] press end  NULL. \r\n\r\n"
	.align	2
.LC41:
	.string	"kevent"
	.align	2
.LC42:
	.string	"%s (%d)[%s:%4d] gpio[%d] kevnet  NULL. \r\n\r\n"
	.align	2
.LC43:
	.string	"long_press_ms"
	.align	2
.LC44:
	.string	"%s (%d)[%s:%4d] long_press_ms feature NULL \r\n\r\n"
	.align	2
.LC45:
	.string	"%s (%d)[%s:%4d] press start pin NULL. \r\n\r\n"
	.align	2
.LC46:
	.string	"%s (%d)[%s:%4d] press end pin NULL. \r\n\r\n"
	.align	2
.LC47:
	.string	"%s (%d)[%s:%4d] gpio[%d] kevent NULL. \r\n\r\n"
	.align	2
.LC48:
	.string	"longlong_press_ms"
	.align	2
.LC49:
	.string	"%s (%d)[%s:%4d] gpio[%d] kevent NULL \r\n\r\n"
	.align	2
.LC50:
	.string	"trig_level"
	.align	2
.LC51:
	.string	"%s (%d)[%s:%4d] gpio[%d] trig_level = %s\r\n\r\n"
	.align	2
.LC52:
	.string	"Hi"
	.align	2
.LC53:
	.string	"Lo"
	.align	2
.LC54:
	.string	"%s (%d)[%s:%4d] gpio[%d] trig_level = %d\r\n\r\n"
	.align	2
.LC56:
	.string	"%d"
	.align	2
.LC57:
	.string	"%s (%d)[%s:%4d] create timer failed \r\n\r\n"
	.section	.text.fdt_button_module_init,"ax",@progbits
	.align	1
	.globl	fdt_button_module_init
	.type	fdt_button_module_init, @function
fdt_button_module_init:
.LFB46:
	.loc 2 286 1 is_stmt 1
	.cfi_startproc
.LVL99:
	.loc 2 288 5
	.loc 2 289 5
	.loc 2 290 5
	.loc 2 291 5
	.loc 2 292 5
	.loc 2 286 1 is_stmt 0
	addi	sp,sp,-160
	.cfi_def_cfa_offset 160
	.loc 2 293 10
	li	a5,1869180928
	.loc 2 286 1
	sw	s0,152(sp)
	.loc 2 293 10
	addi	a5,a5,103
	.cfi_offset 8, -8
	.loc 2 286 1
	mv	s0,a0
	.loc 2 304 14
	li	a0,5
.LVL100:
	.loc 2 286 1
	sw	ra,156(sp)
	sw	s1,148(sp)
	sw	s2,144(sp)
	sw	s3,140(sp)
	sw	s4,136(sp)
	sw	s5,132(sp)
	sw	s6,128(sp)
	sw	s7,124(sp)
	sw	s8,120(sp)
	sw	s9,116(sp)
	sw	s10,112(sp)
	sw	s11,108(sp)
	.cfi_offset 1, -4
	.cfi_offset 9, -12
	.cfi_offset 18, -16
	.cfi_offset 19, -20
	.cfi_offset 20, -24
	.cfi_offset 21, -28
	.cfi_offset 22, -32
	.cfi_offset 23, -36
	.cfi_offset 24, -40
	.cfi_offset 25, -44
	.cfi_offset 26, -48
	.cfi_offset 27, -52
	.loc 2 286 1
	sw	a1,44(sp)
	.loc 2 292 9
	sw	zero,60(sp)
	.loc 2 293 5 is_stmt 1
	.loc 2 293 10 is_stmt 0
	sw	a5,64(sp)
	sw	zero,68(sp)
	sh	zero,72(sp)
	.loc 2 294 5 is_stmt 1
.LVL101:
	.loc 2 295 5
	.loc 2 296 5
	.loc 2 297 5
	.loc 2 298 5
	.loc 2 300 5
	.loc 2 301 5
	.loc 2 302 5
	.loc 2 304 5
	.loc 2 304 14 is_stmt 0
	call	pvPortMalloc
.LVL102:
	.loc 2 305 5 is_stmt 1
	.loc 2 305 8 is_stmt 0
	bne	a0,zero,.L180
	.loc 2 306 9 is_stmt 1 discriminator 1
	.loc 2 306 47 discriminator 1
	.loc 2 306 52 discriminator 1
	.loc 2 306 74 is_stmt 0 discriminator 1
	lui	a5,%hi(_fsymc_level_hosal)
	.loc 2 306 55 discriminator 1
	lw	a4,%lo(_fsymc_level_hosal)(a5)
	li	a5,4
	bgtu	a4,a5,.L82
	.loc 2 306 118 discriminator 3
	lui	a4,%hi(_fsymf_level_hosalhal_button)
	.loc 2 306 97 discriminator 3
	lw	a4,%lo(_fsymf_level_hosalhal_button)(a4)
	bgtu	a4,a5,.L82
	.loc 2 306 154 is_stmt 1 discriminator 5
	.loc 2 306 233 is_stmt 0 discriminator 5
	call	xPortIsInsideInterrupt
.LVL103:
	.loc 2 306 154 discriminator 5
	beq	a0,zero,.L85
	.loc 2 306 262 discriminator 7
	call	xTaskGetTickCountFromISR
.LVL104:
.L190:
	.loc 2 306 293 discriminator 8
	mv	a2,a0
	.loc 2 306 154 discriminator 8
	lui	a3,%hi(.LC0)
	lui	a1,%hi(.LC1)
	lui	a0,%hi(.LC12)
	li	a4,306
	addi	a3,a3,%lo(.LC0)
	addi	a1,a1,%lo(.LC1)
	addi	a0,a0,%lo(.LC12)
	call	bl_printk
.LVL105:
	.loc 2 306 347 is_stmt 1 discriminator 8
	.loc 2 306 358 discriminator 8
	.loc 2 307 9 discriminator 8
.L82:
	.loc 2 476 1 is_stmt 0
	lw	ra,156(sp)
	.cfi_remember_state
	.cfi_restore 1
	lw	s0,152(sp)
	.cfi_restore 8
.LVL106:
	lw	s1,148(sp)
	.cfi_restore 9
	lw	s2,144(sp)
	.cfi_restore 18
	lw	s3,140(sp)
	.cfi_restore 19
	lw	s4,136(sp)
	.cfi_restore 20
	lw	s5,132(sp)
	.cfi_restore 21
	lw	s6,128(sp)
	.cfi_restore 22
	lw	s7,124(sp)
	.cfi_restore 23
	lw	s8,120(sp)
	.cfi_restore 24
	lw	s9,116(sp)
	.cfi_restore 25
	lw	s10,112(sp)
	.cfi_restore 26
	lw	s11,108(sp)
	.cfi_restore 27
	addi	sp,sp,160
	.cfi_def_cfa_offset 0
.LVL107:
	jr	ra
.LVL108:
.L85:
	.cfi_restore_state
	.loc 2 306 293 discriminator 8
	call	xTaskGetTickCount
.LVL109:
	j	.L190
.LVL110:
.L180:
	mv	s5,a0
	.loc 2 302 13
	li	s6,0
	.loc 2 310 12
	li	s2,0
	.loc 2 336 31
	lui	s10,%hi(.LC21)
	.loc 2 385 21
	lui	s9,%hi(.LC37)
.LVL111:
.L83:
	.loc 2 311 9 is_stmt 1
	li	a2,10
	li	a1,0
	addi	a0,sp,64
	call	memset
.LVL112:
	.loc 2 312 9
	lui	a1,%hi(.LC13)
	mv	a2,s2
	addi	a1,a1,%lo(.LC13)
	addi	a0,sp,64
	call	sprintf
.LVL113:
	.loc 2 313 9
	.loc 2 313 19 is_stmt 0
	lw	a1,44(sp)
	addi	a2,sp,64
	mv	a0,s0
	call	fdt_subnode_offset
.LVL114:
	mv	s3,a0
.LVL115:
	.loc 2 314 9 is_stmt 1
	.loc 2 314 12 is_stmt 0
	blt	a0,zero,.L88
	.loc 2 319 9 is_stmt 1
	.loc 2 319 22 is_stmt 0
	lui	s4,%hi(.LC14)
	mv	a1,a0
	addi	a2,s4,%lo(.LC14)
	mv	a0,s0
.LVL116:
	call	fdt_stringlist_count
.LVL117:
	.loc 2 320 12
	li	a5,1
	.loc 2 319 22
	mv	s7,a0
.LVL118:
	.loc 2 320 9 is_stmt 1
	lui	s1,%hi(_fsymc_level_hosal)
	.loc 2 320 12 is_stmt 0
	beq	a0,a5,.L89
	.loc 2 321 13 is_stmt 1 discriminator 1
	.loc 2 321 51 discriminator 1
	.loc 2 321 56 discriminator 1
	.loc 2 321 59 is_stmt 0 discriminator 1
	lw	a4,%lo(_fsymc_level_hosal)(s1)
	li	a5,3
	bgtu	a4,a5,.L88
	.loc 2 321 120 discriminator 3
	lui	a4,%hi(_fsymf_level_hosalhal_button)
	.loc 2 321 100 discriminator 3
	lw	a4,%lo(_fsymf_level_hosalhal_button)(a4)
	bgtu	a4,a5,.L88
	.loc 2 321 156 is_stmt 1 discriminator 5
	.loc 2 321 262 is_stmt 0 discriminator 5
	call	xPortIsInsideInterrupt
.LVL119:
	.loc 2 321 156 discriminator 5
	beq	a0,zero,.L90
	.loc 2 321 291 discriminator 7
	call	xTaskGetTickCountFromISR
.LVL120:
.L191:
	.loc 2 321 322 discriminator 8
	mv	a2,a0
	.loc 2 321 156 discriminator 8
	lui	a3,%hi(.LC0)
	lui	a1,%hi(.LC15)
	lui	a0,%hi(.LC16)
	mv	a6,s7
	mv	a5,s2
	li	a4,321
	addi	a3,a3,%lo(.LC0)
	addi	a1,a1,%lo(.LC15)
	addi	a0,a0,%lo(.LC16)
.LVL121:
.L217:
	.loc 2 332 156 discriminator 10
	call	bl_printk
.LVL122:
	j	.L88
.LVL123:
.L90:
	.loc 2 321 322 discriminator 8
	call	xTaskGetTickCount
.LVL124:
	j	.L191
.LVL125:
.L89:
	.loc 2 324 9 is_stmt 1
	.loc 2 324 18 is_stmt 0
	addi	a4,sp,60
	addi	a2,s4,%lo(.LC14)
	li	a3,0
	mv	a1,s3
	mv	a0,s0
.LVL126:
	call	fdt_stringlist_get
.LVL127:
	.loc 2 325 12
	lw	a4,60(sp)
	li	a5,4
	.loc 2 324 18
	mv	s4,a0
.LVL128:
	.loc 2 325 9 is_stmt 1
	.loc 2 325 12 is_stmt 0
	beq	a4,a5,.L92
.LVL129:
.L94:
	.loc 2 326 13 is_stmt 1
	.loc 2 326 51
	.loc 2 326 56
	.loc 2 326 59 is_stmt 0
	lw	a4,%lo(_fsymc_level_hosal)(s1)
	li	a5,3
	bleu	a4,a5,.L93
.LVL130:
.L88:
	.loc 2 310 24 is_stmt 1 discriminator 2
	.loc 2 310 25 is_stmt 0 discriminator 2
	addi	s2,s2,1
.LVL131:
	.loc 2 310 17 is_stmt 1 discriminator 2
	.loc 2 310 5 is_stmt 0 discriminator 2
	li	a5,5
	bne	s2,a5,.L83
	.loc 2 473 5 is_stmt 1
	lui	a0,%hi(.LC0)
	li	a4,0
	mv	a3,s6
	mv	a2,s5
	li	a1,473
	addi	a0,a0,%lo(.LC0)
	call	log_buf_out
.LVL132:
	.loc 2 474 5
	mv	a1,s6
	mv	a0,s5
	call	hal_hbn_init
.LVL133:
	.loc 2 475 5
	mv	a0,s5
	call	vPortFree
.LVL134:
	j	.L82
.LVL135:
.L92:
	.loc 2 325 31 is_stmt 0 discriminator 1
	lui	a5,%hi(.LC17)
	mv	a1,a0
	li	a2,4
	addi	a0,a5,%lo(.LC17)
.LVL136:
	call	memcmp
.LVL137:
	.loc 2 325 27 discriminator 1
	bne	a0,zero,.L94
	.loc 2 330 9 is_stmt 1
	.loc 2 330 22 is_stmt 0
	lui	s8,%hi(.LC19)
	addi	a2,s8,%lo(.LC19)
	mv	a1,s3
	mv	a0,s0
	call	fdt_stringlist_count
.LVL138:
	mv	s4,a0
.LVL139:
	.loc 2 331 9 is_stmt 1
	.loc 2 331 12 is_stmt 0
	beq	a0,s7,.L98
	.loc 2 332 13 is_stmt 1 discriminator 1
	.loc 2 332 51 discriminator 1
	.loc 2 332 56 discriminator 1
	.loc 2 332 59 is_stmt 0 discriminator 1
	lw	a4,%lo(_fsymc_level_hosal)(s1)
	li	a5,3
	bgtu	a4,a5,.L88
	.loc 2 332 120 discriminator 3
	lui	a4,%hi(_fsymf_level_hosalhal_button)
	.loc 2 332 100 discriminator 3
	lw	a4,%lo(_fsymf_level_hosalhal_button)(a4)
	bgtu	a4,a5,.L88
	.loc 2 332 156 is_stmt 1 discriminator 5
	.loc 2 332 263 is_stmt 0 discriminator 5
	call	xPortIsInsideInterrupt
.LVL140:
	.loc 2 332 156 discriminator 5
	beq	a0,zero,.L99
	.loc 2 332 292 discriminator 7
	call	xTaskGetTickCountFromISR
.LVL141:
.L193:
	.loc 2 332 323 discriminator 8
	mv	a2,a0
	.loc 2 332 156 discriminator 8
	lui	a3,%hi(.LC0)
	lui	a1,%hi(.LC15)
	lui	a0,%hi(.LC20)
	mv	a6,s4
	mv	a5,s2
	li	a4,332
	addi	a3,a3,%lo(.LC0)
	addi	a1,a1,%lo(.LC15)
	addi	a0,a0,%lo(.LC20)
	j	.L217
.LVL142:
.L93:
	.loc 2 326 120 discriminator 3
	lui	a4,%hi(_fsymf_level_hosalhal_button)
	.loc 2 326 100 discriminator 3
	lw	a4,%lo(_fsymf_level_hosalhal_button)(a4)
	bgtu	a4,a5,.L88
	.loc 2 326 156 is_stmt 1 discriminator 5
	.loc 2 326 244 is_stmt 0 discriminator 5
	call	xPortIsInsideInterrupt
.LVL143:
	.loc 2 326 156 discriminator 5
	beq	a0,zero,.L96
	.loc 2 326 273 discriminator 7
	call	xTaskGetTickCountFromISR
.LVL144:
.L192:
	.loc 2 326 304 discriminator 8
	mv	a2,a0
	.loc 2 326 156 discriminator 8
	lui	a3,%hi(.LC0)
	lui	a1,%hi(.LC15)
	lui	a0,%hi(.LC18)
	mv	a6,s4
	mv	a5,s2
	li	a4,326
	addi	a3,a3,%lo(.LC0)
	addi	a1,a1,%lo(.LC15)
	addi	a0,a0,%lo(.LC18)
	j	.L217
.L96:
	.loc 2 326 304 discriminator 8
	call	xTaskGetTickCount
.LVL145:
	j	.L192
.LVL146:
.L99:
	.loc 2 332 323 discriminator 8
	call	xTaskGetTickCount
.LVL147:
	j	.L193
.LVL148:
.L98:
	.loc 2 335 9 is_stmt 1
	.loc 2 335 18 is_stmt 0
	addi	a4,sp,60
	li	a3,0
	addi	a2,s8,%lo(.LC19)
	mv	a1,s3
	mv	a0,s0
.LVL149:
	call	fdt_stringlist_get
.LVL150:
	.loc 2 336 12
	lw	a4,60(sp)
	li	a5,6
	.loc 2 335 18
	mv	s7,a0
.LVL151:
	.loc 2 336 9 is_stmt 1
	.loc 2 336 12 is_stmt 0
	beq	a4,a5,.L101
.LVL152:
.L103:
	.loc 2 337 13 is_stmt 1
	.loc 2 337 51
	.loc 2 337 56
	.loc 2 337 59 is_stmt 0
	lw	a4,%lo(_fsymc_level_hosal)(s1)
	li	a5,3
	bgtu	a4,a5,.L88
	.loc 2 337 120 discriminator 3
	lui	a4,%hi(_fsymf_level_hosalhal_button)
	.loc 2 337 100 discriminator 3
	lw	a4,%lo(_fsymf_level_hosalhal_button)(a4)
	bgtu	a4,a5,.L88
	.loc 2 337 156 is_stmt 1 discriminator 5
	.loc 2 337 245 is_stmt 0 discriminator 5
	call	xPortIsInsideInterrupt
.LVL153:
	.loc 2 337 156 discriminator 5
	beq	a0,zero,.L105
	.loc 2 337 274 discriminator 7
	call	xTaskGetTickCountFromISR
.LVL154:
.L194:
	.loc 2 337 305 discriminator 8
	mv	a2,a0
	.loc 2 337 156 discriminator 8
	lui	a3,%hi(.LC0)
	lui	a1,%hi(.LC15)
	lui	a0,%hi(.LC22)
	mv	a6,s7
	mv	a5,s2
	li	a4,337
	addi	a3,a3,%lo(.LC0)
	addi	a1,a1,%lo(.LC15)
	addi	a0,a0,%lo(.LC22)
	j	.L217
.LVL155:
.L101:
	.loc 2 336 31 discriminator 1
	mv	a1,a0
	li	a2,6
	addi	a0,s10,%lo(.LC21)
.LVL156:
	call	memcmp
.LVL157:
	.loc 2 336 27 discriminator 1
	bne	a0,zero,.L103
	.loc 2 341 9 is_stmt 1
	.loc 2 341 22 is_stmt 0
	lui	s8,%hi(.LC23)
	addi	a2,s8,%lo(.LC23)
	mv	a1,s3
	mv	a0,s0
	call	fdt_stringlist_count
.LVL158:
	mv	s7,a0
.LVL159:
	.loc 2 342 9 is_stmt 1
	.loc 2 342 12 is_stmt 0
	beq	a0,s4,.L107
	.loc 2 343 13 is_stmt 1 discriminator 1
	.loc 2 343 51 discriminator 1
	.loc 2 343 56 discriminator 1
	.loc 2 343 59 is_stmt 0 discriminator 1
	lw	a4,%lo(_fsymc_level_hosal)(s1)
	li	a5,3
	bgtu	a4,a5,.L88
	.loc 2 343 120 discriminator 3
	lui	a4,%hi(_fsymf_level_hosalhal_button)
	.loc 2 343 100 discriminator 3
	lw	a4,%lo(_fsymf_level_hosalhal_button)(a4)
	bgtu	a4,a5,.L88
	.loc 2 343 156 is_stmt 1 discriminator 5
	.loc 2 343 249 is_stmt 0 discriminator 5
	call	xPortIsInsideInterrupt
.LVL160:
	.loc 2 343 156 discriminator 5
	beq	a0,zero,.L108
	.loc 2 343 278 discriminator 7
	call	xTaskGetTickCountFromISR
.LVL161:
.L195:
	.loc 2 343 309 discriminator 8
	mv	a2,a0
	.loc 2 343 156 discriminator 8
	lui	a3,%hi(.LC0)
	lui	a1,%hi(.LC15)
	lui	a0,%hi(.LC24)
	mv	a6,s7
	mv	a5,s2
	li	a4,343
	addi	a3,a3,%lo(.LC0)
	addi	a1,a1,%lo(.LC15)
	addi	a0,a0,%lo(.LC24)
	j	.L217
.LVL162:
.L105:
	.loc 2 337 305 discriminator 8
	call	xTaskGetTickCount
.LVL163:
	j	.L194
.LVL164:
.L108:
	.loc 2 343 309 discriminator 8
	call	xTaskGetTickCount
.LVL165:
	j	.L195
.LVL166:
.L107:
	.loc 2 346 9 is_stmt 1
	.loc 2 346 18 is_stmt 0
	addi	a4,sp,60
	li	a3,0
	addi	a2,s8,%lo(.LC23)
	mv	a1,s3
	mv	a0,s0
.LVL167:
	call	fdt_stringlist_get
.LVL168:
	.loc 2 347 12
	lw	a4,60(sp)
	li	a5,10
	.loc 2 346 18
	mv	s4,a0
.LVL169:
	.loc 2 347 9 is_stmt 1
	.loc 2 347 12 is_stmt 0
	beq	a4,a5,.L110
.LVL170:
.L112:
	.loc 2 348 13 is_stmt 1
	.loc 2 348 51
	.loc 2 348 56
	.loc 2 348 59 is_stmt 0
	lw	a4,%lo(_fsymc_level_hosal)(s1)
	li	a5,3
	bgtu	a4,a5,.L88
	.loc 2 348 120 discriminator 3
	lui	a4,%hi(_fsymf_level_hosalhal_button)
	.loc 2 348 100 discriminator 3
	lw	a4,%lo(_fsymf_level_hosalhal_button)(a4)
	bgtu	a4,a5,.L88
	.loc 2 348 156 is_stmt 1 discriminator 5
	.loc 2 348 248 is_stmt 0 discriminator 5
	call	xPortIsInsideInterrupt
.LVL171:
	.loc 2 348 156 discriminator 5
	beq	a0,zero,.L114
	.loc 2 348 277 discriminator 7
	call	xTaskGetTickCountFromISR
.LVL172:
.L196:
	.loc 2 348 308 discriminator 8
	mv	a2,a0
	.loc 2 348 156 discriminator 8
	lui	a3,%hi(.LC0)
	lui	a1,%hi(.LC15)
	lui	a0,%hi(.LC26)
	mv	a6,s4
	mv	a5,s2
	li	a4,348
	addi	a3,a3,%lo(.LC0)
	addi	a1,a1,%lo(.LC15)
	addi	a0,a0,%lo(.LC26)
	j	.L217
.LVL173:
.L110:
	.loc 2 347 32 discriminator 1
	mv	a1,a0
	lui	a0,%hi(.LC25)
.LVL174:
	li	a2,10
	addi	a0,a0,%lo(.LC25)
	call	memcmp
.LVL175:
	.loc 2 347 28 discriminator 1
	bne	a0,zero,.L112
	.loc 2 352 9 is_stmt 1
	.loc 2 352 21 is_stmt 0
	lui	a2,%hi(.LC27)
	addi	a3,sp,60
	addi	a2,a2,%lo(.LC27)
	mv	a1,s3
	mv	a0,s0
	call	fdt_getprop
.LVL176:
	.loc 2 353 9 is_stmt 1
	.loc 2 353 12 is_stmt 0
	bne	a0,zero,.L116
	.loc 2 354 13 is_stmt 1 discriminator 1
	.loc 2 354 51 discriminator 1
	.loc 2 354 56 discriminator 1
	.loc 2 354 59 is_stmt 0 discriminator 1
	lw	a4,%lo(_fsymc_level_hosal)(s1)
	li	a5,3
	bgtu	a4,a5,.L88
	.loc 2 354 120 discriminator 3
	lui	a4,%hi(_fsymf_level_hosalhal_button)
	.loc 2 354 100 discriminator 3
	lw	a4,%lo(_fsymf_level_hosalhal_button)(a4)
	bgtu	a4,a5,.L88
	.loc 2 354 156 is_stmt 1 discriminator 5
	.loc 2 354 243 is_stmt 0 discriminator 5
	call	xPortIsInsideInterrupt
.LVL177:
	.loc 2 354 156 discriminator 5
	beq	a0,zero,.L117
	.loc 2 354 272 discriminator 7
	call	xTaskGetTickCountFromISR
.LVL178:
.L197:
	.loc 2 354 303 discriminator 8
	mv	a2,a0
	.loc 2 354 156 discriminator 8
	lui	a3,%hi(.LC0)
	lui	a1,%hi(.LC15)
	lui	a0,%hi(.LC28)
	mv	a5,s2
	li	a4,354
	addi	a3,a3,%lo(.LC0)
	addi	a1,a1,%lo(.LC15)
	addi	a0,a0,%lo(.LC28)
.LVL179:
.L219:
	.loc 2 427 156 discriminator 10
	call	bl_printk
.LVL180:
	j	.L88
.LVL181:
.L114:
	.loc 2 348 308 discriminator 8
	call	xTaskGetTickCount
.LVL182:
	j	.L196
.L117:
	.loc 2 354 303 discriminator 8
	call	xTaskGetTickCount
.LVL183:
	j	.L197
.LVL184:
.L116:
	.loc 2 357 9 is_stmt 1
	.loc 2 357 37 is_stmt 0
	lw	a0,0(a0)
.LVL185:
	call	fdt32_to_cpu
.LVL186:
	.loc 2 358 55
	lw	a4,%lo(_fsymc_level_hosal)(s1)
	li	a5,2
	.loc 2 357 37
	mv	s7,a0
.LVL187:
	.loc 2 358 9 is_stmt 1
	.loc 2 358 47
	.loc 2 358 52
	.loc 2 358 55 is_stmt 0
	bgtu	a4,a5,.L119
	.loc 2 358 116 discriminator 3
	lui	a4,%hi(_fsymf_level_hosalhal_button)
	.loc 2 358 96 discriminator 3
	lw	a4,%lo(_fsymf_level_hosalhal_button)(a4)
	bgtu	a4,a5,.L119
	.loc 2 358 152 is_stmt 1 discriminator 5
	.loc 2 358 247 is_stmt 0 discriminator 5
	call	xPortIsInsideInterrupt
.LVL188:
	.loc 2 358 152 discriminator 5
	beq	a0,zero,.L120
	.loc 2 358 276 discriminator 7
	call	xTaskGetTickCountFromISR
.LVL189:
.L198:
	.loc 2 358 307 discriminator 8
	mv	a2,a0
	.loc 2 358 152 discriminator 8
	lui	a3,%hi(.LC0)
	lui	a1,%hi(.LC5)
	lui	a0,%hi(.LC29)
	andi	a6,s7,0xff
	mv	a5,s2
	li	a4,358
	addi	a3,a3,%lo(.LC0)
	addi	a1,a1,%lo(.LC5)
	addi	a0,a0,%lo(.LC29)
	call	bl_printk
.LVL190:
.L119:
	.loc 2 358 380 is_stmt 1 discriminator 11
	.loc 2 358 391 discriminator 11
	.loc 2 360 9 discriminator 11
	.loc 2 360 18 is_stmt 0 discriminator 11
	lui	a2,%hi(.LC30)
	addi	a4,sp,60
	li	a3,0
	addi	a2,a2,%lo(.LC30)
	mv	a1,s3
	mv	a0,s0
	call	fdt_stringlist_get
.LVL191:
	.loc 2 361 12 discriminator 11
	lw	a4,60(sp)
	li	a5,4
	.loc 2 360 18 discriminator 11
	mv	s4,a0
.LVL192:
	.loc 2 361 9 is_stmt 1 discriminator 11
	.loc 2 361 12 is_stmt 0 discriminator 11
	bne	a4,a5,.L122
	.loc 2 361 31 discriminator 1
	lui	a5,%hi(.LC17)
	mv	a1,a0
	li	a2,4
	addi	a0,a5,%lo(.LC17)
.LVL193:
	call	memcmp
.LVL194:
	.loc 2 361 27 discriminator 1
	bne	a0,zero,.L122
	.loc 2 362 13 is_stmt 1 discriminator 1
	.loc 2 362 51 discriminator 1
	.loc 2 362 56 discriminator 1
	.loc 2 362 59 is_stmt 0 discriminator 1
	lw	a4,%lo(_fsymc_level_hosal)(s1)
	li	a5,3
	bgtu	a4,a5,.L123
	.loc 2 362 120 discriminator 3
	lui	a4,%hi(_fsymf_level_hosalhal_button)
	.loc 2 362 100 discriminator 3
	lw	a4,%lo(_fsymf_level_hosalhal_button)(a4)
	bgtu	a4,a5,.L123
	.loc 2 362 156 is_stmt 1 discriminator 5
	.loc 2 362 244 is_stmt 0 discriminator 5
	call	xPortIsInsideInterrupt
.LVL195:
	.loc 2 362 156 discriminator 5
	beq	a0,zero,.L124
	.loc 2 362 273 discriminator 7
	call	xTaskGetTickCountFromISR
.LVL196:
.L199:
	.loc 2 362 304 discriminator 8
	mv	a2,a0
	.loc 2 362 156 discriminator 8
	lui	a3,%hi(.LC0)
	lui	a1,%hi(.LC15)
	lui	a0,%hi(.LC18)
	mv	a6,s4
	mv	a5,s2
	li	a4,362
	addi	a3,a3,%lo(.LC0)
	addi	a1,a1,%lo(.LC15)
	addi	a0,a0,%lo(.LC18)
	call	bl_printk
.LVL197:
.L123:
	.loc 2 362 369 is_stmt 1 discriminator 11
	.loc 2 362 380 discriminator 11
	.loc 2 363 13 discriminator 11
	.loc 2 363 31 is_stmt 0 discriminator 11
	addi	a5,s6,1
.LVL198:
	.loc 2 363 35 discriminator 11
	add	s6,s5,s6
	.loc 2 357 24 discriminator 11
	sb	s7,0(s6)
	.loc 2 363 31 discriminator 11
	andi	s6,a5,0xff
.LVL199:
.L122:
	.loc 2 366 9 is_stmt 1
	.loc 2 366 19 is_stmt 0
	addi	a2,s10,%lo(.LC21)
	mv	a1,s3
	mv	a0,s0
	call	fdt_subnode_offset
.LVL200:
	mv	s4,a0
.LVL201:
	.loc 2 367 9 is_stmt 1
	.loc 2 367 12 is_stmt 0
	bgt	a0,zero,.L126
	.loc 2 368 13 is_stmt 1 discriminator 1
	.loc 2 368 51 discriminator 1
	.loc 2 368 56 discriminator 1
	.loc 2 368 59 is_stmt 0 discriminator 1
	lw	a4,%lo(_fsymc_level_hosal)(s1)
	li	a5,3
	bgtu	a4,a5,.L88
	.loc 2 368 120 discriminator 3
	lui	a4,%hi(_fsymf_level_hosalhal_button)
	.loc 2 368 100 discriminator 3
	lw	a4,%lo(_fsymf_level_hosalhal_button)(a4)
	bgtu	a4,a5,.L88
	.loc 2 368 156 is_stmt 1 discriminator 5
	.loc 2 368 244 is_stmt 0 discriminator 5
	call	xPortIsInsideInterrupt
.LVL202:
	.loc 2 368 156 discriminator 5
	beq	a0,zero,.L127
	.loc 2 368 273 discriminator 7
	call	xTaskGetTickCountFromISR
.LVL203:
.L200:
	.loc 2 368 304 discriminator 8
	mv	a2,a0
	.loc 2 368 156 discriminator 8
	lui	a3,%hi(.LC0)
	lui	a1,%hi(.LC15)
	lui	a0,%hi(.LC31)
	li	a4,368
	addi	a3,a3,%lo(.LC0)
	addi	a1,a1,%lo(.LC15)
	addi	a0,a0,%lo(.LC31)
.LVL204:
.L218:
.LBB30:
.LBB31:
	.loc 2 274 154
	call	bl_printk
.LVL205:
	j	.L88
.LVL206:
.L120:
.LBE31:
.LBE30:
	.loc 2 358 307 discriminator 8
	call	xTaskGetTickCount
.LVL207:
	j	.L198
.L124:
	.loc 2 362 304 discriminator 8
	call	xTaskGetTickCount
.LVL208:
	j	.L199
.LVL209:
.L127:
	.loc 2 368 304 discriminator 8
	call	xTaskGetTickCount
.LVL210:
	j	.L200
.LVL211:
.L126:
	.loc 2 371 9 is_stmt 1
	.loc 2 371 21 is_stmt 0
	lui	a2,%hi(.LC32)
	mv	a1,a0
	addi	a3,sp,60
	addi	a2,a2,%lo(.LC32)
	mv	a0,s0
.LVL212:
	call	fdt_getprop
.LVL213:
	.loc 2 373 59
	lw	a4,%lo(_fsymc_level_hosal)(s1)
	.loc 2 371 21
	mv	s3,a0
.LVL214:
	.loc 2 372 9 is_stmt 1
	.loc 2 372 12 is_stmt 0
	bne	a0,zero,.L129
	.loc 2 373 13 is_stmt 1 discriminator 1
	.loc 2 373 51 discriminator 1
	.loc 2 373 56 discriminator 1
	.loc 2 373 59 is_stmt 0 discriminator 1
	li	a5,3
	bgtu	a4,a5,.L88
	.loc 2 373 120 discriminator 3
	lui	a4,%hi(_fsymf_level_hosalhal_button)
	.loc 2 373 100 discriminator 3
	lw	a4,%lo(_fsymf_level_hosalhal_button)(a4)
	bgtu	a4,a5,.L88
	.loc 2 373 156 is_stmt 1 discriminator 5
	.loc 2 373 239 is_stmt 0 discriminator 5
	call	xPortIsInsideInterrupt
.LVL215:
	.loc 2 373 156 discriminator 5
	beq	a0,zero,.L130
	.loc 2 373 268 discriminator 7
	call	xTaskGetTickCountFromISR
.LVL216:
.L201:
	.loc 2 373 299 discriminator 8
	mv	a2,a0
	.loc 2 373 156 discriminator 8
	lui	a3,%hi(.LC0)
	lui	a1,%hi(.LC15)
	lui	a0,%hi(.LC33)
	li	a4,373
	addi	a3,a3,%lo(.LC0)
	addi	a1,a1,%lo(.LC15)
	addi	a0,a0,%lo(.LC33)
	j	.L218
.L130:
	.loc 2 373 299 discriminator 8
	call	xTaskGetTickCount
.LVL217:
	j	.L201
.LVL218:
.L129:
	.loc 2 376 9 is_stmt 1 discriminator 1
	.loc 2 376 47 discriminator 1
	.loc 2 376 52 discriminator 1
	.loc 2 376 55 is_stmt 0 discriminator 1
	li	a5,2
	bgtu	a4,a5,.L132
	.loc 2 376 116 discriminator 3
	lui	a4,%hi(_fsymf_level_hosalhal_button)
	.loc 2 376 96 discriminator 3
	lw	a4,%lo(_fsymf_level_hosalhal_button)(a4)
	bgtu	a4,a5,.L132
	.loc 2 376 152 is_stmt 1 discriminator 5
	.loc 2 376 235 is_stmt 0 discriminator 5
	call	xPortIsInsideInterrupt
.LVL219:
	.loc 2 376 152 discriminator 5
	beq	a0,zero,.L133
	.loc 2 376 264 discriminator 7
	call	xTaskGetTickCountFromISR
.LVL220:
.L202:
	sw	a0,12(sp)
	.loc 2 376 349 discriminator 8
	lw	a0,0(s3)
	call	fdt32_to_cpu
.LVL221:
	.loc 2 376 152 discriminator 8
	lw	a2,12(sp)
	.loc 2 376 349 discriminator 8
	mv	a5,a0
	.loc 2 376 152 discriminator 8
	lui	a3,%hi(.LC0)
	lui	a1,%hi(.LC5)
	lui	a0,%hi(.LC34)
	li	a4,376
	addi	a3,a3,%lo(.LC0)
	addi	a1,a1,%lo(.LC5)
	addi	a0,a0,%lo(.LC34)
	call	bl_printk
.LVL222:
.L132:
	.loc 2 376 416 is_stmt 1 discriminator 11
	.loc 2 376 427 discriminator 11
	.loc 2 377 9 discriminator 11
	.loc 2 377 62 is_stmt 0 discriminator 11
	lw	a5,0(s3)
	.loc 2 380 19 discriminator 11
	lui	a2,%hi(.LC35)
	mv	a1,s4
	addi	a2,a2,%lo(.LC35)
	mv	a0,s0
	.loc 2 377 62 discriminator 11
	sw	a5,12(sp)
	.loc 2 380 9 is_stmt 1 discriminator 11
	.loc 2 380 19 is_stmt 0 discriminator 11
	call	fdt_subnode_offset
.LVL223:
	mv	a1,a0
.LVL224:
	.loc 2 381 9 is_stmt 1 discriminator 11
	.loc 2 381 12 is_stmt 0 discriminator 11
	bgt	a0,zero,.L135
	.loc 2 382 13 is_stmt 1 discriminator 1
	.loc 2 382 51 discriminator 1
	.loc 2 382 56 discriminator 1
	.loc 2 382 59 is_stmt 0 discriminator 1
	lw	a4,%lo(_fsymc_level_hosal)(s1)
	li	a5,3
	bgtu	a4,a5,.L88
	.loc 2 382 120 discriminator 3
	lui	a4,%hi(_fsymf_level_hosalhal_button)
	.loc 2 382 100 discriminator 3
	lw	a4,%lo(_fsymf_level_hosalhal_button)(a4)
	bgtu	a4,a5,.L88
	.loc 2 382 156 is_stmt 1 discriminator 5
	.loc 2 382 261 is_stmt 0 discriminator 5
	call	xPortIsInsideInterrupt
.LVL225:
	.loc 2 382 156 discriminator 5
	beq	a0,zero,.L136
	.loc 2 382 290 discriminator 7
	call	xTaskGetTickCountFromISR
.LVL226:
.L203:
	.loc 2 382 321 discriminator 8
	mv	a2,a0
	.loc 2 382 156 discriminator 8
	lui	a3,%hi(.LC0)
	lui	a1,%hi(.LC15)
	lui	a0,%hi(.LC36)
	mv	a5,s2
	li	a4,382
	addi	a3,a3,%lo(.LC0)
	addi	a1,a1,%lo(.LC15)
	addi	a0,a0,%lo(.LC36)
	j	.L219
.L133:
	.loc 2 376 295 discriminator 8
	call	xTaskGetTickCount
.LVL227:
	j	.L202
.L136:
	.loc 2 382 321 discriminator 8
	call	xTaskGetTickCount
.LVL228:
	j	.L203
.LVL229:
.L135:
	.loc 2 385 9 is_stmt 1
	.loc 2 385 21 is_stmt 0
	sw	a0,16(sp)
	addi	a3,sp,60
	addi	a2,s9,%lo(.LC37)
	mv	a0,s0
.LVL230:
	call	fdt_getprop
.LVL231:
	.loc 2 386 9 is_stmt 1
	.loc 2 386 12 is_stmt 0
	lw	a1,16(sp)
	bne	a0,zero,.L138
	.loc 2 387 13 is_stmt 1 discriminator 1
	.loc 2 387 51 discriminator 1
	.loc 2 387 56 discriminator 1
	.loc 2 387 59 is_stmt 0 discriminator 1
	lw	a4,%lo(_fsymc_level_hosal)(s1)
	li	a5,3
	bgtu	a4,a5,.L88
	.loc 2 387 120 discriminator 3
	lui	a4,%hi(_fsymf_level_hosalhal_button)
	.loc 2 387 100 discriminator 3
	lw	a4,%lo(_fsymf_level_hosalhal_button)(a4)
	bgtu	a4,a5,.L88
	.loc 2 387 156 is_stmt 1 discriminator 5
	.loc 2 387 243 is_stmt 0 discriminator 5
	call	xPortIsInsideInterrupt
.LVL232:
	.loc 2 387 156 discriminator 5
	beq	a0,zero,.L139
	.loc 2 387 272 discriminator 7
	call	xTaskGetTickCountFromISR
.LVL233:
.L204:
	.loc 2 387 303 discriminator 8
	mv	a2,a0
	.loc 2 387 156 discriminator 8
	lui	a3,%hi(.LC0)
	lui	a1,%hi(.LC15)
	lui	a0,%hi(.LC38)
	li	a4,387
	addi	a3,a3,%lo(.LC0)
	addi	a1,a1,%lo(.LC15)
	addi	a0,a0,%lo(.LC38)
	j	.L218
.L139:
	.loc 2 387 303 discriminator 8
	call	xTaskGetTickCount
.LVL234:
	j	.L204
.LVL235:
.L138:
	.loc 2 390 9 is_stmt 1
	.loc 2 390 74 is_stmt 0
	lw	a5,0(a0)
	.loc 2 392 21
	addi	a3,sp,60
	mv	a0,s0
.LVL236:
	.loc 2 390 74
	sw	a5,16(sp)
.LVL237:
	.loc 2 392 9 is_stmt 1
	.loc 2 392 21 is_stmt 0
	lui	a5,%hi(.LC39)
	addi	a2,a5,%lo(.LC39)
	sw	a1,20(sp)
	call	fdt_getprop
.LVL238:
	.loc 2 393 9 is_stmt 1
	.loc 2 393 12 is_stmt 0
	lw	a1,20(sp)
	bne	a0,zero,.L141
	.loc 2 394 13 is_stmt 1 discriminator 1
	.loc 2 394 51 discriminator 1
	.loc 2 394 56 discriminator 1
	.loc 2 394 59 is_stmt 0 discriminator 1
	lw	a4,%lo(_fsymc_level_hosal)(s1)
	li	a5,3
	bgtu	a4,a5,.L88
	.loc 2 394 120 discriminator 3
	lui	a4,%hi(_fsymf_level_hosalhal_button)
	.loc 2 394 100 discriminator 3
	lw	a4,%lo(_fsymf_level_hosalhal_button)(a4)
	bgtu	a4,a5,.L88
	.loc 2 394 156 is_stmt 1 discriminator 5
	.loc 2 394 241 is_stmt 0 discriminator 5
	call	xPortIsInsideInterrupt
.LVL239:
	.loc 2 394 156 discriminator 5
	beq	a0,zero,.L142
	.loc 2 394 270 discriminator 7
	call	xTaskGetTickCountFromISR
.LVL240:
.L205:
	.loc 2 394 301 discriminator 8
	mv	a2,a0
	.loc 2 394 156 discriminator 8
	lui	a3,%hi(.LC0)
	lui	a1,%hi(.LC15)
	lui	a0,%hi(.LC40)
	li	a4,394
	addi	a3,a3,%lo(.LC0)
	addi	a1,a1,%lo(.LC15)
	addi	a0,a0,%lo(.LC40)
	j	.L218
.L142:
	.loc 2 394 301 discriminator 8
	call	xTaskGetTickCount
.LVL241:
	j	.L205
.LVL242:
.L141:
	.loc 2 397 9 is_stmt 1
	.loc 2 397 72 is_stmt 0
	lw	a5,0(a0)
	.loc 2 399 21
	lui	s11,%hi(.LC41)
	addi	a3,sp,60
	addi	a2,s11,%lo(.LC41)
	mv	a0,s0
.LVL243:
	.loc 2 397 72
	sw	a5,20(sp)
	.loc 2 399 9 is_stmt 1
	.loc 2 399 21 is_stmt 0
	call	fdt_getprop
.LVL244:
	.loc 2 400 9 is_stmt 1
	.loc 2 400 12 is_stmt 0
	bne	a0,zero,.L144
	.loc 2 401 13 is_stmt 1 discriminator 1
	.loc 2 401 51 discriminator 1
	.loc 2 401 56 discriminator 1
	.loc 2 401 59 is_stmt 0 discriminator 1
	lw	a4,%lo(_fsymc_level_hosal)(s1)
	li	a5,3
	bgtu	a4,a5,.L88
	.loc 2 401 120 discriminator 3
	lui	a4,%hi(_fsymf_level_hosalhal_button)
	.loc 2 401 100 discriminator 3
	lw	a4,%lo(_fsymf_level_hosalhal_button)(a4)
	bgtu	a4,a5,.L88
	.loc 2 401 156 is_stmt 1 discriminator 5
	.loc 2 401 247 is_stmt 0 discriminator 5
	call	xPortIsInsideInterrupt
.LVL245:
	.loc 2 401 156 discriminator 5
	beq	a0,zero,.L145
	.loc 2 401 276 discriminator 7
	call	xTaskGetTickCountFromISR
.LVL246:
.L206:
	.loc 2 401 307 discriminator 8
	mv	a2,a0
	.loc 2 401 156 discriminator 8
	lui	a3,%hi(.LC0)
	lui	a1,%hi(.LC15)
	lui	a0,%hi(.LC42)
	mv	a5,s2
	li	a4,401
	addi	a3,a3,%lo(.LC0)
	addi	a1,a1,%lo(.LC15)
	addi	a0,a0,%lo(.LC42)
	j	.L219
.L145:
	.loc 2 401 307 discriminator 8
	call	xTaskGetTickCount
.LVL247:
	j	.L206
.LVL248:
.L144:
	.loc 2 404 9 is_stmt 1
	.loc 2 407 19 is_stmt 0
	lui	a2,%hi(.LC43)
	.loc 2 404 66
	lw	s8,0(a0)
	.loc 2 407 9 is_stmt 1
	.loc 2 407 19 is_stmt 0
	addi	a2,a2,%lo(.LC43)
	mv	a1,s4
	mv	a0,s0
.LVL249:
	call	fdt_subnode_offset
.LVL250:
	mv	s3,a0
.LVL251:
	.loc 2 408 9 is_stmt 1
	.loc 2 408 12 is_stmt 0
	bgt	a0,zero,.L147
	.loc 2 409 13 is_stmt 1 discriminator 1
	.loc 2 409 51 discriminator 1
	.loc 2 409 56 discriminator 1
	.loc 2 409 59 is_stmt 0 discriminator 1
	lw	a4,%lo(_fsymc_level_hosal)(s1)
	li	a5,3
	bgtu	a4,a5,.L147
	.loc 2 409 120 discriminator 3
	lui	a4,%hi(_fsymf_level_hosalhal_button)
	.loc 2 409 100 discriminator 3
	lw	a4,%lo(_fsymf_level_hosalhal_button)(a4)
	bgtu	a4,a5,.L147
	.loc 2 409 156 is_stmt 1 discriminator 5
	.loc 2 409 251 is_stmt 0 discriminator 5
	call	xPortIsInsideInterrupt
.LVL252:
	.loc 2 409 156 discriminator 5
	beq	a0,zero,.L148
	.loc 2 409 280 discriminator 7
	call	xTaskGetTickCountFromISR
.LVL253:
.L207:
	.loc 2 409 311 discriminator 8
	mv	a2,a0
	.loc 2 409 156 discriminator 8
	lui	a3,%hi(.LC0)
	lui	a1,%hi(.LC15)
	lui	a0,%hi(.LC44)
	li	a4,409
	addi	a3,a3,%lo(.LC0)
	addi	a1,a1,%lo(.LC15)
	addi	a0,a0,%lo(.LC44)
	call	bl_printk
.LVL254:
.L147:
	.loc 2 409 365 is_stmt 1 discriminator 11
	.loc 2 409 376 discriminator 11
	.loc 2 411 9 discriminator 11
	.loc 2 411 21 is_stmt 0 discriminator 11
	addi	a3,sp,60
	addi	a2,s9,%lo(.LC37)
	mv	a1,s3
	mv	a0,s0
	call	fdt_getprop
.LVL255:
	.loc 2 412 9 is_stmt 1 discriminator 11
	.loc 2 412 12 is_stmt 0 discriminator 11
	bne	a0,zero,.L150
	.loc 2 413 13 is_stmt 1 discriminator 1
	.loc 2 413 51 discriminator 1
	.loc 2 413 56 discriminator 1
	.loc 2 413 59 is_stmt 0 discriminator 1
	lw	a4,%lo(_fsymc_level_hosal)(s1)
	li	a5,3
	bgtu	a4,a5,.L88
	.loc 2 413 120 discriminator 3
	lui	a4,%hi(_fsymf_level_hosalhal_button)
	.loc 2 413 100 discriminator 3
	lw	a4,%lo(_fsymf_level_hosalhal_button)(a4)
	bgtu	a4,a5,.L88
	.loc 2 413 156 is_stmt 1 discriminator 5
	.loc 2 413 246 is_stmt 0 discriminator 5
	call	xPortIsInsideInterrupt
.LVL256:
	.loc 2 413 156 discriminator 5
	beq	a0,zero,.L151
	.loc 2 413 275 discriminator 7
	call	xTaskGetTickCountFromISR
.LVL257:
.L208:
	.loc 2 413 306 discriminator 8
	mv	a2,a0
	.loc 2 413 156 discriminator 8
	li	a4,413
.L220:
	.loc 2 439 156 discriminator 8
	lui	a3,%hi(.LC0)
	lui	a1,%hi(.LC15)
	lui	a0,%hi(.LC45)
	addi	a3,a3,%lo(.LC0)
	addi	a1,a1,%lo(.LC15)
	addi	a0,a0,%lo(.LC45)
	j	.L218
.L148:
	.loc 2 409 311 discriminator 8
	call	xTaskGetTickCount
.LVL258:
	j	.L207
.L151:
	.loc 2 413 306 discriminator 8
	call	xTaskGetTickCount
.LVL259:
	j	.L208
.LVL260:
.L150:
	.loc 2 416 9 is_stmt 1
	.loc 2 416 73 is_stmt 0
	lw	a5,0(a0)
	.loc 2 418 21
	addi	a3,sp,60
	mv	a1,s3
	.loc 2 416 73
	sw	a5,24(sp)
	.loc 2 418 9 is_stmt 1
	.loc 2 418 21 is_stmt 0
	lui	a5,%hi(.LC39)
	addi	a2,a5,%lo(.LC39)
	mv	a0,s0
.LVL261:
	call	fdt_getprop
.LVL262:
	.loc 2 419 9 is_stmt 1
	.loc 2 419 12 is_stmt 0
	bne	a0,zero,.L153
	.loc 2 420 13 is_stmt 1 discriminator 1
	.loc 2 420 51 discriminator 1
	.loc 2 420 56 discriminator 1
	.loc 2 420 59 is_stmt 0 discriminator 1
	lw	a4,%lo(_fsymc_level_hosal)(s1)
	li	a5,3
	bgtu	a4,a5,.L88
	.loc 2 420 120 discriminator 3
	lui	a4,%hi(_fsymf_level_hosalhal_button)
	.loc 2 420 100 discriminator 3
	lw	a4,%lo(_fsymf_level_hosalhal_button)(a4)
	bgtu	a4,a5,.L88
	.loc 2 420 156 is_stmt 1 discriminator 5
	.loc 2 420 244 is_stmt 0 discriminator 5
	call	xPortIsInsideInterrupt
.LVL263:
	.loc 2 420 156 discriminator 5
	beq	a0,zero,.L154
	.loc 2 420 273 discriminator 7
	call	xTaskGetTickCountFromISR
.LVL264:
.L209:
	.loc 2 420 304 discriminator 8
	mv	a2,a0
	.loc 2 420 156 discriminator 8
	lui	a3,%hi(.LC0)
	lui	a1,%hi(.LC15)
	lui	a0,%hi(.LC46)
	li	a4,420
	addi	a3,a3,%lo(.LC0)
	addi	a1,a1,%lo(.LC15)
	addi	a0,a0,%lo(.LC46)
	j	.L218
.L154:
	.loc 2 420 304 discriminator 8
	call	xTaskGetTickCount
.LVL265:
	j	.L209
.LVL266:
.L153:
	.loc 2 423 9 is_stmt 1
	.loc 2 423 71 is_stmt 0
	lw	a5,0(a0)
	.loc 2 425 21
	addi	a3,sp,60
	addi	a2,s11,%lo(.LC41)
	mv	a1,s3
	mv	a0,s0
.LVL267:
	.loc 2 423 71
	sw	a5,28(sp)
	.loc 2 425 9 is_stmt 1
	.loc 2 425 21 is_stmt 0
	call	fdt_getprop
.LVL268:
	.loc 2 426 9 is_stmt 1
	.loc 2 426 12 is_stmt 0
	bne	a0,zero,.L156
	.loc 2 427 13 is_stmt 1 discriminator 1
	.loc 2 427 51 discriminator 1
	.loc 2 427 56 discriminator 1
	.loc 2 427 59 is_stmt 0 discriminator 1
	lw	a4,%lo(_fsymc_level_hosal)(s1)
	li	a5,3
	bgtu	a4,a5,.L88
	.loc 2 427 120 discriminator 3
	lui	a4,%hi(_fsymf_level_hosalhal_button)
	.loc 2 427 100 discriminator 3
	lw	a4,%lo(_fsymf_level_hosalhal_button)(a4)
	bgtu	a4,a5,.L88
	.loc 2 427 156 is_stmt 1 discriminator 5
	.loc 2 427 246 is_stmt 0 discriminator 5
	call	xPortIsInsideInterrupt
.LVL269:
	.loc 2 427 156 discriminator 5
	beq	a0,zero,.L157
	.loc 2 427 275 discriminator 7
	call	xTaskGetTickCountFromISR
.LVL270:
.L210:
	.loc 2 427 306 discriminator 8
	mv	a2,a0
	.loc 2 427 156 discriminator 8
	lui	a3,%hi(.LC0)
	lui	a1,%hi(.LC15)
	lui	a0,%hi(.LC47)
	mv	a5,s2
	li	a4,427
	addi	a3,a3,%lo(.LC0)
	addi	a1,a1,%lo(.LC15)
	addi	a0,a0,%lo(.LC47)
	j	.L219
.L157:
	.loc 2 427 306 discriminator 8
	call	xTaskGetTickCount
.LVL271:
	j	.L210
.LVL272:
.L156:
	.loc 2 430 9 is_stmt 1
	.loc 2 430 65 is_stmt 0
	lw	a5,0(a0)
	.loc 2 433 19
	lui	a2,%hi(.LC48)
	addi	a2,a2,%lo(.LC48)
	mv	a1,s4
	mv	a0,s0
.LVL273:
	.loc 2 430 65
	sw	a5,32(sp)
	.loc 2 433 9 is_stmt 1
	.loc 2 433 19 is_stmt 0
	call	fdt_subnode_offset
.LVL274:
	mv	s3,a0
.LVL275:
	.loc 2 434 9 is_stmt 1
	.loc 2 434 12 is_stmt 0
	bgt	a0,zero,.L159
	.loc 2 435 13 is_stmt 1 discriminator 1
	.loc 2 435 51 discriminator 1
	.loc 2 435 56 discriminator 1
	.loc 2 435 59 is_stmt 0 discriminator 1
	lw	a4,%lo(_fsymc_level_hosal)(s1)
	li	a5,3
	bgtu	a4,a5,.L159
	.loc 2 435 120 discriminator 3
	lui	a4,%hi(_fsymf_level_hosalhal_button)
	.loc 2 435 100 discriminator 3
	lw	a4,%lo(_fsymf_level_hosalhal_button)(a4)
	bgtu	a4,a5,.L159
	.loc 2 435 156 is_stmt 1 discriminator 5
	.loc 2 435 251 is_stmt 0 discriminator 5
	call	xPortIsInsideInterrupt
.LVL276:
	.loc 2 435 156 discriminator 5
	beq	a0,zero,.L160
	.loc 2 435 280 discriminator 7
	call	xTaskGetTickCountFromISR
.LVL277:
.L211:
	.loc 2 435 311 discriminator 8
	mv	a2,a0
	.loc 2 435 156 discriminator 8
	lui	a3,%hi(.LC0)
	lui	a1,%hi(.LC15)
	lui	a0,%hi(.LC44)
	li	a4,435
	addi	a3,a3,%lo(.LC0)
	addi	a1,a1,%lo(.LC15)
	addi	a0,a0,%lo(.LC44)
	call	bl_printk
.LVL278:
.L159:
	.loc 2 435 365 is_stmt 1 discriminator 11
	.loc 2 435 376 discriminator 11
	.loc 2 437 9 discriminator 11
	.loc 2 437 21 is_stmt 0 discriminator 11
	addi	a3,sp,60
	addi	a2,s9,%lo(.LC37)
	mv	a1,s3
	mv	a0,s0
	call	fdt_getprop
.LVL279:
	.loc 2 438 9 is_stmt 1 discriminator 11
	.loc 2 438 12 is_stmt 0 discriminator 11
	bne	a0,zero,.L162
	.loc 2 439 13 is_stmt 1 discriminator 1
	.loc 2 439 51 discriminator 1
	.loc 2 439 56 discriminator 1
	.loc 2 439 59 is_stmt 0 discriminator 1
	lw	a4,%lo(_fsymc_level_hosal)(s1)
	li	a5,3
	bgtu	a4,a5,.L88
	.loc 2 439 120 discriminator 3
	lui	a4,%hi(_fsymf_level_hosalhal_button)
	.loc 2 439 100 discriminator 3
	lw	a4,%lo(_fsymf_level_hosalhal_button)(a4)
	bgtu	a4,a5,.L88
	.loc 2 439 156 is_stmt 1 discriminator 5
	.loc 2 439 246 is_stmt 0 discriminator 5
	call	xPortIsInsideInterrupt
.LVL280:
	.loc 2 439 156 discriminator 5
	beq	a0,zero,.L163
	.loc 2 439 275 discriminator 7
	call	xTaskGetTickCountFromISR
.LVL281:
.L212:
	.loc 2 439 306 discriminator 8
	mv	a2,a0
	.loc 2 439 156 discriminator 8
	li	a4,439
	j	.L220
.L160:
	.loc 2 435 311 discriminator 8
	call	xTaskGetTickCount
.LVL282:
	j	.L211
.L163:
	.loc 2 439 306 discriminator 8
	call	xTaskGetTickCount
.LVL283:
	j	.L212
.LVL284:
.L162:
	.loc 2 442 9 is_stmt 1
	.loc 2 442 71 is_stmt 0
	lw	a5,0(a0)
	.loc 2 444 21
	addi	a3,sp,60
	addi	a2,s11,%lo(.LC41)
	mv	a1,s3
	mv	a0,s0
.LVL285:
	.loc 2 442 71
	sw	a5,36(sp)
	.loc 2 444 9 is_stmt 1
	.loc 2 444 21 is_stmt 0
	call	fdt_getprop
.LVL286:
	.loc 2 445 9 is_stmt 1
	.loc 2 445 12 is_stmt 0
	bne	a0,zero,.L165
	.loc 2 446 13 is_stmt 1 discriminator 1
	.loc 2 446 51 discriminator 1
	.loc 2 446 56 discriminator 1
	.loc 2 446 59 is_stmt 0 discriminator 1
	lw	a4,%lo(_fsymc_level_hosal)(s1)
	li	a5,3
	bgtu	a4,a5,.L88
	.loc 2 446 120 discriminator 3
	lui	a4,%hi(_fsymf_level_hosalhal_button)
	.loc 2 446 100 discriminator 3
	lw	a4,%lo(_fsymf_level_hosalhal_button)(a4)
	bgtu	a4,a5,.L88
	.loc 2 446 156 is_stmt 1 discriminator 5
	.loc 2 446 245 is_stmt 0 discriminator 5
	call	xPortIsInsideInterrupt
.LVL287:
	.loc 2 446 156 discriminator 5
	beq	a0,zero,.L166
	.loc 2 446 274 discriminator 7
	call	xTaskGetTickCountFromISR
.LVL288:
.L213:
	.loc 2 446 305 discriminator 8
	mv	a2,a0
	.loc 2 446 156 discriminator 8
	lui	a3,%hi(.LC0)
	lui	a1,%hi(.LC15)
	lui	a0,%hi(.LC49)
	li	a4,446
	addi	a3,a3,%lo(.LC0)
	addi	a1,a1,%lo(.LC15)
	addi	a0,a0,%lo(.LC49)
	j	.L218
.L166:
	.loc 2 446 305 discriminator 8
	call	xTaskGetTickCount
.LVL289:
	j	.L213
.LVL290:
.L165:
	.loc 2 449 9 is_stmt 1
	.loc 2 449 69 is_stmt 0
	lw	a5,0(a0)
	.loc 2 451 22
	lui	s11,%hi(.LC50)
	addi	a2,s11,%lo(.LC50)
	mv	a1,s4
	mv	a0,s0
.LVL291:
	.loc 2 449 69
	sw	a5,40(sp)
	.loc 2 451 9 is_stmt 1
	.loc 2 451 22 is_stmt 0
	call	fdt_stringlist_count
.LVL292:
	.loc 2 452 12
	li	a5,1
	.loc 2 451 22
	mv	s3,a0
.LVL293:
	.loc 2 452 9 is_stmt 1
	.loc 2 452 12 is_stmt 0
	bne	a0,a5,.L88
	.loc 2 456 9 is_stmt 1
	.loc 2 456 18 is_stmt 0
	addi	a2,s11,%lo(.LC50)
	mv	a1,s4
	addi	a4,sp,60
	li	a3,0
	mv	a0,s0
.LVL294:
	call	fdt_stringlist_get
.LVL295:
	.loc 2 457 20
	lw	s11,60(sp)
	.loc 2 457 12
	li	a5,2
	.loc 2 456 18
	mv	s4,a0
.LVL296:
	.loc 2 457 9 is_stmt 1
	.loc 2 457 12 is_stmt 0
	beq	s11,a5,.L168
	.loc 2 458 13 is_stmt 1 discriminator 1
	.loc 2 458 51 discriminator 1
	.loc 2 458 56 discriminator 1
	.loc 2 458 59 is_stmt 0 discriminator 1
	lw	a4,%lo(_fsymc_level_hosal)(s1)
	li	a5,3
	bgtu	a4,a5,.L88
	.loc 2 458 120 discriminator 3
	lui	a4,%hi(_fsymf_level_hosalhal_button)
	.loc 2 458 100 discriminator 3
	lw	a4,%lo(_fsymf_level_hosalhal_button)(a4)
	bgtu	a4,a5,.L88
	.loc 2 458 156 is_stmt 1 discriminator 5
	.loc 2 458 248 is_stmt 0 discriminator 5
	call	xPortIsInsideInterrupt
.LVL297:
	.loc 2 458 156 discriminator 5
	beq	a0,zero,.L169
	.loc 2 458 277 discriminator 7
	call	xTaskGetTickCountFromISR
.LVL298:
.L214:
	.loc 2 458 308 discriminator 8
	mv	a2,a0
	.loc 2 458 156 discriminator 8
	lui	a3,%hi(.LC0)
	lui	a1,%hi(.LC15)
	lui	a0,%hi(.LC51)
	mv	a6,s4
	mv	a5,s2
	li	a4,458
	addi	a3,a3,%lo(.LC0)
	addi	a1,a1,%lo(.LC15)
	addi	a0,a0,%lo(.LC51)
	j	.L217
.L169:
	.loc 2 458 308 discriminator 8
	call	xTaskGetTickCount
.LVL299:
	j	.L214
.LVL300:
.L168:
	.loc 2 461 9 is_stmt 1
	.loc 2 461 13 is_stmt 0
	mv	a1,a0
	lui	a0,%hi(.LC52)
.LVL301:
	li	a2,2
	addi	a0,a0,%lo(.LC52)
	call	memcmp
.LVL302:
	.loc 2 461 12
	beq	a0,zero,.L171
	.loc 2 463 16 is_stmt 1
	.loc 2 463 20 is_stmt 0
	lui	a0,%hi(.LC53)
	li	a2,2
	mv	a1,s4
	addi	a0,a0,%lo(.LC53)
	call	memcmp
.LVL303:
	mv	s3,a0
.LVL304:
	.loc 2 463 19
	bne	a0,zero,.L88
.L171:
	.loc 2 468 9 is_stmt 1 discriminator 1
	.loc 2 468 47 discriminator 1
	.loc 2 468 52 discriminator 1
	.loc 2 468 55 is_stmt 0 discriminator 1
	lw	a4,%lo(_fsymc_level_hosal)(s1)
	li	a5,2
	bgtu	a4,a5,.L172
	.loc 2 468 116 discriminator 3
	lui	a4,%hi(_fsymf_level_hosalhal_button)
	.loc 2 468 96 discriminator 3
	lw	a4,%lo(_fsymf_level_hosalhal_button)(a4)
	bgtu	a4,a5,.L172
	.loc 2 468 152 is_stmt 1 discriminator 5
	.loc 2 468 244 is_stmt 0 discriminator 5
	call	xPortIsInsideInterrupt
.LVL305:
	.loc 2 468 152 discriminator 5
	beq	a0,zero,.L173
	.loc 2 468 273 discriminator 7
	call	xTaskGetTickCountFromISR
.LVL306:
.L215:
	.loc 2 468 304 discriminator 8
	mv	a2,a0
	.loc 2 468 152 discriminator 8
	lui	a3,%hi(.LC0)
	lui	a1,%hi(.LC5)
	lui	a0,%hi(.LC54)
	mv	a6,s3
	mv	a5,s2
	li	a4,468
	addi	a3,a3,%lo(.LC0)
	addi	a1,a1,%lo(.LC5)
	addi	a0,a0,%lo(.LC54)
	call	bl_printk
.LVL307:
.L172:
	.loc 2 468 404 is_stmt 1 discriminator 11
	.loc 2 468 415 discriminator 11
	.loc 2 470 9 discriminator 11
.LBB43:
.LBB32:
	.loc 2 243 5 discriminator 11
	.loc 2 244 5 discriminator 11
	.loc 2 244 10 is_stmt 0 discriminator 11
	lui	a1,%hi(.LANCHOR0)
	li	a2,13
	addi	a1,a1,%lo(.LANCHOR0)
	addi	a0,sp,76
	call	memcpy
.LVL308:
	li	a2,7
	li	a1,0
	addi	a0,sp,89
	call	memset
.LVL309:
	.loc 2 245 5 is_stmt 1 discriminator 11
	.loc 2 247 5 discriminator 11
	.loc 2 252 5 discriminator 11
	.loc 2 252 15 is_stmt 0 discriminator 11
	li	a0,64
	call	pvPortMalloc
.LVL310:
	mv	s1,a0
.LVL311:
	.loc 2 254 5 is_stmt 1 discriminator 11
.LBE32:
.LBE43:
	.loc 2 390 74 is_stmt 0 discriminator 11
	lw	a0,16(sp)
	call	fdt32_to_cpu
.LVL312:
.LBB44:
.LBB33:
	.loc 2 254 35 discriminator 11
	sw	a0,16(s1)
	.loc 2 255 5 is_stmt 1 discriminator 11
.LBE33:
.LBE44:
	.loc 2 397 72 is_stmt 0 discriminator 11
	lw	a0,20(sp)
	call	fdt32_to_cpu
.LVL313:
.LBB45:
.LBB34:
	.loc 2 255 33 discriminator 11
	sw	a0,20(s1)
	.loc 2 256 5 is_stmt 1 discriminator 11
.LBE34:
.LBE45:
	.loc 2 404 66 is_stmt 0 discriminator 11
	mv	a0,s8
	call	fdt32_to_cpu
.LVL314:
.LBB46:
.LBB35:
	.loc 2 256 27 discriminator 11
	sw	a0,24(s1)
	.loc 2 257 5 is_stmt 1 discriminator 11
.LBE35:
.LBE46:
	.loc 2 416 73 is_stmt 0 discriminator 11
	lw	a0,24(sp)
	call	fdt32_to_cpu
.LVL315:
.LBB47:
.LBB36:
	.loc 2 257 34 discriminator 11
	sw	a0,28(s1)
	.loc 2 258 5 is_stmt 1 discriminator 11
.LBE36:
.LBE47:
	.loc 2 423 71 is_stmt 0 discriminator 11
	lw	a0,28(sp)
	call	fdt32_to_cpu
.LVL316:
.LBB48:
.LBB37:
	.loc 2 258 32 discriminator 11
	sw	a0,32(s1)
	.loc 2 259 5 is_stmt 1 discriminator 11
.LBE37:
.LBE48:
	.loc 2 430 65 is_stmt 0 discriminator 11
	lw	a0,32(sp)
	call	fdt32_to_cpu
.LVL317:
.LBB49:
.LBB38:
	.loc 2 259 26 discriminator 11
	sw	a0,36(s1)
	.loc 2 260 5 is_stmt 1 discriminator 11
.LBE38:
.LBE49:
	.loc 2 442 71 is_stmt 0 discriminator 11
	lw	a0,36(sp)
	call	fdt32_to_cpu
.LVL318:
.LBB50:
.LBB39:
	.loc 2 260 32 discriminator 11
	sw	a0,40(s1)
	.loc 2 261 5 is_stmt 1 discriminator 11
.LBE39:
.LBE50:
	.loc 2 449 69 is_stmt 0 discriminator 11
	lw	a0,40(sp)
	call	fdt32_to_cpu
.LVL319:
.LBB51:
.LBB40:
	.loc 2 261 30 discriminator 11
	sw	a0,44(s1)
	.loc 2 262 5 is_stmt 1 discriminator 11
.LBE40:
.LBE51:
	.loc 2 377 62 is_stmt 0 discriminator 11
	lw	a0,12(sp)
	call	fdt32_to_cpu
.LVL320:
.LBB52:
.LBB41:
	.loc 2 262 23 discriminator 11
	sw	a0,52(s1)
	.loc 2 263 5 is_stmt 1 discriminator 11
	.loc 2 264 31 is_stmt 0 discriminator 11
	andi	a0,s7,255
	.loc 2 264 22 discriminator 11
	sw	a0,60(s1)
	.loc 2 263 25 discriminator 11
	sw	s3,56(s1)
	.loc 2 264 5 is_stmt 1 discriminator 11
	.loc 2 265 5 discriminator 11
	.loc 2 265 26 is_stmt 0 discriminator 11
	sw	zero,8(s1)
	.loc 2 266 5 is_stmt 1 discriminator 11
	.loc 2 266 26 is_stmt 0 discriminator 11
	sw	zero,12(s1)
	.loc 2 267 5 is_stmt 1 discriminator 11
	.loc 2 267 32 is_stmt 0 discriminator 11
	sw	zero,48(s1)
	.loc 2 270 5 is_stmt 1 discriminator 11
	.loc 2 270 25 is_stmt 0 discriminator 11
	addi	a0,sp,76
	call	strlen
.LVL321:
	.loc 2 270 5 discriminator 11
	lw	a2,60(s1)
	addi	a5,sp,76
	lui	a1,%hi(.LC56)
	addi	a1,a1,%lo(.LC56)
	add	a0,a5,a0
	call	sprintf
.LVL322:
	.loc 2 271 5 is_stmt 1 discriminator 11
	.loc 2 271 116 is_stmt 0 discriminator 11
	lw	a5,52(s1)
	li	a1,1000
	.loc 2 271 33 discriminator 11
	lui	a4,%hi(button_process)
	.loc 2 271 116 discriminator 11
	mul	a5,a1,a5
	.loc 2 271 33 discriminator 11
	addi	a4,a4,%lo(button_process)
	mv	a3,s1
	li	a2,1
	addi	a0,sp,76
	divu	a1,a5,a1
	call	xTimerCreate
.LVL323:
	.loc 2 271 31 discriminator 11
	sw	a0,4(s1)
	.loc 2 273 5 is_stmt 1 discriminator 11
	.loc 2 273 8 is_stmt 0 discriminator 11
	bne	a0,zero,.L175
	.loc 2 274 9 is_stmt 1
	.loc 2 274 47
	.loc 2 274 52
	.loc 2 274 74 is_stmt 0
	lui	a5,%hi(_fsymc_level_hosal)
	.loc 2 274 55
	lw	a4,%lo(_fsymc_level_hosal)(a5)
	li	a5,4
	bgtu	a4,a5,.L88
	.loc 2 274 118
	lui	a4,%hi(_fsymf_level_hosalhal_button)
	.loc 2 274 97
	lw	a4,%lo(_fsymf_level_hosalhal_button)(a4)
	bgtu	a4,a5,.L88
	.loc 2 274 154 is_stmt 1
	.loc 2 274 243 is_stmt 0
	call	xPortIsInsideInterrupt
.LVL324:
	.loc 2 274 154
	beq	a0,zero,.L177
	.loc 2 274 272
	call	xTaskGetTickCountFromISR
.LVL325:
.L216:
	.loc 2 274 303
	mv	a2,a0
	.loc 2 274 154
	lui	a3,%hi(.LC0)
	lui	a1,%hi(.LC1)
	lui	a0,%hi(.LC57)
	li	a4,274
	addi	a3,a3,%lo(.LC0)
	addi	a1,a1,%lo(.LC1)
	addi	a0,a0,%lo(.LC57)
	j	.L218
.LVL326:
.L173:
.LBE41:
.LBE52:
	.loc 2 468 304 discriminator 8
	call	xTaskGetTickCount
.LVL327:
	j	.L215
.LVL328:
.L177:
.LBB53:
.LBB42:
	.loc 2 274 303
	call	xTaskGetTickCount
.LVL329:
	j	.L216
.L175:
	.loc 2 278 5 is_stmt 1
	.loc 2 278 20 is_stmt 0
	lw	a1,56(s1)
.LVL330:
	.loc 2 279 5 is_stmt 1
	lbu	a0,60(s1)
	snez	a2,a1
	seqz	a1,a1
.LVL331:
	call	bl_gpio_enable_input
.LVL332:
	.loc 2 280 5
	lw	a5,56(s1)
	lw	a1,60(s1)
	beq	a5,zero,.L179
	li	s11,3
.L179:
	lui	a0,%hi(button_callback)
	mv	a4,s1
	mv	a3,s11
	li	a2,1
	addi	a0,a0,%lo(button_callback)
	call	hal_gpio_register_handler
.LVL333:
	.loc 2 282 5
	.loc 2 282 12 is_stmt 0
	j	.L88
.LBE42:
.LBE53:
	.cfi_endproc
.LFE46:
	.size	fdt_button_module_init, .-fdt_button_module_init
	.globl	_fsymf_info_hosalhal_button
	.section	.rodata.str1.4,"aMS",@progbits,1
	.align	2
.LC58:
	.string	"hosal.hal_button"
	.comm	_fsymf_level_hosalhal_button,4,4
	.align	2
.LC59:
	.string	"hosal"
	.weak	_fsymc_level_hosal
	.section	.rodata
	.align	2
	.set	.LANCHOR0,. + 0
.LC55:
	.string	"buttontimer-"
	.zero	7
	.section	.sbss._fsymc_level_hosal,"aw",@nobits
	.align	2
	.type	_fsymc_level_hosal, @object
	.size	_fsymc_level_hosal, 4
_fsymc_level_hosal:
	.zero	4
	.section	.srodata.BLOG_HARD_DECLARE_DISABLE,"a"
	.align	2
	.type	BLOG_HARD_DECLARE_DISABLE, @object
	.size	BLOG_HARD_DECLARE_DISABLE, 4
BLOG_HARD_DECLARE_DISABLE:
	.zero	4
	.section	.static_blogcomponent_code.hosal,"a"
	.align	2
	.type	_fsymc_info_hosal, @object
	.size	_fsymc_info_hosal, 8
_fsymc_info_hosal:
	.word	_fsymc_level_hosal
	.word	.LC59
	.section	.static_blogfile_code.hosalhal_button,"a"
	.align	2
	.type	_fsymf_info_hosalhal_button, @object
	.size	_fsymf_info_hosalhal_button, 8
_fsymf_info_hosalhal_button:
	.word	_fsymf_level_hosalhal_button
	.word	.LC58
	.text
.Letext0:
	.file 3 "/mnt/d/GitHub/bl_iot_sdk_for_aithinker/toolchain/riscv/Linux/riscv64-unknown-elf/include/machine/_default_types.h"
	.file 4 "/mnt/d/GitHub/bl_iot_sdk_for_aithinker/toolchain/riscv/Linux/riscv64-unknown-elf/include/sys/_stdint.h"
	.file 5 "/mnt/d/GitHub/bl_iot_sdk_for_aithinker/components/platform/soc/bl602/freertos_riscv_ram/portable/GCC/RISC-V/portmacro.h"
	.file 6 "/mnt/d/GitHub/bl_iot_sdk_for_aithinker/components/utils/include/utils_log.h"
	.file 7 "/mnt/d/GitHub/bl_iot_sdk_for_aithinker/components/stage/blog/blog_type.h"
	.file 8 "/mnt/d/GitHub/bl_iot_sdk_for_aithinker/components/stage/blog/blog.h"
	.file 9 "/mnt/d/GitHub/bl_iot_sdk_for_aithinker/components/platform/soc/bl602/freertos_riscv_ram/config/timers.h"
	.file 10 "/mnt/d/GitHub/bl_iot_sdk_for_aithinker/components/platform/hosal/bl602_hal/bl_gpio.h"
	.file 11 "/mnt/d/GitHub/bl_iot_sdk_for_aithinker/components/platform/hosal/bl602_hal/hal_gpio.h"
	.file 12 "<built-in>"
	.file 13 "/mnt/d/GitHub/bl_iot_sdk_for_aithinker/components/platform/soc/bl602/freertos_riscv_ram/config/portable.h"
	.file 14 "/mnt/d/GitHub/bl_iot_sdk_for_aithinker/toolchain/riscv/Linux/riscv64-unknown-elf/include/string.h"
	.file 15 "/mnt/d/GitHub/bl_iot_sdk_for_aithinker/toolchain/riscv/Linux/riscv64-unknown-elf/include/stdio.h"
	.file 16 "/mnt/d/GitHub/bl_iot_sdk_for_aithinker/components/platform/soc/bl602/freertos_riscv_ram/config/task.h"
	.file 17 "/mnt/d/GitHub/bl_iot_sdk_for_aithinker/components/stage/blfdt/inc/libfdt.h"
	.file 18 "/mnt/d/GitHub/bl_iot_sdk_for_aithinker/components/platform/hosal/bl602_hal/hal_hbn.h"
	.file 19 "/mnt/d/GitHub/bl_iot_sdk_for_aithinker/components/stage/yloop/include/aos/yloop.h"