	.file	"hal_hwtimer.c"
	.option nopic
	.attribute arch, "rv32i2p0_m2p0_f2p0_c2p0"
	.attribute unaligned_access, 0
	.attribute stack_align, 16
	.text
.Ltext0:
	.cfi_sections	.debug_frame
	.section	.text.hal_hwtimer_init,"ax",@progbits
	.align	1
	.globl	hal_hwtimer_init
	.type	hal_hwtimer_init, @function
hal_hwtimer_init:
.LFB30:
	.file 1 "/mnt/d/GitHub/bl_iot_sdk_for_aithinker/components/platform/hosal/bl602_hal/hal_hwtimer.c"
	.loc 1 211 1
	.cfi_startproc
	.loc 1 212 5
	.loc 1 213 1 is_stmt 0
	li	a0,0
	ret
	.cfi_endproc
.LFE30:
	.size	hal_hwtimer_init, .-hal_hwtimer_init
	.section	.rodata.hal_hwtimer_create.str1.4,"aMS",@progbits,1
	.align	2
.LC0:
	.string	"hw_timer"
	.section	.text.hal_hwtimer_create,"ax",@progbits
	.align	1
	.globl	hal_hwtimer_create
	.type	hal_hwtimer_create, @function
hal_hwtimer_create:
.LFB31:
	.loc 1 216 1 is_stmt 1
	.cfi_startproc
.LVL0:
	.loc 1 217 5
	.loc 1 219 5
	.loc 1 216 1 is_stmt 0
	mv	a4,a1
	.loc 1 221 64
	li	a1,1000
.LVL1:
	mul	a0,a0,a1
.LVL2:
	.loc 1 216 1
	addi	sp,sp,-32
	.cfi_def_cfa_offset 32
	.loc 1 219 14
	addi	a3,sp,12
	li	a2,1
.LVL3:
	.loc 1 216 1
	sw	ra,28(sp)
	sw	s0,24(sp)
	.cfi_offset 1, -4
	.cfi_offset 8, -8
	.loc 1 219 14
	divu	a1,a0,a1
	lui	a0,%hi(.LC0)
	addi	a0,a0,%lo(.LC0)
	call	xTimerCreate
.LVL4:
	.loc 1 219 12
	sw	a0,12(sp)
	.loc 1 226 5 is_stmt 1
	.loc 1 226 8 is_stmt 0
	beq	a0,zero,.L3
	mv	s0,a0
	.loc 1 227 10 is_stmt 1
	call	xTaskGetTickCount
.LVL5:
	mv	a2,a0
	li	a4,-1
	li	a3,0
	li	a1,1
	mv	a0,s0
	call	xTimerGenericCommand
.LVL6:
.L3:
	.loc 1 229 5
	.loc 1 230 1 is_stmt 0
	lw	ra,28(sp)
	.cfi_restore 1
	lw	s0,24(sp)
	.cfi_restore 8
	lw	a0,12(sp)
	addi	sp,sp,32
	.cfi_def_cfa_offset 0
	jr	ra
	.cfi_endproc
.LFE31:
	.size	hal_hwtimer_create, .-hal_hwtimer_create
	.section	.text.hal_hwtimer_delete,"ax",@progbits
	.align	1
	.globl	hal_hwtimer_delete
	.type	hal_hwtimer_delete, @function
hal_hwtimer_delete:
.LFB32:
	.loc 1 233 1 is_stmt 1
	.cfi_startproc
.LVL7:
	.loc 1 234 5
	.loc 1 233 1 is_stmt 0
	addi	sp,sp,-16
	.cfi_def_cfa_offset 16
	.loc 1 234 33
	li	a4,-1
	li	a3,0
	li	a2,0
	li	a1,5
	.loc 1 233 1
	sw	ra,12(sp)
	.cfi_offset 1, -4
	.loc 1 234 33
	call	xTimerGenericCommand
.LVL8:
	.loc 1 238 1
	lw	ra,12(sp)
	.cfi_restore 1
	.loc 1 234 8
	seqz	a0,a0
	.loc 1 238 1
	neg	a0,a0
	addi	sp,sp,16
	.cfi_def_cfa_offset 0
	jr	ra
	.cfi_endproc
.LFE32:
	.size	hal_hwtimer_delete, .-hal_hwtimer_delete
	.section	.text.hal_hwtimer_change_period,"ax",@progbits
	.align	1
	.globl	hal_hwtimer_change_period
	.type	hal_hwtimer_change_period, @function
hal_hwtimer_change_period:
.LFB33:
	.loc 1 241 1 is_stmt 1
	.cfi_startproc
.LVL9:
	.loc 1 242 5
	.loc 1 242 154 is_stmt 0
	li	a2,1000
	mul	a1,a1,a2
.LVL10:
	.loc 1 241 1
	addi	sp,sp,-16
	.cfi_def_cfa_offset 16
	.loc 1 242 33
	li	a4,-1
	li	a3,0
	.loc 1 241 1
	sw	ra,12(sp)
	.cfi_offset 1, -4
	.loc 1 242 33
	divu	a2,a1,a2
	li	a1,4
	call	xTimerGenericCommand
.LVL11:
	.loc 1 246 1
	lw	ra,12(sp)
	.cfi_restore 1
	.loc 1 242 8
	seqz	a0,a0
	.loc 1 246 1
	neg	a0,a0
	addi	sp,sp,16
	.cfi_def_cfa_offset 0
	jr	ra
	.cfi_endproc
.LFE33:
	.size	hal_hwtimer_change_period, .-hal_hwtimer_change_period
	.globl	_fsymf_info_hosalhal_hwtimer
	.section	.rodata.str1.4,"aMS",@progbits,1
	.align	2
.LC1:
	.string	"hosal.hal_hwtimer"
	.comm	_fsymf_level_hosalhal_hwtimer,4,4
	.align	2
.LC2:
	.string	"hosal"
	.weak	_fsymc_level_hosal
	.section	.sbss._fsymc_level_hosal,"aw",@nobits
	.align	2
	.type	_fsymc_level_hosal, @object
	.size	_fsymc_level_hosal, 4
_fsymc_level_hosal:
	.zero	4
	.section	.srodata.BLOG_HARD_DECLARE_DISABLE,"a"
	.align	2
	.type	BLOG_HARD_DECLARE_DISABLE, @object
	.size	BLOG_HARD_DECLARE_DISABLE, 4
BLOG_HARD_DECLARE_DISABLE:
	.zero	4
	.section	.static_blogcomponent_code.hosal,"a"
	.align	2
	.type	_fsymc_info_hosal, @object
	.size	_fsymc_info_hosal, 8
_fsymc_info_hosal:
	.word	_fsymc_level_hosal
	.word	.LC2
	.section	.static_blogfile_code.hosalhal_hwtimer,"a"
	.align	2
	.type	_fsymf_info_hosalhal_hwtimer, @object
	.size	_fsymf_info_hosalhal_hwtimer, 8
_fsymf_info_hosalhal_hwtimer:
	.word	_fsymf_level_hosalhal_hwtimer
	.word	.LC1
	.text
.Letext0:
	.file 2 "/mnt/d/GitHub/bl_iot_sdk_for_aithinker/toolchain/riscv/Linux/lib/gcc/riscv64-unknown-elf/10.2.0/include/stdint-gcc.h"
	.file 3 "/mnt/d/GitHub/bl_iot_sdk_for_aithinker/components/platform/soc/bl602/freertos_riscv_ram/portable/GCC/RISC-V/portmacro.h"
	.file 4 "/mnt/d/GitHub/bl_iot_sdk_for_aithinker/components/stage/blog/blog_type.h"
	.file 5 "/mnt/d/GitHub/bl_iot_sdk_for_aithinker/components/stage/blog/blog.h"
	.file 6 "/mnt/d/GitHub/bl_iot_sdk_for_aithinker/components/platform/soc/bl602/freertos_riscv_ram/config/timers.h"
	.file 7 "/mnt/d/GitHub/bl_iot_sdk_for_aithinker/components/platform/hosal/bl602_hal/hal_hwtimer.h"
	.file 8 "/mnt/d/GitHub/bl_iot_sdk_for_aithinker/components/platform/soc/bl602/freertos_riscv_ram/config/task.h"