	.file	"hal_gpio.c"
	.option nopic
	.attribute arch, "rv32i2p0_m2p0_f2p0_c2p0"
	.attribute unaligned_access, 0
	.attribute stack_align, 16
	.text
.Ltext0:
	.cfi_sections	.debug_frame
	.section	.text.fdt32_to_cpu,"ax",@progbits
	.align	1
	.type	fdt32_to_cpu, @function
fdt32_to_cpu:
.LFB6:
	.file 1 "/mnt/d/GitHub/bl_iot_sdk_for_aithinker/components/stage/blfdt/inc/libfdt_env.h"
	.loc 1 92 1
	.cfi_startproc
.LVL0:
	.loc 1 93 5
	.loc 1 93 212 is_stmt 0
	srli	a4,a0,24
	.loc 1 93 12
	slli	a5,a0,24
	or	a5,a5,a4
	.loc 1 93 112
	srli	a4,a0,8
	andi	a4,a4,0xff
	.loc 1 93 163
	srli	a0,a0,16
.LVL1:
	.loc 1 93 117
	slli	a4,a4,16
	.loc 1 93 163
	andi	a0,a0,0xff
	.loc 1 93 12
	or	a5,a5,a4
	.loc 1 93 168
	slli	a0,a0,8
	.loc 1 94 1
	or	a0,a5,a0
	ret
	.cfi_endproc
.LFE6:
	.size	fdt32_to_cpu, .-fdt32_to_cpu
	.section	.rodata.hal_gpio_init_from_dts.str1.4,"aMS",@progbits,1
	.align	2
.LC0:
	.string	"max_num"
	.align	2
.LC1:
	.string	"hal_gpio.c"
	.align	2
.LC2:
	.string	"\033[32mINFO\033[0m"
	.align	2
.LC3:
	.string	"%s (%d)[%s:%4d] [HAL] [GPIO] Max num is %d\r\n\r\n"
	.align	2
.LC4:
	.string	"gpio%u"
	.align	2
.LC5:
	.string	"\033[31mERROR\033[0m"
	.align	2
.LC6:
	.string	"%s (%d)[%s:%4d] %s NOT found\r\n\r\n"
	.align	2
.LC7:
	.string	"status"
	.align	2
.LC8:
	.string	"okay"
	.align	2
.LC9:
	.string	"%s (%d)[%s:%4d] [%s] status = %s\r\n\r\n"
	.align	2
.LC10:
	.string	"pin"
	.align	2
.LC11:
	.string	"%s (%d)[%s:%4d] no pin found for %s\r\n\r\n"
	.align	2
.LC12:
	.string	"feature"
	.align	2
.LC13:
	.string	"led"
	.align	2
.LC14:
	.string	"active"
	.align	2
.LC15:
	.string	"%s (%d)[%s:%4d] %s: unvalid GPIO config %3s\r\n\r\n"
	.align	2
.LC16:
	.string	"Hi"
	.align	2
.LC17:
	.string	"Lo"
	.align	2
.LC18:
	.string	"mode"
	.align	2
.LC19:
	.string	"blink"
	.align	2
.LC20:
	.string	"heartbeat"
	.align	2
.LC21:
	.string	"onoff"
	.align	2
.LC22:
	.string	"time"
	.align	2
.LC23:
	.string	"%s (%d)[%s:%4d] %s: unvalid GPIO config\r\n\r\n"
	.align	2
.LC24:
	.string	"%s (%d)[%s:%4d] New CONF: GPIO%02u: feature %u, active %u, mode %u, time %u\r\n\r\n"
	.section	.text.hal_gpio_init_from_dts,"ax",@progbits
	.align	1
	.globl	hal_gpio_init_from_dts
	.type	hal_gpio_init_from_dts, @function
hal_gpio_init_from_dts:
.LFB43:
	.file 2 "/mnt/d/GitHub/bl_iot_sdk_for_aithinker/components/platform/hosal/bl602_hal/hal_gpio.c"
	.loc 2 165 1 is_stmt 1
	.cfi_startproc
.LVL2:
	addi	sp,sp,-128
	.cfi_def_cfa_offset 128
.LBB10:
.LBB11:
	.loc 2 47 17 is_stmt 0
	lui	a2,%hi(.LC0)
	addi	a3,sp,52
	addi	a2,a2,%lo(.LC0)
.LBE11:
.LBE10:
	.loc 2 165 1
	sw	s1,116(sp)
	sw	s6,96(sp)
	sw	ra,124(sp)
	sw	s0,120(sp)
	sw	s2,112(sp)
	sw	s3,108(sp)
	sw	s4,104(sp)
	sw	s5,100(sp)
	sw	s7,92(sp)
	sw	s8,88(sp)
	sw	s9,84(sp)
	sw	s10,80(sp)
	sw	s11,76(sp)
	.cfi_offset 9, -12
	.cfi_offset 22, -32
	.cfi_offset 1, -4
	.cfi_offset 8, -8
	.cfi_offset 18, -16
	.cfi_offset 19, -20
	.cfi_offset 20, -24
	.cfi_offset 21, -28
	.cfi_offset 23, -36
	.cfi_offset 24, -40
	.cfi_offset 25, -44
	.cfi_offset 26, -48
	.cfi_offset 27, -52
	.loc 2 165 1
	mv	s1,a0
	.loc 2 166 5 is_stmt 1
	.loc 2 167 5
	.loc 2 168 5
	.loc 2 170 5
.LVL3:
.LBB15:
.LBB12:
	.loc 2 43 5
.LBE12:
.LBE15:
	.loc 2 165 1 is_stmt 0
	sw	a1,24(sp)
.LBB16:
.LBB13:
	.loc 2 43 9
	sw	zero,52(sp)
	.loc 2 44 5 is_stmt 1
.LVL4:
	.loc 2 45 5
	.loc 2 47 5
	.loc 2 47 17 is_stmt 0
	call	fdt_getprop
.LVL5:
	.loc 2 48 5 is_stmt 1
	li	s6,-1
	.loc 2 48 8 is_stmt 0
	beq	a0,zero,.L3
	.loc 2 51 5 is_stmt 1
	.loc 2 51 26 is_stmt 0
	lw	a0,0(a0)
.LVL6:
	call	fdt32_to_cpu
.LVL7:
	mv	s6,a0
	.loc 2 52 5 is_stmt 1
.L3:
.LVL8:
.LBE13:
.LBE16:
	.loc 2 171 5
	.loc 2 171 43
	.loc 2 171 48
	.loc 2 171 69 is_stmt 0
	lui	s0,%hi(_fsymc_level_hosal)
	.loc 2 171 51
	lw	a4,%lo(_fsymc_level_hosal)(s0)
	li	a5,2
	bgtu	a4,a5,.L4
	.loc 2 171 112 discriminator 3
	lui	a4,%hi(_fsymf_level_hosalhal_gpio)
	.loc 2 171 92 discriminator 3
	lw	a4,%lo(_fsymf_level_hosalhal_gpio)(a4)
	bgtu	a4,a5,.L4
	.loc 2 171 146 is_stmt 1 discriminator 5
	.loc 2 171 240 is_stmt 0 discriminator 5
	call	xPortIsInsideInterrupt
.LVL9:
	.loc 2 171 146 discriminator 5
	beq	a0,zero,.L5
	.loc 2 171 269 discriminator 7
	call	xTaskGetTickCountFromISR
.LVL10:
.L56:
	.loc 2 171 300 discriminator 8
	mv	a2,a0
	.loc 2 171 146 discriminator 8
	lui	a3,%hi(.LC1)
	lui	a1,%hi(.LC2)
	lui	a0,%hi(.LC3)
	mv	a5,s6
	li	a4,171
	addi	a3,a3,%lo(.LC1)
	addi	a1,a1,%lo(.LC2)
	addi	a0,a0,%lo(.LC3)
	call	bl_printk
.LVL11:
.L4:
.LBB17:
.LBB18:
	.loc 2 152 30 discriminator 2
	lui	s4,%hi(led_onoff_config)
.LBE18:
.LBE17:
.LBB22:
.LBB14:
	.loc 2 49 16 discriminator 2
	li	s7,0
.LBE14:
.LBE22:
.LBB23:
.LBB24:
	.loc 2 83 27 discriminator 2
	lui	s9,%hi(.LC8)
	.loc 2 88 17 discriminator 2
	lui	s10,%hi(.LC10)
	.loc 2 95 14 discriminator 2
	lui	s11,%hi(.LC12)
	.loc 2 99 118 discriminator 2
	lui	s3,%hi(_fsymf_level_hosalhal_gpio)
.LBE24:
.LBE23:
.LBB29:
.LBB19:
	.loc 2 152 30 discriminator 2
	addi	s4,s4,%lo(led_onoff_config)
.L7:
.LVL12:
.LBE19:
.LBE29:
	.loc 2 176 17 is_stmt 1 discriminator 2
	.loc 2 176 5 is_stmt 0 discriminator 2
	bge	s7,s6,.L10
	.loc 2 177 9 is_stmt 1
	lui	a5,%hi(.LC4)
	addi	a2,a5,%lo(.LC4)
	mv	a3,s7
	li	a1,11
	addi	a0,sp,40
	call	snprintf
.LVL13:
	.loc 2 178 9
.LBB30:
.LBB25:
	.loc 2 73 15 is_stmt 0
	lw	a1,24(sp)
	addi	a2,sp,40
	mv	a0,s1
.LBE25:
.LBE30:
	.loc 2 178 32
	sb	zero,51(sp)
	.loc 2 179 9 is_stmt 1
.LVL14:
.LBB31:
.LBB26:
	.loc 2 57 5
	.loc 2 58 5
	.loc 2 58 9 is_stmt 0
	sw	zero,36(sp)
	.loc 2 59 5 is_stmt 1
.LVL15:
	.loc 2 60 5
	.loc 2 73 5
	.loc 2 73 15 is_stmt 0
	call	fdt_subnode_offset
.LVL16:
	mv	s2,a0
.LVL17:
	.loc 2 74 5 is_stmt 1
	.loc 2 74 8 is_stmt 0
	bge	a0,zero,.L8
	.loc 2 75 9 is_stmt 1
	.loc 2 75 47
	.loc 2 75 52
	.loc 2 75 55 is_stmt 0
	lw	a4,%lo(_fsymc_level_hosal)(s0)
	li	a5,4
	bgtu	a4,a5,.L10
	.loc 2 75 118
	lui	a4,%hi(_fsymf_level_hosalhal_gpio)
	.loc 2 75 97
	lw	a4,%lo(_fsymf_level_hosalhal_gpio)(a4)
	bgtu	a4,a5,.L10
	.loc 2 75 152 is_stmt 1
	.loc 2 75 233 is_stmt 0
	call	xPortIsInsideInterrupt
.LVL18:
	.loc 2 75 152
	beq	a0,zero,.L12
	.loc 2 75 262
	call	xTaskGetTickCountFromISR
.LVL19:
.L57:
	.loc 2 75 293
	mv	a2,a0
	.loc 2 75 152
	lui	a3,%hi(.LC1)
	lui	a1,%hi(.LC5)
	lui	a0,%hi(.LC6)
	addi	a5,sp,40
.LVL20:
	li	a4,75
	addi	a3,a3,%lo(.LC1)
	addi	a1,a1,%lo(.LC5)
	addi	a0,a0,%lo(.LC6)
	call	bl_printk
.LVL21:
.L10:
.LBE26:
.LBE31:
	.loc 2 189 5 is_stmt 1
	.loc 2 190 1 is_stmt 0
	lw	ra,124(sp)
	.cfi_remember_state
	.cfi_restore 1
	lw	s0,120(sp)
	.cfi_restore 8
	lw	s1,116(sp)
	.cfi_restore 9
.LVL22:
	lw	s2,112(sp)
	.cfi_restore 18
	lw	s3,108(sp)
	.cfi_restore 19
	lw	s4,104(sp)
	.cfi_restore 20
	lw	s5,100(sp)
	.cfi_restore 21
	lw	s6,96(sp)
	.cfi_restore 22
.LVL23:
	lw	s7,92(sp)
	.cfi_restore 23
.LVL24:
	lw	s8,88(sp)
	.cfi_restore 24
	lw	s9,84(sp)
	.cfi_restore 25
	lw	s10,80(sp)
	.cfi_restore 26
	lw	s11,76(sp)
	.cfi_restore 27
	li	a0,0
	addi	sp,sp,128
	.cfi_def_cfa_offset 0
.LVL25:
	jr	ra
.LVL26:
.L5:
	.cfi_restore_state
	.loc 2 171 300 discriminator 8
	call	xTaskGetTickCount
.LVL27:
	j	.L56
.LVL28:
.L12:
.LBB32:
.LBB27:
	.loc 2 75 293
	call	xTaskGetTickCount
.LVL29:
	j	.L57
.LVL30:
.L8:
	.loc 2 79 5 is_stmt 1
	li	a2,12
	li	a1,0
	addi	a0,sp,52
.LVL31:
	call	memset
.LVL32:
	.loc 2 80 5
	.loc 2 82 14 is_stmt 0
	lui	a5,%hi(.LC7)
	addi	a4,sp,36
	li	a3,0
	addi	a2,a5,%lo(.LC7)
	mv	a1,s2
	mv	a0,s1
	.loc 2 80 24
	sb	zero,56(sp)
	.loc 2 82 5 is_stmt 1
	.loc 2 82 14 is_stmt 0
	call	fdt_stringlist_get
.LVL33:
	.loc 2 83 8
	lw	s8,36(sp)
	li	a4,4
	.loc 2 82 14
	mv	s5,a0
.LVL34:
	.loc 2 83 5 is_stmt 1
	.loc 2 83 8 is_stmt 0
	beq	s8,a4,.L14
.LVL35:
.L17:
	.loc 2 84 9 is_stmt 1
	.loc 2 84 47
	.loc 2 84 52
	.loc 2 84 55 is_stmt 0
	lw	a4,%lo(_fsymc_level_hosal)(s0)
	li	a5,2
	bleu	a4,a5,.L15
.LVL36:
.L19:
.LBE27:
.LBE32:
	.loc 2 181 16 is_stmt 1
	.loc 2 181 38 is_stmt 0
	lbu	a5,56(sp)
	.loc 2 181 19
	li	a4,1
	bne	a5,a4,.L43
	.loc 2 182 13 is_stmt 1
.LVL37:
.LBB33:
.LBB34:
	.loc 2 140 5
	.loc 2 140 43
	.loc 2 140 48
	.loc 2 140 51 is_stmt 0
	lw	a4,%lo(_fsymc_level_hosal)(s0)
	li	a5,2
	bgtu	a4,a5,.L44
	.loc 2 140 92
	lw	a4,%lo(_fsymf_level_hosalhal_gpio)(s3)
	bgtu	a4,a5,.L44
	.loc 2 140 146 is_stmt 1
	.loc 2 140 273 is_stmt 0
	call	xPortIsInsideInterrupt
.LVL38:
	.loc 2 140 146
	beq	a0,zero,.L45
	.loc 2 140 302
	call	xTaskGetTickCountFromISR
.LVL39:
.L68:
	.loc 2 140 146
	lw	a5,60(sp)
	lbu	a7,58(sp)
	lbu	a6,57(sp)
	sw	a5,4(sp)
	lbu	a5,59(sp)
	.loc 2 140 333
	mv	a2,a0
	.loc 2 140 146
	lui	a3,%hi(.LC1)
	sw	a5,0(sp)
	lw	a5,52(sp)
	lui	a1,%hi(.LC2)
	lui	a0,%hi(.LC24)
	li	a4,140
	addi	a3,a3,%lo(.LC1)
	addi	a1,a1,%lo(.LC2)
	addi	a0,a0,%lo(.LC24)
	call	bl_printk
.LVL40:
.L44:
	.loc 2 140 459 is_stmt 1
	.loc 2 146 6
.LBE34:
.LBE33:
	.loc 2 183 13
.LBB36:
.LBB20:
	.loc 2 151 5
	.loc 2 151 7 is_stmt 0
	lbu	a4,59(sp)
	li	a5,2
	.loc 2 152 38
	lw	a0,52(sp)
	.loc 2 151 7
	bne	a4,a5,.L47
	.loc 2 152 9 is_stmt 1
	.loc 2 153 32 is_stmt 0
	li	a5,1
	sb	a5,4(s4)
	.loc 2 154 33
	lbu	a5,58(sp)
	.loc 2 152 30
	sw	a0,0(s4)
	.loc 2 153 9 is_stmt 1
	.loc 2 154 9
	.loc 2 156 9 is_stmt 0
	li	a1,0
	li	a2,0
	andi	a0,a0,0xff
	.loc 2 154 33
	sb	a5,5(s4)
	.loc 2 156 9 is_stmt 1
	call	bl_gpio_enable_output
.LVL41:
	.loc 2 157 9
	lbu	a1,5(s4)
	lbu	a0,0(s4)
	seqz	a1,a1
	call	bl_gpio_output_set
.LVL42:
.L48:
.LBE20:
.LBE36:
	.loc 2 185 366 discriminator 11
	.loc 2 185 377 discriminator 11
	.loc 2 176 26 discriminator 11
	.loc 2 176 27 is_stmt 0 discriminator 11
	addi	s7,s7,1
.LVL43:
	j	.L7
.LVL44:
.L14:
.LBB37:
.LBB28:
	.loc 2 83 27
	mv	a1,a0
	li	a2,4
	addi	a0,s9,%lo(.LC8)
.LVL45:
	call	memcmp
.LVL46:
	.loc 2 83 23
	bne	a0,zero,.L17
	.loc 2 88 5 is_stmt 1
	.loc 2 88 17 is_stmt 0
	addi	a3,sp,36
	addi	a2,s10,%lo(.LC10)
	mv	a1,s2
	mv	a0,s1
	call	fdt_getprop
.LVL47:
	.loc 2 89 5 is_stmt 1
	.loc 2 89 8 is_stmt 0
	bne	a0,zero,.L22
	.loc 2 90 9 is_stmt 1
	.loc 2 90 47
	.loc 2 90 52
	.loc 2 90 55 is_stmt 0
	lw	a4,%lo(_fsymc_level_hosal)(s0)
	bgtu	a4,s8,.L19
	.loc 2 90 97
	lw	a4,%lo(_fsymf_level_hosalhal_gpio)(s3)
	bgtu	a4,s8,.L19
	.loc 2 90 152 is_stmt 1
	.loc 2 90 240 is_stmt 0
	call	xPortIsInsideInterrupt
.LVL48:
	.loc 2 90 152
	beq	a0,zero,.L23
	.loc 2 90 269
	call	xTaskGetTickCountFromISR
.LVL49:
.L59:
	.loc 2 90 300
	mv	a2,a0
	.loc 2 90 152
	lui	a3,%hi(.LC1)
	lui	a1,%hi(.LC5)
	lui	a0,%hi(.LC11)
	addi	a5,sp,40
.LVL50:
	li	a4,90
	addi	a3,a3,%lo(.LC1)
	addi	a1,a1,%lo(.LC5)
	addi	a0,a0,%lo(.LC11)
.L67:
	.loc 2 127 152
	call	bl_printk
.LVL51:
	j	.L19
.LVL52:
.L15:
	.loc 2 84 96
	lw	a4,%lo(_fsymf_level_hosalhal_gpio)(s3)
	bgtu	a4,a5,.L19
	.loc 2 84 150 is_stmt 1
	.loc 2 84 234 is_stmt 0
	call	xPortIsInsideInterrupt
.LVL53:
	.loc 2 84 150
	beq	a0,zero,.L20
	.loc 2 84 263
	call	xTaskGetTickCountFromISR
.LVL54:
.L58:
	.loc 2 84 294
	mv	a2,a0
	.loc 2 84 150
	lui	a3,%hi(.LC1)
	lui	a1,%hi(.LC2)
	lui	a0,%hi(.LC9)
	mv	a6,s5
	addi	a5,sp,40
.LVL55:
	li	a4,84
	addi	a3,a3,%lo(.LC1)
	addi	a1,a1,%lo(.LC2)
	addi	a0,a0,%lo(.LC9)
.LVL56:
.L65:
	.loc 2 121 152
	call	bl_printk
.LVL57:
	j	.L19
.LVL58:
.L20:
	.loc 2 84 294
	call	xTaskGetTickCount
.LVL59:
	j	.L58
.LVL60:
.L23:
	.loc 2 90 300
	call	xTaskGetTickCount
.LVL61:
	j	.L59
.LVL62:
.L22:
	.loc 2 93 5 is_stmt 1
	.loc 2 93 35 is_stmt 0
	lw	a0,0(a0)
.LVL63:
	call	fdt32_to_cpu
.LVL64:
	.loc 2 93 22
	sw	a0,52(sp)
	.loc 2 95 5 is_stmt 1
	.loc 2 95 14 is_stmt 0
	addi	a4,sp,36
	li	a3,0
	addi	a2,s11,%lo(.LC12)
	mv	a1,s2
	mv	a0,s1
	call	fdt_stringlist_get
.LVL65:
	.loc 2 96 8
	lw	a4,36(sp)
	li	a5,3
	.loc 2 95 14
	mv	s5,a0
.LVL66:
	.loc 2 96 5 is_stmt 1
	.loc 2 96 8 is_stmt 0
	bne	a4,a5,.L25
	.loc 2 96 24
	mv	a1,a0
	lui	a0,%hi(.LC13)
.LVL67:
	li	a2,3
	addi	a0,a0,%lo(.LC13)
	call	memcmp
.LVL68:
	.loc 2 96 21
	bne	a0,zero,.L25
	.loc 2 97 9 is_stmt 1
	.loc 2 103 14 is_stmt 0
	lui	a2,%hi(.LC14)
	addi	a4,sp,36
	li	a3,0
	addi	a2,a2,%lo(.LC14)
	mv	a1,s2
	mv	a0,s1
	.loc 2 97 30
	sb	zero,57(sp)
	.loc 2 103 5 is_stmt 1
	.loc 2 103 14 is_stmt 0
	call	fdt_stringlist_get
.LVL69:
	.loc 2 104 8
	lw	a5,36(sp)
	li	a4,2
	.loc 2 103 14
	mv	s5,a0
.LVL70:
	.loc 2 104 5 is_stmt 1
	.loc 2 104 8 is_stmt 0
	bne	a5,a4,.L27
	.loc 2 104 24
	mv	a1,a0
	lui	a0,%hi(.LC16)
.LVL71:
	li	a2,2
	addi	a0,a0,%lo(.LC16)
	sw	a5,28(sp)
	call	memcmp
.LVL72:
	.loc 2 104 21
	lw	a5,28(sp)
	bne	a0,zero,.L30
	.loc 2 105 9 is_stmt 1
	.loc 2 105 29 is_stmt 0
	li	a5,1
	sb	a5,58(sp)
.L31:
	.loc 2 113 5 is_stmt 1
	.loc 2 113 14 is_stmt 0
	lui	a2,%hi(.LC18)
	addi	a4,sp,36
	li	a3,0
	addi	a2,a2,%lo(.LC18)
	mv	a1,s2
	mv	a0,s1
	call	fdt_stringlist_get
.LVL73:
	.loc 2 114 8
	lw	a4,36(sp)
	li	a5,5
	.loc 2 113 14
	mv	s5,a0
.LVL74:
	.loc 2 114 5 is_stmt 1
	.loc 2 114 8 is_stmt 0
	bne	a4,a5,.L34
	.loc 2 114 24
	mv	a1,a0
	lui	a0,%hi(.LC19)
.LVL75:
	li	a2,5
	addi	a0,a0,%lo(.LC19)
	call	memcmp
.LVL76:
	.loc 2 114 21
	bne	a0,zero,.L34
	.loc 2 115 9 is_stmt 1
	.loc 2 115 27 is_stmt 0
	sb	zero,59(sp)
.L35:
	.loc 2 125 5 is_stmt 1
	.loc 2 125 17 is_stmt 0
	lui	a2,%hi(.LC22)
	addi	a3,sp,36
	addi	a2,a2,%lo(.LC22)
	mv	a1,s2
	mv	a0,s1
	call	fdt_getprop
.LVL77:
	.loc 2 126 5 is_stmt 1
	.loc 2 126 8 is_stmt 0
	bne	a0,zero,.L40
	.loc 2 127 9 is_stmt 1
	.loc 2 127 47
	.loc 2 127 52
	.loc 2 127 55 is_stmt 0
	lw	a4,%lo(_fsymc_level_hosal)(s0)
	li	a5,4
	bgtu	a4,a5,.L19
	.loc 2 127 97
	lw	a4,%lo(_fsymf_level_hosalhal_gpio)(s3)
	bgtu	a4,a5,.L19
	.loc 2 127 152 is_stmt 1
	.loc 2 127 244 is_stmt 0
	call	xPortIsInsideInterrupt
.LVL78:
	.loc 2 127 152
	beq	a0,zero,.L41
	.loc 2 127 273
	call	xTaskGetTickCountFromISR
.LVL79:
.L64:
	.loc 2 127 304
	mv	a2,a0
	.loc 2 127 152
	lui	a3,%hi(.LC1)
	lui	a1,%hi(.LC5)
	lui	a0,%hi(.LC23)
	addi	a5,sp,40
.LVL80:
	li	a4,127
	addi	a3,a3,%lo(.LC1)
	addi	a1,a1,%lo(.LC5)
	addi	a0,a0,%lo(.LC23)
	j	.L67
.LVL81:
.L25:
	.loc 2 99 9 is_stmt 1
	.loc 2 99 47
	.loc 2 99 52
	.loc 2 99 55 is_stmt 0
	lw	a4,%lo(_fsymc_level_hosal)(s0)
	li	a5,4
	bgtu	a4,a5,.L19
	.loc 2 99 97
	lw	a4,%lo(_fsymf_level_hosalhal_gpio)(s3)
	bgtu	a4,a5,.L19
	.loc 2 99 152 is_stmt 1
	.loc 2 99 248 is_stmt 0
	call	xPortIsInsideInterrupt
.LVL82:
	.loc 2 99 152
	beq	a0,zero,.L28
	.loc 2 99 277
	call	xTaskGetTickCountFromISR
.LVL83:
.L60:
	.loc 2 99 308
	mv	a2,a0
	.loc 2 99 152
	mv	a6,s5
	addi	a5,sp,40
.LVL84:
	li	a4,99
.LVL85:
.L66:
	.loc 2 121 152
	lui	a3,%hi(.LC1)
	lui	a1,%hi(.LC5)
	lui	a0,%hi(.LC15)
	addi	a3,a3,%lo(.LC1)
	addi	a1,a1,%lo(.LC5)
	addi	a0,a0,%lo(.LC15)
	j	.L65
.LVL86:
.L28:
	.loc 2 99 308
	call	xTaskGetTickCount
.LVL87:
	j	.L60
.L30:
	.loc 2 106 12 is_stmt 1
	.loc 2 106 15 is_stmt 0
	lw	a4,36(sp)
	bne	a4,a5,.L27
	.loc 2 106 31
	lui	a0,%hi(.LC17)
	li	a2,2
	mv	a1,s5
	addi	a0,a0,%lo(.LC17)
	call	memcmp
.LVL88:
	.loc 2 106 28
	bne	a0,zero,.L27
	.loc 2 107 9 is_stmt 1
	.loc 2 107 29 is_stmt 0
	sb	zero,58(sp)
	j	.L31
.L27:
	.loc 2 109 9 is_stmt 1
	.loc 2 109 47
	.loc 2 109 52
	.loc 2 109 55 is_stmt 0
	lw	a4,%lo(_fsymc_level_hosal)(s0)
	li	a5,4
	bgtu	a4,a5,.L19
	.loc 2 109 97
	lw	a4,%lo(_fsymf_level_hosalhal_gpio)(s3)
	bgtu	a4,a5,.L19
	.loc 2 109 152 is_stmt 1
	.loc 2 109 248 is_stmt 0
	call	xPortIsInsideInterrupt
.LVL89:
	.loc 2 109 152
	beq	a0,zero,.L32
	.loc 2 109 277
	call	xTaskGetTickCountFromISR
.LVL90:
.L61:
	.loc 2 109 308
	mv	a2,a0
	.loc 2 109 152
	mv	a6,s5
	addi	a5,sp,40
.LVL91:
	li	a4,109
	j	.L66
.LVL92:
.L32:
	.loc 2 109 308
	call	xTaskGetTickCount
.LVL93:
	j	.L61
.L34:
	.loc 2 116 12 is_stmt 1
	.loc 2 116 15 is_stmt 0
	lw	a4,36(sp)
	li	a5,9
	bne	a4,a5,.L36
	.loc 2 116 31
	lui	a0,%hi(.LC20)
	li	a2,9
	mv	a1,s5
	addi	a0,a0,%lo(.LC20)
	call	memcmp
.LVL94:
	.loc 2 117 27
	li	a5,1
	.loc 2 116 28
	beq	a0,zero,.L63
.L36:
	.loc 2 118 12 is_stmt 1
	.loc 2 118 15 is_stmt 0
	lw	a4,36(sp)
	li	a5,5
	bne	a4,a5,.L37
	.loc 2 118 31
	lui	a0,%hi(.LC21)
	li	a2,5
	mv	a1,s5
	addi	a0,a0,%lo(.LC21)
	call	memcmp
.LVL95:
	.loc 2 118 28
	bne	a0,zero,.L37
	.loc 2 119 9 is_stmt 1
	.loc 2 119 27 is_stmt 0
	li	a5,2
.L63:
	sb	a5,59(sp)
	j	.L35
.L37:
	.loc 2 121 9 is_stmt 1
	.loc 2 121 47
	.loc 2 121 52
	.loc 2 121 55 is_stmt 0
	lw	a4,%lo(_fsymc_level_hosal)(s0)
	li	a5,4
	bgtu	a4,a5,.L19
	.loc 2 121 97
	lw	a4,%lo(_fsymf_level_hosalhal_gpio)(s3)
	bgtu	a4,a5,.L19
	.loc 2 121 152 is_stmt 1
	.loc 2 121 248 is_stmt 0
	call	xPortIsInsideInterrupt
.LVL96:
	.loc 2 121 152
	beq	a0,zero,.L38
	.loc 2 121 277
	call	xTaskGetTickCountFromISR
.LVL97:
.L62:
	.loc 2 121 308
	mv	a2,a0
	.loc 2 121 152
	mv	a6,s5
	addi	a5,sp,40
.LVL98:
	li	a4,121
	j	.L66
.LVL99:
.L38:
	.loc 2 121 308
	call	xTaskGetTickCount
.LVL100:
	j	.L62
.L41:
	.loc 2 127 304
	call	xTaskGetTickCount
.LVL101:
	j	.L64
.LVL102:
.L40:
	.loc 2 130 5 is_stmt 1
	.loc 2 130 36 is_stmt 0
	lw	a0,0(a0)
.LVL103:
	call	fdt32_to_cpu
.LVL104:
	.loc 2 133 24
	li	a5,1
	.loc 2 130 23
	sw	a0,60(sp)
	.loc 2 133 5 is_stmt 1
	.loc 2 133 24 is_stmt 0
	sb	a5,56(sp)
	.loc 2 135 5 is_stmt 1
.LVL105:
	j	.L19
.LVL106:
.L45:
.LBE28:
.LBE37:
.LBB38:
.LBB35:
	.loc 2 140 333 is_stmt 0
	call	xTaskGetTickCount
.LVL107:
	j	.L68
.LVL108:
.L47:
.LBE35:
.LBE38:
.LBB39:
.LBB21:
	.loc 2 160 9 is_stmt 1
	lw	a1,60(sp)
	call	loopset_led_trigger
.LVL109:
	j	.L48
.LVL110:
.L43:
.LBE21:
.LBE39:
	.loc 2 184 16
	.loc 2 184 19 is_stmt 0
	bne	a5,zero,.L48
	.loc 2 185 13 is_stmt 1 discriminator 1
	.loc 2 185 51 discriminator 1
	.loc 2 185 56 discriminator 1
	.loc 2 185 59 is_stmt 0 discriminator 1
	lw	a4,%lo(_fsymc_level_hosal)(s0)
	li	a5,4
	bgtu	a4,a5,.L48
	.loc 2 185 101 discriminator 3
	lw	a4,%lo(_fsymf_level_hosalhal_gpio)(s3)
	bgtu	a4,a5,.L48
	.loc 2 185 156 is_stmt 1 discriminator 5
	.loc 2 185 248 is_stmt 0 discriminator 5
	call	xPortIsInsideInterrupt
.LVL111:
	.loc 2 185 156 discriminator 5
	beq	a0,zero,.L49
	.loc 2 185 277 discriminator 7
	call	xTaskGetTickCountFromISR
.LVL112:
.L69:
	.loc 2 185 308 discriminator 8
	mv	a2,a0
	.loc 2 185 156 discriminator 8
	lui	a3,%hi(.LC1)
	lui	a1,%hi(.LC5)
	lui	a0,%hi(.LC23)
	addi	a5,sp,40
	li	a4,185
	addi	a3,a3,%lo(.LC1)
	addi	a1,a1,%lo(.LC5)
	addi	a0,a0,%lo(.LC23)
	call	bl_printk
.LVL113:
	j	.L48
.L49:
	.loc 2 185 308 discriminator 8
	call	xTaskGetTickCount
.LVL114:
	j	.L69
	.cfi_endproc
.LFE43:
	.size	hal_gpio_init_from_dts, .-hal_gpio_init_from_dts
	.section	.rodata.hal_gpio_register_handler.str1.4,"aMS",@progbits,1
	.align	2
.LC25:
	.string	"%s (%d)[%s:%4d] register paraments is not correct! \r\n\r\n"
	.align	2
.LC26:
	.string	"%s (%d)[%s:%4d] Malloc failed \r\n\r\n"
	.section	.text.hal_gpio_register_handler,"ax",@progbits
	.align	1
	.globl	hal_gpio_register_handler
	.type	hal_gpio_register_handler, @function
hal_gpio_register_handler:
.LFB44:
	.loc 2 194 1 is_stmt 1
	.cfi_startproc
.LVL115:
	.loc 2 195 5
	.loc 2 194 1 is_stmt 0
	addi	sp,sp,-32
	.cfi_def_cfa_offset 32
	sw	ra,28(sp)
	sw	s0,24(sp)
	sw	s1,20(sp)
	sw	s2,16(sp)
	sw	s3,12(sp)
	sw	s4,8(sp)
	.cfi_offset 1, -4
	.cfi_offset 8, -8
	.cfi_offset 9, -12
	.cfi_offset 18, -16
	.cfi_offset 19, -20
	.cfi_offset 20, -24
	.loc 2 195 8
	beq	a0,zero,.L71
	.loc 2 195 21 discriminator 1
	li	a5,31
	mv	s3,a1
	bgt	a1,a5,.L71
	.loc 2 195 37 discriminator 2
	li	a5,1
	mv	s2,a2
	bgt	a2,a5,.L71
	.loc 2 195 55 discriminator 3
	li	a5,3
	mv	s1,a3
	ble	a3,a5,.L72
.L71:
	.loc 2 196 9 is_stmt 1 discriminator 1
	.loc 2 196 47 discriminator 1
	.loc 2 196 52 discriminator 1
	.loc 2 196 74 is_stmt 0 discriminator 1
	lui	a5,%hi(_fsymc_level_hosal)
	.loc 2 196 55 discriminator 1
	lw	a4,%lo(_fsymc_level_hosal)(a5)
.LVL116:
	li	a5,4
	bleu	a4,a5,.L73
.LVL117:
.L90:
	.loc 2 205 16 discriminator 10
	li	a0,-1
.L70:
	.loc 2 227 1
	lw	ra,28(sp)
	.cfi_remember_state
	.cfi_restore 1
	lw	s0,24(sp)
	.cfi_restore 8
	lw	s1,20(sp)
	.cfi_restore 9
	lw	s2,16(sp)
	.cfi_restore 18
	lw	s3,12(sp)
	.cfi_restore 19
	lw	s4,8(sp)
	.cfi_restore 20
	addi	sp,sp,32
	.cfi_def_cfa_offset 0
	jr	ra
.LVL118:
.L73:
	.cfi_restore_state
	.loc 2 196 118 discriminator 3
	lui	a4,%hi(_fsymf_level_hosalhal_gpio)
	.loc 2 196 97 discriminator 3
	lw	a4,%lo(_fsymf_level_hosalhal_gpio)(a4)
	bgtu	a4,a5,.L90
	.loc 2 196 152 is_stmt 1 discriminator 5
	.loc 2 196 256 is_stmt 0 discriminator 5
	call	xPortIsInsideInterrupt
.LVL119:
	.loc 2 196 152 discriminator 5
	beq	a0,zero,.L76
	.loc 2 196 285 discriminator 7
	call	xTaskGetTickCountFromISR
.LVL120:
.L87:
	.loc 2 196 316 discriminator 8
	mv	a2,a0
	.loc 2 196 152 discriminator 8
	lui	a3,%hi(.LC1)
	lui	a1,%hi(.LC5)
	lui	a0,%hi(.LC25)
	li	a4,196
	addi	a3,a3,%lo(.LC1)
	addi	a1,a1,%lo(.LC5)
	addi	a0,a0,%lo(.LC25)
.L89:
	.loc 2 204 152 discriminator 10
	call	bl_printk
.LVL121:
	j	.L90
.L76:
	.loc 2 196 316 discriminator 8
	call	xTaskGetTickCount
.LVL122:
	j	.L87
.LVL123:
.L72:
	mv	s0,a0
	.loc 2 202 15
	li	a0,16
.LVL124:
	mv	s4,a4
	.loc 2 200 5 is_stmt 1
	.loc 2 202 5
	.loc 2 202 15 is_stmt 0
	call	pvPortMalloc
.LVL125:
	.loc 2 203 5 is_stmt 1
	.loc 2 203 8 is_stmt 0
	bne	a0,zero,.L78
	.loc 2 204 9 is_stmt 1 discriminator 1
	.loc 2 204 47 discriminator 1
	.loc 2 204 52 discriminator 1
	.loc 2 204 74 is_stmt 0 discriminator 1
	lui	a5,%hi(_fsymc_level_hosal)
	.loc 2 204 55 discriminator 1
	lw	a4,%lo(_fsymc_level_hosal)(a5)
	li	a5,4
	bgtu	a4,a5,.L90
	.loc 2 204 118 discriminator 3
	lui	a4,%hi(_fsymf_level_hosalhal_gpio)
	.loc 2 204 97 discriminator 3
	lw	a4,%lo(_fsymf_level_hosalhal_gpio)(a4)
	bgtu	a4,a5,.L90
	.loc 2 204 152 is_stmt 1 discriminator 5
	.loc 2 204 235 is_stmt 0 discriminator 5
	call	xPortIsInsideInterrupt
.LVL126:
	.loc 2 204 152 discriminator 5
	beq	a0,zero,.L79
	.loc 2 204 264 discriminator 7
	call	xTaskGetTickCountFromISR
.LVL127:
.L88:
	.loc 2 204 295 discriminator 8
	mv	a2,a0
	.loc 2 204 152 discriminator 8
	lui	a3,%hi(.LC1)
	lui	a1,%hi(.LC5)
	lui	a0,%hi(.LC26)
	li	a4,204
	addi	a3,a3,%lo(.LC1)
	addi	a1,a1,%lo(.LC5)
	addi	a0,a0,%lo(.LC26)
	j	.L89
.L79:
	.loc 2 204 295 discriminator 8
	call	xTaskGetTickCount
.LVL128:
	j	.L88
.LVL129:
.L78:
	.loc 2 208 5 is_stmt 1
	.loc 2 214 9 is_stmt 0
	lui	a5,%hi(.LANCHOR0)
	addi	a5,a5,%lo(.LANCHOR0)
	lw	a4,0(a5)
	.loc 2 208 22
	sb	s3,12(a0)
	.loc 2 209 5 is_stmt 1
	.loc 2 209 25 is_stmt 0
	sb	s2,13(a0)
	.loc 2 210 5 is_stmt 1
	.loc 2 210 24 is_stmt 0
	sb	s1,14(a0)
	.loc 2 211 5 is_stmt 1
	.loc 2 211 27 is_stmt 0
	sw	s0,4(a0)
	.loc 2 212 5 is_stmt 1
	.loc 2 212 18 is_stmt 0
	sw	s4,8(a0)
	.loc 2 214 5 is_stmt 1
	.loc 2 214 8 is_stmt 0
	bne	a4,zero,.L81
	.loc 2 215 9 is_stmt 1
	.loc 2 215 22 is_stmt 0
	sw	a0,0(a5)
	.loc 2 216 9 is_stmt 1
	.loc 2 216 23 is_stmt 0
	sw	zero,0(a0)
.L82:
	.loc 2 223 5 is_stmt 1
	call	bl_gpio_register
.LVL130:
	.loc 2 225 5
	.loc 2 225 12 is_stmt 0
	li	a0,0
	j	.L70
.LVL131:
.L81:
	.loc 2 219 9 is_stmt 1
	.loc 2 219 23 is_stmt 0
	sw	a4,0(a0)
	.loc 2 220 9 is_stmt 1
	.loc 2 220 22 is_stmt 0
	sw	a0,0(a5)
	j	.L82
	.cfi_endproc
.LFE44:
	.size	hal_gpio_register_handler, .-hal_gpio_register_handler
	.section	.text.hal_gpio_led_on,"ax",@progbits
	.align	1
	.globl	hal_gpio_led_on
	.type	hal_gpio_led_on, @function
hal_gpio_led_on:
.LFB45:
	.loc 2 230 1 is_stmt 1
	.cfi_startproc
	.loc 2 231 5
	.loc 2 231 24 is_stmt 0
	lui	a5,%hi(led_onoff_config)
	addi	a5,a5,%lo(led_onoff_config)
	.loc 2 231 7
	lbu	a4,4(a5)
	beq	a4,zero,.L94
	.loc 2 232 9 is_stmt 1
	.loc 2 230 1 is_stmt 0
	addi	sp,sp,-16
	.cfi_def_cfa_offset 16
	sw	ra,12(sp)
	.cfi_offset 1, -4
	.loc 2 232 9
	lbu	a1,5(a5)
	lbu	a0,0(a5)
	call	bl_gpio_output_set
.LVL132:
	.loc 2 233 9 is_stmt 1
	.loc 2 237 1 is_stmt 0
	lw	ra,12(sp)
	.cfi_restore 1
	.loc 2 233 16
	li	a0,0
	.loc 2 237 1
	addi	sp,sp,16
	.cfi_def_cfa_offset 0
	jr	ra
.L94:
	li	a0,-1
	ret
	.cfi_endproc
.LFE45:
	.size	hal_gpio_led_on, .-hal_gpio_led_on
	.section	.text.hal_gpio_led_off,"ax",@progbits
	.align	1
	.globl	hal_gpio_led_off
	.type	hal_gpio_led_off, @function
hal_gpio_led_off:
.LFB46:
	.loc 2 240 1 is_stmt 1
	.cfi_startproc
	.loc 2 241 5
	.loc 2 241 24 is_stmt 0
	lui	a5,%hi(led_onoff_config)
	addi	a5,a5,%lo(led_onoff_config)
	.loc 2 241 7
	lbu	a4,4(a5)
	beq	a4,zero,.L102
	.loc 2 242 9 is_stmt 1
	.loc 2 240 1 is_stmt 0
	addi	sp,sp,-16
	.cfi_def_cfa_offset 16
	sw	ra,12(sp)
	.cfi_offset 1, -4
	.loc 2 242 9
	lbu	a1,5(a5)
	lbu	a0,0(a5)
	seqz	a1,a1
	call	bl_gpio_output_set
.LVL133:
	.loc 2 243 9 is_stmt 1
	.loc 2 247 1 is_stmt 0
	lw	ra,12(sp)
	.cfi_restore 1
	.loc 2 243 16
	li	a0,0
	.loc 2 247 1
	addi	sp,sp,16
	.cfi_def_cfa_offset 0
	jr	ra
.L102:
	li	a0,-1
	ret
	.cfi_endproc
.LFE46:
	.size	hal_gpio_led_off, .-hal_gpio_led_off
	.comm	led_onoff_config,8,4
	.globl	_fsymf_info_hosalhal_gpio
	.section	.rodata.str1.4,"aMS",@progbits,1
	.align	2
.LC27:
	.string	"hosal.hal_gpio"
	.comm	_fsymf_level_hosalhal_gpio,4,4
	.align	2
.LC28:
	.string	"hosal"
	.weak	_fsymc_level_hosal
	.section	.sbss._fsymc_level_hosal,"aw",@nobits
	.align	2
	.type	_fsymc_level_hosal, @object
	.size	_fsymc_level_hosal, 4
_fsymc_level_hosal:
	.zero	4
	.section	.sbss.pstgpio_head,"aw",@nobits
	.align	2
	.set	.LANCHOR0,. + 0
	.type	pstgpio_head, @object
	.size	pstgpio_head, 4
pstgpio_head:
	.zero	4
	.section	.srodata.BLOG_HARD_DECLARE_DISABLE,"a"
	.align	2
	.type	BLOG_HARD_DECLARE_DISABLE, @object
	.size	BLOG_HARD_DECLARE_DISABLE, 4
BLOG_HARD_DECLARE_DISABLE:
	.zero	4
	.section	.static_blogcomponent_code.hosal,"a"
	.align	2
	.type	_fsymc_info_hosal, @object
	.size	_fsymc_info_hosal, 8
_fsymc_info_hosal:
	.word	_fsymc_level_hosal
	.word	.LC28
	.section	.static_blogfile_code.hosalhal_gpio,"a"
	.align	2
	.type	_fsymf_info_hosalhal_gpio, @object
	.size	_fsymf_info_hosalhal_gpio, 8
_fsymf_info_hosalhal_gpio:
	.word	_fsymf_level_hosalhal_gpio
	.word	.LC27
	.text
.Letext0:
	.file 3 "/mnt/d/GitHub/bl_iot_sdk_for_aithinker/toolchain/riscv/Linux/riscv64-unknown-elf/include/machine/_default_types.h"
	.file 4 "/mnt/d/GitHub/bl_iot_sdk_for_aithinker/toolchain/riscv/Linux/riscv64-unknown-elf/include/sys/_stdint.h"
	.file 5 "/mnt/d/GitHub/bl_iot_sdk_for_aithinker/components/stage/blog/blog_type.h"
	.file 6 "/mnt/d/GitHub/bl_iot_sdk_for_aithinker/components/stage/blog/blog.h"
	.file 7 "/mnt/d/GitHub/bl_iot_sdk_for_aithinker/components/platform/hosal/bl602_hal/bl_gpio.h"
	.file 8 "/mnt/d/GitHub/bl_iot_sdk_for_aithinker/components/platform/soc/bl602/freertos_riscv_ram/portable/GCC/RISC-V/portmacro.h"
	.file 9 "/mnt/d/GitHub/bl_iot_sdk_for_aithinker/components/platform/soc/bl602/freertos_riscv_ram/config/task.h"
	.file 10 "/mnt/d/GitHub/bl_iot_sdk_for_aithinker/components/utils/include/utils_log.h"
	.file 11 "/mnt/d/GitHub/bl_iot_sdk_for_aithinker/components/platform/soc/bl602/freertos_riscv_ram/config/portable.h"
	.file 12 "/mnt/d/GitHub/bl_iot_sdk_for_aithinker/components/stage/blfdt/inc/libfdt.h"
	.file 13 "/mnt/d/GitHub/bl_iot_sdk_for_aithinker/components/sys/bloop/loopset/include/loopset.h"
	.file 14 "/mnt/d/GitHub/bl_iot_sdk_for_aithinker/toolchain/riscv/Linux/riscv64-unknown-elf/include/string.h"
	.file 15 "/mnt/d/GitHub/bl_iot_sdk_for_aithinker/toolchain/riscv/Linux/riscv64-unknown-elf/include/stdio.h"