	.file	"hal_hbnram.c"
	.option nopic
	.attribute arch, "rv32i2p0_m2p0_f2p0_c2p0"
	.attribute unaligned_access, 0
	.attribute stack_align, 16
	.text
.Ltext0:
	.cfi_sections	.debug_frame
	.section	.text.find_addr_by_key,"ax",@progbits
	.align	1
	.type	find_addr_by_key, @function
find_addr_by_key:
.LFB8:
	.file 1 "/mnt/d/GitHub/bl_iot_sdk_for_aithinker/components/platform/hosal/bl602_hal/hal_hbnram.c"
	.loc 1 131 1
	.cfi_startproc
.LVL0:
	.loc 1 132 5
	.loc 1 133 5
	.loc 1 134 5
	.loc 1 136 5
	.loc 1 137 5
	.loc 1 137 11
	.loc 1 139 20 is_stmt 0
	lw	a3,0(a0)
	.loc 1 136 11
	li	a0,1073807360
.LVL1:
	addi	a0,a0,64
	.loc 1 137 11
	li	a4,1073811456
.LVL2:
.L3:
	.loc 1 138 9 is_stmt 1
	.loc 1 139 9
	.loc 1 139 12 is_stmt 0
	lw	a5,0(a0)
	beq	a3,a5,.L1
	.loc 1 143 9 is_stmt 1
.LVL3:
	.loc 1 144 9
	.loc 1 144 37 is_stmt 0
	lw	a5,8(a0)
	addi	a5,a5,12
	.loc 1 144 15
	add	a0,a0,a5
.LVL4:
	.loc 1 137 11 is_stmt 1
	bltu	a0,a4,.L3
	.loc 1 147 11 is_stmt 0
	li	a0,0
.LVL5:
.L1:
	.loc 1 148 1
	ret
	.cfi_endproc
.LFE8:
	.size	find_addr_by_key, .-find_addr_by_key
	.section	.text.mem_fourbytes_copy.isra.0,"ax",@progbits
	.align	1
	.type	mem_fourbytes_copy.isra.0, @function
mem_fourbytes_copy.isra.0:
.LFB18:
	.loc 1 38 17 is_stmt 1
	.cfi_startproc
.LVL6:
	.loc 1 40 5
	.loc 1 42 5
	.loc 1 43 5
	.loc 1 44 5
	.loc 1 44 16 is_stmt 0
	li	a5,4
	div	a2,a2,a5
.LVL7:
	.loc 1 46 5 is_stmt 1
.L6:
	.loc 1 46 11
	bne	a2,zero,.L7
	.loc 1 54 1 is_stmt 0
	ret
.L7:
	.loc 1 47 9 is_stmt 1
	.loc 1 47 18 is_stmt 0
	lw	a5,0(a1)
	.loc 1 50 13
	addi	a2,a2,-1
.LVL8:
	.loc 1 49 14
	addi	a1,a1,4
.LVL9:
	.loc 1 47 16
	sw	a5,0(a0)
	.loc 1 48 9 is_stmt 1
	.loc 1 48 14 is_stmt 0
	addi	a0,a0,4
.LVL10:
	.loc 1 49 9 is_stmt 1
	.loc 1 50 9
	j	.L6
	.cfi_endproc
.LFE18:
	.size	mem_fourbytes_copy.isra.0, .-mem_fourbytes_copy.isra.0
	.section	.rodata.sha_check_withctx.constprop.0.isra.0.str1.4,"aMS",@progbits,1
	.align	2
.LC0:
	.string	"hal_hbnram.c"
	.align	2
.LC1:
	.string	"\033[31mERROR\033[0m"
	.align	2
.LC2:
	.string	"%s (%d)[%s:%4d] Sec_Eng_SHA256_Finish error \r\n\r\n"
	.section	.text.sha_check_withctx.constprop.0.isra.0,"ax",@progbits
	.align	1
	.type	sha_check_withctx.constprop.0.isra.0, @function
sha_check_withctx.constprop.0.isra.0:
.LFB21:
	.loc 1 76 12
	.cfi_startproc
.LVL11:
	.loc 1 78 5
	.loc 1 79 5
	.loc 1 80 5
	.loc 1 81 5
	.loc 1 83 5
	.loc 1 84 5
	.loc 1 85 5
	.loc 1 86 5
	.loc 1 76 12 is_stmt 0
	addi	sp,sp,-192
	.cfi_def_cfa_offset 192
	sw	ra,188(sp)
	sw	s0,184(sp)
	sw	s1,180(sp)
	sw	s2,176(sp)
	sw	s3,172(sp)
	.cfi_offset 1, -4
	.cfi_offset 8, -8
	.cfi_offset 9, -12
	.cfi_offset 18, -16
	.cfi_offset 19, -20
	.loc 1 76 12
	mv	s2,a0
	.loc 1 86 5
	call	bl_sha_mutex_take
.LVL12:
	.loc 1 87 5 is_stmt 1
	li	a1,0
	addi	a0,sp,12
	call	bl_sha_init
.LVL13:
	.loc 1 89 5
	.loc 1 89 13 is_stmt 0
	li	a0,32
	call	pvPortMalloc
.LVL14:
	li	s1,1073807360
	.loc 1 90 5
	li	s3,1073811456
	.loc 1 89 13
	mv	s0,a0
.LVL15:
	.loc 1 90 5 is_stmt 1
	.loc 1 90 17
	.loc 1 89 13 is_stmt 0
	addi	s1,s1,20
	.loc 1 90 5
	addi	s3,s3,-12
.LVL16:
.L9:
	.loc 1 91 9 is_stmt 1
	mv	a1,s1
	li	a2,32
	mv	a0,s0
	call	mem_fourbytes_copy.isra.0
.LVL17:
	.loc 1 92 9
	li	a2,32
	mv	a1,s0
	addi	a0,sp,12
	.loc 1 90 5 is_stmt 0
	addi	s1,s1,32
	.loc 1 92 9
	call	bl_sha_update
.LVL18:
	.loc 1 90 28 is_stmt 1
	.loc 1 90 17
	.loc 1 90 5 is_stmt 0
	bne	s1,s3,.L9
	.loc 1 95 5 is_stmt 1
	.loc 1 96 9
	li	a2,32
	li	a1,0
	mv	a0,s0
	call	memset
.LVL19:
	.loc 1 97 9
	li	a2,32
	mv	a1,s1
	mv	a0,s0
	call	mem_fourbytes_copy.isra.0
.LVL20:
	.loc 1 98 9
	mv	a1,s0
	li	a2,12
	addi	a0,sp,12
	call	bl_sha_update
.LVL21:
	.loc 1 101 5
	.loc 1 101 9 is_stmt 0
	mv	a1,s2
	addi	a0,sp,12
	call	bl_sha_finish
.LVL22:
	.loc 1 101 8
	beq	a0,zero,.L10
	.loc 1 102 6 is_stmt 1
	.loc 1 102 44
	.loc 1 102 49
	.loc 1 102 71 is_stmt 0
	lui	a5,%hi(_fsymc_level_hosal)
	.loc 1 102 52
	lw	a4,%lo(_fsymc_level_hosal)(a5)
	li	a5,4
	bgtu	a4,a5,.L10
	.loc 1 102 115
	lui	a4,%hi(_fsymf_level_hosalhal_hbnram)
	.loc 1 102 94
	lw	a4,%lo(_fsymf_level_hosalhal_hbnram)(a4)
	bgtu	a4,a5,.L10
	.loc 1 102 151 is_stmt 1
	.loc 1 102 248 is_stmt 0
	call	xPortIsInsideInterrupt
.LVL23:
	.loc 1 102 151
	beq	a0,zero,.L11
	.loc 1 102 277
	call	xTaskGetTickCountFromISR
.LVL24:
.L18:
	.loc 1 102 308
	mv	a2,a0
	.loc 1 102 151
	lui	a3,%hi(.LC0)
	lui	a1,%hi(.LC1)
	lui	a0,%hi(.LC2)
	li	a4,102
	addi	a3,a3,%lo(.LC0)
	addi	a1,a1,%lo(.LC1)
	addi	a0,a0,%lo(.LC2)
	call	bl_printk
.LVL25:
.L10:
	.loc 1 102 362 is_stmt 1
	.loc 1 102 373
	.loc 1 104 5
	call	bl_sha_mutex_give
.LVL26:
	.loc 1 106 5
	mv	a0,s0
	call	vPortFree
.LVL27:
	.loc 1 108 5
	.loc 1 109 1 is_stmt 0
	lw	ra,188(sp)
	.cfi_remember_state
	.cfi_restore 1
	lw	s0,184(sp)
	.cfi_restore 8
.LVL28:
	lw	s1,180(sp)
	.cfi_restore 9
	lw	s2,176(sp)
	.cfi_restore 18
.LVL29:
	lw	s3,172(sp)
	.cfi_restore 19
	addi	sp,sp,192
	.cfi_def_cfa_offset 0
	jr	ra
.LVL30:
.L11:
	.cfi_restore_state
	.loc 1 102 308
	call	xTaskGetTickCount
.LVL31:
	j	.L18
	.cfi_endproc
.LFE21:
	.size	sha_check_withctx.constprop.0.isra.0, .-sha_check_withctx.constprop.0.isra.0
	.section	.rodata.print_mem_map.str1.4,"aMS",@progbits,1
	.align	2
.LC3:
	.string	"\033[32mINFO\033[0m"
	.align	2
.LC4:
	.string	"%s (%d)[%s:%4d] |head-64bytes|\r\n\r\n"
	.align	2
.LC5:
	.string	"%s (%d)[%s:%4d] |%s:head-12bytes data-%ldbytes|\r\n\r\n"
	.align	2
.LC6:
	.string	"%s (%d)[%s:%4d] |unused-%ldbytes|\r\n\r\n"
	.section	.text.print_mem_map,"ax",@progbits
	.align	1
	.globl	print_mem_map
	.type	print_mem_map, @function
print_mem_map:
.LFB9:
	.loc 1 151 1 is_stmt 1
	.cfi_startproc
	.loc 1 152 5
	.loc 1 153 5
	.loc 1 154 5
	.loc 1 155 5
	.loc 1 157 5
	.loc 1 157 43
	.loc 1 157 48
	.loc 1 151 1 is_stmt 0
	addi	sp,sp,-64
	.cfi_def_cfa_offset 64
	sw	s1,52(sp)
	.cfi_offset 9, -12
	.loc 1 157 69
	lui	s1,%hi(_fsymc_level_hosal)
	.loc 1 157 51
	lw	a4,%lo(_fsymc_level_hosal)(s1)
	.loc 1 151 1
	sw	ra,60(sp)
	sw	s0,56(sp)
	sw	s2,48(sp)
	sw	s3,44(sp)
	sw	s4,40(sp)
	sw	s5,36(sp)
	sw	s6,32(sp)
	sw	s7,28(sp)
	sw	s8,24(sp)
	.cfi_offset 1, -4
	.cfi_offset 8, -8
	.cfi_offset 18, -16
	.cfi_offset 19, -20
	.cfi_offset 20, -24
	.cfi_offset 21, -28
	.cfi_offset 22, -32
	.cfi_offset 23, -36
	.cfi_offset 24, -40
	.loc 1 157 51
	li	a5,2
	bgtu	a4,a5,.L20
	.loc 1 157 112 discriminator 3
	lui	a4,%hi(_fsymf_level_hosalhal_hbnram)
	.loc 1 157 92 discriminator 3
	lw	a4,%lo(_fsymf_level_hosalhal_hbnram)(a4)
	bgtu	a4,a5,.L20
	.loc 1 157 148 is_stmt 1 discriminator 5
	.loc 1 157 230 is_stmt 0 discriminator 5
	call	xPortIsInsideInterrupt
.LVL32:
	.loc 1 157 148 discriminator 5
	beq	a0,zero,.L21
	.loc 1 157 259 discriminator 7
	call	xTaskGetTickCountFromISR
.LVL33:
.L34:
	.loc 1 157 290 discriminator 8
	mv	a2,a0
	.loc 1 157 148 discriminator 8
	lui	a3,%hi(.LC0)
	lui	a1,%hi(.LC3)
	lui	a0,%hi(.LC4)
	li	a4,157
	addi	a3,a3,%lo(.LC0)
	addi	a1,a1,%lo(.LC3)
	addi	a0,a0,%lo(.LC4)
	call	bl_printk
.LVL34:
.L20:
	.loc 1 157 344 is_stmt 1 discriminator 11
	.loc 1 157 355 discriminator 11
	.loc 1 158 5 discriminator 11
	li	a2,5
	li	a1,0
	addi	a0,sp,8
	.loc 1 159 11 is_stmt 0 discriminator 11
	li	s0,1073807360
	.loc 1 158 5 discriminator 11
	call	memset
.LVL35:
	.loc 1 159 5 is_stmt 1 discriminator 11
	.loc 1 160 5 discriminator 11
	.loc 1 160 11 discriminator 11
	.loc 1 159 11 is_stmt 0 discriminator 11
	addi	s0,s0,64
	.loc 1 165 59 discriminator 11
	li	s3,2
	.loc 1 165 120 discriminator 11
	lui	s5,%hi(_fsymf_level_hosalhal_hbnram)
	.loc 1 165 156 discriminator 11
	lui	s6,%hi(.LC0)
	lui	s7,%hi(.LC3)
	lui	s8,%hi(.LC5)
	.loc 1 160 11 discriminator 11
	li	s4,1073811456
.LVL36:
.L31:
	.loc 1 161 9 is_stmt 1
	.loc 1 162 9
	.loc 1 162 12 is_stmt 0
	lw	a5,0(s0)
	beq	a5,zero,.L23
	.loc 1 163 13 is_stmt 1
	li	a2,4
	mv	a1,s0
	addi	a0,sp,8
	call	mem_fourbytes_copy.isra.0
.LVL37:
	.loc 1 164 13
	.loc 1 165 59 is_stmt 0
	lw	a5,%lo(_fsymc_level_hosal)(s1)
	.loc 1 164 17
	lw	s2,8(s0)
.LVL38:
	.loc 1 165 13 is_stmt 1
	.loc 1 165 51
	.loc 1 165 56
	.loc 1 165 59 is_stmt 0
	bgtu	a5,s3,.L24
	.loc 1 165 100 discriminator 3
	lw	a5,%lo(_fsymf_level_hosalhal_hbnram)(s5)
	bgtu	a5,s3,.L24
	.loc 1 165 156 is_stmt 1 discriminator 5
	.loc 1 165 255 is_stmt 0 discriminator 5
	call	xPortIsInsideInterrupt
.LVL39:
	.loc 1 165 156 discriminator 5
	beq	a0,zero,.L25
	.loc 1 165 284 discriminator 7
	call	xTaskGetTickCountFromISR
.LVL40:
.L35:
	.loc 1 165 315 discriminator 8
	mv	a2,a0
	.loc 1 165 156 discriminator 8
	mv	a6,s2
	addi	a5,sp,8
	li	a4,165
	addi	a3,s6,%lo(.LC0)
	addi	a1,s7,%lo(.LC3)
	addi	a0,s8,%lo(.LC5)
	call	bl_printk
.LVL41:
.L24:
	.loc 1 165 382 is_stmt 1
	.loc 1 165 393
	.loc 1 171 9
	.loc 1 171 37 is_stmt 0
	addi	s2,s2,12
.LVL42:
	.loc 1 171 15
	add	s0,s0,s2
.LVL43:
	.loc 1 160 11 is_stmt 1
	bltu	s0,s4,.L31
	j	.L19
.LVL44:
.L21:
	.loc 1 157 290 is_stmt 0 discriminator 8
	call	xTaskGetTickCount
.LVL45:
	j	.L34
.LVL46:
.L25:
	.loc 1 165 315 discriminator 8
	call	xTaskGetTickCount
.LVL47:
	j	.L35
.LVL48:
.L23:
	.loc 1 167 13 is_stmt 1 discriminator 1
	.loc 1 167 51 discriminator 1
	.loc 1 167 56 discriminator 1
	.loc 1 167 59 is_stmt 0 discriminator 1
	lw	a4,%lo(_fsymc_level_hosal)(s1)
	li	a5,2
.LVL49:
	bgtu	a4,a5,.L19
	.loc 1 167 120 discriminator 3
	lui	a4,%hi(_fsymf_level_hosalhal_hbnram)
	.loc 1 167 100 discriminator 3
	lw	a4,%lo(_fsymf_level_hosalhal_hbnram)(a4)
	bgtu	a4,a5,.L19
	.loc 1 167 156 is_stmt 1 discriminator 5
	.loc 1 167 241 is_stmt 0 discriminator 5
	call	xPortIsInsideInterrupt
.LVL50:
	.loc 1 167 156 discriminator 5
	beq	a0,zero,.L28
	.loc 1 167 270 discriminator 7
	call	xTaskGetTickCountFromISR
.LVL51:
.L36:
	.loc 1 167 301 discriminator 8
	mv	a2,a0
	.loc 1 167 156 discriminator 8
	li	a5,1073811456
	lui	a3,%hi(.LC0)
	lui	a1,%hi(.LC3)
	lui	a0,%hi(.LC6)
	sub	a5,a5,s0
	li	a4,167
	addi	a3,a3,%lo(.LC0)
	addi	a1,a1,%lo(.LC3)
	addi	a0,a0,%lo(.LC6)
	call	bl_printk
.LVL52:
.L19:
	.loc 1 175 1
	lw	ra,60(sp)
	.cfi_remember_state
	.cfi_restore 1
	lw	s0,56(sp)
	.cfi_restore 8
.LVL53:
	lw	s1,52(sp)
	.cfi_restore 9
	lw	s2,48(sp)
	.cfi_restore 18
	lw	s3,44(sp)
	.cfi_restore 19
	lw	s4,40(sp)
	.cfi_restore 20
	lw	s5,36(sp)
	.cfi_restore 21
	lw	s6,32(sp)
	.cfi_restore 22
	lw	s7,28(sp)
	.cfi_restore 23
	lw	s8,24(sp)
	.cfi_restore 24
	addi	sp,sp,64
	.cfi_def_cfa_offset 0
	jr	ra
.LVL54:
.L28:
	.cfi_restore_state
	.loc 1 167 301 discriminator 8
	call	xTaskGetTickCount
.LVL55:
	j	.L36
	.cfi_endproc
.LFE9:
	.size	print_mem_map, .-print_mem_map
	.section	.rodata.hal_hbnram_init.str1.4,"aMS",@progbits,1
	.align	2
.LC7:
	.string	"%s (%d)[%s:%4d] magic is not right ,recalculate.\r\n\r\n"
	.align	2
.LC8:
	.string	"%s (%d)[%s:%4d] hash check success \r\n\r\n"
	.align	2
.LC9:
	.string	"%s (%d)[%s:%4d] hash check failed, memset mem \r\n\r\n"
	.section	.text.hal_hbnram_init,"ax",@progbits
	.align	1
	.globl	hal_hbnram_init
	.type	hal_hbnram_init, @function
hal_hbnram_init:
.LFB10:
	.loc 1 178 1 is_stmt 1
	.cfi_startproc
	.loc 1 179 5
	.loc 1 180 5
	.loc 1 181 5
	.loc 1 182 5
	.loc 1 183 5
	.loc 1 185 5
.LVL56:
	.loc 1 186 5
	.loc 1 178 1 is_stmt 0
	addi	sp,sp,-80
	.cfi_def_cfa_offset 80
	sw	s1,68(sp)
.LVL57:
	sw	ra,76(sp)
	sw	s0,72(sp)
	.cfi_offset 9, -12
	.cfi_offset 1, -4
	.cfi_offset 8, -8
	.loc 1 185 15
	li	a1,1073807360
	.loc 1 186 8
	lw	a4,0(a1)
	li	a5,305418240
	addi	a5,a5,1656
	lui	s1,%hi(_fsymc_level_hosal)
	beq	a4,a5,.L38
	.loc 1 187 9 is_stmt 1 discriminator 1
	.loc 1 187 47 discriminator 1
	.loc 1 187 52 discriminator 1
	.loc 1 187 55 is_stmt 0 discriminator 1
	lw	a4,%lo(_fsymc_level_hosal)(s1)
	li	a5,4
	bgtu	a4,a5,.L39
	.loc 1 187 118 discriminator 3
	lui	a4,%hi(_fsymf_level_hosalhal_hbnram)
	.loc 1 187 97 discriminator 3
	lw	a4,%lo(_fsymf_level_hosalhal_hbnram)(a4)
	bgtu	a4,a5,.L39
	.loc 1 187 154 is_stmt 1 discriminator 5
	.loc 1 187 255 is_stmt 0 discriminator 5
	call	xPortIsInsideInterrupt
.LVL58:
	.loc 1 187 154 discriminator 5
	beq	a0,zero,.L40
	.loc 1 187 284 discriminator 7
	call	xTaskGetTickCountFromISR
.LVL59:
.L54:
	.loc 1 187 315 discriminator 8
	mv	a2,a0
	.loc 1 187 154 discriminator 8
	lui	a3,%hi(.LC0)
	lui	a1,%hi(.LC1)
	lui	a0,%hi(.LC7)
	li	a4,187
	addi	a3,a3,%lo(.LC0)
	addi	a1,a1,%lo(.LC1)
	addi	a0,a0,%lo(.LC7)
	call	bl_printk
.LVL60:
.L39:
	.loc 1 178 1
	li	a5,1073807360
.LBB6:
.LBB7:
	.loc 1 67 11
	li	a4,1073811456
.L42:
.LVL61:
	.loc 1 68 9 is_stmt 1
	.loc 1 68 16 is_stmt 0
	sw	zero,0(a5)
	.loc 1 69 9 is_stmt 1
	.loc 1 69 14 is_stmt 0
	addi	a5,a5,4
.LVL62:
	.loc 1 70 9 is_stmt 1
	.loc 1 67 11
	bne	a5,a4,.L42
	.loc 1 73 5 discriminator 11
.LVL63:
.LBE7:
.LBE6:
	.loc 1 189 9 discriminator 11
	.loc 1 189 33 is_stmt 0 discriminator 11
	li	a5,305418240
	li	s0,1073807360
	addi	a5,a5,1656
	.loc 1 190 9 discriminator 11
	addi	a0,sp,32
	.loc 1 189 33 discriminator 11
	sw	a5,0(s0)
	.loc 1 190 9 is_stmt 1 discriminator 11
	call	sha_check_withctx.constprop.0.isra.0
.LVL64:
	.loc 1 191 9 discriminator 11
	li	a2,16
	addi	a1,sp,32
	addi	a0,s0,4
.L57:
	.loc 1 204 13 is_stmt 0 discriminator 11
	call	mem_fourbytes_copy.isra.0
.LVL65:
	.loc 1 205 13 is_stmt 1 discriminator 11
	.loc 1 205 20 is_stmt 0 discriminator 11
	li	s0,-1
	j	.L37
.L40:
	.loc 1 187 315 discriminator 8
	call	xTaskGetTickCount
.LVL66:
	j	.L54
.L38:
	.loc 1 194 9 is_stmt 1
	li	a2,16
	addi	a1,a1,4
	mv	a0,sp
	call	mem_fourbytes_copy.isra.0
.LVL67:
	.loc 1 195 9
	addi	a0,sp,32
	call	sha_check_withctx.constprop.0.isra.0
.LVL68:
	.loc 1 196 9
	li	a2,16
	addi	a1,sp,32
	addi	a0,sp,16
	call	mem_fourbytes_copy.isra.0
.LVL69:
	.loc 1 197 9
	.loc 1 197 16 is_stmt 0
	li	a2,16
	mv	a1,sp
	addi	a0,sp,16
	call	memcmp
.LVL70:
	.loc 1 199 59
	lw	a4,%lo(_fsymc_level_hosal)(s1)
	.loc 1 197 16
	mv	s0,a0
.LVL71:
	.loc 1 198 9 is_stmt 1
	.loc 1 198 12 is_stmt 0
	bne	a0,zero,.L44
	.loc 1 199 13 is_stmt 1 discriminator 1
	.loc 1 199 51 discriminator 1
	.loc 1 199 56 discriminator 1
	.loc 1 199 59 is_stmt 0 discriminator 1
	li	a5,2
	bgtu	a4,a5,.L37
	.loc 1 199 120 discriminator 3
	lui	a4,%hi(_fsymf_level_hosalhal_hbnram)
	.loc 1 199 100 discriminator 3
	lw	a4,%lo(_fsymf_level_hosalhal_hbnram)(a4)
	bgtu	a4,a5,.L37
	.loc 1 199 156 is_stmt 1 discriminator 5
	.loc 1 199 243 is_stmt 0 discriminator 5
	call	xPortIsInsideInterrupt
.LVL72:
	.loc 1 199 156 discriminator 5
	beq	a0,zero,.L45
	.loc 1 199 272 discriminator 7
	call	xTaskGetTickCountFromISR
.LVL73:
.L55:
	.loc 1 199 303 discriminator 8
	mv	a2,a0
	.loc 1 199 156 discriminator 8
	lui	a3,%hi(.LC0)
	lui	a1,%hi(.LC3)
	lui	a0,%hi(.LC8)
	li	a4,199
	addi	a3,a3,%lo(.LC0)
	addi	a1,a1,%lo(.LC3)
	addi	a0,a0,%lo(.LC8)
	call	bl_printk
.LVL74:
.L37:
	.loc 1 210 1
	lw	ra,76(sp)
	.cfi_remember_state
	.cfi_restore 1
	mv	a0,s0
	lw	s0,72(sp)
	.cfi_restore 8
	lw	s1,68(sp)
	.cfi_restore 9
	addi	sp,sp,80
	.cfi_def_cfa_offset 0
	jr	ra
.LVL75:
.L45:
	.cfi_restore_state
	.loc 1 199 303 discriminator 8
	call	xTaskGetTickCount
.LVL76:
	j	.L55
.L44:
	.loc 1 201 13 is_stmt 1 discriminator 1
	.loc 1 201 51 discriminator 1
	.loc 1 201 56 discriminator 1
	.loc 1 201 59 is_stmt 0 discriminator 1
	li	a5,4
	bgtu	a4,a5,.L47
	.loc 1 201 122 discriminator 3
	lui	a4,%hi(_fsymf_level_hosalhal_hbnram)
	.loc 1 201 101 discriminator 3
	lw	a4,%lo(_fsymf_level_hosalhal_hbnram)(a4)
	bgtu	a4,a5,.L47
	.loc 1 201 158 is_stmt 1 discriminator 5
	.loc 1 201 257 is_stmt 0 discriminator 5
	call	xPortIsInsideInterrupt
.LVL77:
	.loc 1 201 158 discriminator 5
	beq	a0,zero,.L48
	.loc 1 201 286 discriminator 7
	call	xTaskGetTickCountFromISR
.LVL78:
.L56:
	.loc 1 201 317 discriminator 8
	mv	a2,a0
	.loc 1 201 158 discriminator 8
	lui	a3,%hi(.LC0)
	lui	a1,%hi(.LC1)
	lui	a0,%hi(.LC9)
	li	a4,201
	addi	a3,a3,%lo(.LC0)
	addi	a1,a1,%lo(.LC1)
	addi	a0,a0,%lo(.LC9)
	call	bl_printk
.LVL79:
.L47:
	.loc 1 178 1
	li	a5,1073807360
.LBB8:
.LBB9:
	.loc 1 67 11
	li	a4,1073811456
.L50:
.LVL80:
	.loc 1 68 9 is_stmt 1
	.loc 1 68 16 is_stmt 0
	sw	zero,0(a5)
	.loc 1 69 9 is_stmt 1
	.loc 1 69 14 is_stmt 0
	addi	a5,a5,4
.LVL81:
	.loc 1 70 9 is_stmt 1
	.loc 1 67 11
	bne	a5,a4,.L50
	.loc 1 73 5 discriminator 11
.LVL82:
.LBE9:
.LBE8:
	.loc 1 203 13 discriminator 11
	addi	a0,sp,32
	call	sha_check_withctx.constprop.0.isra.0
.LVL83:
	.loc 1 204 13 discriminator 11
	li	a0,1073807360
	li	a2,16
	addi	a1,sp,32
	addi	a0,a0,4
	j	.L57
.L48:
	.loc 1 201 317 is_stmt 0 discriminator 8
	call	xTaskGetTickCount
.LVL84:
	j	.L56
	.cfi_endproc
.LFE10:
	.size	hal_hbnram_init, .-hal_hbnram_init
	.section	.text.hal_hbnram_deinit,"ax",@progbits
	.align	1
	.globl	hal_hbnram_deinit
	.type	hal_hbnram_deinit, @function
hal_hbnram_deinit:
.LFB11:
	.loc 1 213 1 is_stmt 1
	.cfi_startproc
	.loc 1 214 5
.LVL85:
.LBB12:
.LBB13:
	.loc 1 58 5
	.loc 1 59 5
	.loc 1 60 5
	.loc 1 61 5
	.loc 1 63 5
	.loc 1 64 5
	.loc 1 65 5
	.loc 1 66 5
	.loc 1 67 5
	.loc 1 67 11
	.loc 1 66 11 is_stmt 0
	li	a5,1073807360
	.loc 1 67 11
	li	a4,1073811456
.LVL86:
.L59:
	.loc 1 68 9 is_stmt 1
	.loc 1 68 16 is_stmt 0
	sw	zero,0(a5)
	.loc 1 69 9 is_stmt 1
	.loc 1 69 14 is_stmt 0
	addi	a5,a5,4
.LVL87:
	.loc 1 70 9 is_stmt 1
	.loc 1 67 11
	bne	a5,a4,.L59
	.loc 1 73 5
.LVL88:
.LBE13:
.LBE12:
	.loc 1 216 5
	.loc 1 217 1 is_stmt 0
	li	a0,0
	ret
	.cfi_endproc
.LFE11:
	.size	hal_hbnram_deinit, .-hal_hbnram_deinit
	.section	.rodata.hal_hbnram_alloc.str1.4,"aMS",@progbits,1
	.align	2
.LC10:
	.string	"%s (%d)[%s:%4d] illegal para. \r\n\r\n"
	.align	2
.LC11:
	.string	"%s (%d)[%s:%4d] do not have area for alloc. \r\n\r\n"
	.align	2
.LC12:
	.string	"%s (%d)[%s:%4d] not have enough area for alloc \r\n\r\n"
	.align	2
.LC13:
	.string	"%s (%d)[%s:%4d] only left %d bytes, not enough for alloc \r\n\r\n"
	.section	.text.hal_hbnram_alloc,"ax",@progbits
	.align	1
	.globl	hal_hbnram_alloc
	.type	hal_hbnram_alloc, @function
hal_hbnram_alloc:
.LFB12:
	.loc 1 220 1 is_stmt 1
	.cfi_startproc
.LVL89:
	.loc 1 221 5
	.loc 1 222 5
	.loc 1 223 5
	.loc 1 224 5
	.loc 1 225 5
	.loc 1 227 5
	.loc 1 220 1 is_stmt 0
	addi	sp,sp,-64
	.cfi_def_cfa_offset 64
	sw	s0,56(sp)
	sw	s2,48(sp)
	sw	ra,60(sp)
	sw	s1,52(sp)
	.cfi_offset 8, -8
	.cfi_offset 18, -16
	.cfi_offset 1, -4
	.cfi_offset 9, -12
	.loc 1 220 1
	mv	s2,a0
	mv	s0,a1
	.loc 1 227 10
	call	strlen
.LVL90:
	.loc 1 227 8
	li	a5,4
	bgtu	a0,a5,.L62
.LBB16:
.LBB17:
	.loc 1 116 15 discriminator 1
	li	s1,1073807360
	addi	s1,s1,64
	.loc 1 118 11 discriminator 1
	li	a4,1073811456
.LBE17:
.LBE16:
	.loc 1 227 27 discriminator 1
	bgt	s0,zero,.L63
.L62:
	.loc 1 228 9 is_stmt 1 discriminator 1
	.loc 1 228 47 discriminator 1
	.loc 1 228 52 discriminator 1
	.loc 1 228 74 is_stmt 0 discriminator 1
	lui	a5,%hi(_fsymc_level_hosal)
	.loc 1 228 55 discriminator 1
	lw	a4,%lo(_fsymc_level_hosal)(a5)
	li	a5,4
	bleu	a4,a5,.L64
.L91:
	.loc 1 252 16 discriminator 10
	li	a0,-1
.L61:
	.loc 1 263 1
	lw	ra,60(sp)
	.cfi_remember_state
	.cfi_restore 1
	lw	s0,56(sp)
	.cfi_restore 8
.LVL91:
	lw	s1,52(sp)
	.cfi_restore 9
	lw	s2,48(sp)
	.cfi_restore 18
.LVL92:
	addi	sp,sp,64
	.cfi_def_cfa_offset 0
	jr	ra
.LVL93:
.L64:
	.cfi_restore_state
	.loc 1 228 118 discriminator 3
	lui	a4,%hi(_fsymf_level_hosalhal_hbnram)
	.loc 1 228 97 discriminator 3
	lw	a4,%lo(_fsymf_level_hosalhal_hbnram)(a4)
	bgtu	a4,a5,.L91
	.loc 1 228 154 is_stmt 1 discriminator 5
	.loc 1 228 237 is_stmt 0 discriminator 5
	call	xPortIsInsideInterrupt
.LVL94:
	.loc 1 228 154 discriminator 5
	beq	a0,zero,.L67
	.loc 1 228 266 discriminator 7
	call	xTaskGetTickCountFromISR
.LVL95:
.L87:
	.loc 1 228 297 discriminator 8
	mv	a2,a0
	.loc 1 228 154 discriminator 8
	lui	a3,%hi(.LC0)
	lui	a1,%hi(.LC1)
	lui	a0,%hi(.LC10)
	li	a4,228
	addi	a3,a3,%lo(.LC0)
	addi	a1,a1,%lo(.LC1)
	addi	a0,a0,%lo(.LC10)
.L92:
	.loc 1 247 158 discriminator 8
	call	bl_printk
.LVL96:
	j	.L91
.L67:
	.loc 1 228 297 discriminator 8
	call	xTaskGetTickCount
.LVL97:
	j	.L87
.L63:
.LVL98:
.LBB19:
.LBB18:
	.loc 1 119 9 is_stmt 1
	.loc 1 120 9
	.loc 1 120 12 is_stmt 0
	lw	a5,0(s1)
	beq	a5,zero,.L69
	.loc 1 124 9 is_stmt 1
	.loc 1 124 45 is_stmt 0
	lw	a5,8(s1)
	addi	a5,a5,12
	.loc 1 124 19
	add	s1,s1,a5
.LVL99:
	.loc 1 118 11 is_stmt 1
	bltu	s1,a4,.L63
.LVL100:
.LBE18:
.LBE19:
	.loc 1 233 5
	.loc 1 234 9
	.loc 1 234 47
	.loc 1 234 52
	.loc 1 234 74 is_stmt 0
	lui	a5,%hi(_fsymc_level_hosal)
	.loc 1 234 55
	lw	a4,%lo(_fsymc_level_hosal)(a5)
	li	a5,4
	bgtu	a4,a5,.L91
	.loc 1 234 118 discriminator 3
	lui	a4,%hi(_fsymf_level_hosalhal_hbnram)
	.loc 1 234 97 discriminator 3
	lw	a4,%lo(_fsymf_level_hosalhal_hbnram)(a4)
	bgtu	a4,a5,.L91
	.loc 1 234 154 is_stmt 1 discriminator 5
	.loc 1 234 251 is_stmt 0 discriminator 5
	call	xPortIsInsideInterrupt
.LVL101:
	.loc 1 234 154 discriminator 5
	beq	a0,zero,.L71
	.loc 1 234 280 discriminator 7
	call	xTaskGetTickCountFromISR
.LVL102:
.L88:
	.loc 1 234 311 discriminator 8
	mv	a2,a0
	.loc 1 234 154 discriminator 8
	lui	a3,%hi(.LC0)
	lui	a1,%hi(.LC1)
	lui	a0,%hi(.LC11)
	li	a4,234
	addi	a3,a3,%lo(.LC0)
	addi	a1,a1,%lo(.LC1)
	addi	a0,a0,%lo(.LC11)
	j	.L92
.L71:
	.loc 1 234 311 discriminator 8
	call	xTaskGetTickCount
.LVL103:
	j	.L88
.LVL104:
.L75:
	.loc 1 247 318 discriminator 8
	call	xTaskGetTickCount
.LVL105:
	j	.L89
.L74:
	.loc 1 249 13 is_stmt 1 discriminator 1
	.loc 1 249 51 discriminator 1
	.loc 1 249 56 discriminator 1
	.loc 1 249 59 is_stmt 0 discriminator 1
	bgtu	a4,a5,.L91
	.loc 1 249 122 discriminator 3
	lui	a4,%hi(_fsymf_level_hosalhal_hbnram)
	.loc 1 249 101 discriminator 3
	lw	a4,%lo(_fsymf_level_hosalhal_hbnram)(a4)
	bgtu	a4,a5,.L91
	.loc 1 249 158 is_stmt 1 discriminator 5
	.loc 1 249 268 is_stmt 0 discriminator 5
	call	xPortIsInsideInterrupt
.LVL106:
	.loc 1 249 158 discriminator 5
	beq	a0,zero,.L77
	.loc 1 249 297 discriminator 7
	call	xTaskGetTickCountFromISR
.LVL107:
.L90:
	.loc 1 249 328 discriminator 8
	mv	a2,a0
	.loc 1 249 158 discriminator 8
	lui	a3,%hi(.LC0)
	lui	a1,%hi(.LC1)
	lui	a0,%hi(.LC13)
	mv	a5,s1
	li	a4,249
	addi	a3,a3,%lo(.LC0)
	addi	a1,a1,%lo(.LC1)
	addi	a0,a0,%lo(.LC13)
	call	bl_printk
.LVL108:
	j	.L91
.L77:
	.loc 1 249 328 discriminator 8
	call	xTaskGetTickCount
.LVL109:
	j	.L90
.LVL110:
.L73:
	.loc 1 255 5 is_stmt 1
	li	a2,4
	li	a1,0
	addi	a0,sp,12
	call	memset
.LVL111:
	.loc 1 256 5
	mv	a0,s2
	call	strlen
.LVL112:
	mv	a2,a0
	mv	a1,s2
	addi	a0,sp,12
	call	memcpy
.LVL113:
	.loc 1 257 5
	li	a2,4
	addi	a1,sp,12
	mv	a0,s1
	call	mem_fourbytes_copy.isra.0
.LVL114:
	.loc 1 258 5
	li	a2,4
	addi	a1,sp,8
	addi	a0,s1,8
	call	mem_fourbytes_copy.isra.0
.LVL115:
	.loc 1 259 5
	addi	a0,sp,16
	call	sha_check_withctx.constprop.0.isra.0
.LVL116:
	.loc 1 260 5
	li	a0,1073807360
	addi	a0,a0,4
	li	a2,16
	addi	a1,sp,16
	call	mem_fourbytes_copy.isra.0
.LVL117:
	.loc 1 262 5
	.loc 1 262 12 is_stmt 0
	li	a0,0
	j	.L61
.LVL118:
.L69:
	.loc 1 233 5 is_stmt 1
	.loc 1 238 5
	.loc 1 238 17 is_stmt 0
	andi	a5,s0,3
	mv	a1,s0
	.loc 1 238 8
	beq	a5,zero,.L80
	.loc 1 239 9 is_stmt 1
	.loc 1 239 19 is_stmt 0
	sub	a1,a1,a5
	.loc 1 239 30
	addi	a1,a1,4
.L80:
	.loc 1 244 22
	addi	a4,a1,12
	sw	a1,8(sp)
	.loc 1 244 5 is_stmt 1
	.loc 1 244 22 is_stmt 0
	add	a4,s1,a4
	.loc 1 244 8
	li	a5,1073811456
	bleu	a4,a5,.L73
	.loc 1 245 9 is_stmt 1
	.loc 1 245 65 is_stmt 0
	addi	s1,s1,12
.LVL119:
	.loc 1 245 19
	sub	s1,a5,s1
.LVL120:
	.loc 1 246 9 is_stmt 1
	.loc 1 234 74 is_stmt 0
	lui	a5,%hi(_fsymc_level_hosal)
	lw	a4,%lo(_fsymc_level_hosal)(a5)
	.loc 1 247 59
	li	a5,4
	.loc 1 246 12
	bge	s1,zero,.L74
	.loc 1 247 13 is_stmt 1 discriminator 1
	.loc 1 247 51 discriminator 1
	.loc 1 247 56 discriminator 1
	.loc 1 247 59 is_stmt 0 discriminator 1
	bgtu	a4,a5,.L91
	.loc 1 247 122 discriminator 3
	lui	a4,%hi(_fsymf_level_hosalhal_hbnram)
	.loc 1 247 101 discriminator 3
	lw	a4,%lo(_fsymf_level_hosalhal_hbnram)(a4)
	bgtu	a4,a5,.L91
	.loc 1 247 158 is_stmt 1 discriminator 5
	.loc 1 247 258 is_stmt 0 discriminator 5
	call	xPortIsInsideInterrupt
.LVL121:
	.loc 1 247 158 discriminator 5
	beq	a0,zero,.L75
	.loc 1 247 287 discriminator 7
	call	xTaskGetTickCountFromISR
.LVL122:
.L89:
	.loc 1 247 318 discriminator 8
	mv	a2,a0
	.loc 1 247 158 discriminator 8
	lui	a3,%hi(.LC0)
	lui	a1,%hi(.LC1)
	lui	a0,%hi(.LC12)
	li	a4,247
	addi	a3,a3,%lo(.LC0)
	addi	a1,a1,%lo(.LC1)
	addi	a0,a0,%lo(.LC12)
	j	.L92
	.cfi_endproc
.LFE12:
	.size	hal_hbnram_alloc, .-hal_hbnram_alloc
	.section	.rodata.hal_hbnram_buffer_set.str1.4,"aMS",@progbits,1
	.align	2
.LC14:
	.string	"%s (%d)[%s:%4d] illegal para \r\n\r\n"
	.align	2
.LC15:
	.string	"%s (%d)[%s:%4d] key oversize \r\n\r\n"
	.align	2
.LC16:
	.string	"%s (%d)[%s:%4d] not correct key, return \r\n\r\n"
	.align	2
.LC17:
	.string	"%s (%d)[%s:%4d] length is too big than alloc size\r\n\r\n"
	.section	.text.hal_hbnram_buffer_set,"ax",@progbits
	.align	1
	.globl	hal_hbnram_buffer_set
	.type	hal_hbnram_buffer_set, @function
hal_hbnram_buffer_set:
.LFB13:
	.loc 1 266 1 is_stmt 1
	.cfi_startproc
.LVL123:
	.loc 1 267 5
	.loc 1 268 5
	.loc 1 269 5
	.loc 1 270 5
	.loc 1 271 5
	.loc 1 272 5
	.loc 1 274 5
	.loc 1 266 1 is_stmt 0
	addi	sp,sp,-80
	.cfi_def_cfa_offset 80
	sw	ra,76(sp)
	sw	s0,72(sp)
	sw	s1,68(sp)
	sw	s2,64(sp)
	sw	s3,60(sp)
	sw	s4,56(sp)
	sw	s5,52(sp)
	.cfi_offset 1, -4
	.cfi_offset 8, -8
	.cfi_offset 9, -12
	.cfi_offset 18, -16
	.cfi_offset 19, -20
	.cfi_offset 20, -24
	.cfi_offset 21, -28
	.loc 1 274 8
	beq	a0,zero,.L94
	mv	s2,a1
	.loc 1 274 20 discriminator 1
	beq	a1,zero,.L94
	mv	s0,a2
	.loc 1 274 35 discriminator 2
	bgt	a2,zero,.L95
.L94:
	.loc 1 275 9 is_stmt 1 discriminator 1
	.loc 1 275 47 discriminator 1
	.loc 1 275 52 discriminator 1
	.loc 1 275 74 is_stmt 0 discriminator 1
	lui	a5,%hi(_fsymc_level_hosal)
	.loc 1 275 55 discriminator 1
	lw	a4,%lo(_fsymc_level_hosal)(a5)
	li	a5,4
	bleu	a4,a5,.L96
.LVL124:
.L127:
	.loc 1 291 16 discriminator 10
	li	s0,-1
.L97:
	.loc 1 319 1
	lw	ra,76(sp)
	.cfi_remember_state
	.cfi_restore 1
	mv	a0,s0
	lw	s0,72(sp)
	.cfi_restore 8
	lw	s1,68(sp)
	.cfi_restore 9
	lw	s2,64(sp)
	.cfi_restore 18
	lw	s3,60(sp)
	.cfi_restore 19
	lw	s4,56(sp)
	.cfi_restore 20
	lw	s5,52(sp)
	.cfi_restore 21
	addi	sp,sp,80
	.cfi_def_cfa_offset 0
	jr	ra
.LVL125:
.L96:
	.cfi_restore_state
	.loc 1 275 118 discriminator 3
	lui	a4,%hi(_fsymf_level_hosalhal_hbnram)
	.loc 1 275 97 discriminator 3
	lw	a4,%lo(_fsymf_level_hosalhal_hbnram)(a4)
	bgtu	a4,a5,.L127
	.loc 1 275 154 is_stmt 1 discriminator 5
	.loc 1 275 236 is_stmt 0 discriminator 5
	call	xPortIsInsideInterrupt
.LVL126:
	.loc 1 275 154 discriminator 5
	beq	a0,zero,.L99
	.loc 1 275 265 discriminator 7
	call	xTaskGetTickCountFromISR
.LVL127:
.L120:
	.loc 1 275 296 discriminator 8
	mv	a2,a0
	.loc 1 275 154 discriminator 8
	lui	a3,%hi(.LC0)
	lui	a1,%hi(.LC1)
	lui	a0,%hi(.LC14)
	li	a4,275
	addi	a3,a3,%lo(.LC0)
	addi	a1,a1,%lo(.LC1)
	addi	a0,a0,%lo(.LC14)
.LVL128:
.L126:
	.loc 1 289 154 discriminator 10
	call	bl_printk
.LVL129:
	j	.L127
.LVL130:
.L99:
	.loc 1 275 296 discriminator 8
	call	xTaskGetTickCount
.LVL131:
	j	.L120
.LVL132:
.L95:
	mv	s3,a0
	.loc 1 280 5 is_stmt 1
	.loc 1 280 8 is_stmt 0
	li	s1,4
	.loc 1 280 9
	call	strlen
.LVL133:
	.loc 1 280 8
	bleu	a0,s1,.L101
	.loc 1 281 9 is_stmt 1 discriminator 1
	.loc 1 281 47 discriminator 1
	.loc 1 281 52 discriminator 1
	.loc 1 281 74 is_stmt 0 discriminator 1
	lui	a5,%hi(_fsymc_level_hosal)
	.loc 1 281 55 discriminator 1
	lw	a5,%lo(_fsymc_level_hosal)(a5)
	bgtu	a5,s1,.L127
	.loc 1 281 118 discriminator 3
	lui	a5,%hi(_fsymf_level_hosalhal_hbnram)
	.loc 1 281 97 discriminator 3
	lw	a5,%lo(_fsymf_level_hosalhal_hbnram)(a5)
	bgtu	a5,s1,.L127
	.loc 1 281 154 is_stmt 1 discriminator 5
	.loc 1 281 236 is_stmt 0 discriminator 5
	call	xPortIsInsideInterrupt
.LVL134:
	.loc 1 281 154 discriminator 5
	beq	a0,zero,.L102
	.loc 1 281 265 discriminator 7
	call	xTaskGetTickCountFromISR
.LVL135:
.L121:
	.loc 1 281 296 discriminator 8
	mv	a2,a0
	.loc 1 281 154 discriminator 8
	lui	a3,%hi(.LC0)
	lui	a1,%hi(.LC1)
	lui	a0,%hi(.LC15)
	li	a4,281
	addi	a3,a3,%lo(.LC0)
	addi	a1,a1,%lo(.LC1)
	addi	a0,a0,%lo(.LC15)
	j	.L126
.L102:
	.loc 1 281 296 discriminator 8
	call	xTaskGetTickCount
.LVL136:
	j	.L121
.L101:
	.loc 1 285 5 is_stmt 1
	li	a2,4
	li	a1,0
	addi	a0,sp,12
	call	memset
.LVL137:
	.loc 1 286 5
	mv	a0,s3
	call	strlen
.LVL138:
	mv	a2,a0
	mv	a1,s3
	addi	a0,sp,12
	call	memcpy
.LVL139:
	.loc 1 287 5
	.loc 1 287 13 is_stmt 0
	addi	a0,sp,12
	call	find_addr_by_key
.LVL140:
	mv	s3,a0
.LVL141:
	.loc 1 288 5 is_stmt 1
	.loc 1 288 8 is_stmt 0
	bne	a0,zero,.L104
	.loc 1 289 9 is_stmt 1 discriminator 1
	.loc 1 289 47 discriminator 1
	.loc 1 289 52 discriminator 1
	.loc 1 289 74 is_stmt 0 discriminator 1
	lui	a5,%hi(_fsymc_level_hosal)
	.loc 1 289 55 discriminator 1
	lw	a5,%lo(_fsymc_level_hosal)(a5)
	bgtu	a5,s1,.L127
	.loc 1 289 118 discriminator 3
	lui	a5,%hi(_fsymf_level_hosalhal_hbnram)
	.loc 1 289 97 discriminator 3
	lw	a5,%lo(_fsymf_level_hosalhal_hbnram)(a5)
	bgtu	a5,s1,.L127
	.loc 1 289 154 is_stmt 1 discriminator 5
	.loc 1 289 247 is_stmt 0 discriminator 5
	call	xPortIsInsideInterrupt
.LVL142:
	.loc 1 289 154 discriminator 5
	beq	a0,zero,.L105
	.loc 1 289 276 discriminator 7
	call	xTaskGetTickCountFromISR
.LVL143:
.L122:
	.loc 1 289 307 discriminator 8
	mv	a2,a0
	.loc 1 289 154 discriminator 8
	lui	a3,%hi(.LC0)
	lui	a1,%hi(.LC1)
	lui	a0,%hi(.LC16)
	li	a4,289
	addi	a3,a3,%lo(.LC0)
	addi	a1,a1,%lo(.LC1)
	addi	a0,a0,%lo(.LC16)
	j	.L126
.L105:
	.loc 1 289 307 discriminator 8
	call	xTaskGetTickCount
.LVL144:
	j	.L122
.LVL145:
.L104:
	.loc 1 294 5 is_stmt 1
	.loc 1 296 5
	.loc 1 296 8 is_stmt 0
	lw	a5,8(a0)
	bleu	s0,a5,.L107
	.loc 1 297 9 is_stmt 1 discriminator 1
	.loc 1 297 47 discriminator 1
	.loc 1 297 52 discriminator 1
	.loc 1 297 74 is_stmt 0 discriminator 1
	lui	a5,%hi(_fsymc_level_hosal)
	.loc 1 297 55 discriminator 1
	lw	a5,%lo(_fsymc_level_hosal)(a5)
	bgtu	a5,s1,.L127
	.loc 1 297 118 discriminator 3
	lui	a5,%hi(_fsymf_level_hosalhal_hbnram)
	.loc 1 297 97 discriminator 3
	lw	a5,%lo(_fsymf_level_hosalhal_hbnram)(a5)
	bgtu	a5,s1,.L127
	.loc 1 297 154 is_stmt 1 discriminator 5
	.loc 1 297 256 is_stmt 0 discriminator 5
	call	xPortIsInsideInterrupt
.LVL146:
	.loc 1 297 154 discriminator 5
	beq	a0,zero,.L108
	.loc 1 297 285 discriminator 7
	call	xTaskGetTickCountFromISR
.LVL147:
.L123:
	.loc 1 297 316 discriminator 8
	mv	a2,a0
	.loc 1 297 154 discriminator 8
	lui	a3,%hi(.LC0)
	lui	a1,%hi(.LC1)
	lui	a0,%hi(.LC17)
	li	a4,297
	addi	a3,a3,%lo(.LC0)
	addi	a1,a1,%lo(.LC1)
	addi	a0,a0,%lo(.LC17)
	j	.L126
.L108:
	.loc 1 297 316 discriminator 8
	call	xTaskGetTickCount
.LVL148:
	j	.L123
.LVL149:
.L107:
	.loc 1 301 5 is_stmt 1
	.loc 1 301 20 is_stmt 0
	andi	s4,s0,3
	.loc 1 304 13
	addi	s5,a0,12
	.loc 1 301 8
	beq	s4,zero,.L110
	.loc 1 302 9 is_stmt 1
.LVL150:
	.loc 1 303 9
	.loc 1 303 12 is_stmt 0
	ble	s0,s1,.L111
	.loc 1 304 13 is_stmt 1
	.loc 1 304 65 is_stmt 0
	sub	s1,s0,s4
	.loc 1 304 13
	mv	a2,s1
	mv	a1,s2
	mv	a0,s5
.LVL151:
	call	mem_fourbytes_copy.isra.0
.LVL152:
	.loc 1 305 13 is_stmt 1
	mv	a2,s4
	add	a1,s2,s1
	addi	a0,sp,8
	call	memcpy
.LVL153:
	.loc 1 306 13
	.loc 1 306 61 is_stmt 0
	addi	a0,s1,12
	.loc 1 306 13
	li	a2,4
	addi	a1,sp,8
	add	a0,s3,a0
.LVL154:
.L124:
	.loc 1 312 8
	call	mem_fourbytes_copy.isra.0
.LVL155:
	.loc 1 315 5 is_stmt 1
	addi	a0,sp,16
	call	sha_check_withctx.constprop.0.isra.0
.LVL156:
	.loc 1 316 5
	li	a0,1073807360
	li	a2,16
	addi	a1,sp,16
	addi	a0,a0,4
	call	mem_fourbytes_copy.isra.0
.LVL157:
	.loc 1 318 5
	.loc 1 318 12 is_stmt 0
	j	.L97
.LVL158:
.L111:
	.loc 1 308 13 is_stmt 1
	mv	a2,s4
	mv	a1,s2
	addi	a0,sp,8
.LVL159:
	call	memcpy
.LVL160:
	.loc 1 309 13
	li	a2,4
	addi	a1,sp,8
.LVL161:
.L125:
	.loc 1 312 8 is_stmt 0
	mv	a0,s5
	j	.L124
.LVL162:
.L110:
	.loc 1 312 8 is_stmt 1
	mv	a2,s0
	mv	a1,s2
	j	.L125
	.cfi_endproc
.LFE13:
	.size	hal_hbnram_buffer_set, .-hal_hbnram_buffer_set
	.section	.rodata.hal_hbnram_buffer_get.str1.4,"aMS",@progbits,1
	.align	2
.LC18:
	.string	"%s (%d)[%s:%4d] key not correct, return \r\n\r\n"
	.align	2
.LC19:
	.string	"%s (%d)[%s:%4d] length is big than alloc size \r\n\r\n"
	.section	.text.hal_hbnram_buffer_get,"ax",@progbits
	.align	1
	.globl	hal_hbnram_buffer_get
	.type	hal_hbnram_buffer_get, @function
hal_hbnram_buffer_get:
.LFB14:
	.loc 1 322 1
	.cfi_startproc
.LVL163:
	.loc 1 323 5
	.loc 1 324 5
	.loc 1 325 5
	.loc 1 326 5
	.loc 1 327 5
	.loc 1 329 5
	.loc 1 322 1 is_stmt 0
	addi	sp,sp,-48
	.cfi_def_cfa_offset 48
	sw	ra,44(sp)
	sw	s0,40(sp)
	sw	s1,36(sp)
	sw	s2,32(sp)
	sw	s3,28(sp)
	sw	s4,24(sp)
	.cfi_offset 1, -4
	.cfi_offset 8, -8
	.cfi_offset 9, -12
	.cfi_offset 18, -16
	.cfi_offset 19, -20
	.cfi_offset 20, -24
	.loc 1 329 8
	beq	a1,zero,.L129
	mv	s2,a0
	.loc 1 329 20 discriminator 1
	beq	a0,zero,.L129
	mv	s0,a2
	.loc 1 329 35 discriminator 2
	bgt	a2,zero,.L130
.L129:
	.loc 1 330 9 is_stmt 1 discriminator 1
	.loc 1 330 47 discriminator 1
	.loc 1 330 52 discriminator 1
	.loc 1 330 74 is_stmt 0 discriminator 1
	lui	a5,%hi(_fsymc_level_hosal)
	.loc 1 330 55 discriminator 1
	lw	a4,%lo(_fsymc_level_hosal)(a5)
	li	a5,4
	bleu	a4,a5,.L131
.LVL164:
.L159:
	.loc 1 343 16 discriminator 10
	li	s0,-1
.L132:
	.loc 1 367 1
	lw	ra,44(sp)
	.cfi_remember_state
	.cfi_restore 1
	mv	a0,s0
	lw	s0,40(sp)
	.cfi_restore 8
	lw	s1,36(sp)
	.cfi_restore 9
	lw	s2,32(sp)
	.cfi_restore 18
	lw	s3,28(sp)
	.cfi_restore 19
	lw	s4,24(sp)
	.cfi_restore 20
	addi	sp,sp,48
	.cfi_def_cfa_offset 0
	jr	ra
.LVL165:
.L131:
	.cfi_restore_state
	.loc 1 330 118 discriminator 3
	lui	a4,%hi(_fsymf_level_hosalhal_hbnram)
	.loc 1 330 97 discriminator 3
	lw	a4,%lo(_fsymf_level_hosalhal_hbnram)(a4)
	bgtu	a4,a5,.L159
	.loc 1 330 154 is_stmt 1 discriminator 5
	.loc 1 330 236 is_stmt 0 discriminator 5
	call	xPortIsInsideInterrupt
.LVL166:
	.loc 1 330 154 discriminator 5
	beq	a0,zero,.L134
	.loc 1 330 265 discriminator 7
	call	xTaskGetTickCountFromISR
.LVL167:
.L154:
	.loc 1 330 296 discriminator 8
	mv	a2,a0
	.loc 1 330 154 discriminator 8
	lui	a3,%hi(.LC0)
	lui	a1,%hi(.LC1)
	lui	a0,%hi(.LC14)
	li	a4,330
	addi	a3,a3,%lo(.LC0)
	addi	a1,a1,%lo(.LC1)
	addi	a0,a0,%lo(.LC14)
.LVL168:
.L158:
	.loc 1 342 154 discriminator 10
	call	bl_printk
.LVL169:
	j	.L159
.LVL170:
.L134:
	.loc 1 330 296 discriminator 8
	call	xTaskGetTickCount
.LVL171:
	j	.L154
.LVL172:
.L130:
	mv	s1,a1
	.loc 1 334 5 is_stmt 1
	.loc 1 334 9 is_stmt 0
	call	strlen
.LVL173:
	.loc 1 334 8
	li	a5,4
	bleu	a0,a5,.L136
	.loc 1 335 9 is_stmt 1 discriminator 1
	.loc 1 335 47 discriminator 1
	.loc 1 335 52 discriminator 1
	.loc 1 335 74 is_stmt 0 discriminator 1
	lui	a4,%hi(_fsymc_level_hosal)
	.loc 1 335 55 discriminator 1
	lw	a4,%lo(_fsymc_level_hosal)(a4)
	bgtu	a4,a5,.L136
	.loc 1 335 118 discriminator 3
	lui	a4,%hi(_fsymf_level_hosalhal_hbnram)
	.loc 1 335 97 discriminator 3
	lw	a4,%lo(_fsymf_level_hosalhal_hbnram)(a4)
	bgtu	a4,a5,.L136
	.loc 1 335 154 is_stmt 1 discriminator 5
	.loc 1 335 236 is_stmt 0 discriminator 5
	call	xPortIsInsideInterrupt
.LVL174:
	.loc 1 335 154 discriminator 5
	beq	a0,zero,.L137
	.loc 1 335 265 discriminator 7
	call	xTaskGetTickCountFromISR
.LVL175:
.L155:
	.loc 1 335 296 discriminator 8
	mv	a2,a0
	.loc 1 335 154 discriminator 8
	lui	a3,%hi(.LC0)
	lui	a1,%hi(.LC1)
	lui	a0,%hi(.LC15)
	li	a4,335
	addi	a3,a3,%lo(.LC0)
	addi	a1,a1,%lo(.LC1)
	addi	a0,a0,%lo(.LC15)
	call	bl_printk
.LVL176:
.L136:
	.loc 1 335 350 is_stmt 1 discriminator 11
	.loc 1 335 361 discriminator 11
	.loc 1 338 5 discriminator 11
	li	a2,4
	li	a1,0
	addi	a0,sp,12
	call	memset
.LVL177:
	.loc 1 339 5 discriminator 11
	mv	a0,s2
	call	strlen
.LVL178:
	mv	a2,a0
	mv	a1,s2
	addi	a0,sp,12
	call	memcpy
.LVL179:
	.loc 1 340 5 discriminator 11
	.loc 1 340 13 is_stmt 0 discriminator 11
	addi	a0,sp,12
	call	find_addr_by_key
.LVL180:
	mv	s2,a0
.LVL181:
	.loc 1 341 5 is_stmt 1 discriminator 11
	.loc 1 341 8 is_stmt 0 discriminator 11
	bne	a0,zero,.L139
	.loc 1 342 9 is_stmt 1 discriminator 1
	.loc 1 342 47 discriminator 1
	.loc 1 342 52 discriminator 1
	.loc 1 342 74 is_stmt 0 discriminator 1
	lui	a5,%hi(_fsymc_level_hosal)
	.loc 1 342 55 discriminator 1
	lw	a4,%lo(_fsymc_level_hosal)(a5)
	li	a5,4
	bgtu	a4,a5,.L159
	.loc 1 342 118 discriminator 3
	lui	a4,%hi(_fsymf_level_hosalhal_hbnram)
	.loc 1 342 97 discriminator 3
	lw	a4,%lo(_fsymf_level_hosalhal_hbnram)(a4)
	bgtu	a4,a5,.L159
	.loc 1 342 154 is_stmt 1 discriminator 5
	.loc 1 342 247 is_stmt 0 discriminator 5
	call	xPortIsInsideInterrupt
.LVL182:
	.loc 1 342 154 discriminator 5
	beq	a0,zero,.L140
	.loc 1 342 276 discriminator 7
	call	xTaskGetTickCountFromISR
.LVL183:
.L156:
	.loc 1 342 307 discriminator 8
	mv	a2,a0
	.loc 1 342 154 discriminator 8
	lui	a3,%hi(.LC0)
	lui	a1,%hi(.LC1)
	lui	a0,%hi(.LC18)
	li	a4,342
	addi	a3,a3,%lo(.LC0)
	addi	a1,a1,%lo(.LC1)
	addi	a0,a0,%lo(.LC18)
	j	.L158
.LVL184:
.L137:
	.loc 1 335 296 discriminator 8
	call	xTaskGetTickCount
.LVL185:
	j	.L155
.LVL186:
.L140:
	.loc 1 342 307 discriminator 8
	call	xTaskGetTickCount
.LVL187:
	j	.L156
.LVL188:
.L139:
	.loc 1 346 5 is_stmt 1
	.loc 1 347 5
	.loc 1 347 8 is_stmt 0
	lw	a5,8(a0)
	bleu	s0,a5,.L142
	.loc 1 348 9 is_stmt 1 discriminator 1
	.loc 1 348 47 discriminator 1
	.loc 1 348 52 discriminator 1
	.loc 1 348 74 is_stmt 0 discriminator 1
	lui	a5,%hi(_fsymc_level_hosal)
	.loc 1 348 55 discriminator 1
	lw	a4,%lo(_fsymc_level_hosal)(a5)
	li	a5,4
	bgtu	a4,a5,.L159
	.loc 1 348 118 discriminator 3
	lui	a4,%hi(_fsymf_level_hosalhal_hbnram)
	.loc 1 348 97 discriminator 3
	lw	a4,%lo(_fsymf_level_hosalhal_hbnram)(a4)
	bgtu	a4,a5,.L159
	.loc 1 348 154 is_stmt 1 discriminator 5
	.loc 1 348 253 is_stmt 0 discriminator 5
	call	xPortIsInsideInterrupt
.LVL189:
	.loc 1 348 154 discriminator 5
	beq	a0,zero,.L143
	.loc 1 348 282 discriminator 7
	call	xTaskGetTickCountFromISR
.LVL190:
.L157:
	.loc 1 348 313 discriminator 8
	mv	a2,a0
	.loc 1 348 154 discriminator 8
	lui	a3,%hi(.LC0)
	lui	a1,%hi(.LC1)
	lui	a0,%hi(.LC19)
	li	a4,348
	addi	a3,a3,%lo(.LC0)
	addi	a1,a1,%lo(.LC1)
	addi	a0,a0,%lo(.LC19)
	j	.L158
.L143:
	.loc 1 348 313 discriminator 8
	call	xTaskGetTickCount
.LVL191:
	j	.L157
.LVL192:
.L142:
	.loc 1 352 5 is_stmt 1
	.loc 1 352 20 is_stmt 0
	andi	s3,s0,3
	.loc 1 355 43
	addi	a1,a0,12
	.loc 1 352 8
	beq	s3,zero,.L145
	.loc 1 353 9 is_stmt 1
.LVL193:
	.loc 1 354 9
	.loc 1 354 12 is_stmt 0
	li	a5,4
.LVL194:
	ble	s0,a5,.L146
	.loc 1 355 13 is_stmt 1
	.loc 1 355 65 is_stmt 0
	sub	s4,s0,s3
	.loc 1 355 13
	mv	a2,s4
	mv	a0,s1
.LVL195:
	call	mem_fourbytes_copy.isra.0
.LVL196:
	.loc 1 356 13 is_stmt 1
	.loc 1 356 69 is_stmt 0
	addi	a1,s4,12
	.loc 1 356 13
	li	a2,4
	add	a1,s2,a1
	addi	a0,sp,8
	call	mem_fourbytes_copy.isra.0
.LVL197:
	.loc 1 357 13 is_stmt 1
	mv	a2,s3
	addi	a1,sp,8
	add	a0,s1,s4
.L160:
	.loc 1 360 13 is_stmt 0
	call	memcpy
.LVL198:
	j	.L132
.LVL199:
.L146:
	.loc 1 359 13 is_stmt 1
	li	a2,4
	addi	a0,sp,8
.LVL200:
	call	mem_fourbytes_copy.isra.0
.LVL201:
	.loc 1 360 13
	mv	a2,s3
	addi	a1,sp,8
	mv	a0,s1
	j	.L160
.LVL202:
.L145:
	.loc 1 363 9
	mv	a2,s0
	mv	a0,s1
.LVL203:
	call	mem_fourbytes_copy.isra.0
.LVL204:
	j	.L132
	.cfi_endproc
.LFE14:
	.size	hal_hbnram_buffer_get, .-hal_hbnram_buffer_get
	.section	.rodata.hal_hbnram_handle_get_fromkey.str1.4,"aMS",@progbits,1
	.align	2
.LC20:
	.string	"%s (%d)[%s:%4d] invalid handle pointer \r\n\r\n"
	.align	2
.LC21:
	.string	"%s (%d)[%s:%4d] invalid key \r\n\r\n"
	.section	.text.hal_hbnram_handle_get_fromkey,"ax",@progbits
	.align	1
	.globl	hal_hbnram_handle_get_fromkey
	.type	hal_hbnram_handle_get_fromkey, @function
hal_hbnram_handle_get_fromkey:
.LFB15:
	.loc 1 370 1
	.cfi_startproc
.LVL205:
	.loc 1 371 5
	.loc 1 372 5
	.loc 1 374 5
	.loc 1 370 1 is_stmt 0
	addi	sp,sp,-32
	.cfi_def_cfa_offset 32
	sw	ra,28(sp)
	sw	s0,24(sp)
	sw	s1,20(sp)
	.cfi_offset 1, -4
	.cfi_offset 8, -8
	.cfi_offset 9, -12
	.loc 1 374 8
	beq	a0,zero,.L162
	mv	s0,a1
	.loc 1 374 20 discriminator 1
	bne	a1,zero,.L163
.L162:
	.loc 1 375 9 is_stmt 1 discriminator 1
	.loc 1 375 47 discriminator 1
	.loc 1 375 52 discriminator 1
	.loc 1 375 74 is_stmt 0 discriminator 1
	lui	a5,%hi(_fsymc_level_hosal)
	.loc 1 375 55 discriminator 1
	lw	a4,%lo(_fsymc_level_hosal)(a5)
	li	a5,4
	bleu	a4,a5,.L164
.LVL206:
.L183:
	.loc 1 389 16 discriminator 10
	li	a0,-1
.L161:
	.loc 1 397 1
	lw	ra,28(sp)
	.cfi_remember_state
	.cfi_restore 1
	lw	s0,24(sp)
	.cfi_restore 8
	lw	s1,20(sp)
	.cfi_restore 9
	addi	sp,sp,32
	.cfi_def_cfa_offset 0
	jr	ra
.LVL207:
.L164:
	.cfi_restore_state
	.loc 1 375 118 discriminator 3
	lui	a4,%hi(_fsymf_level_hosalhal_hbnram)
	.loc 1 375 97 discriminator 3
	lw	a4,%lo(_fsymf_level_hosalhal_hbnram)(a4)
	bgtu	a4,a5,.L183
	.loc 1 375 154 is_stmt 1 discriminator 5
	.loc 1 375 246 is_stmt 0 discriminator 5
	call	xPortIsInsideInterrupt
.LVL208:
	.loc 1 375 154 discriminator 5
	beq	a0,zero,.L167
	.loc 1 375 275 discriminator 7
	call	xTaskGetTickCountFromISR
.LVL209:
.L179:
	.loc 1 375 306 discriminator 8
	mv	a2,a0
	.loc 1 375 154 discriminator 8
	lui	a3,%hi(.LC0)
	lui	a1,%hi(.LC1)
	lui	a0,%hi(.LC20)
	li	a4,375
	addi	a3,a3,%lo(.LC0)
	addi	a1,a1,%lo(.LC1)
	addi	a0,a0,%lo(.LC20)
.L182:
	.loc 1 388 154 discriminator 10
	call	bl_printk
.LVL210:
	j	.L183
.L167:
	.loc 1 375 306 discriminator 8
	call	xTaskGetTickCount
.LVL211:
	j	.L179
.LVL212:
.L163:
	mv	s1,a0
	.loc 1 380 5 is_stmt 1
	.loc 1 380 9 is_stmt 0
	call	strlen
.LVL213:
	.loc 1 380 8
	li	a5,4
	bleu	a0,a5,.L169
	.loc 1 381 9 is_stmt 1 discriminator 1
	.loc 1 381 47 discriminator 1
	.loc 1 381 52 discriminator 1
	.loc 1 381 74 is_stmt 0 discriminator 1
	lui	a4,%hi(_fsymc_level_hosal)
	.loc 1 381 55 discriminator 1
	lw	a4,%lo(_fsymc_level_hosal)(a4)
	bgtu	a4,a5,.L169
	.loc 1 381 118 discriminator 3
	lui	a4,%hi(_fsymf_level_hosalhal_hbnram)
	.loc 1 381 97 discriminator 3
	lw	a4,%lo(_fsymf_level_hosalhal_hbnram)(a4)
	bgtu	a4,a5,.L169
	.loc 1 381 154 is_stmt 1 discriminator 5
	.loc 1 381 236 is_stmt 0 discriminator 5
	call	xPortIsInsideInterrupt
.LVL214:
	.loc 1 381 154 discriminator 5
	beq	a0,zero,.L170
	.loc 1 381 265 discriminator 7
	call	xTaskGetTickCountFromISR
.LVL215:
.L180:
	.loc 1 381 296 discriminator 8
	mv	a2,a0
	.loc 1 381 154 discriminator 8
	lui	a3,%hi(.LC0)
	lui	a1,%hi(.LC1)
	lui	a0,%hi(.LC15)
	li	a4,381
	addi	a3,a3,%lo(.LC0)
	addi	a1,a1,%lo(.LC1)
	addi	a0,a0,%lo(.LC15)
	call	bl_printk
.LVL216:
.L169:
	.loc 1 381 350 is_stmt 1 discriminator 11
	.loc 1 381 361 discriminator 11
	.loc 1 384 5 discriminator 11
	li	a2,4
	li	a1,0
	addi	a0,sp,12
	call	memset
.LVL217:
	.loc 1 385 5 discriminator 11
	mv	a0,s1
	call	strlen
.LVL218:
	mv	a2,a0
	mv	a1,s1
	addi	a0,sp,12
	call	memcpy
.LVL219:
	.loc 1 386 5 discriminator 11
	.loc 1 386 13 is_stmt 0 discriminator 11
	addi	a0,sp,12
	call	find_addr_by_key
.LVL220:
	.loc 1 387 5 is_stmt 1 discriminator 11
	.loc 1 387 8 is_stmt 0 discriminator 11
	bne	a0,zero,.L172
	.loc 1 388 9 is_stmt 1 discriminator 1
	.loc 1 388 47 discriminator 1
	.loc 1 388 52 discriminator 1
	.loc 1 388 74 is_stmt 0 discriminator 1
	lui	a5,%hi(_fsymc_level_hosal)
	.loc 1 388 55 discriminator 1
	lw	a4,%lo(_fsymc_level_hosal)(a5)
	li	a5,4
	bgtu	a4,a5,.L183
	.loc 1 388 118 discriminator 3
	lui	a4,%hi(_fsymf_level_hosalhal_hbnram)
	.loc 1 388 97 discriminator 3
	lw	a4,%lo(_fsymf_level_hosalhal_hbnram)(a4)
	bgtu	a4,a5,.L183
	.loc 1 388 154 is_stmt 1 discriminator 5
	.loc 1 388 235 is_stmt 0 discriminator 5
	call	xPortIsInsideInterrupt
.LVL221:
	.loc 1 388 154 discriminator 5
	beq	a0,zero,.L173
	.loc 1 388 264 discriminator 7
	call	xTaskGetTickCountFromISR
.LVL222:
.L181:
	.loc 1 388 295 discriminator 8
	mv	a2,a0
	.loc 1 388 154 discriminator 8
	lui	a3,%hi(.LC0)
	lui	a1,%hi(.LC1)
	lui	a0,%hi(.LC21)
	li	a4,388
	addi	a3,a3,%lo(.LC0)
	addi	a1,a1,%lo(.LC1)
	addi	a0,a0,%lo(.LC21)
	j	.L182
.L170:
	.loc 1 381 296 discriminator 8
	call	xTaskGetTickCount
.LVL223:
	j	.L180
.L173:
	.loc 1 388 295 discriminator 8
	call	xTaskGetTickCount
.LVL224:
	j	.L181
.LVL225:
.L172:
	.loc 1 391 5 is_stmt 1
	.loc 1 391 24 is_stmt 0
	sw	a0,0(s0)
	.loc 1 392 5 is_stmt 1
	.loc 1 392 18 is_stmt 0
	lw	a5,8(a0)
	.loc 1 393 24
	sw	zero,8(s0)
	.loc 1 394 23
	sw	zero,4(s0)
	.loc 1 392 18
	sw	a5,12(s0)
	.loc 1 393 5 is_stmt 1
	.loc 1 394 5
	.loc 1 396 5
	.loc 1 396 12 is_stmt 0
	li	a0,0
.LVL226:
	j	.L161
	.cfi_endproc
.LFE15:
	.size	hal_hbnram_handle_get_fromkey, .-hal_hbnram_handle_get_fromkey
	.section	.rodata.hal_hbnram_copy_from_stream.str1.4,"aMS",@progbits,1
	.align	2
.LC22:
	.string	"%s (%d)[%s:%4d] invalid pointer \r\n\r\n"
	.align	2
.LC23:
	.string	"%s (%d)[%s:%4d] len == 0 \r\n\r\n"
	.align	2
.LC24:
	.string	"%s (%d)[%s:%4d] len oversize \r\n\r\n"
	.section	.text.hal_hbnram_copy_from_stream,"ax",@progbits
	.align	1
	.globl	hal_hbnram_copy_from_stream
	.type	hal_hbnram_copy_from_stream, @function
hal_hbnram_copy_from_stream:
.LFB16:
	.loc 1 400 1 is_stmt 1
	.cfi_startproc
.LVL227:
	.loc 1 401 5
	.loc 1 400 1 is_stmt 0
	addi	sp,sp,-64
	.cfi_def_cfa_offset 64
	sw	ra,60(sp)
	sw	s0,56(sp)
	sw	s1,52(sp)
	sw	s2,48(sp)
	sw	s3,44(sp)
	sw	s4,40(sp)
	sw	s5,36(sp)
	sw	s6,32(sp)
	sw	s7,28(sp)
	.cfi_offset 1, -4
	.cfi_offset 8, -8
	.cfi_offset 9, -12
	.cfi_offset 18, -16
	.cfi_offset 19, -20
	.cfi_offset 20, -24
	.cfi_offset 21, -28
	.cfi_offset 22, -32
	.cfi_offset 23, -36
	.loc 1 401 13
	sw	zero,8(sp)
	.loc 1 402 5 is_stmt 1
	.loc 1 402 13 is_stmt 0
	sw	zero,12(sp)
	.loc 1 403 5 is_stmt 1
	.loc 1 404 5
	.loc 1 405 5
	.loc 1 406 5
	.loc 1 408 5
	.loc 1 408 8 is_stmt 0
	beq	a1,zero,.L185
	mv	s0,a0
	.loc 1 408 20 discriminator 1
	bne	a0,zero,.L186
.L185:
	.loc 1 409 9 is_stmt 1 discriminator 1
	.loc 1 409 47 discriminator 1
	.loc 1 409 52 discriminator 1
	.loc 1 409 74 is_stmt 0 discriminator 1
	lui	a5,%hi(_fsymc_level_hosal)
	.loc 1 409 55 discriminator 1
	lw	a4,%lo(_fsymc_level_hosal)(a5)
	li	a5,4
	.loc 1 410 16 discriminator 1
	li	a0,-1
.LVL228:
	.loc 1 409 55 discriminator 1
	bgtu	a4,a5,.L184
	.loc 1 409 118 discriminator 3
	lui	a4,%hi(_fsymf_level_hosalhal_hbnram)
	.loc 1 409 97 discriminator 3
	lw	a4,%lo(_fsymf_level_hosalhal_hbnram)(a4)
	bgtu	a4,a5,.L184
	.loc 1 409 154 is_stmt 1 discriminator 5
	.loc 1 409 239 is_stmt 0 discriminator 5
	call	xPortIsInsideInterrupt
.LVL229:
	.loc 1 409 154 discriminator 5
	beq	a0,zero,.L188
	.loc 1 409 268 discriminator 7
	call	xTaskGetTickCountFromISR
.LVL230:
.L213:
	.loc 1 409 299 discriminator 8
	mv	a2,a0
	.loc 1 409 154 discriminator 8
	lui	a3,%hi(.LC0)
	lui	a1,%hi(.LC1)
	lui	a0,%hi(.LC22)
	li	a4,409
	addi	a3,a3,%lo(.LC0)
	addi	a1,a1,%lo(.LC1)
	addi	a0,a0,%lo(.LC22)
.L218:
	.loc 1 414 154 discriminator 10
	call	bl_printk
.LVL231:
	.loc 1 415 16 discriminator 10
	li	a0,-1
.L184:
	.loc 1 465 1
	lw	ra,60(sp)
	.cfi_remember_state
	.cfi_restore 1
	lw	s0,56(sp)
	.cfi_restore 8
	lw	s1,52(sp)
	.cfi_restore 9
	lw	s2,48(sp)
	.cfi_restore 18
	lw	s3,44(sp)
	.cfi_restore 19
	lw	s4,40(sp)
	.cfi_restore 20
	lw	s5,36(sp)
	.cfi_restore 21
	lw	s6,32(sp)
	.cfi_restore 22
	lw	s7,28(sp)
	.cfi_restore 23
	addi	sp,sp,64
	.cfi_def_cfa_offset 0
	jr	ra
.L188:
	.cfi_restore_state
	.loc 1 409 299 discriminator 8
	call	xTaskGetTickCount
.LVL232:
	j	.L213
.LVL233:
.L186:
	mv	s2,a2
	.loc 1 413 5 is_stmt 1
	.loc 1 413 8 is_stmt 0
	bgt	a2,zero,.L190
	.loc 1 414 9 is_stmt 1 discriminator 1
	.loc 1 414 47 discriminator 1
	.loc 1 414 52 discriminator 1
	.loc 1 414 74 is_stmt 0 discriminator 1
	lui	a5,%hi(_fsymc_level_hosal)
	.loc 1 414 55 discriminator 1
	lw	a4,%lo(_fsymc_level_hosal)(a5)
	li	a5,4
	.loc 1 410 16 discriminator 1
	li	a0,-1
	.loc 1 414 55 discriminator 1
	bgtu	a4,a5,.L184
	.loc 1 414 118 discriminator 3
	lui	a4,%hi(_fsymf_level_hosalhal_hbnram)
	.loc 1 414 97 discriminator 3
	lw	a4,%lo(_fsymf_level_hosalhal_hbnram)(a4)
	bgtu	a4,a5,.L184
	.loc 1 414 154 is_stmt 1 discriminator 5
	.loc 1 414 232 is_stmt 0 discriminator 5
	call	xPortIsInsideInterrupt
.LVL234:
	.loc 1 414 154 discriminator 5
	beq	a0,zero,.L191
	.loc 1 414 261 discriminator 7
	call	xTaskGetTickCountFromISR
.LVL235:
.L214:
	.loc 1 414 292 discriminator 8
	mv	a2,a0
	.loc 1 414 154 discriminator 8
	lui	a3,%hi(.LC0)
	lui	a1,%hi(.LC1)
	lui	a0,%hi(.LC23)
	li	a4,414
	addi	a3,a3,%lo(.LC0)
	addi	a1,a1,%lo(.LC1)
	addi	a0,a0,%lo(.LC23)
	j	.L218
.L191:
	.loc 1 414 292 discriminator 8
	call	xTaskGetTickCount
.LVL236:
	j	.L214
.LVL237:
.L190:
	.loc 1 418 5 is_stmt 1
	.loc 1 418 21 is_stmt 0
	lw	s3,4(a0)
	.loc 1 418 8
	lw	a5,12(a0)
	.loc 1 418 13
	add	a4,s3,a2
	.loc 1 418 8
	ble	a4,a5,.L193
	.loc 1 419 9 is_stmt 1 discriminator 1
	.loc 1 419 47 discriminator 1
	.loc 1 419 52 discriminator 1
	.loc 1 419 74 is_stmt 0 discriminator 1
	lui	a5,%hi(_fsymc_level_hosal)
	.loc 1 419 55 discriminator 1
	lw	a4,%lo(_fsymc_level_hosal)(a5)
	li	a5,4
	.loc 1 410 16 discriminator 1
	li	a0,-1
	.loc 1 419 55 discriminator 1
	bgtu	a4,a5,.L184
	.loc 1 419 118 discriminator 3
	lui	a4,%hi(_fsymf_level_hosalhal_hbnram)
	.loc 1 419 97 discriminator 3
	lw	a4,%lo(_fsymf_level_hosalhal_hbnram)(a4)
	bgtu	a4,a5,.L184
	.loc 1 419 154 is_stmt 1 discriminator 5
	.loc 1 419 236 is_stmt 0 discriminator 5
	call	xPortIsInsideInterrupt
.LVL238:
	.loc 1 419 154 discriminator 5
	beq	a0,zero,.L194
	.loc 1 419 265 discriminator 7
	call	xTaskGetTickCountFromISR
.LVL239:
.L215:
	.loc 1 419 296 discriminator 8
	mv	a2,a0
	.loc 1 419 154 discriminator 8
	lui	a3,%hi(.LC0)
	lui	a1,%hi(.LC1)
	lui	a0,%hi(.LC24)
	li	a4,419
	addi	a3,a3,%lo(.LC0)
	addi	a1,a1,%lo(.LC1)
	addi	a0,a0,%lo(.LC24)
	j	.L218
.L194:
	.loc 1 419 296 discriminator 8
	call	xTaskGetTickCount
.LVL240:
	j	.L215
.LVL241:
.L193:
	.loc 1 424 8
	andi	a4,s3,3
	mv	s4,a1
	.loc 1 423 5 is_stmt 1
.LVL242:
	.loc 1 424 5
	.loc 1 427 70 is_stmt 0
	addi	a5,s3,12
	.loc 1 427 43
	lw	a1,0(a0)
.LVL243:
	.loc 1 424 8
	bne	a4,zero,.L196
	.loc 1 425 9 is_stmt 1
.LVL244:
	.loc 1 426 9
	.loc 1 426 12 is_stmt 0
	andi	s1,a2,3
.LVL245:
	.loc 1 427 70
	add	a1,a1,a5
	.loc 1 427 13
	mv	a0,s4
	.loc 1 426 12
	beq	s1,zero,.L216
.LVL246:
	.loc 1 429 13 is_stmt 1
	.loc 1 430 13
	.loc 1 430 16 is_stmt 0
	li	a5,3
	ble	a2,a5,.L199
	.loc 1 431 17 is_stmt 1
	sub	s3,a2,s1
.LVL247:
	mv	a2,s3
.LVL248:
	call	mem_fourbytes_copy.isra.0
.LVL249:
	.loc 1 432 17
	.loc 1 432 104 is_stmt 0
	lw	a1,4(s0)
	addi	a5,s2,12
	.loc 1 432 17
	li	a2,4
	.loc 1 432 104
	add	a5,a5,a1
	lw	a1,0(s0)
	sub	a5,a5,s1
	.loc 1 432 17
	addi	a0,sp,12
	add	a1,a1,a5
	call	mem_fourbytes_copy.isra.0
.LVL250:
	.loc 1 433 17 is_stmt 1
	mv	a2,s1
	addi	a1,sp,12
	add	a0,s4,s3
.LVL251:
.L217:
	.loc 1 456 21 is_stmt 0
	call	memcpy
.LVL252:
	j	.L198
.LVL253:
.L199:
	.loc 1 435 17 is_stmt 1
	li	a2,4
.LVL254:
	addi	a0,sp,12
.LVL255:
	call	mem_fourbytes_copy.isra.0
.LVL256:
	.loc 1 436 17
	mv	a2,s2
	addi	a1,sp,12
	mv	a0,s4
	j	.L217
.LVL257:
.L196:
	.loc 1 423 16 is_stmt 0
	li	s1,4
	rem	s3,s3,s1
.LVL258:
	.loc 1 440 9 is_stmt 1
	li	a2,4
.LVL259:
	addi	a0,sp,8
	.loc 1 440 90 is_stmt 0
	sub	a5,a5,s3
	.loc 1 440 9
	add	a1,a1,a5
	call	mem_fourbytes_copy.isra.0
.LVL260:
	.loc 1 441 9 is_stmt 1
	.loc 1 441 46 is_stmt 0
	sub	s1,s1,s3
	.loc 1 441 85
	mv	a2,s1
	ble	s1,s2,.L200
	mv	a2,s2
.L200:
	.loc 1 441 9
	addi	a5,sp,8
	add	a1,a5,s3
	mv	a0,s4
	.loc 1 442 16
	sub	s1,s2,s1
	.loc 1 441 9
	call	memcpy
.LVL261:
	.loc 1 442 9 is_stmt 1
	.loc 1 443 9
	.loc 1 443 12 is_stmt 0
	ble	s1,zero,.L198
	.loc 1 444 13 is_stmt 1
.LVL262:
	.loc 1 445 13
	.loc 1 446 124 is_stmt 0
	lw	a1,4(s0)
	.loc 1 446 44
	li	s5,4
	sub	s5,s5,s3
	.loc 1 446 124
	addi	a1,a1,16
	sub	a5,a1,s3
	lw	a1,0(s0)
	.loc 1 445 16
	andi	s6,s1,3
.LVL263:
	.loc 1 446 17
	add	s7,s4,s5
	.loc 1 446 124
	add	a1,a1,a5
	.loc 1 445 16
	bne	s6,zero,.L201
	.loc 1 446 17 is_stmt 1
	mv	a2,s1
	mv	a0,s7
.LVL264:
.L216:
	call	mem_fourbytes_copy.isra.0
.LVL265:
.L198:
	.loc 1 462 5
	.loc 1 462 43 is_stmt 0
	lw	a2,4(s0)
	.loc 1 464 12
	li	a0,0
	.loc 1 462 43
	add	s2,a2,s2
.LVL266:
	.loc 1 462 23
	sw	s2,4(s0)
	.loc 1 464 5 is_stmt 1
	.loc 1 464 12 is_stmt 0
	j	.L184
.LVL267:
.L201:
	.loc 1 448 17 is_stmt 1
	.loc 1 449 17
	.loc 1 449 20 is_stmt 0
	li	a5,3
	ble	s1,a5,.L202
	.loc 1 450 21 is_stmt 1
	sub	a2,s1,s6
	mv	a0,s7
	call	mem_fourbytes_copy.isra.0
.LVL268:
	.loc 1 451 21
	.loc 1 451 128 is_stmt 0
	lw	a1,4(s0)
	.loc 1 451 21
	li	a2,4
	addi	a0,sp,12
	.loc 1 451 128
	addi	a1,a1,16
	sub	s3,a1,s3
	lw	a1,0(s0)
	add	s3,s3,s1
	sub	s3,s3,s6
	.loc 1 451 21
	add	a1,a1,s3
	call	mem_fourbytes_copy.isra.0
.LVL269:
	.loc 1 452 21 is_stmt 1
	.loc 1 452 58 is_stmt 0
	add	a0,s5,s1
	sub	a0,a0,s6
	.loc 1 452 21
	mv	a2,s6
	addi	a1,sp,12
	add	a0,s4,a0
	j	.L217
.L202:
	.loc 1 455 21 is_stmt 1
	li	a2,4
	addi	a0,sp,12
	call	mem_fourbytes_copy.isra.0
.LVL270:
	.loc 1 456 21
	mv	a2,s6
	addi	a1,sp,12
	mv	a0,s7
	j	.L217
	.cfi_endproc
.LFE16:
	.size	hal_hbnram_copy_from_stream, .-hal_hbnram_copy_from_stream
	.section	.rodata.hal_hbnram_copy_to_stream.str1.4,"aMS",@progbits,1
	.align	2
.LC25:
	.string	"%s (%d)[%s:%4d] invalid  pointer. \r\n\r\n"
	.align	2
.LC26:
	.string	"%s (%d)[%s:%4d] len <= 0 , return \r\n\r\n"
	.section	.text.hal_hbnram_copy_to_stream,"ax",@progbits
	.align	1
	.globl	hal_hbnram_copy_to_stream
	.type	hal_hbnram_copy_to_stream, @function
hal_hbnram_copy_to_stream:
.LFB17:
	.loc 1 468 1
	.cfi_startproc
.LVL271:
	.loc 1 469 5
	.loc 1 470 5
	.loc 1 471 5
	.loc 1 472 5
	.loc 1 473 5
	.loc 1 468 1 is_stmt 0
	addi	sp,sp,-80
	.cfi_def_cfa_offset 80
	sw	s0,72(sp)
	sw	s2,64(sp)
	sw	s3,60(sp)
	sw	ra,76(sp)
	sw	s1,68(sp)
	sw	s4,56(sp)
	sw	s5,52(sp)
	sw	s6,48(sp)
	.cfi_offset 8, -8
	.cfi_offset 18, -16
	.cfi_offset 19, -20
	.cfi_offset 1, -4
	.cfi_offset 9, -12
	.cfi_offset 20, -24
	.cfi_offset 21, -28
	.cfi_offset 22, -32
	.loc 1 473 13
	sw	zero,8(sp)
	.loc 1 474 5 is_stmt 1
	.loc 1 474 13 is_stmt 0
	sw	zero,12(sp)
	.loc 1 475 5 is_stmt 1
	.loc 1 477 5
	.loc 1 468 1 is_stmt 0
	mv	s0,a0
	mv	s3,a1
	mv	s2,a2
	.loc 1 477 8
	beq	a1,zero,.L220
	.loc 1 477 20 discriminator 1
	bne	a0,zero,.L221
.L220:
	.loc 1 478 9 is_stmt 1 discriminator 1
	.loc 1 478 47 discriminator 1
	.loc 1 478 52 discriminator 1
	.loc 1 478 74 is_stmt 0 discriminator 1
	lui	a5,%hi(_fsymc_level_hosal)
	.loc 1 478 55 discriminator 1
	lw	a4,%lo(_fsymc_level_hosal)(a5)
	li	a5,4
	bgtu	a4,a5,.L221
	.loc 1 478 118 discriminator 3
	lui	a4,%hi(_fsymf_level_hosalhal_hbnram)
	.loc 1 478 97 discriminator 3
	lw	a4,%lo(_fsymf_level_hosalhal_hbnram)(a4)
	bgtu	a4,a5,.L221
	.loc 1 478 154 is_stmt 1 discriminator 5
	.loc 1 478 241 is_stmt 0 discriminator 5
	call	xPortIsInsideInterrupt
.LVL272:
	.loc 1 478 154 discriminator 5
	beq	a0,zero,.L222
	.loc 1 478 270 discriminator 7
	call	xTaskGetTickCountFromISR
.LVL273:
.L247:
	.loc 1 478 301 discriminator 8
	mv	a2,a0
	.loc 1 478 154 discriminator 8
	lui	a3,%hi(.LC0)
	lui	a1,%hi(.LC1)
	lui	a0,%hi(.LC25)
	li	a4,478
	addi	a3,a3,%lo(.LC0)
	addi	a1,a1,%lo(.LC1)
	addi	a0,a0,%lo(.LC25)
	call	bl_printk
.LVL274:
.L221:
	.loc 1 478 355 is_stmt 1 discriminator 11
	.loc 1 478 366 discriminator 11
	.loc 1 481 5 discriminator 11
	.loc 1 481 13 is_stmt 0 discriminator 11
	lw	a5,8(s0)
	.loc 1 481 8 discriminator 11
	lw	a4,12(s0)
	.loc 1 481 13 discriminator 11
	add	a5,s2,a5
	.loc 1 481 8 discriminator 11
	ble	a5,a4,.L224
	.loc 1 482 9 is_stmt 1 discriminator 1
	.loc 1 482 47 discriminator 1
	.loc 1 482 52 discriminator 1
	.loc 1 482 74 is_stmt 0 discriminator 1
	lui	a5,%hi(_fsymc_level_hosal)
	.loc 1 482 55 discriminator 1
	lw	a4,%lo(_fsymc_level_hosal)(a5)
	li	a5,4
	bgtu	a4,a5,.L225
	.loc 1 482 118 discriminator 3
	lui	a4,%hi(_fsymf_level_hosalhal_hbnram)
	.loc 1 482 97 discriminator 3
	lw	a4,%lo(_fsymf_level_hosalhal_hbnram)(a4)
	bgtu	a4,a5,.L225
	.loc 1 482 154 is_stmt 1 discriminator 5
	.loc 1 482 236 is_stmt 0 discriminator 5
	call	xPortIsInsideInterrupt
.LVL275:
	.loc 1 482 154 discriminator 5
	beq	a0,zero,.L227
	.loc 1 482 265 discriminator 7
	call	xTaskGetTickCountFromISR
.LVL276:
.L248:
	.loc 1 482 296 discriminator 8
	mv	a2,a0
	.loc 1 482 154 discriminator 8
	lui	a3,%hi(.LC0)
	lui	a1,%hi(.LC1)
	lui	a0,%hi(.LC24)
	li	a4,482
	addi	a3,a3,%lo(.LC0)
	addi	a1,a1,%lo(.LC1)
	addi	a0,a0,%lo(.LC24)
	call	bl_printk
.LVL277:
.L224:
	.loc 1 482 350 is_stmt 1 discriminator 11
	.loc 1 482 361 discriminator 11
	.loc 1 485 5 discriminator 11
	.loc 1 485 8 is_stmt 0 discriminator 11
	bgt	s2,zero,.L229
	.loc 1 486 9 is_stmt 1 discriminator 1
	.loc 1 486 47 discriminator 1
	.loc 1 486 52 discriminator 1
	.loc 1 486 74 is_stmt 0 discriminator 1
	lui	a5,%hi(_fsymc_level_hosal)
	.loc 1 486 55 discriminator 1
	lw	a4,%lo(_fsymc_level_hosal)(a5)
	li	a5,4
	bleu	a4,a5,.L230
.L254:
	.loc 1 487 16 discriminator 10
	li	a0,-1
.LVL278:
.L219:
	.loc 1 541 1
	lw	ra,76(sp)
	.cfi_remember_state
	.cfi_restore 1
	lw	s0,72(sp)
	.cfi_restore 8
.LVL279:
	lw	s1,68(sp)
	.cfi_restore 9
	lw	s2,64(sp)
	.cfi_restore 18
	lw	s3,60(sp)
	.cfi_restore 19
.LVL280:
	lw	s4,56(sp)
	.cfi_restore 20
	lw	s5,52(sp)
	.cfi_restore 21
	lw	s6,48(sp)
	.cfi_restore 22
	addi	sp,sp,80
	.cfi_def_cfa_offset 0
	jr	ra
.LVL281:
.L222:
	.cfi_restore_state
	.loc 1 478 301 discriminator 8
	call	xTaskGetTickCount
.LVL282:
	j	.L247
.L227:
	.loc 1 482 296 discriminator 8
	call	xTaskGetTickCount
.LVL283:
	j	.L248
.L230:
	.loc 1 486 118
	lui	a4,%hi(_fsymf_level_hosalhal_hbnram)
	.loc 1 486 97
	lw	a4,%lo(_fsymf_level_hosalhal_hbnram)(a4)
	bgtu	a4,a5,.L254
	.loc 1 486 154 is_stmt 1 discriminator 5
	.loc 1 486 241 is_stmt 0 discriminator 5
	call	xPortIsInsideInterrupt
.LVL284:
	.loc 1 486 154 discriminator 5
	beq	a0,zero,.L233
	.loc 1 486 270 discriminator 7
	call	xTaskGetTickCountFromISR
.LVL285:
.L250:
	.loc 1 486 301 discriminator 8
	mv	a2,a0
	.loc 1 486 154 discriminator 8
	lui	a3,%hi(.LC0)
	lui	a1,%hi(.LC1)
	lui	a0,%hi(.LC26)
	li	a4,486
	addi	a3,a3,%lo(.LC0)
	addi	a1,a1,%lo(.LC1)
	addi	a0,a0,%lo(.LC26)
	call	bl_printk
.LVL286:
	j	.L254
.L233:
	.loc 1 486 301 discriminator 8
	call	xTaskGetTickCount
.LVL287:
	j	.L250
.LVL288:
.L239:
	.loc 1 506 17 is_stmt 1
	.loc 1 507 17
	.loc 1 508 17
	.loc 1 508 20 is_stmt 0
	addi	a5,s1,3
	li	a4,6
	bgtu	a5,a4,.L240
	.loc 1 509 21 is_stmt 1
	mv	a2,s1
	addi	a0,sp,12
	call	memcpy
.LVL289:
	.loc 1 510 21
	.loc 1 510 98 is_stmt 0
	lw	a0,8(s0)
	.loc 1 510 21
	lw	a5,0(s0)
	.loc 1 510 98
	addi	a0,a0,16
	sub	a0,a0,s4
.LVL290:
.L255:
	.loc 1 527 17
	li	a2,4
	addi	a1,sp,12
	j	.L256
.LVL291:
.L240:
	.loc 1 512 21 is_stmt 1
	.loc 1 512 107 is_stmt 0
	lw	a5,8(s0)
	.loc 1 512 21
	lw	a0,0(s0)
	sub	a2,s1,s6
	.loc 1 512 107
	addi	a5,a5,16
	sub	a5,a5,s4
	.loc 1 512 21
	add	a0,a0,a5
	call	mem_fourbytes_copy.isra.0
.LVL292:
	.loc 1 513 21 is_stmt 1
	.loc 1 513 67 is_stmt 0
	add	a1,s1,s5
	sub	a1,a1,s6
	.loc 1 513 21
	mv	a2,s6
	add	a1,s3,a1
	addi	a0,sp,12
	call	memcpy
.LVL293:
	.loc 1 514 21 is_stmt 1
	.loc 1 514 120 is_stmt 0
	lw	a0,8(s0)
	addi	a0,a0,16
	sub	a0,a0,s4
	add	s1,a0,s1
.LVL294:
	sub	s1,s1,s6
.LVL295:
.L252:
	.loc 1 531 17
	lw	a0,0(s0)
	li	a2,4
	addi	a1,sp,12
	add	a0,a0,s1
	j	.L253
.L235:
	.loc 1 519 9 is_stmt 1
	.loc 1 519 21 is_stmt 0
	andi	s4,s2,3
	.loc 1 519 12
	bne	s4,zero,.L241
	.loc 1 520 13 is_stmt 1
	lw	a5,0(s0)
	.loc 1 520 65 is_stmt 0
	addi	a0,a0,12
	.loc 1 520 13
	mv	a2,s2
	mv	a1,s3
	j	.L256
.L241:
	.loc 1 522 13 is_stmt 1
.LVL296:
	.loc 1 523 13
	.loc 1 524 13
	.loc 1 525 13
	.loc 1 525 16 is_stmt 0
	addi	a5,s2,3
	li	a4,6
	bgtu	a5,a4,.L242
	.loc 1 526 17 is_stmt 1
	mv	a2,s4
	mv	a1,s3
	addi	a0,sp,12
	call	memcpy
.LVL297:
	.loc 1 527 17
	.loc 1 527 69 is_stmt 0
	lw	a5,8(s0)
	.loc 1 527 17
	lw	a0,0(s0)
	.loc 1 527 69
	addi	a5,a5,12
	j	.L255
.L242:
	.loc 1 529 17
	lw	a5,0(s0)
	.loc 1 524 20
	sub	s1,s2,s4
	.loc 1 529 17 is_stmt 1
	.loc 1 529 69 is_stmt 0
	addi	a0,a0,12
	.loc 1 529 17
	mv	a2,s1
	add	a0,a5,a0
	mv	a1,s3
	call	mem_fourbytes_copy.isra.0
.LVL298:
	.loc 1 530 17 is_stmt 1
	add	a1,s3,s1
	mv	a2,s4
	addi	a0,sp,12
	call	memcpy
.LVL299:
	.loc 1 531 17
	.loc 1 531 90 is_stmt 0
	lw	a0,8(s0)
	add	s1,s1,a0
	addi	s1,s1,12
	j	.L252
.LVL300:
.L225:
	.loc 1 482 350 is_stmt 1
	.loc 1 482 361
	.loc 1 485 5
	.loc 1 485 8 is_stmt 0
	ble	s2,zero,.L254
.L229:
	.loc 1 491 5 is_stmt 1
	.loc 1 491 15 is_stmt 0
	lw	a0,8(s0)
	.loc 1 491 32
	andi	a5,a0,3
	.loc 1 491 8
	beq	a5,zero,.L235
	.loc 1 492 9 is_stmt 1
	.loc 1 492 20 is_stmt 0
	li	s1,4
	rem	s4,a0,s1
	.loc 1 493 9 is_stmt 1
	.loc 1 493 91 is_stmt 0
	lw	a1,0(s0)
	addi	a0,a0,12
	.loc 1 493 9
	li	a2,4
	.loc 1 493 91
	sub	a0,a0,s4
	.loc 1 493 9
	add	a1,a1,a0
	addi	a0,sp,8
	call	mem_fourbytes_copy.isra.0
.LVL301:
	.loc 1 494 9 is_stmt 1
	.loc 1 494 22 is_stmt 0
	sub	s1,s1,s4
	.loc 1 495 13
	addi	a5,sp,8
	add	a0,a5,s4
	mv	a2,s1
	.loc 1 494 12
	ble	s1,s2,.L251
	.loc 1 497 13 is_stmt 1
	mv	a2,s2
.L251:
	mv	a1,s3
	call	memcpy
.LVL302:
	.loc 1 500 9
	.loc 1 500 82 is_stmt 0
	lw	a5,8(s0)
	.loc 1 500 9
	lw	a0,0(s0)
	li	a2,4
	.loc 1 500 82
	addi	a5,a5,12
	sub	a5,a5,s4
	.loc 1 500 9
	addi	a1,sp,8
	add	a0,a0,a5
	.loc 1 501 16
	sub	s1,s2,s1
	.loc 1 500 9
	call	mem_fourbytes_copy.isra.0
.LVL303:
	.loc 1 501 9 is_stmt 1
	.loc 1 502 9
	.loc 1 502 12 is_stmt 0
	blt	s1,zero,.L238
	.loc 1 503 13 is_stmt 1
	.loc 1 504 116 is_stmt 0
	li	s5,4
	sub	s5,s5,s4
	.loc 1 503 29
	andi	s6,s1,3
	.loc 1 504 116
	add	a1,s3,s5
	.loc 1 503 16
	bne	s6,zero,.L239
	.loc 1 504 17 is_stmt 1
	.loc 1 504 103 is_stmt 0
	lw	a0,8(s0)
	.loc 1 504 17
	lw	a5,0(s0)
	mv	a2,s1
	.loc 1 504 103
	addi	a0,a0,16
	sub	a0,a0,s4
.LVL304:
.L256:
	.loc 1 527 17
	add	a0,a0,a5
.L253:
	.loc 1 531 17
	call	mem_fourbytes_copy.isra.0
.LVL305:
.L238:
	.loc 1 536 5 is_stmt 1
	.loc 1 536 45 is_stmt 0
	lw	a2,8(s0)
	.loc 1 537 5
	addi	a0,sp,16
	.loc 1 536 45
	add	s2,a2,s2
.LVL306:
	.loc 1 536 24
	sw	s2,8(s0)
	.loc 1 537 5 is_stmt 1
	call	sha_check_withctx.constprop.0.isra.0
.LVL307:
	.loc 1 538 5
	li	a0,1073807360
	addi	a0,a0,4
	li	a2,16
	addi	a1,sp,16
	call	mem_fourbytes_copy.isra.0
.LVL308:
	.loc 1 540 5
	.loc 1 540 12 is_stmt 0
	li	a0,0
	j	.L219
	.cfi_endproc
.LFE17:
	.size	hal_hbnram_copy_to_stream, .-hal_hbnram_copy_to_stream
	.globl	_fsymf_info_hosalhal_hbnram
	.section	.rodata.str1.4,"aMS",@progbits,1
	.align	2
.LC27:
	.string	"hosal.hal_hbnram"
	.comm	_fsymf_level_hosalhal_hbnram,4,4
	.align	2
.LC28:
	.string	"hosal"
	.weak	_fsymc_level_hosal
	.section	.sbss._fsymc_level_hosal,"aw",@nobits
	.align	2
	.type	_fsymc_level_hosal, @object
	.size	_fsymc_level_hosal, 4
_fsymc_level_hosal:
	.zero	4
	.section	.srodata.BLOG_HARD_DECLARE_DISABLE,"a"
	.align	2
	.type	BLOG_HARD_DECLARE_DISABLE, @object
	.size	BLOG_HARD_DECLARE_DISABLE, 4
BLOG_HARD_DECLARE_DISABLE:
	.zero	4
	.section	.static_blogcomponent_code.hosal,"a"
	.align	2
	.type	_fsymc_info_hosal, @object
	.size	_fsymc_info_hosal, 8
_fsymc_info_hosal:
	.word	_fsymc_level_hosal
	.word	.LC28
	.section	.static_blogfile_code.hosalhal_hbnram,"a"
	.align	2
	.type	_fsymf_info_hosalhal_hbnram, @object
	.size	_fsymf_info_hosalhal_hbnram, 8
_fsymf_info_hosalhal_hbnram:
	.word	_fsymf_level_hosalhal_hbnram
	.word	.LC27
	.text
.Letext0:
	.file 2 "/mnt/d/GitHub/bl_iot_sdk_for_aithinker/toolchain/riscv/Linux/lib/gcc/riscv64-unknown-elf/10.2.0/include/stdint-gcc.h"
	.file 3 "/mnt/d/GitHub/bl_iot_sdk_for_aithinker/components/platform/hosal/bl602_hal/bl_sec.h"
	.file 4 "/mnt/d/GitHub/bl_iot_sdk_for_aithinker/components/platform/hosal/bl602_hal/hal_hbnram.h"
	.file 5 "/mnt/d/GitHub/bl_iot_sdk_for_aithinker/components/stage/blog/blog_type.h"
	.file 6 "/mnt/d/GitHub/bl_iot_sdk_for_aithinker/components/stage/blog/blog.h"
	.file 7 "/mnt/d/GitHub/bl_iot_sdk_for_aithinker/components/platform/soc/bl602/freertos_riscv_ram/portable/GCC/RISC-V/portmacro.h"
	.file 8 "/mnt/d/GitHub/bl_iot_sdk_for_aithinker/components/platform/soc/bl602/freertos_riscv_ram/config/task.h"
	.file 9 "/mnt/d/GitHub/bl_iot_sdk_for_aithinker/components/utils/include/utils_log.h"
	.file 10 "/mnt/d/GitHub/bl_iot_sdk_for_aithinker/toolchain/riscv/Linux/riscv64-unknown-elf/include/string.h"
	.file 11 "/mnt/d/GitHub/bl_iot_sdk_for_aithinker/components/platform/soc/bl602/freertos_riscv_ram/config/portable.h"