	.file	"hal_boot2.c"
	.option nopic
	.attribute arch, "rv32i2p0_m2p0_f2p0_c2p0"
	.attribute unaligned_access, 0
	.attribute stack_align, 16
	.text
.Ltext0:
	.cfi_sections	.debug_frame
	.section	.rodata._dump_partition.str1.4,"aMS",@progbits,1
	.align	2
.LC0:
	.string	"hal_boot2.c"
	.align	2
.LC1:
	.string	"\033[32mINFO\033[0m"
	.align	2
.LC2:
	.string	"%s (%d)[%s:%4d] ======= PtTable_Config @%p=======\r\n\r\n"
	.align	2
.LC3:
	.string	"%s (%d)[%s:%4d] magicCode 0x%08X;\r\n"
	.align	2
.LC4:
	.string	" version 0x%04X;\r\n"
	.align	2
.LC5:
	.string	" entryCnt %u;\r\n"
	.align	2
.LC6:
	.string	" age %lu;\r\n"
	.align	2
.LC7:
	.string	" crc32 0x%08X\r\n\r\n"
	.align	2
.LC8:
	.string	"%s (%d)[%s:%4d] idx  type device activeIndex     name   Address[0]  Address[1]  Length[0]   Length[1]   age\r\n\r\n"
	.align	2
.LC9:
	.string	"%s (%d)[%s:%4d] [%02d] \r\n"
	.align	2
.LC10:
	.string	" %02u\r\n"
	.align	2
.LC11:
	.string	"     %u\r\n"
	.align	2
.LC12:
	.string	"         %u\r\n"
	.align	2
.LC13:
	.string	"      %8s\r\n"
	.align	2
.LC14:
	.string	"  %p\r\n"
	.align	2
.LC15:
	.string	"  %lu\r\n\r\n"
	.section	.text._dump_partition,"ax",@progbits
	.align	1
	.type	_dump_partition, @function
_dump_partition:
.LFB10:
	.file 1 "/mnt/d/GitHub/bl_iot_sdk_for_aithinker/components/platform/hosal/bl602_hal/hal_boot2.c"
	.loc 1 46 1
	.cfi_startproc
	.loc 1 47 5
	.loc 1 48 5
.LVL0:
	.loc 1 50 5
	.loc 1 51 5
	.loc 1 53 5
	.loc 1 53 43
	.loc 1 53 48
	.loc 1 46 1 is_stmt 0
	addi	sp,sp,-64
	.cfi_def_cfa_offset 64
	sw	s0,56(sp)
	.cfi_offset 8, -8
	.loc 1 53 69
	lui	s0,%hi(_fsymc_level_hosal)
	.loc 1 53 51
	lw	a4,%lo(_fsymc_level_hosal)(s0)
	.loc 1 46 1
	sw	s2,48(sp)
	sw	ra,60(sp)
	.cfi_offset 18, -16
	.cfi_offset 1, -4
	lui	s2,%hi(.LANCHOR0)
	sw	s1,52(sp)
	sw	s3,44(sp)
	sw	s4,40(sp)
	sw	s5,36(sp)
	sw	s6,32(sp)
	sw	s7,28(sp)
	sw	s8,24(sp)
	sw	s9,20(sp)
	sw	s10,16(sp)
	sw	s11,12(sp)
	.cfi_offset 9, -12
	.cfi_offset 19, -20
	.cfi_offset 20, -24
	.cfi_offset 21, -28
	.cfi_offset 22, -32
	.cfi_offset 23, -36
	.cfi_offset 24, -40
	.cfi_offset 25, -44
	.cfi_offset 26, -48
	.cfi_offset 27, -52
	.loc 1 53 51
	li	a5,2
	addi	s2,s2,%lo(.LANCHOR0)
	bgtu	a4,a5,.L73
	.loc 1 53 112 discriminator 3
	lui	s3,%hi(_fsymf_level_hosalhal_boot2)
	.loc 1 53 92 discriminator 3
	lw	a4,%lo(_fsymf_level_hosalhal_boot2)(s3)
	bgtu	a4,a5,.L73
	.loc 1 53 147 is_stmt 1 discriminator 5
	.loc 1 53 248 is_stmt 0 discriminator 5
	call	xPortIsInsideInterrupt
.LVL1:
	.loc 1 53 147 discriminator 5
	beq	a0,zero,.L6
	.loc 1 53 277 discriminator 7
	call	xTaskGetTickCountFromISR
.LVL2:
.L75:
	.loc 1 53 308 discriminator 8
	mv	a2,a0
	.loc 1 53 147 discriminator 8
	lui	s5,%hi(.LC0)
	lui	s4,%hi(.LC1)
	lui	a0,%hi(.LC2)
	addi	a5,s2,4
	li	a4,53
	addi	a3,s5,%lo(.LC0)
	addi	a1,s4,%lo(.LC1)
	addi	a0,a0,%lo(.LC2)
	call	bl_printk
.LVL3:
	.loc 1 53 366 is_stmt 1 discriminator 8
	.loc 1 53 377 discriminator 8
	.loc 1 54 5 discriminator 8
	.loc 1 54 43 discriminator 8
	.loc 1 54 48 discriminator 8
	.loc 1 54 51 is_stmt 0 discriminator 8
	lw	a4,%lo(_fsymc_level_hosal)(s0)
	li	a5,2
	bgtu	a4,a5,.L73
	.loc 1 54 92
	lw	a4,%lo(_fsymf_level_hosalhal_boot2)(s3)
	bleu	a4,a5,.L5
.L73:
	mv	s1,s2
	.loc 1 46 1 discriminator 2
	li	s4,0
	.loc 1 62 116 discriminator 2
	lui	s3,%hi(_fsymf_level_hosalhal_boot2)
	.loc 1 62 151 discriminator 2
	lui	s7,%hi(.LC9)
	.loc 1 63 151 discriminator 2
	lui	s8,%hi(.LC10)
	.loc 1 64 151 discriminator 2
	lui	s9,%hi(.LC11)
	.loc 1 65 151 discriminator 2
	lui	s10,%hi(.LC12)
	.loc 1 66 151 discriminator 2
	lui	s11,%hi(.LC13)
.L32:
.LVL4:
	.loc 1 61 17 is_stmt 1 discriminator 2
	.loc 1 61 34 is_stmt 0 discriminator 2
	lhu	a5,10(s2)
	.loc 1 61 5 discriminator 2
	bgt	a5,s4,.L71
	.loc 1 73 1
	lw	ra,60(sp)
	.cfi_remember_state
	.cfi_restore 1
	lw	s0,56(sp)
	.cfi_restore 8
	lw	s1,52(sp)
	.cfi_restore 9
	lw	s2,48(sp)
	.cfi_restore 18
	lw	s3,44(sp)
	.cfi_restore 19
	lw	s4,40(sp)
	.cfi_restore 20
.LVL5:
	lw	s5,36(sp)
	.cfi_restore 21
	lw	s6,32(sp)
	.cfi_restore 22
	lw	s7,28(sp)
	.cfi_restore 23
	lw	s8,24(sp)
	.cfi_restore 24
	lw	s9,20(sp)
	.cfi_restore 25
	lw	s10,16(sp)
	.cfi_restore 26
	lw	s11,12(sp)
	.cfi_restore 27
	addi	sp,sp,64
	.cfi_def_cfa_offset 0
	jr	ra
.L6:
	.cfi_restore_state
	.loc 1 53 308 discriminator 8
	call	xTaskGetTickCount
.LVL6:
	j	.L75
.L5:
	.loc 1 54 147 is_stmt 1 discriminator 5
	.loc 1 54 228 is_stmt 0 discriminator 5
	call	xPortIsInsideInterrupt
.LVL7:
	.loc 1 54 147 discriminator 5
	beq	a0,zero,.L11
	.loc 1 54 257 discriminator 7
	call	xTaskGetTickCountFromISR
.LVL8:
.L76:
	.loc 1 54 147 discriminator 8
	lw	a5,4(s2)
	.loc 1 54 288 discriminator 8
	mv	a2,a0
	.loc 1 54 147 discriminator 8
	lui	a0,%hi(.LC3)
	li	a4,54
	addi	a3,s5,%lo(.LC0)
	addi	a1,s4,%lo(.LC1)
	addi	a0,a0,%lo(.LC3)
	call	bl_printk
.LVL9:
	.loc 1 54 381 is_stmt 1 discriminator 8
	.loc 1 54 392 discriminator 8
	.loc 1 55 5 discriminator 8
	.loc 1 55 43 discriminator 8
	.loc 1 55 48 discriminator 8
	.loc 1 55 51 is_stmt 0 discriminator 8
	lw	a5,%lo(_fsymc_level_hosal)(s0)
	li	s1,2
	bgtu	a5,s1,.L73
	.loc 1 55 92
	lw	a5,%lo(_fsymf_level_hosalhal_boot2)(s3)
	bgtu	a5,s1,.L73
	.loc 1 55 147 is_stmt 1 discriminator 5
	lhu	a1,8(s2)
	lui	a0,%hi(.LC4)
	addi	a0,a0,%lo(.LC4)
	call	bl_printk
.LVL10:
	.loc 1 55 218 discriminator 5
	.loc 1 55 229 discriminator 5
	.loc 1 56 5 discriminator 5
	.loc 1 56 43 discriminator 5
	.loc 1 56 48 discriminator 5
	.loc 1 56 51 is_stmt 0 discriminator 5
	lw	a5,%lo(_fsymc_level_hosal)(s0)
	bgtu	a5,s1,.L73
	.loc 1 56 92
	lw	a5,%lo(_fsymf_level_hosalhal_boot2)(s3)
	bgtu	a5,s1,.L73
	.loc 1 56 147 is_stmt 1 discriminator 5
	lhu	a1,10(s2)
	lui	a0,%hi(.LC5)
	addi	a0,a0,%lo(.LC5)
	call	bl_printk
.LVL11:
	.loc 1 56 216 discriminator 5
	.loc 1 56 227 discriminator 5
	.loc 1 57 5 discriminator 5
	.loc 1 57 43 discriminator 5
	.loc 1 57 48 discriminator 5
	.loc 1 57 51 is_stmt 0 discriminator 5
	lw	a5,%lo(_fsymc_level_hosal)(s0)
	bgtu	a5,s1,.L73
	.loc 1 57 92
	lw	a5,%lo(_fsymf_level_hosalhal_boot2)(s3)
	bgtu	a5,s1,.L73
	.loc 1 57 147 is_stmt 1 discriminator 5
	lw	a1,12(s2)
	lui	a0,%hi(.LC6)
	addi	a0,a0,%lo(.LC6)
	call	bl_printk
.LVL12:
	.loc 1 57 207 discriminator 5
	.loc 1 57 218 discriminator 5
	.loc 1 58 5 discriminator 5
	.loc 1 58 43 discriminator 5
	.loc 1 58 48 discriminator 5
	.loc 1 58 51 is_stmt 0 discriminator 5
	lw	a5,%lo(_fsymc_level_hosal)(s0)
	bgtu	a5,s1,.L73
	.loc 1 58 92
	lw	a5,%lo(_fsymf_level_hosalhal_boot2)(s3)
	bgtu	a5,s1,.L73
	.loc 1 58 147 is_stmt 1 discriminator 5
	lw	a1,16(s2)
	lui	a0,%hi(.LC7)
	addi	a0,a0,%lo(.LC7)
	call	bl_printk
.LVL13:
	.loc 1 58 231 discriminator 5
	.loc 1 58 242 discriminator 5
	.loc 1 60 5 discriminator 5
	.loc 1 60 43 discriminator 5
	.loc 1 60 48 discriminator 5
	.loc 1 60 51 is_stmt 0 discriminator 5
	lw	a5,%lo(_fsymc_level_hosal)(s0)
	bgtu	a5,s1,.L73
	.loc 1 60 92
	lw	a5,%lo(_fsymf_level_hosalhal_boot2)(s3)
	bgtu	a5,s1,.L73
	.loc 1 60 147 is_stmt 1 discriminator 5
	.loc 1 60 306 is_stmt 0 discriminator 5
	call	xPortIsInsideInterrupt
.LVL14:
	.loc 1 60 147 discriminator 5
	beq	a0,zero,.L30
	.loc 1 60 335 discriminator 7
	call	xTaskGetTickCountFromISR
.LVL15:
.L77:
	.loc 1 60 366 discriminator 8
	mv	a2,a0
	.loc 1 60 147 discriminator 8
	lui	a0,%hi(.LC8)
	li	a4,60
	addi	a3,s5,%lo(.LC0)
	addi	a1,s4,%lo(.LC1)
	addi	a0,a0,%lo(.LC8)
	call	bl_printk
.LVL16:
	j	.L73
.L11:
	.loc 1 54 288 discriminator 8
	call	xTaskGetTickCount
.LVL17:
	j	.L76
.L30:
	.loc 1 60 366 discriminator 8
	call	xTaskGetTickCount
.LVL18:
	j	.L77
.LVL19:
.L71:
	.loc 1 62 9 is_stmt 1 discriminator 1
	.loc 1 62 47 discriminator 1
	.loc 1 62 52 discriminator 1
	.loc 1 62 55 is_stmt 0 discriminator 1
	lw	a4,%lo(_fsymc_level_hosal)(s0)
	li	a5,2
	bgtu	a4,a5,.L72
	.loc 1 62 96 discriminator 3
	lw	a4,%lo(_fsymf_level_hosalhal_boot2)(s3)
	bgtu	a4,a5,.L72
	.loc 1 62 151 is_stmt 1 discriminator 5
	.loc 1 62 222 is_stmt 0 discriminator 5
	call	xPortIsInsideInterrupt
.LVL20:
	.loc 1 62 151 discriminator 5
	beq	a0,zero,.L37
	.loc 1 62 251 discriminator 7
	call	xTaskGetTickCountFromISR
.LVL21:
.L78:
	.loc 1 62 151 discriminator 8
	lui	a3,%hi(.LC0)
	lui	a1,%hi(.LC1)
	.loc 1 62 282 discriminator 8
	mv	a2,a0
	.loc 1 62 151 discriminator 8
	mv	a5,s4
	li	a4,62
	addi	a3,a3,%lo(.LC0)
	addi	a1,a1,%lo(.LC1)
	addi	a0,s7,%lo(.LC9)
	call	bl_printk
.LVL22:
	.loc 1 62 337 is_stmt 1 discriminator 8
	.loc 1 62 348 discriminator 8
	.loc 1 63 9 discriminator 8
	.loc 1 63 47 discriminator 8
	.loc 1 63 52 discriminator 8
	.loc 1 63 55 is_stmt 0 discriminator 8
	lw	a5,%lo(_fsymc_level_hosal)(s0)
	li	s5,2
	bgtu	a5,s5,.L72
	.loc 1 63 96
	lw	a5,%lo(_fsymf_level_hosalhal_boot2)(s3)
	bleu	a5,s5,.L36
.L72:
	.loc 1 71 218 is_stmt 1 discriminator 7
	.loc 1 71 229 discriminator 7
	.loc 1 61 45 discriminator 7
	.loc 1 61 46 is_stmt 0 discriminator 7
	addi	s4,s4,1
.LVL23:
	addi	s1,s1,36
	j	.L32
.L37:
	.loc 1 62 282 discriminator 8
	call	xTaskGetTickCount
.LVL24:
	j	.L78
.L36:
	.loc 1 63 151 is_stmt 1 discriminator 5
	lbu	a1,20(s1)
	addi	a0,s8,%lo(.LC10)
	call	bl_printk
.LVL25:
	.loc 1 63 213 discriminator 5
	.loc 1 63 224 discriminator 5
	.loc 1 64 9 discriminator 5
	.loc 1 64 47 discriminator 5
	.loc 1 64 52 discriminator 5
	.loc 1 64 55 is_stmt 0 discriminator 5
	lw	a5,%lo(_fsymc_level_hosal)(s0)
	bgtu	a5,s5,.L72
	.loc 1 64 96
	lw	a5,%lo(_fsymf_level_hosalhal_boot2)(s3)
	bgtu	a5,s5,.L72
	.loc 1 64 151 is_stmt 1 discriminator 5
	lbu	a1,21(s1)
	addi	a0,s9,%lo(.LC11)
	call	bl_printk
.LVL26:
	.loc 1 64 217 discriminator 5
	.loc 1 64 228 discriminator 5
	.loc 1 65 9 discriminator 5
	.loc 1 65 47 discriminator 5
	.loc 1 65 52 discriminator 5
	.loc 1 65 55 is_stmt 0 discriminator 5
	lw	a5,%lo(_fsymc_level_hosal)(s0)
	bgtu	a5,s5,.L72
	.loc 1 65 96
	lw	a5,%lo(_fsymf_level_hosalhal_boot2)(s3)
	bgtu	a5,s5,.L72
	.loc 1 65 151 is_stmt 1 discriminator 5
	lbu	a1,22(s1)
	addi	a0,s10,%lo(.LC12)
	call	bl_printk
.LVL27:
	.loc 1 65 226 discriminator 5
	.loc 1 65 237 discriminator 5
	.loc 1 66 9 discriminator 5
	.loc 1 66 47 discriminator 5
	.loc 1 66 52 discriminator 5
	.loc 1 66 55 is_stmt 0 discriminator 5
	lw	a5,%lo(_fsymc_level_hosal)(s0)
	bgtu	a5,s5,.L72
	.loc 1 66 96
	lw	a5,%lo(_fsymf_level_hosalhal_boot2)(s3)
	bgtu	a5,s5,.L72
	.loc 1 66 151 is_stmt 1 discriminator 5
	addi	a1,s1,23
	addi	a0,s11,%lo(.LC13)
	call	bl_printk
.LVL28:
	.loc 1 66 217 discriminator 5
	.loc 1 66 228 discriminator 5
	.loc 1 67 9 discriminator 5
	.loc 1 67 47 discriminator 5
	.loc 1 67 52 discriminator 5
	.loc 1 67 55 is_stmt 0 discriminator 5
	lw	a5,%lo(_fsymc_level_hosal)(s0)
	bgtu	a5,s5,.L72
	.loc 1 67 96
	lw	a5,%lo(_fsymf_level_hosalhal_boot2)(s3)
	bgtu	a5,s5,.L72
	.loc 1 67 151 is_stmt 1 discriminator 5
	lw	a1,32(s1)
	lui	s5,%hi(.LC14)
	addi	a0,s5,%lo(.LC14)
	call	bl_printk
.LVL29:
	.loc 1 67 227 discriminator 5
	.loc 1 67 238 discriminator 5
	.loc 1 68 9 discriminator 5
	.loc 1 68 47 discriminator 5
	.loc 1 68 52 discriminator 5
	.loc 1 68 55 is_stmt 0 discriminator 5
	lw	a4,%lo(_fsymc_level_hosal)(s0)
	li	s6,2
	bgtu	a4,s6,.L72
	.loc 1 68 96
	lw	a4,%lo(_fsymf_level_hosalhal_boot2)(s3)
	bgtu	a4,s6,.L72
	.loc 1 68 151 is_stmt 1 discriminator 5
	lw	a1,36(s1)
	addi	a0,s5,%lo(.LC14)
	call	bl_printk
.LVL30:
	.loc 1 68 227 discriminator 5
	.loc 1 68 238 discriminator 5
	.loc 1 69 9 discriminator 5
	.loc 1 69 47 discriminator 5
	.loc 1 69 52 discriminator 5
	.loc 1 69 55 is_stmt 0 discriminator 5
	lw	a4,%lo(_fsymc_level_hosal)(s0)
	bgtu	a4,s6,.L72
	.loc 1 69 96
	lw	a4,%lo(_fsymf_level_hosalhal_boot2)(s3)
	bgtu	a4,s6,.L72
	.loc 1 69 151 is_stmt 1 discriminator 5
	lw	a1,40(s1)
	addi	a0,s5,%lo(.LC14)
	call	bl_printk
.LVL31:
	.loc 1 69 226 discriminator 5
	.loc 1 69 237 discriminator 5
	.loc 1 70 9 discriminator 5
	.loc 1 70 47 discriminator 5
	.loc 1 70 52 discriminator 5
	.loc 1 70 55 is_stmt 0 discriminator 5
	lw	a4,%lo(_fsymc_level_hosal)(s0)
	bgtu	a4,s6,.L72
	.loc 1 70 96
	lw	a4,%lo(_fsymf_level_hosalhal_boot2)(s3)
	bgtu	a4,s6,.L72
	.loc 1 70 151 is_stmt 1 discriminator 5
	lw	a1,44(s1)
	addi	a0,s5,%lo(.LC14)
	call	bl_printk
.LVL32:
	.loc 1 70 226 discriminator 5
	.loc 1 70 237 discriminator 5
	.loc 1 71 9 discriminator 5
	.loc 1 71 47 discriminator 5
	.loc 1 71 52 discriminator 5
	.loc 1 71 55 is_stmt 0 discriminator 5
	lw	a4,%lo(_fsymc_level_hosal)(s0)
	bgtu	a4,s6,.L72
	.loc 1 71 96
	lw	a4,%lo(_fsymf_level_hosalhal_boot2)(s3)
	bgtu	a4,s6,.L72
	.loc 1 71 151 is_stmt 1 discriminator 5
	lw	a1,52(s1)
	lui	a0,%hi(.LC15)
	addi	a0,a0,%lo(.LC15)
	call	bl_printk
.LVL33:
	j	.L72
	.cfi_endproc
.LFE10:
	.size	_dump_partition, .-_dump_partition
	.section	.text.hal_boot2_set_ptable_opt,"ax",@progbits
	.align	1
	.globl	hal_boot2_set_ptable_opt
	.type	hal_boot2_set_ptable_opt, @function
hal_boot2_set_ptable_opt:
.LFB8:
	.loc 1 29 1
	.cfi_startproc
.LVL34:
	.loc 1 30 5
	tail	PtTable_Set_Flash_Operation
.LVL35:
	.cfi_endproc
.LFE8:
	.size	hal_boot2_set_ptable_opt, .-hal_boot2_set_ptable_opt
	.section	.text.hal_boot2_update_ptable,"ax",@progbits
	.align	1
	.globl	hal_boot2_update_ptable
	.type	hal_boot2_update_ptable, @function
hal_boot2_update_ptable:
.LFB9:
	.loc 1 34 1
	.cfi_startproc
.LVL36:
	.loc 1 35 5
	.loc 1 37 5
	.loc 1 39 5
	.loc 1 39 28 is_stmt 0
	lbu	a5,2(a0)
	.loc 1 41 11
	lui	a2,%hi(.LANCHOR0)
	addi	a2,a2,%lo(.LANCHOR0)
	.loc 1 39 28
	seqz	a5,a5
	sb	a5,2(a0)
	.loc 1 40 5 is_stmt 1
	.loc 1 40 19 is_stmt 0
	lw	a5,32(a0)
	.loc 1 41 11
	lbu	a1,0(a2)
	.loc 1 34 1
	mv	a3,a0
	.loc 1 40 19
	addi	a5,a5,1
	sw	a5,32(a0)
	.loc 1 41 5 is_stmt 1
	.loc 1 41 11 is_stmt 0
	addi	a2,a2,4
	seqz	a1,a1
	li	a0,0
.LVL37:
	tail	PtTable_Update_Entry
.LVL38:
	.cfi_endproc
.LFE9:
	.size	hal_boot2_update_ptable, .-hal_boot2_update_ptable
	.section	.text.hal_boot2_get_flash_addr,"ax",@progbits
	.align	1
	.globl	hal_boot2_get_flash_addr
	.type	hal_boot2_get_flash_addr, @function
hal_boot2_get_flash_addr:
.LFB11:
	.loc 1 76 1 is_stmt 1
	.cfi_startproc
	.loc 1 77 5
	.loc 1 79 5
	.loc 1 80 100 is_stmt 0
	lui	a5,%hi(.LANCHOR0+10)
	lhu	a5,%lo(.LANCHOR0+10)(a5)
	.loc 1 80 63
	li	a0,36
	mul	a5,a5,a0
	.loc 1 81 1
	lui	a0,%hi(__boot2_flashCfg_src)
	addi	a0,a0,%lo(__boot2_flashCfg_src)
	add	a0,a0,a5
	ret
	.cfi_endproc
.LFE11:
	.size	hal_boot2_get_flash_addr, .-hal_boot2_get_flash_addr
	.section	.rodata.hal_boot2_partition_bus_addr.str1.4,"aMS",@progbits,1
	.align	2
.LC16:
	.string	"FW"
	.section	.text.hal_boot2_partition_bus_addr,"ax",@progbits
	.align	1
	.globl	hal_boot2_partition_bus_addr
	.type	hal_boot2_partition_bus_addr, @function
hal_boot2_partition_bus_addr:
.LFB12:
	.loc 1 85 1 is_stmt 1
	.cfi_startproc
.LVL39:
	.loc 1 86 5
	.loc 1 87 5
	.loc 1 89 5
	.loc 1 85 1 is_stmt 0
	addi	sp,sp,-48
	.cfi_def_cfa_offset 48
	sw	s0,40(sp)
	.cfi_offset 8, -8
	.loc 1 89 60
	lui	s0,%hi(.LANCHOR0)
	.loc 1 85 1
	sw	s7,12(sp)
	sw	s9,4(sp)
	sw	ra,44(sp)
	sw	s1,36(sp)
	sw	s2,32(sp)
	sw	s3,28(sp)
	sw	s4,24(sp)
	sw	s5,20(sp)
	sw	s6,16(sp)
	sw	s8,8(sp)
	.cfi_offset 23, -36
	.cfi_offset 25, -44
	.cfi_offset 1, -4
	.cfi_offset 9, -12
	.cfi_offset 18, -16
	.cfi_offset 19, -20
	.cfi_offset 20, -24
	.cfi_offset 21, -28
	.cfi_offset 22, -32
	.cfi_offset 24, -40
	.loc 1 85 1
	mv	s9,a5
	.loc 1 89 60
	addi	a5,s0,%lo(.LANCHOR0)
.LVL40:
	.loc 1 85 1
	mv	s7,a4
	.loc 1 89 8
	lw	a4,4(a5)
.LVL41:
	li	a5,1414545408
	addi	a5,a5,1602
	bne	a4,a5,.L96
	addi	s0,s0,%lo(.LANCHOR0)
	addi	s6,s0,23
	mv	s5,a0
	mv	s3,a1
	mv	s2,a2
	mv	s8,a3
	mv	s4,s6
.LBB4:
.LBB5:
	.loc 1 94 12
	li	s1,0
.LVL42:
.L84:
	.loc 1 94 17 is_stmt 1
	.loc 1 94 56 is_stmt 0
	lhu	a5,10(s0)
	.loc 1 94 5
	bge	s1,a5,.L88
	.loc 1 95 9 is_stmt 1
	.loc 1 95 18 is_stmt 0
	mv	a0,s4
	mv	a1,s5
	call	strcmp
.LVL43:
	.loc 1 95 12
	addi	s4,s4,36
	bne	a0,zero,.L85
.L88:
	.loc 1 99 5 is_stmt 1
	.loc 1 99 44 is_stmt 0
	lhu	a5,10(s0)
	.loc 1 100 16
	li	a0,-2
	.loc 1 99 8
	bne	s1,a5,.L110
.LVL44:
.L82:
.LBE5:
.LBE4:
	.loc 1 132 1
	lw	ra,44(sp)
	.cfi_remember_state
	.cfi_restore 1
	lw	s0,40(sp)
	.cfi_restore 8
	lw	s1,36(sp)
	.cfi_restore 9
	lw	s2,32(sp)
	.cfi_restore 18
	lw	s3,28(sp)
	.cfi_restore 19
	lw	s4,24(sp)
	.cfi_restore 20
	lw	s5,20(sp)
	.cfi_restore 21
	lw	s6,16(sp)
	.cfi_restore 22
	lw	s7,12(sp)
	.cfi_restore 23
	lw	s8,8(sp)
	.cfi_restore 24
	lw	s9,4(sp)
	.cfi_restore 25
.LVL45:
	addi	sp,sp,48
	.cfi_def_cfa_offset 0
	jr	ra
.LVL46:
.L85:
	.cfi_restore_state
.LBB7:
.LBB6:
	.loc 1 94 67 is_stmt 1
	.loc 1 94 68 is_stmt 0
	addi	s1,s1,1
.LVL47:
	j	.L84
.L110:
	.loc 1 102 5 is_stmt 1
	.loc 1 102 13 is_stmt 0
	li	a5,36
	mul	a2,s1,a5
	.loc 1 106 61
	addi	s1,s1,1
.LVL48:
	mul	s1,s1,a5
.LVL49:
	.loc 1 102 13
	add	a2,s0,a2
	.loc 1 104 55
	lbu	a4,22(a2)
	.loc 1 102 13
	lw	s5,32(a2)
.LVL50:
	.loc 1 103 5 is_stmt 1
	.loc 1 103 13 is_stmt 0
	lw	s4,36(a2)
.LVL51:
	.loc 1 104 5 is_stmt 1
	.loc 1 104 55 is_stmt 0
	sw	a4,0(s9)
	.loc 1 105 5 is_stmt 1
	.loc 1 105 61 is_stmt 0
	lw	a4,40(a2)
	.loc 1 105 12
	sw	a4,0(s8)
	.loc 1 106 5 is_stmt 1
	.loc 1 106 61 is_stmt 0
	add	s1,s0,s1
	lw	a5,8(s1)
	.loc 1 109 12
	li	s1,0
	.loc 1 106 12
	sw	a5,0(s7)
	.loc 1 109 5 is_stmt 1
.LVL52:
	.loc 1 110 18 is_stmt 0
	lui	s7,%hi(.LC16)
.LVL53:
.L89:
	.loc 1 109 17 is_stmt 1
	.loc 1 109 56 is_stmt 0
	lhu	a5,10(s0)
	.loc 1 109 5
	bge	s1,a5,.L93
	.loc 1 110 9 is_stmt 1
	.loc 1 110 18 is_stmt 0
	mv	a0,s6
	addi	a1,s7,%lo(.LC16)
	call	strcmp
.LVL54:
	.loc 1 110 12
	addi	s6,s6,36
	bne	a0,zero,.L90
.L93:
	.loc 1 114 5 is_stmt 1
	.loc 1 114 44 is_stmt 0
	lhu	a5,10(s0)
	.loc 1 115 16
	li	a0,-140
	.loc 1 114 8
	beq	s1,a5,.L82
	.loc 1 118 5 is_stmt 1
	.loc 1 118 8 is_stmt 0
	beq	s5,zero,.L94
	.loc 1 118 81
	li	a5,36
	mul	a5,s1,a5
	.loc 1 122 16
	li	a0,-22
	.loc 1 118 81
	add	a5,s0,a5
	.loc 1 118 87
	lw	a4,32(a5)
	bltu	s5,a4,.L82
	lw	a5,36(a5)
	bltu	s5,a5,.L82
.L94:
	.loc 1 119 87
	beq	s4,zero,.L95
	.loc 1 120 81
	li	a5,36
	mul	a5,s1,a5
	.loc 1 122 16
	li	a0,-22
	.loc 1 120 81
	add	a5,s0,a5
	.loc 1 120 19
	lw	a4,32(a5)
	bltu	s4,a4,.L82
	.loc 1 121 19
	lw	a5,36(a5)
	bltu	s4,a5,.L82
.L95:
	.loc 1 124 5 is_stmt 1
	.loc 1 124 55 is_stmt 0
	li	a4,36
	mul	a4,s1,a4
	.loc 1 124 8
	li	a3,1
	.loc 1 126 16
	li	a0,-14
	.loc 1 124 55
	add	a4,s0,a4
	lbu	a5,22(a4)
	.loc 1 124 8
	bgtu	a5,a3,.L82
	.loc 1 128 5 is_stmt 1
	.loc 1 128 72 is_stmt 0
	li	a2,9
	mul	s1,s1,a2
.LVL55:
	.loc 1 128 138
	li	a3,587198464
	add	s5,s5,a3
.LVL56:
	.loc 1 129 138
	add	s4,s4,a3
.LVL57:
	.loc 1 131 12
	li	a0,0
	.loc 1 128 72
	add	a5,s1,a5
	addi	a5,a5,4
	slli	a5,a5,2
	add	a5,s0,a5
	.loc 1 128 138
	lw	a5,16(a5)
	sub	s5,s5,a5
.LVL58:
	.loc 1 128 12
	sw	s5,0(s3)
	.loc 1 129 5 is_stmt 1
	.loc 1 129 113 is_stmt 0
	lbu	a5,22(a4)
	.loc 1 129 72
	add	s1,s1,a5
	addi	s1,s1,4
	slli	s1,s1,2
	add	s1,s0,s1
	.loc 1 129 138
	lw	a5,16(s1)
	sub	s4,s4,a5
.LVL59:
	.loc 1 129 12
	sw	s4,0(s2)
	.loc 1 131 5 is_stmt 1
	.loc 1 131 12 is_stmt 0
	j	.L82
.LVL60:
.L90:
	.loc 1 109 67 is_stmt 1
	.loc 1 109 68 is_stmt 0
	addi	s1,s1,1
.LVL61:
	j	.L89
.LVL62:
.L96:
.LBE6:
.LBE7:
	.loc 1 90 16
	li	a0,-5
.LVL63:
	j	.L82
	.cfi_endproc
.LFE12:
	.size	hal_boot2_partition_bus_addr, .-hal_boot2_partition_bus_addr
	.section	.text.hal_boot2_partition_bus_addr_active,"ax",@progbits
	.align	1
	.globl	hal_boot2_partition_bus_addr_active
	.type	hal_boot2_partition_bus_addr_active, @function
hal_boot2_partition_bus_addr_active:
.LFB13:
	.loc 1 135 1 is_stmt 1
	.cfi_startproc
.LVL64:
	.loc 1 136 5
	.loc 1 137 5
	.loc 1 138 5
	.loc 1 140 5
	.loc 1 135 1 is_stmt 0
	addi	sp,sp,-48
	.cfi_def_cfa_offset 48
	sw	s0,40(sp)
	sw	s1,36(sp)
	.cfi_offset 8, -8
	.cfi_offset 9, -12
	mv	s0,a2
	mv	s1,a1
	.loc 1 140 16
	addi	a5,sp,28
	addi	a4,sp,24
	addi	a3,sp,20
	addi	a2,sp,16
.LVL65:
	addi	a1,sp,12
.LVL66:
	.loc 1 135 1
	sw	ra,44(sp)
	.cfi_offset 1, -4
	.loc 1 140 16
	call	hal_boot2_partition_bus_addr
.LVL67:
	.loc 1 140 8
	bne	a0,zero,.L113
	.loc 1 143 5 is_stmt 1
	.loc 1 143 20 is_stmt 0
	lw	a5,28(sp)
	.loc 1 143 28
	beq	a5,zero,.L115
	.loc 1 143 28 discriminator 1
	lw	a4,16(sp)
.L116:
	.loc 1 143 11 discriminator 4
	sw	a4,0(s1)
	.loc 1 144 5 is_stmt 1 discriminator 4
	.loc 1 144 28 is_stmt 0 discriminator 4
	beq	a5,zero,.L117
	.loc 1 144 28 discriminator 1
	lw	a5,24(sp)
.L118:
	.loc 1 144 11 discriminator 4
	sw	a5,0(s0)
	.loc 1 146 5 is_stmt 1 discriminator 4
.L113:
	.loc 1 147 1 is_stmt 0
	lw	ra,44(sp)
	.cfi_remember_state
	.cfi_restore 1
	lw	s0,40(sp)
	.cfi_restore 8
.LVL68:
	lw	s1,36(sp)
	.cfi_restore 9
.LVL69:
	addi	sp,sp,48
	.cfi_def_cfa_offset 0
	jr	ra
.LVL70:
.L115:
	.cfi_restore_state
	.loc 1 143 28 discriminator 2
	lw	a4,12(sp)
	j	.L116
.L117:
	.loc 1 144 28 discriminator 2
	lw	a5,20(sp)
	j	.L118
	.cfi_endproc
.LFE13:
	.size	hal_boot2_partition_bus_addr_active, .-hal_boot2_partition_bus_addr_active
	.section	.text.hal_boot2_partition_bus_addr_inactive,"ax",@progbits
	.align	1
	.globl	hal_boot2_partition_bus_addr_inactive
	.type	hal_boot2_partition_bus_addr_inactive, @function
hal_boot2_partition_bus_addr_inactive:
.LFB14:
	.loc 1 150 1 is_stmt 1
	.cfi_startproc
.LVL71:
	.loc 1 151 5
	.loc 1 152 5
	.loc 1 153 5
	.loc 1 155 5
	.loc 1 150 1 is_stmt 0
	addi	sp,sp,-48
	.cfi_def_cfa_offset 48
	sw	s0,40(sp)
	sw	s1,36(sp)
	.cfi_offset 8, -8
	.cfi_offset 9, -12
	mv	s0,a2
	mv	s1,a1
	.loc 1 155 16
	addi	a5,sp,28
	addi	a4,sp,24
	addi	a3,sp,20
	addi	a2,sp,16
.LVL72:
	addi	a1,sp,12
.LVL73:
	.loc 1 150 1
	sw	ra,44(sp)
	.cfi_offset 1, -4
	.loc 1 155 16
	call	hal_boot2_partition_bus_addr
.LVL74:
	.loc 1 155 8
	bne	a0,zero,.L120
	.loc 1 158 5 is_stmt 1
	.loc 1 158 20 is_stmt 0
	lw	a5,28(sp)
	.loc 1 158 28
	beq	a5,zero,.L122
	.loc 1 158 28 discriminator 1
	lw	a4,12(sp)
.L123:
	.loc 1 158 11 discriminator 4
	sw	a4,0(s1)
	.loc 1 159 5 is_stmt 1 discriminator 4
	.loc 1 159 28 is_stmt 0 discriminator 4
	beq	a5,zero,.L124
	.loc 1 159 28 discriminator 1
	lw	a5,20(sp)
.L125:
	.loc 1 159 11 discriminator 4
	sw	a5,0(s0)
	.loc 1 161 5 is_stmt 1 discriminator 4
.L120:
	.loc 1 162 1 is_stmt 0
	lw	ra,44(sp)
	.cfi_remember_state
	.cfi_restore 1
	lw	s0,40(sp)
	.cfi_restore 8
.LVL75:
	lw	s1,36(sp)
	.cfi_restore 9
.LVL76:
	addi	sp,sp,48
	.cfi_def_cfa_offset 0
	jr	ra
.LVL77:
.L122:
	.cfi_restore_state
	.loc 1 158 28 discriminator 2
	lw	a4,16(sp)
	j	.L123
.L124:
	.loc 1 159 28 discriminator 2
	lw	a5,24(sp)
	j	.L125
	.cfi_endproc
.LFE14:
	.size	hal_boot2_partition_bus_addr_inactive, .-hal_boot2_partition_bus_addr_inactive
	.section	.text.hal_boot2_partition_addr,"ax",@progbits
	.align	1
	.globl	hal_boot2_partition_addr
	.type	hal_boot2_partition_addr, @function
hal_boot2_partition_addr:
.LFB15:
	.loc 1 165 1 is_stmt 1
	.cfi_startproc
.LVL78:
	.loc 1 166 5
	.loc 1 168 5
	.loc 1 165 1 is_stmt 0
	addi	sp,sp,-48
	.cfi_def_cfa_offset 48
	sw	s0,40(sp)
	.cfi_offset 8, -8
	.loc 1 168 60
	lui	s0,%hi(.LANCHOR0)
	.loc 1 165 1
	sw	s2,32(sp)
	sw	s3,28(sp)
	sw	ra,44(sp)
	sw	s1,36(sp)
	sw	s4,24(sp)
	sw	s5,20(sp)
	sw	s6,16(sp)
	sw	s7,12(sp)
	sw	s8,8(sp)
	.cfi_offset 18, -16
	.cfi_offset 19, -20
	.cfi_offset 1, -4
	.cfi_offset 9, -12
	.cfi_offset 20, -24
	.cfi_offset 21, -28
	.cfi_offset 22, -32
	.cfi_offset 23, -36
	.cfi_offset 24, -40
	.loc 1 165 1
	mv	s2,a5
	.loc 1 168 60
	addi	a5,s0,%lo(.LANCHOR0)
.LVL79:
	.loc 1 165 1
	mv	s3,a4
	.loc 1 168 8
	lw	a4,4(a5)
.LVL80:
	li	a5,1414545408
	addi	a5,a5,1602
	bne	a4,a5,.L134
	addi	s0,s0,%lo(.LANCHOR0)
	mv	s8,a0
	mv	s6,a1
	mv	s5,a2
	mv	s4,a3
	addi	s7,s0,23
.LBB10:
.LBB11:
	.loc 1 173 12
	li	s1,0
.LVL81:
.L129:
	.loc 1 173 17 is_stmt 1
	.loc 1 173 56 is_stmt 0
	lhu	a5,10(s0)
	.loc 1 173 5
	bge	s1,a5,.L133
	.loc 1 174 9 is_stmt 1
	.loc 1 174 18 is_stmt 0
	mv	a0,s7
	mv	a1,s8
	call	strcmp
.LVL82:
	.loc 1 174 12
	addi	s7,s7,36
	bne	a0,zero,.L130
.L133:
	.loc 1 178 5 is_stmt 1
	.loc 1 178 44 is_stmt 0
	lhu	a5,10(s0)
	.loc 1 179 16
	li	a0,-2
	.loc 1 178 8
	bne	s1,a5,.L136
.LVL83:
.L127:
.LBE11:
.LBE10:
	.loc 1 188 1
	lw	ra,44(sp)
	.cfi_remember_state
	.cfi_restore 1
	lw	s0,40(sp)
	.cfi_restore 8
	lw	s1,36(sp)
	.cfi_restore 9
	lw	s2,32(sp)
	.cfi_restore 18
.LVL84:
	lw	s3,28(sp)
	.cfi_restore 19
.LVL85:
	lw	s4,24(sp)
	.cfi_restore 20
	lw	s5,20(sp)
	.cfi_restore 21
	lw	s6,16(sp)
	.cfi_restore 22
	lw	s7,12(sp)
	.cfi_restore 23
	lw	s8,8(sp)
	.cfi_restore 24
	addi	sp,sp,48
	.cfi_def_cfa_offset 0
	jr	ra
.LVL86:
.L130:
	.cfi_restore_state
.LBB13:
.LBB12:
	.loc 1 173 67 is_stmt 1
	.loc 1 173 68 is_stmt 0
	addi	s1,s1,1
.LVL87:
	j	.L129
.L136:
	.loc 1 181 5 is_stmt 1
	.loc 1 181 62 is_stmt 0
	li	a5,36
	mul	a0,s1,a5
	.loc 1 184 61
	addi	s1,s1,1
.LVL88:
	.loc 1 181 62
	add	a0,s0,a0
	lw	a4,32(a0)
	.loc 1 184 61
	mul	s1,s1,a5
.LVL89:
	.loc 1 181 12
	sw	a4,0(s6)
	.loc 1 182 5 is_stmt 1
	.loc 1 182 62 is_stmt 0
	lw	a4,36(a0)
	.loc 1 182 12
	sw	a4,0(s5)
	.loc 1 183 5 is_stmt 1
	.loc 1 183 61 is_stmt 0
	lw	a4,40(a0)
	.loc 1 184 61
	add	s0,s0,s1
	.loc 1 183 12
	sw	a4,0(s4)
	.loc 1 184 5 is_stmt 1
	.loc 1 184 61 is_stmt 0
	lw	a5,8(s0)
	.loc 1 184 12
	sw	a5,0(s3)
	.loc 1 185 5 is_stmt 1
	.loc 1 185 55 is_stmt 0
	lbu	a5,22(a0)
	.loc 1 187 12
	li	a0,0
	.loc 1 185 55
	sw	a5,0(s2)
	.loc 1 187 5 is_stmt 1
	.loc 1 187 12 is_stmt 0
	j	.L127
.LVL90:
.L134:
.LBE12:
.LBE13:
	.loc 1 169 16
	li	a0,-5
.LVL91:
	j	.L127
	.cfi_endproc
.LFE15:
	.size	hal_boot2_partition_addr, .-hal_boot2_partition_addr
	.section	.text.hal_boot2_partition_addr_active,"ax",@progbits
	.align	1
	.globl	hal_boot2_partition_addr_active
	.type	hal_boot2_partition_addr_active, @function
hal_boot2_partition_addr_active:
.LFB16:
	.loc 1 191 1 is_stmt 1
	.cfi_startproc
.LVL92:
	.loc 1 192 5
	.loc 1 193 5
	.loc 1 194 5
	.loc 1 196 5
	.loc 1 191 1 is_stmt 0
	addi	sp,sp,-48
	.cfi_def_cfa_offset 48
	sw	s0,40(sp)
	sw	s1,36(sp)
	.cfi_offset 8, -8
	.cfi_offset 9, -12
	mv	s0,a2
	mv	s1,a1
	.loc 1 196 16
	addi	a5,sp,28
	addi	a4,sp,24
	addi	a3,sp,20
	addi	a2,sp,16
.LVL93:
	addi	a1,sp,12
.LVL94:
	.loc 1 191 1
	sw	ra,44(sp)
	.cfi_offset 1, -4
	.loc 1 196 16
	call	hal_boot2_partition_addr
.LVL95:
	.loc 1 196 8
	bne	a0,zero,.L138
	.loc 1 199 5 is_stmt 1
	.loc 1 199 20 is_stmt 0
	lw	a5,28(sp)
	.loc 1 199 28
	beq	a5,zero,.L140
	.loc 1 199 28 discriminator 1
	lw	a4,16(sp)
.L141:
	.loc 1 199 11 discriminator 4
	sw	a4,0(s1)
	.loc 1 200 5 is_stmt 1 discriminator 4
	.loc 1 200 28 is_stmt 0 discriminator 4
	beq	a5,zero,.L142
	.loc 1 200 28 discriminator 1
	lw	a5,24(sp)
.L143:
	.loc 1 200 11 discriminator 4
	sw	a5,0(s0)
	.loc 1 202 5 is_stmt 1 discriminator 4
.L138:
	.loc 1 203 1 is_stmt 0
	lw	ra,44(sp)
	.cfi_remember_state
	.cfi_restore 1
	lw	s0,40(sp)
	.cfi_restore 8
.LVL96:
	lw	s1,36(sp)
	.cfi_restore 9
.LVL97:
	addi	sp,sp,48
	.cfi_def_cfa_offset 0
	jr	ra
.LVL98:
.L140:
	.cfi_restore_state
	.loc 1 199 28 discriminator 2
	lw	a4,12(sp)
	j	.L141
.L142:
	.loc 1 200 28 discriminator 2
	lw	a5,20(sp)
	j	.L143
	.cfi_endproc
.LFE16:
	.size	hal_boot2_partition_addr_active, .-hal_boot2_partition_addr_active
	.section	.text.hal_boot2_partition_addr_inactive,"ax",@progbits
	.align	1
	.globl	hal_boot2_partition_addr_inactive
	.type	hal_boot2_partition_addr_inactive, @function
hal_boot2_partition_addr_inactive:
.LFB17:
	.loc 1 206 1 is_stmt 1
	.cfi_startproc
.LVL99:
	.loc 1 207 5
	.loc 1 208 5
	.loc 1 209 5
	.loc 1 211 5
	.loc 1 206 1 is_stmt 0
	addi	sp,sp,-48
	.cfi_def_cfa_offset 48
	sw	s0,40(sp)
	sw	s1,36(sp)
	.cfi_offset 8, -8
	.cfi_offset 9, -12
	mv	s0,a2
	mv	s1,a1
	.loc 1 211 16
	addi	a5,sp,28
	addi	a4,sp,24
	addi	a3,sp,20
	addi	a2,sp,16
.LVL100:
	addi	a1,sp,12
.LVL101:
	.loc 1 206 1
	sw	ra,44(sp)
	.cfi_offset 1, -4
	.loc 1 211 16
	call	hal_boot2_partition_addr
.LVL102:
	.loc 1 211 8
	bne	a0,zero,.L145
	.loc 1 214 5 is_stmt 1
	.loc 1 214 20 is_stmt 0
	lw	a5,28(sp)
	.loc 1 214 28
	beq	a5,zero,.L147
	.loc 1 214 28 discriminator 1
	lw	a4,12(sp)
.L148:
	.loc 1 214 11 discriminator 4
	sw	a4,0(s1)
	.loc 1 215 5 is_stmt 1 discriminator 4
	.loc 1 215 28 is_stmt 0 discriminator 4
	beq	a5,zero,.L149
	.loc 1 215 28 discriminator 1
	lw	a5,20(sp)
.L150:
	.loc 1 215 11 discriminator 4
	sw	a5,0(s0)
	.loc 1 217 5 is_stmt 1 discriminator 4
.L145:
	.loc 1 218 1 is_stmt 0
	lw	ra,44(sp)
	.cfi_remember_state
	.cfi_restore 1
	lw	s0,40(sp)
	.cfi_restore 8
.LVL103:
	lw	s1,36(sp)
	.cfi_restore 9
.LVL104:
	addi	sp,sp,48
	.cfi_def_cfa_offset 0
	jr	ra
.LVL105:
.L147:
	.cfi_restore_state
	.loc 1 214 28 discriminator 2
	lw	a4,16(sp)
	j	.L148
.L149:
	.loc 1 215 28 discriminator 2
	lw	a5,24(sp)
	j	.L150
	.cfi_endproc
.LFE17:
	.size	hal_boot2_partition_addr_inactive, .-hal_boot2_partition_addr_inactive
	.section	.text.hal_boot2_get_active_partition,"ax",@progbits
	.align	1
	.globl	hal_boot2_get_active_partition
	.type	hal_boot2_get_active_partition, @function
hal_boot2_get_active_partition:
.LFB18:
	.loc 1 221 1 is_stmt 1
	.cfi_startproc
	.loc 1 222 5
	.loc 1 223 1 is_stmt 0
	lui	a5,%hi(.LANCHOR0)
	lbu	a0,%lo(.LANCHOR0)(a5)
	ret
	.cfi_endproc
.LFE18:
	.size	hal_boot2_get_active_partition, .-hal_boot2_get_active_partition
	.section	.text.hal_boot2_get_active_entries_byname,"ax",@progbits
	.align	1
	.globl	hal_boot2_get_active_entries_byname
	.type	hal_boot2_get_active_entries_byname, @function
hal_boot2_get_active_entries_byname:
.LFB19:
	.loc 1 226 1 is_stmt 1
	.cfi_startproc
.LVL106:
	.loc 1 227 5
	.loc 1 226 1 is_stmt 0
	mv	a2,a1
.LVL107:
	.loc 1 228 5 is_stmt 1
	.loc 1 228 9 is_stmt 0
	mv	a1,a0
.LVL108:
	lui	a0,%hi(.LANCHOR0+4)
.LVL109:
	.loc 1 226 1
	addi	sp,sp,-16
	.cfi_def_cfa_offset 16
	.loc 1 228 9
	addi	a0,a0,%lo(.LANCHOR0+4)
	.loc 1 226 1
	sw	ra,12(sp)
	.cfi_offset 1, -4
	.loc 1 228 9
	call	PtTable_Get_Active_Entries_By_Name
.LVL110:
	.loc 1 232 1
	lw	ra,12(sp)
	.cfi_restore 1
	.loc 1 228 8
	snez	a0,a0
	.loc 1 232 1
	neg	a0,a0
	addi	sp,sp,16
	.cfi_def_cfa_offset 0
	jr	ra
	.cfi_endproc
.LFE19:
	.size	hal_boot2_get_active_entries_byname, .-hal_boot2_get_active_entries_byname
	.section	.text.hal_boot2_get_active_entries,"ax",@progbits
	.align	1
	.globl	hal_boot2_get_active_entries
	.type	hal_boot2_get_active_entries, @function
hal_boot2_get_active_entries:
.LFB20:
	.loc 1 235 1 is_stmt 1
	.cfi_startproc
.LVL111:
	.loc 1 236 5
	.loc 1 235 1 is_stmt 0
	mv	a2,a1
.LVL112:
	.loc 1 237 5 is_stmt 1
	.loc 1 237 9 is_stmt 0
	mv	a1,a0
.LVL113:
	lui	a0,%hi(.LANCHOR0+4)
.LVL114:
	.loc 1 235 1
	addi	sp,sp,-16
	.cfi_def_cfa_offset 16
	.loc 1 237 9
	addi	a0,a0,%lo(.LANCHOR0+4)
	.loc 1 235 1
	sw	ra,12(sp)
	.cfi_offset 1, -4
	.loc 1 237 9
	call	PtTable_Get_Active_Entries
.LVL115:
	.loc 1 241 1
	lw	ra,12(sp)
	.cfi_restore 1
	.loc 1 237 8
	snez	a0,a0
	.loc 1 241 1
	neg	a0,a0
	addi	sp,sp,16
	.cfi_def_cfa_offset 0
	jr	ra
	.cfi_endproc
.LFE20:
	.size	hal_boot2_get_active_entries, .-hal_boot2_get_active_entries
	.section	.text.hal_boot2_dump,"ax",@progbits
	.align	1
	.globl	hal_boot2_dump
	.type	hal_boot2_dump, @function
hal_boot2_dump:
.LFB21:
	.loc 1 244 1 is_stmt 1
	.cfi_startproc
	.loc 1 245 5
	.loc 1 244 1 is_stmt 0
	addi	sp,sp,-16
	.cfi_def_cfa_offset 16
	sw	ra,12(sp)
	.cfi_offset 1, -4
	.loc 1 245 5
	call	_dump_partition
.LVL116:
	.loc 1 246 5 is_stmt 1
	.loc 1 247 1 is_stmt 0
	lw	ra,12(sp)
	.cfi_restore 1
	li	a0,0
	addi	sp,sp,16
	.cfi_def_cfa_offset 0
	jr	ra
	.cfi_endproc
.LFE21:
	.size	hal_boot2_dump, .-hal_boot2_dump
	.section	.rodata.hal_boot2_init.str1.4,"aMS",@progbits,1
	.align	2
.LC17:
	.string	"%s (%d)[%s:%4d] [HAL] [BOOT2] Active Partition[%u] consumed %d Bytes\r\n\r\n"
	.section	.text.hal_boot2_init,"ax",@progbits
	.align	1
	.globl	hal_boot2_init
	.type	hal_boot2_init, @function
hal_boot2_init:
.LFB22:
	.loc 1 250 1 is_stmt 1
	.cfi_startproc
	.loc 1 251 5
	.loc 1 250 1 is_stmt 0
	addi	sp,sp,-16
	.cfi_def_cfa_offset 16
	.loc 1 251 50
	li	a5,1107599360
	.loc 1 250 1
	sw	ra,12(sp)
	sw	s0,8(sp)
	.cfi_offset 1, -4
	.cfi_offset 8, -8
	.loc 1 251 50
	lbu	a4,-1024(a5)
	.loc 1 251 48
	lui	a5,%hi(.LANCHOR0)
	sb	a4,%lo(.LANCHOR0)(a5)
	.loc 1 253 5 is_stmt 1
	.loc 1 253 43
	.loc 1 253 48
	.loc 1 253 69 is_stmt 0
	lui	a4,%hi(_fsymc_level_hosal)
	.loc 1 253 51
	lw	a3,%lo(_fsymc_level_hosal)(a4)
	li	a4,2
	bgtu	a3,a4,.L160
	addi	s0,a5,%lo(.LANCHOR0)
	.loc 1 253 112 discriminator 3
	lui	a5,%hi(_fsymf_level_hosalhal_boot2)
	.loc 1 253 92 discriminator 3
	lw	a5,%lo(_fsymf_level_hosalhal_boot2)(a5)
	bgtu	a5,a4,.L160
	.loc 1 253 147 is_stmt 1 discriminator 5
	.loc 1 253 267 is_stmt 0 discriminator 5
	call	xPortIsInsideInterrupt
.LVL117:
	.loc 1 253 147 discriminator 5
	beq	a0,zero,.L161
	.loc 1 253 296 discriminator 7
	call	xTaskGetTickCountFromISR
.LVL118:
.L164:
	.loc 1 253 147 discriminator 8
	lbu	a5,0(s0)
	.loc 1 253 327 discriminator 8
	mv	a2,a0
	.loc 1 253 147 discriminator 8
	lui	a3,%hi(.LC0)
	lui	a1,%hi(.LC1)
	lui	a0,%hi(.LC17)
	li	a6,596
	li	a4,253
	addi	a3,a3,%lo(.LC0)
	addi	a1,a1,%lo(.LC1)
	addi	a0,a0,%lo(.LC17)
	call	bl_printk
.LVL119:
.L160:
	.loc 1 253 454 is_stmt 1 discriminator 11
	.loc 1 256 6 discriminator 11
	.loc 1 257 5 discriminator 11
	call	_dump_partition
.LVL120:
	.loc 1 258 5 discriminator 11
	call	bl_flash_config_update
.LVL121:
	.loc 1 260 5 discriminator 11
	.loc 1 261 1 is_stmt 0 discriminator 11
	lw	ra,12(sp)
	.cfi_remember_state
	.cfi_restore 1
	lw	s0,8(sp)
	.cfi_restore 8
	li	a0,0
	addi	sp,sp,16
	.cfi_def_cfa_offset 0
	jr	ra
.L161:
	.cfi_restore_state
	.loc 1 253 327 discriminator 8
	call	xTaskGetTickCount
.LVL122:
	j	.L164
	.cfi_endproc
.LFE22:
	.size	hal_boot2_init, .-hal_boot2_init
	.section	.rodata.hal_update_mfg_ptable.str1.4,"aMS",@progbits,1
	.align	2
.LC18:
	.string	"%s (%d)[%s:%4d] update mfg table.\r\n\r\n"
	.align	2
.LC19:
	.string	"%s (%d)[%s:%4d] ====================\r\n\r\n"
	.align	2
.LC20:
	.string	"mfg"
	.align	2
.LC21:
	.string	"%s (%d)[%s:%4d] ===== update mfg partition =====\r\n\r\n"
	.section	.text.hal_update_mfg_ptable,"ax",@progbits
	.align	1
	.globl	hal_update_mfg_ptable
	.type	hal_update_mfg_ptable, @function
hal_update_mfg_ptable:
.LFB23:
	.loc 1 266 1 is_stmt 1
	.cfi_startproc
	.loc 1 267 5
	.loc 1 268 5
	.loc 1 270 5
	.loc 1 270 43
	.loc 1 270 48
	.loc 1 266 1 is_stmt 0
	addi	sp,sp,-112
	.cfi_def_cfa_offset 112
	sw	s0,104(sp)
	.cfi_offset 8, -8
	.loc 1 270 69
	lui	s0,%hi(_fsymc_level_hosal)
	.loc 1 270 51
	lw	a4,%lo(_fsymc_level_hosal)(s0)
	.loc 1 266 1
	sw	ra,108(sp)
	sw	s1,100(sp)
	sw	s2,96(sp)
	sw	s3,92(sp)
	.cfi_offset 1, -4
	.cfi_offset 9, -12
	.cfi_offset 18, -16
	.cfi_offset 19, -20
	.loc 1 270 51
	li	a5,2
	bgtu	a4,a5,.L167
	.loc 1 270 112 discriminator 3
	lui	a4,%hi(_fsymf_level_hosalhal_boot2)
	.loc 1 270 92 discriminator 3
	lw	a3,%lo(_fsymf_level_hosalhal_boot2)(a4)
	mv	s3,a4
	bgtu	a3,a5,.L167
	.loc 1 270 147 is_stmt 1 discriminator 5
	.loc 1 270 232 is_stmt 0 discriminator 5
	call	xPortIsInsideInterrupt
.LVL123:
	.loc 1 270 147 discriminator 5
	beq	a0,zero,.L171
	.loc 1 270 261 discriminator 7
	call	xTaskGetTickCountFromISR
.LVL124:
.L195:
	.loc 1 270 292 discriminator 8
	mv	a2,a0
	.loc 1 270 147 discriminator 8
	lui	s2,%hi(.LC0)
	lui	s1,%hi(.LC1)
	lui	a0,%hi(.LC18)
	li	a4,270
	addi	a3,s2,%lo(.LC0)
	addi	a1,s1,%lo(.LC1)
	addi	a0,a0,%lo(.LC18)
	call	bl_printk
.LVL125:
	.loc 1 270 345 is_stmt 1 discriminator 8
	.loc 1 270 356 discriminator 8
	.loc 1 271 5 discriminator 8
	.loc 1 271 43 discriminator 8
	.loc 1 271 48 discriminator 8
	.loc 1 271 51 is_stmt 0 discriminator 8
	lw	a4,%lo(_fsymc_level_hosal)(s0)
	li	a5,2
	bgtu	a4,a5,.L167
	.loc 1 271 92
	lw	a4,%lo(_fsymf_level_hosalhal_boot2)(s3)
	bleu	a4,a5,.L170
.L167:
	.loc 1 271 348 is_stmt 1 discriminator 11
	.loc 1 271 359 discriminator 11
	.loc 1 272 5 discriminator 11
	.loc 1 272 14 is_stmt 0 discriminator 11
	lui	a0,%hi(.LC16)
	addi	a1,sp,8
	addi	a0,a0,%lo(.LC16)
	call	hal_boot2_get_active_entries_byname
.LVL126:
	.loc 1 272 8 discriminator 11
	bne	a0,zero,.L177
	.loc 1 273 9 is_stmt 1
	.loc 1 273 18 is_stmt 0
	lui	a0,%hi(.LC20)
	addi	a1,sp,44
	addi	a0,a0,%lo(.LC20)
	call	hal_boot2_get_active_entries_byname
.LVL127:
	.loc 1 273 12
	bne	a0,zero,.L177
	.loc 1 274 13 is_stmt 1
	.loc 1 274 16 is_stmt 0
	lw	a4,24(sp)
	lw	a5,56(sp)
	bne	a4,a5,.L177
	.loc 1 276 17 is_stmt 1
	li	a2,9
	li	a1,0
	addi	a0,sp,47
	call	memset
.LVL128:
	.loc 1 277 17
	lui	a2,%hi(.LANCHOR0)
	addi	a2,a2,%lo(.LANCHOR0)
	lbu	a1,0(a2)
	addi	a3,sp,44
	addi	a2,a2,4
	seqz	a1,a1
	li	a0,0
	call	PtTable_Update_Entry
.LVL129:
	.loc 1 279 17
	.loc 1 279 55
	.loc 1 279 60
	.loc 1 279 63 is_stmt 0
	lw	a4,%lo(_fsymc_level_hosal)(s0)
	li	a5,2
	bgtu	a4,a5,.L165
	.loc 1 279 124 discriminator 3
	lui	a4,%hi(_fsymf_level_hosalhal_boot2)
	.loc 1 279 104 discriminator 3
	lw	a4,%lo(_fsymf_level_hosalhal_boot2)(a4)
	bgtu	a4,a5,.L165
	.loc 1 279 159 is_stmt 1 discriminator 5
	.loc 1 279 259 is_stmt 0 discriminator 5
	call	xPortIsInsideInterrupt
.LVL130:
	.loc 1 279 159 discriminator 5
	beq	a0,zero,.L183
	.loc 1 279 288 discriminator 7
	call	xTaskGetTickCountFromISR
.LVL131:
.L197:
	.loc 1 279 319 discriminator 8
	mv	a2,a0
	.loc 1 279 159 discriminator 8
	lui	a3,%hi(.LC0)
	lui	a1,%hi(.LC1)
	lui	a0,%hi(.LC21)
	li	a4,279
	addi	a3,a3,%lo(.LC0)
	addi	a1,a1,%lo(.LC1)
	addi	a0,a0,%lo(.LC21)
	call	bl_printk
.LVL132:
.L177:
	.loc 1 279 372 is_stmt 1 discriminator 1
	.loc 1 279 383 discriminator 1
	.loc 1 284 5 discriminator 1
	.loc 1 284 43 discriminator 1
	.loc 1 284 48 discriminator 1
	.loc 1 284 51 is_stmt 0 discriminator 1
	lw	a4,%lo(_fsymc_level_hosal)(s0)
	li	a5,2
	bleu	a4,a5,.L185
.L165:
	.loc 1 286 1
	lw	ra,108(sp)
	.cfi_remember_state
	.cfi_restore 1
	lw	s0,104(sp)
	.cfi_restore 8
	lw	s1,100(sp)
	.cfi_restore 9
	lw	s2,96(sp)
	.cfi_restore 18
	lw	s3,92(sp)
	.cfi_restore 19
	addi	sp,sp,112
	.cfi_def_cfa_offset 0
	jr	ra
.L171:
	.cfi_restore_state
	.loc 1 270 292 discriminator 8
	call	xTaskGetTickCount
.LVL133:
	j	.L195
.L170:
	.loc 1 271 147 is_stmt 1 discriminator 5
	.loc 1 271 235 is_stmt 0 discriminator 5
	call	xPortIsInsideInterrupt
.LVL134:
	.loc 1 271 147 discriminator 5
	beq	a0,zero,.L174
	.loc 1 271 264 discriminator 7
	call	xTaskGetTickCountFromISR
.LVL135:
.L196:
	.loc 1 271 295 discriminator 8
	mv	a2,a0
	.loc 1 271 147 discriminator 8
	lui	a0,%hi(.LC19)
	li	a4,271
	addi	a3,s2,%lo(.LC0)
	addi	a1,s1,%lo(.LC1)
	addi	a0,a0,%lo(.LC19)
	call	bl_printk
.LVL136:
	j	.L167
.L174:
	.loc 1 271 295 discriminator 8
	call	xTaskGetTickCount
.LVL137:
	j	.L196
.L185:
	.loc 1 284 112
	lui	a4,%hi(_fsymf_level_hosalhal_boot2)
	.loc 1 284 92
	lw	a3,%lo(_fsymf_level_hosalhal_boot2)(a4)
	mv	s3,a4
	bgtu	a3,a5,.L165
	.loc 1 284 147 is_stmt 1 discriminator 5
	.loc 1 284 235 is_stmt 0 discriminator 5
	call	xPortIsInsideInterrupt
.LVL138:
	.loc 1 284 147 discriminator 5
	beq	a0,zero,.L188
	.loc 1 284 264 discriminator 7
	call	xTaskGetTickCountFromISR
.LVL139:
.L198:
	.loc 1 284 295 discriminator 8
	mv	a2,a0
	.loc 1 284 147 discriminator 8
	lui	s2,%hi(.LC0)
	lui	s1,%hi(.LC1)
	lui	a0,%hi(.LC19)
	li	a4,284
	addi	a3,s2,%lo(.LC0)
	addi	a1,s1,%lo(.LC1)
	addi	a0,a0,%lo(.LC19)
	call	bl_printk
.LVL140:
	.loc 1 284 348 is_stmt 1 discriminator 8
	.loc 1 284 359 discriminator 8
	.loc 1 285 5 discriminator 8
	.loc 1 285 43 discriminator 8
	.loc 1 285 48 discriminator 8
	.loc 1 285 51 is_stmt 0 discriminator 8
	lw	a4,%lo(_fsymc_level_hosal)(s0)
	li	a5,2
	bgtu	a4,a5,.L165
	.loc 1 285 92
	lw	a4,%lo(_fsymf_level_hosalhal_boot2)(s3)
	bgtu	a4,a5,.L165
	.loc 1 285 147 is_stmt 1 discriminator 5
	.loc 1 285 232 is_stmt 0 discriminator 5
	call	xPortIsInsideInterrupt
.LVL141:
	.loc 1 285 147 discriminator 5
	beq	a0,zero,.L191
	.loc 1 285 261 discriminator 7
	call	xTaskGetTickCountFromISR
.LVL142:
.L199:
	.loc 1 285 292 discriminator 8
	mv	a2,a0
	.loc 1 285 147 discriminator 8
	lui	a0,%hi(.LC18)
	li	a4,285
	addi	a3,s2,%lo(.LC0)
	addi	a1,s1,%lo(.LC1)
	addi	a0,a0,%lo(.LC18)
	call	bl_printk
.LVL143:
	.loc 1 285 345 is_stmt 1 discriminator 8
	.loc 1 285 356 discriminator 8
	.loc 1 286 1 is_stmt 0 discriminator 8
	j	.L165
.L183:
	.loc 1 279 319 discriminator 8
	call	xTaskGetTickCount
.LVL144:
	j	.L197
.L188:
	.loc 1 284 295 discriminator 8
	call	xTaskGetTickCount
.LVL145:
	j	.L198
.L191:
	.loc 1 285 292 discriminator 8
	call	xTaskGetTickCount
.LVL146:
	j	.L199
	.cfi_endproc
.LFE23:
	.size	hal_update_mfg_ptable, .-hal_update_mfg_ptable
	.globl	_fsymf_info_hosalhal_boot2
	.section	.rodata.str1.4,"aMS",@progbits,1
	.align	2
.LC22:
	.string	"hosal.hal_boot2"
	.comm	_fsymf_level_hosalhal_boot2,4,4
	.align	2
.LC23:
	.string	"hosal"
	.weak	_fsymc_level_hosal
	.section	.bss.boot2_partition_table,"aw",@nobits
	.align	2
	.set	.LANCHOR0,. + 0
	.type	boot2_partition_table, @object
	.size	boot2_partition_table, 600
boot2_partition_table:
	.zero	600
	.section	.sbss._fsymc_level_hosal,"aw",@nobits
	.align	2
	.type	_fsymc_level_hosal, @object
	.size	_fsymc_level_hosal, 4
_fsymc_level_hosal:
	.zero	4
	.section	.srodata.BLOG_HARD_DECLARE_DISABLE,"a"
	.align	2
	.type	BLOG_HARD_DECLARE_DISABLE, @object
	.size	BLOG_HARD_DECLARE_DISABLE, 4
BLOG_HARD_DECLARE_DISABLE:
	.zero	4
	.section	.static_blogcomponent_code.hosal,"a"
	.align	2
	.type	_fsymc_info_hosal, @object
	.size	_fsymc_info_hosal, 8
_fsymc_info_hosal:
	.word	_fsymc_level_hosal
	.word	.LC23
	.section	.static_blogfile_code.hosalhal_boot2,"a"
	.align	2
	.type	_fsymf_info_hosalhal_boot2, @object
	.size	_fsymf_info_hosalhal_boot2, 8
_fsymf_info_hosalhal_boot2:
	.word	_fsymf_level_hosalhal_boot2
	.word	.LC22
	.text
.Letext0:
	.file 2 "/mnt/d/GitHub/bl_iot_sdk_for_aithinker/toolchain/riscv/Linux/riscv64-unknown-elf/include/machine/_default_types.h"
	.file 3 "/mnt/d/GitHub/bl_iot_sdk_for_aithinker/toolchain/riscv/Linux/riscv64-unknown-elf/include/sys/_stdint.h"
	.file 4 "/mnt/d/GitHub/bl_iot_sdk_for_aithinker/components/platform/soc/bl602/bl602_std/bl602_std/StdDriver/Inc/bl602_common.h"
	.file 5 "/mnt/d/GitHub/bl_iot_sdk_for_aithinker/components/platform/hosal/bl602_hal/bl_boot2.h"
	.file 6 "/mnt/d/GitHub/bl_iot_sdk_for_aithinker/components/platform/hosal/bl602_hal/hal_boot2.h"
	.file 7 "/mnt/d/GitHub/bl_iot_sdk_for_aithinker/components/stage/blog/blog_type.h"
	.file 8 "/mnt/d/GitHub/bl_iot_sdk_for_aithinker/components/stage/blog/blog.h"
	.file 9 "/mnt/d/GitHub/bl_iot_sdk_for_aithinker/components/platform/soc/bl602/freertos_riscv_ram/portable/GCC/RISC-V/portmacro.h"
	.file 10 "/mnt/d/GitHub/bl_iot_sdk_for_aithinker/components/platform/soc/bl602/freertos_riscv_ram/config/task.h"
	.file 11 "/mnt/d/GitHub/bl_iot_sdk_for_aithinker/components/utils/include/utils_log.h"
	.file 12 "/mnt/d/GitHub/bl_iot_sdk_for_aithinker/toolchain/riscv/Linux/riscv64-unknown-elf/include/string.h"
	.file 13 "/mnt/d/GitHub/bl_iot_sdk_for_aithinker/components/platform/hosal/bl602_hal/bl_flash.h"