	.file	"hosal_adc.c"
	.option nopic
	.attribute arch, "rv32i2p0_m2p0_f2p0_c2p0"
	.attribute unaligned_access, 0
	.attribute stack_align, 16
	.text
.Ltext0:
	.cfi_sections	.debug_frame
	.section	.text.adc_data_update,"ax",@progbits
	.align	1
	.globl	adc_data_update
	.type	adc_data_update, @function
adc_data_update:
.LFB8:
	.file 1 "/mnt/d/GitHub/bl_iot_sdk_for_aithinker/components/platform/hosal/bl602_hal/hosal_adc.c"
	.loc 1 80 1
	.cfi_startproc
.LVL0:
	.loc 1 81 5
	.loc 1 82 5
	.loc 1 82 22 is_stmt 0
	lw	a5,32(a0)
.LVL1:
	.loc 1 84 5 is_stmt 1
	.loc 1 84 8 is_stmt 0
	lw	a3,12(a5)
	.loc 1 85 73
	lw	a4,4(a5)
	.loc 1 84 8
	bne	a3,zero,.L2
	.loc 1 85 9 is_stmt 1
	.loc 1 85 30 is_stmt 0
	lw	a4,4(a4)
	sw	a4,0(a5)
	.loc 1 86 9 is_stmt 1
	.loc 1 86 26 is_stmt 0
	li	a4,1
	sw	a4,12(a5)
	ret
.L2:
	.loc 1 103 9 is_stmt 1
	.loc 1 103 30 is_stmt 0
	lw	a4,20(a4)
	.loc 1 104 26
	sw	zero,12(a5)
	.loc 1 103 30
	sw	a4,0(a5)
	.loc 1 104 9 is_stmt 1
	.loc 1 106 1 is_stmt 0
	ret
	.cfi_endproc
.LFE8:
	.size	adc_data_update, .-adc_data_update
	.section	.rodata.hosal_adc_init.str1.4,"aMS",@progbits,1
	.align	2
.LC1:
	.string	"hosal_adc.c"
	.align	2
.LC2:
	.string	"\033[31mERROR\033[0m"
	.align	2
.LC3:
	.string	"%s (%d)[%s:%4d] parameter is error!\r\n\r\n"
	.align	2
.LC4:
	.string	"ERROR "
	.align	2
.LC5:
	.string	"[%10u][%s: %s:%4d] gpio %d can not used as adc\r\n"
	.align	2
.LC6:
	.string	"%s (%d)[%s:%4d] pin is error!\r\n\r\n"
	.align	2
.LC7:
	.string	"%s (%d)[%s:%4d] not have enough memory!\r\n\r\n"
	.align	2
.LC8:
	.string	"%s (%d)[%s:%4d] illegal freq. for mode0, freq 27HZ ~ 340HZ \r\n\r\n"
	.align	2
.LC9:
	.string	"INFO  "
	.align	2
.LC10:
	.string	"[%10u][%s: %s:%4d] ADC freq: %ldHz. div:%lu\r\n"
	.align	2
.LC12:
	.string	"%s (%d)[%s:%4d] malloc lli failed. \r\n\r\n"
	.align	2
.LC13:
	.string	"%s (%d)[%s:%4d] malloc lli buf failed. \r\n\r\n"
	.align	2
.LC14:
	.string	"[%10u][%s: %s:%4d] not support continue mode!\r\n"
	.section	.text.hosal_adc_init,"ax",@progbits
	.align	1
	.globl	hosal_adc_init
	.type	hosal_adc_init, @function
hosal_adc_init:
.LFB17:
	.loc 1 466 1 is_stmt 1
	.cfi_startproc
.LVL2:
	.loc 1 467 5
	.loc 1 468 5
	.loc 1 469 5
	.loc 1 470 5
	.loc 1 472 5
	.loc 1 466 1 is_stmt 0
	addi	sp,sp,-192
	.cfi_def_cfa_offset 192
	sw	ra,188(sp)
	sw	s0,184(sp)
	sw	s1,180(sp)
	sw	s2,176(sp)
	sw	s3,172(sp)
	sw	s4,168(sp)
	.cfi_offset 1, -4
	.cfi_offset 8, -8
	.cfi_offset 9, -12
	.cfi_offset 18, -16
	.cfi_offset 19, -20
	.cfi_offset 20, -24
	.loc 1 472 8
	bne	a0,zero,.L5
	.loc 1 473 9 is_stmt 1 discriminator 1
	.loc 1 473 47 discriminator 1
	.loc 1 473 52 discriminator 1
	.loc 1 473 74 is_stmt 0 discriminator 1
	lui	a5,%hi(_fsymc_level_hosal)
	.loc 1 473 55 discriminator 1
	lw	a4,%lo(_fsymc_level_hosal)(a5)
	li	a5,4
	bleu	a4,a5,.L6
.LVL3:
.L63:
	.loc 1 513 192 is_stmt 1 discriminator 4
	.loc 1 513 201 discriminator 4
	.loc 1 514 9 discriminator 4
	.loc 1 514 16 is_stmt 0 discriminator 4
	li	a0,-1
	j	.L4
.LVL4:
.L6:
	.loc 1 473 118 discriminator 3
	lui	a4,%hi(_fsymf_level_hosalhosal_adc)
	.loc 1 473 97 discriminator 3
	lw	a4,%lo(_fsymf_level_hosalhosal_adc)(a4)
	bgtu	a4,a5,.L63
	.loc 1 473 153 is_stmt 1 discriminator 5
	.loc 1 473 241 is_stmt 0 discriminator 5
	call	xPortIsInsideInterrupt
.LVL5:
	.loc 1 473 153 discriminator 5
	beq	a0,zero,.L9
	.loc 1 473 270 discriminator 7
	call	xTaskGetTickCountFromISR
.LVL6:
.L52:
	.loc 1 473 301 discriminator 8
	mv	a2,a0
	.loc 1 473 153 discriminator 8
	lui	a3,%hi(.LC1)
	lui	a1,%hi(.LC2)
	lui	a0,%hi(.LC3)
	li	a4,473
	addi	a3,a3,%lo(.LC1)
	addi	a1,a1,%lo(.LC2)
	addi	a0,a0,%lo(.LC3)
.LVL7:
.L62:
	.loc 1 513 16 discriminator 4
	call	bl_printk
.LVL8:
	j	.L63
.LVL9:
.L9:
	.loc 1 473 301 discriminator 8
	call	xTaskGetTickCount
.LVL10:
	j	.L52
.LVL11:
.L5:
.LBB16:
.LBB17:
	.loc 1 112 19
	lui	s2,%hi(.LANCHOR0)
.LBE17:
.LBE16:
	.loc 1 477 23
	lw	s3,4(a0)
	.loc 1 478 9
	lw	s1,8(a0)
	mv	s0,a0
	.loc 1 477 5 is_stmt 1
.LVL12:
	.loc 1 478 5
	.loc 1 481 5
.LBB20:
.LBB18:
	.loc 1 110 5
	.loc 1 112 5
	.loc 1 112 19 is_stmt 0
	li	a2,40
	addi	a1,s2,%lo(.LANCHOR0)
	addi	a0,sp,108
.LVL13:
	call	memcpy
.LVL14:
	.loc 1 120 5 is_stmt 1
	.loc 1 120 17
	addi	a5,sp,108
	addi	a4,sp,148
.LVL15:
.L12:
	.loc 1 121 9
	.loc 1 121 12 is_stmt 0
	lw	a3,0(a5)
	beq	s1,a3,.L11
	.loc 1 120 25 is_stmt 1
	.loc 1 120 17
	.loc 1 120 5 is_stmt 0
	addi	a5,a5,4
	bne	a4,a5,.L12
	.loc 1 126 5 is_stmt 1
	.loc 1 126 10
	.loc 1 126 12
	.loc 1 126 80 is_stmt 0
	call	xPortIsInsideInterrupt
.LVL16:
	.loc 1 126 12
	beq	a0,zero,.L13
	.loc 1 126 107
	call	xTaskGetTickCountFromISR
.LVL17:
.L53:
	.loc 1 126 136
	mv	a1,a0
	.loc 1 126 12
	lui	s0,%hi(.LC1)
.LVL18:
	lui	a2,%hi(.LC4)
	lui	a0,%hi(.LC5)
	mv	a5,s1
	li	a4,126
	addi	a3,s0,%lo(.LC1)
	addi	a2,a2,%lo(.LC4)
	addi	a0,a0,%lo(.LC5)
	call	bl_printk
.LVL19:
	.loc 1 126 194 is_stmt 1
	.loc 1 126 203
	.loc 1 128 5
.LBE18:
.LBE20:
	.loc 1 482 5
	.loc 1 483 9
	.loc 1 483 47
	.loc 1 483 52
	.loc 1 483 74 is_stmt 0
	lui	a5,%hi(_fsymc_level_hosal)
	.loc 1 483 55
	lw	a4,%lo(_fsymc_level_hosal)(a5)
	li	a5,4
	bgtu	a4,a5,.L63
	.loc 1 483 118 discriminator 3
	lui	a4,%hi(_fsymf_level_hosalhosal_adc)
	.loc 1 483 97 discriminator 3
	lw	a4,%lo(_fsymf_level_hosalhosal_adc)(a4)
	bgtu	a4,a5,.L63
	.loc 1 483 153 is_stmt 1 discriminator 5
	.loc 1 483 235 is_stmt 0 discriminator 5
	call	xPortIsInsideInterrupt
.LVL20:
	.loc 1 483 153 discriminator 5
	beq	a0,zero,.L18
	.loc 1 483 264 discriminator 7
	call	xTaskGetTickCountFromISR
.LVL21:
.L54:
	.loc 1 483 295 discriminator 8
	mv	a2,a0
	.loc 1 483 153 discriminator 8
	lui	a1,%hi(.LC2)
	lui	a0,%hi(.LC6)
	li	a4,483
	addi	a3,s0,%lo(.LC1)
	addi	a1,a1,%lo(.LC2)
	addi	a0,a0,%lo(.LC6)
	j	.L62
.LVL22:
.L13:
.LBB21:
.LBB19:
	.loc 1 126 136
	call	xTaskGetTickCount
.LVL23:
	j	.L53
.L11:
.LVL24:
.LBE19:
.LBE21:
	.loc 1 482 5 is_stmt 1
	.loc 1 487 5
	.loc 1 487 33 is_stmt 0
	li	a0,24
	call	pvPortMalloc
.LVL25:
	mv	s1,a0
.LVL26:
	.loc 1 488 5 is_stmt 1
	.loc 1 488 8 is_stmt 0
	bne	a0,zero,.L50
	.loc 1 489 9 is_stmt 1 discriminator 1
	.loc 1 489 47 discriminator 1
	.loc 1 489 52 discriminator 1
	.loc 1 489 74 is_stmt 0 discriminator 1
	lui	a5,%hi(_fsymc_level_hosal)
	.loc 1 489 55 discriminator 1
	lw	a4,%lo(_fsymc_level_hosal)(a5)
	li	a5,4
	bgtu	a4,a5,.L63
	.loc 1 489 118 discriminator 3
	lui	a4,%hi(_fsymf_level_hosalhosal_adc)
	.loc 1 489 97 discriminator 3
	lw	a4,%lo(_fsymf_level_hosalhosal_adc)(a4)
	bgtu	a4,a5,.L63
	.loc 1 489 153 is_stmt 1 discriminator 5
	.loc 1 489 245 is_stmt 0 discriminator 5
	call	xPortIsInsideInterrupt
.LVL27:
	.loc 1 489 153 discriminator 5
	beq	a0,zero,.L20
	.loc 1 489 274 discriminator 7
	call	xTaskGetTickCountFromISR
.LVL28:
.L55:
	.loc 1 489 305 discriminator 8
	mv	a2,a0
	.loc 1 489 153 discriminator 8
	lui	a3,%hi(.LC1)
	lui	a1,%hi(.LC2)
	lui	a0,%hi(.LC7)
	li	a4,489
	addi	a3,a3,%lo(.LC1)
	addi	a1,a1,%lo(.LC2)
	addi	a0,a0,%lo(.LC7)
	j	.L62
.LVL29:
.L18:
	.loc 1 483 295 discriminator 8
	call	xTaskGetTickCount
.LVL30:
	j	.L54
.LVL31:
.L20:
	.loc 1 489 305 discriminator 8
	call	xTaskGetTickCount
.LVL32:
	j	.L55
.L50:
	.loc 1 493 5 is_stmt 1
	li	a2,24
	li	a1,0
	call	memset
.LVL33:
	.loc 1 494 5
	.loc 1 496 8 is_stmt 0
	lw	a5,12(s0)
	.loc 1 494 15
	sw	s1,32(s0)
	.loc 1 496 5 is_stmt 1
	.loc 1 496 8 is_stmt 0
	bne	a5,zero,.L22
	.loc 1 497 9 is_stmt 1
	.loc 1 497 23 is_stmt 0
	addi	a5,s3,-27
	.loc 1 497 12
	li	a4,313
	bleu	a5,a4,.L23
	.loc 1 498 13 is_stmt 1 discriminator 1
	.loc 1 498 51 discriminator 1
	.loc 1 498 56 discriminator 1
	.loc 1 498 78 is_stmt 0 discriminator 1
	lui	a5,%hi(_fsymc_level_hosal)
	.loc 1 498 59 discriminator 1
	lw	a4,%lo(_fsymc_level_hosal)(a5)
	li	a5,4
	bgtu	a4,a5,.L63
	.loc 1 498 122 discriminator 3
	lui	a4,%hi(_fsymf_level_hosalhosal_adc)
	.loc 1 498 101 discriminator 3
	lw	a4,%lo(_fsymf_level_hosalhosal_adc)(a4)
	bgtu	a4,a5,.L63
	.loc 1 498 157 is_stmt 1 discriminator 5
	.loc 1 498 269 is_stmt 0 discriminator 5
	call	xPortIsInsideInterrupt
.LVL34:
	.loc 1 498 157 discriminator 5
	beq	a0,zero,.L24
	.loc 1 498 298 discriminator 7
	call	xTaskGetTickCountFromISR
.LVL35:
.L56:
	.loc 1 498 329 discriminator 8
	mv	a2,a0
	.loc 1 498 157 discriminator 8
	lui	a3,%hi(.LC1)
	lui	a1,%hi(.LC2)
	lui	a0,%hi(.LC8)
	li	a4,498
	addi	a3,a3,%lo(.LC1)
	addi	a1,a1,%lo(.LC2)
	addi	a0,a0,%lo(.LC8)
	j	.L62
.L24:
	.loc 1 498 329 discriminator 8
	call	xTaskGetTickCount
.LVL36:
	j	.L56
.L23:
	.loc 1 508 9 is_stmt 1
.LVL37:
.LBB22:
.LBB23:
	.loc 1 177 5
	.loc 1 178 5
	.loc 1 179 5
	.loc 1 181 5
	.loc 1 187 5
	.loc 1 189 5
	.loc 1 189 9 is_stmt 0
	li	a5,1875
	divu	s1,a5,s3
.LVL38:
	.loc 1 190 5 is_stmt 1
	.loc 1 190 8 is_stmt 0
	remu	a5,a5,s3
	.loc 1 190 15
	addi	a3,s1,1
	.loc 1 190 20
	mul	a4,s3,a3
	.loc 1 190 27
	addi	a4,a4,-1875
	.loc 1 190 8
	bgeu	a4,a5,.L26
	.loc 1 191 13
	mv	s1,a3
.LVL39:
.L26:
	.loc 1 194 5 is_stmt 1
	li	a5,64
	bleu	s1,a5,.L27
	li	s1,64
.LVL40:
.L27:
	.loc 1 200 5
	.loc 1 201 9
	.loc 1 210 5
	.loc 1 210 10
	.loc 1 210 12
	.loc 1 210 77 is_stmt 0
	call	xPortIsInsideInterrupt
.LVL41:
	.loc 1 210 12
	beq	a0,zero,.L28
	.loc 1 210 104
	call	xTaskGetTickCountFromISR
.LVL42:
.L57:
	.loc 1 210 12
	li	a5,1875
	divu	a5,a5,s1
	.loc 1 210 133
	mv	a1,a0
	.loc 1 210 12
	lui	s4,%hi(.LC1)
	lui	a2,%hi(.LC9)
	lui	a0,%hi(.LC10)
	mv	a6,s1
	li	a4,210
	addi	a3,s4,%lo(.LC1)
	addi	a2,a2,%lo(.LC9)
	addi	a0,a0,%lo(.LC10)
	call	bl_printk
.LVL43:
	.loc 1 210 217 is_stmt 1
	.loc 1 210 226
	.loc 1 212 5
	addi	a2,s1,-1
	andi	a2,a2,0xff
	li	a1,0
	li	a0,1
	call	GLB_Set_ADC_CLK
.LVL44:
.LBE23:
.LBE22:
	.loc 1 509 9
.LBB25:
.LBB26:
	.loc 1 301 5
	.loc 1 305 5
	.loc 1 305 13 is_stmt 0
	addi	a1,s2,%lo(.LANCHOR0)
	li	a2,10
	addi	a1,a1,40
	addi	a0,sp,16
	call	memcpy
.LVL45:
	.loc 1 307 5 is_stmt 1
	.loc 1 317 18 is_stmt 0
	li	a3,5
	.loc 1 307 29
	lw	s2,12(s0)
.LVL46:
	.loc 1 308 5 is_stmt 1
	.loc 1 315 18 is_stmt 0
	li	a4,2
	.loc 1 316 18
	li	a5,1
	.loc 1 317 18
	sw	a3,116(sp)
	.loc 1 318 20
	li	a3,4
	.loc 1 315 18
	sw	a4,108(sp)
	.loc 1 316 18
	sw	a5,112(sp)
	.loc 1 318 20
	sw	a3,148(sp)
	.loc 1 308 19
	lw	s1,8(s0)
.LVL47:
	.loc 1 310 5 is_stmt 1
	.loc 1 311 5
	.loc 1 312 5
	.loc 1 313 5
	.loc 1 315 5
	.loc 1 316 5
	.loc 1 317 5
	.loc 1 318 5
	.loc 1 321 5
	.loc 1 321 8 is_stmt 0
	bne	s2,zero,.L30
	.loc 1 328 9 is_stmt 1
	.loc 1 328 21 is_stmt 0
	sw	zero,120(sp)
	.loc 1 329 9 is_stmt 1
	.loc 1 329 21 is_stmt 0
	sw	zero,124(sp)
	.loc 1 330 9 is_stmt 1
	.loc 1 330 24 is_stmt 0
	sw	a5,128(sp)
.L31:
	.loc 1 339 5 is_stmt 1
	.loc 1 339 19 is_stmt 0
	sw	zero,132(sp)
	.loc 1 340 5 is_stmt 1
	.loc 1 340 15 is_stmt 0
	sw	zero,136(sp)
	.loc 1 345 5 is_stmt 1
	.loc 1 345 16 is_stmt 0
	sw	zero,140(sp)
	.loc 1 348 5 is_stmt 1
	.loc 1 348 21 is_stmt 0
	sw	zero,144(sp)
	.loc 1 349 5 is_stmt 1
	.loc 1 349 25 is_stmt 0
	sw	zero,152(sp)
	.loc 1 350 5 is_stmt 1
	.loc 1 350 26 is_stmt 0
	sh	zero,156(sp)
	.loc 1 352 5 is_stmt 1
	call	ADC_Disable
.LVL48:
	.loc 1 353 5
	call	ADC_Enable
.LVL49:
	.loc 1 354 5
	call	ADC_Reset
.LVL50:
	.loc 1 356 5
	addi	a0,sp,108
	call	ADC_Init
.LVL51:
	.loc 1 358 5
	.loc 1 358 8 is_stmt 0
	bne	s2,zero,.L32
	addi	a3,sp,28
	addi	a4,sp,68
	.loc 1 359 16
	li	a5,0
	mv	a0,a3
	mv	a1,a4
	.loc 1 361 34
	li	a6,23
	.loc 1 359 9
	li	a2,10
.LVL52:
.L33:
	.loc 1 360 13 is_stmt 1
	.loc 1 360 49 is_stmt 0
	addi	s1,sp,16
	add	a7,s1,a5
	lbu	a7,0(a7)
	.loc 1 361 34
	sw	a6,0(a4)
	.loc 1 359 30
	addi	a5,a5,1
.LVL53:
	.loc 1 360 49
	sw	a7,0(a3)
	.loc 1 360 53 is_stmt 1
	.loc 1 361 13
	.loc 1 359 29
.LVL54:
	.loc 1 359 21
	.loc 1 359 9 is_stmt 0
	addi	a4,a4,4
	addi	a3,a3,4
	bne	a5,a2,.L33
	.loc 1 364 9 is_stmt 1
	li	a3,1
	li	a2,10
	call	ADC_Scan_Channel_Config
.LVL55:
.L34:
	.loc 1 372 5
	.loc 1 373 24 is_stmt 0
	li	a5,1
	.loc 1 374 5
	addi	a0,sp,8
	.loc 1 373 24
	sw	a5,12(sp)
	.loc 1 372 32
	sw	zero,8(sp)
	.loc 1 373 5 is_stmt 1
	.loc 1 374 5
	call	ADC_FIFO_Cfg
.LVL56:
	.loc 1 376 5
	call	ADC_SET_TSVBE_LOW
.LVL57:
.LBE26:
.LBE25:
	.loc 1 510 9
.LBB32:
.LBB33:
	.loc 1 243 5
	.loc 1 244 5
	.loc 1 245 5
	.loc 1 246 5
	.loc 1 254 21 is_stmt 0
	li	a0,0
	.loc 1 246 22
	lw	s2,32(s0)
.LVL58:
	.loc 1 248 5 is_stmt 1
	.loc 1 254 5
	.loc 1 254 21 is_stmt 0
	call	hosal_dma_chan_request
.LVL59:
	.loc 1 254 19
	sw	a0,20(s0)
	.loc 1 256 5 is_stmt 1
	.loc 1 256 14 is_stmt 0
	li	a0,32
	call	pvPortMalloc
.LVL60:
	mv	s1,a0
.LVL61:
	.loc 1 257 5 is_stmt 1
	.loc 1 257 8 is_stmt 0
	bne	a0,zero,.L36
	.loc 1 258 9 is_stmt 1
	.loc 1 258 47
	.loc 1 258 52
	.loc 1 258 74 is_stmt 0
	lui	a5,%hi(_fsymc_level_hosal)
	.loc 1 258 55
	lw	a4,%lo(_fsymc_level_hosal)(a5)
	li	a5,4
	bgtu	a4,a5,.L38
	.loc 1 258 118
	lui	a4,%hi(_fsymf_level_hosalhosal_adc)
	.loc 1 258 97
	lw	a4,%lo(_fsymf_level_hosalhosal_adc)(a4)
	bgtu	a4,a5,.L38
	.loc 1 258 153 is_stmt 1
	.loc 1 258 241 is_stmt 0
	call	xPortIsInsideInterrupt
.LVL62:
	.loc 1 258 153
	beq	a0,zero,.L40
	.loc 1 258 270
	call	xTaskGetTickCountFromISR
.LVL63:
.L58:
	.loc 1 258 301
	mv	a2,a0
	.loc 1 258 153
	lui	a1,%hi(.LC2)
	lui	a0,%hi(.LC12)
	li	a4,258
	addi	a3,s4,%lo(.LC1)
	addi	a1,a1,%lo(.LC2)
	addi	a0,a0,%lo(.LC12)
.LVL64:
.L60:
	.loc 1 265 153
	call	bl_printk
.LVL65:
.L38:
.LBE33:
.LBE32:
	.loc 1 511 9 is_stmt 1
.LBB37:
.LBB38:
	.loc 1 381 5
	lbu	s1,20(s0)
	li	a2,1
	li	a1,2
	mv	a0,s1
	call	DMA_IntMask
.LVL66:
	.loc 1 382 5
	li	a2,0
	li	a1,0
	mv	a0,s1
	call	DMA_IntMask
.LVL67:
	.loc 1 383 5
	li	a2,0
	li	a1,1
	mv	a0,s1
	call	DMA_IntMask
.LVL68:
	.loc 1 385 5
	call	ADC_Start
.LVL69:
	.loc 1 386 5
	call	DMA_Enable
.LVL70:
	.loc 1 387 5
	mv	a0,s1
	call	DMA_Channel_Enable
.LVL71:
.LBE38:
.LBE37:
	.loc 1 517 5
	.loc 1 517 14 is_stmt 0
	lui	a5,%hi(.LANCHOR2)
	sw	s0,%lo(.LANCHOR2)(a5)
	.loc 1 519 5 is_stmt 1
	.loc 1 519 12 is_stmt 0
	li	a0,0
.LVL72:
.L4:
	.loc 1 520 1
	lw	ra,188(sp)
	.cfi_remember_state
	.cfi_restore 1
	lw	s0,184(sp)
	.cfi_restore 8
	lw	s1,180(sp)
	.cfi_restore 9
	lw	s2,176(sp)
	.cfi_restore 18
	lw	s3,172(sp)
	.cfi_restore 19
	lw	s4,168(sp)
	.cfi_restore 20
	addi	sp,sp,192
	.cfi_def_cfa_offset 0
	jr	ra
.LVL73:
.L28:
	.cfi_restore_state
.LBB39:
.LBB24:
	.loc 1 210 133
	call	xTaskGetTickCount
.LVL74:
	j	.L57
.LVL75:
.L30:
.LBE24:
.LBE39:
.LBB40:
.LBB31:
	.loc 1 334 9 is_stmt 1
	.loc 1 334 21 is_stmt 0
	sw	a5,120(sp)
	.loc 1 335 9 is_stmt 1
	.loc 1 335 21 is_stmt 0
	sw	a5,124(sp)
	.loc 1 336 9 is_stmt 1
	.loc 1 336 24 is_stmt 0
	sw	a4,128(sp)
	j	.L31
.L32:
	.loc 1 367 9 is_stmt 1
.LVL76:
.LBB27:
.LBB28:
	.loc 1 133 5
	.loc 1 135 5
	addi	a4,s1,-4
	li	a5,11
.LBE28:
.LBE27:
	.loc 1 358 8 is_stmt 0
	li	a0,-1
	bgtu	a4,a5,.L35
	lui	a5,%hi(.LANCHOR1)
	addi	a5,a5,%lo(.LANCHOR1)
	add	a5,a5,a4
	lb	a0,0(a5)
.L35:
.LVL77:
.LBB30:
.LBB29:
	.loc 1 172 5 is_stmt 1
.LBE29:
.LBE30:
	.loc 1 368 9
	li	a2,1
	li	a1,23
	call	ADC_Channel_Config
.LVL78:
	.loc 1 369 9
	li	a0,0
	call	ADC_Mic_Init
.LVL79:
	j	.L34
.LVL80:
.L40:
.LBE31:
.LBE40:
.LBB41:
.LBB36:
	.loc 1 258 301 is_stmt 0
	call	xTaskGetTickCount
.LVL81:
	j	.L58
.L36:
	.loc 1 263 5 is_stmt 1
	.loc 1 263 14 is_stmt 0
	li	a0,80
	call	pvPortMalloc
.LVL82:
	mv	s3,a0
.LVL83:
	.loc 1 264 5 is_stmt 1
	.loc 1 264 8 is_stmt 0
	bne	a0,zero,.L42
	.loc 1 265 9 is_stmt 1
	.loc 1 265 47
	.loc 1 265 52
	.loc 1 265 74 is_stmt 0
	lui	a5,%hi(_fsymc_level_hosal)
	.loc 1 265 55
	lw	a4,%lo(_fsymc_level_hosal)(a5)
	li	a5,4
	bgtu	a4,a5,.L38
	.loc 1 265 118
	lui	a4,%hi(_fsymf_level_hosalhosal_adc)
	.loc 1 265 97
	lw	a4,%lo(_fsymf_level_hosalhosal_adc)(a4)
	bgtu	a4,a5,.L38
	.loc 1 265 153 is_stmt 1
	.loc 1 265 245 is_stmt 0
	call	xPortIsInsideInterrupt
.LVL84:
	.loc 1 265 153
	beq	a0,zero,.L43
	.loc 1 265 274
	call	xTaskGetTickCountFromISR
.LVL85:
.L59:
	.loc 1 265 305
	mv	a2,a0
	.loc 1 265 153
	lui	a1,%hi(.LC2)
	lui	a0,%hi(.LC13)
	li	a4,265
	addi	a3,s4,%lo(.LC1)
	addi	a1,a1,%lo(.LC2)
	addi	a0,a0,%lo(.LC13)
	j	.L60
.L43:
	.loc 1 265 305
	call	xTaskGetTickCount
.LVL86:
	j	.L59
.LVL87:
.L42:
	.loc 1 270 5 is_stmt 1
	.loc 1 273 5 is_stmt 0
	lbu	a0,20(s0)
.LVL88:
	.loc 1 270 16
	li	a5,2
	sw	a5,108(sp)
	.loc 1 271 5 is_stmt 1
	.loc 1 271 22 is_stmt 0
	li	a5,22
	sw	a5,112(sp)
	.loc 1 272 5 is_stmt 1
	.loc 1 272 22 is_stmt 0
	sw	zero,116(sp)
	.loc 1 273 5 is_stmt 1
	call	DMA_Channel_Disable
.LVL89:
	.loc 1 275 5
.LBB34:
.LBB35:
	.loc 1 217 5
	.loc 1 219 5
	.loc 1 220 5
	.loc 1 221 5
	.loc 1 222 5
	.loc 1 223 5
	.loc 1 224 5
	.loc 1 225 5
	.loc 1 226 5
	.loc 1 227 5
	.loc 1 228 5
	.loc 1 230 5
	.loc 1 233 22 is_stmt 0
	lw	a4,12(s1)
	.loc 1 232 35
	addi	a5,s1,16
	.loc 1 232 23
	sw	a5,8(s1)
	.loc 1 233 22
	li	a3,-2008547328
	li	a5,33554432
	addi	a3,a3,10
	and	a4,a5,a4
	or	a4,a4,a3
	sw	a4,12(s1)
	.loc 1 236 39
	addi	a4,s3,40
	.loc 1 236 27
	sw	a4,20(s1)
	.loc 1 238 22
	lw	a4,28(s1)
	.loc 1 230 26
	li	a2,1073750016
	addi	a2,a2,4
	.loc 1 238 22
	and	a5,a5,a4
	or	a5,a5,a3
	.loc 1 230 26
	sw	a2,0(s1)
	.loc 1 231 5 is_stmt 1
	.loc 1 235 26 is_stmt 0
	sw	a2,16(s1)
	.loc 1 238 22
	sw	a5,28(s1)
	.loc 1 231 27
	sw	s3,4(s1)
	.loc 1 232 5 is_stmt 1
	.loc 1 233 5
	.loc 1 235 5
	.loc 1 236 5
	.loc 1 237 5
	.loc 1 237 23 is_stmt 0
	sw	s1,24(s1)
	.loc 1 238 5 is_stmt 1
.LVL90:
.LBE35:
.LBE34:
	.loc 1 276 5
	lbu	a0,20(s0)
	addi	a1,sp,108
	call	DMA_LLI_Init
.LVL91:
	.loc 1 277 5
	lbu	a0,20(s0)
	mv	a1,s1
	call	DMA_LLI_Update
.LVL92:
	.loc 1 279 5
	.loc 1 284 23 is_stmt 0
	li	a5,10
	.loc 1 279 20
	sw	s3,8(s2)
	.loc 1 280 5 is_stmt 1
	.loc 1 280 21 is_stmt 0
	sw	s1,4(s2)
	.loc 1 281 5 is_stmt 1
	.loc 1 281 22 is_stmt 0
	sw	zero,12(s2)
	.loc 1 282 5 is_stmt 1
	.loc 1 282 29 is_stmt 0
	sw	zero,16(s2)
	.loc 1 283 5 is_stmt 1
	.loc 1 283 26 is_stmt 0
	sw	zero,0(s2)
	.loc 1 284 5 is_stmt 1
	.loc 1 284 23 is_stmt 0
	sw	a5,20(s2)
	.loc 1 293 5 is_stmt 1
	lw	a0,20(s0)
	lui	a1,%hi(adc_data_update)
	mv	a2,s0
	addi	a1,a1,%lo(adc_data_update)
	call	hosal_dma_irq_callback_set
.LVL93:
	.loc 1 295 5
	.loc 1 295 12 is_stmt 0
	j	.L38
.LVL94:
.L22:
.LBE36:
.LBE41:
	.loc 1 513 9 is_stmt 1
	.loc 1 513 14
	.loc 1 513 16
	.loc 1 513 83 is_stmt 0
	call	xPortIsInsideInterrupt
.LVL95:
	.loc 1 513 16
	beq	a0,zero,.L45
	.loc 1 513 110 discriminator 1
	call	xTaskGetTickCountFromISR
.LVL96:
.L61:
	.loc 1 513 139 discriminator 2
	mv	a1,a0
	.loc 1 513 16 discriminator 2
	lui	a3,%hi(.LC1)
	lui	a2,%hi(.LC4)
	lui	a0,%hi(.LC14)
	li	a4,513
	addi	a3,a3,%lo(.LC1)
	addi	a2,a2,%lo(.LC4)
	addi	a0,a0,%lo(.LC14)
	j	.L62
.L45:
	.loc 1 513 139 discriminator 2
	call	xTaskGetTickCount
.LVL97:
	j	.L61
	.cfi_endproc
.LFE17:
	.size	hosal_adc_init, .-hosal_adc_init
	.section	.rodata.hosal_adc_add_channel.str1.4,"aMS",@progbits,1
	.align	2
.LC15:
	.string	"%s (%d)[%s:%4d] channel is error!\r\n"
	.section	.text.hosal_adc_add_channel,"ax",@progbits
	.align	1
	.globl	hosal_adc_add_channel
	.type	hosal_adc_add_channel, @function
hosal_adc_add_channel:
.LFB18:
	.loc 1 523 1 is_stmt 1
	.cfi_startproc
.LVL98:
	.loc 1 524 5
	.loc 1 531 8 is_stmt 0
	li	a5,11
	.loc 1 524 22
	lw	a4,32(a0)
.LVL99:
	.loc 1 526 5 is_stmt 1
	.loc 1 531 5
	.loc 1 531 8 is_stmt 0
	bleu	a1,a5,.L65
	.loc 1 532 9 is_stmt 1 discriminator 1
	.loc 1 532 47 discriminator 1
	.loc 1 532 52 discriminator 1
	.loc 1 532 74 is_stmt 0 discriminator 1
	lui	a5,%hi(_fsymc_level_hosal)
	.loc 1 532 55 discriminator 1
	lw	a4,%lo(_fsymc_level_hosal)(a5)
.LVL100:
	li	a5,4
	.loc 1 533 16 discriminator 1
	li	a0,-1
.LVL101:
	.loc 1 532 55 discriminator 1
	bgtu	a4,a5,.L72
	.loc 1 532 118 discriminator 3
	lui	a4,%hi(_fsymf_level_hosalhosal_adc)
	.loc 1 532 97 discriminator 3
	lw	a4,%lo(_fsymf_level_hosalhosal_adc)(a4)
	bgtu	a4,a5,.L72
	.loc 1 532 153 is_stmt 1 discriminator 5
	.loc 1 523 1 is_stmt 0 discriminator 5
	addi	sp,sp,-16
	.cfi_def_cfa_offset 16
	sw	ra,12(sp)
.LVL102:
	.cfi_offset 1, -4
	.loc 1 532 235 discriminator 5
	call	xPortIsInsideInterrupt
.LVL103:
	.loc 1 532 153 discriminator 5
	beq	a0,zero,.L67
	.loc 1 532 264 discriminator 7
	call	xTaskGetTickCountFromISR
.LVL104:
.L75:
	.loc 1 532 295 discriminator 8
	mv	a2,a0
	.loc 1 532 153 discriminator 8
	lui	a3,%hi(.LC1)
	lui	a1,%hi(.LC2)
	lui	a0,%hi(.LC15)
	addi	a0,a0,%lo(.LC15)
	li	a4,532
	addi	a3,a3,%lo(.LC1)
	addi	a1,a1,%lo(.LC2)
	call	bl_printk
.LVL105:
	.loc 1 538 1 discriminator 8
	lw	ra,12(sp)
	.cfi_remember_state
	.cfi_restore 1
	.loc 1 533 16 discriminator 8
	li	a0,-1
	.loc 1 538 1 discriminator 8
	addi	sp,sp,16
	.cfi_def_cfa_offset 0
	jr	ra
.L67:
	.cfi_restore_state
	.loc 1 532 295 discriminator 8
	call	xTaskGetTickCount
.LVL106:
	j	.L75
.LVL107:
.L65:
	.cfi_def_cfa_offset 0
	.cfi_restore 1
	.loc 1 535 5 is_stmt 1
	.loc 1 535 34 is_stmt 0
	li	a5,1
	sll	a5,a5,a1
	.loc 1 535 29
	lw	a1,16(a4)
.LVL108:
	.loc 1 537 12
	li	a0,0
.LVL109:
	.loc 1 535 29
	or	a1,a1,a5
	sw	a1,16(a4)
	.loc 1 537 5 is_stmt 1
	.loc 1 537 12 is_stmt 0
	ret
.LVL110:
.L72:
	.loc 1 538 1
	ret
	.cfi_endproc
.LFE18:
	.size	hosal_adc_add_channel, .-hosal_adc_add_channel
	.section	.rodata.hosal_adc_remove_channel.str1.4,"aMS",@progbits,1
	.align	2
.LC16:
	.string	"%s (%d)[%s:%4d] channel is error!\r\n\r\n"
	.section	.text.hosal_adc_remove_channel,"ax",@progbits
	.align	1
	.globl	hosal_adc_remove_channel
	.type	hosal_adc_remove_channel, @function
hosal_adc_remove_channel:
.LFB19:
	.loc 1 541 1 is_stmt 1
	.cfi_startproc
.LVL111:
	.loc 1 542 5
	.loc 1 549 8 is_stmt 0
	li	a5,11
	.loc 1 542 22
	lw	a4,32(a0)
.LVL112:
	.loc 1 544 5 is_stmt 1
	.loc 1 549 5
	.loc 1 549 8 is_stmt 0
	bleu	a1,a5,.L77
	.loc 1 550 9 is_stmt 1 discriminator 1
	.loc 1 550 47 discriminator 1
	.loc 1 550 52 discriminator 1
	.loc 1 550 74 is_stmt 0 discriminator 1
	lui	a5,%hi(_fsymc_level_hosal)
	.loc 1 550 55 discriminator 1
	lw	a4,%lo(_fsymc_level_hosal)(a5)
.LVL113:
	li	a5,4
	.loc 1 551 16 discriminator 1
	li	a0,-1
.LVL114:
	.loc 1 550 55 discriminator 1
	bgtu	a4,a5,.L84
	.loc 1 550 118 discriminator 3
	lui	a4,%hi(_fsymf_level_hosalhosal_adc)
	.loc 1 550 97 discriminator 3
	lw	a4,%lo(_fsymf_level_hosalhosal_adc)(a4)
	bgtu	a4,a5,.L84
	.loc 1 550 153 is_stmt 1 discriminator 5
	.loc 1 541 1 is_stmt 0 discriminator 5
	addi	sp,sp,-16
	.cfi_def_cfa_offset 16
	sw	ra,12(sp)
.LVL115:
	.cfi_offset 1, -4
	.loc 1 550 239 discriminator 5
	call	xPortIsInsideInterrupt
.LVL116:
	.loc 1 550 153 discriminator 5
	beq	a0,zero,.L79
	.loc 1 550 268 discriminator 7
	call	xTaskGetTickCountFromISR
.LVL117:
.L87:
	.loc 1 550 299 discriminator 8
	mv	a2,a0
	.loc 1 550 153 discriminator 8
	lui	a3,%hi(.LC1)
	lui	a1,%hi(.LC2)
	lui	a0,%hi(.LC16)
	addi	a0,a0,%lo(.LC16)
	li	a4,550
	addi	a3,a3,%lo(.LC1)
	addi	a1,a1,%lo(.LC2)
	call	bl_printk
.LVL118:
	.loc 1 557 1 discriminator 8
	lw	ra,12(sp)
	.cfi_remember_state
	.cfi_restore 1
	.loc 1 551 16 discriminator 8
	li	a0,-1
	.loc 1 557 1 discriminator 8
	addi	sp,sp,16
	.cfi_def_cfa_offset 0
	jr	ra
.L79:
	.cfi_restore_state
	.loc 1 550 299 discriminator 8
	call	xTaskGetTickCount
.LVL119:
	j	.L87
.LVL120:
.L77:
	.cfi_def_cfa_offset 0
	.cfi_restore 1
	.loc 1 554 5 is_stmt 1
	.loc 1 554 36 is_stmt 0
	li	a5,1
	sll	a1,a5,a1
.LVL121:
	.loc 1 554 29
	lw	a5,16(a4)
	.loc 1 554 32
	not	a1,a1
	.loc 1 556 12
	li	a0,0
.LVL122:
	.loc 1 554 29
	and	a1,a5,a1
	sw	a1,16(a4)
	.loc 1 556 5 is_stmt 1
	.loc 1 556 12 is_stmt 0
	ret
.LVL123:
.L84:
	.loc 1 557 1
	ret
	.cfi_endproc
.LFE19:
	.size	hosal_adc_remove_channel, .-hosal_adc_remove_channel
	.section	.rodata.hosal_adc_device_get.str1.4,"aMS",@progbits,1
	.align	2
.LC17:
	.string	"%s (%d)[%s:%4d] please init adc first!\r\n\r\n"
	.section	.text.hosal_adc_device_get,"ax",@progbits
	.align	1
	.globl	hosal_adc_device_get
	.type	hosal_adc_device_get, @function
hosal_adc_device_get:
.LFB20:
	.loc 1 560 1 is_stmt 1
	.cfi_startproc
	.loc 1 561 5
	.loc 1 560 1 is_stmt 0
	addi	sp,sp,-16
	.cfi_def_cfa_offset 16
	.loc 1 561 13
	lui	a5,%hi(.LANCHOR2)
	.loc 1 560 1
	sw	s0,8(sp)
	.cfi_offset 8, -8
	.loc 1 561 13
	lw	s0,%lo(.LANCHOR2)(a5)
	.loc 1 560 1
	sw	ra,12(sp)
	.cfi_offset 1, -4
	.loc 1 561 8
	bne	s0,zero,.L88
	.loc 1 562 9 is_stmt 1 discriminator 1
	.loc 1 562 47 discriminator 1
	.loc 1 562 52 discriminator 1
	.loc 1 562 74 is_stmt 0 discriminator 1
	lui	a5,%hi(_fsymc_level_hosal)
	.loc 1 562 55 discriminator 1
	lw	a4,%lo(_fsymc_level_hosal)(a5)
	li	a5,4
	bgtu	a4,a5,.L88
	.loc 1 562 118 discriminator 3
	lui	a4,%hi(_fsymf_level_hosalhosal_adc)
	.loc 1 562 97 discriminator 3
	lw	a4,%lo(_fsymf_level_hosalhosal_adc)(a4)
	bgtu	a4,a5,.L88
	.loc 1 562 153 is_stmt 1 discriminator 5
	.loc 1 562 244 is_stmt 0 discriminator 5
	call	xPortIsInsideInterrupt
.LVL124:
	.loc 1 562 153 discriminator 5
	beq	a0,zero,.L90
	.loc 1 562 273 discriminator 7
	call	xTaskGetTickCountFromISR
.LVL125:
.L93:
	.loc 1 562 304 discriminator 8
	mv	a2,a0
	.loc 1 562 153 discriminator 8
	lui	a3,%hi(.LC1)
	lui	a1,%hi(.LC2)
	lui	a0,%hi(.LC17)
	li	a4,562
	addi	a3,a3,%lo(.LC1)
	addi	a1,a1,%lo(.LC2)
	addi	a0,a0,%lo(.LC17)
	call	bl_printk
.LVL126:
.L88:
	.loc 1 567 1
	lw	ra,12(sp)
	.cfi_remember_state
	.cfi_restore 1
	mv	a0,s0
	lw	s0,8(sp)
	.cfi_restore 8
	addi	sp,sp,16
	.cfi_def_cfa_offset 0
	jr	ra
.L90:
	.cfi_restore_state
	.loc 1 562 304 discriminator 8
	call	xTaskGetTickCount
.LVL127:
	j	.L93
	.cfi_endproc
.LFE20:
	.size	hosal_adc_device_get, .-hosal_adc_device_get
	.section	.rodata.hosal_adc_value_get.str1.4,"aMS",@progbits,1
	.align	2
.LC18:
	.string	"%s (%d)[%s:%4d] channel = %d  not init as adc \r\n\r\n"
	.align	2
.LC19:
	.string	"%s (%d)[%s:%4d] adc sampling not finish. \r\n\r\n"
	.align	2
.LC20:
	.string	"[%10u][%s: %s:%4d] error!\r\n"
	.section	.text.hosal_adc_value_get,"ax",@progbits
	.align	1
	.globl	hosal_adc_value_get
	.type	hosal_adc_value_get, @function
hosal_adc_value_get:
.LFB21:
	.loc 1 570 1 is_stmt 1
	.cfi_startproc
.LVL128:
	.loc 1 571 5
	.loc 1 572 5
	.loc 1 570 1 is_stmt 0
	addi	sp,sp,-32
	.cfi_def_cfa_offset 32
	sw	ra,28(sp)
	sw	s0,24(sp)
	sw	s1,20(sp)
	sw	s2,16(sp)
	sw	s3,12(sp)
	sw	s4,8(sp)
	sw	s5,4(sp)
	.cfi_offset 1, -4
	.cfi_offset 8, -8
	.cfi_offset 9, -12
	.cfi_offset 18, -16
	.cfi_offset 19, -20
	.cfi_offset 20, -24
	.cfi_offset 21, -28
	.loc 1 579 8
	li	a5,11
	.loc 1 572 22
	lw	s2,32(a0)
.LVL129:
	.loc 1 574 5 is_stmt 1
	.loc 1 579 5
	.loc 1 579 8 is_stmt 0
	bleu	a1,a5,.L95
	.loc 1 580 9 is_stmt 1 discriminator 1
	.loc 1 580 47 discriminator 1
	.loc 1 580 52 discriminator 1
	.loc 1 580 74 is_stmt 0 discriminator 1
	lui	a5,%hi(_fsymc_level_hosal)
	.loc 1 580 55 discriminator 1
	lw	a4,%lo(_fsymc_level_hosal)(a5)
	li	a5,4
	bleu	a4,a5,.L96
.LVL130:
.L124:
	.loc 1 591 16 discriminator 10
	li	a0,-1
.LVL131:
.L94:
	.loc 1 602 1
	lw	ra,28(sp)
	.cfi_remember_state
	.cfi_restore 1
	lw	s0,24(sp)
	.cfi_restore 8
	lw	s1,20(sp)
	.cfi_restore 9
	lw	s2,16(sp)
	.cfi_restore 18
.LVL132:
	lw	s3,12(sp)
	.cfi_restore 19
	lw	s4,8(sp)
	.cfi_restore 20
	lw	s5,4(sp)
	.cfi_restore 21
	addi	sp,sp,32
	.cfi_def_cfa_offset 0
	jr	ra
.LVL133:
.L96:
	.cfi_restore_state
	.loc 1 580 118 discriminator 3
	lui	a4,%hi(_fsymf_level_hosalhosal_adc)
	.loc 1 580 97 discriminator 3
	lw	a4,%lo(_fsymf_level_hosalhosal_adc)(a4)
	bgtu	a4,a5,.L124
	.loc 1 580 153 is_stmt 1 discriminator 5
	.loc 1 580 239 is_stmt 0 discriminator 5
	call	xPortIsInsideInterrupt
.LVL134:
	.loc 1 580 153 discriminator 5
	beq	a0,zero,.L99
	.loc 1 580 268 discriminator 7
	call	xTaskGetTickCountFromISR
.LVL135:
.L120:
	.loc 1 580 299 discriminator 8
	mv	a2,a0
	.loc 1 580 153 discriminator 8
	lui	a3,%hi(.LC1)
	lui	a1,%hi(.LC2)
	lui	a0,%hi(.LC16)
	li	a4,580
	addi	a3,a3,%lo(.LC1)
	addi	a1,a1,%lo(.LC2)
	addi	a0,a0,%lo(.LC16)
.L125:
	.loc 1 590 153 discriminator 10
	call	bl_printk
.LVL136:
	j	.L124
.L99:
	.loc 1 580 299 discriminator 8
	call	xTaskGetTickCount
.LVL137:
	j	.L120
.LVL138:
.L95:
	.loc 1 584 25
	lw	a4,16(s2)
	.loc 1 584 13
	li	a5,1
	sll	a5,a5,a1
	.loc 1 584 25
	and	a5,a5,a4
	mv	s0,a1
	.loc 1 584 5 is_stmt 1
	.loc 1 584 8 is_stmt 0
	bne	a5,zero,.L101
.LVL139:
	.loc 1 585 9 is_stmt 1 discriminator 1
	.loc 1 585 47 discriminator 1
	.loc 1 585 52 discriminator 1
	.loc 1 585 74 is_stmt 0 discriminator 1
	lui	a5,%hi(_fsymc_level_hosal)
	.loc 1 585 55 discriminator 1
	lw	a4,%lo(_fsymc_level_hosal)(a5)
	li	a5,4
	bgtu	a4,a5,.L124
	.loc 1 585 118 discriminator 3
	lui	a4,%hi(_fsymf_level_hosalhosal_adc)
	.loc 1 585 97 discriminator 3
	lw	a4,%lo(_fsymf_level_hosalhosal_adc)(a4)
	bgtu	a4,a5,.L124
	.loc 1 585 153 is_stmt 1 discriminator 5
	.loc 1 585 252 is_stmt 0 discriminator 5
	call	xPortIsInsideInterrupt
.LVL140:
	.loc 1 585 153 discriminator 5
	beq	a0,zero,.L102
	.loc 1 585 281 discriminator 7
	call	xTaskGetTickCountFromISR
.LVL141:
.L121:
	.loc 1 585 312 discriminator 8
	mv	a2,a0
	.loc 1 585 153 discriminator 8
	lui	a3,%hi(.LC1)
	lui	a1,%hi(.LC2)
	lui	a0,%hi(.LC18)
	mv	a5,s0
	li	a4,585
	addi	a3,a3,%lo(.LC1)
	addi	a1,a1,%lo(.LC2)
	addi	a0,a0,%lo(.LC18)
	call	bl_printk
.LVL142:
	j	.L124
.L102:
	.loc 1 585 312 discriminator 8
	call	xTaskGetTickCount
.LVL143:
	j	.L121
.LVL144:
.L101:
	.loc 1 589 5 is_stmt 1
	.loc 1 589 8 is_stmt 0
	lw	a5,0(s2)
	beq	a5,zero,.L117
	mv	s1,a2
.LBB44:
.LBB45:
	.loc 1 461 12
	lui	s5,%hi(.LC1)
	lui	s4,%hi(.LC4)
	lui	s3,%hi(.LC20)
.LVL145:
.L104:
.LBE45:
.LBE44:
	.loc 1 594 11 is_stmt 1
.LBB49:
.LBB46:
	.loc 1 448 17
	lw	a5,0(s2)
	addi	a4,a5,40
.LVL146:
.L108:
	.loc 1 449 9
	.loc 1 449 17 is_stmt 0
	lw	a0,0(a5)
	.loc 1 449 21
	srli	a3,a0,21
	.loc 1 449 12
	bne	s0,a3,.L107
	.loc 1 450 13 is_stmt 1
.LVL147:
	.loc 1 455 13
	.loc 1 450 18 is_stmt 0
	slli	a0,a0,16
.LVL148:
	.loc 1 455 26
	li	a5,4096
.LVL149:
	.loc 1 450 18
	srli	a0,a0,16
	.loc 1 455 26
	addi	a5,a5,-896
	mul	a0,a0,a5
	.loc 1 455 18
	srai	a0,a0,16
.LVL150:
	.loc 1 458 13 is_stmt 1
.LBE46:
.LBE49:
	j	.L94
.LVL151:
.L117:
	.loc 1 590 9 discriminator 1
	.loc 1 590 47 discriminator 1
	.loc 1 590 52 discriminator 1
	.loc 1 590 74 is_stmt 0 discriminator 1
	lui	a5,%hi(_fsymc_level_hosal)
	.loc 1 590 55 discriminator 1
	lw	a4,%lo(_fsymc_level_hosal)(a5)
	li	a5,4
	bgtu	a4,a5,.L124
	.loc 1 590 118 discriminator 3
	lui	a4,%hi(_fsymf_level_hosalhosal_adc)
	.loc 1 590 97 discriminator 3
	lw	a4,%lo(_fsymf_level_hosalhosal_adc)(a4)
	bgtu	a4,a5,.L124
	.loc 1 590 153 is_stmt 1 discriminator 5
	.loc 1 590 247 is_stmt 0 discriminator 5
	call	xPortIsInsideInterrupt
.LVL152:
	.loc 1 590 153 discriminator 5
	beq	a0,zero,.L105
	.loc 1 590 276 discriminator 7
	call	xTaskGetTickCountFromISR
.LVL153:
.L122:
	.loc 1 590 307 discriminator 8
	mv	a2,a0
	.loc 1 590 153 discriminator 8
	lui	a3,%hi(.LC1)
	lui	a1,%hi(.LC2)
	lui	a0,%hi(.LC19)
	li	a4,590
	addi	a3,a3,%lo(.LC1)
	addi	a1,a1,%lo(.LC2)
	addi	a0,a0,%lo(.LC19)
	j	.L125
.L105:
	.loc 1 590 307 discriminator 8
	call	xTaskGetTickCount
.LVL154:
	j	.L122
.LVL155:
.L107:
.LBB50:
.LBB47:
	.loc 1 448 32 is_stmt 1
	.loc 1 448 17
	.loc 1 448 5 is_stmt 0
	addi	a5,a5,4
	bne	a4,a5,.L108
	.loc 1 461 5 is_stmt 1
	.loc 1 461 10
	.loc 1 461 12
	.loc 1 461 59 is_stmt 0
	call	xPortIsInsideInterrupt
.LVL156:
	.loc 1 461 12
	beq	a0,zero,.L109
	.loc 1 461 86
	call	xTaskGetTickCountFromISR
.LVL157:
.L123:
	.loc 1 461 115
	mv	a1,a0
	.loc 1 461 12
	li	a4,461
	addi	a3,s5,%lo(.LC1)
	addi	a2,s4,%lo(.LC4)
	addi	a0,s3,%lo(.LC20)
	call	bl_printk
.LVL158:
	.loc 1 461 168 is_stmt 1
	.loc 1 461 177
	.loc 1 462 5
.LBE47:
.LBE50:
	.loc 1 595 9
	.loc 1 595 12 is_stmt 0
	beq	s1,zero,.L124
	.loc 1 598 9 is_stmt 1
	li	a0,1
	call	vTaskDelay
.LVL159:
	addi	s1,s1,-1
.LVL160:
	j	.L104
.LVL161:
.L109:
.LBB51:
.LBB48:
	.loc 1 461 115 is_stmt 0
	call	xTaskGetTickCount
.LVL162:
	j	.L123
.LBE48:
.LBE51:
	.cfi_endproc
.LFE21:
	.size	hosal_adc_value_get, .-hosal_adc_value_get
	.section	.rodata.hosal_adc_sample_cb_reg.str1.4,"aMS",@progbits,1
	.align	2
.LC21:
	.string	"[%10u][%s: %s:%4d] not support now!\r\n"
	.section	.text.hosal_adc_sample_cb_reg,"ax",@progbits
	.align	1
	.globl	hosal_adc_sample_cb_reg
	.type	hosal_adc_sample_cb_reg, @function
hosal_adc_sample_cb_reg:
.LFB22:
	.loc 1 614 1 is_stmt 1
	.cfi_startproc
.LVL163:
	.loc 1 615 5
	.loc 1 615 10
	.loc 1 615 12
	.loc 1 614 1 is_stmt 0
	addi	sp,sp,-16
	.cfi_def_cfa_offset 16
	sw	ra,12(sp)
	.cfi_offset 1, -4
	.loc 1 615 69
	call	xPortIsInsideInterrupt
.LVL164:
	.loc 1 615 12
	beq	a0,zero,.L127
	.loc 1 615 96 discriminator 1
	call	xTaskGetTickCountFromISR
.LVL165:
.L130:
	.loc 1 615 125 discriminator 2
	mv	a1,a0
	.loc 1 615 12 discriminator 2
	lui	a3,%hi(.LC1)
	lui	a2,%hi(.LC4)
	lui	a0,%hi(.LC21)
	addi	a0,a0,%lo(.LC21)
	li	a4,615
	addi	a3,a3,%lo(.LC1)
	addi	a2,a2,%lo(.LC4)
	call	bl_printk
.LVL166:
	.loc 1 615 178 is_stmt 1 discriminator 2
	.loc 1 615 187 discriminator 2
	.loc 1 616 5 discriminator 2
	.loc 1 617 1 is_stmt 0 discriminator 2
	lw	ra,12(sp)
	.cfi_remember_state
	.cfi_restore 1
	li	a0,-1
	addi	sp,sp,16
	.cfi_def_cfa_offset 0
	jr	ra
.L127:
	.cfi_restore_state
	.loc 1 615 125 discriminator 2
	call	xTaskGetTickCount
.LVL167:
	j	.L130
	.cfi_endproc
.LFE22:
	.size	hosal_adc_sample_cb_reg, .-hosal_adc_sample_cb_reg
	.section	.text.hosal_adc_start,"ax",@progbits
	.align	1
	.globl	hosal_adc_start
	.type	hosal_adc_start, @function
hosal_adc_start:
.LFB23:
	.loc 1 620 1 is_stmt 1
	.cfi_startproc
.LVL168:
	.loc 1 621 5
	.loc 1 621 10
	.loc 1 621 12
	.loc 1 620 1 is_stmt 0
	addi	sp,sp,-16
	.cfi_def_cfa_offset 16
	sw	ra,12(sp)
	.cfi_offset 1, -4
	.loc 1 621 69
	call	xPortIsInsideInterrupt
.LVL169:
	.loc 1 621 12
	beq	a0,zero,.L132
	.loc 1 621 96 discriminator 1
	call	xTaskGetTickCountFromISR
.LVL170:
.L135:
	.loc 1 621 125 discriminator 2
	mv	a1,a0
	.loc 1 621 12 discriminator 2
	lui	a3,%hi(.LC1)
	lui	a2,%hi(.LC4)
	lui	a0,%hi(.LC21)
	addi	a0,a0,%lo(.LC21)
	li	a4,621
	addi	a3,a3,%lo(.LC1)
	addi	a2,a2,%lo(.LC4)
	call	bl_printk
.LVL171:
	.loc 1 621 178 is_stmt 1 discriminator 2
	.loc 1 621 187 discriminator 2
	.loc 1 622 5 discriminator 2
	.loc 1 623 1 is_stmt 0 discriminator 2
	lw	ra,12(sp)
	.cfi_remember_state
	.cfi_restore 1
	li	a0,-1
	addi	sp,sp,16
	.cfi_def_cfa_offset 0
	jr	ra
.L132:
	.cfi_restore_state
	.loc 1 621 125 discriminator 2
	call	xTaskGetTickCount
.LVL172:
	j	.L135
	.cfi_endproc
.LFE23:
	.size	hosal_adc_start, .-hosal_adc_start
	.section	.text.hosal_adc_stop,"ax",@progbits
	.align	1
	.globl	hosal_adc_stop
	.type	hosal_adc_stop, @function
hosal_adc_stop:
.LFB24:
	.loc 1 626 1 is_stmt 1
	.cfi_startproc
.LVL173:
	.loc 1 627 4
	.loc 1 628 1 is_stmt 0
	li	a0,0
.LVL174:
	ret
	.cfi_endproc
.LFE24:
	.size	hosal_adc_stop, .-hosal_adc_stop
	.section	.text.hosal_adc_finalize,"ax",@progbits
	.align	1
	.globl	hosal_adc_finalize
	.type	hosal_adc_finalize, @function
hosal_adc_finalize:
.LFB25:
	.loc 1 631 1 is_stmt 1
	.cfi_startproc
.LVL175:
	.loc 1 632 5
	.loc 1 631 1 is_stmt 0
	addi	sp,sp,-16
	.cfi_def_cfa_offset 16
	sw	ra,12(sp)
	sw	s0,8(sp)
	sw	s1,4(sp)
	.cfi_offset 1, -4
	.cfi_offset 8, -8
	.cfi_offset 9, -12
	.loc 1 632 22
	lw	s1,32(a0)
.LVL176:
	.loc 1 634 5 is_stmt 1
	.loc 1 639 5
	.loc 1 631 1 is_stmt 0
	mv	s0,a0
	.loc 1 639 5
	lw	a0,8(s1)
.LVL177:
	call	vPortFree
.LVL178:
	.loc 1 640 5 is_stmt 1
	lw	a0,4(s1)
	call	vPortFree
.LVL179:
	.loc 1 641 5
	mv	a0,s1
	call	vPortFree
.LVL180:
	.loc 1 642 5
	call	ADC_Stop
.LVL181:
	.loc 1 643 5
	lw	a0,20(s0)
	call	hosal_dma_chan_stop
.LVL182:
	.loc 1 644 5
	lw	a0,20(s0)
	call	hosal_dma_chan_release
.LVL183:
	.loc 1 646 5
	.loc 1 647 1 is_stmt 0
	lw	ra,12(sp)
	.cfi_restore 1
	lw	s0,8(sp)
	.cfi_restore 8
.LVL184:
	lw	s1,4(sp)
	.cfi_restore 9
.LVL185:
	li	a0,0
	addi	sp,sp,16
	.cfi_def_cfa_offset 0
	jr	ra
	.cfi_endproc
.LFE25:
	.size	hosal_adc_finalize, .-hosal_adc_finalize
	.globl	_fsymf_info_hosalhosal_adc
	.section	.rodata.str1.4,"aMS",@progbits,1
	.align	2
.LC22:
	.string	"hosal.hosal_adc"
	.comm	_fsymf_level_hosalhosal_adc,4,4
	.align	2
.LC23:
	.string	"hosal"
	.weak	_fsymc_level_hosal
	.section	.rodata
	.align	2
	.set	.LANCHOR0,. + 0
.LC0:
	.word	4
	.word	5
	.word	6
	.word	9
	.word	10
	.word	11
	.word	12
	.word	13
	.word	14
	.word	15
.LC11:
	.string	""
	.ascii	"\001\002\003\004\005\007\t\n\013"
	.section	.rodata.CSWTCH.69,"a"
	.align	2
	.set	.LANCHOR1,. + 0
	.type	CSWTCH.69, @object
	.size	CSWTCH.69, 12
CSWTCH.69:
	.byte	1
	.byte	4
	.byte	5
	.byte	-1
	.byte	-1
	.byte	7
	.byte	9
	.byte	10
	.byte	0
	.byte	3
	.byte	2
	.byte	11
	.section	.sbss._fsymc_level_hosal,"aw",@nobits
	.align	2
	.type	_fsymc_level_hosal, @object
	.size	_fsymc_level_hosal, 4
_fsymc_level_hosal:
	.zero	4
	.section	.sbss.pgdevice,"aw",@nobits
	.align	2
	.set	.LANCHOR2,. + 0
	.type	pgdevice, @object
	.size	pgdevice, 4
pgdevice:
	.zero	4
	.section	.srodata.BLOG_HARD_DECLARE_DISABLE,"a"
	.align	2
	.type	BLOG_HARD_DECLARE_DISABLE, @object
	.size	BLOG_HARD_DECLARE_DISABLE, 4
BLOG_HARD_DECLARE_DISABLE:
	.zero	4
	.section	.static_blogcomponent_code.hosal,"a"
	.align	2
	.type	_fsymc_info_hosal, @object
	.size	_fsymc_info_hosal, 8
_fsymc_info_hosal:
	.word	_fsymc_level_hosal
	.word	.LC23
	.section	.static_blogfile_code.hosalhosal_adc,"a"
	.align	2
	.type	_fsymf_info_hosalhosal_adc, @object
	.size	_fsymf_info_hosalhosal_adc, 8
_fsymf_info_hosalhosal_adc:
	.word	_fsymf_level_hosalhosal_adc
	.word	.LC22
	.text
.Letext0:
	.file 2 "/mnt/d/GitHub/bl_iot_sdk_for_aithinker/toolchain/riscv/Linux/lib/gcc/riscv64-unknown-elf/10.2.0/include/stdint-gcc.h"
	.file 3 "/mnt/d/GitHub/bl_iot_sdk_for_aithinker/components/stage/blog/blog_type.h"
	.file 4 "/mnt/d/GitHub/bl_iot_sdk_for_aithinker/components/stage/blog/blog.h"
	.file 5 "/mnt/d/GitHub/bl_iot_sdk_for_aithinker/components/platform/soc/bl602/bl602_std/bl602_std/StdDriver/Inc/bl602_gpio.h"
	.file 6 "/mnt/d/GitHub/bl_iot_sdk_for_aithinker/components/platform/soc/bl602/bl602_std/bl602_std/StdDriver/Inc/bl602_common.h"
	.file 7 "/mnt/d/GitHub/bl_iot_sdk_for_aithinker/components/platform/soc/bl602/bl602_std/bl602_std/StdDriver/Inc/bl602_adc.h"
	.file 8 "/mnt/d/GitHub/bl_iot_sdk_for_aithinker/components/platform/soc/bl602/bl602_std/bl602_std/Device/Bouffalo/BL602/Peripherals/dma_reg.h"
	.file 9 "/mnt/d/GitHub/bl_iot_sdk_for_aithinker/components/platform/soc/bl602/bl602_std/bl602_std/StdDriver/Inc/bl602_dma.h"
	.file 10 "/mnt/d/GitHub/bl_iot_sdk_for_aithinker/components/platform/soc/bl602/bl602_std/bl602_std/StdDriver/Inc/bl602_glb.h"
	.file 11 "/mnt/d/GitHub/bl_iot_sdk_for_aithinker/components/platform/hosal/include/hosal_dma.h"
	.file 12 "/mnt/d/GitHub/bl_iot_sdk_for_aithinker/components/platform/hosal/include/hosal_adc.h"
	.file 13 "/mnt/d/GitHub/bl_iot_sdk_for_aithinker/components/platform/soc/bl602/bl602_std/bl602_std/Common/platform_print/bflb_platform.h"
	.file 14 "/mnt/d/GitHub/bl_iot_sdk_for_aithinker/components/platform/soc/bl602/freertos_riscv_ram/portable/GCC/RISC-V/portmacro.h"
	.file 15 "/mnt/d/GitHub/bl_iot_sdk_for_aithinker/components/platform/soc/bl602/freertos_riscv_ram/config/task.h"
	.file 16 "/mnt/d/GitHub/bl_iot_sdk_for_aithinker/components/utils/include/utils_log.h"
	.file 17 "/mnt/d/GitHub/bl_iot_sdk_for_aithinker/toolchain/riscv/Linux/riscv64-unknown-elf/include/string.h"
	.file 18 "<built-in>"