	.file	"hosal_uart.c"
	.option nopic
	.attribute arch, "rv32i2p0_m2p0_f2p0_c2p0"
	.attribute unaligned_access, 0
	.attribute stack_align, 16
	.text
.Ltext0:
	.cfi_sections	.debug_frame
	.section	.text.__uart_rx_irq,"ax",@progbits
	.align	1
	.type	__uart_rx_irq, @function
__uart_rx_irq:
.LFB10:
	.file 1 "/mnt/d/GitHub/bl_iot_sdk_for_aithinker/components/platform/hosal/bl602_hal/hosal_uart.c"
	.loc 1 90 1
	.cfi_startproc
.LVL0:
	.loc 1 91 5
	.loc 1 92 5
	.loc 1 92 13 is_stmt 0
	lw	a5,44(a0)
	.loc 1 92 8
	beq	a5,zero,.L1
	.loc 1 93 9 is_stmt 1
	lw	a0,48(a0)
.LVL1:
	jr	a5
.LVL2:
.L1:
	.loc 1 95 1 is_stmt 0
	ret
	.cfi_endproc
.LFE10:
	.size	__uart_rx_irq, .-__uart_rx_irq
	.section	.text.__uart_tx_irq,"ax",@progbits
	.align	1
	.type	__uart_tx_irq, @function
__uart_tx_irq:
.LFB11:
	.loc 1 98 1 is_stmt 1
	.cfi_startproc
.LVL3:
	.loc 1 99 5
	.loc 1 100 5
	.loc 1 100 13 is_stmt 0
	lw	a5,36(a0)
	.loc 1 100 8
	beq	a5,zero,.L3
	.loc 1 101 9 is_stmt 1
	lw	a0,40(a0)
.LVL4:
	jr	a5
.LVL5:
.L3:
	.loc 1 103 1 is_stmt 0
	ret
	.cfi_endproc
.LFE11:
	.size	__uart_tx_irq, .-__uart_tx_irq
	.section	.rodata.__uart_tx_dma_irq.str1.4,"aMS",@progbits,1
	.align	2
.LC4:
	.string	"hosal_uart.c"
	.align	2
.LC5:
	.string	"\033[31mERROR\033[0m"
	.align	2
.LC6:
	.string	"%s (%d)[%s:%4d] DMA TX TRANS ERROR\r\n\r\n"
	.section	.text.__uart_tx_dma_irq,"ax",@progbits
	.align	1
	.type	__uart_tx_dma_irq, @function
__uart_tx_dma_irq:
.LFB13:
	.loc 1 119 1 is_stmt 1
	.cfi_startproc
.LVL6:
	.loc 1 120 5
	.loc 1 119 1 is_stmt 0
	addi	sp,sp,-16
	.cfi_def_cfa_offset 16
	sw	s0,8(sp)
	sw	ra,12(sp)
	.cfi_offset 8, -8
	.cfi_offset 1, -4
	.loc 1 119 1
	mv	s0,a0
.LVL7:
	.loc 1 122 5 is_stmt 1
	.loc 1 122 8 is_stmt 0
	beq	a1,zero,.L6
	.loc 1 123 6 is_stmt 1 discriminator 1
	.loc 1 123 44 discriminator 1
	.loc 1 123 49 discriminator 1
	.loc 1 123 71 is_stmt 0 discriminator 1
	lui	a5,%hi(_fsymc_level_hosal)
	.loc 1 123 52 discriminator 1
	lw	a4,%lo(_fsymc_level_hosal)(a5)
	li	a5,4
	bgtu	a4,a5,.L6
	.loc 1 123 115 discriminator 3
	lui	a4,%hi(_fsymf_level_hosalhosal_uart)
	.loc 1 123 94 discriminator 3
	lw	a4,%lo(_fsymf_level_hosalhosal_uart)(a4)
	bgtu	a4,a5,.L6
	.loc 1 123 151 is_stmt 1 discriminator 5
	.loc 1 123 238 is_stmt 0 discriminator 5
	call	xPortIsInsideInterrupt
.LVL8:
	.loc 1 123 151 discriminator 5
	beq	a0,zero,.L7
	.loc 1 123 267 discriminator 7
	call	xTaskGetTickCountFromISR
.LVL9:
.L14:
	.loc 1 123 298 discriminator 8
	mv	a2,a0
	.loc 1 123 151 discriminator 8
	lui	a3,%hi(.LC4)
	lui	a1,%hi(.LC5)
	lui	a0,%hi(.LC6)
	li	a4,123
	addi	a3,a3,%lo(.LC4)
	addi	a1,a1,%lo(.LC5)
	addi	a0,a0,%lo(.LC6)
	call	bl_printk
.LVL10:
.L6:
	.loc 1 123 352 is_stmt 1 discriminator 11
	.loc 1 123 363 discriminator 11
	.loc 1 126 5 discriminator 11
	.loc 1 126 13 is_stmt 0 discriminator 11
	lw	a5,52(s0)
	.loc 1 126 8 discriminator 11
	beq	a5,zero,.L5
	.loc 1 127 6 is_stmt 1
	lw	a0,56(s0)
	.loc 1 129 1 is_stmt 0
	lw	s0,8(sp)
	.cfi_remember_state
	.cfi_restore 8
.LVL11:
	lw	ra,12(sp)
	.cfi_restore 1
	addi	sp,sp,16
	.cfi_def_cfa_offset 0
	.loc 1 127 6
	jr	a5
.LVL12:
.L7:
	.cfi_restore_state
	.loc 1 123 298 discriminator 8
	call	xTaskGetTickCount
.LVL13:
	j	.L14
.L5:
	.loc 1 129 1
	lw	ra,12(sp)
	.cfi_restore 1
	lw	s0,8(sp)
	.cfi_restore 8
.LVL14:
	addi	sp,sp,16
	.cfi_def_cfa_offset 0
	jr	ra
	.cfi_endproc
.LFE13:
	.size	__uart_tx_dma_irq, .-__uart_tx_dma_irq
	.section	.rodata.__uart_rx_dma_irq.str1.4,"aMS",@progbits,1
	.align	2
.LC7:
	.string	"%s (%d)[%s:%4d] DMA RX TRANS ERROR\r\n\r\n"
	.section	.text.__uart_rx_dma_irq,"ax",@progbits
	.align	1
	.type	__uart_rx_dma_irq, @function
__uart_rx_dma_irq:
.LFB12:
	.loc 1 106 1 is_stmt 1
	.cfi_startproc
.LVL15:
	.loc 1 107 5
	.loc 1 106 1 is_stmt 0
	addi	sp,sp,-16
	.cfi_def_cfa_offset 16
	sw	s0,8(sp)
	sw	ra,12(sp)
	.cfi_offset 8, -8
	.cfi_offset 1, -4
	.loc 1 106 1
	mv	s0,a0
.LVL16:
	.loc 1 109 5 is_stmt 1
	.loc 1 109 8 is_stmt 0
	beq	a1,zero,.L16
	.loc 1 110 6 is_stmt 1 discriminator 1
	.loc 1 110 44 discriminator 1
	.loc 1 110 49 discriminator 1
	.loc 1 110 71 is_stmt 0 discriminator 1
	lui	a5,%hi(_fsymc_level_hosal)
	.loc 1 110 52 discriminator 1
	lw	a4,%lo(_fsymc_level_hosal)(a5)
	li	a5,4
	bgtu	a4,a5,.L16
	.loc 1 110 115 discriminator 3
	lui	a4,%hi(_fsymf_level_hosalhosal_uart)
	.loc 1 110 94 discriminator 3
	lw	a4,%lo(_fsymf_level_hosalhosal_uart)(a4)
	bgtu	a4,a5,.L16
	.loc 1 110 151 is_stmt 1 discriminator 5
	.loc 1 110 238 is_stmt 0 discriminator 5
	call	xPortIsInsideInterrupt
.LVL17:
	.loc 1 110 151 discriminator 5
	beq	a0,zero,.L17
	.loc 1 110 267 discriminator 7
	call	xTaskGetTickCountFromISR
.LVL18:
.L24:
	.loc 1 110 298 discriminator 8
	mv	a2,a0
	.loc 1 110 151 discriminator 8
	lui	a3,%hi(.LC4)
	lui	a1,%hi(.LC5)
	lui	a0,%hi(.LC7)
	li	a4,110
	addi	a3,a3,%lo(.LC4)
	addi	a1,a1,%lo(.LC5)
	addi	a0,a0,%lo(.LC7)
	call	bl_printk
.LVL19:
.L16:
	.loc 1 110 352 is_stmt 1 discriminator 11
	.loc 1 110 363 discriminator 11
	.loc 1 113 5 discriminator 11
	.loc 1 113 13 is_stmt 0 discriminator 11
	lw	a5,60(s0)
	.loc 1 113 8 discriminator 11
	beq	a5,zero,.L15
	.loc 1 114 6 is_stmt 1
	lw	a0,64(s0)
	.loc 1 116 1 is_stmt 0
	lw	s0,8(sp)
	.cfi_remember_state
	.cfi_restore 8
.LVL20:
	lw	ra,12(sp)
	.cfi_restore 1
	addi	sp,sp,16
	.cfi_def_cfa_offset 0
	.loc 1 114 6
	jr	a5
.LVL21:
.L17:
	.cfi_restore_state
	.loc 1 110 298 discriminator 8
	call	xTaskGetTickCount
.LVL22:
	j	.L24
.L15:
	.loc 1 116 1
	lw	ra,12(sp)
	.cfi_restore 1
	lw	s0,8(sp)
	.cfi_restore 8
.LVL23:
	addi	sp,sp,16
	.cfi_def_cfa_offset 0
	jr	ra
	.cfi_endproc
.LFE12:
	.size	__uart_rx_dma_irq, .-__uart_rx_dma_irq
	.section	.text.__uart_config_set,"ax",@progbits
	.align	1
	.type	__uart_config_set, @function
__uart_config_set:
.LFB16:
	.loc 1 242 1 is_stmt 1
	.cfi_startproc
.LVL24:
	.loc 1 243 5
	.loc 1 244 5
	.loc 1 242 1 is_stmt 0
	addi	sp,sp,-64
	.cfi_def_cfa_offset 64
	sw	s0,56(sp)
	sw	s1,52(sp)
	sw	ra,60(sp)
	.cfi_offset 8, -8
	.cfi_offset 9, -12
	.cfi_offset 1, -4
	mv	s1,a1
	sw	s2,48(sp)
	.cfi_offset 18, -16
	.loc 1 246 19
	lui	a1,%hi(.LANCHOR0)
.LVL25:
	.loc 1 244 13
	lbu	s2,0(a0)
.LVL26:
	.loc 1 246 5 is_stmt 1
	.loc 1 242 1 is_stmt 0
	mv	s0,a0
	.loc 1 246 19
	li	a2,36
	addi	a1,a1,%lo(.LANCHOR0)
	addi	a0,sp,12
.LVL27:
	call	memcpy
.LVL28:
	.loc 1 259 5 is_stmt 1
	.loc 1 259 22 is_stmt 0
	lw	a5,8(s1)
	.loc 1 264 12
	lw	a4,24(s1)
	.loc 1 259 22
	sw	a5,16(sp)
	.loc 1 260 5 is_stmt 1
	.loc 1 260 22 is_stmt 0
	lw	a5,12(s1)
	sw	a5,20(sp)
	.loc 1 261 5 is_stmt 1
	.loc 1 261 60 is_stmt 0
	lw	a5,20(s1)
	addi	a5,a5,1
	.loc 1 261 22
	sw	a5,24(sp)
	.loc 1 262 5 is_stmt 1
	.loc 1 262 20 is_stmt 0
	lw	a5,16(s1)
	sw	a5,28(sp)
	.loc 1 264 5 is_stmt 1
	.loc 1 264 8 is_stmt 0
	li	a5,1
	bne	a4,a5,.L26
	.loc 1 265 6 is_stmt 1
	.loc 1 265 29 is_stmt 0
	sw	a4,32(sp)
	.loc 1 266 6 is_stmt 1
.L27:
	.loc 1 278 5
	.loc 1 278 21 is_stmt 0
	li	a5,40001536
	addi	a5,a5,-1536
	.loc 1 281 5
	li	a1,2
	mv	a0,s2
	.loc 1 278 21
	sw	a5,12(sp)
	.loc 1 281 5 is_stmt 1
	call	UART_Disable
.LVL29:
	.loc 1 284 5
	addi	a1,sp,12
	mv	a0,s2
	call	UART_Init
.LVL30:
	.loc 1 286 5
	.loc 1 286 8 is_stmt 0
	lw	a4,28(s1)
	li	a5,3
	lbu	a0,0(s0)
	bne	a4,a5,.L29
	.loc 1 287 6 is_stmt 1
	lui	a1,%hi(__uart_tx_irq)
	mv	a2,s0
	addi	a1,a1,%lo(__uart_tx_irq)
	call	bl_uart_int_tx_notify_register
.LVL31:
	.loc 1 288 6
	lbu	a0,0(s0)
	lui	a1,%hi(__uart_rx_irq)
	mv	a2,s0
	addi	a1,a1,%lo(__uart_rx_irq)
	call	bl_uart_int_rx_notify_register
.LVL32:
	.loc 1 289 6
	lbu	a0,0(s0)
	call	bl_uart_int_enable
.LVL33:
	.loc 1 290 6
	lbu	a0,0(s0)
	call	bl_uart_int_tx_disable
.LVL34:
.L30:
	.loc 1 296 5
	mv	a0,s2
	li	a1,2
	call	UART_Enable
.LVL35:
	.loc 1 297 1 is_stmt 0
	lw	ra,60(sp)
	.cfi_remember_state
	.cfi_restore 1
	lw	s0,56(sp)
	.cfi_restore 8
.LVL36:
	lw	s1,52(sp)
	.cfi_restore 9
.LVL37:
	lw	s2,48(sp)
	.cfi_restore 18
.LVL38:
	addi	sp,sp,64
	.cfi_def_cfa_offset 0
	jr	ra
.LVL39:
.L26:
	.cfi_restore_state
	.loc 1 267 12 is_stmt 1
	.loc 1 267 15 is_stmt 0
	li	a3,2
	bne	a4,a3,.L28
.L32:
	.loc 1 272 6 is_stmt 1
	.loc 1 272 33 is_stmt 0
	sw	a5,40(sp)
	j	.L27
.L28:
	.loc 1 270 12 is_stmt 1
	.loc 1 270 15 is_stmt 0
	li	a3,3
	bne	a4,a3,.L27
	.loc 1 271 6 is_stmt 1
	.loc 1 271 29 is_stmt 0
	sw	a5,32(sp)
	j	.L32
.L29:
	.loc 1 292 6 is_stmt 1
	call	bl_uart_int_disable
.LVL40:
	j	.L30
	.cfi_endproc
.LFE16:
	.size	__uart_config_set, .-__uart_config_set
	.section	.text.gpio_init.constprop.0,"ax",@progbits
	.align	1
	.type	gpio_init.constprop.0, @function
gpio_init.constprop.0:
.LFB25:
	.loc 1 19 13
	.cfi_startproc
.LVL41:
	.loc 1 21 5
	.loc 1 22 5
	.loc 1 24 5
	.loc 1 25 5
	.loc 1 26 5
	.loc 1 28 5
	.loc 1 19 13 is_stmt 0
	addi	sp,sp,-48
	.cfi_def_cfa_offset 48
	.loc 1 26 17
	li	a5,7
	.loc 1 19 13
	sw	s2,32(sp)
	sw	s3,28(sp)
	.cfi_offset 18, -16
	.cfi_offset 19, -20
	mv	s2,a0
	.loc 1 26 17
	sb	a5,9(sp)
	.loc 1 29 18
	li	s3,2
	.loc 1 24 15
	li	a5,257
	.loc 1 31 5
	addi	a0,sp,8
.LVL42:
	.loc 1 19 13
	sw	s0,40(sp)
	sw	s1,36(sp)
	sw	ra,44(sp)
	.cfi_offset 8, -8
	.cfi_offset 9, -12
	.cfi_offset 1, -4
	.loc 1 19 13
	mv	s1,a1
	mv	s0,a2
	.loc 1 28 17
	sb	a2,8(sp)
	.loc 1 29 5 is_stmt 1
	.loc 1 30 5
	.loc 1 29 18 is_stmt 0
	sh	s3,10(sp)
	.loc 1 24 15
	sh	a5,12(sp)
	.loc 1 31 5 is_stmt 1
	call	GLB_GPIO_Init
.LVL43:
	.loc 1 33 5
	.loc 1 36 5 is_stmt 0
	addi	a0,sp,8
	.loc 1 33 17
	sb	s1,8(sp)
	.loc 1 34 5 is_stmt 1
	.loc 1 35 5
	.loc 1 34 18 is_stmt 0
	sh	s3,10(sp)
	.loc 1 36 5 is_stmt 1
	call	GLB_GPIO_Init
.LVL44:
	.loc 1 39 5
	.loc 1 39 8 is_stmt 0
	beq	s2,zero,.L35
	.loc 1 44 19
	li	s2,7
	.loc 1 43 19
	li	a1,6
.L34:
.LVL45:
	.loc 1 50 5 is_stmt 1
	andi	a0,s1,7
	call	GLB_UART_Fun_Sel
.LVL46:
	.loc 1 51 5
	mv	a1,s2
	andi	a0,s0,7
	call	GLB_UART_Fun_Sel
.LVL47:
	.loc 1 52 1 is_stmt 0
	lw	ra,44(sp)
	.cfi_remember_state
	.cfi_restore 1
	lw	s0,40(sp)
	.cfi_restore 8
	lw	s1,36(sp)
	.cfi_restore 9
	lw	s2,32(sp)
	.cfi_restore 18
.LVL48:
	lw	s3,28(sp)
	.cfi_restore 19
	addi	sp,sp,48
	.cfi_def_cfa_offset 0
	jr	ra
.L35:
	.cfi_restore_state
	.loc 1 41 19
	li	s2,3
	.loc 1 40 19
	li	a1,2
	j	.L34
	.cfi_endproc
.LFE25:
	.size	gpio_init.constprop.0, .-gpio_init.constprop.0
	.section	.rodata.hosal_uart_abr_get.str1.4,"aMS",@progbits,1
	.align	2
.LC8:
	.string	"%s (%d)[%s:%4d] param is error !\r\n\r\n"
	.section	.text.hosal_uart_abr_get,"ax",@progbits
	.align	1
	.globl	hosal_uart_abr_get
	.type	hosal_uart_abr_get, @function
hosal_uart_abr_get:
.LFB17:
	.loc 1 300 1 is_stmt 1
	.cfi_startproc
.LVL49:
	.loc 1 301 5
	.loc 1 302 5
	.loc 1 303 5
	.loc 1 304 5
	.loc 1 305 5
	.loc 1 307 5
	.loc 1 309 5
	.loc 1 300 1 is_stmt 0
	addi	sp,sp,-32
	.cfi_def_cfa_offset 32
	sw	ra,28(sp)
	sw	s0,24(sp)
	sw	s1,20(sp)
	sw	s2,16(sp)
	sw	s3,12(sp)
	.cfi_offset 1, -4
	.cfi_offset 8, -8
	.cfi_offset 9, -12
	.cfi_offset 18, -16
	.cfi_offset 19, -20
	.loc 1 309 8
	bne	a0,zero,.L38
	.loc 1 310 9 is_stmt 1 discriminator 1
	.loc 1 310 47 discriminator 1
	.loc 1 310 52 discriminator 1
	.loc 1 310 74 is_stmt 0 discriminator 1
	lui	a5,%hi(_fsymc_level_hosal)
	.loc 1 310 55 discriminator 1
	lw	a4,%lo(_fsymc_level_hosal)(a5)
	li	a5,4
	.loc 1 311 16 discriminator 1
	li	a0,-1
.LVL50:
	.loc 1 310 55 discriminator 1
	bgtu	a4,a5,.L37
	.loc 1 310 118 discriminator 3
	lui	a4,%hi(_fsymf_level_hosalhosal_uart)
	.loc 1 310 97 discriminator 3
	lw	a4,%lo(_fsymf_level_hosalhosal_uart)(a4)
	bgtu	a4,a5,.L37
	.loc 1 310 154 is_stmt 1 discriminator 5
	.loc 1 310 239 is_stmt 0 discriminator 5
	call	xPortIsInsideInterrupt
.LVL51:
	.loc 1 310 154 discriminator 5
	beq	a0,zero,.L40
	.loc 1 310 268 discriminator 7
	call	xTaskGetTickCountFromISR
.LVL52:
.L52:
	.loc 1 310 299 discriminator 8
	mv	a2,a0
	.loc 1 310 154 discriminator 8
	lui	a3,%hi(.LC4)
	lui	a1,%hi(.LC5)
	lui	a0,%hi(.LC8)
	addi	a0,a0,%lo(.LC8)
	li	a4,310
	addi	a3,a3,%lo(.LC4)
	addi	a1,a1,%lo(.LC5)
	call	bl_printk
.LVL53:
	.loc 1 311 16 discriminator 8
	li	a0,-1
.LVL54:
.L37:
	.loc 1 354 1
	lw	ra,28(sp)
	.cfi_remember_state
	.cfi_restore 1
	lw	s0,24(sp)
	.cfi_restore 8
	lw	s1,20(sp)
	.cfi_restore 9
	lw	s2,16(sp)
	.cfi_restore 18
	lw	s3,12(sp)
	.cfi_restore 19
	addi	sp,sp,32
	.cfi_def_cfa_offset 0
	jr	ra
.LVL55:
.L40:
	.cfi_restore_state
	.loc 1 310 299 discriminator 8
	call	xTaskGetTickCount
.LVL56:
	j	.L52
.LVL57:
.L38:
	.loc 1 314 8
	lbu	s1,4(a0)
	.loc 1 316 5
	li	a2,3
	mv	s2,a0
	mv	s3,a1
	.loc 1 314 5 is_stmt 1
.LVL58:
	.loc 1 316 5
	li	a0,1
.LVL59:
	li	a1,1
.LVL60:
	call	GLB_Set_UART_CLK
.LVL61:
	.loc 1 318 5
	li	a1,1
	mv	a0,s1
	call	UART_TxFreeRun
.LVL62:
	.loc 1 321 5
	li	a1,0
	mv	a0,s1
	call	UART_AutoBaudDetection
.LVL63:
	.loc 1 322 5
	li	a1,2
	mv	a0,s1
	call	UART_Disable
.LVL64:
	.loc 1 323 5
	lbu	a2,6(s2)
	lbu	a1,5(s2)
	mv	a0,s1
	call	gpio_init.constprop.0
.LVL65:
	.loc 1 325 5
	li	a1,1
	mv	a0,s1
	call	UART_IntClear
.LVL66:
	.loc 1 326 5
	li	a1,1
	mv	a0,s1
	call	UART_AutoBaudDetection
.LVL67:
	.loc 1 327 5
	li	a1,2
	mv	a0,s1
	call	UART_Enable
.LVL68:
	.loc 1 330 5
.L42:
	.loc 1 330 60 discriminator 1
	.loc 1 330 11 discriminator 1
	.loc 1 330 12 is_stmt 0 discriminator 1
	li	a1,1
	mv	a0,s1
	call	UART_GetIntStatus
.LVL69:
	.loc 1 330 11 discriminator 1
	li	a5,1
	bne	a0,a5,.L42
	.loc 1 332 5 is_stmt 1
	.loc 1 332 8 is_stmt 0
	li	a5,2
	.loc 1 333 66
	li	a1,1
	.loc 1 332 8
	beq	s3,a5,.L53
	.loc 1 335 12 is_stmt 1
	.loc 1 303 14 is_stmt 0
	li	s0,0
	.loc 1 335 15
	bne	s3,a0,.L44
	.loc 1 336 9 is_stmt 1
	.loc 1 336 61 is_stmt 0
	li	a1,0
.L53:
	mv	a0,s1
	call	UART_GetAutoBaudCount
.LVL70:
	.loc 1 336 58
	li	s0,40001536
	.loc 1 336 107
	addi	a0,a0,1
	.loc 1 336 58
	addi	s0,s0,-1536
	div	s0,s0,a0
.LVL71:
	.loc 1 337 9 is_stmt 1
.L44:
	.loc 1 338 12
	.loc 1 340 5
	li	a1,0
	mv	a0,s1
	call	UART_AutoBaudDetection
.LVL72:
	.loc 1 343 5
	.loc 1 343 23 is_stmt 0
	li	a5,-1249280
	addi	a5,a5,-721
	.loc 1 343 7
	li	a4,499712
	.loc 1 343 23
	add	a5,s0,a5
	.loc 1 343 7
	addi	a4,a4,287
	bgtu	a5,a4,.L45
	.loc 1 344 9 is_stmt 1
	.loc 1 344 24 is_stmt 0
	li	a5,1499136
	addi	a5,a5,864
.L55:
	.loc 1 346 24
	sw	a5,12(s2)
.L54:
	.loc 1 353 12
	li	a0,0
	j	.L37
.L45:
	.loc 1 345 11 is_stmt 1
	.loc 1 345 29 is_stmt 0
	li	a5,-1748992
	addi	a5,a5,-1009
	add	a5,s0,a5
	.loc 1 345 13
	bgtu	a5,a4,.L46
	.loc 1 346 9 is_stmt 1
	.loc 1 346 24 is_stmt 0
	li	a5,1998848
	addi	a5,a5,1152
	j	.L55
.L46:
	.loc 1 348 9 is_stmt 1
	.loc 1 348 24 is_stmt 0
	sw	s0,12(s2)
	j	.L54
	.cfi_endproc
.LFE17:
	.size	hosal_uart_abr_get, .-hosal_uart_abr_get
	.section	.text.hosal_uart_init,"ax",@progbits
	.align	1
	.globl	hosal_uart_init
	.type	hosal_uart_init, @function
hosal_uart_init:
.LFB18:
	.loc 1 357 1 is_stmt 1
	.cfi_startproc
.LVL73:
	.loc 1 358 5
	.loc 1 359 5
	.loc 1 360 5
	.loc 1 357 1 is_stmt 0
	addi	sp,sp,-64
	.cfi_def_cfa_offset 64
	.loc 1 363 19
	lui	a1,%hi(.LANCHOR0)
	.loc 1 357 1
	sw	s0,56(sp)
	sw	s1,52(sp)
	.loc 1 363 19
	li	a2,36
	.cfi_offset 8, -8
	.cfi_offset 9, -12
	addi	s1,a1,%lo(.LANCHOR0)
	.loc 1 357 1
	mv	s0,a0
.LVL74:
	.loc 1 361 5 is_stmt 1
	.loc 1 363 5
	.loc 1 363 19 is_stmt 0
	addi	a1,a1,%lo(.LANCHOR0)
	addi	a0,sp,12
.LVL75:
	.loc 1 357 1
	sw	ra,60(sp)
	.cfi_offset 1, -4
	.loc 1 363 19
	call	memcpy
.LVL76:
	.loc 1 375 5 is_stmt 1
	.loc 1 375 23 is_stmt 0
	addi	a1,s1,36
	li	a2,12
	mv	a0,sp
	.loc 1 384 11
	lui	s1,%hi(.LANCHOR1)
	.loc 1 375 23
	call	memcpy
.LVL77:
	.loc 1 384 5 is_stmt 1
	.loc 1 384 11 is_stmt 0
	addi	s1,s1,%lo(.LANCHOR1)
	.loc 1 384 8
	lbu	a5,0(s1)
	bne	a5,zero,.L57
	.loc 1 385 9 is_stmt 1
	li	a2,3
	li	a1,1
	li	a0,1
	call	GLB_Set_UART_CLK
.LVL78:
	.loc 1 386 9
	.loc 1 386 23 is_stmt 0
	li	a5,1
	sb	a5,0(s1)
.L57:
	.loc 1 389 5 is_stmt 1
	.loc 1 391 8 is_stmt 0
	lbu	s1,4(s0)
	.loc 1 395 5
	lbu	a2,6(s0)
	lbu	a1,5(s0)
	.loc 1 389 23
	li	a5,-1
	sw	a5,72(s0)
	.loc 1 390 5 is_stmt 1
	.loc 1 390 23 is_stmt 0
	sw	a5,68(s0)
	.loc 1 391 5 is_stmt 1
.LVL79:
	.loc 1 392 5
	.loc 1 392 16 is_stmt 0
	sb	s1,0(s0)
	.loc 1 395 5 is_stmt 1
	mv	a0,s1
	call	gpio_init.constprop.0
.LVL80:
	.loc 1 397 5
	.loc 1 397 22 is_stmt 0
	lw	a5,12(s0)
	.loc 1 401 12
	lw	a4,28(s0)
	.loc 1 397 22
	sw	a5,16(sp)
	.loc 1 398 5 is_stmt 1
	.loc 1 398 22 is_stmt 0
	lw	a5,16(s0)
	sw	a5,20(sp)
	.loc 1 399 5 is_stmt 1
	.loc 1 399 20 is_stmt 0
	lw	a5,20(s0)
	sw	a5,28(sp)
	.loc 1 401 5 is_stmt 1
	.loc 1 401 8 is_stmt 0
	li	a5,1
	bne	a4,a5,.L58
	.loc 1 402 6 is_stmt 1
	.loc 1 402 29 is_stmt 0
	sw	a4,32(sp)
	.loc 1 403 6 is_stmt 1
.L66:
	.loc 1 412 6
	.loc 1 412 33 is_stmt 0
	sw	zero,40(sp)
	j	.L59
.L58:
	.loc 1 404 12 is_stmt 1
	.loc 1 404 15 is_stmt 0
	li	a3,2
	bne	a4,a3,.L60
	.loc 1 405 6 is_stmt 1
	.loc 1 405 29 is_stmt 0
	sw	zero,32(sp)
	.loc 1 406 6 is_stmt 1
.L67:
	.loc 1 409 6
	.loc 1 409 33 is_stmt 0
	sw	a5,40(sp)
.L59:
	.loc 1 415 5 is_stmt 1
	.loc 1 415 21 is_stmt 0
	li	a5,40001536
	addi	a5,a5,-1536
	.loc 1 418 5
	li	a2,1
	li	a1,8
	mv	a0,s1
	.loc 1 415 21
	sw	a5,12(sp)
	.loc 1 418 5 is_stmt 1
	call	UART_IntMask
.LVL81:
	.loc 1 421 5
	li	a1,2
	mv	a0,s1
	call	UART_Disable
.LVL82:
	.loc 1 423 5
	.loc 1 423 9 is_stmt 0
	mv	a0,s1
	call	UART_GetRxBusBusyStatus
.LVL83:
	.loc 1 423 8
	li	a5,1
	bne	a0,a5,.L62
	.loc 1 424 9 is_stmt 1
	mv	a0,s1
	call	UART_DeInit
.LVL84:
.L62:
	.loc 1 428 5
	addi	a1,sp,12
	mv	a0,s1
	call	UART_Init
.LVL85:
	.loc 1 431 5
	li	a1,1
	mv	a0,s1
	call	UART_TxFreeRun
.LVL86:
	.loc 1 434 5
	mv	a1,sp
	mv	a0,s1
	call	UART_FifoConfig
.LVL87:
	.loc 1 436 5
	.loc 1 436 8 is_stmt 0
	lw	a4,32(s0)
	li	a5,3
	lbu	a0,0(s0)
	bne	a4,a5,.L63
	.loc 1 437 6 is_stmt 1
	lui	a1,%hi(__uart_tx_irq)
	mv	a2,s0
	addi	a1,a1,%lo(__uart_tx_irq)
	call	bl_uart_int_tx_notify_register
.LVL88:
	.loc 1 438 6
	lbu	a0,0(s0)
	lui	a1,%hi(__uart_rx_irq)
	mv	a2,s0
	addi	a1,a1,%lo(__uart_rx_irq)
	call	bl_uart_int_rx_notify_register
.LVL89:
	.loc 1 439 6
	lbu	a0,0(s0)
	call	bl_uart_int_enable
.LVL90:
	.loc 1 440 6
	lbu	a0,0(s0)
	call	bl_uart_int_tx_disable
.LVL91:
.L64:
	.loc 1 446 5
	mv	a0,s1
	li	a1,2
	call	UART_Enable
.LVL92:
	.loc 1 447 5
	.loc 1 448 1 is_stmt 0
	lw	ra,60(sp)
	.cfi_remember_state
	.cfi_restore 1
	lw	s0,56(sp)
	.cfi_restore 8
.LVL93:
	lw	s1,52(sp)
	.cfi_restore 9
.LVL94:
	li	a0,0
	addi	sp,sp,64
	.cfi_def_cfa_offset 0
	jr	ra
.LVL95:
.L60:
	.cfi_restore_state
	.loc 1 407 12 is_stmt 1
	.loc 1 407 15 is_stmt 0
	li	a3,3
	bne	a4,a3,.L61
	.loc 1 408 6 is_stmt 1
	.loc 1 408 29 is_stmt 0
	sw	a5,32(sp)
	j	.L67
.L61:
	.loc 1 411 6 is_stmt 1
	.loc 1 411 29 is_stmt 0
	sw	zero,32(sp)
	j	.L66
.L63:
	.loc 1 442 6 is_stmt 1
	call	bl_uart_int_disable
.LVL96:
	j	.L64
	.cfi_endproc
.LFE18:
	.size	hosal_uart_init, .-hosal_uart_init
	.section	.text.hosal_uart_init_only_tx,"ax",@progbits
	.align	1
	.globl	hosal_uart_init_only_tx
	.type	hosal_uart_init_only_tx, @function
hosal_uart_init_only_tx:
.LFB19:
	.loc 1 451 1
	.cfi_startproc
.LVL97:
	.loc 1 452 5
	.loc 1 453 5
	.loc 1 454 5
	.loc 1 451 1 is_stmt 0
	addi	sp,sp,-80
	.cfi_def_cfa_offset 80
	.loc 1 457 19
	lui	a1,%hi(.LANCHOR0)
	.loc 1 451 1
	sw	s0,72(sp)
	sw	s1,68(sp)
	.loc 1 457 19
	li	a2,36
	.cfi_offset 8, -8
	.cfi_offset 9, -12
	addi	s1,a1,%lo(.LANCHOR0)
	.loc 1 451 1
	mv	s0,a0
.LVL98:
	.loc 1 455 5 is_stmt 1
	.loc 1 457 5
	.loc 1 457 19 is_stmt 0
	addi	a1,a1,%lo(.LANCHOR0)
	addi	a0,sp,28
.LVL99:
	.loc 1 451 1
	sw	ra,76(sp)
	sw	s2,64(sp)
	.cfi_offset 1, -4
	.cfi_offset 18, -16
	.loc 1 457 19
	call	memcpy
.LVL100:
	.loc 1 469 5 is_stmt 1
	.loc 1 469 23 is_stmt 0
	addi	a1,s1,36
	li	a2,12
	addi	a0,sp,16
	.loc 1 478 11
	lui	s1,%hi(.LANCHOR2)
	.loc 1 469 23
	call	memcpy
.LVL101:
	.loc 1 478 5 is_stmt 1
	.loc 1 478 11 is_stmt 0
	addi	s1,s1,%lo(.LANCHOR2)
	.loc 1 478 8
	lbu	a5,0(s1)
	bne	a5,zero,.L69
	.loc 1 479 9 is_stmt 1
	li	a2,3
	li	a1,1
	li	a0,1
	call	GLB_Set_UART_CLK
.LVL102:
	.loc 1 480 9
	.loc 1 480 23 is_stmt 0
	li	a5,1
	sb	a5,0(s1)
.L69:
	.loc 1 483 5 is_stmt 1
	.loc 1 483 23 is_stmt 0
	li	a5,-1
	.loc 1 485 8
	lbu	s1,4(s0)
	.loc 1 489 5
	lbu	s2,5(s0)
	.loc 1 483 23
	sw	a5,72(s0)
	.loc 1 484 5 is_stmt 1
	.loc 1 484 23 is_stmt 0
	sw	a5,68(s0)
	.loc 1 485 5 is_stmt 1
.LVL103:
	.loc 1 486 5
.LBB4:
.LBB5:
	.loc 1 61 17 is_stmt 0
	li	a5,7
	sb	a5,9(sp)
	.loc 1 69 18
	li	a5,2
	sh	a5,10(sp)
.LBE5:
.LBE4:
	.loc 1 486 16
	sb	s1,0(s0)
	.loc 1 489 5 is_stmt 1
.LVL104:
.LBB7:
.LBB6:
	.loc 1 56 5
	.loc 1 57 5
	.loc 1 59 5
	.loc 1 60 5
	.loc 1 61 5
	.loc 1 68 5
	.loc 1 59 15 is_stmt 0
	li	a5,257
	.loc 1 71 5
	addi	a0,sp,8
	.loc 1 68 17
	sb	s2,8(sp)
	.loc 1 69 5 is_stmt 1
	.loc 1 70 5
	.loc 1 59 15 is_stmt 0
	sh	a5,12(sp)
	.loc 1 71 5 is_stmt 1
	call	GLB_GPIO_Init
.LVL105:
	.loc 1 74 5
	.loc 1 75 19 is_stmt 0
	li	a1,2
	.loc 1 74 8
	beq	s1,zero,.L70
	.loc 1 78 19
	li	a1,6
.L70:
.LVL106:
	.loc 1 85 5 is_stmt 1
	andi	a0,s2,7
	call	GLB_UART_Fun_Sel
.LVL107:
.LBE6:
.LBE7:
	.loc 1 491 5
	.loc 1 491 22 is_stmt 0
	lw	a5,12(s0)
	.loc 1 495 12
	lw	a4,28(s0)
	.loc 1 491 22
	sw	a5,32(sp)
	.loc 1 492 5 is_stmt 1
	.loc 1 492 22 is_stmt 0
	lw	a5,16(s0)
	sw	a5,36(sp)
	.loc 1 493 5 is_stmt 1
	.loc 1 493 20 is_stmt 0
	lw	a5,20(s0)
	sw	a5,44(sp)
	.loc 1 495 5 is_stmt 1
	.loc 1 495 8 is_stmt 0
	li	a5,1
	bne	a4,a5,.L71
	.loc 1 496 6 is_stmt 1
	.loc 1 496 29 is_stmt 0
	sw	a4,48(sp)
	.loc 1 497 6 is_stmt 1
.L81:
	.loc 1 506 6
	.loc 1 506 33 is_stmt 0
	sw	zero,56(sp)
	j	.L72
.L71:
	.loc 1 498 12 is_stmt 1
	.loc 1 498 15 is_stmt 0
	li	a3,2
	bne	a4,a3,.L73
	.loc 1 499 6 is_stmt 1
	.loc 1 499 29 is_stmt 0
	sw	zero,48(sp)
	.loc 1 500 6 is_stmt 1
.L82:
	.loc 1 503 6
	.loc 1 503 33 is_stmt 0
	sw	a5,56(sp)
.L72:
	.loc 1 509 5 is_stmt 1
	.loc 1 509 21 is_stmt 0
	li	a5,40001536
	addi	a5,a5,-1536
	.loc 1 512 5
	li	a2,1
	li	a1,8
	mv	a0,s1
	.loc 1 509 21
	sw	a5,28(sp)
	.loc 1 512 5 is_stmt 1
	call	UART_IntMask
.LVL108:
	.loc 1 515 5
	li	a1,2
	mv	a0,s1
	call	UART_Disable
.LVL109:
	.loc 1 517 5
	.loc 1 517 9 is_stmt 0
	mv	a0,s1
	call	UART_GetRxBusBusyStatus
.LVL110:
	.loc 1 517 8
	li	a5,1
	bne	a0,a5,.L75
	.loc 1 518 9 is_stmt 1
	mv	a0,s1
	call	UART_DeInit
.LVL111:
.L75:
	.loc 1 522 5
	addi	a1,sp,28
	mv	a0,s1
	call	UART_Init
.LVL112:
	.loc 1 525 5
	li	a1,1
	mv	a0,s1
	call	UART_TxFreeRun
.LVL113:
	.loc 1 528 5
	addi	a1,sp,16
	mv	a0,s1
	call	UART_FifoConfig
.LVL114:
	.loc 1 530 5
	.loc 1 530 8 is_stmt 0
	lw	a4,32(s0)
	li	a5,3
	lbu	a0,0(s0)
	bne	a4,a5,.L76
	.loc 1 531 6 is_stmt 1
	lui	a1,%hi(__uart_tx_irq)
	mv	a2,s0
	addi	a1,a1,%lo(__uart_tx_irq)
	call	bl_uart_int_tx_notify_register
.LVL115:
	.loc 1 532 6
	lbu	a0,0(s0)
	lui	a1,%hi(__uart_rx_irq)
	mv	a2,s0
	addi	a1,a1,%lo(__uart_rx_irq)
	call	bl_uart_int_rx_notify_register
.LVL116:
	.loc 1 533 6
	lbu	a0,0(s0)
	call	bl_uart_int_enable
.LVL117:
	.loc 1 534 6
	lbu	a0,0(s0)
	call	bl_uart_int_tx_disable
.LVL118:
.L77:
	.loc 1 540 5
	mv	a0,s1
	li	a1,0
	call	UART_Enable
.LVL119:
	.loc 1 541 5
	.loc 1 542 1 is_stmt 0
	lw	ra,76(sp)
	.cfi_remember_state
	.cfi_restore 1
	lw	s0,72(sp)
	.cfi_restore 8
.LVL120:
	lw	s1,68(sp)
	.cfi_restore 9
.LVL121:
	lw	s2,64(sp)
	.cfi_restore 18
	li	a0,0
	addi	sp,sp,80
	.cfi_def_cfa_offset 0
	jr	ra
.LVL122:
.L73:
	.cfi_restore_state
	.loc 1 501 12 is_stmt 1
	.loc 1 501 15 is_stmt 0
	li	a3,3
	bne	a4,a3,.L74
	.loc 1 502 6 is_stmt 1
	.loc 1 502 29 is_stmt 0
	sw	a5,48(sp)
	j	.L82
.L74:
	.loc 1 505 6 is_stmt 1
	.loc 1 505 29 is_stmt 0
	sw	zero,48(sp)
	j	.L81
.L76:
	.loc 1 536 6 is_stmt 1
	call	bl_uart_int_disable
.LVL123:
	j	.L77
	.cfi_endproc
.LFE19:
	.size	hosal_uart_init_only_tx, .-hosal_uart_init_only_tx
	.section	.text.hosal_uart_receive,"ax",@progbits
	.align	1
	.globl	hosal_uart_receive
	.type	hosal_uart_receive, @function
hosal_uart_receive:
.LFB20:
	.loc 1 545 1
	.cfi_startproc
.LVL124:
	.loc 1 546 5
	.loc 1 547 5
	.loc 1 549 5
	.loc 1 545 1 is_stmt 0
	addi	sp,sp,-32
	.cfi_def_cfa_offset 32
	sw	s0,24(sp)
	sw	s1,20(sp)
	sw	s2,16(sp)
	sw	s3,12(sp)
	sw	ra,28(sp)
	.cfi_offset 8, -8
	.cfi_offset 9, -12
	.cfi_offset 18, -16
	.cfi_offset 19, -20
	.cfi_offset 1, -4
	.loc 1 545 1
	mv	s2,a0
	mv	s3,a1
	mv	s1,a2
	.loc 1 547 14
	li	s0,0
.LVL125:
.L84:
	.loc 1 549 11 is_stmt 1
	bne	s0,s1,.L86
.L88:
	.loc 1 557 1 is_stmt 0
	lw	ra,28(sp)
	.cfi_remember_state
	.cfi_restore 1
	mv	a0,s0
	lw	s0,24(sp)
	.cfi_restore 8
.LVL126:
	lw	s1,20(sp)
	.cfi_restore 9
.LVL127:
	lw	s2,16(sp)
	.cfi_restore 18
.LVL128:
	lw	s3,12(sp)
	.cfi_restore 19
.LVL129:
	addi	sp,sp,32
	.cfi_def_cfa_offset 0
	jr	ra
.LVL130:
.L86:
	.cfi_restore_state
	.loc 1 550 9 is_stmt 1
	.loc 1 550 19 is_stmt 0
	lbu	a0,0(s2)
	call	bl_uart_data_recv
.LVL131:
	.loc 1 550 12
	blt	a0,zero,.L88
	.loc 1 553 9 is_stmt 1
	.loc 1 553 35 is_stmt 0
	add	a5,s3,s0
	sb	a0,0(a5)
	.loc 1 554 9 is_stmt 1
	.loc 1 554 16 is_stmt 0
	addi	s0,s0,1
.LVL132:
	j	.L84
	.cfi_endproc
.LFE20:
	.size	hosal_uart_receive, .-hosal_uart_receive
	.section	.text.hosal_uart_send,"ax",@progbits
	.align	1
	.globl	hosal_uart_send
	.type	hosal_uart_send, @function
hosal_uart_send:
.LFB21:
	.loc 1 560 1 is_stmt 1
	.cfi_startproc
.LVL133:
	addi	sp,sp,-32
	.cfi_def_cfa_offset 32
	sw	s0,24(sp)
	sw	s1,20(sp)
	sw	s2,16(sp)
	sw	s3,12(sp)
	sw	ra,28(sp)
	.cfi_offset 8, -8
	.cfi_offset 9, -12
	.cfi_offset 18, -16
	.cfi_offset 19, -20
	.cfi_offset 1, -4
	.loc 1 560 1 is_stmt 0
	mv	s2,a0
	.loc 1 561 5 is_stmt 1
.LVL134:
	.loc 1 563 5
	.loc 1 560 1 is_stmt 0
	mv	s1,a2
	mv	s0,a1
	add	s3,a1,a2
.LVL135:
.L91:
	.loc 1 563 11 is_stmt 1
	bne	s0,s3,.L92
	.loc 1 567 5
	.loc 1 568 1 is_stmt 0
	lw	ra,28(sp)
	.cfi_remember_state
	.cfi_restore 1
	lw	s0,24(sp)
	.cfi_restore 8
.LVL136:
	lw	s2,16(sp)
	.cfi_restore 18
.LVL137:
	lw	s3,12(sp)
	.cfi_restore 19
	mv	a0,s1
	lw	s1,20(sp)
	.cfi_restore 9
.LVL138:
	addi	sp,sp,32
	.cfi_def_cfa_offset 0
	jr	ra
.LVL139:
.L92:
	.cfi_restore_state
	.loc 1 564 9 is_stmt 1
	lbu	a1,0(s0)
	lbu	a0,0(s2)
	addi	s0,s0,1
.LVL140:
	call	bl_uart_data_send
.LVL141:
	.loc 1 565 9
	j	.L91
	.cfi_endproc
.LFE21:
	.size	hosal_uart_send, .-hosal_uart_send
	.section	.rodata.hosal_uart_ioctl.str1.4,"aMS",@progbits,1
	.align	2
.LC9:
	.string	"%s (%d)[%s:%4d] dma_tx_chan request failed !\r\n\r\n"
	.align	2
.LC10:
	.string	"%s (%d)[%s:%4d] dma_rx_chan request failed !\r\n\r\n"
	.section	.text.hosal_uart_ioctl,"ax",@progbits
	.align	1
	.globl	hosal_uart_ioctl
	.type	hosal_uart_ioctl, @function
hosal_uart_ioctl:
.LFB22:
	.loc 1 571 1
	.cfi_startproc
.LVL142:
	.loc 1 572 2
	.loc 1 574 5
	.loc 1 571 1 is_stmt 0
	addi	sp,sp,-80
	.cfi_def_cfa_offset 80
	sw	ra,76(sp)
	sw	s0,72(sp)
	sw	s1,68(sp)
	sw	s2,64(sp)
	.cfi_offset 1, -4
	.cfi_offset 8, -8
	.cfi_offset 9, -12
	.cfi_offset 18, -16
	addi	a1,a1,-1
.LVL143:
	li	a5,18
	bgtu	a1,a5,.L132
	lui	a5,%hi(.L97)
	addi	a5,a5,%lo(.L97)
	slli	a1,a1,2
.LVL144:
	add	a1,a1,a5
	lw	a5,0(a1)
	mv	s0,a0
	mv	s2,a2
	jr	a5
	.section	.rodata.hosal_uart_ioctl,"a",@progbits
	.align	2
	.align	2
.L97:
	.word	.L115
	.word	.L114
	.word	.L113
	.word	.L112
	.word	.L111
	.word	.L110
	.word	.L109
	.word	.L108
	.word	.L107
	.word	.L106
	.word	.L105
	.word	.L104
	.word	.L103
	.word	.L102
	.word	.L101
	.word	.L100
	.word	.L99
	.word	.L98
	.word	.L96
	.section	.text.hosal_uart_ioctl
.L115:
	.loc 1 576 9 is_stmt 1
	.loc 1 576 32 is_stmt 0
	sw	a2,12(s0)
	.loc 1 577 9 is_stmt 1
.LVL145:
.L158:
	.loc 1 586 9
	addi	a1,s0,4
	mv	a0,s0
	call	__uart_config_set
.LVL146:
.L159:
	.loc 1 587 9
	.loc 1 665 12 is_stmt 0
	li	s1,0
.LVL147:
.L94:
	.loc 1 666 1
	lw	ra,76(sp)
	.cfi_remember_state
	.cfi_restore 1
	lw	s0,72(sp)
	.cfi_restore 8
	lw	s2,64(sp)
	.cfi_restore 18
	mv	a0,s1
	lw	s1,68(sp)
	.cfi_restore 9
	addi	sp,sp,80
	.cfi_def_cfa_offset 0
	jr	ra
.LVL148:
.L114:
	.cfi_restore_state
	.loc 1 580 9 is_stmt 1
	.loc 1 665 12 is_stmt 0
	li	s1,0
	.loc 1 580 12
	beq	a2,zero,.L94
	.loc 1 581 13 is_stmt 1
	.loc 1 581 46 is_stmt 0
	lw	a5,12(a0)
.L160:
	.loc 1 590 47
	sw	a5,0(s2)
	j	.L94
.L113:
	.loc 1 585 9 is_stmt 1
	.loc 1 585 33 is_stmt 0
	sw	a2,16(s0)
	j	.L158
.L112:
	.loc 1 589 9 is_stmt 1
	.loc 1 665 12 is_stmt 0
	li	s1,0
	.loc 1 589 12
	beq	a2,zero,.L94
	.loc 1 590 13 is_stmt 1
	.loc 1 590 61 is_stmt 0
	lw	a5,16(a0)
	j	.L160
.L111:
	.loc 1 594 9 is_stmt 1
	.loc 1 594 32 is_stmt 0
	sw	a2,24(s0)
	.loc 1 595 9 is_stmt 1
	j	.L158
.L110:
	.loc 1 598 9
	.loc 1 665 12 is_stmt 0
	li	s1,0
	.loc 1 598 12
	beq	a2,zero,.L94
	.loc 1 599 13 is_stmt 1
	.loc 1 599 60 is_stmt 0
	lw	a5,24(a0)
	j	.L160
.L109:
	.loc 1 603 9 is_stmt 1
	.loc 1 603 35 is_stmt 0
	sw	a2,28(s0)
	.loc 1 604 9 is_stmt 1
	j	.L158
.L108:
	.loc 1 607 9
	.loc 1 665 12 is_stmt 0
	li	s1,0
	.loc 1 607 12
	beq	a2,zero,.L94
	.loc 1 608 13 is_stmt 1
	.loc 1 608 63 is_stmt 0
	lw	a5,28(a0)
	j	.L160
.L107:
	.loc 1 612 9 is_stmt 1
	.loc 1 612 29 is_stmt 0
	sw	a2,20(s0)
	.loc 1 613 9 is_stmt 1
	j	.L158
.L106:
	.loc 1 616 9
	.loc 1 665 12 is_stmt 0
	li	s1,0
	.loc 1 616 12
	beq	a2,zero,.L94
	.loc 1 617 13 is_stmt 1
	.loc 1 617 57 is_stmt 0
	lw	a5,20(a0)
	j	.L160
.L105:
	.loc 1 621 9 is_stmt 1
	.loc 1 621 27 is_stmt 0
	sw	a2,32(s0)
	.loc 1 622 9 is_stmt 1
	j	.L158
.L104:
	.loc 1 625 9
	.loc 1 665 12 is_stmt 0
	li	s1,0
	.loc 1 625 12
	beq	a2,zero,.L94
	.loc 1 626 13 is_stmt 1
	.loc 1 626 55 is_stmt 0
	lw	a5,32(a0)
	j	.L160
.L103:
	.loc 1 630 9 is_stmt 1
	.loc 1 665 12 is_stmt 0
	li	s1,0
	.loc 1 630 12
	beq	a2,zero,.L94
	.loc 1 631 13 is_stmt 1
	.loc 1 631 34 is_stmt 0
	lbu	a0,0(a0)
	call	UART_GetTxFifoCount
.LVL149:
.L161:
	.loc 1 636 34
	sw	a0,0(s2)
	j	.L94
.LVL150:
.L102:
	.loc 1 635 9 is_stmt 1
	.loc 1 665 12 is_stmt 0
	li	s1,0
	.loc 1 635 12
	beq	a2,zero,.L94
	.loc 1 636 13 is_stmt 1
	.loc 1 636 34 is_stmt 0
	lbu	a0,0(a0)
	call	UART_GetRxFifoCount
.LVL151:
	j	.L161
.LVL152:
.L101:
	.loc 1 640 9 is_stmt 1
	lbu	a0,0(a0)
	call	bl_uart_flush
.LVL153:
	.loc 1 641 9
	j	.L159
.LVL154:
.L100:
	.loc 1 643 6
	lbu	a0,0(a0)
	call	bl_uart_int_tx_enable
.LVL155:
	.loc 1 644 6
	j	.L159
.LVL156:
.L99:
	.loc 1 646 6
	lbu	a0,0(a0)
	call	bl_uart_int_tx_disable
.LVL157:
	.loc 1 647 6
	j	.L159
.LVL158:
.L98:
	.loc 1 649 6
	.loc 1 650 6
.LBB12:
.LBB13:
	.loc 1 133 2
	.loc 1 133 13 is_stmt 0
	lw	s1,0(a2)
	.loc 1 133 5
	bne	s1,zero,.L116
.LVL159:
.L132:
.LBE13:
.LBE12:
	.loc 1 658 14
	li	s1,-1
	j	.L94
.LVL160:
.L116:
.LBB17:
.LBB14:
	.loc 1 133 40
	lw	s2,4(a2)
	.loc 1 133 30
	beq	s2,zero,.L132
	.loc 1 136 2 is_stmt 1
	.loc 1 138 19 is_stmt 0
	lbu	a5,0(a0)
	.loc 1 151 23
	lui	a1,%hi(.LANCHOR0+48)
	li	a2,12
.LVL161:
	.loc 1 138 14
	slli	a4,a5,2
	lui	a5,%hi(.LANCHOR3)
	addi	a5,a5,%lo(.LANCHOR3)
	add	a5,a5,a4
	.loc 1 138 27
	lw	a5,0(a5)
	.loc 1 151 23
	addi	a1,a1,%lo(.LANCHOR0+48)
	addi	a0,sp,4
	.loc 1 138 27
	addi	a5,a5,136
	.loc 1 136 23
	sw	a5,20(sp)
	li	a5,1
	sw	s1,16(sp)
	sw	s2,24(sp)
	sw	a5,28(sp)
	sw	zero,32(sp)
	sw	zero,36(sp)
	sw	zero,40(sp)
	sw	a5,44(sp)
	sw	a5,48(sp)
	sh	a5,52(sp)
	sw	zero,56(sp)
	sw	a5,60(sp)
	.loc 1 151 5 is_stmt 1
	.loc 1 151 23 is_stmt 0
	call	memcpy
.LVL162:
	.loc 1 159 5 is_stmt 1
	.loc 1 159 13 is_stmt 0
	lw	a0,68(s0)
	.loc 1 159 8
	blt	a0,zero,.L118
	.loc 1 160 6 is_stmt 1
	mv	a2,s2
	mv	a1,s1
	andi	a0,a0,0xff
	call	DMA_Channel_Update_SrcMemcfg
.LVL163:
	.loc 1 162 6
.L119:
.LBE14:
.LBE17:
	.loc 1 653 6
	lw	a0,68(s0)
.L162:
	.loc 1 660 6 is_stmt 0
	call	hosal_dma_chan_start
.LVL164:
	.loc 1 661 6 is_stmt 1
	j	.L159
.LVL165:
.L118:
.LBB18:
.LBB15:
	.loc 1 165 2
	.loc 1 165 22 is_stmt 0
	li	a0,0
	call	hosal_dma_chan_request
.LVL166:
	.loc 1 165 20
	sw	a0,68(s0)
	.loc 1 166 2 is_stmt 1
	.loc 1 166 5 is_stmt 0
	bge	a0,zero,.L120
	.loc 1 167 3 is_stmt 1
	.loc 1 167 41
	.loc 1 167 46
	.loc 1 167 68 is_stmt 0
	lui	a5,%hi(_fsymc_level_hosal)
	.loc 1 167 49
	lw	a4,%lo(_fsymc_level_hosal)(a5)
	li	a5,4
	bgtu	a4,a5,.L132
	.loc 1 167 112
	lui	a4,%hi(_fsymf_level_hosalhosal_uart)
	.loc 1 167 91
	lw	a4,%lo(_fsymf_level_hosalhosal_uart)(a4)
	bgtu	a4,a5,.L132
	.loc 1 167 148 is_stmt 1
	.loc 1 167 245 is_stmt 0
	call	xPortIsInsideInterrupt
.LVL167:
	.loc 1 167 148
	beq	a0,zero,.L121
	.loc 1 167 274
	call	xTaskGetTickCountFromISR
.LVL168:
.L156:
	.loc 1 167 305
	mv	a2,a0
	.loc 1 167 148
	lui	a3,%hi(.LC4)
	lui	a1,%hi(.LC5)
	lui	a0,%hi(.LC9)
	li	a4,167
	addi	a3,a3,%lo(.LC4)
	addi	a1,a1,%lo(.LC5)
	addi	a0,a0,%lo(.LC9)
.LVL169:
.L163:
.LBE15:
.LBE18:
.LBB19:
.LBB20:
	.loc 1 222 148
	call	bl_printk
.LVL170:
	j	.L132
.LVL171:
.L121:
.LBE20:
.LBE19:
.LBB23:
.LBB16:
	.loc 1 167 305
	call	xTaskGetTickCount
.LVL172:
	j	.L156
.L120:
	.loc 1 171 2 is_stmt 1
	call	hosal_dma_chan_stop
.LVL173:
	.loc 1 174 2
	.loc 1 174 62 is_stmt 0
	lw	a5,72(s0)
	.loc 1 175 5
	lbu	a0,0(s0)
	addi	a1,sp,4
	.loc 1 174 62
	not	a5,a5
	srli	a5,a5,31
	.loc 1 174 26
	sw	a5,12(sp)
	.loc 1 175 5 is_stmt 1
	call	UART_FifoConfig
.LVL174:
	.loc 1 177 2
	.loc 1 177 13 is_stmt 0
	lw	a5,68(s0)
	.loc 1 178 59
	lbu	a4,0(s0)
	.loc 1 177 13
	sw	a5,32(sp)
	.loc 1 178 2 is_stmt 1
	.loc 1 178 59 is_stmt 0
	li	a5,1
	beq	a4,zero,.L123
	li	a5,3
.L123:
	.loc 1 179 2
	addi	a0,sp,16
	.loc 1 178 20
	sw	a5,60(sp)
	.loc 1 179 2 is_stmt 1
	call	DMA_Channel_Init
.LVL175:
	.loc 1 180 2
	lw	a0,68(s0)
	lui	a1,%hi(__uart_tx_dma_irq)
	mv	a2,s0
	addi	a1,a1,%lo(__uart_tx_dma_irq)
	call	hosal_dma_irq_callback_set
.LVL176:
	.loc 1 182 2
	j	.L119
.LVL177:
.L96:
.LBE16:
.LBE23:
	.loc 1 656 6
	.loc 1 657 6
.LBB24:
.LBB21:
	.loc 1 187 2
	.loc 1 187 13 is_stmt 0
	lw	s1,0(a2)
	.loc 1 187 5
	beq	s1,zero,.L132
	.loc 1 187 40
	lw	s2,4(a2)
	.loc 1 187 30
	beq	s2,zero,.L132
	.loc 1 191 2 is_stmt 1
	.loc 1 192 19 is_stmt 0
	lbu	a5,0(a0)
	.loc 1 206 23
	lui	a1,%hi(.LANCHOR0+60)
	li	a2,12
.LVL178:
	.loc 1 192 14
	slli	a4,a5,2
	lui	a5,%hi(.LANCHOR3)
	addi	a5,a5,%lo(.LANCHOR3)
	add	a5,a5,a4
	.loc 1 192 27
	lw	a5,0(a5)
	.loc 1 206 23
	addi	a1,a1,%lo(.LANCHOR0+60)
	addi	a0,sp,4
	.loc 1 192 27
	addi	a5,a5,140
	.loc 1 191 23
	sw	a5,16(sp)
	li	a5,2
	sw	a5,28(sp)
	li	a5,3
	sw	a5,44(sp)
	sw	a5,48(sp)
	li	a5,256
	sw	s1,20(sp)
	sw	s2,24(sp)
	sw	zero,32(sp)
	sw	zero,36(sp)
	sw	zero,40(sp)
	sh	a5,52(sp)
	sw	zero,56(sp)
	sw	zero,60(sp)
	.loc 1 206 5 is_stmt 1
	.loc 1 206 23 is_stmt 0
	call	memcpy
.LVL179:
	.loc 1 214 5 is_stmt 1
	.loc 1 214 13 is_stmt 0
	lw	a0,72(s0)
	.loc 1 214 8
	blt	a0,zero,.L125
	.loc 1 215 6 is_stmt 1
	mv	a2,s2
	mv	a1,s1
	andi	a0,a0,0xff
	call	DMA_Channel_Update_DstMemcfg
.LVL180:
	.loc 1 217 6
.L126:
.LBE21:
.LBE24:
	.loc 1 660 6
	lw	a0,72(s0)
	j	.L162
.LVL181:
.L125:
.LBB25:
.LBB22:
	.loc 1 220 2
	.loc 1 220 22 is_stmt 0
	li	a0,0
	call	hosal_dma_chan_request
.LVL182:
	.loc 1 220 20
	sw	a0,72(s0)
	.loc 1 221 2 is_stmt 1
	.loc 1 221 5 is_stmt 0
	bge	a0,zero,.L127
	.loc 1 222 3 is_stmt 1
	.loc 1 222 41
	.loc 1 222 46
	.loc 1 222 68 is_stmt 0
	lui	a5,%hi(_fsymc_level_hosal)
	.loc 1 222 49
	lw	a4,%lo(_fsymc_level_hosal)(a5)
	li	a5,4
	bgtu	a4,a5,.L132
	.loc 1 222 112
	lui	a4,%hi(_fsymf_level_hosalhosal_uart)
	.loc 1 222 91
	lw	a4,%lo(_fsymf_level_hosalhosal_uart)(a4)
	bgtu	a4,a5,.L132
	.loc 1 222 148 is_stmt 1
	.loc 1 222 245 is_stmt 0
	call	xPortIsInsideInterrupt
.LVL183:
	.loc 1 222 148
	beq	a0,zero,.L129
	.loc 1 222 274
	call	xTaskGetTickCountFromISR
.LVL184:
.L157:
	.loc 1 222 305
	mv	a2,a0
	.loc 1 222 148
	lui	a3,%hi(.LC4)
	lui	a1,%hi(.LC5)
	lui	a0,%hi(.LC10)
	li	a4,222
	addi	a3,a3,%lo(.LC4)
	addi	a1,a1,%lo(.LC5)
	addi	a0,a0,%lo(.LC10)
	j	.L163
.L129:
	.loc 1 222 305
	call	xTaskGetTickCount
.LVL185:
	j	.L157
.L127:
	.loc 1 226 2 is_stmt 1
	call	hosal_dma_chan_stop
.LVL186:
	.loc 1 229 2
	.loc 1 229 62 is_stmt 0
	lw	a5,68(s0)
	.loc 1 230 5
	lbu	a0,0(s0)
	addi	a1,sp,4
	.loc 1 229 62
	not	a5,a5
	srli	a5,a5,31
	.loc 1 229 26
	sw	a5,8(sp)
	.loc 1 230 5 is_stmt 1
	call	UART_FifoConfig
.LVL187:
	.loc 1 232 2
	.loc 1 232 13 is_stmt 0
	lw	a5,72(s0)
	.loc 1 235 2
	addi	a0,sp,16
	.loc 1 232 13
	sw	a5,32(sp)
	.loc 1 233 2 is_stmt 1
	.loc 1 233 59 is_stmt 0
	lbu	a5,0(s0)
	snez	a5,a5
	slli	a5,a5,1
	.loc 1 233 20
	sw	a5,56(sp)
	.loc 1 235 2 is_stmt 1
	call	DMA_Channel_Init
.LVL188:
	.loc 1 236 2
	lw	a0,72(s0)
	lui	a1,%hi(__uart_rx_dma_irq)
	mv	a2,s0
	addi	a1,a1,%lo(__uart_rx_dma_irq)
	call	hosal_dma_irq_callback_set
.LVL189:
	.loc 1 238 2
	j	.L126
.LBE22:
.LBE25:
	.cfi_endproc
.LFE22:
	.size	hosal_uart_ioctl, .-hosal_uart_ioctl
	.section	.text.hosal_uart_callback_set,"ax",@progbits
	.align	1
	.globl	hosal_uart_callback_set
	.type	hosal_uart_callback_set, @function
hosal_uart_callback_set:
.LFB23:
	.loc 1 672 1
	.cfi_startproc
.LVL190:
	.loc 1 673 5
	.loc 1 673 8 is_stmt 0
	li	a5,1
	bne	a1,a5,.L165
	.loc 1 674 9 is_stmt 1
	.loc 1 674 21 is_stmt 0
	sw	a2,36(a0)
	.loc 1 675 9 is_stmt 1
	.loc 1 675 23 is_stmt 0
	sw	a3,40(a0)
.L166:
	.loc 1 686 5 is_stmt 1
	.loc 1 687 1 is_stmt 0
	li	a0,0
.LVL191:
	ret
.LVL192:
.L165:
	.loc 1 676 12 is_stmt 1
	.loc 1 676 15 is_stmt 0
	li	a5,2
	bne	a1,a5,.L167
	.loc 1 677 9 is_stmt 1
	.loc 1 677 21 is_stmt 0
	sw	a2,44(a0)
	.loc 1 678 9 is_stmt 1
	.loc 1 678 23 is_stmt 0
	sw	a3,48(a0)
	j	.L166
.L167:
	.loc 1 679 12 is_stmt 1
	.loc 1 679 15 is_stmt 0
	li	a5,3
	bne	a1,a5,.L168
	.loc 1 680 9 is_stmt 1
	.loc 1 680 24 is_stmt 0
	sw	a2,52(a0)
	.loc 1 681 9 is_stmt 1
	.loc 1 681 27 is_stmt 0
	sw	a3,56(a0)
	j	.L166
.L168:
	.loc 1 682 12 is_stmt 1
	.loc 1 682 15 is_stmt 0
	li	a5,4
	bne	a1,a5,.L166
	.loc 1 683 9 is_stmt 1
	.loc 1 683 24 is_stmt 0
	sw	a2,60(a0)
	.loc 1 684 9 is_stmt 1
	.loc 1 684 27 is_stmt 0
	sw	a3,64(a0)
	j	.L166
	.cfi_endproc
.LFE23:
	.size	hosal_uart_callback_set, .-hosal_uart_callback_set
	.section	.text.hosal_uart_finalize,"ax",@progbits
	.align	1
	.globl	hosal_uart_finalize
	.type	hosal_uart_finalize, @function
hosal_uart_finalize:
.LFB24:
	.loc 1 690 1 is_stmt 1
	.cfi_startproc
.LVL193:
	.loc 1 691 5
	.loc 1 690 1 is_stmt 0
	addi	sp,sp,-16
	.cfi_def_cfa_offset 16
	sw	ra,12(sp)
	sw	s0,8(sp)
	.cfi_offset 1, -4
	.cfi_offset 8, -8
	.loc 1 690 1
	mv	s0,a0
	.loc 1 691 5
	lbu	a0,0(a0)
.LVL194:
	call	bl_uart_int_disable
.LVL195:
	.loc 1 692 5 is_stmt 1
	lbu	a0,0(s0)
	li	a1,2
	call	UART_Disable
.LVL196:
	.loc 1 693 5
	.loc 1 693 13 is_stmt 0
	lw	a0,72(s0)
	.loc 1 693 8
	ble	a0,zero,.L170
	.loc 1 694 6 is_stmt 1
	call	hosal_dma_chan_release
.LVL197:
.L170:
	.loc 1 696 5
	.loc 1 696 13 is_stmt 0
	lw	a0,68(s0)
	.loc 1 696 8
	ble	a0,zero,.L171
	.loc 1 697 6 is_stmt 1
	call	hosal_dma_chan_release
.LVL198:
.L171:
	.loc 1 699 5
	.loc 1 700 1 is_stmt 0
	lw	ra,12(sp)
	.cfi_restore 1
	lw	s0,8(sp)
	.cfi_restore 8
.LVL199:
	li	a0,0
	addi	sp,sp,16
	.cfi_def_cfa_offset 0
	jr	ra
	.cfi_endproc
.LFE24:
	.size	hosal_uart_finalize, .-hosal_uart_finalize
	.globl	_fsymf_info_hosalhosal_uart
	.section	.rodata.str1.4,"aMS",@progbits,1
	.align	2
.LC11:
	.string	"hosal.hosal_uart"
	.comm	_fsymf_level_hosalhosal_uart,4,4
	.align	2
.LC12:
	.string	"hosal"
	.weak	_fsymc_level_hosal
	.section	.rodata
	.align	2
	.set	.LANCHOR0,. + 0
.LC0:
	.word	160000000
	.word	115200
	.word	3
	.word	1
	.word	0
	.word	0
	.word	0
	.word	0
	.word	0
.LC1:
	.byte	16
	.byte	16
	.zero	2
	.word	0
	.word	0
.LC2:
	.byte	16
	.byte	16
	.zero	2
	.word	1
	.word	0
.LC3:
	.byte	16
	.byte	16
	.zero	2
	.word	0
	.word	1
	.section	.sbss._fsymc_level_hosal,"aw",@nobits
	.align	2
	.type	_fsymc_level_hosal, @object
	.size	_fsymc_level_hosal, 4
_fsymc_level_hosal:
	.zero	4
	.section	.sbss.uart_clk_init.0,"aw",@nobits
	.set	.LANCHOR2,. + 0
	.type	uart_clk_init.0, @object
	.size	uart_clk_init.0, 1
uart_clk_init.0:
	.zero	1
	.section	.sbss.uart_clk_init.1,"aw",@nobits
	.set	.LANCHOR1,. + 0
	.type	uart_clk_init.1, @object
	.size	uart_clk_init.1, 1
uart_clk_init.1:
	.zero	1
	.section	.srodata.BLOG_HARD_DECLARE_DISABLE,"a"
	.align	2
	.type	BLOG_HARD_DECLARE_DISABLE, @object
	.size	BLOG_HARD_DECLARE_DISABLE, 4
BLOG_HARD_DECLARE_DISABLE:
	.zero	4
	.section	.srodata.g_uart_addr,"a"
	.align	2
	.set	.LANCHOR3,. + 0
	.type	g_uart_addr, @object
	.size	g_uart_addr, 8
g_uart_addr:
	.word	1073782784
	.word	1073783040
	.section	.static_blogcomponent_code.hosal,"a"
	.align	2
	.type	_fsymc_info_hosal, @object
	.size	_fsymc_info_hosal, 8
_fsymc_info_hosal:
	.word	_fsymc_level_hosal
	.word	.LC12
	.section	.static_blogfile_code.hosalhosal_uart,"a"
	.align	2
	.type	_fsymf_info_hosalhosal_uart, @object
	.size	_fsymf_info_hosalhosal_uart, 8
_fsymf_info_hosalhosal_uart:
	.word	_fsymf_level_hosalhosal_uart
	.word	.LC11
	.text
.Letext0:
	.file 2 "/mnt/d/GitHub/bl_iot_sdk_for_aithinker/toolchain/riscv/Linux/lib/gcc/riscv64-unknown-elf/10.2.0/include/stdint-gcc.h"
	.file 3 "/mnt/d/GitHub/bl_iot_sdk_for_aithinker/components/platform/soc/bl602/bl602_std/bl602_std/StdDriver/Inc/bl602_common.h"
	.file 4 "/mnt/d/GitHub/bl_iot_sdk_for_aithinker/components/platform/soc/bl602/bl602_std/bl602_std/StdDriver/Inc/bl602_uart.h"
	.file 5 "/mnt/d/GitHub/bl_iot_sdk_for_aithinker/components/platform/soc/bl602/bl602_std/bl602_std/StdDriver/Inc/bl602_gpio.h"
	.file 6 "/mnt/d/GitHub/bl_iot_sdk_for_aithinker/components/platform/soc/bl602/bl602_std/bl602_std/StdDriver/Inc/bl602_hbn.h"
	.file 7 "/mnt/d/GitHub/bl_iot_sdk_for_aithinker/components/platform/soc/bl602/bl602_std/bl602_std/StdDriver/Inc/bl602_glb.h"
	.file 8 "/mnt/d/GitHub/bl_iot_sdk_for_aithinker/components/platform/hosal/include/hosal_dma.h"
	.file 9 "/mnt/d/GitHub/bl_iot_sdk_for_aithinker/components/platform/hosal/include/hosal_uart.h"
	.file 10 "/mnt/d/GitHub/bl_iot_sdk_for_aithinker/components/platform/soc/bl602/bl602_std/bl602_std/StdDriver/Inc/bl602_dma.h"
	.file 11 "/mnt/d/GitHub/bl_iot_sdk_for_aithinker/components/stage/blog/blog_type.h"
	.file 12 "/mnt/d/GitHub/bl_iot_sdk_for_aithinker/components/stage/blog/blog.h"
	.file 13 "/mnt/d/GitHub/bl_iot_sdk_for_aithinker/components/platform/hosal/bl602_hal/bl_uart.h"
	.file 14 "/mnt/d/GitHub/bl_iot_sdk_for_aithinker/components/platform/soc/bl602/freertos_riscv_ram/portable/GCC/RISC-V/portmacro.h"
	.file 15 "/mnt/d/GitHub/bl_iot_sdk_for_aithinker/components/platform/soc/bl602/freertos_riscv_ram/config/task.h"
	.file 16 "/mnt/d/GitHub/bl_iot_sdk_for_aithinker/components/utils/include/utils_log.h"
	.file 17 "<built-in>"