	.file	"hosal_efuse.c"
	.option nopic
	.attribute arch, "rv32i2p0_m2p0_f2p0_c2p0"
	.attribute unaligned_access, 0
	.attribute stack_align, 16
	.text
.Ltext0:
	.cfi_sections	.debug_frame
	.section	.rodata.hosal_efuse_read.str1.4,"aMS",@progbits,1
	.align	2
.LC0:
	.string	"hosal_efuse.c"
	.align	2
.LC1:
	.string	"\033[31mERROR\033[0m"
	.align	2
.LC2:
	.string	"%s (%d)[%s:%4d] parameter error!\r\n\r\n"
	.section	.text.hosal_efuse_read,"ax",@progbits
	.align	1
	.globl	hosal_efuse_read
	.type	hosal_efuse_read, @function
hosal_efuse_read:
.LFB4:
	.file 1 "/mnt/d/GitHub/bl_iot_sdk_for_aithinker/components/platform/hosal/bl602_hal/hosal_efuse.c"
	.loc 1 7 1
	.cfi_startproc
.LVL0:
	.loc 1 9 5
	.loc 1 7 1 is_stmt 0
	addi	sp,sp,-32
	.cfi_def_cfa_offset 32
	.loc 1 9 18
	or	a5,a1,a0
	.loc 1 7 1
	sw	ra,28(sp)
	sw	s0,24(sp)
	sw	s1,20(sp)
	.cfi_offset 1, -4
	.cfi_offset 8, -8
	.cfi_offset 9, -12
	.loc 1 9 18
	andi	a5,a5,3
	beq	a5,zero,.L2
	.loc 1 10 9 is_stmt 1 discriminator 1
	.loc 1 10 47 discriminator 1
	.loc 1 10 52 discriminator 1
	.loc 1 10 74 is_stmt 0 discriminator 1
	lui	a5,%hi(_fsymc_level_hosal)
	.loc 1 10 55 discriminator 1
	lw	a4,%lo(_fsymc_level_hosal)(a5)
	li	a5,4
	.loc 1 11 16 discriminator 1
	li	a0,-1
.LVL1:
	.loc 1 10 55 discriminator 1
	bgtu	a4,a5,.L1
	.loc 1 10 118 discriminator 3
	lui	a4,%hi(_fsymf_level_hosalhosal_efuse)
	.loc 1 10 97 discriminator 3
	lw	a4,%lo(_fsymf_level_hosalhosal_efuse)(a4)
	bgtu	a4,a5,.L1
	.loc 1 10 155 is_stmt 1 discriminator 5
	.loc 1 10 240 is_stmt 0 discriminator 5
	call	xPortIsInsideInterrupt
.LVL2:
	.loc 1 10 155 discriminator 5
	beq	a0,zero,.L4
	.loc 1 10 269 discriminator 7
	call	xTaskGetTickCountFromISR
.LVL3:
.L9:
	.loc 1 10 300 discriminator 8
	mv	a2,a0
	.loc 1 10 155 discriminator 8
	lui	a3,%hi(.LC0)
	lui	a1,%hi(.LC1)
	lui	a0,%hi(.LC2)
	addi	a0,a0,%lo(.LC2)
	li	a4,10
	addi	a3,a3,%lo(.LC0)
	addi	a1,a1,%lo(.LC1)
	call	bl_printk
.LVL4:
	.loc 1 11 16 discriminator 8
	li	a0,-1
.L1:
	.loc 1 19 1
	lw	ra,28(sp)
	.cfi_remember_state
	.cfi_restore 1
	lw	s0,24(sp)
	.cfi_restore 8
	lw	s1,20(sp)
	.cfi_restore 9
	addi	sp,sp,32
	.cfi_def_cfa_offset 0
	jr	ra
.L4:
	.cfi_restore_state
	.loc 1 10 300 discriminator 8
	call	xTaskGetTickCount
.LVL5:
	j	.L9
.LVL6:
.L2:
	mv	s0,a0
	sw	a2,12(sp)
	sw	a1,8(sp)
	.loc 1 14 5 is_stmt 1 discriminator 1
.LBB2:
	.loc 1 14 14 discriminator 1
	.loc 1 14 48 is_stmt 0 discriminator 1
	call	bl_irq_save
.LVL7:
	.loc 1 15 5 discriminator 1
	lw	a2,12(sp)
	lw	a1,8(sp)
	.loc 1 14 48 discriminator 1
	mv	s1,a0
.LVL8:
	.loc 1 14 62 is_stmt 1 discriminator 1
	.loc 1 15 5 discriminator 1
	li	a3,1
	mv	a0,s0
	call	mfg_efuse_read
.LVL9:
	.loc 1 16 5 discriminator 1
	mv	a0,s1
	call	bl_irq_restore
.LVL10:
.LBE2:
	.loc 1 16 52 discriminator 1
	.loc 1 18 5 discriminator 1
	.loc 1 18 12 is_stmt 0 discriminator 1
	li	a0,0
	j	.L1
	.cfi_endproc
.LFE4:
	.size	hosal_efuse_read, .-hosal_efuse_read
	.section	.text.hosal_efuse_write,"ax",@progbits
	.align	1
	.globl	hosal_efuse_write
	.type	hosal_efuse_write, @function
hosal_efuse_write:
.LFB5:
	.loc 1 22 1 is_stmt 1
	.cfi_startproc
.LVL11:
	.loc 1 24 5
	.loc 1 22 1 is_stmt 0
	addi	sp,sp,-32
	.cfi_def_cfa_offset 32
	.loc 1 24 18
	or	a5,a1,a0
	.loc 1 22 1
	sw	ra,28(sp)
	sw	s0,24(sp)
	sw	s1,20(sp)
	.cfi_offset 1, -4
	.cfi_offset 8, -8
	.cfi_offset 9, -12
	.loc 1 24 18
	andi	a5,a5,3
	beq	a5,zero,.L11
	.loc 1 25 9 is_stmt 1 discriminator 1
	.loc 1 25 47 discriminator 1
	.loc 1 25 52 discriminator 1
	.loc 1 25 74 is_stmt 0 discriminator 1
	lui	a5,%hi(_fsymc_level_hosal)
	.loc 1 25 55 discriminator 1
	lw	a4,%lo(_fsymc_level_hosal)(a5)
	li	a5,4
	.loc 1 26 16 discriminator 1
	li	a0,-1
.LVL12:
	.loc 1 25 55 discriminator 1
	bgtu	a4,a5,.L10
	.loc 1 25 118 discriminator 3
	lui	a4,%hi(_fsymf_level_hosalhosal_efuse)
	.loc 1 25 97 discriminator 3
	lw	a4,%lo(_fsymf_level_hosalhosal_efuse)(a4)
	bgtu	a4,a5,.L10
	.loc 1 25 155 is_stmt 1 discriminator 5
	.loc 1 25 240 is_stmt 0 discriminator 5
	call	xPortIsInsideInterrupt
.LVL13:
	.loc 1 25 155 discriminator 5
	beq	a0,zero,.L13
	.loc 1 25 269 discriminator 7
	call	xTaskGetTickCountFromISR
.LVL14:
.L18:
	.loc 1 25 300 discriminator 8
	mv	a2,a0
	.loc 1 25 155 discriminator 8
	lui	a3,%hi(.LC0)
	lui	a1,%hi(.LC1)
	lui	a0,%hi(.LC2)
	addi	a0,a0,%lo(.LC2)
	li	a4,25
	addi	a3,a3,%lo(.LC0)
	addi	a1,a1,%lo(.LC1)
	call	bl_printk
.LVL15:
	.loc 1 26 16 discriminator 8
	li	a0,-1
.L10:
	.loc 1 35 1
	lw	ra,28(sp)
	.cfi_remember_state
	.cfi_restore 1
	lw	s0,24(sp)
	.cfi_restore 8
	lw	s1,20(sp)
	.cfi_restore 9
	addi	sp,sp,32
	.cfi_def_cfa_offset 0
	jr	ra
.L13:
	.cfi_restore_state
	.loc 1 25 300 discriminator 8
	call	xTaskGetTickCount
.LVL16:
	j	.L18
.LVL17:
.L11:
	mv	s0,a0
	sw	a2,12(sp)
	sw	a1,8(sp)
	.loc 1 29 5 is_stmt 1 discriminator 1
.LBB3:
	.loc 1 29 14 discriminator 1
	.loc 1 29 48 is_stmt 0 discriminator 1
	call	bl_irq_save
.LVL18:
	.loc 1 30 5 discriminator 1
	lw	a2,12(sp)
	lw	a1,8(sp)
	.loc 1 29 48 discriminator 1
	mv	s1,a0
.LVL19:
	.loc 1 29 62 is_stmt 1 discriminator 1
	.loc 1 30 5 discriminator 1
	mv	a0,s0
	call	mfg_efuse_write_pre
.LVL20:
	.loc 1 31 5 discriminator 1
	call	mfg_efuse_program
.LVL21:
	.loc 1 32 5 discriminator 1
	mv	a0,s1
	call	bl_irq_restore
.LVL22:
.LBE3:
	.loc 1 32 52 discriminator 1
	.loc 1 34 5 discriminator 1
	.loc 1 34 12 is_stmt 0 discriminator 1
	li	a0,0
	j	.L10
	.cfi_endproc
.LFE5:
	.size	hosal_efuse_write, .-hosal_efuse_write
	.globl	_fsymf_info_hosalhosal_efuse
	.section	.rodata.str1.4,"aMS",@progbits,1
	.align	2
.LC3:
	.string	"hosal.hosal_efuse"
	.comm	_fsymf_level_hosalhosal_efuse,4,4
	.align	2
.LC4:
	.string	"hosal"
	.weak	_fsymc_level_hosal
	.section	.sbss._fsymc_level_hosal,"aw",@nobits
	.align	2
	.type	_fsymc_level_hosal, @object
	.size	_fsymc_level_hosal, 4
_fsymc_level_hosal:
	.zero	4
	.section	.srodata.BLOG_HARD_DECLARE_DISABLE,"a"
	.align	2
	.type	BLOG_HARD_DECLARE_DISABLE, @object
	.size	BLOG_HARD_DECLARE_DISABLE, 4
BLOG_HARD_DECLARE_DISABLE:
	.zero	4
	.section	.static_blogcomponent_code.hosal,"a"
	.align	2
	.type	_fsymc_info_hosal, @object
	.size	_fsymc_info_hosal, 8
_fsymc_info_hosal:
	.word	_fsymc_level_hosal
	.word	.LC4
	.section	.static_blogfile_code.hosalhosal_efuse,"a"
	.align	2
	.type	_fsymf_info_hosalhosal_efuse, @object
	.size	_fsymf_info_hosalhosal_efuse, 8
_fsymf_info_hosalhosal_efuse:
	.word	_fsymf_level_hosalhosal_efuse
	.word	.LC3
	.text
.Letext0:
	.file 2 "/mnt/d/GitHub/bl_iot_sdk_for_aithinker/toolchain/riscv/Linux/lib/gcc/riscv64-unknown-elf/10.2.0/include/stdint-gcc.h"
	.file 3 "/mnt/d/GitHub/bl_iot_sdk_for_aithinker/components/stage/blog/blog_type.h"
	.file 4 "/mnt/d/GitHub/bl_iot_sdk_for_aithinker/components/stage/blog/blog.h"
	.file 5 "/mnt/d/GitHub/bl_iot_sdk_for_aithinker/components/platform/hosal/bl602_hal/bl_irq.h"
	.file 6 "/mnt/d/GitHub/bl_iot_sdk_for_aithinker/components/platform/soc/bl602/bl602_std/bl602_std/StdDriver/Inc/bl602_mfg_efuse.h"
	.file 7 "/mnt/d/GitHub/bl_iot_sdk_for_aithinker/components/platform/soc/bl602/freertos_riscv_ram/portable/GCC/RISC-V/portmacro.h"
	.file 8 "/mnt/d/GitHub/bl_iot_sdk_for_aithinker/components/platform/soc/bl602/freertos_riscv_ram/config/task.h"
	.file 9 "/mnt/d/GitHub/bl_iot_sdk_for_aithinker/components/utils/include/utils_log.h"