	.file	"hosal_rtc.c"
	.option nopic
	.attribute arch, "rv32i2p0_m2p0_f2p0_c2p0"
	.attribute unaligned_access, 0
	.attribute stack_align, 16
	.text
.Ltext0:
	.cfi_sections	.debug_frame
	.section	.text.clock_daysbeforemonth,"ax",@progbits
	.align	1
	.type	clock_daysbeforemonth, @function
clock_daysbeforemonth:
.LFB9:
	.file 1 "/mnt/d/GitHub/bl_iot_sdk_for_aithinker/components/platform/hosal/bl602_hal/hosal_rtc.c"
	.loc 1 54 1
	.cfi_startproc
.LVL0:
	.loc 1 55 5
	.loc 1 55 42 is_stmt 0
	lui	a5,%hi(.LANCHOR0)
	slli	a3,a0,1
	addi	a5,a5,%lo(.LANCHOR0)
	add	a5,a5,a3
	.loc 1 54 1
	mv	a4,a0
	.loc 1 55 9
	lhu	a0,0(a5)
.LVL1:
	.loc 1 57 5 is_stmt 1
	.loc 1 57 8 is_stmt 0
	li	a5,1
	ble	a4,a5,.L1
	.loc 1 57 20 discriminator 1
	beq	a1,zero,.L1
	.loc 1 58 9 is_stmt 1
	.loc 1 58 15 is_stmt 0
	addi	a0,a0,1
.LVL2:
	.loc 1 61 5 is_stmt 1
.L1:
	.loc 1 62 1 is_stmt 0
	ret
	.cfi_endproc
.LFE9:
	.size	clock_daysbeforemonth, .-clock_daysbeforemonth
	.section	.text.clock_isleapyear,"ax",@progbits
	.align	1
	.type	clock_isleapyear, @function
clock_isleapyear:
.LFB8:
	.loc 1 49 1 is_stmt 1
	.cfi_startproc
.LVL3:
	.loc 1 50 5
	.loc 1 50 69 is_stmt 0
	li	a4,400
	rem	a4,a0,a4
	.loc 1 49 1
	mv	a5,a0
	.loc 1 50 69
	beq	a4,zero,.L8
.LVL4:
.LBB4:
.LBB5:
	.loc 1 50 34
	li	a0,100
.LVL5:
	rem	a0,a5,a0
	.loc 1 50 69
	beq	a0,zero,.L6
	.loc 1 50 55
	andi	a5,a5,3
.LVL6:
	.loc 1 50 64
	seqz	a0,a5
	ret
.LVL7:
.L8:
.LBE5:
.LBE4:
	.loc 1 50 69
	li	a0,1
.LVL8:
.L6:
	.loc 1 51 1
	ret
	.cfi_endproc
.LFE8:
	.size	clock_isleapyear, .-clock_isleapyear
	.section	.text.__check_tm_ok,"ax",@progbits
	.align	1
	.type	__check_tm_ok, @function
__check_tm_ok:
.LFB13:
	.loc 1 185 1 is_stmt 1
	.cfi_startproc
.LVL9:
	.loc 1 187 5
	.loc 1 185 1 is_stmt 0
	addi	sp,sp,-16
	.cfi_def_cfa_offset 16
	sw	s0,8(sp)
	sw	ra,12(sp)
	.cfi_offset 8, -8
	.cfi_offset 1, -4
	.loc 1 185 1
	mv	s0,a0
	.loc 1 187 16
	lw	a0,20(a0)
.LVL10:
	.loc 1 187 8
	li	a5,129
	.loc 1 187 31
	addi	a4,a0,-70
	.loc 1 187 8
	bgtu	a4,a5,.L15
	.loc 1 191 5 is_stmt 1
.LVL11:
	.loc 1 193 5
	.loc 1 193 12 is_stmt 0
	addi	a0,a0,1900
	call	clock_isleapyear
.LVL12:
	.loc 1 195 8
	lw	a3,0(s0)
	li	a4,59
	.loc 1 193 12
	mv	a5,a0
.LVL13:
	.loc 1 195 5 is_stmt 1
	.loc 1 223 12 is_stmt 0
	li	a0,-1
.LVL14:
	.loc 1 195 8
	bgtu	a3,a4,.L12
	.loc 1 199 5 is_stmt 1
	.loc 1 199 8 is_stmt 0
	lw	a3,4(s0)
	bgtu	a3,a4,.L12
	.loc 1 203 5 is_stmt 1
	.loc 1 203 8 is_stmt 0
	lw	a3,8(s0)
	li	a4,23
	bgtu	a3,a4,.L12
	.loc 1 207 5 is_stmt 1
	.loc 1 207 16 is_stmt 0
	lw	a3,16(s0)
	.loc 1 207 8
	li	a4,11
	bgtu	a3,a4,.L12
	.loc 1 211 5 is_stmt 1
	.loc 1 212 20 is_stmt 0
	lw	a4,12(s0)
	.loc 1 211 8
	beq	a5,zero,.L14
	.loc 1 212 9 is_stmt 1
	.loc 1 212 12 is_stmt 0
	ble	a4,zero,.L12
	.loc 1 212 65 discriminator 1
	lui	a5,%hi(.LANCHOR1)
.LVL15:
	addi	a5,a5,%lo(.LANCHOR1)
.L23:
	.loc 1 216 67 discriminator 1
	add	a5,a5,a3
	lbu	a0,0(a5)
	.loc 1 216 34 discriminator 1
	slt	a0,a0,a4
	neg	a0,a0
.L12:
	.loc 1 224 1
	lw	ra,12(sp)
	.cfi_remember_state
	.cfi_restore 1
	lw	s0,8(sp)
	.cfi_restore 8
.LVL16:
	addi	sp,sp,16
	.cfi_def_cfa_offset 0
	jr	ra
.LVL17:
.L14:
	.cfi_restore_state
	.loc 1 216 9 is_stmt 1
	.loc 1 223 12 is_stmt 0
	li	a0,-1
	.loc 1 216 12
	ble	a4,zero,.L12
	.loc 1 216 67 discriminator 1
	lui	a5,%hi(.LANCHOR2)
.LVL18:
	addi	a5,a5,%lo(.LANCHOR2)
	j	.L23
.L15:
	.loc 1 223 12
	li	a0,-1
	j	.L12
	.cfi_endproc
.LFE13:
	.size	__check_tm_ok, .-__check_tm_ok
	.section	.text.__mktime,"ax",@progbits
	.align	1
	.type	__mktime, @function
__mktime:
.LFB18:
	.loc 1 320 1 is_stmt 1
	.cfi_startproc
.LVL19:
	.loc 1 321 5
	.loc 1 322 5
	.loc 1 328 5
	.loc 1 320 1 is_stmt 0
	addi	sp,sp,-16
	.cfi_def_cfa_offset 16
	sw	s1,4(sp)
	sw	ra,12(sp)
	sw	s0,8(sp)
	sw	s2,0(sp)
	.cfi_offset 9, -12
	.cfi_offset 1, -4
	.cfi_offset 8, -8
	.cfi_offset 18, -16
	.loc 1 320 1
	mv	s1,a0
	.loc 1 328 11
	call	__check_tm_ok
.LVL20:
	.loc 1 329 5 is_stmt 1
	.loc 1 329 8 is_stmt 0
	blt	a0,zero,.L26
	.loc 1 333 5 is_stmt 1
	.loc 1 333 34 is_stmt 0
	lw	a0,20(s1)
.LVL21:
.LBB8:
.LBB9:
	.loc 1 254 5 is_stmt 1
	.loc 1 258 5
	.loc 1 258 26 is_stmt 0
	li	a4,365
	.loc 1 258 18
	addi	s0,a0,-70
	.loc 1 258 26
	mul	s0,s0,a4
	.loc 1 262 19
	addi	a4,a0,-69
	.loc 1 262 27
	srai	a5,a4,2
	srai	s2,a4,31
	.loc 1 266 50
	addi	a0,a0,1900
.LVL22:
	.loc 1 258 10
	srai	a3,s0,31
.LVL23:
	.loc 1 262 5 is_stmt 1
	.loc 1 262 10 is_stmt 0
	add	s0,a5,s0
.LVL24:
	sltu	a5,s0,a5
	add	s2,s2,a3
	add	s2,a5,s2
.LVL25:
	.loc 1 266 5 is_stmt 1
	.loc 1 266 50 is_stmt 0
	call	clock_isleapyear
.LVL26:
	.loc 1 266 21
	andi	a1,a0,0xff
	lw	a0,16(s1)
.LVL27:
	call	clock_daysbeforemonth
.LVL28:
	.loc 1 266 13
	srai	a5,a0,31
	.loc 1 266 10
	add	s2,a5,s2
.LVL29:
	.loc 1 270 17
	lw	a5,12(s1)
.LVL30:
	.loc 1 266 10
	add	a4,a0,s0
	sltu	a0,a4,a0
	.loc 1 270 17
	addi	a5,a5,-1
.LVL31:
	srai	a3,a5,31
	.loc 1 270 10
	add	a4,a5,a4
	.loc 1 266 10
	add	a0,a0,s2
	.loc 1 270 5 is_stmt 1
	.loc 1 274 5
.LVL32:
.LBE9:
.LBE8:
	.loc 1 337 5
.LBB12:
.LBB10:
	.loc 1 270 10 is_stmt 0
	add	a0,a3,a0
	sltu	a5,a4,a5
.LBE10:
.LBE12:
	.loc 1 337 17
	li	a2,24
.LBB13:
.LBB11:
	.loc 1 270 10
	add	a5,a5,a0
.LBE11:
.LBE13:
	.loc 1 337 17
	mul	a3,a2,a4
	.loc 1 337 65
	lw	a0,0(s1)
	.loc 1 337 17
	mulhu	a4,a2,a4
	mul	a5,a2,a5
	.loc 1 337 26
	lw	a2,8(s1)
	.loc 1 337 17
	add	a5,a5,a4
	.loc 1 337 26
	srai	a4,a2,31
	.loc 1 337 22
	add	a2,a3,a2
	sltu	a1,a2,a3
	add	a5,a5,a4
	.loc 1 337 37
	li	a3,60
	.loc 1 337 22
	add	a1,a1,a5
	.loc 1 337 37
	mul	a4,a3,a2
	mul	a1,a3,a1
	mulhu	a2,a3,a2
	add	a1,a1,a2
	.loc 1 337 46
	lw	a2,4(s1)
	srai	a5,a2,31
	.loc 1 337 42
	add	a2,a4,a2
	sltu	a4,a2,a4
	add	a1,a1,a5
	add	a1,a4,a1
	.loc 1 337 56
	mul	a5,a3,a2
	.loc 1 337 65
	srai	a4,a0,31
	.loc 1 337 56
	mul	a1,a3,a1
	.loc 1 337 9
	add	a0,a5,a0
	sltu	a5,a0,a5
	.loc 1 337 56
	mulhu	a3,a3,a2
	add	a1,a1,a3
	.loc 1 337 9
	add	a1,a1,a4
	add	a1,a5,a1
.LVL33:
	.loc 1 339 5 is_stmt 1
.L24:
	.loc 1 340 1 is_stmt 0
	lw	ra,12(sp)
	.cfi_remember_state
	.cfi_restore 1
	lw	s0,8(sp)
	.cfi_restore 8
	lw	s1,4(sp)
	.cfi_restore 9
.LVL34:
	lw	s2,0(sp)
	.cfi_restore 18
	addi	sp,sp,16
	.cfi_def_cfa_offset 0
	jr	ra
.LVL35:
.L26:
	.cfi_restore_state
	.loc 1 330 16
	li	a0,-1
.LVL36:
	li	a1,-1
	j	.L24
	.cfi_endproc
.LFE18:
	.size	__mktime, .-__mktime
	.globl	__divdi3
	.section	.text.__gmtime_r.isra.0,"ax",@progbits
	.align	1
	.type	__gmtime_r.isra.0, @function
__gmtime_r.isra.0:
.LFB26:
	.loc 1 277 19 is_stmt 1
	.cfi_startproc
.LVL37:
	.loc 1 279 5
	.loc 1 280 5
	.loc 1 281 5
	.loc 1 282 5
	.loc 1 283 5
	.loc 1 284 5
	.loc 1 285 5
	.loc 1 286 5
	.loc 1 290 5
	.loc 1 277 19 is_stmt 0
	addi	sp,sp,-64
	.cfi_def_cfa_offset 64
	sw	ra,60(sp)
	sw	s0,56(sp)
	sw	s1,52(sp)
	sw	s2,48(sp)
	sw	s3,44(sp)
	sw	s4,40(sp)
	sw	s5,36(sp)
	sw	s7,28(sp)
	sw	s6,32(sp)
	sw	s8,24(sp)
	sw	s9,20(sp)
	sw	s10,16(sp)
	.cfi_offset 1, -4
	.cfi_offset 8, -8
	.cfi_offset 9, -12
	.cfi_offset 18, -16
	.cfi_offset 19, -20
	.cfi_offset 20, -24
	.cfi_offset 21, -28
	.cfi_offset 23, -36
	.cfi_offset 22, -32
	.cfi_offset 24, -40
	.cfi_offset 25, -44
	.cfi_offset 26, -48
	.loc 1 290 11
	lw	s6,4(a0)
	lw	s8,0(a0)
.LVL38:
	.loc 1 294 5 is_stmt 1
	.loc 1 294 9 is_stmt 0
	li	a2,86016
	addi	a2,a2,384
	li	a3,0
	.loc 1 277 19
	mv	s2,a1
	.loc 1 294 9
	mv	a0,s8
.LVL39:
	mv	a1,s6
.LVL40:
	.loc 1 295 57
	li	s5,-86016
	.loc 1 294 9
	call	__divdi3
.LVL41:
	.loc 1 295 57
	addi	s5,s5,-384
	.loc 1 294 9
	mv	s7,a0
	.loc 1 295 57
	mul	a5,s5,a1
	.loc 1 294 9
	mv	s1,a1
.LVL42:
	.loc 1 295 5 is_stmt 1
	.loc 1 297 18 is_stmt 0
	li	a2,4096
	addi	a2,a2,-496
	li	a3,0
	.loc 1 301 27
	li	s4,-60
	.loc 1 295 57
	mul	a1,s5,a0
	sub	a5,a5,a0
	mulhu	s5,s7,s5
	.loc 1 295 11
	add	s0,a1,s8
	sltu	a1,s0,a1
	.loc 1 297 18
	mv	a0,s0
.LVL43:
	.loc 1 295 57
	add	a5,a5,s5
	.loc 1 295 11
	add	a5,a5,s6
	add	s5,a1,a5
.LVL44:
	.loc 1 297 5 is_stmt 1
	.loc 1 297 18 is_stmt 0
	mv	a1,s5
	call	__divdi3
.LVL45:
	.loc 1 298 42
	li	a5,-4096
	addi	a5,a5,496
	mul	a1,a0,a5
	.loc 1 297 18
	mv	s3,a0
.LVL46:
	.loc 1 298 5 is_stmt 1
	.loc 1 300 17 is_stmt 0
	li	a2,60
	li	a3,0
	.loc 1 298 42
	mulh	a5,s3,a5
	.loc 1 298 11
	add	s0,a1,s0
.LVL47:
	sltu	a1,s0,a1
	.loc 1 300 17
	mv	a0,s0
.LVL48:
	.loc 1 298 11
	add	a5,a5,s5
.LVL49:
	.loc 1 300 5 is_stmt 1
	.loc 1 300 17 is_stmt 0
	add	a1,a1,a5
.LVL50:
	call	__divdi3
.LVL51:
	.loc 1 301 27
	mul	s4,a0,s4
.LBB16:
.LBB17:
	.loc 1 88 22
	li	a2,126230528
	mv	a1,s6
.LBE17:
.LBE16:
	.loc 1 300 17
	mv	s5,a0
.LVL52:
	.loc 1 301 5 is_stmt 1
	.loc 1 303 5
.LBB22:
.LBB18:
	.loc 1 88 22 is_stmt 0
	addi	a2,a2,-128
	li	a3,0
	mv	a0,s8
.LVL53:
	call	__divdi3
.LVL54:
	.loc 1 90 11
	slli	s6,a0,2
.LVL55:
.LBE18:
.LBE22:
	.loc 1 301 11
	add	s4,s4,s0
.LVL56:
	.loc 1 306 5 is_stmt 1
.LBB23:
.LBB19:
	.loc 1 88 5
	.loc 1 89 5
	.loc 1 89 19 is_stmt 0
	li	s0,1461
	mul	s0,a0,s0
	srai	a1,s0,31
	.loc 1 89 10
	sub	s0,s7,s0
	sgtu	a5,s0,s7
	sub	s1,s1,a1
.LVL57:
	sub	s1,s1,a5
.LVL58:
	.loc 1 90 5 is_stmt 1
.L32:
	.loc 1 93 5
	.loc 1 94 5
	.loc 1 96 5
	.loc 1 99 9
	.loc 1 99 20 is_stmt 0
	addi	a0,s6,1970
	call	clock_isleapyear
.LVL59:
	.loc 1 99 18
	andi	a1,a0,0xff
.LVL60:
	.loc 1 103 9 is_stmt 1
	.loc 1 103 31 is_stmt 0
	snez	a5,a1
	.loc 1 107 18
	li	a4,0
	.loc 1 103 31
	addi	a5,a5,365
.LVL61:
	.loc 1 107 9 is_stmt 1
	.loc 1 107 12 is_stmt 0
	bgt	a4,s1,.L38
	bne	a4,s1,.L41
	bgtu	a5,s0,.L38
.L41:
	.loc 1 110 13 is_stmt 1
	.loc 1 111 18 is_stmt 0
	sub	a5,s0,a5
.LVL62:
	sgtu	a4,a5,s0
	.loc 1 110 18
	addi	s6,s6,1
.LVL63:
	.loc 1 111 13 is_stmt 1
	.loc 1 111 18 is_stmt 0
	mv	s0,a5
	sub	s1,s1,a4
.LVL64:
	.loc 1 96 12 is_stmt 1
	.loc 1 99 18 is_stmt 0
	j	.L32
.LVL65:
.L38:
	.loc 1 125 9
	li	s9,11
	.loc 1 124 9
	li	s7,0
.LVL66:
.L30:
	.loc 1 127 5 is_stmt 1
	.loc 1 130 9
	.loc 1 130 22 is_stmt 0
	add	s8,s7,s9
	.loc 1 130 15
	srai	s8,s8,1
.LVL67:
	.loc 1 136 9 is_stmt 1
	.loc 1 136 15 is_stmt 0
	addi	s10,s8,1
	mv	a0,s10
	sw	a1,12(sp)
	call	clock_daysbeforemonth
.LVL68:
	.loc 1 142 9 is_stmt 1
	.loc 1 142 17 is_stmt 0
	srai	a5,a0,31
	.loc 1 142 12
	lw	a1,12(sp)
	bgt	a5,s1,.L42
.LVL69:
	bne	a5,s1,.L39
	bleu	a0,s0,.L39
.L42:
	.loc 1 147 13 is_stmt 1
	.loc 1 147 19 is_stmt 0
	mv	a0,s8
.LVL70:
	sw	a1,12(sp)
	call	clock_daysbeforemonth
.LVL71:
	.loc 1 149 13 is_stmt 1
	.loc 1 149 21 is_stmt 0
	srai	a5,a0,31
	.loc 1 149 16
	lw	a1,12(sp)
	bgt	a5,s1,.L43
.LVL72:
	bne	a5,s1,.L40
	bleu	a0,s0,.L40
.L43:
	.loc 1 152 17 is_stmt 1
	.loc 1 152 21 is_stmt 0
	addi	s9,s8,-1
.LVL73:
.L33:
	.loc 1 168 9 is_stmt 1
	.loc 1 169 13
	.loc 1 169 5 is_stmt 0
	blt	s7,s9,.L30
.LVL74:
.L35:
	.loc 1 174 5 is_stmt 1
	.loc 1 174 13 is_stmt 0
	mv	a0,s7
.LVL75:
	call	clock_daysbeforemonth
.LVL76:
	.loc 1 180 5 is_stmt 1
	.loc 1 181 5
.LBE19:
.LBE23:
	.loc 1 310 5
.LBB24:
.LBB20:
	.loc 1 174 10 is_stmt 0
	sub	s0,s0,a0
.LVL77:
	.loc 1 181 17
	addi	s0,s0,1
.LVL78:
.LBE20:
.LBE24:
	.loc 1 312 21
	sw	s0,12(s2)
	.loc 1 317 1
	lw	ra,60(sp)
	.cfi_remember_state
	.cfi_restore 1
	lw	s0,56(sp)
	.cfi_restore 8
.LVL79:
	.loc 1 310 33
	addi	s6,s6,70
	.loc 1 310 21
	sw	s6,20(s2)
	.loc 1 311 5 is_stmt 1
	.loc 1 311 20 is_stmt 0
	sw	s7,16(s2)
	.loc 1 312 5 is_stmt 1
	.loc 1 313 5
	.loc 1 313 21 is_stmt 0
	sw	s3,8(s2)
	.loc 1 314 5 is_stmt 1
	.loc 1 314 20 is_stmt 0
	sw	s5,4(s2)
	.loc 1 315 5 is_stmt 1
	.loc 1 315 20 is_stmt 0
	sw	s4,0(s2)
	.loc 1 316 5 is_stmt 1
.LVL80:
	.loc 1 317 1 is_stmt 0
	lw	s1,52(sp)
	.cfi_restore 9
	lw	s2,48(sp)
	.cfi_restore 18
.LVL81:
	lw	s3,44(sp)
	.cfi_restore 19
.LVL82:
	lw	s4,40(sp)
	.cfi_restore 20
.LVL83:
	lw	s5,36(sp)
	.cfi_restore 21
.LVL84:
	lw	s6,32(sp)
	.cfi_restore 22
	lw	s7,28(sp)
	.cfi_restore 23
	lw	s8,24(sp)
	.cfi_restore 24
	lw	s9,20(sp)
	.cfi_restore 25
	lw	s10,16(sp)
	.cfi_restore 26
	addi	sp,sp,64
	.cfi_def_cfa_offset 0
	jr	ra
.LVL85:
.L39:
	.cfi_restore_state
.LBB25:
.LBB21:
	.loc 1 161 17
	mv	s7,s10
.LVL86:
	j	.L33
.LVL87:
.L40:
	.loc 1 130 15
	mv	s7,s8
.LVL88:
	j	.L35
.LBE21:
.LBE25:
	.cfi_endproc
.LFE26:
	.size	__gmtime_r.isra.0, .-__gmtime_r.isra.0
	.section	.text.__rtctime_to_tm,"ax",@progbits
	.align	1
	.type	__rtctime_to_tm, @function
__rtctime_to_tm:
.LFB15:
	.loc 1 241 1 is_stmt 1
	.cfi_startproc
.LVL89:
	.loc 1 242 5
	.loc 1 242 28 is_stmt 0
	lbu	a5,0(a1)
	.loc 1 242 53
	beq	a2,zero,.L48
.LVL90:
.LBB38:
.LBB39:
	.loc 1 66 5 is_stmt 1 discriminator 1
	.loc 1 67 5 discriminator 1
	.loc 1 67 18 is_stmt 0 discriminator 1
	srli	a4,a5,4
	.loc 1 67 10 discriminator 1
	li	a3,10
	mul	a4,a4,a3
.LVL91:
	.loc 1 68 5 is_stmt 1 discriminator 1
	.loc 1 68 18 is_stmt 0 discriminator 1
	andi	a5,a5,15
	.loc 1 68 10 discriminator 1
	add	a5,a5,a4
.LVL92:
	.loc 1 69 5 is_stmt 1 discriminator 1
.L48:
.LBE39:
.LBE38:
	.loc 1 242 17 is_stmt 0 discriminator 4
	sw	a5,0(a0)
	.loc 1 243 5 is_stmt 1 discriminator 4
	lbu	a5,1(a1)
	.loc 1 243 53 is_stmt 0 discriminator 4
	beq	a2,zero,.L50
.LVL93:
.LBB40:
.LBB41:
	.loc 1 66 5 is_stmt 1 discriminator 1
	.loc 1 67 5 discriminator 1
	.loc 1 67 18 is_stmt 0 discriminator 1
	srli	a4,a5,4
	.loc 1 67 10 discriminator 1
	li	a3,10
	mul	a4,a4,a3
.LVL94:
	.loc 1 68 5 is_stmt 1 discriminator 1
	.loc 1 68 18 is_stmt 0 discriminator 1
	andi	a5,a5,15
.LVL95:
	.loc 1 68 10 discriminator 1
	add	a5,a5,a4
.LVL96:
	.loc 1 69 5 is_stmt 1 discriminator 1
.L50:
.LBE41:
.LBE40:
	.loc 1 243 17 is_stmt 0 discriminator 4
	sw	a5,4(a0)
	.loc 1 244 5 is_stmt 1 discriminator 4
	lbu	a5,2(a1)
	.loc 1 244 53 is_stmt 0 discriminator 4
	beq	a2,zero,.L52
.LVL97:
.LBB42:
.LBB43:
	.loc 1 66 5 is_stmt 1 discriminator 1
	.loc 1 67 5 discriminator 1
	.loc 1 67 18 is_stmt 0 discriminator 1
	srli	a4,a5,4
	.loc 1 67 10 discriminator 1
	li	a3,10
	mul	a4,a4,a3
.LVL98:
	.loc 1 68 5 is_stmt 1 discriminator 1
	.loc 1 68 18 is_stmt 0 discriminator 1
	andi	a5,a5,15
.LVL99:
	.loc 1 68 10 discriminator 1
	add	a5,a5,a4
.LVL100:
	.loc 1 69 5 is_stmt 1 discriminator 1
.L52:
.LBE43:
.LBE42:
	.loc 1 244 18 is_stmt 0 discriminator 4
	sw	a5,8(a0)
	.loc 1 246 5 is_stmt 1 discriminator 4
	lbu	a5,3(a1)
	.loc 1 246 55 is_stmt 0 discriminator 4
	beq	a2,zero,.L54
.LVL101:
.LBB44:
.LBB45:
	.loc 1 66 5 is_stmt 1 discriminator 1
	.loc 1 67 5 discriminator 1
	.loc 1 67 18 is_stmt 0 discriminator 1
	srli	a4,a5,4
	.loc 1 67 10 discriminator 1
	li	a3,10
	mul	a4,a4,a3
.LVL102:
	.loc 1 68 5 is_stmt 1 discriminator 1
	.loc 1 68 18 is_stmt 0 discriminator 1
	andi	a5,a5,15
.LVL103:
	.loc 1 68 10 discriminator 1
	add	a5,a5,a4
.LVL104:
	.loc 1 69 5 is_stmt 1 discriminator 1
.L54:
.LBE45:
.LBE44:
	.loc 1 246 18 is_stmt 0 discriminator 4
	sw	a5,12(a0)
	.loc 1 247 5 is_stmt 1 discriminator 4
	lbu	a5,4(a1)
	.loc 1 247 55 is_stmt 0 discriminator 4
	beq	a2,zero,.L56
.LVL105:
.LBB46:
.LBB47:
	.loc 1 66 5 is_stmt 1 discriminator 1
	.loc 1 67 5 discriminator 1
	.loc 1 67 18 is_stmt 0 discriminator 1
	srli	a4,a5,4
	.loc 1 67 10 discriminator 1
	li	a3,10
	mul	a4,a4,a3
.LVL106:
	.loc 1 68 5 is_stmt 1 discriminator 1
	.loc 1 68 18 is_stmt 0 discriminator 1
	andi	a5,a5,15
.LVL107:
	.loc 1 68 10 discriminator 1
	add	a5,a5,a4
.LVL108:
	.loc 1 69 5 is_stmt 1 discriminator 1
.L56:
.LBE47:
.LBE46:
	.loc 1 248 5 discriminator 4
	.loc 1 248 17 is_stmt 0 discriminator 4
	addi	a5,a5,-1
	sw	a5,16(a0)
	.loc 1 249 5 is_stmt 1 discriminator 4
	.loc 1 249 55 is_stmt 0 discriminator 4
	beq	a2,zero,.L57
	.loc 1 249 29 discriminator 1
	lbu	a4,6(a1)
.LVL109:
.LBB48:
.LBB49:
	.loc 1 66 5 is_stmt 1 discriminator 1
	.loc 1 67 5 discriminator 1
	.loc 1 67 10 is_stmt 0 discriminator 1
	li	a3,10
	.loc 1 67 18 discriminator 1
	srli	a5,a4,4
	.loc 1 67 10 discriminator 1
	mul	a3,a5,a3
.LVL110:
	.loc 1 68 5 is_stmt 1 discriminator 1
	.loc 1 68 18 is_stmt 0 discriminator 1
	andi	a5,a4,15
	.loc 1 68 10 discriminator 1
	add	a5,a5,a3
.LVL111:
	.loc 1 69 5 is_stmt 1 discriminator 1
.L58:
.LBE49:
.LBE48:
	.loc 1 250 5 discriminator 4
	.loc 1 250 18 is_stmt 0 discriminator 4
	addi	a5,a5,70
	sw	a5,20(a0)
	.loc 1 251 1 discriminator 4
	ret
.L57:
	.loc 1 249 55 discriminator 2
	lhu	a5,6(a1)
	j	.L58
	.cfi_endproc
.LFE15:
	.size	__rtctime_to_tm, .-__rtctime_to_tm
	.section	.text.hosal_rtc_init,"ax",@progbits
	.align	1
	.globl	hosal_rtc_init
	.type	hosal_rtc_init, @function
hosal_rtc_init:
.LFB19:
	.loc 1 351 1 is_stmt 1
	.cfi_startproc
.LVL112:
	.loc 1 352 5
	.loc 1 351 1 is_stmt 0
	addi	sp,sp,-16
	.cfi_def_cfa_offset 16
	sw	ra,12(sp)
	sw	s0,8(sp)
	sw	s1,4(sp)
	.cfi_offset 1, -4
	.cfi_offset 8, -8
	.cfi_offset 9, -12
	.loc 1 352 8
	bne	a0,zero,.L65
.LVL113:
.L67:
	.loc 1 353 16
	li	s1,-1
.L64:
	.loc 1 364 1
	lw	ra,12(sp)
	.cfi_remember_state
	.cfi_restore 1
	lw	s0,8(sp)
	.cfi_restore 8
	mv	a0,s1
	lw	s1,4(sp)
	.cfi_restore 9
	addi	sp,sp,16
	.cfi_def_cfa_offset 0
	jr	ra
.LVL114:
.L65:
	.cfi_restore_state
	.loc 1 355 5 is_stmt 1
	.loc 1 355 13 is_stmt 0
	lui	s0,%hi(.LANCHOR3)
	addi	s0,s0,%lo(.LANCHOR3)
	.loc 1 355 8
	lw	a5,0(s0)
	.loc 1 363 12
	li	s1,0
	.loc 1 355 8
	bne	a5,zero,.L64
	.loc 1 356 9 is_stmt 1
	.loc 1 356 22 is_stmt 0
	li	a0,36
.LVL115:
	call	pvPortMalloc
.LVL116:
	.loc 1 356 20
	sw	a0,0(s0)
	.loc 1 357 9 is_stmt 1
	.loc 1 357 12 is_stmt 0
	beq	a0,zero,.L67
	.loc 1 360 9 is_stmt 1
	call	bl_rtc_init
.LVL117:
	j	.L64
	.cfi_endproc
.LFE19:
	.size	hosal_rtc_init, .-hosal_rtc_init
	.globl	__udivdi3
	.section	.text.hosal_rtc_get_time,"ax",@progbits
	.align	1
	.globl	hosal_rtc_get_time
	.type	hosal_rtc_get_time, @function
hosal_rtc_get_time:
.LFB20:
	.loc 1 375 1
	.cfi_startproc
.LVL118:
	.loc 1 376 5
	.loc 1 377 5
	.loc 1 375 1 is_stmt 0
	addi	sp,sp,-80
	.cfi_def_cfa_offset 80
	sw	ra,76(sp)
	sw	s0,72(sp)
	sw	s2,64(sp)
	sw	s1,68(sp)
	sw	s3,60(sp)
	.cfi_offset 1, -4
	.cfi_offset 8, -8
	.cfi_offset 18, -16
	.cfi_offset 9, -12
	.cfi_offset 19, -20
	.loc 1 375 1
	mv	s2,a0
	mv	s0,a1
	.loc 1 377 30
	call	bl_rtc_get_timestamp_ms
.LVL119:
	.loc 1 377 14
	sw	a0,0(sp)
	sw	a1,4(sp)
	.loc 1 379 5 is_stmt 1
	li	a2,36
	li	a1,0
	addi	a0,sp,12
	call	memset
.LVL120:
	.loc 1 380 5
	.loc 1 381 16 is_stmt 0
	li	a0,-1
	.loc 1 380 8
	beq	s0,zero,.L73
	.loc 1 380 21 discriminator 1
	beq	s2,zero,.L73
	.loc 1 384 5 is_stmt 1
	.loc 1 384 35 is_stmt 0
	lw	a0,0(sp)
	lw	a1,4(sp)
	li	a2,1000
	li	a3,0
	call	__udivdi3
.LVL121:
	.loc 1 385 22
	lui	a5,%hi(.LANCHOR3)
	.loc 1 384 35
	mv	s1,a0
	.loc 1 384 19
	sw	a0,0(sp)
	.loc 1 385 22
	lw	a0,%lo(.LANCHOR3)(a5)
	.loc 1 384 35
	mv	s3,a1
	.loc 1 384 19
	sw	a1,4(sp)
	.loc 1 385 5 is_stmt 1
	.loc 1 385 22 is_stmt 0
	call	__mktime
.LVL122:
	.loc 1 385 19
	add	s1,a0,s1
	sltu	a5,s1,a0
	add	s3,a1,s3
	add	a5,a5,s3
	.loc 1 386 5
	addi	a1,sp,12
	mv	a0,sp
	.loc 1 385 19
	sw	a5,4(sp)
	.loc 1 386 5 is_stmt 1
	.loc 1 385 19 is_stmt 0
	sw	s1,0(sp)
	.loc 1 386 5
	call	__gmtime_r.isra.0
.LVL123:
	.loc 1 388 5 is_stmt 1
	lw	a4,12(sp)
	.loc 1 388 45 is_stmt 0
	lbu	a3,1(s2)
.LVL124:
.LBB64:
.LBB65:
	.loc 1 231 5 is_stmt 1
	.loc 1 231 19 is_stmt 0
	li	a2,2
	andi	a5,a4,0xff
	bne	a3,a2,.L76
.LVL125:
.LBB66:
.LBB67:
	.loc 1 74 2 is_stmt 1
	.loc 1 75 2
	.loc 1 75 15 is_stmt 0
	li	a2,10
	div	a5,a4,a2
	.loc 1 76 16
	rem	a4,a4,a2
.LVL126:
	.loc 1 75 7
	slli	a5,a5,4
.LVL127:
	.loc 1 76 2 is_stmt 1
	.loc 1 76 7 is_stmt 0
	add	a5,a5,a4
.LVL128:
	andi	a5,a5,0xff
.LVL129:
	.loc 1 77 2 is_stmt 1
.L76:
.LBE67:
.LBE66:
	.loc 1 232 30 is_stmt 0
	lw	a4,16(sp)
	.loc 1 231 19
	sb	a5,0(s0)
	.loc 1 232 5 is_stmt 1
	.loc 1 232 19 is_stmt 0
	li	a2,2
	andi	a5,a4,0xff
	bne	a3,a2,.L78
.LVL130:
.LBB68:
.LBB69:
	.loc 1 74 2 is_stmt 1
	.loc 1 75 2
	.loc 1 75 15 is_stmt 0
	li	a2,10
	div	a5,a4,a2
	.loc 1 76 16
	rem	a4,a4,a2
.LVL131:
	.loc 1 75 7
	slli	a5,a5,4
.LVL132:
	.loc 1 76 2 is_stmt 1
	.loc 1 76 7 is_stmt 0
	add	a5,a5,a4
.LVL133:
	andi	a5,a5,0xff
.LVL134:
	.loc 1 77 2 is_stmt 1
.L78:
.LBE69:
.LBE68:
	.loc 1 233 29 is_stmt 0
	lw	a4,20(sp)
	.loc 1 232 19
	sb	a5,1(s0)
	.loc 1 233 5 is_stmt 1
	.loc 1 233 18 is_stmt 0
	li	a2,2
	andi	a5,a4,0xff
	bne	a3,a2,.L80
.LVL135:
.LBB70:
.LBB71:
	.loc 1 74 2 is_stmt 1
	.loc 1 75 2
	.loc 1 75 15 is_stmt 0
	li	a2,10
	div	a5,a4,a2
	.loc 1 76 16
	rem	a4,a4,a2
.LVL136:
	.loc 1 75 7
	slli	a5,a5,4
.LVL137:
	.loc 1 76 2 is_stmt 1
	.loc 1 76 7 is_stmt 0
	add	a5,a5,a4
.LVL138:
	andi	a5,a5,0xff
.LVL139:
	.loc 1 77 2 is_stmt 1
.L80:
.LBE71:
.LBE70:
	.loc 1 235 31 is_stmt 0
	lw	a4,24(sp)
	.loc 1 233 18
	sb	a5,2(s0)
	.loc 1 235 5 is_stmt 1
	.loc 1 235 20 is_stmt 0
	li	a2,2
	andi	a5,a4,0xff
	bne	a3,a2,.L82
.LVL140:
.LBB72:
.LBB73:
	.loc 1 74 2 is_stmt 1
	.loc 1 75 2
	.loc 1 75 15 is_stmt 0
	li	a2,10
	div	a5,a4,a2
	.loc 1 76 16
	rem	a4,a4,a2
.LVL141:
	.loc 1 75 7
	slli	a5,a5,4
.LVL142:
	.loc 1 76 2 is_stmt 1
	.loc 1 76 7 is_stmt 0
	add	a5,a5,a4
.LVL143:
	andi	a5,a5,0xff
.LVL144:
	.loc 1 77 2 is_stmt 1
.L82:
	lw	a4,28(sp)
.LBE73:
.LBE72:
	.loc 1 235 20 is_stmt 0
	sb	a5,3(s0)
	.loc 1 236 5 is_stmt 1
	.loc 1 236 21 is_stmt 0
	li	a2,2
	addi	a4,a4,1
	andi	a5,a4,0xff
	bne	a3,a2,.L84
.LVL145:
.LBB74:
.LBB75:
	.loc 1 74 2 is_stmt 1
	.loc 1 75 2
	.loc 1 75 15 is_stmt 0
	li	a2,10
	div	a5,a4,a2
	.loc 1 76 16
	rem	a4,a4,a2
.LVL146:
	.loc 1 75 7
	slli	a5,a5,4
.LVL147:
	.loc 1 76 2 is_stmt 1
	.loc 1 76 7 is_stmt 0
	add	a5,a5,a4
.LVL148:
	andi	a5,a5,0xff
.LVL149:
	.loc 1 77 2 is_stmt 1
.L84:
.LBE75:
.LBE74:
	.loc 1 236 21 is_stmt 0
	sb	a5,4(s0)
	.loc 1 237 5 is_stmt 1
	lw	a5,32(sp)
	.loc 1 237 20 is_stmt 0
	li	a4,2
	addi	a5,a5,-70
	bne	a3,a4,.L85
.LVL150:
.LBB76:
.LBB77:
	.loc 1 74 2 is_stmt 1
	.loc 1 75 2
	.loc 1 75 15 is_stmt 0
	li	a3,10
.LVL151:
	div	a4,a5,a3
	.loc 1 76 16
	rem	a5,a5,a3
.LVL152:
	.loc 1 75 7
	slli	a4,a4,4
.LVL153:
	.loc 1 76 2 is_stmt 1
	.loc 1 77 2
	.loc 1 76 7 is_stmt 0
	add	a5,a4,a5
.LBE77:
.LBE76:
	.loc 1 237 20
	andi	a5,a5,0xff
.L86:
	sh	a5,6(s0)
.LBE65:
.LBE64:
	.loc 1 390 12
	li	a0,0
.LVL154:
.L73:
	.loc 1 391 1
	lw	ra,76(sp)
	.cfi_remember_state
	.cfi_restore 1
	lw	s0,72(sp)
	.cfi_restore 8
.LVL155:
	lw	s1,68(sp)
	.cfi_restore 9
	lw	s2,64(sp)
	.cfi_restore 18
.LVL156:
	lw	s3,60(sp)
	.cfi_restore 19
	addi	sp,sp,80
	.cfi_def_cfa_offset 0
	jr	ra
.LVL157:
.L85:
	.cfi_restore_state
.LBB79:
.LBB78:
	.loc 1 237 20
	slli	a5,a5,16
	srli	a5,a5,16
	j	.L86
.LBE78:
.LBE79:
	.cfi_endproc
.LFE20:
	.size	hosal_rtc_get_time, .-hosal_rtc_get_time
	.section	.text.hosal_rtc_set_time,"ax",@progbits
	.align	1
	.globl	hosal_rtc_set_time
	.type	hosal_rtc_set_time, @function
hosal_rtc_set_time:
.LFB21:
	.loc 1 402 1 is_stmt 1
	.cfi_startproc
.LVL158:
	.loc 1 403 5
	.loc 1 404 5
	.loc 1 406 5
	.loc 1 402 1 is_stmt 0
	addi	sp,sp,-80
	.cfi_def_cfa_offset 80
	sw	s0,72(sp)
	sw	ra,76(sp)
	sw	s1,68(sp)
	sw	s2,64(sp)
	sw	s3,60(sp)
	.cfi_offset 8, -8
	.cfi_offset 1, -4
	.cfi_offset 9, -12
	.cfi_offset 18, -16
	.cfi_offset 19, -20
	.loc 1 407 16
	li	s0,-1
	.loc 1 406 8
	beq	a1,zero,.L90
	mv	s1,a0
	.loc 1 407 16 discriminator 1
	li	s0,-1
	.loc 1 406 21 discriminator 1
	beq	a0,zero,.L90
	.loc 1 409 5 is_stmt 1
	.loc 1 409 13 is_stmt 0
	lui	a5,%hi(.LANCHOR3)
	lw	s3,%lo(.LANCHOR3)(a5)
	.loc 1 409 8
	beq	s3,zero,.L90
	.loc 1 413 5
	lbu	a2,1(a0)
	addi	a0,sp,12
.LVL159:
	mv	s2,a1
	.loc 1 413 5 is_stmt 1
	addi	a2,a2,-2
	seqz	a2,a2
	call	__rtctime_to_tm
.LVL160:
	.loc 1 414 5
	.loc 1 414 16 is_stmt 0
	addi	a0,sp,12
	call	__check_tm_ok
.LVL161:
	mv	s0,a0
.LVL162:
	.loc 1 414 8
	bne	a0,zero,.L90
	.loc 1 417 5 is_stmt 1
	lbu	a2,1(s1)
	mv	a1,s2
	mv	a0,s3
	addi	a2,a2,-2
	seqz	a2,a2
	call	__rtctime_to_tm
.LVL163:
	.loc 1 418 5
.L90:
	.loc 1 419 1 is_stmt 0
	lw	ra,76(sp)
	.cfi_restore 1
	mv	a0,s0
	lw	s0,72(sp)
	.cfi_restore 8
	lw	s1,68(sp)
	.cfi_restore 9
	lw	s2,64(sp)
	.cfi_restore 18
	lw	s3,60(sp)
	.cfi_restore 19
	addi	sp,sp,80
	.cfi_def_cfa_offset 0
	jr	ra
	.cfi_endproc
.LFE21:
	.size	hosal_rtc_set_time, .-hosal_rtc_set_time
	.section	.text.hosal_rtc_set_count,"ax",@progbits
	.align	1
	.globl	hosal_rtc_set_count
	.type	hosal_rtc_set_count, @function
hosal_rtc_set_count:
.LFB22:
	.loc 1 430 1 is_stmt 1
	.cfi_startproc
.LVL164:
	.loc 1 431 5
	.loc 1 432 5
	.loc 1 433 5
	.loc 1 433 8 is_stmt 0
	beq	a0,zero,.L98
	.loc 1 436 5 is_stmt 1
	.loc 1 430 1 is_stmt 0
	addi	sp,sp,-64
	.cfi_def_cfa_offset 64
	sw	s0,56(sp)
	.cfi_offset 8, -8
	.loc 1 436 13
	lui	s0,%hi(.LANCHOR3)
	addi	s0,s0,%lo(.LANCHOR3)
	.loc 1 436 8
	lw	a5,0(s0)
	.loc 1 430 1
	sw	ra,60(sp)
	sw	s1,52(sp)
	.cfi_offset 1, -4
	.cfi_offset 9, -12
	.loc 1 434 16
	li	a0,-1
.LVL165:
	.loc 1 436 8
	beq	a5,zero,.L96
	mv	s1,a1
	.loc 1 439 5 is_stmt 1
	li	a2,36
	li	a1,0
.LVL166:
	addi	a0,sp,12
	call	memset
.LVL167:
	.loc 1 440 5
	li	a2,36
	li	a1,0
	addi	a0,sp,4
	call	memset
.LVL168:
	.loc 1 441 5
	lw	a1,0(s0)
	mv	a0,s1
	call	__gmtime_r.isra.0
.LVL169:
	.loc 1 442 5
	.loc 1 442 12 is_stmt 0
	li	a0,0
.LVL170:
.L96:
	.loc 1 443 1
	lw	ra,60(sp)
	.cfi_restore 1
	lw	s0,56(sp)
	.cfi_restore 8
	lw	s1,52(sp)
	.cfi_restore 9
	addi	sp,sp,64
	.cfi_def_cfa_offset 0
	jr	ra
.LVL171:
.L98:
	.loc 1 434 16
	li	a0,-1
.LVL172:
	.loc 1 443 1
	ret
	.cfi_endproc
.LFE22:
	.size	hosal_rtc_set_count, .-hosal_rtc_set_count
	.section	.text.hosal_rtc_get_count,"ax",@progbits
	.align	1
	.globl	hosal_rtc_get_count
	.type	hosal_rtc_get_count, @function
hosal_rtc_get_count:
.LFB23:
	.loc 1 454 1 is_stmt 1
	.cfi_startproc
.LVL173:
	.loc 1 455 5
	.loc 1 454 1 is_stmt 0
	addi	sp,sp,-16
	.cfi_def_cfa_offset 16
	sw	s0,8(sp)
	.cfi_offset 8, -8
	mv	s0,a0
	sw	s1,4(sp)
	sw	ra,12(sp)
	sw	s2,0(sp)
	.cfi_offset 9, -12
	.cfi_offset 1, -4
	.cfi_offset 18, -16
	.loc 1 454 1
	mv	s1,a1
	.loc 1 455 30
	call	bl_rtc_get_timestamp_ms
.LVL174:
	.loc 1 456 5 is_stmt 1
	.loc 1 456 8 is_stmt 0
	beq	s0,zero,.L106
	.loc 1 459 5 is_stmt 1
	.loc 1 459 19 is_stmt 0
	li	a2,1000
	li	a3,0
	call	__udivdi3
.LVL175:
	.loc 1 460 22
	lui	a5,%hi(.LANCHOR3)
	.loc 1 459 19
	mv	s0,a0
.LVL176:
	.loc 1 460 22
	lw	a0,%lo(.LANCHOR3)(a5)
	.loc 1 459 19
	mv	s2,a1
.LVL177:
	.loc 1 460 5 is_stmt 1
	.loc 1 460 22 is_stmt 0
	call	__mktime
.LVL178:
	.loc 1 461 5 is_stmt 1
	.loc 1 460 19 is_stmt 0
	add	a5,a0,s0
	sltu	a0,a5,a0
.LVL179:
	add	a1,a1,s2
	add	a0,a0,a1
	.loc 1 461 17
	sw	a0,4(s1)
	.loc 1 462 5 is_stmt 1
	.loc 1 461 17 is_stmt 0
	sw	a5,0(s1)
	.loc 1 462 12
	li	a0,0
.L104:
	.loc 1 463 1
	lw	ra,12(sp)
	.cfi_remember_state
	.cfi_restore 1
	lw	s0,8(sp)
	.cfi_restore 8
	lw	s1,4(sp)
	.cfi_restore 9
.LVL180:
	lw	s2,0(sp)
	.cfi_restore 18
	addi	sp,sp,16
	.cfi_def_cfa_offset 0
	jr	ra
.LVL181:
.L106:
	.cfi_restore_state
	.loc 1 457 16
	li	a0,-1
.LVL182:
	j	.L104
	.cfi_endproc
.LFE23:
	.size	hosal_rtc_get_count, .-hosal_rtc_get_count
	.section	.text.hosal_rtc_finalize,"ax",@progbits
	.align	1
	.globl	hosal_rtc_finalize
	.type	hosal_rtc_finalize, @function
hosal_rtc_finalize:
.LFB24:
	.loc 1 473 1 is_stmt 1
	.cfi_startproc
.LVL183:
	.loc 1 474 5
	.loc 1 473 1 is_stmt 0
	addi	sp,sp,-16
	.cfi_def_cfa_offset 16
	sw	s1,4(sp)
	sw	ra,12(sp)
	sw	s0,8(sp)
	.cfi_offset 9, -12
	.cfi_offset 1, -4
	.cfi_offset 8, -8
	.loc 1 475 16
	li	s1,-1
	.loc 1 474 8
	beq	a0,zero,.L108
	.loc 1 478 5 is_stmt 1
	.loc 1 478 9 is_stmt 0
	lui	s0,%hi(.LANCHOR3)
	addi	s0,s0,%lo(.LANCHOR3)
	lw	a0,0(s0)
.LVL184:
	.loc 1 483 12
	li	s1,0
	.loc 1 478 8
	beq	a0,zero,.L108
	.loc 1 479 9 is_stmt 1
	call	vPortFree
.LVL185:
	.loc 1 480 9
	.loc 1 480 20 is_stmt 0
	sw	zero,0(s0)
.L108:
	.loc 1 484 1
	lw	ra,12(sp)
	.cfi_restore 1
	lw	s0,8(sp)
	.cfi_restore 8
	mv	a0,s1
	lw	s1,4(sp)
	.cfi_restore 9
	addi	sp,sp,16
	.cfi_def_cfa_offset 0
	jr	ra
	.cfi_endproc
.LFE24:
	.size	hosal_rtc_finalize, .-hosal_rtc_finalize
	.section	.rodata.g_noleap_daysbeforemonth,"a"
	.align	2
	.set	.LANCHOR0,. + 0
	.type	g_noleap_daysbeforemonth, @object
	.size	g_noleap_daysbeforemonth, 26
g_noleap_daysbeforemonth:
	.half	0
	.half	31
	.half	59
	.half	90
	.half	120
	.half	151
	.half	181
	.half	212
	.half	243
	.half	273
	.half	304
	.half	334
	.half	365
	.section	.rodata.leap_year,"a"
	.align	2
	.set	.LANCHOR1,. + 0
	.type	leap_year, @object
	.size	leap_year, 12
leap_year:
	.ascii	"\037\035\037\036\037\036\037\037\036\037\036\037"
	.section	.rodata.noleap_year,"a"
	.align	2
	.set	.LANCHOR2,. + 0
	.type	noleap_year, @object
	.size	noleap_year, 12
noleap_year:
	.ascii	"\037\034\037\036\037\036\037\037\036\037\036\037"
	.section	.sbss.s_rtc_base,"aw",@nobits
	.align	2
	.set	.LANCHOR3,. + 0
	.type	s_rtc_base, @object
	.size	s_rtc_base, 4
s_rtc_base:
	.zero	4
	.text
.Letext0:
	.file 2 "/mnt/d/GitHub/bl_iot_sdk_for_aithinker/toolchain/riscv/Linux/riscv64-unknown-elf/include/machine/_default_types.h"
	.file 3 "/mnt/d/GitHub/bl_iot_sdk_for_aithinker/toolchain/riscv/Linux/riscv64-unknown-elf/include/sys/_stdint.h"
	.file 4 "/mnt/d/GitHub/bl_iot_sdk_for_aithinker/toolchain/riscv/Linux/riscv64-unknown-elf/include/sys/_timeval.h"
	.file 5 "/mnt/d/GitHub/bl_iot_sdk_for_aithinker/toolchain/riscv/Linux/riscv64-unknown-elf/include/time.h"
	.file 6 "/mnt/d/GitHub/bl_iot_sdk_for_aithinker/components/platform/hosal/include/hosal_rtc.h"
	.file 7 "/mnt/d/GitHub/bl_iot_sdk_for_aithinker/components/platform/soc/bl602/freertos_riscv_ram/config/portable.h"
	.file 8 "/mnt/d/GitHub/bl_iot_sdk_for_aithinker/components/platform/hosal/bl602_hal/bl_rtc.h"
	.file 9 "/mnt/d/GitHub/bl_iot_sdk_for_aithinker/toolchain/riscv/Linux/riscv64-unknown-elf/include/string.h"