	.file	"hosal_timer.c"
	.option nopic
	.attribute arch, "rv32i2p0_m2p0_f2p0_c2p0"
	.attribute unaligned_access, 0
	.attribute stack_align, 16
	.text
.Ltext0:
	.cfi_sections	.debug_frame
	.section	.text.timer_process,"ax",@progbits
	.align	1
	.type	timer_process, @function
timer_process:
.LFB8:
	.file 1 "/mnt/d/GitHub/bl_iot_sdk_for_aithinker/components/platform/hosal/bl602_hal/hosal_timer.c"
	.loc 1 9 1
	.cfi_startproc
.LVL0:
	.loc 1 10 2
	.loc 1 11 5
	.loc 1 12 2
	.loc 1 14 5
	.loc 1 9 1 is_stmt 0
	addi	sp,sp,-16
	.cfi_def_cfa_offset 16
	sw	s0,8(sp)
	sw	ra,12(sp)
	sw	s1,4(sp)
	sw	s2,0(sp)
	.cfi_offset 8, -8
	.cfi_offset 1, -4
	.cfi_offset 9, -12
	.cfi_offset 18, -16
	.loc 1 17 12
	lb	a5,0(a0)
	.loc 1 14 12
	lw	s1,12(a0)
.LVL1:
	.loc 1 15 5 is_stmt 1
	.loc 1 15 9 is_stmt 0
	lw	s2,16(a0)
.LVL2:
	.loc 1 17 5 is_stmt 1
	.loc 1 9 1 is_stmt 0
	mv	s0,a0
	.loc 1 17 8
	bne	a5,zero,.L2
	.loc 1 18 9 is_stmt 1
	li	a2,1
	li	a1,3
	li	a0,0
.LVL3:
	call	TIMER_IntMask
.LVL4:
	.loc 1 19 9
	li	a0,0
	li	a1,0
	call	TIMER_ClearIntStatus
.LVL5:
	.loc 1 20 9
	.loc 1 20 12 is_stmt 0
	lbu	a4,8(s0)
	li	a5,2
	.loc 1 21 13
	li	a0,0
	.loc 1 20 12
	beq	a4,a5,.L13
.L4:
	.loc 1 31 5 is_stmt 1
	.loc 1 31 8 is_stmt 0
	beq	s1,zero,.L6
	.loc 1 32 9 is_stmt 1
	mv	a0,s2
	jalr	s1
.LVL6:
.L6:
	.loc 1 35 5
	.loc 1 35 12 is_stmt 0
	lb	a5,0(s0)
	.loc 1 35 8
	bne	a5,zero,.L7
	.loc 1 36 9 is_stmt 1
	li	a2,0
	li	a1,0
	li	a0,0
.L14:
	.loc 1 40 1 is_stmt 0
	lw	s0,8(sp)
	.cfi_remember_state
	.cfi_restore 8
.LVL7:
	lw	ra,12(sp)
	.cfi_restore 1
	lw	s1,4(sp)
	.cfi_restore 9
.LVL8:
	lw	s2,0(sp)
	.cfi_restore 18
.LVL9:
	addi	sp,sp,16
	.cfi_def_cfa_offset 0
	.loc 1 38 9
	tail	TIMER_IntMask
.LVL10:
.L2:
	.cfi_restore_state
	.loc 1 23 12 is_stmt 1
	.loc 1 23 15 is_stmt 0
	li	a4,1
	bne	a5,a4,.L4
	.loc 1 24 9 is_stmt 1
	li	a2,1
	li	a1,3
	li	a0,1
	call	TIMER_IntMask
.LVL11:
	.loc 1 25 9
	li	a1,0
	li	a0,1
	call	TIMER_ClearIntStatus
.LVL12:
	.loc 1 26 9
	.loc 1 26 12 is_stmt 0
	lbu	a4,8(s0)
	li	a5,2
	bne	a4,a5,.L4
	.loc 1 27 13 is_stmt 1
	li	a0,1
.L13:
	call	TIMER_Disable
.LVL13:
	j	.L4
.L7:
	.loc 1 37 12
	.loc 1 37 15 is_stmt 0
	li	a4,1
	bne	a5,a4,.L1
	.loc 1 38 9 is_stmt 1
	li	a2,0
	li	a1,0
	li	a0,1
	j	.L14
.L1:
	.loc 1 40 1 is_stmt 0
	lw	ra,12(sp)
	.cfi_restore 1
	lw	s0,8(sp)
	.cfi_restore 8
.LVL14:
	lw	s1,4(sp)
	.cfi_restore 9
.LVL15:
	lw	s2,0(sp)
	.cfi_restore 18
.LVL16:
	addi	sp,sp,16
	.cfi_def_cfa_offset 0
	jr	ra
	.cfi_endproc
.LFE8:
	.size	timer_process, .-timer_process
	.section	.rodata.hosal_timer_init.str1.4,"aMS",@progbits,1
	.align	2
.LC1:
	.string	"hosal_timer.c"
	.align	2
.LC2:
	.string	"\033[31mERROR\033[0m"
	.align	2
.LC3:
	.string	"%s (%d)[%s:%4d] timer channel %d not exists\r\n\r\n"
	.section	.text.hosal_timer_init,"ax",@progbits
	.align	1
	.globl	hosal_timer_init
	.type	hosal_timer_init, @function
hosal_timer_init:
.LFB9:
	.loc 1 43 1 is_stmt 1
	.cfi_startproc
.LVL17:
	.loc 1 44 2
	.loc 1 43 1 is_stmt 0
	addi	sp,sp,-64
	.cfi_def_cfa_offset 64
	.loc 1 44 17
	lui	a1,%hi(.LANCHOR0)
	.loc 1 43 1
	sw	s0,56(sp)
	.loc 1 44 17
	li	a2,36
	.cfi_offset 8, -8
	.loc 1 43 1
	mv	s0,a0
	.loc 1 44 17
	addi	a1,a1,%lo(.LANCHOR0)
	addi	a0,sp,12
.LVL18:
	.loc 1 43 1
	sw	ra,60(sp)
	.cfi_offset 1, -4
	.loc 1 44 17
	call	memcpy
.LVL19:
	.loc 1 56 5 is_stmt 1
	.loc 1 56 12 is_stmt 0
	lb	a5,0(s0)
	.loc 1 56 8
	bne	a5,zero,.L16
	.loc 1 57 9 is_stmt 1
	.loc 1 57 27 is_stmt 0
	sw	zero,12(sp)
.L17:
	.loc 1 64 2 is_stmt 1
	.loc 1 64 22 is_stmt 0
	lw	a5,4(s0)
	.loc 1 65 5
	lw	a0,12(sp)
	li	a2,1
	li	a1,3
	.loc 1 64 22
	sw	a5,32(sp)
	.loc 1 65 5 is_stmt 1
	call	TIMER_IntMask
.LVL20:
	.loc 1 66 5
	lw	a0,12(sp)
	call	TIMER_Disable
.LVL21:
	.loc 1 67 5
	addi	a0,sp,12
	call	TIMER_Init
.LVL22:
	.loc 1 70 5
	lw	a0,12(sp)
	li	a1,0
	call	TIMER_ClearIntStatus
.LVL23:
	.loc 1 71 5
	lw	a0,12(sp)
	li	a1,1
	call	TIMER_ClearIntStatus
.LVL24:
	.loc 1 72 5
	lw	a0,12(sp)
	li	a1,2
	call	TIMER_ClearIntStatus
.LVL25:
	.loc 1 75 5
	lw	a0,12(sp)
	li	a2,0
	li	a1,0
	call	TIMER_IntMask
.LVL26:
	.loc 1 76 5
	lw	a0,12(sp)
	li	a2,1
	li	a1,1
	call	TIMER_IntMask
.LVL27:
	.loc 1 77 5
	lw	a0,12(sp)
	li	a2,1
	li	a1,2
	call	TIMER_IntMask
.LVL28:
	.loc 1 79 5
	.loc 1 79 8 is_stmt 0
	lb	a5,0(s0)
	lui	a1,%hi(timer_process)
	.loc 1 80 3
	mv	a2,s0
	addi	a1,a1,%lo(timer_process)
	li	a0,52
	.loc 1 79 8
	beq	a5,zero,.L26
	.loc 1 82 3 is_stmt 1
	li	a0,53
.L26:
	call	bl_irq_register_with_ctx
.LVL29:
	.loc 1 85 12 is_stmt 0
	li	a0,0
	j	.L15
.L16:
	.loc 1 58 12 is_stmt 1
	.loc 1 58 15 is_stmt 0
	li	a4,1
	beq	a5,a4,.L17
	.loc 1 61 9 is_stmt 1 discriminator 1
	.loc 1 61 47 discriminator 1
	.loc 1 61 52 discriminator 1
	.loc 1 61 74 is_stmt 0 discriminator 1
	lui	a5,%hi(_fsymc_level_hosal)
	.loc 1 61 55 discriminator 1
	lw	a4,%lo(_fsymc_level_hosal)(a5)
	li	a5,4
	.loc 1 62 10 discriminator 1
	li	a0,-1
	.loc 1 61 55 discriminator 1
	bgtu	a4,a5,.L15
	.loc 1 61 118 discriminator 3
	lui	a4,%hi(_fsymf_level_hosalhosal_timer)
	.loc 1 61 97 discriminator 3
	lw	a4,%lo(_fsymf_level_hosalhosal_timer)(a4)
	bgtu	a4,a5,.L15
	.loc 1 61 155 is_stmt 1 discriminator 5
	.loc 1 61 251 is_stmt 0 discriminator 5
	call	xPortIsInsideInterrupt
.LVL30:
	.loc 1 61 155 discriminator 5
	beq	a0,zero,.L19
	.loc 1 61 280 discriminator 7
	call	xTaskGetTickCountFromISR
.LVL31:
.L25:
	.loc 1 61 155 discriminator 8
	lb	a5,0(s0)
	.loc 1 61 311 discriminator 8
	mv	a2,a0
	.loc 1 61 155 discriminator 8
	lui	a3,%hi(.LC1)
	lui	a1,%hi(.LC2)
	lui	a0,%hi(.LC3)
	addi	a0,a0,%lo(.LC3)
	li	a4,61
	addi	a3,a3,%lo(.LC1)
	addi	a1,a1,%lo(.LC2)
	call	bl_printk
.LVL32:
	.loc 1 62 10 discriminator 8
	li	a0,-1
.L15:
	.loc 1 86 1
	lw	ra,60(sp)
	.cfi_remember_state
	.cfi_restore 1
	lw	s0,56(sp)
	.cfi_restore 8
.LVL33:
	addi	sp,sp,64
	.cfi_def_cfa_offset 0
	jr	ra
.LVL34:
.L19:
	.cfi_restore_state
	.loc 1 61 311 discriminator 8
	call	xTaskGetTickCount
.LVL35:
	j	.L25
	.cfi_endproc
.LFE9:
	.size	hosal_timer_init, .-hosal_timer_init
	.section	.text.hosal_timer_start,"ax",@progbits
	.align	1
	.globl	hosal_timer_start
	.type	hosal_timer_start, @function
hosal_timer_start:
.LFB10:
	.loc 1 90 1 is_stmt 1
	.cfi_startproc
.LVL36:
	.loc 1 91 5
	.loc 1 90 1 is_stmt 0
	addi	sp,sp,-16
	.cfi_def_cfa_offset 16
	sw	ra,12(sp)
	sw	s0,8(sp)
	.cfi_offset 1, -4
	.cfi_offset 8, -8
	.loc 1 91 12
	lb	a5,0(a0)
	.loc 1 91 8
	bne	a5,zero,.L28
	.loc 1 92 3 is_stmt 1
	li	a0,52
.LVL37:
	call	bl_irq_enable
.LVL38:
	.loc 1 93 3
	li	a0,0
.L37:
	.loc 1 96 3 is_stmt 0
	call	TIMER_Enable
.LVL39:
	.loc 1 101 12
	li	a0,0
.L27:
	.loc 1 102 1
	lw	ra,12(sp)
	.cfi_remember_state
	.cfi_restore 1
	lw	s0,8(sp)
	.cfi_restore 8
	addi	sp,sp,16
	.cfi_def_cfa_offset 0
	jr	ra
.LVL40:
.L28:
	.cfi_restore_state
	.loc 1 94 12 is_stmt 1
	.loc 1 94 15 is_stmt 0
	li	a4,1
	bne	a5,a4,.L30
	.loc 1 95 3 is_stmt 1
	li	a0,53
.LVL41:
	call	bl_irq_enable
.LVL42:
	.loc 1 96 3
	li	a0,1
	j	.L37
.LVL43:
.L30:
	.loc 1 98 74 is_stmt 0 discriminator 1
	lui	a5,%hi(_fsymc_level_hosal)
	.loc 1 98 55 discriminator 1
	lw	a4,%lo(_fsymc_level_hosal)(a5)
	li	a5,4
	mv	s0,a0
	.loc 1 98 9 is_stmt 1 discriminator 1
	.loc 1 98 47 discriminator 1
	.loc 1 98 52 discriminator 1
	.loc 1 99 10 is_stmt 0 discriminator 1
	li	a0,-1
.LVL44:
	.loc 1 98 55 discriminator 1
	bgtu	a4,a5,.L27
	.loc 1 98 118 discriminator 3
	lui	a4,%hi(_fsymf_level_hosalhosal_timer)
	.loc 1 98 97 discriminator 3
	lw	a4,%lo(_fsymf_level_hosalhosal_timer)(a4)
	bgtu	a4,a5,.L27
	.loc 1 98 155 is_stmt 1 discriminator 5
	.loc 1 98 251 is_stmt 0 discriminator 5
	call	xPortIsInsideInterrupt
.LVL45:
	.loc 1 98 155 discriminator 5
	beq	a0,zero,.L31
	.loc 1 98 280 discriminator 7
	call	xTaskGetTickCountFromISR
.LVL46:
.L36:
	.loc 1 98 155 discriminator 8
	lb	a5,0(s0)
	.loc 1 98 311 discriminator 8
	mv	a2,a0
	.loc 1 98 155 discriminator 8
	lui	a3,%hi(.LC1)
	lui	a1,%hi(.LC2)
	lui	a0,%hi(.LC3)
	addi	a0,a0,%lo(.LC3)
	li	a4,98
	addi	a3,a3,%lo(.LC1)
	addi	a1,a1,%lo(.LC2)
	call	bl_printk
.LVL47:
	.loc 1 99 10 discriminator 8
	li	a0,-1
	j	.L27
.L31:
	.loc 1 98 311 discriminator 8
	call	xTaskGetTickCount
.LVL48:
	j	.L36
	.cfi_endproc
.LFE10:
	.size	hosal_timer_start, .-hosal_timer_start
	.section	.rodata.hosal_timer_stop.str1.4,"aMS",@progbits,1
	.align	2
.LC4:
	.string	"\033[32mINFO\033[0m"
	.section	.text.hosal_timer_stop,"ax",@progbits
	.align	1
	.globl	hosal_timer_stop
	.type	hosal_timer_stop, @function
hosal_timer_stop:
.LFB11:
	.loc 1 105 1 is_stmt 1
	.cfi_startproc
.LVL49:
	.loc 1 106 5
	.loc 1 105 1 is_stmt 0
	addi	sp,sp,-16
	.cfi_def_cfa_offset 16
	sw	ra,12(sp)
	sw	s0,8(sp)
	.cfi_offset 1, -4
	.cfi_offset 8, -8
	.loc 1 106 12
	lb	a5,0(a0)
	.loc 1 106 8
	bne	a5,zero,.L39
	.loc 1 107 3 is_stmt 1
	li	a0,52
.LVL50:
	call	bl_irq_disable
.LVL51:
	.loc 1 108 3
	li	a0,0
.L46:
	.loc 1 116 1 is_stmt 0
	lw	s0,8(sp)
	.cfi_remember_state
	.cfi_restore 8
	lw	ra,12(sp)
	.cfi_restore 1
	addi	sp,sp,16
	.cfi_def_cfa_offset 0
	.loc 1 111 3
	tail	TIMER_Disable
.LVL52:
.L39:
	.cfi_restore_state
	.loc 1 109 12 is_stmt 1
	.loc 1 109 15 is_stmt 0
	li	a4,1
	bne	a5,a4,.L40
	.loc 1 110 3 is_stmt 1
	li	a0,53
.LVL53:
	call	bl_irq_disable
.LVL54:
	.loc 1 111 3
	li	a0,1
	j	.L46
.LVL55:
.L40:
	.loc 1 113 9 discriminator 1
	.loc 1 113 47 discriminator 1
	.loc 1 113 52 discriminator 1
	.loc 1 113 73 is_stmt 0 discriminator 1
	lui	a5,%hi(_fsymc_level_hosal)
	.loc 1 113 55 discriminator 1
	lw	a4,%lo(_fsymc_level_hosal)(a5)
	li	a5,2
	bgtu	a4,a5,.L38
	.loc 1 113 116 discriminator 3
	lui	a4,%hi(_fsymf_level_hosalhosal_timer)
	.loc 1 113 96 discriminator 3
	lw	a4,%lo(_fsymf_level_hosalhosal_timer)(a4)
	bgtu	a4,a5,.L38
	mv	s0,a0
	.loc 1 113 153 is_stmt 1 discriminator 5
	.loc 1 113 248 is_stmt 0 discriminator 5
	call	xPortIsInsideInterrupt
.LVL56:
	.loc 1 113 153 discriminator 5
	beq	a0,zero,.L42
	.loc 1 113 277 discriminator 7
	call	xTaskGetTickCountFromISR
.LVL57:
.L45:
	.loc 1 113 153 discriminator 8
	lb	a5,0(s0)
	.loc 1 116 1 discriminator 8
	lw	s0,8(sp)
	.cfi_remember_state
	.cfi_restore 8
.LVL58:
	lw	ra,12(sp)
	.cfi_restore 1
	.loc 1 113 308 discriminator 8
	mv	a2,a0
	.loc 1 113 153 discriminator 8
	lui	a3,%hi(.LC1)
	lui	a1,%hi(.LC4)
	lui	a0,%hi(.LC3)
	.loc 1 116 1 discriminator 8
	.loc 1 113 153 discriminator 8
	li	a4,113
	addi	a3,a3,%lo(.LC1)
	addi	a1,a1,%lo(.LC4)
	addi	a0,a0,%lo(.LC3)
	.loc 1 116 1 discriminator 8
	addi	sp,sp,16
	.cfi_def_cfa_offset 0
	.loc 1 113 153 discriminator 8
	tail	bl_printk
.LVL59:
.L42:
	.cfi_restore_state
	.loc 1 113 308 discriminator 8
	call	xTaskGetTickCount
.LVL60:
	j	.L45
.LVL61:
.L38:
	.loc 1 116 1
	lw	ra,12(sp)
	.cfi_restore 1
	lw	s0,8(sp)
	.cfi_restore 8
	addi	sp,sp,16
	.cfi_def_cfa_offset 0
	jr	ra
	.cfi_endproc
.LFE11:
	.size	hosal_timer_stop, .-hosal_timer_stop
	.section	.text.hosal_timer_finalize,"ax",@progbits
	.align	1
	.globl	hosal_timer_finalize
	.type	hosal_timer_finalize, @function
hosal_timer_finalize:
.LFB12:
	.loc 1 119 1 is_stmt 1
	.cfi_startproc
.LVL62:
	.loc 1 120 5
	.loc 1 119 1 is_stmt 0
	addi	sp,sp,-16
	.cfi_def_cfa_offset 16
	sw	ra,12(sp)
	sw	s0,8(sp)
	.cfi_offset 1, -4
	.cfi_offset 8, -8
	.loc 1 120 12
	lb	a5,0(a0)
	.loc 1 120 8
	bne	a5,zero,.L48
	.loc 1 121 3 is_stmt 1
	li	a0,52
.LVL63:
	call	bl_irq_disable
.LVL64:
	.loc 1 122 9
	lui	a1,%hi(timer_process)
	addi	a1,a1,%lo(timer_process)
	li	a0,52
	call	bl_irq_unregister
.LVL65:
	.loc 1 123 9
	li	a0,0
	li	a2,1
	li	a1,3
	call	TIMER_IntMask
.LVL66:
	.loc 1 124 3
	li	a0,0
.L57:
	.loc 1 129 3 is_stmt 0
	call	TIMER_Disable
.LVL67:
	.loc 1 134 12
	li	a0,0
.L47:
	.loc 1 135 1
	lw	ra,12(sp)
	.cfi_remember_state
	.cfi_restore 1
	lw	s0,8(sp)
	.cfi_restore 8
	addi	sp,sp,16
	.cfi_def_cfa_offset 0
	jr	ra
.LVL68:
.L48:
	.cfi_restore_state
	.loc 1 125 12 is_stmt 1
	.loc 1 125 15 is_stmt 0
	li	a4,1
	bne	a5,a4,.L50
	.loc 1 126 3 is_stmt 1
	li	a0,53
.LVL69:
	call	bl_irq_disable
.LVL70:
	.loc 1 127 9
	lui	a1,%hi(timer_process)
	addi	a1,a1,%lo(timer_process)
	li	a0,53
	call	bl_irq_unregister
.LVL71:
	.loc 1 128 9
	li	a0,1
	li	a2,1
	li	a1,3
	call	TIMER_IntMask
.LVL72:
	.loc 1 129 3
	li	a0,1
	j	.L57
.LVL73:
.L50:
	.loc 1 131 74 is_stmt 0 discriminator 1
	lui	a5,%hi(_fsymc_level_hosal)
	.loc 1 131 55 discriminator 1
	lw	a4,%lo(_fsymc_level_hosal)(a5)
	li	a5,4
	mv	s0,a0
	.loc 1 131 9 is_stmt 1 discriminator 1
	.loc 1 131 47 discriminator 1
	.loc 1 131 52 discriminator 1
	.loc 1 132 10 is_stmt 0 discriminator 1
	li	a0,-1
.LVL74:
	.loc 1 131 55 discriminator 1
	bgtu	a4,a5,.L47
	.loc 1 131 118 discriminator 3
	lui	a4,%hi(_fsymf_level_hosalhosal_timer)
	.loc 1 131 97 discriminator 3
	lw	a4,%lo(_fsymf_level_hosalhosal_timer)(a4)
	bgtu	a4,a5,.L47
	.loc 1 131 155 is_stmt 1 discriminator 5
	.loc 1 131 251 is_stmt 0 discriminator 5
	call	xPortIsInsideInterrupt
.LVL75:
	.loc 1 131 155 discriminator 5
	beq	a0,zero,.L51
	.loc 1 131 280 discriminator 7
	call	xTaskGetTickCountFromISR
.LVL76:
.L56:
	.loc 1 131 155 discriminator 8
	lb	a5,0(s0)
	.loc 1 131 311 discriminator 8
	mv	a2,a0
	.loc 1 131 155 discriminator 8
	lui	a3,%hi(.LC1)
	lui	a1,%hi(.LC2)
	lui	a0,%hi(.LC3)
	addi	a0,a0,%lo(.LC3)
	li	a4,131
	addi	a3,a3,%lo(.LC1)
	addi	a1,a1,%lo(.LC2)
	call	bl_printk
.LVL77:
	.loc 1 132 10 discriminator 8
	li	a0,-1
	j	.L47
.L51:
	.loc 1 131 311 discriminator 8
	call	xTaskGetTickCount
.LVL78:
	j	.L56
	.cfi_endproc
.LFE12:
	.size	hosal_timer_finalize, .-hosal_timer_finalize
	.globl	_fsymf_info_hosalhosal_timer
	.section	.rodata.str1.4,"aMS",@progbits,1
	.align	2
.LC5:
	.string	"hosal.hosal_timer"
	.comm	_fsymf_level_hosalhosal_timer,4,4
	.align	2
.LC6:
	.string	"hosal"
	.weak	_fsymc_level_hosal
	.section	.rodata
	.align	2
	.set	.LANCHOR0,. + 0
.LC0:
	.word	1
	.word	3
	.word	1
	.word	0
	.byte	39
	.zero	3
	.word	-1
	.word	-1
	.word	-1
	.word	0
	.section	.sbss._fsymc_level_hosal,"aw",@nobits
	.align	2
	.type	_fsymc_level_hosal, @object
	.size	_fsymc_level_hosal, 4
_fsymc_level_hosal:
	.zero	4
	.section	.srodata.BLOG_HARD_DECLARE_DISABLE,"a"
	.align	2
	.type	BLOG_HARD_DECLARE_DISABLE, @object
	.size	BLOG_HARD_DECLARE_DISABLE, 4
BLOG_HARD_DECLARE_DISABLE:
	.zero	4
	.section	.static_blogcomponent_code.hosal,"a"
	.align	2
	.type	_fsymc_info_hosal, @object
	.size	_fsymc_info_hosal, 8
_fsymc_info_hosal:
	.word	_fsymc_level_hosal
	.word	.LC6
	.section	.static_blogfile_code.hosalhosal_timer,"a"
	.align	2
	.type	_fsymf_info_hosalhosal_timer, @object
	.size	_fsymf_info_hosalhosal_timer, 8
_fsymf_info_hosalhosal_timer:
	.word	_fsymf_level_hosalhosal_timer
	.word	.LC5
	.text
.Letext0:
	.file 2 "/mnt/d/GitHub/bl_iot_sdk_for_aithinker/toolchain/riscv/Linux/lib/gcc/riscv64-unknown-elf/10.2.0/include/stdint-gcc.h"
	.file 3 "/mnt/d/GitHub/bl_iot_sdk_for_aithinker/components/platform/soc/bl602/bl602_std/bl602_std/Device/Bouffalo/BL602/Peripherals/bl602.h"
	.file 4 "/mnt/d/GitHub/bl_iot_sdk_for_aithinker/components/platform/soc/bl602/bl602_std/bl602_std/StdDriver/Inc/bl602_common.h"
	.file 5 "/mnt/d/GitHub/bl_iot_sdk_for_aithinker/components/platform/soc/bl602/bl602_std/bl602_std/StdDriver/Inc/bl602_timer.h"
	.file 6 "/mnt/d/GitHub/bl_iot_sdk_for_aithinker/components/platform/hosal/include/hosal_timer.h"
	.file 7 "/mnt/d/GitHub/bl_iot_sdk_for_aithinker/components/stage/blog/blog_type.h"
	.file 8 "/mnt/d/GitHub/bl_iot_sdk_for_aithinker/components/stage/blog/blog.h"
	.file 9 "/mnt/d/GitHub/bl_iot_sdk_for_aithinker/components/platform/hosal/bl602_hal/bl_irq.h"
	.file 10 "/mnt/d/GitHub/bl_iot_sdk_for_aithinker/components/platform/soc/bl602/freertos_riscv_ram/portable/GCC/RISC-V/portmacro.h"
	.file 11 "/mnt/d/GitHub/bl_iot_sdk_for_aithinker/components/platform/soc/bl602/freertos_riscv_ram/config/task.h"
	.file 12 "/mnt/d/GitHub/bl_iot_sdk_for_aithinker/components/utils/include/utils_log.h"
	.file 13 "<built-in>"