	.file	"hosal_dac.c"
	.option nopic
	.attribute arch, "rv32i2p0_m2p0_f2p0_c2p0"
	.attribute unaligned_access, 0
	.attribute stack_align, 16
	.text
.Ltext0:
	.cfi_sections	.debug_frame
	.section	.rodata.dac_dma_irq_handler.str1.4,"aMS",@progbits,1
	.align	2
.LC5:
	.string	"hosal_dac.c"
	.align	2
.LC6:
	.string	"\033[31mERROR\033[0m"
	.align	2
.LC7:
	.string	"%s (%d)[%s:%4d] dma tran error!\r\n\r\n"
	.section	.text.dac_dma_irq_handler,"ax",@progbits
	.align	1
	.globl	dac_dma_irq_handler
	.type	dac_dma_irq_handler, @function
dac_dma_irq_handler:
.LFB13:
	.file 1 "/mnt/d/GitHub/bl_iot_sdk_for_aithinker/components/platform/hosal/bl602_hal/hosal_dac.c"
	.loc 1 199 1
	.cfi_startproc
.LVL0:
	.loc 1 200 5
	.loc 1 202 5
	.loc 1 204 5
	.loc 1 199 1 is_stmt 0
	addi	sp,sp,-16
	.cfi_def_cfa_offset 16
	sw	s0,8(sp)
	sw	ra,12(sp)
	.cfi_offset 8, -8
	.cfi_offset 1, -4
	.loc 1 199 1
	mv	s0,a0
	.loc 1 204 8
	bne	a1,zero,.L2
	.loc 1 205 9 is_stmt 1
	.loc 1 205 16 is_stmt 0
	lw	a5,16(a0)
	.loc 1 205 12
	beq	a5,zero,.L3
	.loc 1 206 13 is_stmt 1
	lw	a0,24(a0)
.LVL1:
	jalr	a5
.LVL2:
.L3:
	.loc 1 209 350 discriminator 11
	.loc 1 209 361 discriminator 11
	.loc 1 212 5 discriminator 11
	.loc 1 212 19 is_stmt 0 discriminator 11
	lw	a0,28(s0)
	.loc 1 212 8 discriminator 11
	beq	a0,zero,.L1
	.loc 1 213 9 is_stmt 1
	call	vPortFree
.LVL3:
	.loc 1 214 9
	.loc 1 214 19 is_stmt 0
	sw	zero,28(s0)
.L1:
	.loc 1 216 1
	lw	ra,12(sp)
	.cfi_remember_state
	.cfi_restore 1
	lw	s0,8(sp)
	.cfi_restore 8
.LVL4:
	addi	sp,sp,16
	.cfi_def_cfa_offset 0
	jr	ra
.LVL5:
.L2:
	.cfi_restore_state
	.loc 1 208 12 is_stmt 1
	.loc 1 208 15 is_stmt 0
	li	a5,1
	bne	a1,a5,.L3
	.loc 1 209 9 is_stmt 1 discriminator 1
	.loc 1 209 47 discriminator 1
	.loc 1 209 52 discriminator 1
	.loc 1 209 74 is_stmt 0 discriminator 1
	lui	a5,%hi(_fsymc_level_hosal)
	.loc 1 209 55 discriminator 1
	lw	a4,%lo(_fsymc_level_hosal)(a5)
	li	a5,4
	bgtu	a4,a5,.L3
	.loc 1 209 118 discriminator 3
	lui	a4,%hi(_fsymf_level_hosalhosal_dac)
	.loc 1 209 97 discriminator 3
	lw	a4,%lo(_fsymf_level_hosalhosal_dac)(a4)
	bgtu	a4,a5,.L3
	.loc 1 209 153 is_stmt 1 discriminator 5
	.loc 1 209 237 is_stmt 0 discriminator 5
	call	xPortIsInsideInterrupt
.LVL6:
	.loc 1 209 153 discriminator 5
	beq	a0,zero,.L4
	.loc 1 209 266 discriminator 7
	call	xTaskGetTickCountFromISR
.LVL7:
.L14:
	.loc 1 209 297 discriminator 8
	mv	a2,a0
	.loc 1 209 153 discriminator 8
	lui	a3,%hi(.LC5)
	lui	a1,%hi(.LC6)
	lui	a0,%hi(.LC7)
	li	a4,209
	addi	a3,a3,%lo(.LC5)
	addi	a1,a1,%lo(.LC6)
	addi	a0,a0,%lo(.LC7)
	call	bl_printk
.LVL8:
	j	.L3
.L4:
	.loc 1 209 297 discriminator 8
	call	xTaskGetTickCount
.LVL9:
	j	.L14
	.cfi_endproc
.LFE13:
	.size	dac_dma_irq_handler, .-dac_dma_irq_handler
	.section	.rodata.hosal_dac_init.str1.4,"aMS",@progbits,1
	.align	2
.LC8:
	.string	"%s (%d)[%s:%4d] parameter is error!\r\n\r\n"
	.align	2
.LC9:
	.string	"%s (%d)[%s:%4d] not support this freq!\r\n\r\n"
	.section	.text.hosal_dac_init,"ax",@progbits
	.align	1
	.globl	hosal_dac_init
	.type	hosal_dac_init, @function
hosal_dac_init:
.LFB8:
	.loc 1 25 1 is_stmt 1
	.cfi_startproc
.LVL10:
	.loc 1 26 5
	.loc 1 28 5
	.loc 1 28 23 is_stmt 0
	lui	a5,%hi(.LC0)
	addi	a5,a5,%lo(.LC0)
	lw	a4,0(a5)
	lhu	a5,4(a5)
	.loc 1 25 1
	addi	sp,sp,-80
	.cfi_def_cfa_offset 80
	.loc 1 37 27
	lui	a1,%hi(.LANCHOR0)
	.loc 1 25 1
	sw	s0,72(sp)
	sw	s1,68(sp)
	.cfi_offset 8, -8
	.cfi_offset 9, -12
	mv	s0,a0
	.loc 1 37 27
	addi	s1,a1,%lo(.LANCHOR0)
	li	a2,24
	addi	a1,a1,%lo(.LANCHOR0)
	addi	a0,sp,40
.LVL11:
	.loc 1 25 1
	sw	ra,76(sp)
	.cfi_offset 1, -4
	.loc 1 28 23
	sw	a4,0(sp)
	sh	a5,4(sp)
	.loc 1 37 5 is_stmt 1
	.loc 1 37 27 is_stmt 0
	call	memcpy
.LVL12:
	.loc 1 46 5 is_stmt 1
	.loc 1 46 33 is_stmt 0
	li	a2,16
	addi	a1,s1,24
	addi	a0,sp,8
	call	memcpy
.LVL13:
	.loc 1 53 5 is_stmt 1
	.loc 1 53 33 is_stmt 0
	li	a2,16
	addi	a1,s1,40
	addi	a0,sp,24
	call	memcpy
.LVL14:
	.loc 1 60 5 is_stmt 1
	.loc 1 60 8 is_stmt 0
	beq	s0,zero,.L16
	.loc 1 60 20 discriminator 1
	lbu	a5,0(s0)
	beq	a5,zero,.L17
.L16:
	.loc 1 61 9 is_stmt 1 discriminator 1
	.loc 1 61 47 discriminator 1
	.loc 1 61 52 discriminator 1
	.loc 1 61 74 is_stmt 0 discriminator 1
	lui	a5,%hi(_fsymc_level_hosal)
	.loc 1 61 55 discriminator 1
	lw	a4,%lo(_fsymc_level_hosal)(a5)
	li	a5,4
	bleu	a4,a5,.L18
.L39:
	.loc 1 62 16 discriminator 10
	li	s0,-1
.LVL15:
.L15:
	.loc 1 109 1
	lw	ra,76(sp)
	.cfi_remember_state
	.cfi_restore 1
	mv	a0,s0
	lw	s0,72(sp)
	.cfi_restore 8
	lw	s1,68(sp)
	.cfi_restore 9
	addi	sp,sp,80
	.cfi_def_cfa_offset 0
	jr	ra
.LVL16:
.L18:
	.cfi_restore_state
	.loc 1 61 118 discriminator 3
	lui	a4,%hi(_fsymf_level_hosalhosal_dac)
	.loc 1 61 97 discriminator 3
	lw	a4,%lo(_fsymf_level_hosalhosal_dac)(a4)
	bgtu	a4,a5,.L39
	.loc 1 61 153 is_stmt 1 discriminator 5
	.loc 1 61 241 is_stmt 0 discriminator 5
	call	xPortIsInsideInterrupt
.LVL17:
	.loc 1 61 153 discriminator 5
	beq	a0,zero,.L21
	.loc 1 61 270 discriminator 7
	call	xTaskGetTickCountFromISR
.LVL18:
.L36:
	.loc 1 61 301 discriminator 8
	mv	a2,a0
	.loc 1 61 153 discriminator 8
	lui	a3,%hi(.LC5)
	lui	a1,%hi(.LC6)
	lui	a0,%hi(.LC8)
	li	a4,61
	addi	a3,a3,%lo(.LC5)
	addi	a1,a1,%lo(.LC6)
	addi	a0,a0,%lo(.LC8)
.L40:
	.loc 1 61 153 discriminator 10
	call	bl_printk
.LVL19:
	j	.L39
.L21:
	.loc 1 61 301 discriminator 8
	call	xTaskGetTickCount
.LVL20:
	j	.L36
.L17:
	.loc 1 65 5 is_stmt 1
	.loc 1 70 13 is_stmt 0
	lbu	s1,8(s0)
	.loc 1 65 19
	li	a5,-1
	sw	a5,20(s0)
	.loc 1 66 5 is_stmt 1
	.loc 1 66 15 is_stmt 0
	sw	zero,28(s0)
	.loc 1 67 5 is_stmt 1
	.loc 1 67 13 is_stmt 0
	sw	zero,16(s0)
	.loc 1 68 5 is_stmt 1
	.loc 1 68 14 is_stmt 0
	sw	zero,24(s0)
	.loc 1 70 5 is_stmt 1
.LVL21:
	.loc 1 72 5
	.loc 1 76 5
	.loc 1 76 8 is_stmt 0
	li	a5,14
	bne	s1,a5,.L23
	.loc 1 77 9 is_stmt 1
	.loc 1 77 26 is_stmt 0
	sb	s1,0(sp)
	.loc 1 78 9 is_stmt 1
.L23:
	.loc 1 81 5
	.loc 1 81 28 is_stmt 0
	lw	a5,12(s0)
	.loc 1 81 8
	li	a4,8192
	addi	a4,a4,-192
	bne	a5,a4,.L24
	.loc 1 82 9 is_stmt 1
	.loc 1 82 21 is_stmt 0
	li	a5,3
.L38:
	.loc 1 84 21
	sw	a5,52(sp)
.L25:
	.loc 1 94 5 is_stmt 1
	.loc 1 94 32 is_stmt 0
	lbu	a5,4(s0)
	.loc 1 96 5
	mv	a0,sp
	.loc 1 94 32
	sw	a5,56(sp)
	.loc 1 96 5 is_stmt 1
	call	GLB_GPIO_Init
.LVL22:
	.loc 1 97 5
	addi	a0,sp,40
	call	GLB_GPIP_DAC_Init
.LVL23:
	.loc 1 98 5
	li	a2,64
	li	a1,0
	li	a0,1
	call	GLB_Set_DAC_CLK
.LVL24:
	.loc 1 100 5
	.loc 1 100 8 is_stmt 0
	li	a5,13
	bne	s1,a5,.L30
	.loc 1 101 9 is_stmt 1
	addi	a0,sp,8
	call	GLB_GPIP_DAC_Set_ChanA_Config
.LVL25:
	.loc 1 104 5
	.loc 1 108 12 is_stmt 0
	li	s0,0
.LVL26:
	j	.L15
.LVL27:
.L24:
	.loc 1 83 12 is_stmt 1
	.loc 1 83 15 is_stmt 0
	li	a4,16384
	addi	a4,a4,-384
	bne	a5,a4,.L26
	.loc 1 84 9 is_stmt 1
	.loc 1 84 21 is_stmt 0
	li	a5,1
	j	.L38
.L26:
	.loc 1 85 12 is_stmt 1
	.loc 1 85 15 is_stmt 0
	li	a4,32768
	addi	a4,a4,-768
	beq	a5,a4,.L25
	.loc 1 87 12 is_stmt 1
	.loc 1 87 15 is_stmt 0
	li	a4,512000
	bne	a5,a4,.L27
	.loc 1 88 9 is_stmt 1
	.loc 1 88 21 is_stmt 0
	li	a5,4
	j	.L38
.L27:
	.loc 1 90 9 is_stmt 1 discriminator 1
	.loc 1 90 47 discriminator 1
	.loc 1 90 52 discriminator 1
	.loc 1 90 74 is_stmt 0 discriminator 1
	lui	a5,%hi(_fsymc_level_hosal)
	.loc 1 90 55 discriminator 1
	lw	a4,%lo(_fsymc_level_hosal)(a5)
	li	a5,4
	bgtu	a4,a5,.L39
	.loc 1 90 118 discriminator 3
	lui	a4,%hi(_fsymf_level_hosalhosal_dac)
	.loc 1 90 97 discriminator 3
	lw	a4,%lo(_fsymf_level_hosalhosal_dac)(a4)
	bgtu	a4,a5,.L39
	.loc 1 90 153 is_stmt 1 discriminator 5
	.loc 1 90 244 is_stmt 0 discriminator 5
	call	xPortIsInsideInterrupt
.LVL28:
	.loc 1 90 153 discriminator 5
	beq	a0,zero,.L28
	.loc 1 90 273 discriminator 7
	call	xTaskGetTickCountFromISR
.LVL29:
.L37:
	.loc 1 90 304 discriminator 8
	mv	a2,a0
	.loc 1 90 153 discriminator 8
	lui	a3,%hi(.LC5)
	lui	a1,%hi(.LC6)
	lui	a0,%hi(.LC9)
	li	a4,90
	addi	a3,a3,%lo(.LC5)
	addi	a1,a1,%lo(.LC6)
	addi	a0,a0,%lo(.LC9)
	j	.L40
.L28:
	.loc 1 90 304 discriminator 8
	call	xTaskGetTickCount
.LVL30:
	j	.L37
.L30:
	.loc 1 104 5 is_stmt 1
	.loc 1 104 8 is_stmt 0
	li	a5,14
	.loc 1 108 12
	li	s0,0
.LVL31:
	.loc 1 104 8
	bne	s1,a5,.L15
	.loc 1 105 9 is_stmt 1
	addi	a0,sp,24
	call	GLB_GPIP_DAC_Set_ChanB_Config
.LVL32:
	j	.L15
	.cfi_endproc
.LFE8:
	.size	hosal_dac_init, .-hosal_dac_init
	.section	.text.hosal_dac_start,"ax",@progbits
	.align	1
	.globl	hosal_dac_start
	.type	hosal_dac_start, @function
hosal_dac_start:
.LFB9:
	.loc 1 112 1
	.cfi_startproc
.LVL33:
	.loc 1 113 5
	.loc 1 112 1 is_stmt 0
	addi	sp,sp,-16
	.cfi_def_cfa_offset 16
	sw	ra,12(sp)
	sw	s0,8(sp)
	.cfi_offset 1, -4
	.cfi_offset 8, -8
	.loc 1 113 8
	beq	a0,zero,.L42
	.loc 1 113 20 discriminator 1
	lbu	a5,0(a0)
	beq	a5,zero,.L43
.L42:
	.loc 1 114 9 is_stmt 1 discriminator 1
	.loc 1 114 47 discriminator 1
	.loc 1 114 52 discriminator 1
	.loc 1 114 74 is_stmt 0 discriminator 1
	lui	a5,%hi(_fsymc_level_hosal)
	.loc 1 114 55 discriminator 1
	lw	a4,%lo(_fsymc_level_hosal)(a5)
	li	a5,4
	.loc 1 115 16 discriminator 1
	li	s0,-1
	.loc 1 114 55 discriminator 1
	bgtu	a4,a5,.L41
	.loc 1 114 118 discriminator 3
	lui	a4,%hi(_fsymf_level_hosalhosal_dac)
	.loc 1 114 97 discriminator 3
	lw	a4,%lo(_fsymf_level_hosalhosal_dac)(a4)
	bgtu	a4,a5,.L41
	.loc 1 114 153 is_stmt 1 discriminator 5
	.loc 1 114 241 is_stmt 0 discriminator 5
	call	xPortIsInsideInterrupt
.LVL34:
	.loc 1 114 153 discriminator 5
	beq	a0,zero,.L45
	.loc 1 114 270 discriminator 7
	call	xTaskGetTickCountFromISR
.LVL35:
.L55:
	.loc 1 114 301 discriminator 8
	mv	a2,a0
	.loc 1 114 153 discriminator 8
	lui	a3,%hi(.LC5)
	lui	a1,%hi(.LC6)
	lui	a0,%hi(.LC8)
	li	a4,114
	addi	a3,a3,%lo(.LC5)
	addi	a1,a1,%lo(.LC6)
	addi	a0,a0,%lo(.LC8)
	call	bl_printk
.LVL36:
	.loc 1 115 16 discriminator 8
	li	s0,-1
.L41:
	.loc 1 128 1
	lw	ra,12(sp)
	.cfi_remember_state
	.cfi_restore 1
	mv	a0,s0
	lw	s0,8(sp)
	.cfi_restore 8
	addi	sp,sp,16
	.cfi_def_cfa_offset 0
	jr	ra
.L45:
	.cfi_restore_state
	.loc 1 114 301 discriminator 8
	call	xTaskGetTickCount
.LVL37:
	j	.L55
.LVL38:
.L43:
	.loc 1 118 5 is_stmt 1
	.loc 1 118 39 is_stmt 0
	lw	a5,8(a0)
	.loc 1 118 8
	li	a4,13
	bne	a5,a4,.L47
	.loc 1 119 9 is_stmt 1
	li	a0,0
.LVL39:
	call	GPIP_Set_DAC_ChanA_SRC_SEL
.LVL40:
	.loc 1 120 9
	.loc 1 127 12 is_stmt 0
	li	s0,0
	.loc 1 120 9
	call	GPIP_DAC_ChanA_Enable
.LVL41:
	j	.L41
.LVL42:
.L47:
	.loc 1 121 12 is_stmt 1
	.loc 1 121 15 is_stmt 0
	li	a4,14
	.loc 1 127 12
	li	s0,0
	.loc 1 121 15
	bne	a5,a4,.L41
	.loc 1 122 9 is_stmt 1
	li	a0,0
.LVL43:
	call	GPIP_Set_DAC_ChanB_SRC_SEL
.LVL44:
	.loc 1 123 9
	call	GPIP_DAC_ChanB_Enable
.LVL45:
	j	.L41
	.cfi_endproc
.LFE9:
	.size	hosal_dac_start, .-hosal_dac_start
	.section	.text.hosal_dac_set_value,"ax",@progbits
	.align	1
	.globl	hosal_dac_set_value
	.type	hosal_dac_set_value, @function
hosal_dac_set_value:
.LFB10:
	.loc 1 131 1
	.cfi_startproc
.LVL46:
	.loc 1 132 5
	.loc 1 133 5
	.loc 1 135 5
	.loc 1 131 1 is_stmt 0
	addi	sp,sp,-16
	.cfi_def_cfa_offset 16
	sw	ra,12(sp)
	sw	s0,8(sp)
	.cfi_offset 1, -4
	.cfi_offset 8, -8
	.loc 1 135 8
	beq	a0,zero,.L57
	.loc 1 135 20 discriminator 1
	lbu	a5,0(a0)
	bne	a5,zero,.L57
	.loc 1 135 56 discriminator 3
	li	a5,-200704
	addi	a5,a5,704
	li	a4,1601536
	add	a5,a1,a5
	addi	a4,a4,-1536
	bleu	a5,a4,.L58
.L57:
	.loc 1 136 9 is_stmt 1 discriminator 1
	.loc 1 136 47 discriminator 1
	.loc 1 136 52 discriminator 1
	.loc 1 136 74 is_stmt 0 discriminator 1
	lui	a5,%hi(_fsymc_level_hosal)
	.loc 1 136 55 discriminator 1
	lw	a4,%lo(_fsymc_level_hosal)(a5)
	li	a5,4
	.loc 1 137 16 discriminator 1
	li	s0,-1
	.loc 1 136 55 discriminator 1
	bgtu	a4,a5,.L56
	.loc 1 136 118 discriminator 3
	lui	a4,%hi(_fsymf_level_hosalhosal_dac)
	.loc 1 136 97 discriminator 3
	lw	a4,%lo(_fsymf_level_hosalhosal_dac)(a4)
	bgtu	a4,a5,.L56
	.loc 1 136 153 is_stmt 1 discriminator 5
	.loc 1 136 241 is_stmt 0 discriminator 5
	call	xPortIsInsideInterrupt
.LVL47:
	.loc 1 136 153 discriminator 5
	beq	a0,zero,.L60
	.loc 1 136 270 discriminator 7
	call	xTaskGetTickCountFromISR
.LVL48:
.L70:
	.loc 1 136 301 discriminator 8
	mv	a2,a0
	.loc 1 136 153 discriminator 8
	lui	a3,%hi(.LC5)
	lui	a1,%hi(.LC6)
	lui	a0,%hi(.LC8)
	li	a4,136
	addi	a3,a3,%lo(.LC5)
	addi	a1,a1,%lo(.LC6)
	addi	a0,a0,%lo(.LC8)
	call	bl_printk
.LVL49:
	.loc 1 137 16 discriminator 8
	li	s0,-1
.L56:
	.loc 1 154 1
	lw	ra,12(sp)
	.cfi_remember_state
	.cfi_restore 1
	mv	a0,s0
	lw	s0,8(sp)
	.cfi_restore 8
	addi	sp,sp,16
	.cfi_def_cfa_offset 0
	jr	ra
.L60:
	.cfi_restore_state
	.loc 1 136 301 discriminator 8
	call	xTaskGetTickCount
.LVL50:
	j	.L70
.LVL51:
.L58:
	.loc 1 140 5 is_stmt 1
	.loc 1 141 5
	.loc 1 143 5
	.loc 1 143 34 is_stmt 0
	lui	a5,%hi(.LC10)
	flw	fa3,%lo(.LC10)(a5)
	lui	a5,%hi(.LC11)
	flw	fa4,%lo(.LC11)(a5)
	.loc 1 143 30
	fcvt.s.w	fa5,a1
	.loc 1 146 39
	lw	a4,8(a0)
	.loc 1 146 8
	li	a3,13
	.loc 1 143 34
	fmadd.s	fa5,fa5,fa3,fa4
	.loc 1 143 12
	fcvt.wu.s a5,fa5,rtz
.LVL52:
	.loc 1 146 5 is_stmt 1
	.loc 1 146 8 is_stmt 0
	bne	a4,a3,.L62
	.loc 1 147 9 is_stmt 1
	slli	a0,a5,16
.LVL53:
	srli	a0,a0,16
	call	GLB_DAC_Set_ChanA_Value
.LVL54:
	.loc 1 153 12 is_stmt 0
	li	s0,0
	j	.L56
.LVL55:
.L62:
	.loc 1 148 12 is_stmt 1
	.loc 1 148 15 is_stmt 0
	li	a3,14
	.loc 1 153 12
	li	s0,0
	.loc 1 148 15
	bne	a4,a3,.L56
	.loc 1 149 9 is_stmt 1
	slli	a0,a5,16
.LVL56:
	srli	a0,a0,16
	call	GLB_DAC_Set_ChanB_Value
.LVL57:
	j	.L56
	.cfi_endproc
.LFE10:
	.size	hosal_dac_set_value, .-hosal_dac_set_value
	.section	.text.hosal_dac_get_value,"ax",@progbits
	.align	1
	.globl	hosal_dac_get_value
	.type	hosal_dac_get_value, @function
hosal_dac_get_value:
.LFB11:
	.loc 1 157 1
	.cfi_startproc
.LVL58:
	.loc 1 158 5
	.loc 1 159 5
	.loc 1 161 5
	.loc 1 161 8 is_stmt 0
	beq	a0,zero,.L72
	.loc 1 161 20 discriminator 1
	lbu	a5,0(a0)
	beq	a5,zero,.L73
.L72:
	.loc 1 162 9 is_stmt 1 discriminator 1
	.loc 1 162 47 discriminator 1
	.loc 1 162 52 discriminator 1
	.loc 1 162 74 is_stmt 0 discriminator 1
	lui	a5,%hi(_fsymc_level_hosal)
	.loc 1 162 55 discriminator 1
	lw	a4,%lo(_fsymc_level_hosal)(a5)
	li	a5,4
	.loc 1 163 16 discriminator 1
	li	a0,-1
.LVL59:
	.loc 1 162 55 discriminator 1
	bgtu	a4,a5,.L85
	.loc 1 162 118 discriminator 3
	lui	a4,%hi(_fsymf_level_hosalhosal_dac)
	.loc 1 162 97 discriminator 3
	lw	a4,%lo(_fsymf_level_hosalhosal_dac)(a4)
	bgtu	a4,a5,.L85
	.loc 1 162 153 is_stmt 1 discriminator 5
	.loc 1 157 1 is_stmt 0 discriminator 5
	addi	sp,sp,-16
	.cfi_def_cfa_offset 16
	sw	ra,12(sp)
	.cfi_offset 1, -4
	.loc 1 162 241 discriminator 5
	call	xPortIsInsideInterrupt
.LVL60:
	.loc 1 162 153 discriminator 5
	beq	a0,zero,.L75
	.loc 1 162 270 discriminator 7
	call	xTaskGetTickCountFromISR
.LVL61:
.L88:
	.loc 1 162 301 discriminator 8
	mv	a2,a0
	.loc 1 162 153 discriminator 8
	lui	a3,%hi(.LC5)
	lui	a1,%hi(.LC6)
	lui	a0,%hi(.LC8)
	addi	a0,a0,%lo(.LC8)
	li	a4,162
	addi	a3,a3,%lo(.LC5)
	addi	a1,a1,%lo(.LC6)
	call	bl_printk
.LVL62:
	.loc 1 180 1 discriminator 8
	lw	ra,12(sp)
	.cfi_remember_state
	.cfi_restore 1
	.loc 1 163 16 discriminator 8
	li	a0,-1
	.loc 1 180 1 discriminator 8
	addi	sp,sp,16
	.cfi_def_cfa_offset 0
	jr	ra
.L75:
	.cfi_restore_state
	.loc 1 162 301 discriminator 8
	call	xTaskGetTickCount
.LVL63:
	j	.L88
.LVL64:
.L73:
	.cfi_def_cfa_offset 0
	.cfi_restore 1
	.loc 1 166 5 is_stmt 1
	.loc 1 166 16 is_stmt 0
	li	a5,1073741824
	.loc 1 168 39
	lw	a4,8(a0)
	.loc 1 166 16
	lw	a5,788(a5)
.LVL65:
	.loc 1 168 5 is_stmt 1
	.loc 1 168 8 is_stmt 0
	li	a3,13
	bne	a4,a3,.L77
	.loc 1 169 9 is_stmt 1
	.loc 1 169 66 is_stmt 0
	srli	a5,a5,16
.LVL66:
.L89:
	.loc 1 171 9 is_stmt 1
	.loc 1 171 17 is_stmt 0
	andi	a5,a5,1023
.LVL67:
	j	.L78
.L77:
	.loc 1 170 12 is_stmt 1
	.loc 1 170 15 is_stmt 0
	li	a3,14
	beq	a4,a3,.L89
.L78:
	.loc 1 173 6 is_stmt 1
	.loc 1 175 5
.LVL68:
	.loc 1 176 5
	.loc 1 177 5
	.loc 1 177 20 is_stmt 0
	fcvt.s.w	fa5,a5
	.loc 1 177 30
	lui	a5,%hi(.LC12)
.LVL69:
	flw	fa3,%lo(.LC12)(a5)
	lui	a5,%hi(.LC13)
	flw	fa4,%lo(.LC13)(a5)
	fmadd.s	fa5,fa5,fa3,fa4
	.loc 1 177 10
	fcvt.w.s a0,fa5,rtz
.LVL70:
	.loc 1 179 5 is_stmt 1
	.loc 1 179 12 is_stmt 0
	ret
.LVL71:
.L85:
	.loc 1 180 1
	ret
	.cfi_endproc
.LFE11:
	.size	hosal_dac_get_value, .-hosal_dac_get_value
	.section	.text.hosal_dac_stop,"ax",@progbits
	.align	1
	.globl	hosal_dac_stop
	.type	hosal_dac_stop, @function
hosal_dac_stop:
.LFB12:
	.loc 1 183 1 is_stmt 1
	.cfi_startproc
.LVL72:
	.loc 1 184 5
	.loc 1 183 1 is_stmt 0
	addi	sp,sp,-32
	.cfi_def_cfa_offset 32
	sw	ra,28(sp)
	.cfi_offset 1, -4
	.loc 1 184 8
	beq	a0,zero,.L91
	.loc 1 184 20 discriminator 1
	lbu	a5,0(a0)
	beq	a5,zero,.L92
.L91:
	.loc 1 185 9 is_stmt 1 discriminator 1
	.loc 1 185 47 discriminator 1
	.loc 1 185 52 discriminator 1
	.loc 1 185 74 is_stmt 0 discriminator 1
	lui	a5,%hi(_fsymc_level_hosal)
	.loc 1 185 55 discriminator 1
	lw	a4,%lo(_fsymc_level_hosal)(a5)
	li	a5,4
	.loc 1 186 16 discriminator 1
	li	a0,-1
.LVL73:
	.loc 1 185 55 discriminator 1
	bgtu	a4,a5,.L90
	.loc 1 185 118 discriminator 3
	lui	a4,%hi(_fsymf_level_hosalhosal_dac)
	.loc 1 185 97 discriminator 3
	lw	a4,%lo(_fsymf_level_hosalhosal_dac)(a4)
	bgtu	a4,a5,.L90
	.loc 1 185 153 is_stmt 1 discriminator 5
	.loc 1 185 241 is_stmt 0 discriminator 5
	call	xPortIsInsideInterrupt
.LVL74:
	.loc 1 185 153 discriminator 5
	beq	a0,zero,.L94
	.loc 1 185 270 discriminator 7
	call	xTaskGetTickCountFromISR
.LVL75:
.L104:
	.loc 1 185 301 discriminator 8
	mv	a2,a0
	.loc 1 185 153 discriminator 8
	lui	a3,%hi(.LC5)
	lui	a1,%hi(.LC6)
	lui	a0,%hi(.LC8)
	addi	a0,a0,%lo(.LC8)
	li	a4,185
	addi	a3,a3,%lo(.LC5)
	addi	a1,a1,%lo(.LC6)
	call	bl_printk
.LVL76:
	.loc 1 186 16 discriminator 8
	li	a0,-1
.L90:
	.loc 1 196 1
	lw	ra,28(sp)
	.cfi_remember_state
	.cfi_restore 1
	addi	sp,sp,32
	.cfi_def_cfa_offset 0
	jr	ra
.L94:
	.cfi_restore_state
	.loc 1 185 301 discriminator 8
	call	xTaskGetTickCount
.LVL77:
	j	.L104
.LVL78:
.L92:
	.loc 1 189 5 is_stmt 1
	.loc 1 189 39 is_stmt 0
	lw	a5,8(a0)
	.loc 1 189 8
	li	a4,13
	bne	a5,a4,.L96
	.loc 1 190 9 is_stmt 1
	call	GPIP_DAC_ChanA_Disable
.LVL79:
	.loc 1 195 12 is_stmt 0
	li	a0,0
	j	.L90
.LVL80:
.L96:
	.loc 1 191 12 is_stmt 1
	.loc 1 191 15 is_stmt 0
	li	a4,14
	.loc 1 195 12
	li	a0,0
.LVL81:
	.loc 1 191 15
	bne	a5,a4,.L90
	sw	a0,12(sp)
	.loc 1 192 9 is_stmt 1
	call	GPIP_DAC_ChanB_Disable
.LVL82:
	lw	a0,12(sp)
	j	.L90
	.cfi_endproc
.LFE12:
	.size	hosal_dac_stop, .-hosal_dac_stop
	.section	.text.hosal_dac_dma_cb_reg,"ax",@progbits
	.align	1
	.globl	hosal_dac_dma_cb_reg
	.type	hosal_dac_dma_cb_reg, @function
hosal_dac_dma_cb_reg:
.LFB14:
	.loc 1 219 1
	.cfi_startproc
.LVL83:
	.loc 1 220 5
	.loc 1 220 8 is_stmt 0
	bne	a0,zero,.L106
	.loc 1 221 9 is_stmt 1 discriminator 1
	.loc 1 221 47 discriminator 1
	.loc 1 221 52 discriminator 1
	.loc 1 221 74 is_stmt 0 discriminator 1
	lui	a5,%hi(_fsymc_level_hosal)
	.loc 1 221 55 discriminator 1
	lw	a4,%lo(_fsymc_level_hosal)(a5)
	li	a5,4
	.loc 1 222 16 discriminator 1
	li	a0,-1
.LVL84:
	.loc 1 221 55 discriminator 1
	bgtu	a4,a5,.L113
	.loc 1 221 118 discriminator 3
	lui	a4,%hi(_fsymf_level_hosalhosal_dac)
	.loc 1 221 97 discriminator 3
	lw	a4,%lo(_fsymf_level_hosalhosal_dac)(a4)
	bgtu	a4,a5,.L113
	.loc 1 221 153 is_stmt 1 discriminator 5
	.loc 1 219 1 is_stmt 0 discriminator 5
	addi	sp,sp,-16
	.cfi_def_cfa_offset 16
	sw	ra,12(sp)
	.cfi_offset 1, -4
	.loc 1 221 241 discriminator 5
	call	xPortIsInsideInterrupt
.LVL85:
	.loc 1 221 153 discriminator 5
	beq	a0,zero,.L108
	.loc 1 221 270 discriminator 7
	call	xTaskGetTickCountFromISR
.LVL86:
.L116:
	.loc 1 221 301 discriminator 8
	mv	a2,a0
	.loc 1 221 153 discriminator 8
	lui	a3,%hi(.LC5)
	lui	a1,%hi(.LC6)
	lui	a0,%hi(.LC8)
	addi	a0,a0,%lo(.LC8)
	li	a4,221
	addi	a3,a3,%lo(.LC5)
	addi	a1,a1,%lo(.LC6)
	call	bl_printk
.LVL87:
	.loc 1 229 1 discriminator 8
	lw	ra,12(sp)
	.cfi_remember_state
	.cfi_restore 1
	.loc 1 222 16 discriminator 8
	li	a0,-1
	.loc 1 229 1 discriminator 8
	addi	sp,sp,16
	.cfi_def_cfa_offset 0
	jr	ra
.L108:
	.cfi_restore_state
	.loc 1 221 301 discriminator 8
	call	xTaskGetTickCount
.LVL88:
	j	.L116
.LVL89:
.L106:
	.cfi_def_cfa_offset 0
	.cfi_restore 1
	.loc 1 225 5 is_stmt 1
	.loc 1 225 13 is_stmt 0
	sw	a1,16(a0)
	.loc 1 226 5 is_stmt 1
	.loc 1 226 14 is_stmt 0
	sw	a2,24(a0)
	.loc 1 228 5 is_stmt 1
	.loc 1 228 12 is_stmt 0
	li	a0,0
.LVL90:
	ret
.L113:
	.loc 1 229 1
	ret
	.cfi_endproc
.LFE14:
	.size	hosal_dac_dma_cb_reg, .-hosal_dac_dma_cb_reg
	.section	.rodata.hosal_dac_dma_start.str1.4,"aMS",@progbits,1
	.align	2
.LC14:
	.string	"%s (%d)[%s:%4d] dma channel is error!\r\n\r\n"
	.align	2
.LC15:
	.string	"%s (%d)[%s:%4d] malloc lli failed. \r\n\r\n"
	.section	.text.hosal_dac_dma_start,"ax",@progbits
	.align	1
	.globl	hosal_dac_dma_start
	.type	hosal_dac_dma_start, @function
hosal_dac_dma_start:
.LFB15:
	.loc 1 232 1 is_stmt 1
	.cfi_startproc
.LVL91:
	.loc 1 233 5
	.loc 1 234 5
	.loc 1 235 5
	.loc 1 236 5
	.loc 1 237 5
	.loc 1 239 5
	.loc 1 232 1 is_stmt 0
	addi	sp,sp,-48
	.cfi_def_cfa_offset 48
	.loc 1 239 22
	li	a5,1
	sw	a5,4(sp)
	li	a5,23
	.loc 1 232 1
	sw	ra,44(sp)
	sw	s0,40(sp)
	sw	s1,36(sp)
	sw	s2,32(sp)
	sw	s3,28(sp)
	sw	s4,24(sp)
	sw	s5,20(sp)
	.cfi_offset 1, -4
	.cfi_offset 8, -8
	.cfi_offset 9, -12
	.cfi_offset 18, -16
	.cfi_offset 19, -20
	.cfi_offset 20, -24
	.cfi_offset 21, -28
	.loc 1 239 22
	sw	zero,8(sp)
	sw	a5,12(sp)
	.loc 1 245 5 is_stmt 1
	.loc 1 245 8 is_stmt 0
	beq	a0,zero,.L118
	mv	s2,a1
	.loc 1 245 20 discriminator 1
	beq	a1,zero,.L118
	mv	s3,a2
	.loc 1 245 36 discriminator 2
	beq	a2,zero,.L118
	.loc 1 245 48 discriminator 3
	lbu	a5,0(a0)
	mv	s0,a0
	beq	a5,zero,.L119
.L118:
	.loc 1 246 9 is_stmt 1 discriminator 1
	.loc 1 246 47 discriminator 1
	.loc 1 246 52 discriminator 1
	.loc 1 246 74 is_stmt 0 discriminator 1
	lui	a5,%hi(_fsymc_level_hosal)
	.loc 1 246 55 discriminator 1
	lw	a4,%lo(_fsymc_level_hosal)(a5)
	li	a5,4
	bleu	a4,a5,.L120
.LVL92:
.L162:
	.loc 1 247 16 discriminator 10
	li	s0,-1
.L117:
	.loc 1 335 1
	lw	ra,44(sp)
	.cfi_remember_state
	.cfi_restore 1
	mv	a0,s0
	lw	s0,40(sp)
	.cfi_restore 8
	lw	s1,36(sp)
	.cfi_restore 9
	lw	s2,32(sp)
	.cfi_restore 18
	lw	s3,28(sp)
	.cfi_restore 19
	lw	s4,24(sp)
	.cfi_restore 20
	lw	s5,20(sp)
	.cfi_restore 21
	addi	sp,sp,48
	.cfi_def_cfa_offset 0
	jr	ra
.LVL93:
.L120:
	.cfi_restore_state
	.loc 1 246 118 discriminator 3
	lui	a4,%hi(_fsymf_level_hosalhosal_dac)
	.loc 1 246 97 discriminator 3
	lw	a4,%lo(_fsymf_level_hosalhosal_dac)(a4)
	bgtu	a4,a5,.L162
	.loc 1 246 153 is_stmt 1 discriminator 5
	.loc 1 246 241 is_stmt 0 discriminator 5
	call	xPortIsInsideInterrupt
.LVL94:
	.loc 1 246 153 discriminator 5
	beq	a0,zero,.L123
	.loc 1 246 270 discriminator 7
	call	xTaskGetTickCountFromISR
.LVL95:
.L159:
	.loc 1 246 301 discriminator 8
	mv	a2,a0
	.loc 1 246 153 discriminator 8
	lui	a3,%hi(.LC5)
	lui	a1,%hi(.LC6)
	lui	a0,%hi(.LC8)
	li	a4,246
	addi	a3,a3,%lo(.LC5)
	addi	a1,a1,%lo(.LC6)
	addi	a0,a0,%lo(.LC8)
.L163:
	.loc 1 246 153 discriminator 10
	call	bl_printk
.LVL96:
	j	.L162
.L123:
	.loc 1 246 301 discriminator 8
	call	xTaskGetTickCount
.LVL97:
	j	.L159
.LVL98:
.L119:
	.loc 1 250 5 is_stmt 1
	.loc 1 250 8 is_stmt 0
	lbu	a5,4(a0)
	beq	a5,zero,.L125
	.loc 1 250 32 discriminator 1
	lw	a5,20(a0)
	bge	a5,zero,.L125
	.loc 1 251 9 is_stmt 1
	.loc 1 251 25 is_stmt 0
	li	a0,0
	call	hosal_dma_chan_request
.LVL99:
	.loc 1 251 23
	sw	a0,20(s0)
	.loc 1 252 9 is_stmt 1
	.loc 1 252 12 is_stmt 0
	bge	a0,zero,.L125
	.loc 1 253 13 is_stmt 1 discriminator 1
	.loc 1 253 51 discriminator 1
	.loc 1 253 56 discriminator 1
	.loc 1 253 78 is_stmt 0 discriminator 1
	lui	a5,%hi(_fsymc_level_hosal)
	.loc 1 253 59 discriminator 1
	lw	a4,%lo(_fsymc_level_hosal)(a5)
	li	a5,4
	bgtu	a4,a5,.L162
	.loc 1 253 122 discriminator 3
	lui	a4,%hi(_fsymf_level_hosalhosal_dac)
	.loc 1 253 101 discriminator 3
	lw	a4,%lo(_fsymf_level_hosalhosal_dac)(a4)
	bgtu	a4,a5,.L162
	.loc 1 253 157 is_stmt 1 discriminator 5
	.loc 1 253 247 is_stmt 0 discriminator 5
	call	xPortIsInsideInterrupt
.LVL100:
	.loc 1 253 157 discriminator 5
	beq	a0,zero,.L126
	.loc 1 253 276 discriminator 7
	call	xTaskGetTickCountFromISR
.LVL101:
.L160:
	.loc 1 253 307 discriminator 8
	mv	a2,a0
	.loc 1 253 157 discriminator 8
	lui	a3,%hi(.LC5)
	lui	a1,%hi(.LC6)
	lui	a0,%hi(.LC14)
	li	a4,253
	addi	a3,a3,%lo(.LC5)
	addi	a1,a1,%lo(.LC6)
	addi	a0,a0,%lo(.LC14)
	j	.L163
.L126:
	.loc 1 253 307 discriminator 8
	call	xTaskGetTickCount
.LVL102:
	j	.L160
.L125:
	.loc 1 258 5 is_stmt 1
	lw	a0,20(s0)
	.loc 1 262 11 is_stmt 0
	srli	s5,s3,13
	.loc 1 263 15
	andi	s3,s3,2047
.LVL103:
	.loc 1 258 5
	call	hosal_dma_chan_stop
.LVL104:
	.loc 1 259 5 is_stmt 1
	lw	a0,20(s0)
	lui	a1,%hi(dac_dma_irq_handler)
	mv	a2,s0
	addi	a1,a1,%lo(dac_dma_irq_handler)
	call	hosal_dma_irq_callback_set
.LVL105:
	.loc 1 262 5
	.loc 1 263 5
	.loc 1 265 5
	.loc 1 265 8 is_stmt 0
	beq	s3,zero,.L128
	.loc 1 266 9 is_stmt 1
	.loc 1 266 15 is_stmt 0
	addi	s5,s5,1
.LVL106:
.L128:
	.loc 1 269 5 is_stmt 1
	.loc 1 270 5
	.loc 1 271 5
	.loc 1 272 5
	.loc 1 273 5
	.loc 1 274 5
	.loc 1 276 5
	.loc 1 276 56 is_stmt 0
	slli	s1,s5,4
	.loc 1 276 17
	mv	a0,s1
	call	pvPortMalloc
.LVL107:
	mv	s4,a0
.LVL108:
	.loc 1 277 5 is_stmt 1
	mv	a2,s1
	li	a1,0
	call	memset
.LVL109:
	.loc 1 279 5
	.loc 1 279 15 is_stmt 0
	sw	s4,28(s0)
	.loc 1 281 5 is_stmt 1
	.loc 1 281 8 is_stmt 0
	beq	s4,zero,.L129
	.loc 1 288 34
	li	a1,4096
	.loc 1 306 34
	li	a0,1073750016
	.loc 1 307 30
	li	a6,-33554432
	.loc 1 281 8
	mv	a4,s4
	.loc 1 286 12
	li	a3,0
	.loc 1 290 28
	addi	a7,s5,-1
	.loc 1 288 34
	addi	a1,a1,-2048
	.loc 1 291 38
	mv	t1,s3
	.loc 1 306 34
	addi	a0,a0,72
	.loc 1 307 30
	li	t3,71827456
	addi	a6,a6,-1
	li	t4,33554432
.LVL110:
.L130:
	.loc 1 286 17 is_stmt 1 discriminator 1
	.loc 1 286 5 is_stmt 0 discriminator 1
	bne	a3,s5,.L135
	.loc 1 313 5 is_stmt 1
	.loc 1 313 30 is_stmt 0
	add	s1,s4,s1
	sw	zero,-8(s1)
	.loc 1 315 5 is_stmt 1
	lbu	a0,20(s0)
	addi	a1,sp,4
	call	DMA_LLI_Init
.LVL111:
	.loc 1 317 5
	lw	a0,20(s0)
	call	hosal_dma_chan_start
.LVL112:
	.loc 1 318 5
	lbu	a0,20(s0)
	mv	a1,s4
	call	DMA_LLI_Update
.LVL113:
	.loc 1 320 5
	.loc 1 320 39 is_stmt 0
	lw	a5,8(s0)
	.loc 1 320 8
	li	a4,13
	bne	a5,a4,.L136
	.loc 1 321 9 is_stmt 1
	call	GPIP_DAC_ChanA_Enable
.LVL114:
	.loc 1 322 9
	li	a0,1
	call	GPIP_Set_DAC_ChanA_SRC_SEL
.LVL115:
	.loc 1 323 9
	li	a0,0
	call	GPIP_Set_DAC_DMA_TX_FORMAT_SEL
.LVL116:
	.loc 1 324 9
	.loc 1 334 12 is_stmt 0
	li	s0,0
.LVL117:
	.loc 1 324 9
	call	GPIP_Set_DAC_DMA_TX_Enable
.LVL118:
	j	.L117
.LVL119:
.L129:
	.loc 1 282 9 is_stmt 1 discriminator 1
	.loc 1 282 47 discriminator 1
	.loc 1 282 52 discriminator 1
	.loc 1 282 74 is_stmt 0 discriminator 1
	lui	a5,%hi(_fsymc_level_hosal)
	.loc 1 282 55 discriminator 1
	lw	a4,%lo(_fsymc_level_hosal)(a5)
	li	a5,4
	bgtu	a4,a5,.L162
	.loc 1 282 118 discriminator 3
	lui	a4,%hi(_fsymf_level_hosalhosal_dac)
	.loc 1 282 97 discriminator 3
	lw	a4,%lo(_fsymf_level_hosalhosal_dac)(a4)
	bgtu	a4,a5,.L162
	.loc 1 282 153 is_stmt 1 discriminator 5
	.loc 1 282 241 is_stmt 0 discriminator 5
	call	xPortIsInsideInterrupt
.LVL120:
	.loc 1 282 153 discriminator 5
	beq	a0,zero,.L131
	.loc 1 282 270 discriminator 7
	call	xTaskGetTickCountFromISR
.LVL121:
.L161:
	.loc 1 282 301 discriminator 8
	mv	a2,a0
	.loc 1 282 153 discriminator 8
	lui	a3,%hi(.LC5)
	lui	a1,%hi(.LC6)
	lui	a0,%hi(.LC15)
	li	a4,282
	addi	a3,a3,%lo(.LC5)
	addi	a1,a1,%lo(.LC6)
	addi	a0,a0,%lo(.LC15)
	j	.L163
.L131:
	.loc 1 282 301 discriminator 8
	call	xTaskGetTickCount
.LVL122:
	j	.L161
.LVL123:
.L135:
	.loc 1 287 9 is_stmt 1
	.loc 1 288 34 is_stmt 0
	mv	a2,a1
	.loc 1 287 12
	beq	s3,zero,.L133
	.loc 1 290 13 is_stmt 1
	.loc 1 290 16 is_stmt 0
	bne	a3,a7,.L133
	.loc 1 291 17 is_stmt 1
	.loc 1 291 38 is_stmt 0
	mv	a2,t1
.LVL124:
.L133:
	.loc 1 297 9 is_stmt 1
	.loc 1 303 9
	.loc 1 304 9
	.loc 1 305 9
	.loc 1 305 33 is_stmt 0
	slli	a5,a3,13
	add	a5,s2,a5
	sw	a5,0(a4)
	.loc 1 306 9 is_stmt 1
	.loc 1 297 12 is_stmt 0
	sub	a5,a3,a7
	seqz	a5,a5
	.loc 1 307 30
	or	a2,a2,t3
.LVL125:
	slli	a5,a5,31
	or	a5,a5,a2
	lw	a2,12(a4)
	and	a5,a5,a6
	.loc 1 306 34
	sw	a0,4(a4)
	.loc 1 307 9 is_stmt 1
	.loc 1 307 30 is_stmt 0
	and	a2,t4,a2
	or	a5,a5,a2
	sw	a5,12(a4)
	.loc 1 308 9 is_stmt 1
	.loc 1 308 12 is_stmt 0
	beq	a3,zero,.L134
	.loc 1 309 13 is_stmt 1
	.loc 1 309 36 is_stmt 0
	sw	a4,-8(a4)
.L134:
	.loc 1 286 28 is_stmt 1 discriminator 2
	.loc 1 286 29 is_stmt 0 discriminator 2
	addi	a3,a3,1
.LVL126:
	addi	a4,a4,16
	j	.L130
.LVL127:
.L136:
	.loc 1 326 12 is_stmt 1
	.loc 1 326 15 is_stmt 0
	li	a4,14
	.loc 1 334 12
	li	s0,0
.LVL128:
	.loc 1 326 15
	bne	a5,a4,.L117
	.loc 1 327 9 is_stmt 1
	call	GPIP_DAC_ChanB_Enable
.LVL129:
	.loc 1 328 9
	li	a0,1
	call	GPIP_Set_DAC_ChanB_SRC_SEL
.LVL130:
	.loc 1 329 9
	li	a0,0
	call	GPIP_Set_DAC_DMA_TX_FORMAT_SEL
.LVL131:
	.loc 1 330 9
	call	GPIP_Set_DAC_DMA_TX_Enable
.LVL132:
	j	.L117
	.cfi_endproc
.LFE15:
	.size	hosal_dac_dma_start, .-hosal_dac_dma_start
	.section	.text.hosal_dac_dma_stop,"ax",@progbits
	.align	1
	.globl	hosal_dac_dma_stop
	.type	hosal_dac_dma_stop, @function
hosal_dac_dma_stop:
.LFB16:
	.loc 1 337 1
	.cfi_startproc
.LVL133:
	.loc 1 338 5
	.loc 1 337 1 is_stmt 0
	addi	sp,sp,-16
	.cfi_def_cfa_offset 16
	sw	ra,12(sp)
	sw	s0,8(sp)
	sw	s1,4(sp)
	.cfi_offset 1, -4
	.cfi_offset 8, -8
	.cfi_offset 9, -12
	.loc 1 338 8
	beq	a0,zero,.L165
	.loc 1 338 20 discriminator 1
	lbu	a5,0(a0)
	mv	s0,a0
	beq	a5,zero,.L166
.L165:
	.loc 1 339 9 is_stmt 1 discriminator 1
	.loc 1 339 47 discriminator 1
	.loc 1 339 52 discriminator 1
	.loc 1 339 74 is_stmt 0 discriminator 1
	lui	a5,%hi(_fsymc_level_hosal)
	.loc 1 339 55 discriminator 1
	lw	a4,%lo(_fsymc_level_hosal)(a5)
	li	a5,4
	.loc 1 340 16 discriminator 1
	li	s1,-1
	.loc 1 339 55 discriminator 1
	bgtu	a4,a5,.L164
	.loc 1 339 118 discriminator 3
	lui	a4,%hi(_fsymf_level_hosalhosal_dac)
	.loc 1 339 97 discriminator 3
	lw	a4,%lo(_fsymf_level_hosalhosal_dac)(a4)
	bgtu	a4,a5,.L164
	.loc 1 339 153 is_stmt 1 discriminator 5
	.loc 1 339 241 is_stmt 0 discriminator 5
	call	xPortIsInsideInterrupt
.LVL134:
	.loc 1 339 153 discriminator 5
	beq	a0,zero,.L168
	.loc 1 339 270 discriminator 7
	call	xTaskGetTickCountFromISR
.LVL135:
.L180:
	.loc 1 339 301 discriminator 8
	mv	a2,a0
	.loc 1 339 153 discriminator 8
	lui	a3,%hi(.LC5)
	lui	a1,%hi(.LC6)
	lui	a0,%hi(.LC8)
	li	a4,339
	addi	a3,a3,%lo(.LC5)
	addi	a1,a1,%lo(.LC6)
	addi	a0,a0,%lo(.LC8)
	call	bl_printk
.LVL136:
	.loc 1 340 16 discriminator 8
	li	s1,-1
.L164:
	.loc 1 355 1
	lw	ra,12(sp)
	.cfi_remember_state
	.cfi_restore 1
	lw	s0,8(sp)
	.cfi_restore 8
	mv	a0,s1
	lw	s1,4(sp)
	.cfi_restore 9
	addi	sp,sp,16
	.cfi_def_cfa_offset 0
	jr	ra
.L168:
	.cfi_restore_state
	.loc 1 339 301 discriminator 8
	call	xTaskGetTickCount
.LVL137:
	j	.L180
.LVL138:
.L166:
	.loc 1 343 5 is_stmt 1
	.loc 1 343 39 is_stmt 0
	lw	a5,8(a0)
	.loc 1 343 8
	li	a4,13
	bne	a5,a4,.L170
	.loc 1 344 9 is_stmt 1
	call	GPIP_DAC_ChanA_Disable
.LVL139:
.L171:
	.loc 1 347 12
	.loc 1 349 5
	.loc 1 349 8 is_stmt 0
	lbu	a5,4(s0)
	.loc 1 354 12
	li	s1,0
	.loc 1 349 8
	beq	a5,zero,.L164
	.loc 1 350 9 is_stmt 1
	call	GPIP_Set_DAC_DMA_TX_Disable
.LVL140:
	.loc 1 351 9
	lw	a0,20(s0)
	call	hosal_dma_chan_stop
.LVL141:
	j	.L164
.L170:
	.loc 1 345 12
	.loc 1 345 15 is_stmt 0
	li	a4,14
	bne	a5,a4,.L171
	.loc 1 346 9 is_stmt 1
	call	GPIP_DAC_ChanB_Disable
.LVL142:
	j	.L171
	.cfi_endproc
.LFE16:
	.size	hosal_dac_dma_stop, .-hosal_dac_dma_stop
	.section	.text.hosal_dac_finalize,"ax",@progbits
	.align	1
	.globl	hosal_dac_finalize
	.type	hosal_dac_finalize, @function
hosal_dac_finalize:
.LFB17:
	.loc 1 358 1
	.cfi_startproc
.LVL143:
	.loc 1 359 5
	.loc 1 358 1 is_stmt 0
	addi	sp,sp,-16
	.cfi_def_cfa_offset 16
	sw	ra,12(sp)
	sw	s0,8(sp)
	sw	s1,4(sp)
	.cfi_offset 1, -4
	.cfi_offset 8, -8
	.cfi_offset 9, -12
	.loc 1 359 8
	beq	a0,zero,.L182
	.loc 1 359 20 discriminator 1
	lbu	a5,0(a0)
	mv	s0,a0
	beq	a5,zero,.L183
.L182:
	.loc 1 360 9 is_stmt 1 discriminator 1
	.loc 1 360 47 discriminator 1
	.loc 1 360 52 discriminator 1
	.loc 1 360 74 is_stmt 0 discriminator 1
	lui	a5,%hi(_fsymc_level_hosal)
	.loc 1 360 55 discriminator 1
	lw	a4,%lo(_fsymc_level_hosal)(a5)
	li	a5,4
	.loc 1 361 16 discriminator 1
	li	s1,-1
	.loc 1 360 55 discriminator 1
	bgtu	a4,a5,.L181
	.loc 1 360 118 discriminator 3
	lui	a4,%hi(_fsymf_level_hosalhosal_dac)
	.loc 1 360 97 discriminator 3
	lw	a4,%lo(_fsymf_level_hosalhosal_dac)(a4)
	bgtu	a4,a5,.L181
	.loc 1 360 153 is_stmt 1 discriminator 5
	.loc 1 360 241 is_stmt 0 discriminator 5
	call	xPortIsInsideInterrupt
.LVL144:
	.loc 1 360 153 discriminator 5
	beq	a0,zero,.L185
	.loc 1 360 270 discriminator 7
	call	xTaskGetTickCountFromISR
.LVL145:
.L200:
	.loc 1 360 301 discriminator 8
	mv	a2,a0
	.loc 1 360 153 discriminator 8
	lui	a3,%hi(.LC5)
	lui	a1,%hi(.LC6)
	lui	a0,%hi(.LC8)
	li	a4,360
	addi	a3,a3,%lo(.LC5)
	addi	a1,a1,%lo(.LC6)
	addi	a0,a0,%lo(.LC8)
	call	bl_printk
.LVL146:
	.loc 1 361 16 discriminator 8
	li	s1,-1
.L181:
	.loc 1 381 1
	lw	ra,12(sp)
	.cfi_remember_state
	.cfi_restore 1
	lw	s0,8(sp)
	.cfi_restore 8
	mv	a0,s1
	lw	s1,4(sp)
	.cfi_restore 9
	addi	sp,sp,16
	.cfi_def_cfa_offset 0
	jr	ra
.L185:
	.cfi_restore_state
	.loc 1 360 301 discriminator 8
	call	xTaskGetTickCount
.LVL147:
	j	.L200
.LVL148:
.L183:
	.loc 1 364 5 is_stmt 1
	.loc 1 364 39 is_stmt 0
	lw	a5,8(a0)
	.loc 1 364 8
	li	a4,13
	bne	a5,a4,.L187
	.loc 1 365 9 is_stmt 1
	call	GPIP_DAC_ChanA_Disable
.LVL149:
.L188:
	.loc 1 368 12
	.loc 1 370 5
	.loc 1 370 19 is_stmt 0
	lw	a0,28(s0)
	.loc 1 370 8
	beq	a0,zero,.L189
	.loc 1 371 9 is_stmt 1
	call	vPortFree
.LVL150:
	.loc 1 372 9
	.loc 1 372 19 is_stmt 0
	sw	zero,28(s0)
.L189:
	.loc 1 375 5 is_stmt 1
	.loc 1 375 12 is_stmt 0
	lw	a0,20(s0)
	.loc 1 380 12
	li	s1,0
	.loc 1 375 8
	blt	a0,zero,.L181
	.loc 1 376 9 is_stmt 1
	call	hosal_dma_chan_release
.LVL151:
	.loc 1 377 9
	.loc 1 377 23 is_stmt 0
	li	a5,-1
	sw	a5,20(s0)
	j	.L181
.L187:
	.loc 1 366 12 is_stmt 1
	.loc 1 366 15 is_stmt 0
	li	a4,14
	bne	a5,a4,.L188
	.loc 1 367 9 is_stmt 1
	call	GPIP_DAC_ChanB_Disable
.LVL152:
	j	.L188
	.cfi_endproc
.LFE17:
	.size	hosal_dac_finalize, .-hosal_dac_finalize
	.globl	_fsymf_info_hosalhosal_dac
	.section	.rodata.str1.4,"aMS",@progbits,1
	.align	2
.LC16:
	.string	"hosal.hosal_dac"
	.comm	_fsymf_level_hosalhosal_dac,4,4
	.align	2
.LC17:
	.string	"hosal"
	.weak	_fsymc_level_hosal
	.section	.srodata.cst4,"aM",@progbits,4
	.align	2
.LC10:
	.word	975674299
	.align	2
.LC11:
	.word	-1023426560
	.align	2
.LC12:
	.word	1153663200
	.align	2
.LC13:
	.word	1212370944
	.section	.rodata
	.align	2
	.set	.LANCHOR0,. + 0
.LC1:
	.word	0
	.word	1
	.word	1
	.word	0
	.word	0
	.word	0
.LC2:
	.word	1
	.word	1
	.word	0
	.word	0
.LC3:
	.word	1
	.word	1
	.word	0
	.word	0
	.section	.sbss._fsymc_level_hosal,"aw",@nobits
	.align	2
	.type	_fsymc_level_hosal, @object
	.size	_fsymc_level_hosal, 4
_fsymc_level_hosal:
	.zero	4
	.section	.srodata,"a"
	.align	2
.LC0:
	.byte	13
	.byte	10
	.byte	2
	.byte	2
	.byte	1
	.byte	1
	.section	.srodata.BLOG_HARD_DECLARE_DISABLE,"a"
	.align	2
	.type	BLOG_HARD_DECLARE_DISABLE, @object
	.size	BLOG_HARD_DECLARE_DISABLE, 4
BLOG_HARD_DECLARE_DISABLE:
	.zero	4
	.section	.static_blogcomponent_code.hosal,"a"
	.align	2
	.type	_fsymc_info_hosal, @object
	.size	_fsymc_info_hosal, 8
_fsymc_info_hosal:
	.word	_fsymc_level_hosal
	.word	.LC17
	.section	.static_blogfile_code.hosalhosal_dac,"a"
	.align	2
	.type	_fsymf_info_hosalhosal_dac, @object
	.size	_fsymf_info_hosalhosal_dac, 8
_fsymf_info_hosalhosal_dac:
	.word	_fsymf_level_hosalhosal_dac
	.word	.LC16
	.text
.Letext0:
	.file 2 "/mnt/d/GitHub/bl_iot_sdk_for_aithinker/toolchain/riscv/Linux/lib/gcc/riscv64-unknown-elf/10.2.0/include/stdint-gcc.h"
	.file 3 "/mnt/d/GitHub/bl_iot_sdk_for_aithinker/components/platform/hosal/include/hosal_dma.h"
	.file 4 "/mnt/d/GitHub/bl_iot_sdk_for_aithinker/components/platform/hosal/include/hosal_dac.h"
	.file 5 "/mnt/d/GitHub/bl_iot_sdk_for_aithinker/components/platform/soc/bl602/bl602_std/bl602_std/StdDriver/Inc/bl602_common.h"
	.file 6 "/mnt/d/GitHub/bl_iot_sdk_for_aithinker/components/platform/soc/bl602/bl602_std/bl602_std/StdDriver/Inc/bl602_dac.h"
	.file 7 "/mnt/d/GitHub/bl_iot_sdk_for_aithinker/components/platform/soc/bl602/bl602_std/bl602_std/StdDriver/Inc/bl602_gpio.h"
	.file 8 "/mnt/d/GitHub/bl_iot_sdk_for_aithinker/components/platform/soc/bl602/bl602_std/bl602_std/Device/Bouffalo/BL602/Peripherals/dma_reg.h"
	.file 9 "/mnt/d/GitHub/bl_iot_sdk_for_aithinker/components/platform/soc/bl602/bl602_std/bl602_std/StdDriver/Inc/bl602_dma.h"
	.file 10 "/mnt/d/GitHub/bl_iot_sdk_for_aithinker/components/platform/soc/bl602/bl602_std/bl602_std/StdDriver/Inc/bl602_glb.h"
	.file 11 "/mnt/d/GitHub/bl_iot_sdk_for_aithinker/components/stage/blog/blog_type.h"
	.file 12 "/mnt/d/GitHub/bl_iot_sdk_for_aithinker/components/stage/blog/blog.h"
	.file 13 "/mnt/d/GitHub/bl_iot_sdk_for_aithinker/components/platform/soc/bl602/freertos_riscv_ram/portable/GCC/RISC-V/portmacro.h"
	.file 14 "/mnt/d/GitHub/bl_iot_sdk_for_aithinker/components/platform/soc/bl602/freertos_riscv_ram/config/task.h"
	.file 15 "/mnt/d/GitHub/bl_iot_sdk_for_aithinker/components/utils/include/utils_log.h"
	.file 16 "/mnt/d/GitHub/bl_iot_sdk_for_aithinker/components/platform/soc/bl602/freertos_riscv_ram/config/portable.h"
	.file 17 "/mnt/d/GitHub/bl_iot_sdk_for_aithinker/toolchain/riscv/Linux/riscv64-unknown-elf/include/string.h"
	.file 18 "<built-in>"