	.file	"hosal_wdg.c"
	.option nopic
	.attribute arch, "rv32i2p0_m2p0_f2p0_c2p0"
	.attribute unaligned_access, 0
	.attribute stack_align, 16
	.text
.Ltext0:
	.cfi_sections	.debug_frame
	.section	.rodata.hosal_wdg_init.str1.4,"aMS",@progbits,1
	.align	2
.LC0:
	.string	"hosal_wdg.c"
	.align	2
.LC1:
	.string	"\033[32mINFO\033[0m"
	.align	2
.LC2:
	.string	"%s (%d)[%s:%4d] hosal_wdg_init t_ms = %ld\r\n\r\n"
	.section	.text.hosal_wdg_init,"ax",@progbits
	.align	1
	.globl	hosal_wdg_init
	.type	hosal_wdg_init, @function
hosal_wdg_init:
.LFB4:
	.file 1 "/mnt/d/GitHub/bl_iot_sdk_for_aithinker/components/platform/hosal/bl602_hal/hosal_wdg.c"
	.loc 1 8 1
	.cfi_startproc
.LVL0:
	.loc 1 9 5
	.loc 1 11 5
	.loc 1 11 8 is_stmt 0
	beq	a0,zero,.L6
	.loc 1 16 5 is_stmt 1
	.loc 1 18 69 is_stmt 0
	lui	a5,%hi(_fsymc_level_hosal)
	.loc 1 18 51
	lw	a4,%lo(_fsymc_level_hosal)(a5)
	.loc 1 8 1
	addi	sp,sp,-16
	.cfi_def_cfa_offset 16
	sw	ra,12(sp)
	sw	s0,8(sp)
	.cfi_offset 1, -4
	.cfi_offset 8, -8
	.loc 1 18 51
	li	a5,2
	.loc 1 16 8
	lw	s0,4(a0)
.LVL1:
	.loc 1 18 5 is_stmt 1
	.loc 1 18 43
	.loc 1 18 48
	.loc 1 18 51 is_stmt 0
	bgtu	a4,a5,.L3
	.loc 1 18 112 discriminator 3
	lui	a4,%hi(_fsymf_level_hosalhosal_wdg)
	.loc 1 18 92 discriminator 3
	lw	a4,%lo(_fsymf_level_hosalhosal_wdg)(a4)
	bgtu	a4,a5,.L3
	.loc 1 18 147 is_stmt 1 discriminator 5
	.loc 1 18 240 is_stmt 0 discriminator 5
	call	xPortIsInsideInterrupt
.LVL2:
	.loc 1 18 147 discriminator 5
	beq	a0,zero,.L4
	.loc 1 18 269 discriminator 7
	call	xTaskGetTickCountFromISR
.LVL3:
.L11:
	.loc 1 18 300 discriminator 8
	mv	a2,a0
	.loc 1 18 147 discriminator 8
	lui	a3,%hi(.LC0)
	lui	a1,%hi(.LC1)
	lui	a0,%hi(.LC2)
	mv	a5,s0
	li	a4,18
	addi	a3,a3,%lo(.LC0)
	addi	a1,a1,%lo(.LC1)
	addi	a0,a0,%lo(.LC2)
	call	bl_printk
.LVL4:
.L3:
	.loc 1 18 356 is_stmt 1 discriminator 11
	.loc 1 18 367 discriminator 11
	.loc 1 20 5 discriminator 11
	mv	a0,s0
	call	bl_wdt_init
.LVL5:
	.loc 1 22 5 discriminator 11
	.loc 1 23 1 is_stmt 0 discriminator 11
	lw	ra,12(sp)
	.cfi_remember_state
	.cfi_restore 1
	lw	s0,8(sp)
	.cfi_restore 8
.LVL6:
	.loc 1 22 12 discriminator 11
	li	a0,0
	.loc 1 23 1 discriminator 11
	addi	sp,sp,16
	.cfi_def_cfa_offset 0
	jr	ra
.LVL7:
.L4:
	.cfi_restore_state
	.loc 1 18 300 discriminator 8
	call	xTaskGetTickCount
.LVL8:
	j	.L11
.LVL9:
.L6:
	.cfi_def_cfa_offset 0
	.cfi_restore 1
	.cfi_restore 8
	.loc 1 13 16
	li	a0,-1
.LVL10:
	.loc 1 23 1
	ret
	.cfi_endproc
.LFE4:
	.size	hosal_wdg_init, .-hosal_wdg_init
	.section	.text.hosal_wdg_reload,"ax",@progbits
	.align	1
	.globl	hosal_wdg_reload
	.type	hosal_wdg_reload, @function
hosal_wdg_reload:
.LFB5:
	.loc 1 26 1 is_stmt 1
	.cfi_startproc
.LVL11:
	.loc 1 27 5
	tail	bl_wdt_feed
.LVL12:
	.cfi_endproc
.LFE5:
	.size	hosal_wdg_reload, .-hosal_wdg_reload
	.section	.text.hosal_wdg_finalize,"ax",@progbits
	.align	1
	.globl	hosal_wdg_finalize
	.type	hosal_wdg_finalize, @function
hosal_wdg_finalize:
.LFB6:
	.loc 1 31 1
	.cfi_startproc
.LVL13:
	.loc 1 32 5
	.loc 1 31 1 is_stmt 0
	addi	sp,sp,-16
	.cfi_def_cfa_offset 16
	sw	ra,12(sp)
	.cfi_offset 1, -4
	.loc 1 32 5
	call	bl_wdt_disable
.LVL14:
	.loc 1 34 5 is_stmt 1
	.loc 1 35 1 is_stmt 0
	lw	ra,12(sp)
	.cfi_restore 1
	li	a0,0
	addi	sp,sp,16
	.cfi_def_cfa_offset 0
	jr	ra
	.cfi_endproc
.LFE6:
	.size	hosal_wdg_finalize, .-hosal_wdg_finalize
	.globl	_fsymf_info_hosalhosal_wdg
	.section	.rodata.str1.4,"aMS",@progbits,1
	.align	2
.LC3:
	.string	"hosal.hosal_wdg"
	.comm	_fsymf_level_hosalhosal_wdg,4,4
	.align	2
.LC4:
	.string	"hosal"
	.weak	_fsymc_level_hosal
	.section	.sbss._fsymc_level_hosal,"aw",@nobits
	.align	2
	.type	_fsymc_level_hosal, @object
	.size	_fsymc_level_hosal, 4
_fsymc_level_hosal:
	.zero	4
	.section	.srodata.BLOG_HARD_DECLARE_DISABLE,"a"
	.align	2
	.type	BLOG_HARD_DECLARE_DISABLE, @object
	.size	BLOG_HARD_DECLARE_DISABLE, 4
BLOG_HARD_DECLARE_DISABLE:
	.zero	4
	.section	.static_blogcomponent_code.hosal,"a"
	.align	2
	.type	_fsymc_info_hosal, @object
	.size	_fsymc_info_hosal, 8
_fsymc_info_hosal:
	.word	_fsymc_level_hosal
	.word	.LC4
	.section	.static_blogfile_code.hosalhosal_wdg,"a"
	.align	2
	.type	_fsymf_info_hosalhosal_wdg, @object
	.size	_fsymf_info_hosalhosal_wdg, 8
_fsymf_info_hosalhosal_wdg:
	.word	_fsymf_level_hosalhosal_wdg
	.word	.LC3
	.text
.Letext0:
	.file 2 "/mnt/d/GitHub/bl_iot_sdk_for_aithinker/toolchain/riscv/Linux/riscv64-unknown-elf/include/machine/_default_types.h"
	.file 3 "/mnt/d/GitHub/bl_iot_sdk_for_aithinker/toolchain/riscv/Linux/riscv64-unknown-elf/include/sys/_stdint.h"
	.file 4 "/mnt/d/GitHub/bl_iot_sdk_for_aithinker/components/platform/hosal/include/hosal_wdg.h"
	.file 5 "/mnt/d/GitHub/bl_iot_sdk_for_aithinker/components/stage/blog/blog_type.h"
	.file 6 "/mnt/d/GitHub/bl_iot_sdk_for_aithinker/components/stage/blog/blog.h"
	.file 7 "/mnt/d/GitHub/bl_iot_sdk_for_aithinker/components/platform/hosal/bl602_hal/bl_wdt.h"
	.file 8 "/mnt/d/GitHub/bl_iot_sdk_for_aithinker/components/platform/soc/bl602/freertos_riscv_ram/portable/GCC/RISC-V/portmacro.h"
	.file 9 "/mnt/d/GitHub/bl_iot_sdk_for_aithinker/components/platform/soc/bl602/freertos_riscv_ram/config/task.h"
	.file 10 "/mnt/d/GitHub/bl_iot_sdk_for_aithinker/components/utils/include/utils_log.h"