	.file	"hosal_flash.c"
	.option nopic
	.attribute arch, "rv32i2p0_m2p0_f2p0_c2p0"
	.attribute unaligned_access, 0
	.attribute stack_align, 16
	.text
.Ltext0:
	.cfi_sections	.debug_frame
	.section	.rodata.hosal_flash_open.str1.4,"aMS",@progbits,1
	.align	2
.LC0:
	.string	"hosal_flash.c"
	.align	2
.LC1:
	.string	"\033[31mERROR\033[0m"
	.align	2
.LC2:
	.string	"%s (%d)[%s:%4d] no memory !!!\r\n\r\n"
	.section	.text.hosal_flash_open,"ax",@progbits
	.align	1
	.globl	hosal_flash_open
	.type	hosal_flash_open, @function
hosal_flash_open:
.LFB4:
	.file 1 "/mnt/d/GitHub/bl_iot_sdk_for_aithinker/components/platform/hosal/bl602_hal/hosal_flash.c"
	.loc 1 28 1
	.cfi_startproc
.LVL0:
	.loc 1 29 2
	.loc 1 30 2
	.loc 1 31 2
	.loc 1 33 2
	.loc 1 28 1 is_stmt 0
	addi	sp,sp,-32
	.cfi_def_cfa_offset 32
	mv	a2,a1
	.loc 1 33 8
	addi	a1,sp,12
.LVL1:
	.loc 1 28 1
	sw	s0,24(sp)
	sw	ra,28(sp)
	.cfi_offset 8, -8
	.cfi_offset 1, -4
	.loc 1 33 8
	call	bl_mtd_open
.LVL2:
	.loc 1 34 2 is_stmt 1
	.loc 1 35 9 is_stmt 0
	li	s0,0
	.loc 1 34 5
	bne	a0,zero,.L1
	.loc 1 37 2 is_stmt 1
	.loc 1 37 10 is_stmt 0
	li	a1,1
	li	a0,4
.LVL3:
	call	calloc
.LVL4:
	mv	s0,a0
.LVL5:
	.loc 1 38 2 is_stmt 1
	.loc 1 38 5 is_stmt 0
	bne	a0,zero,.L3
	.loc 1 39 3 is_stmt 1 discriminator 1
	.loc 1 39 41 discriminator 1
	.loc 1 39 46 discriminator 1
	.loc 1 39 68 is_stmt 0 discriminator 1
	lui	a5,%hi(_fsymc_level_hosal)
	.loc 1 39 49 discriminator 1
	lw	a4,%lo(_fsymc_level_hosal)(a5)
	li	a5,4
	bgtu	a4,a5,.L3
	.loc 1 39 112 discriminator 3
	lui	a4,%hi(_fsymf_level_hosalhosal_flash)
	.loc 1 39 91 discriminator 3
	lw	a4,%lo(_fsymf_level_hosalhosal_flash)(a4)
	bgtu	a4,a5,.L3
	.loc 1 39 149 is_stmt 1 discriminator 5
	.loc 1 39 231 is_stmt 0 discriminator 5
	call	xPortIsInsideInterrupt
.LVL6:
	.loc 1 39 149 discriminator 5
	beq	a0,zero,.L4
	.loc 1 39 260 discriminator 7
	call	xTaskGetTickCountFromISR
.LVL7:
.L8:
	.loc 1 39 291 discriminator 8
	mv	a2,a0
	.loc 1 39 149 discriminator 8
	lui	a3,%hi(.LC0)
	lui	a1,%hi(.LC1)
	lui	a0,%hi(.LC2)
	li	a4,39
	addi	a3,a3,%lo(.LC0)
	addi	a1,a1,%lo(.LC1)
	addi	a0,a0,%lo(.LC2)
	call	bl_printk
.LVL8:
.L3:
	.loc 1 39 345 is_stmt 1 discriminator 11
	.loc 1 39 356 discriminator 11
	.loc 1 41 2 discriminator 11
	.loc 1 41 19 is_stmt 0 discriminator 11
	lw	a5,12(sp)
	sw	a5,0(s0)
	.loc 1 42 2 is_stmt 1 discriminator 11
.LVL9:
.L1:
	.loc 1 43 1 is_stmt 0
	lw	ra,28(sp)
	.cfi_remember_state
	.cfi_restore 1
	mv	a0,s0
	lw	s0,24(sp)
	.cfi_restore 8
	addi	sp,sp,32
	.cfi_def_cfa_offset 0
	jr	ra
.LVL10:
.L4:
	.cfi_restore_state
	.loc 1 39 291 discriminator 8
	call	xTaskGetTickCount
.LVL11:
	j	.L8
	.cfi_endproc
.LFE4:
	.size	hosal_flash_open, .-hosal_flash_open
	.section	.text.hosal_flash_info_get,"ax",@progbits
	.align	1
	.globl	hosal_flash_info_get
	.type	hosal_flash_info_get, @function
hosal_flash_info_get:
.LFB5:
	.loc 1 54 1 is_stmt 1
	.cfi_startproc
.LVL12:
	.loc 1 55 2
	.loc 1 57 2
	.loc 1 54 1 is_stmt 0
	addi	sp,sp,-48
	.cfi_def_cfa_offset 48
	sw	s0,40(sp)
	sw	s1,36(sp)
	sw	ra,44(sp)
	.cfi_offset 8, -8
	.cfi_offset 9, -12
	.cfi_offset 1, -4
	.loc 1 57 2
	lw	a0,0(a0)
.LVL13:
	addi	s1,sp,4
	.loc 1 54 1
	mv	s0,a1
	.loc 1 57 2
	mv	a1,s1
.LVL14:
	call	bl_mtd_info
.LVL15:
	.loc 1 59 2 is_stmt 1
	.loc 1 60 60 is_stmt 0
	lw	a5,28(sp)
	lw	a4,20(sp)
	.loc 1 59 35
	sw	s1,0(s0)
	.loc 1 60 2 is_stmt 1
	.loc 1 64 1 is_stmt 0
	lw	ra,44(sp)
	.cfi_restore 1
	.loc 1 60 60
	add	a5,a5,a4
	.loc 1 60 34
	sw	a5,4(s0)
	.loc 1 61 2 is_stmt 1
	.loc 1 61 30 is_stmt 0
	lw	a5,24(sp)
	.loc 1 64 1
	lw	s1,36(sp)
	.cfi_restore 9
	li	a0,0
	.loc 1 61 30
	sw	a5,8(s0)
	.loc 1 63 2 is_stmt 1
	.loc 1 64 1 is_stmt 0
	lw	s0,40(sp)
	.cfi_restore 8
.LVL16:
	addi	sp,sp,48
	.cfi_def_cfa_offset 0
	jr	ra
	.cfi_endproc
.LFE5:
	.size	hosal_flash_info_get, .-hosal_flash_info_get
	.section	.text.hosal_flash_erase,"ax",@progbits
	.align	1
	.globl	hosal_flash_erase
	.type	hosal_flash_erase, @function
hosal_flash_erase:
.LFB6:
	.loc 1 81 1 is_stmt 1
	.cfi_startproc
.LVL17:
	.loc 1 82 2
	.loc 1 84 2
	.loc 1 84 8 is_stmt 0
	lw	a0,0(a0)
.LVL18:
	tail	bl_mtd_erase
.LVL19:
	.cfi_endproc
.LFE6:
	.size	hosal_flash_erase, .-hosal_flash_erase
	.section	.text.hosal_flash_write,"ax",@progbits
	.align	1
	.globl	hosal_flash_write
	.type	hosal_flash_write, @function
hosal_flash_write:
.LFB7:
	.loc 1 104 1 is_stmt 1
	.cfi_startproc
.LVL20:
	addi	sp,sp,-16
	.cfi_def_cfa_offset 16
	sw	s0,8(sp)
	sw	ra,12(sp)
	sw	s1,4(sp)
	.cfi_offset 8, -8
	.cfi_offset 1, -4
	.cfi_offset 9, -12
	.loc 1 104 1 is_stmt 0
	mv	s0,a1
	.loc 1 105 5 is_stmt 1
	.loc 1 105 14 is_stmt 0
	lw	a1,0(a1)
.LVL21:
	.loc 1 107 5 is_stmt 1
	.loc 1 108 5
	.loc 1 110 5
	.loc 1 110 8 is_stmt 0
	beq	a2,zero,.L14
	.loc 1 114 5
	lw	a0,0(a0)
.LVL22:
	mv	s1,a3
	.loc 1 114 5 is_stmt 1
	mv	a3,a2
.LVL23:
	mv	a2,s1
.LVL24:
	call	bl_mtd_write
.LVL25:
	.loc 1 116 5
	.loc 1 117 9
	.loc 1 117 18 is_stmt 0
	lw	a3,0(s0)
	.loc 1 120 12
	li	a0,0
	.loc 1 117 18
	add	a3,a3,s1
	sw	a3,0(s0)
	.loc 1 120 5 is_stmt 1
.LVL26:
.L12:
	.loc 1 121 1 is_stmt 0
	lw	ra,12(sp)
	.cfi_remember_state
	.cfi_restore 1
	lw	s0,8(sp)
	.cfi_restore 8
.LVL27:
	lw	s1,4(sp)
	.cfi_restore 9
	addi	sp,sp,16
	.cfi_def_cfa_offset 0
	jr	ra
.LVL28:
.L14:
	.cfi_restore_state
	.loc 1 111 16
	li	a0,-1
.LVL29:
	j	.L12
	.cfi_endproc
.LFE7:
	.size	hosal_flash_write, .-hosal_flash_write
	.section	.text.hosal_flash_erase_write,"ax",@progbits
	.align	1
	.globl	hosal_flash_erase_write
	.type	hosal_flash_erase_write, @function
hosal_flash_erase_write:
.LFB8:
	.loc 1 138 1 is_stmt 1
	.cfi_startproc
.LVL30:
	.loc 1 139 5
	.loc 1 141 5
	.loc 1 138 1 is_stmt 0
	addi	sp,sp,-32
	.cfi_def_cfa_offset 32
	sw	s0,24(sp)
	sw	s1,20(sp)
	sw	s2,16(sp)
	sw	ra,28(sp)
	.cfi_offset 8, -8
	.cfi_offset 9, -12
	.cfi_offset 18, -16
	.cfi_offset 1, -4
	.loc 1 138 1
	mv	s0,a1
	.loc 1 141 11
	lw	a1,0(a1)
.LVL31:
	.loc 1 138 1
	mv	s2,a2
	.loc 1 141 11
	mv	a2,a3
.LVL32:
	.loc 1 138 1
	mv	s1,a0
	.loc 1 141 11
	sw	a3,12(sp)
	call	hosal_flash_erase
.LVL33:
	.loc 1 142 5 is_stmt 1
	.loc 1 142 8 is_stmt 0
	bne	a0,zero,.L16
	.loc 1 145 5 is_stmt 1
	.loc 1 145 12 is_stmt 0
	mv	a1,s0
	.loc 1 146 1
	lw	s0,24(sp)
	.cfi_remember_state
	.cfi_restore 8
.LVL34:
	.loc 1 145 12
	lw	a3,12(sp)
	.loc 1 146 1
	lw	ra,28(sp)
	.cfi_restore 1
	.loc 1 145 12
	mv	a2,s2
	mv	a0,s1
.LVL35:
	.loc 1 146 1
	lw	s2,16(sp)
	.cfi_restore 18
.LVL36:
	lw	s1,20(sp)
	.cfi_restore 9
.LVL37:
	addi	sp,sp,32
	.cfi_def_cfa_offset 0
.LVL38:
	.loc 1 145 12
	tail	hosal_flash_write
.LVL39:
.L16:
	.cfi_restore_state
	.loc 1 146 1
	lw	ra,28(sp)
	.cfi_restore 1
	lw	s0,24(sp)
	.cfi_restore 8
.LVL40:
	lw	s1,20(sp)
	.cfi_restore 9
.LVL41:
	lw	s2,16(sp)
	.cfi_restore 18
.LVL42:
	addi	sp,sp,32
	.cfi_def_cfa_offset 0
.LVL43:
	jr	ra
	.cfi_endproc
.LFE8:
	.size	hosal_flash_erase_write, .-hosal_flash_erase_write
	.section	.text.hosal_flash_read,"ax",@progbits
	.align	1
	.globl	hosal_flash_read
	.type	hosal_flash_read, @function
hosal_flash_read:
.LFB9:
	.loc 1 163 1 is_stmt 1
	.cfi_startproc
.LVL44:
	.loc 1 164 5
	.loc 1 165 5
	.loc 1 163 1 is_stmt 0
	addi	sp,sp,-16
	.cfi_def_cfa_offset 16
	sw	s0,8(sp)
	sw	ra,12(sp)
	sw	s1,4(sp)
	.cfi_offset 8, -8
	.cfi_offset 1, -4
	.cfi_offset 9, -12
	.loc 1 163 1
	mv	s0,a1
	.loc 1 165 14
	lw	a1,0(a1)
.LVL45:
	.loc 1 167 5 is_stmt 1
	.loc 1 167 8 is_stmt 0
	beq	a0,zero,.L21
	.loc 1 170 16
	lw	a0,0(a0)
.LVL46:
	mv	s1,a3
	.loc 1 170 5 is_stmt 1
	.loc 1 170 16 is_stmt 0
	mv	a3,a2
.LVL47:
	mv	a2,s1
.LVL48:
	call	bl_mtd_read
.LVL49:
	.loc 1 170 8
	bne	a0,zero,.L19
	.loc 1 171 9 is_stmt 1
	.loc 1 171 18 is_stmt 0
	lw	a3,0(s0)
	add	a3,a3,s1
	sw	a3,0(s0)
.LVL50:
.L19:
	.loc 1 174 1
	lw	ra,12(sp)
	.cfi_remember_state
	.cfi_restore 1
	lw	s0,8(sp)
	.cfi_restore 8
.LVL51:
	lw	s1,4(sp)
	.cfi_restore 9
	addi	sp,sp,16
	.cfi_def_cfa_offset 0
	jr	ra
.LVL52:
.L21:
	.cfi_restore_state
	.loc 1 168 16
	li	a0,-1
.LVL53:
	j	.L19
	.cfi_endproc
.LFE9:
	.size	hosal_flash_read, .-hosal_flash_read
	.section	.text.hosal_flash_close,"ax",@progbits
	.align	1
	.globl	hosal_flash_close
	.type	hosal_flash_close, @function
hosal_flash_close:
.LFB10:
	.loc 1 184 1 is_stmt 1
	.cfi_startproc
.LVL54:
	.loc 1 185 2
	.loc 1 184 1 is_stmt 0
	addi	sp,sp,-16
	.cfi_def_cfa_offset 16
	sw	ra,12(sp)
	sw	s0,8(sp)
	.cfi_offset 1, -4
	.cfi_offset 8, -8
	.loc 1 184 1
	mv	s0,a0
	.loc 1 185 2
	lw	a0,0(a0)
.LVL55:
	call	bl_mtd_close
.LVL56:
	.loc 1 186 2 is_stmt 1
	mv	a0,s0
	call	free
.LVL57:
	.loc 1 187 2
	.loc 1 188 1 is_stmt 0
	lw	ra,12(sp)
	.cfi_restore 1
	lw	s0,8(sp)
	.cfi_restore 8
.LVL58:
	li	a0,0
	addi	sp,sp,16
	.cfi_def_cfa_offset 0
	jr	ra
	.cfi_endproc
.LFE10:
	.size	hosal_flash_close, .-hosal_flash_close
	.section	.text.hosal_flash_raw_read,"ax",@progbits
	.align	1
	.globl	hosal_flash_raw_read
	.type	hosal_flash_raw_read, @function
hosal_flash_raw_read:
.LFB11:
	.loc 1 202 1 is_stmt 1
	.cfi_startproc
.LVL59:
	.loc 1 203 5
	.loc 1 202 1 is_stmt 0
	mv	a5,a0
	.loc 1 203 8
	beq	a0,zero,.L27
	.loc 1 202 1
	addi	sp,sp,-16
	.cfi_def_cfa_offset 16
	mv	a0,a1
.LVL60:
	.loc 1 207 5 is_stmt 1
	mv	a1,a5
.LVL61:
	.loc 1 202 1 is_stmt 0
	sw	ra,12(sp)
	.cfi_offset 1, -4
	.loc 1 207 5
	call	bl_flash_read
.LVL62:
	.loc 1 209 5 is_stmt 1
	.loc 1 210 1 is_stmt 0
	lw	ra,12(sp)
	.cfi_restore 1
	.loc 1 209 12
	li	a0,0
	.loc 1 210 1
	addi	sp,sp,16
	.cfi_def_cfa_offset 0
	jr	ra
.LVL63:
.L27:
	.loc 1 204 16
	li	a0,-1
.LVL64:
	.loc 1 210 1
	ret
	.cfi_endproc
.LFE11:
	.size	hosal_flash_raw_read, .-hosal_flash_raw_read
	.section	.text.hosal_flash_raw_write,"ax",@progbits
	.align	1
	.globl	hosal_flash_raw_write
	.type	hosal_flash_raw_write, @function
hosal_flash_raw_write:
.LFB12:
	.loc 1 224 1 is_stmt 1
	.cfi_startproc
.LVL65:
	.loc 1 225 5
	.loc 1 224 1 is_stmt 0
	mv	a5,a0
	.loc 1 225 8
	beq	a0,zero,.L34
	.loc 1 224 1
	addi	sp,sp,-16
	.cfi_def_cfa_offset 16
	mv	a0,a1
.LVL66:
	.loc 1 229 5 is_stmt 1
	mv	a1,a5
.LVL67:
	.loc 1 224 1 is_stmt 0
	sw	ra,12(sp)
	.cfi_offset 1, -4
	.loc 1 229 5
	call	bl_flash_write
.LVL68:
	.loc 1 231 5 is_stmt 1
	.loc 1 232 1 is_stmt 0
	lw	ra,12(sp)
	.cfi_restore 1
	.loc 1 231 12
	li	a0,0
	.loc 1 232 1
	addi	sp,sp,16
	.cfi_def_cfa_offset 0
	jr	ra
.LVL69:
.L34:
	.loc 1 226 16
	li	a0,-1
.LVL70:
	.loc 1 232 1
	ret
	.cfi_endproc
.LFE12:
	.size	hosal_flash_raw_write, .-hosal_flash_raw_write
	.section	.text.hosal_flash_raw_erase,"ax",@progbits
	.align	1
	.globl	hosal_flash_raw_erase
	.type	hosal_flash_raw_erase, @function
hosal_flash_raw_erase:
.LFB13:
	.loc 1 245 1 is_stmt 1
	.cfi_startproc
.LVL71:
	.loc 1 246 5
	.loc 1 246 12 is_stmt 0
	tail	bl_flash_erase
.LVL72:
	.cfi_endproc
.LFE13:
	.size	hosal_flash_raw_erase, .-hosal_flash_raw_erase
	.globl	_fsymf_info_hosalhosal_flash
	.section	.rodata.str1.4,"aMS",@progbits,1
	.align	2
.LC3:
	.string	"hosal.hosal_flash"
	.comm	_fsymf_level_hosalhosal_flash,4,4
	.align	2
.LC4:
	.string	"hosal"
	.weak	_fsymc_level_hosal
	.section	.sbss._fsymc_level_hosal,"aw",@nobits
	.align	2
	.type	_fsymc_level_hosal, @object
	.size	_fsymc_level_hosal, 4
_fsymc_level_hosal:
	.zero	4
	.section	.srodata.BLOG_HARD_DECLARE_DISABLE,"a"
	.align	2
	.type	BLOG_HARD_DECLARE_DISABLE, @object
	.size	BLOG_HARD_DECLARE_DISABLE, 4
BLOG_HARD_DECLARE_DISABLE:
	.zero	4
	.section	.static_blogcomponent_code.hosal,"a"
	.align	2
	.type	_fsymc_info_hosal, @object
	.size	_fsymc_info_hosal, 8
_fsymc_info_hosal:
	.word	_fsymc_level_hosal
	.word	.LC4
	.section	.static_blogfile_code.hosalhosal_flash,"a"
	.align	2
	.type	_fsymf_info_hosalhosal_flash, @object
	.size	_fsymf_info_hosalhosal_flash, 8
_fsymf_info_hosalhosal_flash:
	.word	_fsymf_level_hosalhosal_flash
	.word	.LC3
	.text
.Letext0:
	.file 2 "/mnt/d/GitHub/bl_iot_sdk_for_aithinker/toolchain/riscv/Linux/riscv64-unknown-elf/include/machine/_default_types.h"
	.file 3 "/mnt/d/GitHub/bl_iot_sdk_for_aithinker/toolchain/riscv/Linux/riscv64-unknown-elf/include/sys/_stdint.h"
	.file 4 "/mnt/d/GitHub/bl_iot_sdk_for_aithinker/components/platform/hosal/include/hosal_flash.h"
	.file 5 "/mnt/d/GitHub/bl_iot_sdk_for_aithinker/components/sys/blmtd/include/bl_mtd.h"
	.file 6 "/mnt/d/GitHub/bl_iot_sdk_for_aithinker/components/stage/blog/blog_type.h"
	.file 7 "/mnt/d/GitHub/bl_iot_sdk_for_aithinker/components/stage/blog/blog.h"
	.file 8 "/mnt/d/GitHub/bl_iot_sdk_for_aithinker/components/platform/hosal/bl602_hal/bl_flash.h"
	.file 9 "/mnt/d/GitHub/bl_iot_sdk_for_aithinker/toolchain/riscv/Linux/riscv64-unknown-elf/include/stdlib.h"
	.file 10 "/mnt/d/GitHub/bl_iot_sdk_for_aithinker/components/platform/soc/bl602/freertos_riscv_ram/portable/GCC/RISC-V/portmacro.h"
	.file 11 "/mnt/d/GitHub/bl_iot_sdk_for_aithinker/components/platform/soc/bl602/freertos_riscv_ram/config/task.h"
	.file 12 "/mnt/d/GitHub/bl_iot_sdk_for_aithinker/components/utils/include/utils_log.h"