	.file	"hosal_gpio.c"
	.option nopic
	.attribute arch, "rv32i2p0_m2p0_f2p0_c2p0"
	.attribute unaligned_access, 0
	.attribute stack_align, 16
	.text
.Ltext0:
	.cfi_sections	.debug_frame
	.section	.text.gpio_interrupt_entry,"ax",@progbits
	.align	1
	.type	gpio_interrupt_entry, @function
gpio_interrupt_entry:
.LFB13:
	.file 1 "/mnt/d/GitHub/bl_iot_sdk_for_aithinker/components/platform/hosal/bl602_hal/hosal_gpio.c"
	.loc 1 92 1
	.cfi_startproc
.LVL0:
	.loc 1 93 5
	.loc 1 94 5
	.loc 1 92 1 is_stmt 0
	addi	sp,sp,-16
	.cfi_def_cfa_offset 16
	sw	s0,8(sp)
	sw	s1,4(sp)
	sw	s2,0(sp)
	sw	ra,12(sp)
	.cfi_offset 8, -8
	.cfi_offset 9, -12
	.cfi_offset 18, -16
	.cfi_offset 1, -4
	.loc 1 92 1
	mv	s0,a0
.LVL1:
	.loc 1 96 5 is_stmt 1
.LBB6:
.LBB7:
	.loc 1 68 14 is_stmt 0
	li	s1,1
	.loc 1 69 13
	li	s2,1073741824
.LVL2:
.L2:
.LBE7:
.LBE6:
	.loc 1 96 11 is_stmt 1
	bne	s0,zero,.L5
	.loc 1 105 1 is_stmt 0
	lw	ra,12(sp)
	.cfi_remember_state
	.cfi_restore 1
	lw	s0,8(sp)
	.cfi_restore 8
.LVL3:
	lw	s1,4(sp)
	.cfi_restore 9
	lw	s2,0(sp)
	.cfi_restore 18
	addi	sp,sp,16
	.cfi_def_cfa_offset 0
	jr	ra
.LVL4:
.L5:
	.cfi_restore_state
	.loc 1 97 9 is_stmt 1
	.loc 1 97 43 is_stmt 0
	lbu	a0,12(s0)
.LVL5:
.LBB9:
.LBB8:
	.loc 1 65 5 is_stmt 1
	.loc 1 66 5
	.loc 1 68 5
	.loc 1 71 19 is_stmt 0
	lw	a5,424(s2)
	.loc 1 68 14
	sll	a4,s1,a0
.LVL6:
	.loc 1 69 5 is_stmt 1
	.loc 1 71 5
	.loc 1 71 19 is_stmt 0
	and	a5,a4,a5
	.loc 1 71 8
	bne	a4,a5,.L3
	.loc 1 72 9 is_stmt 1
.LVL7:
.LBE8:
.LBE9:
	.loc 1 98 9
	.loc 1 99 13
.LBB10:
.LBB11:
	.loc 1 79 5
	li	a1,1
	call	bl_gpio_intmask
.LVL8:
	.loc 1 81 5
	.loc 1 81 13 is_stmt 0
	lw	a5,4(s0)
	.loc 1 81 8
	beq	a5,zero,.L4
	.loc 1 82 9 is_stmt 1
	lw	a0,8(s0)
	jalr	a5
.LVL9:
	.loc 1 83 9
.L4:
	.loc 1 86 5
	lbu	a0,12(s0)
	li	a1,0
	call	bl_gpio_intmask
.LVL10:
	.loc 1 88 5
.L3:
.LBE11:
.LBE10:
	.loc 1 102 9
	.loc 1 102 14 is_stmt 0
	lw	s0,0(s0)
.LVL11:
	j	.L2
	.cfi_endproc
.LFE13:
	.size	gpio_interrupt_entry, .-gpio_interrupt_entry
	.section	.text.hosal_gpio_init,"ax",@progbits
	.align	1
	.globl	hosal_gpio_init
	.type	hosal_gpio_init, @function
hosal_gpio_init:
.LFB8:
	.loc 1 14 1 is_stmt 1
	.cfi_startproc
.LVL12:
	.loc 1 15 5
	.loc 1 15 8 is_stmt 0
	beq	a0,zero,.L15
	lw	a5,4(a0)
	li	a3,5
	mv	a4,a0
	.loc 1 19 5 is_stmt 1
	addi	a5,a5,-1
	.loc 1 19 17 is_stmt 0
	li	a0,-1
.LVL13:
	bgtu	a5,a3,.L18
	lui	a3,%hi(.L10)
	slli	a5,a5,2
	addi	a3,a3,%lo(.L10)
	add	a5,a5,a3
	lw	a5,0(a5)
	.loc 1 14 1
	addi	sp,sp,-16
	.cfi_def_cfa_offset 16
	sw	ra,12(sp)
	.cfi_offset 1, -4
	lbu	a0,0(a4)
	jr	a5
	.section	.rodata.hosal_gpio_init,"a",@progbits
	.align	2
	.align	2
.L10:
	.word	.L14
	.word	.L13
	.word	.L12
	.word	.L11
	.word	.L9
	.word	.L9
	.section	.text.hosal_gpio_init
.L13:
	.loc 1 21 9 is_stmt 1
	li	a2,1
.L24:
	.loc 1 27 9 is_stmt 0
	li	a1,0
	j	.L23
.L14:
	.loc 1 24 9 is_stmt 1
	li	a2,0
	li	a1,1
.L23:
	.loc 1 27 9 is_stmt 0
	call	bl_gpio_enable_input
.LVL14:
	.loc 1 28 9 is_stmt 1
.L22:
	.loc 1 34 9
	.loc 1 42 1 is_stmt 0
	lw	ra,12(sp)
	.cfi_remember_state
	.cfi_restore 1
	.loc 1 41 12
	li	a0,0
	.loc 1 42 1
	addi	sp,sp,16
	.cfi_def_cfa_offset 0
	jr	ra
.LVL15:
.L12:
	.cfi_restore_state
	.loc 1 27 9 is_stmt 1
	li	a2,0
	j	.L24
.L11:
	.loc 1 30 9
	li	a2,0
	li	a1,1
.L21:
	.loc 1 33 9 is_stmt 0
	call	bl_gpio_enable_output
.LVL16:
	j	.L22
.LVL17:
.L9:
	.loc 1 33 9 is_stmt 1
	li	a2,0
	li	a1,0
	j	.L21
.LVL18:
.L15:
	.cfi_def_cfa_offset 0
	.cfi_restore 1
	.loc 1 16 16 is_stmt 0
	li	a0,-1
.LVL19:
	ret
.LVL20:
.L18:
	.loc 1 42 1
	ret
	.cfi_endproc
.LFE8:
	.size	hosal_gpio_init, .-hosal_gpio_init
	.section	.text.hosal_gpio_output_set,"ax",@progbits
	.align	1
	.globl	hosal_gpio_output_set
	.type	hosal_gpio_output_set, @function
hosal_gpio_output_set:
.LFB9:
	.loc 1 45 1 is_stmt 1
	.cfi_startproc
.LVL21:
	.loc 1 46 5
	.loc 1 46 8 is_stmt 0
	beq	a0,zero,.L27
	.loc 1 49 5 is_stmt 1
	.loc 1 45 1 is_stmt 0
	addi	sp,sp,-16
	.cfi_def_cfa_offset 16
	sw	ra,12(sp)
	.cfi_offset 1, -4
	.loc 1 49 5
	lbu	a0,0(a0)
.LVL22:
	snez	a1,a1
.LVL23:
	call	GLB_GPIO_Write
.LVL24:
	.loc 1 50 5 is_stmt 1
	.loc 1 51 1 is_stmt 0
	lw	ra,12(sp)
	.cfi_restore 1
	.loc 1 50 12
	li	a0,0
	.loc 1 51 1
	addi	sp,sp,16
	.cfi_def_cfa_offset 0
	jr	ra
.LVL25:
.L27:
	.loc 1 47 16
	li	a0,-1
.LVL26:
	.loc 1 51 1
	ret
	.cfi_endproc
.LFE9:
	.size	hosal_gpio_output_set, .-hosal_gpio_output_set
	.section	.text.hosal_gpio_input_get,"ax",@progbits
	.align	1
	.globl	hosal_gpio_input_get
	.type	hosal_gpio_input_get, @function
hosal_gpio_input_get:
.LFB10:
	.loc 1 54 1 is_stmt 1
	.cfi_startproc
.LVL27:
	.loc 1 55 5
	.loc 1 55 8 is_stmt 0
	beq	a0,zero,.L34
	.loc 1 54 1
	addi	sp,sp,-16
	.cfi_def_cfa_offset 16
	sw	s0,8(sp)
	sw	ra,12(sp)
	.cfi_offset 8, -8
	.cfi_offset 1, -4
	.loc 1 59 14
	lbu	a0,0(a0)
.LVL28:
	mv	s0,a1
	.loc 1 59 5 is_stmt 1
	.loc 1 59 14 is_stmt 0
	call	GLB_GPIO_Read
.LVL29:
	.loc 1 59 12
	sb	a0,0(s0)
	.loc 1 60 5 is_stmt 1
	.loc 1 61 1 is_stmt 0
	lw	ra,12(sp)
	.cfi_restore 1
	lw	s0,8(sp)
	.cfi_restore 8
.LVL30:
	.loc 1 60 12
	li	a0,0
	.loc 1 61 1
	addi	sp,sp,16
	.cfi_def_cfa_offset 0
	jr	ra
.LVL31:
.L34:
	.loc 1 56 16
	li	a0,-1
.LVL32:
	.loc 1 61 1
	ret
	.cfi_endproc
.LFE10:
	.size	hosal_gpio_input_get, .-hosal_gpio_input_get
	.section	.rodata.hosal_gpio_irq_set.str1.4,"aMS",@progbits,1
	.align	2
.LC0:
	.string	"hosal irq register paraments is not correct! \r\n"
	.align	2
.LC1:
	.string	"hosal irq ctx malloc failed \r\n"
	.section	.text.hosal_gpio_irq_set,"ax",@progbits
	.align	1
	.globl	hosal_gpio_irq_set
	.type	hosal_gpio_irq_set, @function
hosal_gpio_irq_set:
.LFB14:
	.loc 1 108 1 is_stmt 1
	.cfi_startproc
.LVL33:
	.loc 1 109 5
	.loc 1 108 1 is_stmt 0
	addi	sp,sp,-32
	.cfi_def_cfa_offset 32
	sw	s0,24(sp)
	sw	s1,20(sp)
	sw	s2,16(sp)
	sw	s3,12(sp)
	sw	ra,28(sp)
	.cfi_offset 8, -8
	.cfi_offset 9, -12
	.cfi_offset 18, -16
	.cfi_offset 19, -20
	.cfi_offset 1, -4
	.loc 1 108 1
	mv	s0,a0
	mv	s1,a1
	mv	s3,a2
	mv	s2,a3
	.loc 1 109 8
	beq	a0,zero,.L40
	.loc 1 109 21 discriminator 1
	lbu	a4,0(a0)
	li	a5,23
	bgtu	a4,a5,.L40
	.loc 1 109 74 discriminator 2
	li	a5,3
	bleu	a1,a5,.L41
.L40:
	.loc 1 110 9 is_stmt 1
	lui	a0,%hi(.LC0)
.LVL34:
	addi	a0,a0,%lo(.LC0)
	call	printf
.LVL35:
.L41:
	.loc 1 112 5
	.loc 1 113 5
	.loc 1 114 5
	.loc 1 114 32 is_stmt 0
	li	a0,16
	call	pvPortMalloc
.LVL36:
	.loc 1 115 5 is_stmt 1
	.loc 1 115 8 is_stmt 0
	bne	a0,zero,.L42
	.loc 1 116 9 is_stmt 1
	lui	a0,%hi(.LC1)
.LVL37:
	addi	a0,a0,%lo(.LC1)
	call	printf
.LVL38:
	.loc 1 117 9
	.loc 1 117 16 is_stmt 0
	li	a0,-1
.LVL39:
.L39:
	.loc 1 153 1
	lw	ra,28(sp)
	.cfi_remember_state
	.cfi_restore 1
	lw	s0,24(sp)
	.cfi_restore 8
.LVL40:
	lw	s1,20(sp)
	.cfi_restore 9
	lw	s2,16(sp)
	.cfi_restore 18
	lw	s3,12(sp)
	.cfi_restore 19
.LVL41:
	addi	sp,sp,32
	.cfi_def_cfa_offset 0
	jr	ra
.LVL42:
.L42:
	.cfi_restore_state
	.loc 1 119 5 is_stmt 1
	.loc 1 120 15 is_stmt 0
	sw	s2,8(a0)
	.loc 1 119 18
	sw	s3,4(a0)
	.loc 1 120 5 is_stmt 1
	.loc 1 121 5
	.loc 1 121 21 is_stmt 0
	lbu	a3,0(s0)
	.loc 1 124 9
	lui	s2,%hi(.LANCHOR0)
.LVL43:
	lw	a4,%lo(.LANCHOR0)(s2)
	.loc 1 122 22
	li	a5,1
	.loc 1 123 22
	andi	s1,s1,0xff
.LVL44:
	.loc 1 122 22
	sb	a5,13(a0)
	.loc 1 121 15
	sb	a3,12(a0)
	.loc 1 122 5 is_stmt 1
	.loc 1 123 5
	.loc 1 123 22 is_stmt 0
	sb	s1,14(a0)
	.loc 1 124 5 is_stmt 1
	addi	s2,s2,%lo(.LANCHOR0)
	mv	a5,a4
	.loc 1 124 8 is_stmt 0
	bne	a4,zero,.L44
	.loc 1 125 9 is_stmt 1
	.loc 1 125 19 is_stmt 0
	sw	a0,0(s2)
	.loc 1 126 9 is_stmt 1
	.loc 1 126 20 is_stmt 0
	sw	zero,0(a0)
.LVL45:
.L45:
	.loc 1 147 5 is_stmt 1
	lbu	a0,0(s0)
	li	a1,1
	call	bl_gpio_intmask
.LVL46:
	.loc 1 148 5
	lbu	a0,0(s0)
	mv	a2,s1
	li	a1,1
	call	bl_set_gpio_intmod
.LVL47:
	.loc 1 149 5
	lw	a2,0(s2)
	lui	a1,%hi(gpio_interrupt_entry)
	addi	a1,a1,%lo(gpio_interrupt_entry)
	li	a0,60
	call	bl_irq_register_with_ctx
.LVL48:
	.loc 1 150 5
	lbu	a0,0(s0)
	li	a1,0
	call	bl_gpio_intmask
.LVL49:
	.loc 1 151 5
	li	a0,60
	call	bl_irq_enable
.LVL50:
	.loc 1 152 5
	.loc 1 152 12 is_stmt 0
	li	a0,0
	j	.L39
.LVL51:
.L44:
	.loc 1 129 13 is_stmt 1
	.loc 1 129 16 is_stmt 0
	lbu	a2,12(a5)
	bne	a2,a3,.L46
	.loc 1 133 17 is_stmt 1
	.loc 1 133 32 is_stmt 0
	sw	s3,4(a5)
.LVL52:
	.loc 1 134 17 is_stmt 1
	.loc 1 134 35 is_stmt 0
	lw	a4,8(a0)
	.loc 1 134 29
	sw	a4,8(a5)
	.loc 1 135 17 is_stmt 1
	.loc 1 135 42 is_stmt 0
	lbu	a4,13(a0)
	.loc 1 135 36
	sb	a4,13(a5)
	.loc 1 136 17 is_stmt 1
	.loc 1 136 42 is_stmt 0
	lbu	a4,14(a0)
	.loc 1 136 36
	sb	a4,14(a5)
	.loc 1 137 17 is_stmt 1
	call	vPortFree
.LVL53:
	.loc 1 138 17
	.loc 1 141 9
	j	.L45
.LVL54:
.L46:
	.loc 1 128 49 discriminator 2
	.loc 1 128 56 is_stmt 0 discriminator 2
	lw	a5,0(a5)
.LVL55:
	.loc 1 128 34 is_stmt 1 discriminator 2
	.loc 1 128 9 is_stmt 0 discriminator 2
	bne	a5,zero,.L44
	.loc 1 141 9 is_stmt 1
	.loc 1 142 13
	.loc 1 142 24 is_stmt 0
	sw	a4,0(a0)
	.loc 1 143 13 is_stmt 1
	.loc 1 143 23 is_stmt 0
	sw	a0,0(s2)
	j	.L45
	.cfi_endproc
.LFE14:
	.size	hosal_gpio_irq_set, .-hosal_gpio_irq_set
	.section	.text.hosal_gpio_irq_mask,"ax",@progbits
	.align	1
	.globl	hosal_gpio_irq_mask
	.type	hosal_gpio_irq_mask, @function
hosal_gpio_irq_mask:
.LFB15:
	.loc 1 156 1 is_stmt 1
	.cfi_startproc
.LVL56:
	.loc 1 157 5
	.loc 1 157 8 is_stmt 0
	beq	a0,zero,.L58
	.loc 1 160 5 is_stmt 1
	.loc 1 156 1 is_stmt 0
	addi	sp,sp,-16
	.cfi_def_cfa_offset 16
	sw	ra,12(sp)
	.cfi_offset 1, -4
	.loc 1 160 5
	lbu	a0,0(a0)
.LVL57:
	snez	a1,a1
.LVL58:
	call	bl_gpio_intmask
.LVL59:
	.loc 1 162 5 is_stmt 1
	.loc 1 163 1 is_stmt 0
	lw	ra,12(sp)
	.cfi_restore 1
	.loc 1 162 12
	li	a0,0
	.loc 1 163 1
	addi	sp,sp,16
	.cfi_def_cfa_offset 0
	jr	ra
.LVL60:
.L58:
	.loc 1 158 16
	li	a0,-1
.LVL61:
	.loc 1 163 1
	ret
	.cfi_endproc
.LFE15:
	.size	hosal_gpio_irq_mask, .-hosal_gpio_irq_mask
	.section	.text.hosal_gpio_finalize,"ax",@progbits
	.align	1
	.globl	hosal_gpio_finalize
	.type	hosal_gpio_finalize, @function
hosal_gpio_finalize:
.LFB16:
	.loc 1 166 1 is_stmt 1
	.cfi_startproc
.LVL62:
	.loc 1 167 5
	.loc 1 167 8 is_stmt 0
	beq	a0,zero,.L68
	.loc 1 166 1
	addi	sp,sp,-16
	.cfi_def_cfa_offset 16
	.loc 1 171 15
	lui	a5,%hi(.LANCHOR0)
	.loc 1 166 1
	sw	s1,4(sp)
	.cfi_offset 9, -12
	.loc 1 171 15
	lw	s1,%lo(.LANCHOR0)(a5)
	.loc 1 166 1
	sw	s0,8(sp)
	sw	ra,12(sp)
	.cfi_offset 8, -8
	.cfi_offset 1, -4
	mv	s0,a0
	.loc 1 170 5 is_stmt 1
.LVL63:
	.loc 1 171 5
.L65:
	.loc 1 171 28 discriminator 1
	.loc 1 172 30 is_stmt 0 discriminator 1
	lbu	a0,0(s0)
	.loc 1 171 5 discriminator 1
	bne	s1,zero,.L67
	.loc 1 177 5 is_stmt 1
	li	a1,1
	call	bl_gpio_intmask
.LVL64:
	.loc 1 178 5
	lbu	a0,0(s0)
	li	a1,0
	call	bl_gpio_int_clear
.LVL65:
	.loc 1 179 5
	.loc 1 180 1 is_stmt 0
	lw	ra,12(sp)
	.cfi_remember_state
	.cfi_restore 1
	lw	s0,8(sp)
	.cfi_restore 8
.LVL66:
	lw	s1,4(sp)
	.cfi_restore 9
.LVL67:
	.loc 1 179 12
	li	a0,0
	.loc 1 180 1
	addi	sp,sp,16
	.cfi_def_cfa_offset 0
	jr	ra
.LVL68:
.L67:
	.cfi_restore_state
	.loc 1 172 9 is_stmt 1
	.loc 1 172 12 is_stmt 0
	lbu	a5,12(s1)
	bne	a5,a0,.L66
	.loc 1 173 13 is_stmt 1
	mv	a0,s1
	call	vPortFree
.LVL69:
.L66:
	.loc 1 171 41 discriminator 2
	.loc 1 171 46 is_stmt 0 discriminator 2
	lw	s1,0(s1)
.LVL70:
	j	.L65
.LVL71:
.L68:
	.cfi_def_cfa_offset 0
	.cfi_restore 1
	.cfi_restore 8
	.cfi_restore 9
	.loc 1 168 16
	li	a0,-1
.LVL72:
	.loc 1 180 1
	ret
	.cfi_endproc
.LFE16:
	.size	hosal_gpio_finalize, .-hosal_gpio_finalize
	.globl	_fsymf_info_hosalhosal_gpio
	.section	.rodata.str1.4,"aMS",@progbits,1
	.align	2
.LC2:
	.string	"hosal.hosal_gpio"
	.comm	_fsymf_level_hosalhosal_gpio,4,4
	.align	2
.LC3:
	.string	"hosal"
	.weak	_fsymc_level_hosal
	.section	.sbss._fsymc_level_hosal,"aw",@nobits
	.align	2
	.type	_fsymc_level_hosal, @object
	.size	_fsymc_level_hosal, 4
_fsymc_level_hosal:
	.zero	4
	.section	.sbss.gpio_head,"aw",@nobits
	.align	2
	.set	.LANCHOR0,. + 0
	.type	gpio_head, @object
	.size	gpio_head, 4
gpio_head:
	.zero	4
	.section	.srodata.BLOG_HARD_DECLARE_DISABLE,"a"
	.align	2
	.type	BLOG_HARD_DECLARE_DISABLE, @object
	.size	BLOG_HARD_DECLARE_DISABLE, 4
BLOG_HARD_DECLARE_DISABLE:
	.zero	4
	.section	.static_blogcomponent_code.hosal,"a"
	.align	2
	.type	_fsymc_info_hosal, @object
	.size	_fsymc_info_hosal, 8
_fsymc_info_hosal:
	.word	_fsymc_level_hosal
	.word	.LC3
	.section	.static_blogfile_code.hosalhosal_gpio,"a"
	.align	2
	.type	_fsymf_info_hosalhosal_gpio, @object
	.size	_fsymf_info_hosalhosal_gpio, 8
_fsymf_info_hosalhosal_gpio:
	.word	_fsymf_level_hosalhosal_gpio
	.word	.LC2
	.text
.Letext0:
	.file 2 "/mnt/d/GitHub/bl_iot_sdk_for_aithinker/toolchain/riscv/Linux/lib/gcc/riscv64-unknown-elf/10.2.0/include/stdint-gcc.h"
	.file 3 "/mnt/d/GitHub/bl_iot_sdk_for_aithinker/components/platform/soc/bl602/bl602_std/bl602_std/Device/Bouffalo/BL602/Peripherals/bl602.h"
	.file 4 "/mnt/d/GitHub/bl_iot_sdk_for_aithinker/components/platform/soc/bl602/bl602_std/bl602_std/StdDriver/Inc/bl602_gpio.h"
	.file 5 "/mnt/d/GitHub/bl_iot_sdk_for_aithinker/components/platform/soc/bl602/bl602_std/bl602_std/StdDriver/Inc/bl602_glb.h"
	.file 6 "/mnt/d/GitHub/bl_iot_sdk_for_aithinker/components/platform/hosal/include/hosal_gpio.h"
	.file 7 "/mnt/d/GitHub/bl_iot_sdk_for_aithinker/components/stage/blog/blog_type.h"
	.file 8 "/mnt/d/GitHub/bl_iot_sdk_for_aithinker/components/stage/blog/blog.h"
	.file 9 "/mnt/d/GitHub/bl_iot_sdk_for_aithinker/components/platform/hosal/bl602_hal/bl_gpio.h"
	.file 10 "/mnt/d/GitHub/bl_iot_sdk_for_aithinker/components/platform/soc/bl602/freertos_riscv_ram/config/portable.h"
	.file 11 "/mnt/d/GitHub/bl_iot_sdk_for_aithinker/toolchain/riscv/Linux/riscv64-unknown-elf/include/stdio.h"
	.file 12 "/mnt/d/GitHub/bl_iot_sdk_for_aithinker/components/platform/hosal/bl602_hal/bl_irq.h"