	.file	"hosal_rng.c"
	.option nopic
	.attribute arch, "rv32i2p0_m2p0_f2p0_c2p0"
	.attribute unaligned_access, 0
	.attribute stack_align, 16
	.text
.Ltext0:
	.cfi_sections	.debug_frame
	.section	.text.hosal_rng_init,"ax",@progbits
	.align	1
	.globl	hosal_rng_init
	.type	hosal_rng_init, @function
hosal_rng_init:
.LFB3:
	.file 1 "/mnt/d/GitHub/bl_iot_sdk_for_aithinker/components/platform/hosal/bl602_hal/hosal_rng.c"
	.loc 1 7 1
	.cfi_startproc
	.loc 1 8 5
	.loc 1 7 1 is_stmt 0
	addi	sp,sp,-16
	.cfi_def_cfa_offset 16
	sw	ra,12(sp)
	.cfi_offset 1, -4
	.loc 1 8 5
	call	bl_sec_init
.LVL0:
	.loc 1 9 5 is_stmt 1
	.loc 1 10 1 is_stmt 0
	lw	ra,12(sp)
	.cfi_restore 1
	li	a0,0
	addi	sp,sp,16
	.cfi_def_cfa_offset 0
	jr	ra
	.cfi_endproc
.LFE3:
	.size	hosal_rng_init, .-hosal_rng_init
	.section	.text.hosal_random_num_read,"ax",@progbits
	.align	1
	.globl	hosal_random_num_read
	.type	hosal_random_num_read, @function
hosal_random_num_read:
.LFB4:
	.loc 1 13 1 is_stmt 1
	.cfi_startproc
.LVL1:
	.loc 1 14 5
	.loc 1 15 5
	.loc 1 16 5
	.loc 1 18 2
	.loc 1 18 4 is_stmt 0
	beq	a0,zero,.L10
	.loc 1 13 1
	addi	sp,sp,-32
	.cfi_def_cfa_offset 32
	sw	s0,24(sp)
	sw	s1,20(sp)
	sw	s2,16(sp)
	sw	s3,12(sp)
	sw	ra,28(sp)
	.cfi_offset 8, -8
	.cfi_offset 9, -12
	.cfi_offset 18, -16
	.cfi_offset 19, -20
	.cfi_offset 1, -4
	mv	s0,a0
	mv	s1,a1
	.loc 1 23 5 is_stmt 1
.LVL2:
	.loc 1 25 5
	.loc 1 25 20 is_stmt 0
	srli	s3,a1,2
.LVL3:
	.loc 1 27 5 is_stmt 1
	.loc 1 27 12 is_stmt 0
	li	s2,0
.LVL4:
.L5:
	.loc 1 27 17 is_stmt 1 discriminator 1
	.loc 1 27 5 is_stmt 0 discriminator 1
	blt	s2,s3,.L6
	.loc 1 30 5 is_stmt 1
	.loc 1 30 9 is_stmt 0
	andi	a0,s1,-4
	add	s0,s0,a0
.LVL5:
	.loc 1 32 5 is_stmt 1
	.loc 1 32 11 is_stmt 0
	call	bl_rand
.LVL6:
	.loc 1 34 5 is_stmt 1
	.loc 1 34 15 is_stmt 0
	andi	s1,s1,3
.LVL7:
	.loc 1 34 8
	li	a5,1
	bne	s1,a5,.L7
	.loc 1 35 9 is_stmt 1
	.loc 1 35 29 is_stmt 0
	sb	a0,0(s0)
	.loc 1 37 5 is_stmt 1
	.loc 1 41 5
.LVL8:
.L15:
	.loc 1 48 1 is_stmt 0
	lw	ra,28(sp)
	.cfi_remember_state
	.cfi_restore 1
	lw	s0,24(sp)
	.cfi_restore 8
.LVL9:
	lw	s1,20(sp)
	.cfi_restore 9
	lw	s2,16(sp)
	.cfi_restore 18
.LVL10:
	lw	s3,12(sp)
	.cfi_restore 19
.LVL11:
	.loc 1 47 12
	li	a0,0
	.loc 1 48 1
	addi	sp,sp,32
	.cfi_def_cfa_offset 0
	jr	ra
.LVL12:
.L6:
	.cfi_restore_state
	.loc 1 28 9 is_stmt 1 discriminator 3
	.loc 1 28 18 is_stmt 0 discriminator 3
	call	bl_rand
.LVL13:
	.loc 1 28 16 discriminator 3
	slli	a5,s2,2
	add	a5,s0,a5
	sw	a0,0(a5)
	.loc 1 27 29 is_stmt 1 discriminator 3
	.loc 1 27 30 is_stmt 0 discriminator 3
	addi	s2,s2,1
.LVL14:
	j	.L5
.LVL15:
.L7:
	.loc 1 37 5 is_stmt 1
	.loc 1 37 8 is_stmt 0
	li	a5,2
	beq	s1,a5,.L8
	.loc 1 41 5 is_stmt 1
	.loc 1 41 8 is_stmt 0
	li	a5,3
	bne	s1,a5,.L15
	.loc 1 42 9 is_stmt 1
	.loc 1 43 47 is_stmt 0
	srli	a5,a0,16
	.loc 1 42 29
	sb	a0,0(s0)
	.loc 1 43 9 is_stmt 1
	.loc 1 44 47 is_stmt 0
	srli	a0,a0,24
.LVL16:
	.loc 1 43 33
	sb	a5,1(s0)
	.loc 1 44 9 is_stmt 1
	.loc 1 44 33 is_stmt 0
	sb	a0,2(s0)
	j	.L15
.LVL17:
.L8:
	.loc 1 38 9 is_stmt 1
	.loc 1 38 29 is_stmt 0
	sb	a0,0(s0)
	.loc 1 39 9 is_stmt 1
	.loc 1 39 47 is_stmt 0
	srli	a0,a0,8
.LVL18:
	.loc 1 39 33
	sb	a0,1(s0)
	.loc 1 41 5 is_stmt 1
	j	.L15
.LVL19:
.L10:
	.cfi_def_cfa_offset 0
	.cfi_restore 1
	.cfi_restore 8
	.cfi_restore 9
	.cfi_restore 18
	.cfi_restore 19
	.loc 1 20 10 is_stmt 0
	li	a0,-1
.LVL20:
	.loc 1 48 1
	ret
	.cfi_endproc
.LFE4:
	.size	hosal_random_num_read, .-hosal_random_num_read
	.text
.Letext0:
	.file 2 "/mnt/d/GitHub/bl_iot_sdk_for_aithinker/toolchain/riscv/Linux/riscv64-unknown-elf/include/machine/_default_types.h"
	.file 3 "/mnt/d/GitHub/bl_iot_sdk_for_aithinker/toolchain/riscv/Linux/riscv64-unknown-elf/include/sys/_stdint.h"
	.file 4 "/mnt/d/GitHub/bl_iot_sdk_for_aithinker/components/platform/hosal/bl602_hal/bl_sec.h"