	.file	"bl_mtd.c"
	.option nopic
	.attribute arch, "rv32i2p0_m2p0_f2p0_c2p0"
	.attribute unaligned_access, 0
	.attribute stack_align, 16
	.text
.Ltext0:
	.cfi_sections	.debug_frame
	.section	.rodata.bl_mtd_open.str1.4,"aMS",@progbits,1
	.align	2
.LC0:
	.string	"[MTD] [PART] [XIP] error when get %s partition %d\r\n"
	.align	2
.LC1:
	.string	"[MTD] [PART] [XIP] Dead Loop. Reason: no Valid %s partition found\r\n"
	.align	2
.LC2:
	.string	"[MTD] >>>>>> Hanlde info Dump >>>>>>\r\n"
	.align	2
.LC3:
	.string	"      name %s\r\n"
	.align	2
.LC4:
	.string	"      id %d\r\n"
	.align	2
.LC5:
	.string	"      offset %p(%u)\r\n"
	.align	2
.LC6:
	.string	"      size %p(%uKbytes)\r\n"
	.align	2
.LC7:
	.string	"      xip_addr %p\r\n"
	.align	2
.LC8:
	.string	"[MTD] <<<<<< Hanlde info End <<<<<<\r\n"
	.section	.text.bl_mtd_open,"ax",@progbits
	.align	1
	.globl	bl_mtd_open
	.type	bl_mtd_open, @function
bl_mtd_open:
.LFB7:
	.file 1 "/mnt/d/GitHub/bl_iot_sdk_for_aithinker/components/sys/blmtd/bl_mtd.c"
	.loc 1 64 1
	.cfi_startproc
.LVL0:
	.loc 1 65 5
	.loc 1 64 1 is_stmt 0
	addi	sp,sp,-48
	.cfi_def_cfa_offset 48
	sw	s1,36(sp)
	.cfi_offset 9, -12
	mv	s1,a0
	.loc 1 70 40
	li	a0,32
.LVL1:
	.loc 1 64 1
	sw	s2,32(sp)
	sw	s3,28(sp)
	sw	ra,44(sp)
	sw	s0,40(sp)
	.cfi_offset 18, -16
	.cfi_offset 19, -20
	.cfi_offset 1, -4
	.cfi_offset 8, -8
	.loc 1 64 1
	mv	s3,a1
	mv	s2,a2
	.loc 1 65 14
	sw	zero,8(sp)
	.loc 1 66 5 is_stmt 1
	.loc 1 66 14 is_stmt 0
	sw	zero,12(sp)
	.loc 1 67 5 is_stmt 1
	.loc 1 68 5
	.loc 1 70 5
	.loc 1 70 40 is_stmt 0
	call	pvPortMalloc
.LVL2:
	.loc 1 72 5 is_stmt 1
	.loc 1 72 8 is_stmt 0
	beq	a0,zero,.L21
	.loc 1 75 5
	li	a2,32
	li	a1,0
	mv	s0,a0
	.loc 1 75 5 is_stmt 1
	call	memset
.LVL3:
	.loc 1 76 5
	li	a2,16
	mv	a1,s1
	mv	a0,s0
	call	strncpy
.LVL4:
	.loc 1 78 5
	.loc 1 80 19 is_stmt 0
	andi	a5,s2,2
	.loc 1 78 15
	andi	s2,s2,1
.LVL5:
	.loc 1 78 8
	beq	s2,zero,.L3
	.loc 1 80 9 is_stmt 1
	.loc 1 80 12 is_stmt 0
	beq	a5,zero,.L4
	.loc 1 81 13 is_stmt 1
	.loc 1 81 24 is_stmt 0
	addi	a2,sp,12
	addi	a1,sp,8
	mv	a0,s1
	call	hal_boot2_partition_bus_addr_inactive
.LVL6:
	mv	a2,a0
.LVL7:
	.loc 1 81 16
	bne	a0,zero,.L5
	.loc 1 81 88 discriminator 1
	lw	a5,8(sp)
	.loc 1 81 83 discriminator 1
	bne	a5,zero,.L6
.L5:
	.loc 1 82 17 is_stmt 1
	lui	a0,%hi(.LC0)
.LVL8:
	mv	a1,s1
	addi	a0,a0,%lo(.LC0)
	call	printf
.LVL9:
	.loc 1 83 17
	lui	a0,%hi(.LC1)
	mv	a1,s1
	addi	a0,a0,%lo(.LC1)
	call	printf
.LVL10:
.L7:
	.loc 1 84 17 discriminator 1
	.loc 1 85 17 discriminator 1
	.loc 1 84 23 discriminator 1
	j	.L7
.LVL11:
.L6:
	.loc 1 87 13
	.loc 1 87 34 is_stmt 0
	sw	a5,28(s0)
.LVL12:
.L8:
	.loc 1 91 9 is_stmt 1
	.loc 1 91 20 is_stmt 0
	addi	a2,sp,12
	addi	a1,sp,8
	mv	a0,s1
	call	hal_boot2_partition_addr_inactive
.LVL13:
	mv	a2,a0
.LVL14:
	.loc 1 91 12
	bne	a0,zero,.L9
	.loc 1 91 80 discriminator 1
	lw	a5,8(sp)
	.loc 1 91 75 discriminator 1
	bne	a5,zero,.L19
.L9:
	.loc 1 92 13 is_stmt 1
	lui	a0,%hi(.LC0)
.LVL15:
	mv	a1,s1
	addi	a0,a0,%lo(.LC0)
	call	printf
.LVL16:
	.loc 1 93 13
	lui	a0,%hi(.LC1)
	mv	a1,s1
	addi	a0,a0,%lo(.LC1)
	call	printf
.LVL17:
.L11:
	.loc 1 94 13 discriminator 2
	.loc 1 95 13 discriminator 2
	.loc 1 94 19 discriminator 2
	j	.L11
.L4:
	.loc 1 89 13
	.loc 1 89 34 is_stmt 0
	sw	zero,28(s0)
	j	.L8
.L3:
	.loc 1 101 9 is_stmt 1
	.loc 1 101 12 is_stmt 0
	beq	a5,zero,.L13
	.loc 1 102 13 is_stmt 1
	.loc 1 102 24 is_stmt 0
	addi	a2,sp,12
	addi	a1,sp,8
	mv	a0,s1
	call	hal_boot2_partition_bus_addr_active
.LVL18:
	mv	a2,a0
.LVL19:
	.loc 1 102 16
	bne	a0,zero,.L14
	.loc 1 102 86 discriminator 1
	lw	a5,8(sp)
	.loc 1 102 81 discriminator 1
	bne	a5,zero,.L15
.L14:
	.loc 1 103 17 is_stmt 1
	lui	a0,%hi(.LC0)
.LVL20:
	mv	a1,s1
	addi	a0,a0,%lo(.LC0)
	call	printf
.LVL21:
	.loc 1 104 17
	lui	a0,%hi(.LC1)
	mv	a1,s1
	addi	a0,a0,%lo(.LC1)
	call	printf
.LVL22:
.L16:
	.loc 1 105 17 discriminator 3
	.loc 1 106 17 discriminator 3
	.loc 1 105 23 discriminator 3
	j	.L16
.LVL23:
.L15:
	.loc 1 108 13
	.loc 1 108 34 is_stmt 0
	sw	a5,28(s0)
.LVL24:
.L17:
	.loc 1 112 9 is_stmt 1
	.loc 1 112 20 is_stmt 0
	addi	a2,sp,12
	addi	a1,sp,8
	mv	a0,s1
	call	hal_boot2_partition_addr_active
.LVL25:
	mv	a2,a0
.LVL26:
	.loc 1 112 12
	bne	a0,zero,.L18
	.loc 1 112 78 discriminator 1
	lw	a5,8(sp)
	.loc 1 112 73 discriminator 1
	bne	a5,zero,.L19
.L18:
	.loc 1 113 13 is_stmt 1
	lui	a0,%hi(.LC0)
.LVL27:
	mv	a1,s1
	addi	a0,a0,%lo(.LC0)
	call	printf
.LVL28:
	.loc 1 114 13
	lui	a0,%hi(.LC1)
	mv	a1,s1
	addi	a0,a0,%lo(.LC1)
	call	printf
.LVL29:
.L20:
	.loc 1 115 13 discriminator 4
	.loc 1 116 13 discriminator 4
	.loc 1 115 19 discriminator 4
	j	.L20
.L13:
	.loc 1 110 13
	.loc 1 110 34 is_stmt 0
	sw	zero,28(s0)
	j	.L17
.LVL30:
.L19:
	.loc 1 118 9 is_stmt 1
	.loc 1 118 28 is_stmt 0
	sw	a5,20(s0)
	.loc 1 119 9 is_stmt 1
	.loc 1 119 26 is_stmt 0
	lw	a5,12(sp)
.LBB6:
.LBB7:
	.loc 1 22 5
	lui	a0,%hi(.LC2)
.LVL31:
	addi	a0,a0,%lo(.LC2)
.LBE7:
.LBE6:
	.loc 1 119 26
	sw	a5,24(s0)
	.loc 1 121 5 is_stmt 1
.LVL32:
.LBB9:
.LBB8:
	.loc 1 22 5
	call	puts
.LVL33:
	.loc 1 23 5
	lui	a0,%hi(.LC3)
	mv	a1,s0
	addi	a0,a0,%lo(.LC3)
	call	printf
.LVL34:
	.loc 1 24 5
	lw	a1,16(s0)
	lui	a0,%hi(.LC4)
	addi	a0,a0,%lo(.LC4)
	call	printf
.LVL35:
	.loc 1 25 5
	lw	a2,20(s0)
	lui	a0,%hi(.LC5)
	addi	a0,a0,%lo(.LC5)
	mv	a1,a2
	call	printf
.LVL36:
	.loc 1 26 5
	.loc 1 26 60 is_stmt 0
	lw	a1,24(s0)
	.loc 1 26 5
	lui	a0,%hi(.LC6)
	addi	a0,a0,%lo(.LC6)
	srli	a2,a1,10
	call	printf
.LVL37:
	.loc 1 27 5 is_stmt 1
	lw	a1,28(s0)
	lui	a0,%hi(.LC7)
	addi	a0,a0,%lo(.LC7)
	call	printf
.LVL38:
	.loc 1 28 5
	lui	a0,%hi(.LC8)
	addi	a0,a0,%lo(.LC8)
	call	puts
.LVL39:
.LBE8:
.LBE9:
	.loc 1 122 5
	.loc 1 124 12 is_stmt 0
	li	a0,0
	.loc 1 122 13
	sw	s0,0(s3)
	.loc 1 124 5 is_stmt 1
.LVL40:
.L1:
	.loc 1 125 1 is_stmt 0
	lw	ra,44(sp)
	.cfi_remember_state
	.cfi_restore 1
	lw	s0,40(sp)
	.cfi_restore 8
	lw	s1,36(sp)
	.cfi_restore 9
.LVL41:
	lw	s2,32(sp)
	.cfi_restore 18
	lw	s3,28(sp)
	.cfi_restore 19
.LVL42:
	addi	sp,sp,48
	.cfi_def_cfa_offset 0
	jr	ra
.LVL43:
.L21:
	.cfi_restore_state
	.loc 1 73 16
	li	a0,-1
.LVL44:
	j	.L1
	.cfi_endproc
.LFE7:
	.size	bl_mtd_open, .-bl_mtd_open
	.section	.text.bl_mtd_close,"ax",@progbits
	.align	1
	.globl	bl_mtd_close
	.type	bl_mtd_close, @function
bl_mtd_close:
.LFB8:
	.loc 1 128 1 is_stmt 1
	.cfi_startproc
.LVL45:
	.loc 1 129 5
	.loc 1 128 1 is_stmt 0
	addi	sp,sp,-16
	.cfi_def_cfa_offset 16
	sw	ra,12(sp)
	.cfi_offset 1, -4
	.loc 1 129 5
	call	vPortFree
.LVL46:
	.loc 1 131 5 is_stmt 1
	.loc 1 132 1 is_stmt 0
	lw	ra,12(sp)
	.cfi_restore 1
	li	a0,0
	addi	sp,sp,16
	.cfi_def_cfa_offset 0
	jr	ra
	.cfi_endproc
.LFE8:
	.size	bl_mtd_close, .-bl_mtd_close
	.section	.text.bl_mtd_info,"ax",@progbits
	.align	1
	.globl	bl_mtd_info
	.type	bl_mtd_info, @function
bl_mtd_info:
.LFB9:
	.loc 1 135 1 is_stmt 1
	.cfi_startproc
.LVL47:
	.loc 1 136 5
	.loc 1 138 5
	.loc 1 135 1 is_stmt 0
	addi	sp,sp,-16
	.cfi_def_cfa_offset 16
	sw	s0,8(sp)
	.cfi_offset 8, -8
	mv	s0,a1
	sw	s1,4(sp)
	.loc 1 138 5
	mv	a1,a0
.LVL48:
	.cfi_offset 9, -12
	.loc 1 135 1
	mv	s1,a0
	.loc 1 138 5
	mv	a0,s0
.LVL49:
	.loc 1 135 1
	sw	ra,12(sp)
	.cfi_offset 1, -4
	.loc 1 138 5
	call	strcpy
.LVL50:
	.loc 1 139 5 is_stmt 1
	.loc 1 139 30 is_stmt 0
	lw	a5,20(s1)
	.loc 1 144 1
	lw	ra,12(sp)
	.cfi_restore 1
	li	a0,0
	.loc 1 139 18
	sw	a5,16(s0)
	.loc 1 140 5 is_stmt 1
	.loc 1 140 28 is_stmt 0
	lw	a5,24(s1)
	.loc 1 140 16
	sw	a5,20(s0)
	.loc 1 141 5 is_stmt 1
	.loc 1 141 32 is_stmt 0
	lw	a5,28(s1)
	.loc 1 144 1
	lw	s1,4(sp)
	.cfi_restore 9
.LVL51:
	.loc 1 141 20
	sw	a5,24(s0)
	.loc 1 143 5 is_stmt 1
	.loc 1 144 1 is_stmt 0
	lw	s0,8(sp)
	.cfi_restore 8
.LVL52:
	addi	sp,sp,16
	.cfi_def_cfa_offset 0
	jr	ra
	.cfi_endproc
.LFE9:
	.size	bl_mtd_info, .-bl_mtd_info
	.section	.text.bl_mtd_erase,"ax",@progbits
	.align	1
	.globl	bl_mtd_erase
	.type	bl_mtd_erase, @function
bl_mtd_erase:
.LFB10:
	.loc 1 147 1 is_stmt 1
	.cfi_startproc
.LVL53:
	.loc 1 148 5
	.loc 1 150 5
	.loc 1 147 1 is_stmt 0
	addi	sp,sp,-16
	.cfi_def_cfa_offset 16
	sw	ra,12(sp)
	.cfi_offset 1, -4
	.loc 1 151 32
	lw	a0,20(a0)
.LVL54:
	.loc 1 147 1
	mv	a4,a1
	.loc 1 150 5
	mv	a1,a2
.LVL55:
	add	a0,a4,a0
	call	bl_flash_erase
.LVL56:
	.loc 1 155 5 is_stmt 1
	.loc 1 156 1 is_stmt 0
	lw	ra,12(sp)
	.cfi_restore 1
	li	a0,0
	addi	sp,sp,16
	.cfi_def_cfa_offset 0
	jr	ra
	.cfi_endproc
.LFE10:
	.size	bl_mtd_erase, .-bl_mtd_erase
	.section	.text.bl_mtd_erase_all,"ax",@progbits
	.align	1
	.globl	bl_mtd_erase_all
	.type	bl_mtd_erase_all, @function
bl_mtd_erase_all:
.LFB11:
	.loc 1 159 1 is_stmt 1
	.cfi_startproc
.LVL57:
	.loc 1 160 5
	.loc 1 162 5
	.loc 1 159 1 is_stmt 0
	addi	sp,sp,-16
	.cfi_def_cfa_offset 16
	sw	ra,12(sp)
	.cfi_offset 1, -4
	.loc 1 162 5
	lw	a1,24(a0)
	lw	a0,20(a0)
.LVL58:
	call	bl_flash_erase
.LVL59:
	.loc 1 167 5 is_stmt 1
	.loc 1 168 1 is_stmt 0
	lw	ra,12(sp)
	.cfi_restore 1
	li	a0,0
	addi	sp,sp,16
	.cfi_def_cfa_offset 0
	jr	ra
	.cfi_endproc
.LFE11:
	.size	bl_mtd_erase_all, .-bl_mtd_erase_all
	.section	.rodata.bl_mtd_write.str1.4,"aMS",@progbits,1
	.align	2
.LC9:
	.string	"bl_mtd.c"
	.align	2
.LC10:
	.string	"WARN  "
	.align	2
.LC11:
	.string	"[%10u][%s: %s:%4d] addr@%p is xip flash, size %d\r\n"
	.section	.text.bl_mtd_write,"ax",@progbits
	.align	1
	.globl	bl_mtd_write
	.type	bl_mtd_write, @function
bl_mtd_write:
.LFB12:
	.loc 1 171 1 is_stmt 1
	.cfi_startproc
.LVL60:
	.loc 1 172 5
	.loc 1 173 5
	.loc 1 171 1 is_stmt 0
	addi	sp,sp,-96
	.cfi_def_cfa_offset 96
	sw	s0,88(sp)
	sw	s1,84(sp)
	sw	s2,80(sp)
	sw	ra,92(sp)
	sw	s3,76(sp)
	sw	s4,72(sp)
	.cfi_offset 8, -8
	.cfi_offset 9, -12
	.cfi_offset 18, -16
	.cfi_offset 1, -4
	.cfi_offset 19, -20
	.cfi_offset 20, -24
	.loc 1 173 14
	lw	a5,20(a0)
	.loc 1 175 9
	mv	a0,a3
.LVL61:
	.loc 1 171 1
	mv	s0,a2
	mv	s1,a3
	.loc 1 173 14
	add	s2,a1,a5
.LVL62:
	.loc 1 175 5 is_stmt 1
	.loc 1 175 9 is_stmt 0
	call	bl_sys_isxipaddr
.LVL63:
	.loc 1 175 8
	beq	a0,zero,.L32
	.loc 1 176 9 is_stmt 1
	.loc 1 176 14
	.loc 1 176 16
	.loc 1 176 86 is_stmt 0
	call	xPortIsInsideInterrupt
.LVL64:
	.loc 1 176 16
	beq	a0,zero,.L33
	.loc 1 176 113 discriminator 1
	call	xTaskGetTickCountFromISR
.LVL65:
.L40:
	.loc 1 176 142 discriminator 2
	mv	a1,a0
	.loc 1 176 16 discriminator 2
	lui	a3,%hi(.LC9)
	lui	a2,%hi(.LC10)
	lui	a0,%hi(.LC11)
	mv	a6,s0
	mv	a5,s1
	li	a4,176
	addi	a3,a3,%lo(.LC9)
	addi	a2,a2,%lo(.LC10)
	addi	a0,a0,%lo(.LC11)
	call	bl_printk
.LVL66:
	.loc 1 176 204 is_stmt 1 discriminator 2
	.loc 1 176 213 discriminator 2
	.loc 1 177 9 discriminator 2
	li	s4,64
.LVL67:
.L35:
.LBB14:
.LBB15:
	.loc 1 36 11
	bne	s0,zero,.L37
.LVL68:
.L38:
.LBE15:
.LBE14:
	.loc 1 182 5
	.loc 1 183 1 is_stmt 0
	lw	ra,92(sp)
	.cfi_remember_state
	.cfi_restore 1
	lw	s0,88(sp)
	.cfi_restore 8
	lw	s1,84(sp)
	.cfi_restore 9
	lw	s2,80(sp)
	.cfi_restore 18
	lw	s3,76(sp)
	.cfi_restore 19
	lw	s4,72(sp)
	.cfi_restore 20
	li	a0,0
	addi	sp,sp,96
	.cfi_def_cfa_offset 0
	jr	ra
.LVL69:
.L33:
	.cfi_restore_state
	.loc 1 176 142 discriminator 2
	call	xTaskGetTickCount
.LVL70:
	j	.L40
.LVL71:
.L37:
.LBB17:
.LBB16:
	.loc 1 37 9 is_stmt 1
	mv	s3,s0
	bleu	s0,s4,.L36
	li	s3,64
.L36:
.LVL72:
	.loc 1 43 9
	mv	a1,s1
	mv	a2,s3
	mv	a0,sp
	call	memcpy
.LVL73:
	.loc 1 45 9
	mv	a0,s2
	mv	a2,s3
	mv	a1,sp
	call	bl_flash_write
.LVL74:
	.loc 1 47 9
	.loc 1 47 14 is_stmt 0
	add	s2,s2,s3
.LVL75:
	.loc 1 48 9 is_stmt 1
	.loc 1 48 13 is_stmt 0
	add	s1,s1,s3
.LVL76:
	.loc 1 49 9 is_stmt 1
	.loc 1 49 13 is_stmt 0
	sub	s0,s0,s3
.LVL77:
	j	.L35
.LVL78:
.L32:
.LBE16:
.LBE17:
	.loc 1 179 9 is_stmt 1
.LBB18:
.LBB19:
	.loc 1 58 5
	mv	a2,s0
	mv	a1,s1
	mv	a0,s2
	call	bl_flash_write
.LVL79:
	.loc 1 60 5
	.loc 1 60 12 is_stmt 0
	j	.L38
.LBE19:
.LBE18:
	.cfi_endproc
.LFE12:
	.size	bl_mtd_write, .-bl_mtd_write
	.section	.text.bl_mtd_read,"ax",@progbits
	.align	1
	.globl	bl_mtd_read
	.type	bl_mtd_read, @function
bl_mtd_read:
.LFB13:
	.loc 1 186 1 is_stmt 1
	.cfi_startproc
.LVL80:
	.loc 1 187 5
	.loc 1 189 5
	.loc 1 186 1 is_stmt 0
	addi	sp,sp,-16
	.cfi_def_cfa_offset 16
	sw	ra,12(sp)
	.cfi_offset 1, -4
	.loc 1 190 32
	lw	a0,20(a0)
.LVL81:
	.loc 1 186 1
	mv	a4,a1
	.loc 1 189 5
	mv	a1,a3
.LVL82:
	add	a0,a4,a0
	call	bl_flash_read
.LVL83:
	.loc 1 195 5 is_stmt 1
	.loc 1 196 1 is_stmt 0
	lw	ra,12(sp)
	.cfi_restore 1
	li	a0,0
	addi	sp,sp,16
	.cfi_def_cfa_offset 0
	jr	ra
	.cfi_endproc
.LFE13:
	.size	bl_mtd_read, .-bl_mtd_read
	.section	.text.bl_mtd_size,"ax",@progbits
	.align	1
	.globl	bl_mtd_size
	.type	bl_mtd_size, @function
bl_mtd_size:
.LFB14:
	.loc 1 199 1 is_stmt 1
	.cfi_startproc
.LVL84:
	.loc 1 200 5
	.loc 1 201 5
	.loc 1 201 8 is_stmt 0
	beq	a0,zero,.L45
	.loc 1 204 5 is_stmt 1
	.loc 1 204 23 is_stmt 0
	lw	a5,24(a0)
	.loc 1 206 12
	li	a0,0
.LVL85:
	.loc 1 204 11
	sw	a5,0(a1)
	.loc 1 206 5 is_stmt 1
	.loc 1 206 12 is_stmt 0
	ret
.LVL86:
.L45:
	.loc 1 202 16
	li	a0,-1
.LVL87:
	.loc 1 207 1
	ret
	.cfi_endproc
.LFE14:
	.size	bl_mtd_size, .-bl_mtd_size
	.text
.Letext0:
	.file 2 "/mnt/d/GitHub/bl_iot_sdk_for_aithinker/toolchain/riscv/Linux/riscv64-unknown-elf/include/machine/_default_types.h"
	.file 3 "/mnt/d/GitHub/bl_iot_sdk_for_aithinker/toolchain/riscv/Linux/riscv64-unknown-elf/include/sys/_stdint.h"
	.file 4 "/mnt/d/GitHub/bl_iot_sdk_for_aithinker/components/sys/blmtd/include/bl_mtd.h"
	.file 5 "/mnt/d/GitHub/bl_iot_sdk_for_aithinker/components/platform/hosal/bl602_hal/bl_flash.h"
	.file 6 "/mnt/d/GitHub/bl_iot_sdk_for_aithinker/toolchain/riscv/Linux/riscv64-unknown-elf/include/string.h"
	.file 7 "/mnt/d/GitHub/bl_iot_sdk_for_aithinker/components/platform/hosal/bl602_hal/bl_sys.h"
	.file 8 "/mnt/d/GitHub/bl_iot_sdk_for_aithinker/components/platform/soc/bl602/freertos_riscv_ram/portable/GCC/RISC-V/portmacro.h"
	.file 9 "/mnt/d/GitHub/bl_iot_sdk_for_aithinker/components/platform/soc/bl602/freertos_riscv_ram/config/task.h"
	.file 10 "/mnt/d/GitHub/bl_iot_sdk_for_aithinker/components/utils/include/utils_log.h"
	.file 11 "/mnt/d/GitHub/bl_iot_sdk_for_aithinker/components/platform/soc/bl602/freertos_riscv_ram/config/portable.h"
	.file 12 "/mnt/d/GitHub/bl_iot_sdk_for_aithinker/toolchain/riscv/Linux/riscv64-unknown-elf/include/stdio.h"
	.file 13 "/mnt/d/GitHub/bl_iot_sdk_for_aithinker/components/platform/hosal/bl602_hal/hal_boot2.h"