	.file	"ping.c"
	.option nopic
	.attribute arch, "rv32i2p0_m2p0_f2p0_c2p0"
	.attribute unaligned_access, 0
	.attribute stack_align, 16
	.text
.Ltext0:
	.cfi_sections	.debug_frame
	.section	.rodata.ping_usage.str1.4,"aMS",@progbits,1
	.align	2
.LC0:
	.ascii	"ping [-c count]"
	.string	" [-i interval] [-W timeout] [-s size] [-h help] destination\r\n\t\t-c count of ping requests. default is infinite\r\n\t\t-i interval in ms. default is 1000\r\n\t\t-W timeout in ms. default is 5000\r\n\t\t-s ICMP payload size in bytes. default is 32\r\n\t\t-h print this help\r\n"
	.align	2
.LC1:
	.string	"%s"
	.section	.text.ping_usage,"ax",@progbits
	.align	1
	.type	ping_usage, @function
ping_usage:
.LFB36:
	.file 1 "/mnt/d/GitHub/bl_iot_sdk_for_aithinker/components/network/netutils/ping/ping.c"
	.loc 1 372 1
	.cfi_startproc
	.loc 1 373 5
	lui	a1,%hi(.LC0)
	lui	a0,%hi(.LC1)
	addi	a1,a1,%lo(.LC0)
	addi	a0,a0,%lo(.LC1)
	tail	printf
.LVL0:
	.cfi_endproc
.LFE36:
	.size	ping_usage, .-ping_usage
	.section	.rodata.ping_free.str1.4,"aMS",@progbits,1
	.align	2
.LC2:
	.string	"The sequence number %d timed out\r\n"
	.section	.text.ping_free,"ax",@progbits
	.align	1
	.type	ping_free, @function
ping_free:
.LFB31:
	.loc 1 202 1
	.cfi_startproc
.LVL1:
	.loc 1 203 5
	.loc 1 204 5
	.loc 1 202 1 is_stmt 0
	addi	sp,sp,-32
	.cfi_def_cfa_offset 32
	sw	s0,24(sp)
	sw	s1,20(sp)
	sw	s2,16(sp)
	sw	ra,28(sp)
	sw	s3,12(sp)
	.cfi_offset 8, -8
	.cfi_offset 9, -12
	.cfi_offset 18, -16
	.cfi_offset 1, -4
	.cfi_offset 19, -20
	.loc 1 202 1
	mv	s0,a0
	.loc 1 205 9
	lui	s1,%hi(.LC2)
	.loc 1 206 36
	addi	s2,a0,32
.LVL2:
.L3:
	.loc 1 204 11 is_stmt 1
	.loc 1 204 25 is_stmt 0
	lw	a5,32(s0)
	.loc 1 204 11
	bne	a5,zero,.L4
	.loc 1 209 5 is_stmt 1
	lw	a0,28(s0)
	call	raw_remove
.LVL3:
	.loc 1 210 5
	lw	a0,24(s0)
	call	utils_memp_deinit
.LVL4:
	.loc 1 211 5
	mv	a0,s0
	.loc 1 212 1 is_stmt 0
	lw	s0,24(sp)
	.cfi_remember_state
	.cfi_restore 8
.LVL5:
	lw	ra,28(sp)
	.cfi_restore 1
	lw	s1,20(sp)
	.cfi_restore 9
	lw	s2,16(sp)
	.cfi_restore 18
	lw	s3,12(sp)
	.cfi_restore 19
	addi	sp,sp,32
	.cfi_def_cfa_offset 0
	.loc 1 211 5
	tail	vPortFree
.LVL6:
.L4:
	.cfi_restore_state
	.loc 1 205 9 is_stmt 1
	.loc 1 205 56 is_stmt 0
	lhu	a0,4(a5)
	call	lwip_htons
.LVL7:
	mv	a1,a0
	.loc 1 205 9
	addi	a0,s1,%lo(.LC2)
	call	printf
.LVL8:
	.loc 1 206 9 is_stmt 1
	lw	s3,24(s0)
	.loc 1 206 36 is_stmt 0
	mv	a0,s2
	call	utils_list_pop_front
.LVL9:
	mv	a1,a0
	.loc 1 206 9
	mv	a0,s3
	call	utils_memp_free
.LVL10:
	.loc 1 207 9 is_stmt 1
	.loc 1 207 22 is_stmt 0
	lbu	a5,18(s0)
	addi	a5,a5,-1
	sb	a5,18(s0)
	j	.L3
	.cfi_endproc
.LFE31:
	.size	ping_free, .-ping_free
	.section	.text.ping_timeout,"ax",@progbits
	.align	1
	.type	ping_timeout, @function
ping_timeout:
.LFB30:
	.loc 1 161 1 is_stmt 1
	.cfi_startproc
.LVL11:
	.loc 1 162 5
	.loc 1 169 5
	.loc 1 161 1 is_stmt 0
	addi	sp,sp,-32
	.cfi_def_cfa_offset 32
	sw	s0,24(sp)
	sw	s1,20(sp)
	sw	s2,16(sp)
	sw	ra,28(sp)
	sw	s3,12(sp)
	sw	s4,8(sp)
	sw	s5,4(sp)
	.cfi_offset 8, -8
	.cfi_offset 9, -12
	.cfi_offset 18, -16
	.cfi_offset 1, -4
	.cfi_offset 19, -20
	.cfi_offset 20, -24
	.cfi_offset 21, -28
	.loc 1 161 1
	mv	s0,a0
	.loc 1 170 9
	lui	s1,%hi(.LC2)
	.loc 1 171 52
	addi	s2,a0,32
.LVL12:
.L7:
	.loc 1 169 11 is_stmt 1
	lw	a5,32(s0)
	bne	a5,zero,.L8
.L12:
	.loc 1 174 5
	.loc 1 174 8 is_stmt 0
	lbu	a4,18(s0)
	li	a5,10
	bne	a4,a5,.L10
	.loc 1 175 9 is_stmt 1
	lw	s1,24(s0)
	.loc 1 175 52 is_stmt 0
	addi	a0,s0,32
	call	utils_list_pop_front
.LVL13:
	mv	a1,a0
	.loc 1 175 9
	mv	a0,s1
	call	utils_memp_free
.LVL14:
	.loc 1 176 9 is_stmt 1
	.loc 1 176 22 is_stmt 0
	lbu	a5,18(s0)
	addi	a5,a5,-1
	sb	a5,18(s0)
.L10:
	.loc 1 181 5 is_stmt 1
.LVL15:
.LBB6:
.LBB7:
	.loc 1 123 5
	.loc 1 124 5
	.loc 1 125 5
	.loc 1 126 5
	.loc 1 127 5
	.loc 1 127 10
	.loc 1 127 40
	.loc 1 127 50
	.loc 1 128 5
	.loc 1 128 9 is_stmt 0
	lhu	s3,10(s0)
.LVL16:
	li	a2,640
	li	a0,162
	addi	s3,s3,8
.LVL17:
	slli	s3,s3,16
.LVL18:
	srli	s3,s3,16
	mv	a1,s3
	call	pbuf_alloc
.LVL19:
	mv	s2,a0
.LVL20:
	.loc 1 129 5 is_stmt 1
	.loc 1 129 8 is_stmt 0
	beq	a0,zero,.L13
	.loc 1 133 5 is_stmt 1
	.loc 1 133 8 is_stmt 0
	lhu	a4,10(a0)
	lhu	a5,8(a0)
	bne	a4,a5,.L17
	.loc 1 133 32
	lw	a5,0(a0)
	bne	a5,zero,.L17
	.loc 1 134 9 is_stmt 1
	.loc 1 134 15 is_stmt 0
	lw	s1,4(a0)
.LVL21:
	.loc 1 135 9 is_stmt 1
	.loc 1 135 35 is_stmt 0
	lw	a0,24(s0)
.LVL22:
	call	utils_memp_malloc
.LVL23:
	mv	s4,a0
.LVL24:
	.loc 1 136 9 is_stmt 1
	.loc 1 136 12 is_stmt 0
	beq	a0,zero,.L17
	.loc 1 143 9 is_stmt 1
.LVL25:
.LBB8:
.LBB9:
	.loc 1 67 5
	.loc 1 68 5
	.loc 1 70 20 is_stmt 0
	li	a5,8
	sb	a5,0(s1)
	.loc 1 71 20
	sb	zero,1(s1)
	.loc 1 72 19
	sb	zero,2(s1)
	sb	zero,3(s1)
	.loc 1 73 20
	lhu	a5,14(s0)
	.loc 1 68 12
	addi	s5,s3,-8
.LVL26:
	.loc 1 69 5 is_stmt 1
	.loc 1 70 5
	.loc 1 71 5
	.loc 1 72 5
	.loc 1 73 5
	.loc 1 73 15 is_stmt 0
	sb	a5,4(s1)
	srli	a5,a5,8
	sb	a5,5(s1)
	.loc 1 74 5 is_stmt 1
	.loc 1 74 20 is_stmt 0
	lhu	a0,12(s0)
.LVL27:
	addi	a0,a0,1
	slli	a0,a0,16
	srli	a0,a0,16
	.loc 1 74 18
	sh	a0,12(s0)
	.loc 1 74 20
	call	lwip_htons
.LVL28:
	.loc 1 74 18
	sb	a0,6(s1)
	srli	a0,a0,8
	sb	a0,7(s1)
	.loc 1 76 5 is_stmt 1
.LVL29:
	.loc 1 76 11 is_stmt 0
	li	a5,0
.LVL30:
.L15:
	.loc 1 76 16 is_stmt 1
	.loc 1 76 5 is_stmt 0
	bgtu	s5,a5,.L16
	.loc 1 79 5 is_stmt 1
	.loc 1 79 21 is_stmt 0
	mv	a1,s3
	mv	a0,s1
	call	inet_chksum
.LVL31:
.LBE9:
.LBE8:
	.loc 1 144 35
	lbu	a5,7(s1)
	lbu	a4,6(s1)
.LBB14:
.LBB10:
	.loc 1 79 19
	sb	a0,2(s1)
.LBE10:
.LBE14:
	.loc 1 144 35
	slli	a5,a5,8
.LBB15:
.LBB11:
	.loc 1 79 19
	srli	a0,a0,8
.LBE11:
.LBE15:
	.loc 1 144 35
	or	a5,a5,a4
.LBB16:
.LBB12:
	.loc 1 79 19
	sb	a0,3(s1)
.LVL32:
.LBE12:
.LBE16:
	.loc 1 144 9 is_stmt 1
	.loc 1 144 28 is_stmt 0
	sh	a5,4(s4)
	.loc 1 146 9 is_stmt 1
	lw	a0,28(s0)
	addi	a2,s0,20
	mv	a1,s2
	call	raw_sendto
.LVL33:
	.loc 1 147 9
	.loc 1 147 31 is_stmt 0
	call	sys_now
.LVL34:
	.loc 1 147 29
	sw	a0,8(s4)
	.loc 1 148 9 is_stmt 1
	mv	a1,s4
	addi	a0,s0,32
	call	utils_list_push_back
.LVL35:
	.loc 1 149 9
	.loc 1 149 22 is_stmt 0
	lbu	a5,18(s0)
	.loc 1 151 24
	sw	zero,40(s0)
	.loc 1 149 22
	addi	a5,a5,1
	sb	a5,18(s0)
	.loc 1 150 9 is_stmt 1
	.loc 1 150 28 is_stmt 0
	lw	a5,4(s0)
	addi	a5,a5,1
	sw	a5,4(s0)
	.loc 1 151 9 is_stmt 1
.LVL36:
.L17:
	.loc 1 155 5
	.loc 1 156 9
	mv	a0,s2
	call	pbuf_free
.LVL37:
.L13:
.LBE7:
.LBE6:
	.loc 1 187 5
	lhu	a0,8(s0)
	lui	s1,%hi(ping_timeout)
	mv	a2,s0
	addi	a1,s1,%lo(ping_timeout)
	call	sys_timeout
.LVL38:
	.loc 1 194 5
	.loc 1 194 8 is_stmt 0
	lw	a4,4(s0)
	lw	a5,0(s0)
	bne	a4,a5,.L6
	.loc 1 195 9 is_stmt 1
	mv	a1,s0
	addi	a0,s1,%lo(ping_timeout)
	call	sys_untimeout
.LVL39:
	.loc 1 196 9
	lhu	a0,16(s0)
	mv	a2,s0
	.loc 1 199 1 is_stmt 0
	lw	s0,24(sp)
	.cfi_remember_state
	.cfi_restore 8
.LVL40:
	lw	ra,28(sp)
	.cfi_restore 1
	lw	s1,20(sp)
	.cfi_restore 9
	lw	s2,16(sp)
	.cfi_restore 18
	lw	s3,12(sp)
	.cfi_restore 19
	lw	s4,8(sp)
	.cfi_restore 20
	lw	s5,4(sp)
	.cfi_restore 21
	.loc 1 196 9
	lui	a1,%hi(ping_free)
	.loc 1 199 1
	.loc 1 196 9
	addi	a1,a1,%lo(ping_free)
	.loc 1 199 1
	addi	sp,sp,32
	.cfi_def_cfa_offset 0
	.loc 1 196 9
	tail	sys_timeout
.LVL41:
.L8:
	.cfi_restore_state
	.loc 1 169 35 discriminator 1
	call	sys_now
.LVL42:
	.loc 1 169 77 discriminator 1
	lw	a5,32(s0)
	.loc 1 169 45 discriminator 1
	lw	a4,8(a5)
	sub	a0,a0,a4
	.loc 1 169 97 discriminator 1
	lhu	a4,16(s0)
	.loc 1 169 32 discriminator 1
	bleu	a0,a4,.L12
	.loc 1 170 9 is_stmt 1
	.loc 1 170 56 is_stmt 0
	lhu	a0,4(a5)
	call	lwip_htons
.LVL43:
	mv	a1,a0
	.loc 1 170 9
	addi	a0,s1,%lo(.LC2)
	call	printf
.LVL44:
	.loc 1 171 9 is_stmt 1
	lw	s3,24(s0)
	.loc 1 171 52 is_stmt 0
	mv	a0,s2
	call	utils_list_pop_front
.LVL45:
	mv	a1,a0
	.loc 1 171 9
	mv	a0,s3
	call	utils_memp_free
.LVL46:
	.loc 1 172 9 is_stmt 1
	.loc 1 172 22 is_stmt 0
	lbu	a5,18(s0)
	addi	a5,a5,-1
	sb	a5,18(s0)
	j	.L7
.LVL47:
.L16:
.LBB19:
.LBB18:
.LBB17:
.LBB13:
	.loc 1 77 9 is_stmt 1
	.loc 1 77 58 is_stmt 0
	add	a4,s1,a5
	sb	a5,8(a4)
	.loc 1 76 30 is_stmt 1
	.loc 1 76 31 is_stmt 0
	addi	a5,a5,1
.LVL48:
	j	.L15
.LVL49:
.L6:
.LBE13:
.LBE17:
.LBE18:
.LBE19:
	.loc 1 199 1
	lw	ra,28(sp)
	.cfi_restore 1
	lw	s0,24(sp)
	.cfi_restore 8
.LVL50:
	lw	s1,20(sp)
	.cfi_restore 9
	lw	s2,16(sp)
	.cfi_restore 18
	lw	s3,12(sp)
	.cfi_restore 19
	lw	s4,8(sp)
	.cfi_restore 20
	lw	s5,4(sp)
	.cfi_restore 21
	addi	sp,sp,32
	.cfi_def_cfa_offset 0
	jr	ra
	.cfi_endproc
.LFE30:
	.size	ping_timeout, .-ping_timeout
	.section	.rodata.ping_recv.str1.4,"aMS",@progbits,1
	.align	2
.LC3:
	.string	"%d bytes from %s: icmp_seq=%d ttl=%d time=%lu ms\r\n "
	.section	.text.ping_recv,"ax",@progbits
	.align	1
	.type	ping_recv, @function
ping_recv:
.LFB28:
	.loc 1 84 1 is_stmt 1
	.cfi_startproc
.LVL51:
	.loc 1 85 5
	.loc 1 86 5
	.loc 1 87 5
	.loc 1 88 5
	.loc 1 89 5
	.loc 1 90 5
	.loc 1 91 5
	.loc 1 92 5
	.loc 1 92 10
	.loc 1 92 9
	.loc 1 92 19
	.loc 1 99 5
	.loc 1 99 65 is_stmt 0
	lhu	a5,10(a0)
	.loc 1 99 11
	lhu	a4,8(a2)
	.loc 1 99 60
	addi	a5,a5,28
	.loc 1 99 8
	bne	a4,a5,.L34
	.loc 1 84 1 discriminator 1
	addi	sp,sp,-48
	.cfi_def_cfa_offset 48
	sw	s0,40(sp)
	sw	ra,44(sp)
	sw	s1,36(sp)
	sw	s2,32(sp)
	.cfi_offset 8, -8
	.cfi_offset 1, -4
	.cfi_offset 9, -12
	.cfi_offset 18, -16
	.loc 1 99 78 discriminator 1
	lw	a4,20(a0)
	lw	a5,0(a3)
	mv	s0,a0
	.loc 1 118 12 discriminator 1
	li	a0,0
.LVL52:
	.loc 1 99 78 discriminator 1
	bne	a4,a5,.L38
.LBB24:
.LBB25:
	.loc 1 100 38
	lw	a1,4(a2)
.LVL53:
	mv	s2,a2
.LVL54:
	.loc 1 100 9 is_stmt 1
	addi	a0,sp,24
	li	a2,8
.LVL55:
	addi	a1,a1,20
	call	memcpy
.LVL56:
	.loc 1 101 9
	.loc 1 103 9
	lbu	a0,24(sp)
	lbu	a5,25(sp)
	or	a0,a0,a5
	andi	a0,a0,0xff
	.loc 1 103 32 is_stmt 0
	bne	a0,zero,.L36
	.loc 1 103 54
	lhu	a4,28(sp)
	lhu	a5,14(s0)
	bne	a4,a5,.L38
	.loc 1 103 86
	lbu	a5,18(s0)
	.loc 1 103 80
	beq	a5,zero,.L38
	.loc 1 104 13 is_stmt 1
.LBB26:
.LBB27:
	.loc 1 337 15 is_stmt 0
	lw	s1,32(s0)
.LBE27:
.LBE26:
	.loc 1 104 24
	lhu	a5,30(sp)
.LVL57:
.LBB30:
.LBB28:
	.loc 1 335 5 is_stmt 1
	.loc 1 336 5
	.loc 1 337 5
	.loc 1 338 5
	.loc 1 338 8 is_stmt 0
	beq	s1,zero,.L38
	.loc 1 338 38
	lhu	a4,4(s1)
	.loc 1 338 26
	bltu	a5,a4,.L38
	.loc 1 340 5 is_stmt 1
	.loc 1 340 8 is_stmt 0
	bne	a5,a4,.L29
	.loc 1 342 56
	lw	a5,0(s1)
.LVL58:
	.loc 1 341 9 is_stmt 1
	.loc 1 342 9
	.loc 1 342 21 is_stmt 0
	sw	a5,32(s0)
.LVL59:
.L30:
.LBE28:
.LBE30:
	.loc 1 106 13 is_stmt 1
	.loc 1 107 17
	lhu	a1,8(s2)
	addi	a0,s0,20
	sw	a1,12(sp)
	call	ip4addr_ntoa
.LVL60:
	sw	a0,8(sp)
	.loc 1 107 119 is_stmt 0
	lhu	a0,30(sp)
	call	lwip_htons
.LVL61:
	.loc 1 107 145
	lw	a5,4(s2)
	.loc 1 107 119
	sw	a0,4(sp)
	.loc 1 107 17
	lbu	a4,8(a5)
	sw	a4,0(sp)
	.loc 1 107 176
	call	sys_now
.LVL62:
	.loc 1 107 17
	lw	a5,8(s1)
	lw	a4,0(sp)
	lw	a3,4(sp)
	lw	a2,8(sp)
	lw	a1,12(sp)
	sub	a5,a0,a5
	lui	a0,%hi(.LC3)
	addi	a0,a0,%lo(.LC3)
	call	printf
.LVL63:
	.loc 1 109 17 is_stmt 1
	lw	a0,24(s0)
	mv	a1,s1
	call	utils_memp_free
.LVL64:
	.loc 1 110 17
	.loc 1 110 30 is_stmt 0
	lbu	a5,18(s0)
	addi	a5,a5,-1
	sb	a5,18(s0)
	.loc 1 111 17 is_stmt 1
	.loc 1 111 34 is_stmt 0
	call	sys_now
.LVL65:
	.loc 1 111 44
	lw	a5,8(s1)
	sub	a0,a0,a5
	.loc 1 111 32
	sw	a0,40(s0)
	.loc 1 112 17 is_stmt 1
	mv	a0,s2
	call	pbuf_free
.LVL66:
	.loc 1 113 17
	.loc 1 113 24 is_stmt 0
	li	a0,1
	j	.L38
.LVL67:
.L29:
.LBB31:
.LBB29:
	.loc 1 346 15 is_stmt 1
	mv	a4,s1
	.loc 1 346 26 is_stmt 0
	lw	s1,0(s1)
.LVL68:
	.loc 1 346 15
	beq	s1,zero,.L38
	.loc 1 346 60
	lhu	a3,4(s1)
	.loc 1 346 41
	bgtu	a5,a3,.L29
	.loc 1 350 9 is_stmt 1
	.loc 1 350 36 is_stmt 0
	bne	a5,a3,.L38
	.loc 1 352 13 is_stmt 1
	.loc 1 352 16 is_stmt 0
	lw	a5,36(s0)
.LVL69:
	bne	s1,a5,.L32
	.loc 1 354 17 is_stmt 1
	.loc 1 354 28 is_stmt 0
	sw	a4,36(s0)
.L32:
	.loc 1 356 13 is_stmt 1
	.loc 1 356 18 is_stmt 0
	lw	s1,0(a4)
.LVL70:
	.loc 1 357 13 is_stmt 1
	.loc 1 357 35 is_stmt 0
	lw	a5,0(s1)
	.loc 1 357 29
	sw	a5,0(a4)
.LVL71:
	j	.L30
.LVL72:
.L36:
.LBE29:
.LBE31:
	.loc 1 118 12
	li	a0,0
.LVL73:
.L38:
.LBE25:
.LBE24:
	.loc 1 119 1
	lw	ra,44(sp)
	.cfi_restore 1
	lw	s0,40(sp)
	.cfi_restore 8
.LVL74:
	lw	s1,36(sp)
	.cfi_restore 9
	lw	s2,32(sp)
	.cfi_restore 18
	addi	sp,sp,48
	.cfi_def_cfa_offset 0
	jr	ra
.LVL75:
.L34:
	.loc 1 118 12
	li	a0,0
.LVL76:
	.loc 1 119 1
	ret
	.cfi_endproc
.LFE28:
	.size	ping_recv, .-ping_recv
	.section	.rodata.ping_api_init.str1.4,"aMS",@progbits,1
	.align	2
.LC4:
	.string	"mem malloc failed!\r\n"
	.align	2
.LC5:
	.string	"pool_alloc failed\n"
	.align	2
.LC6:
	.string	"pcb null, maybe the pcb pool or sys_timeout pool is empty\r\n"
	.align	2
.LC7:
	.string	"ping_init failed\r\n"
	.section	.text.ping_api_init,"ax",@progbits
	.align	1
	.globl	ping_api_init
	.type	ping_api_init, @function
ping_api_init:
.LFB33:
	.loc 1 246 1 is_stmt 1
	.cfi_startproc
.LVL77:
	.loc 1 247 5
	.loc 1 248 5
	.loc 1 246 1 is_stmt 0
	addi	sp,sp,-32
	.cfi_def_cfa_offset 32
	sw	s4,8(sp)
	.cfi_offset 20, -24
	mv	s4,a0
	.loc 1 248 29
	li	a0,44
.LVL78:
	.loc 1 246 1
	sw	s0,24(sp)
	sw	s1,20(sp)
	sw	s2,16(sp)
	sw	s3,12(sp)
	sw	s5,4(sp)
	sw	ra,28(sp)
	.cfi_offset 8, -8
	.cfi_offset 9, -12
	.cfi_offset 18, -16
	.cfi_offset 19, -20
	.cfi_offset 21, -28
	.cfi_offset 1, -4
	.loc 1 246 1
	mv	s3,a1
	mv	s5,a2
	mv	s2,a3
	mv	s1,a4
	.loc 1 248 29
	call	pvPortMalloc
.LVL79:
	mv	s0,a0
.LVL80:
	.loc 1 249 5 is_stmt 1
	.loc 1 249 8 is_stmt 0
	bne	a0,zero,.L56
	.loc 1 250 9 is_stmt 1
	lui	a0,%hi(.LC4)
	addi	a0,a0,%lo(.LC4)
	call	printf
.LVL81:
	.loc 1 251 9
.L55:
	.loc 1 267 1 is_stmt 0
	lw	ra,28(sp)
	.cfi_remember_state
	.cfi_restore 1
	mv	a0,s0
	lw	s0,24(sp)
	.cfi_restore 8
.LVL82:
	lw	s1,20(sp)
	.cfi_restore 9
	lw	s2,16(sp)
	.cfi_restore 18
	lw	s3,12(sp)
	.cfi_restore 19
	lw	s4,8(sp)
	.cfi_restore 20
	lw	s5,4(sp)
	.cfi_restore 21
.LVL83:
	addi	sp,sp,32
	.cfi_def_cfa_offset 0
	jr	ra
.LVL84:
.L56:
	.cfi_restore_state
	.loc 1 253 5 is_stmt 1
	.loc 1 253 22 is_stmt 0
	sw	s5,0(a0)
	.loc 1 254 5 is_stmt 1
	.loc 1 254 25 is_stmt 0
	sw	zero,4(a0)
	.loc 1 255 5 is_stmt 1
	.loc 1 255 19 is_stmt 0
	sh	s4,8(a0)
	.loc 1 256 5 is_stmt 1
	.loc 1 256 20 is_stmt 0
	sh	s3,10(a0)
	.loc 1 257 5 is_stmt 1
	.loc 1 257 18 is_stmt 0
	sh	zero,12(a0)
	.loc 1 258 5 is_stmt 1
	.loc 1 258 15 is_stmt 0
	call	bl_rand
.LVL85:
	.loc 1 258 13
	sh	a0,14(s0)
	.loc 1 259 5 is_stmt 1
	.loc 1 259 18 is_stmt 0
	sh	s2,16(s0)
	.loc 1 260 5 is_stmt 1
	.loc 1 260 19 is_stmt 0
	sb	zero,18(s0)
	.loc 1 261 5 is_stmt 1
	.loc 1 261 15 is_stmt 0
	lw	a5,0(s1)
.LBB34:
.LBB35:
	.loc 1 218 9
	li	a3,4
	li	a2,10
.LBE35:
.LBE34:
	.loc 1 261 15
	sw	a5,20(s0)
	.loc 1 262 5 is_stmt 1
.LVL86:
.LBB38:
.LBB36:
	.loc 1 216 5
	.loc 1 217 5
	.loc 1 218 5
	.loc 1 218 9 is_stmt 0
	li	a1,12
	addi	a0,s0,24
	call	utils_memp_init
.LVL87:
	.loc 1 218 8
	beq	a0,zero,.L58
	.loc 1 219 9 is_stmt 1
	lui	a0,%hi(.LC5)
	addi	a0,a0,%lo(.LC5)
.LVL88:
.L62:
	.loc 1 233 9 is_stmt 0
	call	printf
.LVL89:
	.loc 1 234 9 is_stmt 1
.LBE36:
.LBE38:
	.loc 1 263 9
	lui	a0,%hi(.LC7)
	addi	a0,a0,%lo(.LC7)
	call	printf
.LVL90:
	.loc 1 264 9
	mv	a0,s0
	call	vPortFree
.LVL91:
	j	.L55
.LVL92:
.L58:
.LBB39:
.LBB37:
	.loc 1 222 5
	addi	a0,s0,32
	call	utils_list_init
.LVL93:
	.loc 1 228 5
	.loc 1 229 5
	.loc 1 229 11 is_stmt 0
	li	a0,1
	call	raw_new
.LVL94:
	mv	s1,a0
.LVL95:
	.loc 1 231 5 is_stmt 1
	.loc 1 231 8 is_stmt 0
	bne	a0,zero,.L60
	.loc 1 232 9 is_stmt 1
	.loc 1 233 9
	lui	a0,%hi(.LC6)
	addi	a0,a0,%lo(.LC6)
	j	.L62
.L60:
	.loc 1 236 5
	.loc 1 237 5 is_stmt 0
	lui	a1,%hi(ping_recv)
	mv	a2,s0
	.loc 1 236 14
	sw	a0,28(s0)
	.loc 1 237 5 is_stmt 1
	addi	a1,a1,%lo(ping_recv)
	call	raw_recv
.LVL96:
	.loc 1 238 5
	lui	a1,%hi(ip_addr_any)
	addi	a1,a1,%lo(ip_addr_any)
	mv	a0,s1
	call	raw_bind
.LVL97:
	.loc 1 239 5
	lui	a1,%hi(ping_timeout)
	mv	a2,s0
	addi	a1,a1,%lo(ping_timeout)
	li	a0,0
	call	sys_timeout
.LVL98:
	.loc 1 240 5
	.loc 1 242 5
	j	.L55
.LBE37:
.LBE39:
	.cfi_endproc
.LFE33:
	.size	ping_api_init, .-ping_api_init
	.section	.rodata.ping_cmd.str1.4,"aMS",@progbits,1
	.align	2
.LC8:
	.string	"%s: %c requires an argument\r\n"
	.align	2
.LC9:
	.string	"%s: unknown option %c\r\n"
	.align	2
.LC10:
	.string	":i:s:c:W:h"
	.align	2
.LC11:
	.string	"Failed to resolve domain name\r\n"
	.align	2
.LC12:
	.string	"Need target address\r\n"
	.section	.text.ping_cmd,"ax",@progbits
	.align	1
	.type	ping_cmd, @function
ping_cmd:
.LFB34:
	.loc 1 270 1
	.cfi_startproc
.LVL99:
	.loc 1 276 5
	.loc 1 277 5
	.loc 1 278 5
	.loc 1 270 1 is_stmt 0
	addi	sp,sp,-96
	.cfi_def_cfa_offset 96
	sw	s1,84(sp)
	.loc 1 278 5
	li	a1,0
.LVL100:
	addi	a0,sp,12
.LVL101:
	.cfi_offset 9, -12
	.loc 1 282 11
	li	s1,4096
	.loc 1 270 1
	sw	s0,88(sp)
	sw	s2,80(sp)
	sw	s3,76(sp)
	sw	s4,72(sp)
	sw	s5,68(sp)
	sw	s6,64(sp)
	sw	s7,60(sp)
	sw	s8,56(sp)
	sw	s9,52(sp)
	sw	s10,48(sp)
	sw	ra,92(sp)
	sw	s11,44(sp)
	.cfi_offset 8, -8
	.cfi_offset 18, -16
	.cfi_offset 19, -20
	.cfi_offset 20, -24
	.cfi_offset 21, -28
	.cfi_offset 22, -32
	.cfi_offset 23, -36
	.cfi_offset 24, -40
	.cfi_offset 25, -44
	.cfi_offset 26, -48
	.cfi_offset 1, -4
	.cfi_offset 27, -52
	.loc 1 270 1
	mv	s5,a2
	mv	s0,a3
	.loc 1 282 11
	addi	s1,s1,904
	.loc 1 278 5
	call	utils_getopt_init
.LVL102:
	.loc 1 279 5 is_stmt 1
	.loc 1 280 5
	.loc 1 281 5
	.loc 1 282 5
	.loc 1 283 5
	.loc 1 285 5
	.loc 1 281 11 is_stmt 0
	li	s4,0
	.loc 1 280 11
	li	s3,32
	.loc 1 279 11
	li	s2,1000
	.loc 1 285 19
	lui	s8,%hi(.LC10)
	.loc 1 285 11
	li	s7,-1
	.loc 1 286 9
	li	s6,99
	li	s9,105
	li	s10,115
.LVL103:
.L64:
	li	s11,104
	j	.L79
.LVL104:
.L76:
	.loc 1 286 9 is_stmt 1
	beq	a0,s6,.L65
	bgt	a0,s6,.L66
	beq	a0,a5,.L67
	beq	a0,a4,.L68
	li	a3,58
	beq	a0,a3,.L69
.LVL105:
.L79:
	.loc 1 285 11
	.loc 1 285 19 is_stmt 0
	addi	a3,s8,%lo(.LC10)
	mv	a2,s0
	mv	a1,s5
	addi	a0,sp,12
	call	utils_getopt
.LVL106:
	.loc 1 285 11
	li	a5,63
	li	a4,87
	bne	a0,s7,.L76
	.loc 1 316 5 is_stmt 1
	.loc 1 316 19 is_stmt 0
	lw	a5,16(sp)
	.loc 1 316 27
	addi	a4,a5,1
	.loc 1 316 8
	bne	a4,s5,.L77
.LBB40:
	.loc 1 317 9 is_stmt 1
	.loc 1 317 36 is_stmt 0
	slli	a5,a5,2
	add	s0,s0,a5
.LVL107:
	lw	a0,0(s0)
.LVL108:
	call	lwip_gethostbyname
.LVL109:
	.loc 1 318 9 is_stmt 1
	.loc 1 318 12 is_stmt 0
	bne	a0,zero,.L78
	.loc 1 319 13 is_stmt 1
	lui	a0,%hi(.LC11)
.LVL110:
	addi	a0,a0,%lo(.LC11)
	call	printf
.LVL111:
.L63:
.LBE40:
	.loc 1 331 1 is_stmt 0
	lw	ra,92(sp)
	.cfi_remember_state
	.cfi_restore 1
	lw	s0,88(sp)
	.cfi_restore 8
	lw	s1,84(sp)
	.cfi_restore 9
.LVL112:
	lw	s2,80(sp)
	.cfi_restore 18
.LVL113:
	lw	s3,76(sp)
	.cfi_restore 19
.LVL114:
	lw	s4,72(sp)
	.cfi_restore 20
.LVL115:
	lw	s5,68(sp)
	.cfi_restore 21
.LVL116:
	lw	s6,64(sp)
	.cfi_restore 22
	lw	s7,60(sp)
	.cfi_restore 23
	lw	s8,56(sp)
	.cfi_restore 24
	lw	s9,52(sp)
	.cfi_restore 25
	lw	s10,48(sp)
	.cfi_restore 26
	lw	s11,44(sp)
	.cfi_restore 27
	addi	sp,sp,96
	.cfi_def_cfa_offset 0
	jr	ra
.LVL117:
.L66:
	.cfi_restore_state
	.loc 1 286 9
	beq	a0,s9,.L71
	beq	a0,s10,.L72
	bne	a0,s11,.L79
.LVL118:
.L81:
	.loc 1 328 9 is_stmt 1
	call	ping_usage
.LVL119:
	j	.L63
.LVL120:
.L71:
	.loc 1 288 17
	.loc 1 288 28 is_stmt 0
	lw	a0,12(sp)
.LVL121:
	call	atoi
.LVL122:
	.loc 1 288 26
	slli	s2,a0,16
.LVL123:
	srli	s2,s2,16
.LVL124:
	.loc 1 289 17 is_stmt 1
	j	.L64
.LVL125:
.L72:
	.loc 1 291 17
	.loc 1 291 29 is_stmt 0
	lw	a0,12(sp)
.LVL126:
	call	atoi
.LVL127:
	.loc 1 291 27
	slli	s3,a0,16
.LVL128:
	srli	s3,s3,16
.LVL129:
	.loc 1 292 17 is_stmt 1
	j	.L64
.LVL130:
.L65:
	.loc 1 294 17
	.loc 1 294 31 is_stmt 0
	lw	a0,12(sp)
.LVL131:
	call	atoi
.LVL132:
	mv	s4,a0
.LVL133:
	.loc 1 298 17 is_stmt 1
	j	.L64
.LVL134:
.L68:
	.loc 1 300 17
	.loc 1 300 27 is_stmt 0
	lw	a0,12(sp)
.LVL135:
	call	atoi
.LVL136:
	.loc 1 300 25
	slli	s1,a0,16
.LVL137:
	srli	s1,s1,16
.LVL138:
	.loc 1 301 17 is_stmt 1
	j	.L64
.LVL139:
.L69:
	.loc 1 306 17
	lw	a2,24(sp)
	lw	a1,0(s0)
	lui	a0,%hi(.LC8)
.LVL140:
	addi	a0,a0,%lo(.LC8)
.L82:
	.loc 1 310 17 is_stmt 0
	call	printf
.LVL141:
	.loc 1 311 17 is_stmt 1
	j	.L81
.LVL142:
.L67:
	.loc 1 310 17
	lui	a0,%hi(.LC9)
.LVL143:
	lw	a2,24(sp)
	lw	a1,0(s0)
	addi	a0,a0,%lo(.LC9)
	j	.L82
.LVL144:
.L78:
.LBB41:
	.loc 1 323 13
	.loc 1 324 13
	.loc 1 323 18 is_stmt 0
	lw	a5,16(a0)
	.loc 1 324 13
	mv	a3,s1
	mv	a2,s4
	lw	a4,0(a5)
	mv	a1,s3
	mv	a0,s2
.LVL145:
	call	ping_api_init
.LVL146:
	j	.L63
.LVL147:
.L77:
.LBE41:
	.loc 1 327 9 is_stmt 1
	lui	a0,%hi(.LC12)
.LVL148:
	addi	a0,a0,%lo(.LC12)
	call	printf
.LVL149:
	j	.L81
	.cfi_endproc
.LFE34:
	.size	ping_cmd, .-ping_cmd
	.section	.text.network_netutils_ping_cli_register,"ax",@progbits
	.align	1
	.globl	network_netutils_ping_cli_register
	.type	network_netutils_ping_cli_register, @function
network_netutils_ping_cli_register:
.LFB37:
	.loc 1 382 1
	.cfi_startproc
	.loc 1 387 5
	.loc 1 388 1 is_stmt 0
	li	a0,0
	ret
	.cfi_endproc
.LFE37:
	.size	network_netutils_ping_cli_register, .-network_netutils_ping_cli_register
	.section	.rodata.str1.4,"aMS",@progbits,1
	.align	2
.LC13:
	.string	"ping"
	.section	.static_cli_cmds,"a"
	.align	2
	.type	cmds_user, @object
	.size	cmds_user, 12
cmds_user:
	.word	.LC13
	.word	.LC0
	.word	ping_cmd
	.text
.Letext0:
	.file 2 "/mnt/d/GitHub/bl_iot_sdk_for_aithinker/toolchain/riscv/Linux/riscv64-unknown-elf/include/machine/_default_types.h"
	.file 3 "/mnt/d/GitHub/bl_iot_sdk_for_aithinker/toolchain/riscv/Linux/lib/gcc/riscv64-unknown-elf/10.2.0/include/stddef.h"
	.file 4 "/mnt/d/GitHub/bl_iot_sdk_for_aithinker/toolchain/riscv/Linux/riscv64-unknown-elf/include/sys/_stdint.h"
	.file 5 "/mnt/d/GitHub/bl_iot_sdk_for_aithinker/components/network/lwip/src/include/lwip/arch.h"
	.file 6 "/mnt/d/GitHub/bl_iot_sdk_for_aithinker/components/network/lwip/src/include/lwip/pbuf.h"
	.file 7 "/mnt/d/GitHub/bl_iot_sdk_for_aithinker/components/network/lwip/src/include/lwip/ip4_addr.h"
	.file 8 "/mnt/d/GitHub/bl_iot_sdk_for_aithinker/components/network/lwip/src/include/lwip/ip_addr.h"
	.file 9 "/mnt/d/GitHub/bl_iot_sdk_for_aithinker/components/network/lwip/src/include/lwip/memp.h"
	.file 10 "/mnt/d/GitHub/bl_iot_sdk_for_aithinker/components/network/lwip/src/include/lwip/raw.h"
	.file 11 "/mnt/d/GitHub/bl_iot_sdk_for_aithinker/components/network/lwip/src/include/lwip/prot/icmp.h"
	.file 12 "/mnt/d/GitHub/bl_iot_sdk_for_aithinker/components/network/lwip/src/include/lwip/netdb.h"
	.file 13 "/mnt/d/GitHub/bl_iot_sdk_for_aithinker/components/utils/include/utils_list.h"
	.file 14 "/mnt/d/GitHub/bl_iot_sdk_for_aithinker/components/utils/include/utils_getopt.h"
	.file 15 "/mnt/d/GitHub/bl_iot_sdk_for_aithinker/components/stage/cli/cli/include/cli.h"
	.file 16 "/mnt/d/GitHub/bl_iot_sdk_for_aithinker/components/utils/include/utils_memp.h"
	.file 17 "/mnt/d/GitHub/bl_iot_sdk_for_aithinker/components/network/netutils/include/ping.h"
	.file 18 "/mnt/d/GitHub/bl_iot_sdk_for_aithinker/toolchain/riscv/Linux/riscv64-unknown-elf/include/stdio.h"
	.file 19 "/mnt/d/GitHub/bl_iot_sdk_for_aithinker/toolchain/riscv/Linux/riscv64-unknown-elf/include/stdlib.h"
	.file 20 "/mnt/d/GitHub/bl_iot_sdk_for_aithinker/components/network/lwip/src/include/lwip/timeouts.h"
	.file 21 "/mnt/d/GitHub/bl_iot_sdk_for_aithinker/components/platform/soc/bl602/freertos_riscv_ram/config/portable.h"
	.file 22 "/mnt/d/GitHub/bl_iot_sdk_for_aithinker/components/network/lwip/lwip-port/config/lwipopts.h"
	.file 23 "/mnt/d/GitHub/bl_iot_sdk_for_aithinker/components/network/lwip/src/include/lwip/def.h"
	.file 24 "/mnt/d/GitHub/bl_iot_sdk_for_aithinker/components/network/lwip/src/include/lwip/inet_chksum.h"
	.file 25 "/mnt/d/GitHub/bl_iot_sdk_for_aithinker/components/network/lwip/src/include/lwip/sys.h"
	.file 26 "/mnt/d/GitHub/bl_iot_sdk_for_aithinker/toolchain/riscv/Linux/riscv64-unknown-elf/include/string.h"
	.file 27 "/mnt/d/GitHub/bl_iot_sdk_for_aithinker/components/network/lwip/src/include/lwip/netif.h"