	.file	"utils_fec.c"
	.option nopic
	.attribute arch, "rv32i2p0_m2p0_f2p0_c2p0"
	.attribute unaligned_access, 0
	.attribute stack_align, 16
	.text
.Ltext0:
	.cfi_sections	.debug_frame
	.section	.text.poly_init,"ax",@progbits
	.align	1
	.globl	poly_init
	.type	poly_init, @function
poly_init:
.LFB4:
	.file 1 "/mnt/d/GitHub/bl_iot_sdk_for_aithinker/components/utils/src/utils_fec.c"
	.loc 1 113 1
	.cfi_startproc
.LVL0:
	.loc 1 114 5
	.loc 1 116 5
	.loc 1 116 14 is_stmt 0
	sb	a1,0(a0)
	.loc 1 117 5 is_stmt 1
	.loc 1 117 16 is_stmt 0
	sb	a3,1(a0)
	.loc 1 118 5 is_stmt 1
	.loc 1 118 18 is_stmt 0
	sh	a2,2(a0)
	.loc 1 119 5 is_stmt 1
	.loc 1 119 18 is_stmt 0
	sw	a4,4(a0)
	.loc 1 120 5 is_stmt 1
	.loc 1 120 17 is_stmt 0
	sb	zero,8(a0)
	.loc 1 121 1
	ret
	.cfi_endproc
.LFE4:
	.size	poly_init, .-poly_init
	.section	.text.poly_ptr,"ax",@progbits
	.align	1
	.globl	poly_ptr
	.type	poly_ptr, @function
poly_ptr:
.LFB5:
	.loc 1 124 1 is_stmt 1
	.cfi_startproc
.LVL1:
	.loc 1 125 5
	.loc 1 127 5
	.loc 1 127 31 is_stmt 0
	lhu	a5,2(a0)
	.loc 1 127 26
	lw	a0,4(a0)
.LVL2:
	.loc 1 128 1
	add	a0,a0,a5
	ret
	.cfi_endproc
.LFE5:
	.size	poly_ptr, .-poly_ptr
	.section	.text.poly_reset,"ax",@progbits
	.align	1
	.globl	poly_reset
	.type	poly_reset, @function
poly_reset:
.LFB6:
	.loc 1 131 1 is_stmt 1
	.cfi_startproc
.LVL3:
	.loc 1 132 5
	.loc 1 134 5
.LBB292:
.LBB293:
	.loc 1 125 5
	.loc 1 127 5
	.loc 1 127 31 is_stmt 0
	lhu	a5,2(a0)
	.loc 1 127 26
	lw	a4,4(a0)
.LBE293:
.LBE292:
	.loc 1 134 5
	lbu	a2,1(a0)
	li	a1,0
	add	a0,a4,a5
.LVL4:
	tail	memset
.LVL5:
	.cfi_endproc
.LFE6:
	.size	poly_reset, .-poly_reset
	.section	.text.poly_set,"ax",@progbits
	.align	1
	.globl	poly_set
	.type	poly_set, @function
poly_set:
.LFB7:
	.loc 1 138 1 is_stmt 1
	.cfi_startproc
.LVL6:
	.loc 1 139 5
	.loc 1 141 5
.LBB294:
.LBB295:
	.loc 1 125 5
	.loc 1 127 5
.LBE295:
.LBE294:
	.loc 1 138 1 is_stmt 0
	addi	sp,sp,-16
	.cfi_def_cfa_offset 16
	sw	s0,8(sp)
	sw	s1,4(sp)
	sw	s2,0(sp)
	sw	ra,12(sp)
	.cfi_offset 8, -8
	.cfi_offset 9, -12
	.cfi_offset 18, -16
	.cfi_offset 1, -4
.LBB297:
.LBB296:
	.loc 1 127 31
	lhu	a5,2(a0)
.LBE296:
.LBE297:
	.loc 1 138 1
	mv	s1,a0
	.loc 1 141 25
	lw	a0,4(a0)
.LVL7:
	add	a5,a5,a3
	.loc 1 138 1
	mv	s2,a2
	mv	s0,a3
	.loc 1 141 5
	add	a0,a0,a5
	call	memcpy
.LVL8:
	.loc 1 143 5 is_stmt 1
	.loc 1 143 23 is_stmt 0
	add	s0,s0,s2
	.loc 1 143 17
	sb	s0,8(s1)
	.loc 1 144 1
	lw	ra,12(sp)
	.cfi_restore 1
	lw	s0,8(sp)
	.cfi_restore 8
	lw	s1,4(sp)
	.cfi_restore 9
.LVL9:
	lw	s2,0(sp)
	.cfi_restore 18
	addi	sp,sp,16
	.cfi_def_cfa_offset 0
	jr	ra
	.cfi_endproc
.LFE7:
	.size	poly_set, .-poly_set
	.section	.text.poly_at,"ax",@progbits
	.align	1
	.globl	poly_at
	.type	poly_at, @function
poly_at:
.LFB8:
	.loc 1 147 1 is_stmt 1
	.cfi_startproc
.LVL10:
	.loc 1 148 5
	.loc 1 150 5
	.loc 1 152 5
.LBB298:
.LBB299:
	.loc 1 125 5
	.loc 1 127 5
.LBE299:
.LBE298:
	.loc 1 154 5
.LBB301:
.LBB300:
	.loc 1 127 31 is_stmt 0
	lhu	a5,2(a0)
.LBE300:
.LBE301:
	.loc 1 154 16
	lw	a0,4(a0)
.LVL11:
	add	a5,a5,a1
.LVL12:
	.loc 1 155 1
	add	a0,a0,a5
.LVL13:
	ret
	.cfi_endproc
.LFE8:
	.size	poly_at, .-poly_at
	.section	.text.poly_get_size,"ax",@progbits
	.align	1
	.globl	poly_get_size
	.type	poly_get_size, @function
poly_get_size:
.LFB9:
	.loc 1 158 1 is_stmt 1
	.cfi_startproc
.LVL14:
	.loc 1 159 5
	.loc 1 161 5
	.loc 1 162 1 is_stmt 0
	lbu	a0,1(a0)
.LVL15:
	ret
	.cfi_endproc
.LFE9:
	.size	poly_get_size, .-poly_get_size
	.section	.text.poly_get_id,"ax",@progbits
	.align	1
	.globl	poly_get_id
	.type	poly_get_id, @function
poly_get_id:
.LFB10:
	.loc 1 165 1 is_stmt 1
	.cfi_startproc
.LVL16:
	.loc 1 166 5
	.loc 1 168 5
	.loc 1 169 1 is_stmt 0
	lbu	a0,0(a0)
.LVL17:
	ret
	.cfi_endproc
.LFE10:
	.size	poly_get_id, .-poly_get_id
	.section	.text.poly_copy,"ax",@progbits
	.align	1
	.globl	poly_copy
	.type	poly_copy, @function
poly_copy:
.LFB11:
	.loc 1 172 1 is_stmt 1
	.cfi_startproc
.LVL18:
	.loc 1 173 5
	.loc 1 175 5
	.loc 1 175 66 is_stmt 0
	lbu	a5,8(a0)
	lbu	a2,8(a1)
	andi	a4,a5,0xff
	andi	a3,a2,0xff
	bgeu	a3,a4,.L10
	mv	a2,a5
.L10:
	.loc 1 175 17
	sb	a2,8(a0)
	.loc 1 176 5 is_stmt 1
.LVL19:
.LBB302:
.LBB303:
	.loc 1 125 5
	.loc 1 127 5
	.loc 1 127 31 is_stmt 0
	lhu	a5,2(a1)
	.loc 1 127 26
	lw	a1,4(a1)
.LVL20:
.LBE303:
.LBE302:
	.loc 1 176 5
	li	a3,0
	andi	a2,a2,0xff
	add	a1,a1,a5
	tail	poly_set
.LVL21:
	.cfi_endproc
.LFE11:
	.size	poly_copy, .-poly_copy
	.section	.text.poly_append,"ax",@progbits
	.align	1
	.globl	poly_append
	.type	poly_append, @function
poly_append:
.LFB12:
	.loc 1 180 1 is_stmt 1
	.cfi_startproc
.LVL22:
	.loc 1 181 5
	.loc 1 182 5
	.loc 1 184 5
.LBB304:
.LBB305:
	.loc 1 125 5
	.loc 1 127 5
.LBE305:
.LBE304:
	.loc 1 185 11 is_stmt 0
	lbu	a4,8(a0)
.LBB307:
.LBB306:
	.loc 1 127 16
	lw	a5,4(a0)
	.loc 1 127 31
	lhu	a3,2(a0)
.LVL23:
.LBE306:
.LBE307:
	.loc 1 185 5 is_stmt 1
	.loc 1 185 19 is_stmt 0
	addi	a2,a4,1
	.loc 1 185 23
	add	a5,a5,a4
.LVL24:
	.loc 1 185 19
	sb	a2,8(a0)
	.loc 1 185 23
	add	a5,a5,a3
	sb	a1,0(a5)
.LVL25:
	.loc 1 187 5 is_stmt 1
	.loc 1 188 1 is_stmt 0
	li	a0,1
.LVL26:
	ret
	.cfi_endproc
.LFE12:
	.size	poly_append, .-poly_append
	.section	.text.gf_add,"ax",@progbits
	.align	1
	.globl	gf_add
	.type	gf_add, @function
gf_add:
.LFB13:
	.loc 1 192 1 is_stmt 1
	.cfi_startproc
.LVL27:
	.loc 1 193 5
	.loc 1 193 14 is_stmt 0
	add	a0,a0,a1
.LVL28:
	.loc 1 194 1
	andi	a0,a0,0xff
	ret
	.cfi_endproc
.LFE13:
	.size	gf_add, .-gf_add
	.section	.text.gf_sub,"ax",@progbits
	.align	1
	.globl	gf_sub
	.type	gf_sub, @function
gf_sub:
.LFB14:
	.loc 1 197 1 is_stmt 1
	.cfi_startproc
.LVL29:
	.loc 1 198 5
	.loc 1 199 1 is_stmt 0
	xor	a0,a0,a1
.LVL30:
	ret
	.cfi_endproc
.LFE14:
	.size	gf_sub, .-gf_sub
	.section	.text.gf_mul,"ax",@progbits
	.align	1
	.globl	gf_mul
	.type	gf_mul, @function
gf_mul:
.LFB15:
	.loc 1 202 1 is_stmt 1
	.cfi_startproc
.LVL31:
	.loc 1 203 5
	.loc 1 202 1 is_stmt 0
	mv	a3,a0
	.loc 1 204 16
	li	a0,0
.LVL32:
	.loc 1 203 8
	beq	a3,zero,.L15
	.loc 1 203 16 discriminator 1
	beq	a1,zero,.L15
	.loc 1 207 5 is_stmt 1
	.loc 1 207 29 is_stmt 0
	lui	a5,%hi(.LANCHOR1)
	addi	a4,a5,%lo(.LANCHOR1)
	add	a3,a4,a3
	lbu	a3,0(a3)
	.loc 1 207 43
	add	a4,a4,a1
	lbu	a4,0(a4)
	.loc 1 207 20
	lui	a5,%hi(.LANCHOR0)
	addi	a5,a5,%lo(.LANCHOR0)
	add	a5,a5,a3
	add	a5,a5,a4
	lbu	a0,0(a5)
	ret
.L15:
	.loc 1 208 1
	ret
	.cfi_endproc
.LFE15:
	.size	gf_mul, .-gf_mul
	.section	.text.gf_div,"ax",@progbits
	.align	1
	.globl	gf_div
	.type	gf_div, @function
gf_div:
.LFB16:
	.loc 1 211 1 is_stmt 1
	.cfi_startproc
.LVL33:
	.loc 1 212 5
	.loc 1 214 5
	.loc 1 214 8 is_stmt 0
	beq	a0,zero,.L19
.LVL34:
.LBB310:
.LBB311:
	.loc 1 217 5 is_stmt 1
	.loc 1 217 30 is_stmt 0
	lui	a4,%hi(.LANCHOR1)
	addi	a4,a4,%lo(.LANCHOR1)
	add	a0,a4,a0
.LVL35:
	lbu	a5,0(a0)
	.loc 1 217 50
	add	a4,a4,a1
	lbu	a4,0(a4)
	.loc 1 217 34
	addi	a5,a5,255
	.loc 1 217 40
	sub	a5,a5,a4
	.loc 1 217 55
	li	a4,255
	rem	a5,a5,a4
	.loc 1 217 20
	lui	a4,%hi(.LANCHOR0)
	addi	a4,a4,%lo(.LANCHOR0)
	add	a5,a4,a5
	lbu	a0,0(a5)
.LVL36:
.L19:
.LBE311:
.LBE310:
	.loc 1 218 1
	ret
	.cfi_endproc
.LFE16:
	.size	gf_div, .-gf_div
	.globl	__moddi3
	.section	.text.gf_pow,"ax",@progbits
	.align	1
	.globl	gf_pow
	.type	gf_pow, @function
gf_pow:
.LFB17:
	.loc 1 221 1 is_stmt 1
	.cfi_startproc
.LVL37:
	.loc 1 222 5
	.loc 1 222 26 is_stmt 0
	lui	a5,%hi(.LANCHOR1)
	addi	a5,a5,%lo(.LANCHOR1)
	add	a5,a5,a0
	.loc 1 222 14
	lbu	a0,0(a5)
.LVL38:
	.loc 1 224 5 is_stmt 1
	.loc 1 221 1 is_stmt 0
	addi	sp,sp,-16
	.cfi_def_cfa_offset 16
	.loc 1 225 7
	li	a3,0
	.loc 1 224 7
	mul	a5,a2,a0
	.loc 1 225 7
	li	a2,255
	.loc 1 221 1
	sw	ra,12(sp)
	.cfi_offset 1, -4
	.loc 1 224 7
	mulhu	a4,a0,a1
.LVL39:
	.loc 1 225 5 is_stmt 1
	.loc 1 225 7 is_stmt 0
	mul	a0,a0,a1
.LVL40:
	add	a1,a5,a4
.LVL41:
	call	__moddi3
.LVL42:
	.loc 1 227 5 is_stmt 1
	.loc 1 228 11 is_stmt 0
	addi	a4,a0,255
	.loc 1 227 8
	blt	a1,zero,.L24
	mv	a4,a0
.L24:
	.loc 1 231 5 is_stmt 1
	.loc 1 232 1 is_stmt 0
	lw	ra,12(sp)
	.cfi_restore 1
	.loc 1 231 20
	lui	a5,%hi(.LANCHOR0)
	addi	a5,a5,%lo(.LANCHOR0)
	add	a5,a5,a4
	.loc 1 232 1
	lbu	a0,0(a5)
.LVL43:
	addi	sp,sp,16
	.cfi_def_cfa_offset 0
	jr	ra
	.cfi_endproc
.LFE17:
	.size	gf_pow, .-gf_pow
	.section	.text.gf_inverse,"ax",@progbits
	.align	1
	.globl	gf_inverse
	.type	gf_inverse, @function
gf_inverse:
.LFB18:
	.loc 1 235 1 is_stmt 1
	.cfi_startproc
.LVL44:
	.loc 1 236 5
	.loc 1 236 35 is_stmt 0
	lui	a5,%hi(.LANCHOR1)
	addi	a5,a5,%lo(.LANCHOR1)
	add	a5,a5,a0
	lbu	a4,0(a5)
	.loc 1 236 25
	lui	a5,%hi(.LANCHOR0)
	addi	a5,a5,%lo(.LANCHOR0)
	sub	a5,a5,a4
	.loc 1 237 1
	lbu	a0,255(a5)
.LVL45:
	ret
	.cfi_endproc
.LFE18:
	.size	gf_inverse, .-gf_inverse
	.section	.text.poly_scale,"ax",@progbits
	.align	1
	.globl	poly_scale
	.type	poly_scale, @function
poly_scale:
.LFB19:
	.loc 1 241 1 is_stmt 1
	.cfi_startproc
.LVL46:
	.loc 1 242 5
	.loc 1 244 5
	.loc 1 241 1 is_stmt 0
	addi	sp,sp,-32
	.cfi_def_cfa_offset 32
	sw	s0,24(sp)
	sw	s1,20(sp)
	sw	s2,16(sp)
	sw	s3,12(sp)
	sw	ra,28(sp)
	sw	s4,8(sp)
	.cfi_offset 8, -8
	.cfi_offset 9, -12
	.cfi_offset 18, -16
	.cfi_offset 19, -20
	.cfi_offset 1, -4
	.cfi_offset 20, -24
	.loc 1 244 21
	lbu	a5,8(a0)
	.loc 1 241 1
	mv	s0,a0
	mv	s2,a1
	mv	s3,a2
	.loc 1 244 18
	sb	a5,8(a1)
	.loc 1 245 5 is_stmt 1
.LVL47:
	li	s1,0
.LVL48:
.L30:
	.loc 1 245 17 discriminator 1
	.loc 1 245 5 is_stmt 0 discriminator 1
	lbu	a4,8(s0)
	slli	a5,s1,16
	srli	a5,a5,16
	bgtu	a4,a5,.L31
	.loc 1 249 1
	lw	ra,28(sp)
	.cfi_remember_state
	.cfi_restore 1
	lw	s0,24(sp)
	.cfi_restore 8
.LVL49:
	lw	s1,20(sp)
	.cfi_restore 9
.LVL50:
	lw	s2,16(sp)
	.cfi_restore 18
.LVL51:
	lw	s3,12(sp)
	.cfi_restore 19
	lw	s4,8(sp)
	.cfi_restore 20
	addi	sp,sp,32
	.cfi_def_cfa_offset 0
	jr	ra
.LVL52:
.L31:
	.cfi_restore_state
	.loc 1 247 9 is_stmt 1 discriminator 3
.LBB312:
.LBB313:
	.loc 1 148 5 discriminator 3
	.loc 1 150 5 discriminator 3
	.loc 1 152 5 discriminator 3
.LBB314:
.LBB315:
	.loc 1 125 5 discriminator 3
	.loc 1 127 5 discriminator 3
.LBE315:
.LBE314:
	.loc 1 154 5 discriminator 3
.LBE313:
.LBE312:
.LBB319:
.LBB320:
	.loc 1 148 5 discriminator 3
	.loc 1 150 5 discriminator 3
	.loc 1 152 5 discriminator 3
.LBB321:
.LBB322:
	.loc 1 125 5 discriminator 3
	.loc 1 127 5 discriminator 3
.LBE322:
.LBE321:
	.loc 1 154 5 discriminator 3
.LBB324:
.LBB323:
	.loc 1 127 31 is_stmt 0 discriminator 3
	lhu	s4,2(s2)
.LBE323:
.LBE324:
.LBE320:
.LBE319:
.LBB326:
.LBB318:
.LBB317:
.LBB316:
	lhu	a4,2(s0)
.LBE316:
.LBE317:
.LBE318:
.LBE326:
	.loc 1 247 29 discriminator 3
	mv	a1,s3
.LBB327:
.LBB325:
	.loc 1 154 16 discriminator 3
	add	a5,s4,s1
	lw	s4,4(s2)
	add	s4,s4,a5
.LVL53:
.LBE325:
.LBE327:
	.loc 1 247 36 discriminator 3
	lw	a5,4(s0)
	add	a5,a5,s1
	add	a5,a5,a4
	.loc 1 247 29 discriminator 3
	lbu	a0,0(a5)
	addi	s1,s1,1
.LVL54:
	call	gf_mul
.LVL55:
	.loc 1 247 27 discriminator 3
	sb	a0,0(s4)
	.loc 1 245 32 is_stmt 1 discriminator 3
	j	.L30
	.cfi_endproc
.LFE19:
	.size	poly_scale, .-poly_scale
	.section	.text.poly_add,"ax",@progbits
	.align	1
	.globl	poly_add
	.type	poly_add, @function
poly_add:
.LFB20:
	.loc 1 252 1
	.cfi_startproc
.LVL56:
	.loc 1 253 5
	.loc 1 255 5
	.loc 1 252 1 is_stmt 0
	addi	sp,sp,-16
	.cfi_def_cfa_offset 16
	sw	s0,8(sp)
	sw	s1,4(sp)
	sw	s2,0(sp)
	sw	ra,12(sp)
	.cfi_offset 8, -8
	.cfi_offset 9, -12
	.cfi_offset 18, -16
	.cfi_offset 1, -4
	.loc 1 255 61
	lbu	a5,8(a0)
	.loc 1 252 1
	mv	s0,a2
	.loc 1 255 61
	lbu	a2,8(a1)
.LVL57:
	andi	a4,a5,0xff
	.loc 1 252 1
	mv	s2,a0
	.loc 1 255 61
	andi	a3,a2,0xff
	.loc 1 252 1
	mv	s1,a1
	.loc 1 255 61
	bgeu	a3,a4,.L34
	mv	a2,a5
.L34:
.LBB328:
.LBB329:
	.loc 1 127 31
	lhu	a5,2(s0)
	.loc 1 127 26
	lw	a0,4(s0)
.LVL58:
.LBE329:
.LBE328:
	.loc 1 255 18
	sb	a2,8(s0)
	.loc 1 256 5 is_stmt 1
.LVL59:
.LBB331:
.LBB330:
	.loc 1 125 5
	.loc 1 127 5
.LBE330:
.LBE331:
	.loc 1 256 5 is_stmt 0
	li	a1,0
.LVL60:
	add	a0,a0,a5
	andi	a2,a2,0xff
	call	memset
.LVL61:
	.loc 1 258 5 is_stmt 1
	.loc 1 258 12 is_stmt 0
	li	a5,0
.LVL62:
.L35:
	.loc 1 258 17 is_stmt 1 discriminator 1
	.loc 1 258 22 is_stmt 0 discriminator 1
	lbu	a2,8(s2)
	.loc 1 258 5 discriminator 1
	bgtu	a2,a5,.L36
	.loc 1 263 12
	li	a4,0
.LVL63:
.L37:
	.loc 1 263 17 is_stmt 1 discriminator 1
	.loc 1 263 22 is_stmt 0 discriminator 1
	lbu	a3,8(s1)
	.loc 1 263 5 discriminator 1
	bgtu	a3,a4,.L38
	.loc 1 267 1
	lw	ra,12(sp)
	.cfi_remember_state
	.cfi_restore 1
	lw	s0,8(sp)
	.cfi_restore 8
.LVL64:
	lw	s1,4(sp)
	.cfi_restore 9
.LVL65:
	lw	s2,0(sp)
	.cfi_restore 18
.LVL66:
	addi	sp,sp,16
	.cfi_def_cfa_offset 0
	jr	ra
.LVL67:
.L36:
	.cfi_restore_state
	.loc 1 260 9 is_stmt 1
.LBB332:
.LBB333:
	.loc 1 148 5
	.loc 1 150 5
	.loc 1 152 5
.LBB334:
.LBB335:
	.loc 1 125 5
	.loc 1 127 5
.LBE335:
.LBE334:
	.loc 1 154 5
.LBE333:
.LBE332:
.LBB339:
.LBB340:
	.loc 1 148 5
	.loc 1 150 5
	.loc 1 152 5
.LBB341:
.LBB342:
	.loc 1 125 5
	.loc 1 127 5
.LBE342:
.LBE341:
	.loc 1 154 5
.LBE340:
.LBE339:
	.loc 1 260 56 is_stmt 0
	lw	a3,4(s2)
.LBB346:
.LBB338:
.LBB337:
.LBB336:
	.loc 1 127 31
	lhu	a4,2(s2)
.LBE336:
.LBE337:
.LBE338:
.LBE346:
	.loc 1 260 56
	add	a3,a3,a5
	add	a3,a3,a4
	.loc 1 260 10
	lbu	a4,8(s0)
	.loc 1 260 56
	lbu	a1,0(a3)
	.loc 1 260 54
	lw	a3,4(s0)
	.loc 1 260 10
	sub	a4,a4,a2
	add	a4,a5,a4
.LBB347:
.LBB345:
.LBB344:
.LBB343:
	.loc 1 127 31
	lhu	a2,2(s0)
.LBE343:
.LBE344:
	.loc 1 154 16
	andi	a4,a4,0xff
.LBE345:
.LBE347:
	.loc 1 260 54
	add	a4,a3,a4
	add	a4,a4,a2
	.loc 1 258 33
	addi	a5,a5,1
.LVL68:
	.loc 1 260 54
	sb	a1,0(a4)
.LVL69:
	.loc 1 258 32 is_stmt 1
	.loc 1 258 33 is_stmt 0
	andi	a5,a5,0xff
.LVL70:
	j	.L35
.LVL71:
.L38:
	.loc 1 265 9 is_stmt 1
.LBB348:
.LBB349:
	.loc 1 148 5
	.loc 1 150 5
	.loc 1 152 5
.LBB350:
.LBB351:
	.loc 1 125 5
	.loc 1 127 5
.LBE351:
.LBE350:
	.loc 1 154 5
.LBE349:
.LBE348:
.LBB355:
.LBB356:
	.loc 1 148 5
	.loc 1 150 5
	.loc 1 152 5
.LBB357:
.LBB358:
	.loc 1 125 5
	.loc 1 127 5
.LBE358:
.LBE357:
	.loc 1 154 5
.LBE356:
.LBE355:
	.loc 1 265 10 is_stmt 0
	lbu	a5,8(s0)
.LBB363:
.LBB354:
.LBB353:
.LBB352:
	.loc 1 127 31
	lhu	a2,2(s1)
.LBE352:
.LBE353:
.LBE354:
.LBE363:
	.loc 1 265 10
	sub	a5,a5,a3
.LBB364:
.LBB361:
.LBB360:
.LBB359:
	.loc 1 127 31
	lhu	a3,2(s0)
.LVL72:
.LBE359:
.LBE360:
.LBE361:
.LBE364:
	.loc 1 265 10
	add	a5,a4,a5
.LBB365:
.LBB362:
	.loc 1 154 16
	andi	a5,a5,0xff
	add	a5,a5,a3
	lw	a3,4(s0)
	add	a5,a3,a5
.LVL73:
.LBE362:
.LBE365:
	.loc 1 265 57
	lw	a3,4(s1)
	add	a3,a3,a4
	add	a3,a3,a2
	.loc 1 265 54
	lbu	a3,0(a3)
	lbu	a2,0(a5)
	.loc 1 263 33
	addi	a4,a4,1
.LVL74:
	andi	a4,a4,0xff
	.loc 1 265 54
	xor	a3,a3,a2
	sb	a3,0(a5)
.LVL75:
	.loc 1 263 32 is_stmt 1
	j	.L37
	.cfi_endproc
.LFE20:
	.size	poly_add, .-poly_add
	.section	.text.poly_mul,"ax",@progbits
	.align	1
	.globl	poly_mul
	.type	poly_mul, @function
poly_mul:
.LFB21:
	.loc 1 270 1
	.cfi_startproc
.LVL76:
	.loc 1 271 5
	.loc 1 273 5
	.loc 1 270 1 is_stmt 0
	addi	sp,sp,-32
	.cfi_def_cfa_offset 32
	sw	s0,24(sp)
	sw	s1,20(sp)
	sw	s3,12(sp)
	sw	s4,8(sp)
	sw	ra,28(sp)
	sw	s2,16(sp)
	.cfi_offset 8, -8
	.cfi_offset 9, -12
	.cfi_offset 19, -20
	.cfi_offset 20, -24
	.cfi_offset 1, -4
	.cfi_offset 18, -16
	.loc 1 273 42
	lbu	a5,8(a1)
	.loc 1 270 1
	mv	s1,a2
	.loc 1 273 42
	lbu	a2,8(a0)
.LVL77:
	addi	a5,a5,-1
	.loc 1 270 1
	mv	s4,a0
	.loc 1 273 42
	add	a5,a5,a2
	andi	a2,a5,0xff
.LBB366:
.LBB367:
	.loc 1 127 26
	lw	a0,4(s1)
.LVL78:
	.loc 1 127 31
	lhu	a5,2(s1)
.LBE367:
.LBE366:
	.loc 1 270 1
	mv	s3,a1
	.loc 1 273 18
	sb	a2,8(s1)
	.loc 1 274 5 is_stmt 1
.LVL79:
.LBB369:
.LBB368:
	.loc 1 125 5
	.loc 1 127 5
.LBE368:
.LBE369:
	.loc 1 274 5 is_stmt 0
	li	a1,0
.LVL80:
	add	a0,a0,a5
	call	memset
.LVL81:
	.loc 1 277 5 is_stmt 1
	.loc 1 277 12 is_stmt 0
	li	s0,0
.LVL82:
.L41:
	.loc 1 277 17 is_stmt 1 discriminator 1
	.loc 1 277 5 is_stmt 0 discriminator 1
	lbu	a5,8(s3)
	bgtu	a5,s0,.L44
	.loc 1 282 1
	lw	ra,28(sp)
	.cfi_remember_state
	.cfi_restore 1
	lw	s0,24(sp)
	.cfi_restore 8
.LVL83:
	lw	s1,20(sp)
	.cfi_restore 9
.LVL84:
	lw	s2,16(sp)
	.cfi_restore 18
	lw	s3,12(sp)
	.cfi_restore 19
.LVL85:
	lw	s4,8(sp)
	.cfi_restore 20
.LVL86:
	addi	sp,sp,32
	.cfi_def_cfa_offset 0
	jr	ra
.LVL87:
.L42:
	.cfi_restore_state
	.loc 1 279 13 is_stmt 1
.LBB370:
.LBB371:
	.loc 1 148 5
	.loc 1 150 5
	.loc 1 152 5
.LBB372:
.LBB373:
	.loc 1 125 5
	.loc 1 127 5
.LBE373:
.LBE372:
	.loc 1 154 5
.LBE371:
.LBE370:
.LBB377:
.LBB378:
	.loc 1 148 5
	.loc 1 150 5
	.loc 1 152 5
.LBB379:
.LBB380:
	.loc 1 125 5
	.loc 1 127 5
.LBE380:
.LBE379:
	.loc 1 154 5
.LBE378:
.LBE377:
	.loc 1 279 59 is_stmt 0
	lw	a4,4(s3)
.LBB384:
.LBB383:
.LBB382:
.LBB381:
	.loc 1 127 31
	lhu	a5,2(s3)
.LBE381:
.LBE382:
.LBE383:
.LBE384:
.LBB385:
.LBB376:
.LBB375:
.LBB374:
	lhu	a3,2(s4)
.LBE374:
.LBE375:
.LBE376:
.LBE385:
	.loc 1 279 59
	add	a4,a4,s0
	add	a4,a4,a5
	.loc 1 279 43
	lw	a5,4(s4)
	.loc 1 279 36
	lbu	a1,0(a4)
	.loc 1 279 43
	add	a5,a5,s2
	add	a5,a5,a3
	.loc 1 279 36
	lbu	a0,0(a5)
	call	gf_mul
.LVL88:
.LBB386:
.LBB387:
	.loc 1 148 5 is_stmt 1
	.loc 1 150 5
	.loc 1 152 5
.LBB388:
.LBB389:
	.loc 1 125 5
	.loc 1 127 5
.LBE389:
.LBE388:
	.loc 1 154 5
.LBB391:
.LBB390:
	.loc 1 127 31 is_stmt 0
	lhu	a5,2(s1)
.LBE390:
.LBE391:
.LBE387:
.LBE386:
	.loc 1 279 14
	add	a4,s2,s0
.LBB394:
.LBB392:
	.loc 1 154 16
	andi	a4,a4,0xff
	add	a4,a5,a4
	lw	a5,4(s1)
.LBE392:
.LBE394:
	.loc 1 278 37
	addi	s2,s2,1
.LVL89:
	andi	s2,s2,0xff
.LBB395:
.LBB393:
	.loc 1 154 16
	add	a5,a5,a4
.LVL90:
.LBE393:
.LBE395:
	.loc 1 279 33
	lbu	a4,0(a5)
	xor	a0,a0,a4
	sb	a0,0(a5)
.LVL91:
	.loc 1 278 36 is_stmt 1
.L43:
	.loc 1 278 21 discriminator 1
	.loc 1 278 9 is_stmt 0 discriminator 1
	lbu	a5,8(s4)
	bgtu	a5,s2,.L42
	.loc 1 277 32 is_stmt 1 discriminator 2
	.loc 1 277 33 is_stmt 0 discriminator 2
	addi	s0,s0,1
.LVL92:
	andi	s0,s0,0xff
.LVL93:
	j	.L41
.LVL94:
.L44:
	.loc 1 278 16
	li	s2,0
	j	.L43
	.cfi_endproc
.LFE21:
	.size	poly_mul, .-poly_mul
	.section	.text.poly_div,"ax",@progbits
	.align	1
	.globl	poly_div
	.type	poly_div, @function
poly_div:
.LFB22:
	.loc 1 285 1 is_stmt 1
	.cfi_startproc
.LVL95:
	.loc 1 286 5
	.loc 1 287 5
	.loc 1 288 5
	.loc 1 290 5
.LBB396:
.LBB397:
	.loc 1 125 5
	.loc 1 127 5
.LBE397:
.LBE396:
	.loc 1 285 1 is_stmt 0
	addi	sp,sp,-32
	.cfi_def_cfa_offset 32
	sw	s0,24(sp)
	sw	s1,20(sp)
	sw	s3,12(sp)
	sw	ra,28(sp)
	sw	s2,16(sp)
	sw	s4,8(sp)
	sw	s5,4(sp)
	.cfi_offset 8, -8
	.cfi_offset 9, -12
	.cfi_offset 19, -20
	.cfi_offset 1, -4
	.cfi_offset 18, -16
	.cfi_offset 20, -24
	.cfi_offset 21, -28
.LBB401:
.LBB398:
	.loc 1 127 31
	lhu	a5,2(a0)
.LBE398:
.LBE401:
	.loc 1 285 1
	mv	s3,a1
.LBB402:
.LBB399:
	.loc 1 127 26
	lw	a1,4(a0)
.LVL96:
.LBE399:
.LBE402:
	.loc 1 285 1
	mv	s1,a0
.LBB403:
.LBB404:
	.loc 1 127 26
	lw	a0,4(a2)
.LVL97:
.LBE404:
.LBE403:
.LBB407:
.LBB400:
	add	a1,a1,a5
.LVL98:
.LBE400:
.LBE407:
.LBB408:
.LBB405:
	.loc 1 125 5 is_stmt 1
	.loc 1 127 5
	.loc 1 127 31 is_stmt 0
	lhu	a5,2(a2)
.LBE405:
.LBE408:
	.loc 1 285 1
	mv	s0,a2
.LBB409:
.LBB406:
	.loc 1 127 26
	add	a0,a0,a5
.LVL99:
.LBE406:
.LBE409:
	.loc 1 290 8
	beq	a1,a0,.L47
	.loc 1 291 9 is_stmt 1
.LVL100:
	.loc 1 125 5
	.loc 1 127 5
	.loc 1 125 5
	.loc 1 127 5
	.loc 1 291 9 is_stmt 0
	lbu	a2,8(s1)
.LVL101:
	call	memcpy
.LVL102:
.L47:
	.loc 1 294 5 is_stmt 1
	.loc 1 294 21 is_stmt 0
	lbu	a5,8(s1)
	.loc 1 296 12
	li	s4,0
	.loc 1 294 18
	sb	a5,8(s0)
	.loc 1 296 5 is_stmt 1
.LVL103:
.L48:
	.loc 1 296 17 discriminator 1
	.loc 1 296 34 is_stmt 0 discriminator 1
	lbu	a5,8(s3)
	.loc 1 296 23 discriminator 1
	lbu	s2,8(s1)
.LBB410:
.LBB411:
.LBB412:
.LBB413:
	.loc 1 127 31 discriminator 1
	lhu	a0,2(s0)
.LBE413:
.LBE412:
.LBE411:
.LBE410:
	.loc 1 296 42 discriminator 1
	addi	a5,a5,-1
	.loc 1 296 31 discriminator 1
	sub	s2,s2,a5
.LBB420:
.LBB418:
.LBB416:
.LBB414:
	.loc 1 127 16 discriminator 1
	lw	a5,4(s0)
.LBE414:
.LBE416:
.LBE418:
.LBE420:
	.loc 1 296 5 discriminator 1
	bgt	s2,s4,.L53
	.loc 1 307 5 is_stmt 1
.LVL104:
	.loc 1 308 5
.LBB421:
.LBB422:
	.loc 1 125 5
	.loc 1 127 5
.LBE422:
.LBE421:
	.loc 1 125 5
	.loc 1 127 5
	.loc 1 308 54 is_stmt 0
	lbu	a2,8(s0)
	.loc 1 308 43
	add	a1,s2,a0
	.loc 1 308 5
	add	a1,a5,a1
	sub	a2,a2,s2
	add	a0,a5,a0
	call	memmove
.LVL105:
	.loc 1 309 5 is_stmt 1
	.loc 1 309 32 is_stmt 0
	lbu	a5,8(s0)
	.loc 1 310 1
	lw	ra,28(sp)
	.cfi_remember_state
	.cfi_restore 1
	lw	s1,20(sp)
	.cfi_restore 9
.LVL106:
	.loc 1 309 32
	sub	s2,a5,s2
.LVL107:
	.loc 1 309 18
	sb	s2,8(s0)
	.loc 1 310 1
	lw	s0,24(sp)
	.cfi_restore 8
.LVL108:
	lw	s2,16(sp)
	.cfi_restore 18
	lw	s3,12(sp)
	.cfi_restore 19
.LVL109:
	lw	s4,8(sp)
	.cfi_restore 20
.LVL110:
	lw	s5,4(sp)
	.cfi_restore 21
	addi	sp,sp,32
	.cfi_def_cfa_offset 0
	jr	ra
.LVL111:
.L53:
	.cfi_restore_state
	.loc 1 297 9 is_stmt 1
.LBB423:
.LBB419:
	.loc 1 148 5
	.loc 1 150 5
	.loc 1 152 5
.LBB417:
.LBB415:
	.loc 1 125 5
	.loc 1 127 5
.LBE415:
.LBE417:
	.loc 1 154 5
.LBE419:
.LBE423:
	.loc 1 297 14 is_stmt 0
	add	a5,a5,s4
	add	a5,a5,a0
	lbu	a1,0(a5)
.LVL112:
	.loc 1 298 9 is_stmt 1
	.loc 1 298 12 is_stmt 0
	bne	a1,zero,.L54
.LVL113:
.L52:
	.loc 1 296 48 is_stmt 1
	.loc 1 296 49 is_stmt 0
	addi	s4,s4,1
.LVL114:
	j	.L48
.LVL115:
.L51:
.LBB424:
	.loc 1 300 17 is_stmt 1
.LBB425:
.LBB426:
	.loc 1 148 5
	.loc 1 150 5
	.loc 1 152 5
.LBB427:
.LBB428:
	.loc 1 125 5
	.loc 1 127 5
.LBE428:
.LBE427:
	.loc 1 154 5
.LBE426:
.LBE425:
	.loc 1 300 21 is_stmt 0
	lw	a5,4(s3)
.LBB432:
.LBB431:
.LBB430:
.LBB429:
	.loc 1 127 31
	lhu	a4,2(s3)
.LBE429:
.LBE430:
.LBE431:
.LBE432:
	.loc 1 300 21
	add	a5,a5,s2
	add	a5,a5,a4
	lbu	a0,0(a5)
	.loc 1 300 20
	beq	a0,zero,.L50
	.loc 1 301 21 is_stmt 1
.LVL116:
.LBE424:
	.loc 1 148 5
	.loc 1 150 5
	.loc 1 152 5
	.loc 1 125 5
	.loc 1 127 5
	.loc 1 154 5
.LBB439:
	.loc 1 301 44 is_stmt 0
	mv	a1,s5
	call	gf_mul
.LVL117:
.LBB433:
.LBB434:
	.loc 1 148 5 is_stmt 1
	.loc 1 150 5
	.loc 1 152 5
.LBB435:
.LBB436:
	.loc 1 125 5
	.loc 1 127 5
.LBE436:
.LBE435:
	.loc 1 154 5
.LBB438:
.LBB437:
	.loc 1 127 31 is_stmt 0
	lhu	a4,2(s0)
.LBE437:
.LBE438:
	.loc 1 154 16
	add	a5,s2,s4
	andi	a5,a5,0xff
	add	a5,a5,a4
	lw	a4,4(s0)
	add	a5,a4,a5
.LVL118:
.LBE434:
.LBE433:
	.loc 1 301 41
	lbu	a4,0(a5)
	xor	a0,a0,a4
	sb	a0,0(a5)
.LVL119:
.L50:
	.loc 1 299 48 is_stmt 1 discriminator 2
	.loc 1 299 49 is_stmt 0 discriminator 2
	addi	s2,s2,1
.LVL120:
	andi	s2,s2,0xff
.LVL121:
.L49:
	.loc 1 299 33 is_stmt 1 discriminator 1
	.loc 1 299 13 is_stmt 0 discriminator 1
	lbu	a5,8(s3)
	bgtu	a5,s2,.L51
	j	.L52
.LVL122:
.L54:
	.loc 1 301 44
	slli	s5,a1,16
	.loc 1 299 26
	li	s2,1
	.loc 1 301 44
	srli	s5,s5,16
	j	.L49
.LBE439:
	.cfi_endproc
.LFE22:
	.size	poly_div, .-poly_div
	.section	.text.poly_eval,"ax",@progbits
	.align	1
	.globl	poly_eval
	.type	poly_eval, @function
poly_eval:
.LFB23:
	.loc 1 313 1 is_stmt 1
	.cfi_startproc
.LVL123:
	.loc 1 314 5
.LBB440:
.LBB441:
	.loc 1 148 5
	.loc 1 150 5
	.loc 1 152 5
.LBB442:
.LBB443:
	.loc 1 125 5
	.loc 1 127 5
.LBE443:
.LBE442:
	.loc 1 154 5
.LBE441:
.LBE440:
	.loc 1 313 1 is_stmt 0
	addi	sp,sp,-32
	.cfi_def_cfa_offset 32
	sw	s0,24(sp)
.LVL124:
	sw	s2,16(sp)
	sw	ra,28(sp)
	sw	s1,20(sp)
	sw	s3,12(sp)
	.cfi_offset 8, -8
	.cfi_offset 18, -16
	.cfi_offset 1, -4
	.cfi_offset 9, -12
	.cfi_offset 19, -20
.LBB448:
.LBB446:
.LBB445:
.LBB444:
	.loc 1 127 31
	lhu	a4,2(a0)
.LBE444:
.LBE445:
	.loc 1 154 16
	lw	s1,4(a0)
.LBE446:
.LBE448:
	.loc 1 313 1
	mv	a5,a0
.LBB449:
	.loc 1 316 30
	lbu	s3,8(a5)
.LBE449:
.LBB450:
.LBB447:
	.loc 1 154 16
	add	s1,s1,a4
.LVL125:
.LBE447:
.LBE450:
	.loc 1 314 13
	lbu	a0,0(s1)
.LVL126:
	.loc 1 316 5 is_stmt 1
.LBB451:
	.loc 1 316 10
.LBE451:
	.loc 1 313 1 is_stmt 0
	mv	s2,a1
.LBB452:
	.loc 1 316 5
	li	s0,0
.LVL127:
.L60:
	.loc 1 316 25 is_stmt 1 discriminator 1
	.loc 1 316 5 is_stmt 0 discriminator 1
	addi	s0,s0,1
.LVL128:
	andi	a5,s0,0xff
	bgtu	s3,a5,.L61
.LBE452:
	.loc 1 320 5 is_stmt 1
	.loc 1 321 1 is_stmt 0
	lw	ra,28(sp)
	.cfi_remember_state
	.cfi_restore 1
	lw	s0,24(sp)
	.cfi_restore 8
	slli	a0,a0,24
.LVL129:
	lw	s1,20(sp)
	.cfi_restore 9
	lw	s2,16(sp)
	.cfi_restore 18
	lw	s3,12(sp)
	.cfi_restore 19
	srai	a0,a0,24
	addi	sp,sp,32
	.cfi_def_cfa_offset 0
	jr	ra
.LVL130:
.L61:
	.cfi_restore_state
.LBB453:
	.loc 1 318 9 is_stmt 1 discriminator 3
	.loc 1 318 13 is_stmt 0 discriminator 3
	mv	a1,s2
	call	gf_mul
.LVL131:
.LBE453:
	.loc 1 148 5 is_stmt 1 discriminator 3
	.loc 1 150 5 discriminator 3
	.loc 1 152 5 discriminator 3
	.loc 1 125 5 discriminator 3
	.loc 1 127 5 discriminator 3
	.loc 1 154 5 discriminator 3
.LBB454:
	.loc 1 318 29 is_stmt 0 discriminator 3
	add	a5,s1,s0
	.loc 1 318 11 discriminator 3
	lbu	a5,0(a5)
	xor	a0,a0,a5
	andi	a0,a0,0xff
.LVL132:
	.loc 1 316 40 is_stmt 1 discriminator 3
	j	.L60
.LBE454:
	.cfi_endproc
.LFE23:
	.size	poly_eval, .-poly_eval
	.section	.text.generator_poly,"ax",@progbits
	.align	1
	.globl	generator_poly
	.type	generator_poly, @function
generator_poly:
.LFB24:
	.loc 1 325 1
	.cfi_startproc
.LVL133:
	.loc 1 326 5
	.loc 1 327 5
	.loc 1 325 1 is_stmt 0
	addi	sp,sp,-48
	.cfi_def_cfa_offset 48
	sw	s0,40(sp)
	sw	s1,36(sp)
	sw	s2,32(sp)
	sw	s4,24(sp)
	sw	s5,20(sp)
	sw	s6,16(sp)
	sw	s7,12(sp)
	sw	s8,8(sp)
	sw	ra,44(sp)
	sw	s3,28(sp)
	.cfi_offset 8, -8
	.cfi_offset 9, -12
	.cfi_offset 18, -16
	.cfi_offset 20, -24
	.cfi_offset 21, -28
	.cfi_offset 22, -32
	.cfi_offset 23, -36
	.cfi_offset 24, -40
	.cfi_offset 1, -4
	.cfi_offset 19, -20
.LBB455:
.LBB456:
.LBB457:
.LBB458:
	.loc 1 127 31
	lhu	a4,26(a0)
.LBE458:
.LBE457:
.LBE456:
.LBE455:
	.loc 1 331 22
	lw	a5,28(a0)
	.loc 1 325 1
	mv	s0,a0
	.loc 1 327 15
	addi	s4,a0,24
.LVL134:
	.loc 1 328 5 is_stmt 1
	.loc 1 331 22 is_stmt 0
	add	a5,a5,a4
	li	a4,1
	sb	a4,0(a5)
	.loc 1 334 18
	li	a5,2
	.loc 1 328 15
	addi	s6,a0,36
.LVL135:
	.loc 1 329 5 is_stmt 1
	.loc 1 329 15 is_stmt 0
	addi	s5,a0,48
.LVL136:
	.loc 1 331 5 is_stmt 1
.LBB462:
.LBB461:
	.loc 1 148 5
	.loc 1 150 5
	.loc 1 152 5
.LBB460:
.LBB459:
	.loc 1 125 5
	.loc 1 127 5
.LBE459:
.LBE460:
	.loc 1 154 5
.LBE461:
.LBE462:
	.loc 1 332 5
	.loc 1 332 17 is_stmt 0
	sb	a4,32(a0)
	.loc 1 334 5 is_stmt 1
	.loc 1 334 18 is_stmt 0
	sb	a5,44(a0)
	.loc 1 336 5 is_stmt 1
.LVL137:
	.loc 1 336 17
	.loc 1 334 18 is_stmt 0
	li	s1,0
	li	s2,0
	.loc 1 338 27
	li	s7,1
	.loc 1 336 5
	li	s8,126
.LVL138:
.L65:
	.loc 1 338 9 is_stmt 1
.LBB463:
.LBB464:
	.loc 1 148 5
	.loc 1 150 5
	.loc 1 152 5
.LBB465:
.LBB466:
	.loc 1 125 5
	.loc 1 127 5
.LBE466:
.LBE465:
	.loc 1 154 5
.LBB468:
.LBB467:
	.loc 1 127 31 is_stmt 0
	lhu	a4,38(s0)
.LBE467:
.LBE468:
.LBE464:
.LBE463:
	.loc 1 338 27
	lw	a5,40(s0)
	.loc 1 339 29
	mv	a1,s1
	mv	a2,s2
	.loc 1 338 27
	add	a5,a5,a4
.LVL139:
	sb	s7,0(a5)
	.loc 1 339 9 is_stmt 1
.LVL140:
.LBB469:
.LBB470:
	.loc 1 148 5
	.loc 1 150 5
	.loc 1 152 5
.LBB471:
.LBB472:
	.loc 1 125 5
	.loc 1 127 5
.LBE472:
.LBE471:
	.loc 1 154 5
.LBB474:
.LBB473:
	.loc 1 127 31 is_stmt 0
	lhu	s3,38(s0)
.LBE473:
.LBE474:
.LBE470:
.LBE469:
	.loc 1 339 29
	li	a0,2
.LBB476:
.LBB475:
	.loc 1 154 16
	addi	a5,s3,1
.LVL141:
	lw	s3,40(s0)
	add	s3,s3,a5
.LVL142:
.LBE475:
.LBE476:
	.loc 1 339 29
	call	gf_pow
.LVL143:
	.loc 1 339 27
	sb	a0,0(s3)
	.loc 1 341 9 is_stmt 1
	mv	a2,s5
	mv	a1,s6
	mv	a0,s4
	call	poly_mul
.LVL144:
	.loc 1 342 9
	mv	a1,s5
	mv	a0,s4
	call	poly_copy
.LVL145:
	.loc 1 336 26
	.loc 1 336 17
	.loc 1 336 5 is_stmt 0
	addi	a5,s1,1
	sltu	a4,a5,s1
	add	s2,a4,s2
	mv	s1,a5
.LVL146:
	bne	a5,s8,.L65
	bne	s2,zero,.L65
	.loc 1 344 1
	lw	ra,44(sp)
	.cfi_restore 1
	lw	s0,40(sp)
	.cfi_restore 8
.LVL147:
	lw	s1,36(sp)
	.cfi_restore 9
	lw	s2,32(sp)
	.cfi_restore 18
	lw	s3,28(sp)
	.cfi_restore 19
	lw	s4,24(sp)
	.cfi_restore 20
.LVL148:
	lw	s5,20(sp)
	.cfi_restore 21
.LVL149:
	lw	s6,16(sp)
	.cfi_restore 22
.LVL150:
	lw	s7,12(sp)
	.cfi_restore 23
	lw	s8,8(sp)
	.cfi_restore 24
	addi	sp,sp,48
	.cfi_def_cfa_offset 0
	jr	ra
	.cfi_endproc
.LFE24:
	.size	generator_poly, .-generator_poly
	.section	.text.calc_syndromes,"ax",@progbits
	.align	1
	.globl	calc_syndromes
	.type	calc_syndromes, @function
calc_syndromes:
.LFB25:
	.loc 1 347 1 is_stmt 1
	.cfi_startproc
.LVL151:
	.loc 1 348 5
	.loc 1 349 5
	.loc 1 351 5
	.loc 1 347 1 is_stmt 0
	addi	sp,sp,-32
	.cfi_def_cfa_offset 32
	sw	s0,24(sp)
	sw	s1,20(sp)
	sw	s2,16(sp)
	sw	s3,12(sp)
	sw	s4,8(sp)
	sw	ra,28(sp)
	.cfi_offset 8, -8
	.cfi_offset 9, -12
	.cfi_offset 18, -16
	.cfi_offset 19, -20
	.cfi_offset 20, -24
	.cfi_offset 1, -4
	.loc 1 351 18
	li	a5,127
.LBB477:
.LBB478:
.LBB479:
.LBB480:
	.loc 1 127 31
	lhu	a4,98(a0)
.LBE480:
.LBE479:
.LBE478:
.LBE477:
	.loc 1 351 18
	sb	a5,104(a0)
	.loc 1 352 5 is_stmt 1
.LVL152:
.LBB484:
.LBB483:
	.loc 1 148 5
	.loc 1 150 5
	.loc 1 152 5
.LBB482:
.LBB481:
	.loc 1 125 5
	.loc 1 127 5
.LBE481:
.LBE482:
	.loc 1 154 5
.LBE483:
.LBE484:
	.loc 1 352 23 is_stmt 0
	lw	a5,100(a0)
	.loc 1 347 1
	mv	s0,a0
	mv	s3,a1
	.loc 1 352 23
	add	a5,a5,a4
.LVL153:
	sb	zero,0(a5)
	.loc 1 354 5 is_stmt 1
.LVL154:
	.loc 1 354 17
	.loc 1 352 23 is_stmt 0
	li	s1,0
	li	s2,0
	.loc 1 354 5
	li	s4,126
.LVL155:
.L69:
	.loc 1 356 9 is_stmt 1 discriminator 3
	.loc 1 356 44 is_stmt 0 discriminator 3
	mv	a1,s1
	mv	a2,s2
	li	a0,2
	call	gf_pow
.LVL156:
	.loc 1 356 29 discriminator 3
	slli	a1,a0,16
	srli	a1,a1,16
	mv	a0,s3
	call	poly_eval
.LVL157:
.LBB485:
.LBB486:
	.loc 1 148 5 is_stmt 1 discriminator 3
	.loc 1 150 5 discriminator 3
	.loc 1 152 5 discriminator 3
.LBB487:
.LBB488:
	.loc 1 125 5 discriminator 3
	.loc 1 127 5 discriminator 3
.LBE488:
.LBE487:
	.loc 1 154 5 discriminator 3
.LBB490:
.LBB489:
	.loc 1 127 31 is_stmt 0 discriminator 3
	lhu	a4,98(s0)
.LBE489:
.LBE490:
.LBE486:
.LBE485:
	.loc 1 356 27 discriminator 3
	lw	a5,100(s0)
	add	a5,a5,a4
.LVL158:
	add	a5,a5,s1
.LVL159:
	sb	a0,1(a5)
.LVL160:
	.loc 1 354 30 is_stmt 1 discriminator 3
	.loc 1 354 17 discriminator 3
	.loc 1 354 5 is_stmt 0 discriminator 3
	addi	a5,s1,1
	sltu	a4,a5,s1
	add	s2,a4,s2
	mv	s1,a5
.LVL161:
	bne	a5,s4,.L69
	bne	s2,zero,.L69
	.loc 1 358 1
	lw	ra,28(sp)
	.cfi_restore 1
	lw	s0,24(sp)
	.cfi_restore 8
.LVL162:
	lw	s1,20(sp)
	.cfi_restore 9
	lw	s2,16(sp)
	.cfi_restore 18
	lw	s3,12(sp)
	.cfi_restore 19
.LVL163:
	lw	s4,8(sp)
	.cfi_restore 20
	addi	sp,sp,32
	.cfi_def_cfa_offset 0
	jr	ra
	.cfi_endproc
.LFE25:
	.size	calc_syndromes, .-calc_syndromes
	.section	.text.find_errata_locator,"ax",@progbits
	.align	1
	.globl	find_errata_locator
	.type	find_errata_locator, @function
find_errata_locator:
.LFB26:
	.loc 1 361 1 is_stmt 1
	.cfi_startproc
.LVL164:
	.loc 1 362 5
	.loc 1 361 1 is_stmt 0
	addi	sp,sp,-48
	.cfi_def_cfa_offset 48
	sw	s0,40(sp)
	sw	s1,36(sp)
	sw	s2,32(sp)
	sw	s3,28(sp)
	sw	s4,24(sp)
	sw	s5,20(sp)
	sw	s6,16(sp)
	sw	s7,12(sp)
	sw	s9,4(sp)
	sw	ra,44(sp)
	sw	s8,8(sp)
	.cfi_offset 8, -8
	.cfi_offset 9, -12
	.cfi_offset 18, -16
	.cfi_offset 19, -20
	.cfi_offset 20, -24
	.cfi_offset 21, -28
	.cfi_offset 22, -32
	.cfi_offset 23, -36
	.cfi_offset 25, -44
	.cfi_offset 1, -4
	.cfi_offset 24, -40
.LBB491:
.LBB492:
.LBB493:
.LBB494:
	.loc 1 127 31
	lhu	a3,122(a0)
.LBE494:
.LBE493:
.LBE492:
.LBE491:
	.loc 1 369 29
	lw	a4,124(a0)
	.loc 1 368 24
	li	a5,1
	sb	a5,128(a0)
	.loc 1 369 29
	add	a4,a4,a3
	sb	a5,0(a4)
	.loc 1 371 18
	sb	a5,44(a0)
	.loc 1 372 18
	li	a5,2
	.loc 1 361 1
	mv	s0,a0
	mv	s2,a1
	.loc 1 362 15
	addi	s3,a0,120
.LVL165:
	.loc 1 363 5 is_stmt 1
	.loc 1 363 15 is_stmt 0
	addi	s6,a0,36
.LVL166:
	.loc 1 364 5 is_stmt 1
	.loc 1 364 15 is_stmt 0
	addi	s7,a0,48
.LVL167:
	.loc 1 365 5 is_stmt 1
	.loc 1 365 15 is_stmt 0
	addi	s4,a0,72
.LVL168:
	.loc 1 366 5 is_stmt 1
	.loc 1 366 15 is_stmt 0
	addi	s5,a0,84
.LVL169:
	.loc 1 368 5 is_stmt 1
	.loc 1 369 5
.LBB498:
.LBB497:
	.loc 1 148 5
	.loc 1 150 5
	.loc 1 152 5
.LBB496:
.LBB495:
	.loc 1 125 5
	.loc 1 127 5
.LBE495:
.LBE496:
	.loc 1 154 5
.LBE497:
.LBE498:
	.loc 1 371 5
	.loc 1 372 5
	.loc 1 372 18 is_stmt 0
	sb	a5,56(a0)
	.loc 1 374 5 is_stmt 1
.LBB499:
	.loc 1 374 10
.LVL170:
	.loc 1 374 18 is_stmt 0
	li	s1,0
	.loc 1 376 27
	li	s9,1
.LVL171:
.L72:
	.loc 1 374 25 is_stmt 1 discriminator 1
	.loc 1 374 5 is_stmt 0 discriminator 1
	lbu	a5,8(s2)
	bgtu	a5,s1,.L73
.LBE499:
	.loc 1 385 1
	lw	ra,44(sp)
	.cfi_remember_state
	.cfi_restore 1
	lw	s0,40(sp)
	.cfi_restore 8
.LVL172:
	lw	s1,36(sp)
	.cfi_restore 9
.LVL173:
	lw	s2,32(sp)
	.cfi_restore 18
.LVL174:
	lw	s3,28(sp)
	.cfi_restore 19
.LVL175:
	lw	s4,24(sp)
	.cfi_restore 20
.LVL176:
	lw	s5,20(sp)
	.cfi_restore 21
.LVL177:
	lw	s6,16(sp)
	.cfi_restore 22
.LVL178:
	lw	s7,12(sp)
	.cfi_restore 23
.LVL179:
	lw	s8,8(sp)
	.cfi_restore 24
	lw	s9,4(sp)
	.cfi_restore 25
	addi	sp,sp,48
	.cfi_def_cfa_offset 0
	jr	ra
.LVL180:
.L73:
	.cfi_restore_state
.LBB528:
	.loc 1 376 9 is_stmt 1
.LBB500:
.LBB501:
	.loc 1 148 5
	.loc 1 150 5
	.loc 1 152 5
.LBB502:
.LBB503:
	.loc 1 125 5
	.loc 1 127 5
.LBE503:
.LBE502:
	.loc 1 154 5
.LBB505:
.LBB504:
	.loc 1 127 31 is_stmt 0
	lhu	a4,38(s0)
.LBE504:
.LBE505:
.LBE501:
.LBE500:
	.loc 1 376 27
	lw	a5,40(s0)
	.loc 1 377 29
	li	a2,0
	li	a0,2
	.loc 1 376 27
	add	a5,a5,a4
.LVL181:
	sb	s9,0(a5)
	.loc 1 377 9 is_stmt 1
.LVL182:
.LBB506:
.LBB507:
	.loc 1 148 5
	.loc 1 150 5
	.loc 1 152 5
.LBB508:
.LBB509:
	.loc 1 125 5
	.loc 1 127 5
.LBE509:
.LBE508:
	.loc 1 154 5
.LBE507:
.LBE506:
.LBB513:
.LBB514:
	.loc 1 148 5
	.loc 1 150 5
	.loc 1 152 5
.LBB515:
.LBB516:
	.loc 1 125 5
	.loc 1 127 5
.LBE516:
.LBE515:
	.loc 1 154 5
.LBB518:
.LBB517:
	.loc 1 127 31 is_stmt 0
	lhu	a5,50(s0)
.LVL183:
.LBE517:
.LBE518:
	.loc 1 154 16
	lw	s8,52(s0)
.LBE514:
.LBE513:
.LBB520:
.LBB512:
.LBB511:
.LBB510:
	.loc 1 127 31
	lhu	a4,2(s2)
.LBE510:
.LBE511:
.LBE512:
.LBE520:
.LBB521:
.LBB519:
	.loc 1 154 16
	add	s8,s8,a5
.LVL184:
.LBE519:
.LBE521:
	.loc 1 377 39
	lw	a5,4(s2)
	add	a5,a5,s1
	add	a5,a5,a4
	.loc 1 377 29
	lbu	a1,0(a5)
	.loc 1 374 44
	addi	s1,s1,1
.LVL185:
	andi	s1,s1,0xff
	.loc 1 377 29
	call	gf_pow
.LVL186:
	.loc 1 377 27
	sb	a0,0(s8)
	.loc 1 378 9 is_stmt 1
.LVL187:
.LBB522:
.LBB523:
	.loc 1 148 5
	.loc 1 150 5
	.loc 1 152 5
.LBB524:
.LBB525:
	.loc 1 125 5
	.loc 1 127 5
.LBE525:
.LBE524:
	.loc 1 154 5
.LBB527:
.LBB526:
	.loc 1 127 31 is_stmt 0
	lhu	a4,50(s0)
.LBE526:
.LBE527:
.LBE523:
.LBE522:
	.loc 1 378 27
	lw	a5,52(s0)
	.loc 1 380 9
	mv	a2,s4
	mv	a1,s7
	.loc 1 378 27
	add	a5,a5,a4
.LVL188:
	sb	zero,1(a5)
	.loc 1 380 9 is_stmt 1
	mv	a0,s6
	call	poly_add
.LVL189:
	.loc 1 381 9
	mv	a2,s5
	mv	a1,s4
	mv	a0,s3
	call	poly_mul
.LVL190:
	.loc 1 383 9
	mv	a1,s5
	mv	a0,s3
	call	poly_copy
.LVL191:
	.loc 1 374 43
	j	.L72
.LBE528:
	.cfi_endproc
.LFE26:
	.size	find_errata_locator, .-find_errata_locator
	.section	.text.find_error_evaluator,"ax",@progbits
	.align	1
	.globl	find_error_evaluator
	.type	find_error_evaluator, @function
find_error_evaluator:
.LFB27:
	.loc 1 388 1
	.cfi_startproc
.LVL192:
	.loc 1 389 5
	.loc 1 388 1 is_stmt 0
	addi	sp,sp,-48
	.cfi_def_cfa_offset 48
	sw	s0,40(sp)
	.cfi_offset 8, -8
	mv	s0,a0
	sw	s3,28(sp)
	.cfi_offset 19, -20
	.loc 1 389 15
	addi	s3,s0,36
.LVL193:
	.loc 1 390 5 is_stmt 1
	.loc 1 388 1 is_stmt 0
	mv	a0,a1
.LVL194:
	mv	a1,a2
.LVL195:
	.loc 1 390 5
	mv	a2,s3
.LVL196:
	.loc 1 388 1
	sw	ra,44(sp)
	sw	s1,36(sp)
	sw	s2,32(sp)
	.cfi_offset 1, -4
	.cfi_offset 9, -12
	.cfi_offset 18, -16
	.loc 1 388 1
	mv	s1,a4
	mv	s2,a3
	.loc 1 390 5
	call	poly_mul
.LVL197:
	.loc 1 392 5 is_stmt 1
	.loc 1 392 15 is_stmt 0
	addi	a1,s0,48
.LVL198:
	.loc 1 393 5 is_stmt 1
	.loc 1 393 30 is_stmt 0
	addi	s1,s1,2
	.loc 1 393 21
	sb	s1,56(s0)
	.loc 1 395 5 is_stmt 1
	mv	a0,a1
	sw	a1,12(sp)
	call	poly_reset
.LVL199:
	.loc 1 396 5
.LBB529:
.LBB530:
	.loc 1 148 5
	.loc 1 150 5
	.loc 1 152 5
.LBB531:
.LBB532:
	.loc 1 125 5
	.loc 1 127 5
.LBE532:
.LBE531:
	.loc 1 154 5
.LBB534:
.LBB533:
	.loc 1 127 31 is_stmt 0
	lhu	a4,50(s0)
.LBE533:
.LBE534:
.LBE530:
.LBE529:
	.loc 1 396 26
	lw	a5,52(s0)
	.loc 1 398 5
	lw	a1,12(sp)
	mv	a2,s2
	.loc 1 396 26
	add	a5,a5,a4
.LVL200:
	li	a4,1
	sb	a4,0(a5)
	.loc 1 398 5 is_stmt 1
	.loc 1 399 1 is_stmt 0
	lw	s0,40(sp)
	.cfi_restore 8
.LVL201:
	lw	ra,44(sp)
	.cfi_restore 1
	lw	s1,36(sp)
	.cfi_restore 9
	lw	s2,32(sp)
	.cfi_restore 18
.LVL202:
	.loc 1 398 5
	mv	a0,s3
	.loc 1 399 1
	lw	s3,28(sp)
	.cfi_restore 19
.LVL203:
	addi	sp,sp,48
	.cfi_def_cfa_offset 0
.LVL204:
	.loc 1 398 5
	tail	poly_div
.LVL205:
	.cfi_endproc
.LFE27:
	.size	find_error_evaluator, .-find_error_evaluator
	.section	.text.correct_errata,"ax",@progbits
	.align	1
	.globl	correct_errata
	.type	correct_errata, @function
correct_errata:
.LFB28:
	.loc 1 402 1 is_stmt 1
	.cfi_startproc
.LVL206:
	.loc 1 403 5
	.loc 1 404 5
	.loc 1 405 5
	.loc 1 406 5
	.loc 1 407 5
	.loc 1 408 5
	.loc 1 409 5
	.loc 1 411 5
	.loc 1 402 1 is_stmt 0
	addi	sp,sp,-80
	.cfi_def_cfa_offset 80
	sw	s2,64(sp)
	.cfi_offset 18, -16
	mv	s2,a2
	.loc 1 421 28
	lbu	a5,8(s2)
	.loc 1 402 1
	sw	s0,72(sp)
	sw	s1,68(sp)
	sw	s3,60(sp)
	sw	s4,56(sp)
	sw	s5,52(sp)
	sw	s6,48(sp)
	sw	s7,44(sp)
	sw	s8,40(sp)
	sw	s9,36(sp)
	sw	ra,76(sp)
	sw	s10,32(sp)
	sw	s11,28(sp)
	.cfi_offset 8, -8
	.cfi_offset 9, -12
	.cfi_offset 19, -20
	.cfi_offset 20, -24
	.cfi_offset 21, -28
	.cfi_offset 22, -32
	.cfi_offset 23, -36
	.cfi_offset 24, -40
	.cfi_offset 25, -44
	.cfi_offset 1, -4
	.cfi_offset 26, -48
	.cfi_offset 27, -52
	.loc 1 402 1
	mv	s3,a1
	.loc 1 421 19
	sb	a5,176(a0)
	.loc 1 402 1
	mv	s0,a0
	mv	s4,a3
	.loc 1 411 15
	addi	a1,a0,168
.LVL207:
	.loc 1 412 5 is_stmt 1
	.loc 1 412 15 is_stmt 0
	addi	s7,a0,12
.LVL208:
	.loc 1 413 5 is_stmt 1
	.loc 1 413 15 is_stmt 0
	addi	a2,a0,120
.LVL209:
	.loc 1 414 5 is_stmt 1
	.loc 1 414 15 is_stmt 0
	addi	s9,a0,72
.LVL210:
	.loc 1 415 5 is_stmt 1
	.loc 1 415 15 is_stmt 0
	addi	s6,a0,84
.LVL211:
	.loc 1 416 5 is_stmt 1
	.loc 1 417 5
	.loc 1 417 15 is_stmt 0
	addi	s1,a0,36
.LVL212:
	.loc 1 418 5 is_stmt 1
	.loc 1 418 15 is_stmt 0
	addi	s5,a0,60
.LVL213:
	.loc 1 419 5 is_stmt 1
	.loc 1 419 15 is_stmt 0
	addi	s8,a0,48
.LVL214:
	.loc 1 421 5 is_stmt 1
	.loc 1 423 5
	.loc 1 423 12 is_stmt 0
	li	a5,0
.LVL215:
.L78:
	.loc 1 423 17 is_stmt 1 discriminator 1
	.loc 1 423 5 is_stmt 0 discriminator 1
	lbu	a4,8(s2)
	bgtu	a4,a5,.L79
	.loc 1 427 5
	mv	a0,s0
	sw	a2,12(sp)
	.loc 1 427 5 is_stmt 1
	call	find_errata_locator
.LVL216:
	.loc 1 431 5
	.loc 1 431 25 is_stmt 0
	lbu	a5,8(s3)
	.loc 1 433 5
	lw	a2,12(sp)
	li	a4,0
	.loc 1 431 19
	sb	a5,80(s0)
	.loc 1 433 5 is_stmt 1
	.loc 1 433 28 is_stmt 0
	addi	a5,a5,-1
	andi	a1,a5,0xff
	.loc 1 433 14
	slli	a5,a5,24
	srai	a5,a5,24
.LVL217:
.L80:
	.loc 1 433 39 is_stmt 1 discriminator 1
	.loc 1 433 5 is_stmt 0 discriminator 1
	sub	a3,a1,a4
	slli	a3,a3,24
	srai	a3,a3,24
	bge	a3,zero,.L81
	.loc 1 441 5 is_stmt 1
	lbu	a4,128(s0)
.LVL218:
	mv	a3,s6
	mv	a1,s9
	addi	a4,a4,-1
	andi	a4,a4,0xff
	mv	a0,s0
	call	find_error_evaluator
.LVL219:
	.loc 1 444 5
	.loc 1 444 29 is_stmt 0
	lbu	a5,92(s0)
	.loc 1 445 5
	li	a4,0
	.loc 1 444 20
	sb	a5,188(s0)
	.loc 1 445 5 is_stmt 1
	.loc 1 445 31 is_stmt 0
	addi	a5,a5,-1
	andi	a2,a5,0xff
	.loc 1 445 14
	slli	a5,a5,24
	srai	a5,a5,24
.LVL220:
.L82:
	.loc 1 445 42 is_stmt 1 discriminator 1
	.loc 1 445 5 is_stmt 0 discriminator 1
	sub	a3,a2,a4
	slli	a3,a3,24
	srai	a3,a3,24
	bge	a3,zero,.L83
	.loc 1 451 5 is_stmt 1
	.loc 1 451 15 is_stmt 0
	sb	zero,44(s0)
	.loc 1 453 5 is_stmt 1
.LVL221:
	.loc 1 453 12 is_stmt 0
	li	s3,0
.LVL222:
	.loc 1 455 17
	li	s9,255
.LVL223:
.L84:
	.loc 1 453 17 is_stmt 1 discriminator 1
	.loc 1 453 5 is_stmt 0 discriminator 1
	lbu	a5,176(s0)
	bgtu	a5,s3,.L85
	.loc 1 461 5 is_stmt 1
	mv	a0,s5
	call	poly_reset
.LVL224:
	.loc 1 462 5
	.loc 1 462 23 is_stmt 0
	lbu	a5,8(s4)
	.loc 1 465 12
	li	s1,0
.LVL225:
	.loc 1 462 15
	sb	a5,68(s0)
	.loc 1 465 5 is_stmt 1
.LVL226:
.L86:
	.loc 1 465 17 discriminator 1
	.loc 1 465 5 is_stmt 0 discriminator 1
	lbu	a5,44(s0)
	bgtu	a5,s1,.L92
	.loc 1 486 5 is_stmt 1
	.loc 1 487 1 is_stmt 0
	lw	s0,72(sp)
	.cfi_remember_state
	.cfi_restore 8
.LVL227:
	lw	ra,76(sp)
	.cfi_restore 1
	lw	s1,68(sp)
	.cfi_restore 9
.LVL228:
	lw	s2,64(sp)
	.cfi_restore 18
.LVL229:
	lw	s3,60(sp)
	.cfi_restore 19
	lw	s6,48(sp)
	.cfi_restore 22
.LVL230:
	lw	s8,40(sp)
	.cfi_restore 24
.LVL231:
	lw	s9,36(sp)
	.cfi_restore 25
	lw	s10,32(sp)
	.cfi_restore 26
	lw	s11,28(sp)
	.cfi_restore 27
	.loc 1 486 5
	mv	a2,s7
	mv	a1,s5
	.loc 1 487 1
	lw	s7,44(sp)
	.cfi_restore 23
.LVL232:
	lw	s5,52(sp)
	.cfi_restore 21
.LVL233:
	.loc 1 486 5
	mv	a0,s4
	.loc 1 487 1
	lw	s4,56(sp)
	.cfi_restore 20
.LVL234:
	addi	sp,sp,80
	.cfi_def_cfa_offset 0
.LVL235:
	.loc 1 486 5
	tail	poly_add
.LVL236:
.L79:
	.cfi_restore_state
	.loc 1 424 9 is_stmt 1 discriminator 3
.LBB535:
.LBB536:
	.loc 1 148 5 discriminator 3
	.loc 1 150 5 discriminator 3
	.loc 1 152 5 discriminator 3
.LBB537:
.LBB538:
	.loc 1 125 5 discriminator 3
	.loc 1 127 5 discriminator 3
.LBE538:
.LBE537:
	.loc 1 154 5 discriminator 3
.LBE536:
.LBE535:
.LBB542:
.LBB543:
	.loc 1 148 5 discriminator 3
	.loc 1 150 5 discriminator 3
	.loc 1 152 5 discriminator 3
.LBB544:
.LBB545:
	.loc 1 125 5 discriminator 3
	.loc 1 127 5 discriminator 3
.LBE545:
.LBE544:
	.loc 1 154 5 discriminator 3
.LBE543:
.LBE542:
	.loc 1 424 28 is_stmt 0 discriminator 3
	lw	a4,172(s0)
	.loc 1 424 51 discriminator 3
	lw	a0,4(s2)
.LBB549:
.LBB548:
.LBB547:
.LBB546:
	.loc 1 127 31 discriminator 3
	lhu	a3,170(s0)
.LBE546:
.LBE547:
.LBE548:
.LBE549:
.LBB550:
.LBB541:
.LBB540:
.LBB539:
	lhu	a6,2(s2)
.LBE539:
.LBE540:
.LBE541:
.LBE550:
	.loc 1 424 28 discriminator 3
	add	a4,a4,a5
	.loc 1 424 51 discriminator 3
	add	a0,a0,a5
	.loc 1 424 28 discriminator 3
	add	a4,a4,a3
	.loc 1 424 51 discriminator 3
	add	a0,a0,a6
	.loc 1 424 49 discriminator 3
	lbu	a3,8(s4)
	lbu	a0,0(a0)
	.loc 1 423 39 discriminator 3
	addi	a5,a5,1
.LVL237:
	.loc 1 424 49 discriminator 3
	addi	a3,a3,-1
	sub	a3,a3,a0
	.loc 1 424 28 discriminator 3
	sb	a3,0(a4)
.LVL238:
	.loc 1 423 38 is_stmt 1 discriminator 3
	.loc 1 423 39 is_stmt 0 discriminator 3
	andi	a5,a5,0xff
.LVL239:
	j	.L78
.LVL240:
.L81:
	.loc 1 435 9 is_stmt 1 discriminator 3
.LBB551:
.LBB552:
	.loc 1 148 5 discriminator 3
	.loc 1 150 5 discriminator 3
	.loc 1 152 5 discriminator 3
.LBB553:
.LBB554:
	.loc 1 125 5 discriminator 3
	.loc 1 127 5 discriminator 3
.LBE554:
.LBE553:
	.loc 1 154 5 discriminator 3
.LBE552:
.LBE551:
.LBB559:
.LBB560:
	.loc 1 148 5 discriminator 3
	.loc 1 150 5 discriminator 3
	.loc 1 152 5 discriminator 3
.LBB561:
.LBB562:
	.loc 1 125 5 discriminator 3
	.loc 1 127 5 discriminator 3
.LBE562:
.LBE561:
	.loc 1 154 5 discriminator 3
.LBE560:
.LBE559:
.LBB566:
.LBB557:
.LBB556:
.LBB555:
	.loc 1 127 31 is_stmt 0 discriminator 3
	lhu	a6,2(s3)
.LBE555:
.LBE556:
.LBE557:
.LBE566:
	.loc 1 435 30 discriminator 3
	lw	a3,4(s3)
.LBB567:
.LBB558:
	.loc 1 154 16 discriminator 3
	sub	a0,a5,a4
.LBE558:
.LBE567:
	.loc 1 435 30 discriminator 3
	add	a3,a3,a6
.LVL241:
	add	a3,a3,a0
.LVL242:
	lbu	a0,0(a3)
	.loc 1 435 28 discriminator 3
	lw	a3,76(s0)
.LBB568:
.LBB565:
.LBB564:
.LBB563:
	.loc 1 127 31 discriminator 3
	lhu	a6,74(s0)
.LBE563:
.LBE564:
.LBE565:
.LBE568:
	.loc 1 435 28 discriminator 3
	add	a3,a3,a4
	add	a3,a3,a6
	sb	a0,0(a3)
.LVL243:
	.loc 1 433 49 is_stmt 1 discriminator 3
	addi	a4,a4,1
.LVL244:
	j	.L80
.LVL245:
.L83:
	.loc 1 447 9 discriminator 3
.LBB569:
.LBB570:
	.loc 1 148 5 discriminator 3
	.loc 1 150 5 discriminator 3
	.loc 1 152 5 discriminator 3
.LBB571:
.LBB572:
	.loc 1 125 5 discriminator 3
	.loc 1 127 5 discriminator 3
.LBE572:
.LBE571:
	.loc 1 154 5 discriminator 3
.LBE570:
.LBE569:
.LBB577:
.LBB578:
	.loc 1 148 5 discriminator 3
	.loc 1 150 5 discriminator 3
	.loc 1 152 5 discriminator 3
.LBB579:
.LBB580:
	.loc 1 125 5 discriminator 3
	.loc 1 127 5 discriminator 3
.LBE580:
.LBE579:
	.loc 1 154 5 discriminator 3
.LBE578:
.LBE577:
.LBB584:
.LBB575:
.LBB574:
.LBB573:
	.loc 1 127 31 is_stmt 0 discriminator 3
	lhu	a0,86(s0)
.LBE573:
.LBE574:
.LBE575:
.LBE584:
	.loc 1 447 31 discriminator 3
	lw	a3,88(s0)
.LBB585:
.LBB576:
	.loc 1 154 16 discriminator 3
	sub	a1,a5,a4
.LBE576:
.LBE585:
	.loc 1 447 31 discriminator 3
	add	a3,a3,a0
.LVL246:
	add	a3,a3,a1
.LVL247:
	lbu	a1,0(a3)
	.loc 1 447 29 discriminator 3
	lw	a3,184(s0)
.LBB586:
.LBB583:
.LBB582:
.LBB581:
	.loc 1 127 31 discriminator 3
	lhu	a0,182(s0)
.LBE581:
.LBE582:
.LBE583:
.LBE586:
	.loc 1 447 29 discriminator 3
	add	a3,a3,a4
	add	a3,a3,a0
	sb	a1,0(a3)
.LVL248:
	.loc 1 445 52 is_stmt 1 discriminator 3
	addi	a4,a4,1
.LVL249:
	j	.L82
.LVL250:
.L85:
	.loc 1 455 9
.LBB587:
.LBB588:
	.loc 1 148 5
	.loc 1 150 5
	.loc 1 152 5
.LBB589:
.LBB590:
	.loc 1 125 5
	.loc 1 127 5
.LBE590:
.LBE589:
	.loc 1 154 5
.LBE588:
.LBE587:
	.loc 1 456 9
	.loc 1 455 19 is_stmt 0
	lw	a5,172(s0)
.LBB594:
.LBB593:
.LBB592:
.LBB591:
	.loc 1 127 31
	lhu	a4,170(s0)
.LBE591:
.LBE592:
.LBE593:
.LBE594:
	.loc 1 456 9
	li	a0,2
	.loc 1 455 19
	add	a5,a5,s3
	add	a5,a5,a4
	lbu	a1,0(a5)
	.loc 1 453 37
	addi	s3,s3,1
.LVL251:
	andi	s3,s3,0xff
	.loc 1 455 17
	sub	a1,s9,a1
	.loc 1 456 34
	slli	a1,a1,16
	srli	a1,a1,16
	neg	a1,a1
	.loc 1 456 9
	srai	a2,a1,31
	call	gf_pow
.LVL252:
	mv	a1,a0
	mv	a0,s1
	call	poly_append
.LVL253:
	.loc 1 453 36 is_stmt 1
	j	.L84
.LVL254:
.L92:
	.loc 1 466 9
.LBB595:
.LBB596:
	.loc 1 148 5
	.loc 1 150 5
	.loc 1 152 5
.LBB597:
.LBB598:
	.loc 1 125 5
	.loc 1 127 5
.LBE598:
.LBE597:
	.loc 1 154 5
.LBE596:
.LBE595:
	.loc 1 466 18 is_stmt 0
	lw	a5,40(s0)
.LBB602:
.LBB601:
.LBB600:
.LBB599:
	.loc 1 127 31
	lhu	a4,38(s0)
.LBE599:
.LBE600:
.LBE601:
.LBE602:
	.loc 1 469 16
	li	s3,0
	.loc 1 466 18
	add	a5,a5,s1
	add	a5,a5,a4
	lbu	a0,0(a5)
	call	gf_inverse
.LVL255:
	.loc 1 468 9 is_stmt 1
	.loc 1 471 17 is_stmt 0
	slli	s9,a0,16
	.loc 1 468 36
	sb	zero,56(s0)
	.loc 1 469 9 is_stmt 1
.LVL256:
	.loc 1 471 17 is_stmt 0
	srli	s9,s9,16
.LVL257:
.L87:
	.loc 1 469 21 is_stmt 1 discriminator 1
	.loc 1 469 9 is_stmt 0 discriminator 1
	lbu	a5,44(s0)
	bgtu	a5,s3,.L89
	.loc 1 476 43
	lbu	s11,56(s0)
	li	s10,0
	.loc 1 475 23
	li	s3,1
.LVL258:
.L90:
	.loc 1 476 21 is_stmt 1 discriminator 1
	.loc 1 476 9 is_stmt 0 discriminator 1
	andi	a5,s10,0xff
	bgtu	s11,a5,.L91
	.loc 1 480 9 is_stmt 1 discriminator 2
	.loc 1 480 13 is_stmt 0 discriminator 2
	mv	a1,s9
	mv	a0,s6
	call	poly_eval
.LVL259:
	.loc 1 481 20 discriminator 2
	lw	a5,40(s0)
.LBB603:
.LBB604:
.LBB605:
.LBB606:
	.loc 1 127 31 discriminator 2
	lhu	a4,38(s0)
.LBE606:
.LBE605:
.LBE604:
.LBE603:
	.loc 1 480 13 discriminator 2
	mv	s9,a0
.LVL260:
	.loc 1 481 9 is_stmt 1 discriminator 2
.LBB610:
.LBB609:
	.loc 1 148 5 discriminator 2
	.loc 1 150 5 discriminator 2
	.loc 1 152 5 discriminator 2
.LBB608:
.LBB607:
	.loc 1 125 5 discriminator 2
	.loc 1 127 5 discriminator 2
.LBE607:
.LBE608:
	.loc 1 154 5 discriminator 2
.LBE609:
.LBE610:
	.loc 1 481 20 is_stmt 0 discriminator 2
	add	a5,a5,s1
.LVL261:
	add	a5,a5,a4
	lbu	a0,0(a5)
	li	a2,0
	li	a1,1
	call	gf_pow
.LVL262:
	.loc 1 481 13 discriminator 2
	slli	a0,a0,16
	andi	a1,s9,0xff
	srli	a0,a0,16
	call	gf_mul
.LVL263:
	.loc 1 483 9 is_stmt 1 discriminator 2
.LBB611:
.LBB612:
	.loc 1 148 5 discriminator 2
	.loc 1 150 5 discriminator 2
	.loc 1 152 5 discriminator 2
.LBB613:
.LBB614:
	.loc 1 125 5 discriminator 2
	.loc 1 127 5 discriminator 2
.LBE614:
.LBE613:
	.loc 1 154 5 discriminator 2
.LBE612:
.LBE611:
.LBB618:
.LBB619:
	.loc 1 148 5 discriminator 2
	.loc 1 150 5 discriminator 2
	.loc 1 152 5 discriminator 2
.LBB620:
.LBB621:
	.loc 1 125 5 discriminator 2
	.loc 1 127 5 discriminator 2
.LBE621:
.LBE620:
	.loc 1 154 5 discriminator 2
.LBE619:
.LBE618:
	.loc 1 483 10 is_stmt 0 discriminator 2
	lw	a5,4(s2)
.LBB626:
.LBB617:
.LBB616:
.LBB615:
	.loc 1 127 31 discriminator 2
	lhu	a4,2(s2)
.LBE615:
.LBE616:
.LBE617:
.LBE626:
	.loc 1 483 45 discriminator 2
	mv	a1,s3
	.loc 1 483 10 discriminator 2
	add	a5,a5,s1
	add	a5,a5,a4
.LBB627:
.LBB624:
	.loc 1 154 16 discriminator 2
	lbu	s9,0(a5)
.LBB623:
.LBB622:
	.loc 1 127 31 discriminator 2
	lhu	a5,62(s0)
.LBE622:
.LBE623:
.LBE624:
.LBE627:
	.loc 1 465 33 discriminator 2
	addi	s1,s1,1
.LVL264:
	andi	s1,s1,0xff
.LVL265:
.LBB628:
.LBB625:
	.loc 1 154 16 discriminator 2
	add	a5,s9,a5
	lw	s9,64(s0)
	add	s9,s9,a5
.LVL266:
.LBE625:
.LBE628:
	.loc 1 483 45 discriminator 2
	call	gf_div
.LVL267:
	.loc 1 483 43 discriminator 2
	sb	a0,0(s9)
	.loc 1 465 32 is_stmt 1 discriminator 2
.LVL268:
	j	.L86
.LVL269:
.L89:
	.loc 1 470 13
	.loc 1 470 16 is_stmt 0
	beq	s1,s3,.L88
	.loc 1 471 17 is_stmt 1
.LVL270:
.LBB629:
.LBB630:
	.loc 1 148 5
	.loc 1 150 5
	.loc 1 152 5
.LBB631:
.LBB632:
	.loc 1 125 5
	.loc 1 127 5
.LBE632:
.LBE631:
	.loc 1 154 5
.LBE630:
.LBE629:
	.loc 1 471 74 is_stmt 0
	lw	a5,40(s0)
.LBB636:
.LBB635:
.LBB634:
.LBB633:
	.loc 1 127 31
	lhu	a4,38(s0)
.LBE633:
.LBE634:
.LBE635:
.LBE636:
	.loc 1 471 17
	mv	a0,s9
	.loc 1 471 74
	add	a5,a5,s3
	add	a5,a5,a4
	.loc 1 471 17
	lbu	a1,0(a5)
	call	gf_mul
.LVL271:
.LBB637:
.LBB638:
	.loc 1 198 5 is_stmt 1
	.loc 1 198 13 is_stmt 0
	xori	a1,a0,1
.LBE638:
.LBE637:
	.loc 1 471 17
	andi	a1,a1,0xff
	mv	a0,s8
	call	poly_append
.LVL272:
.L88:
	.loc 1 469 36 is_stmt 1 discriminator 2
	.loc 1 469 37 is_stmt 0 discriminator 2
	addi	s3,s3,1
.LVL273:
	andi	s3,s3,0xff
.LVL274:
	j	.L87
.LVL275:
.L91:
	.loc 1 477 13 is_stmt 1 discriminator 3
.LBB639:
.LBB640:
	.loc 1 148 5 discriminator 3
	.loc 1 150 5 discriminator 3
	.loc 1 152 5 discriminator 3
.LBB641:
.LBB642:
	.loc 1 125 5 discriminator 3
	.loc 1 127 5 discriminator 3
.LBE642:
.LBE641:
	.loc 1 154 5 discriminator 3
.LBE640:
.LBE639:
	.loc 1 477 51 is_stmt 0 discriminator 3
	lw	a5,52(s0)
.LBB646:
.LBB645:
.LBB644:
.LBB643:
	.loc 1 127 31 discriminator 3
	lhu	a4,50(s0)
.LBE643:
.LBE644:
.LBE645:
.LBE646:
	.loc 1 477 29 discriminator 3
	slli	a0,s3,16
	.loc 1 477 51 discriminator 3
	add	a5,a5,s10
	add	a5,a5,a4
	.loc 1 477 29 discriminator 3
	lbu	a1,0(a5)
	srli	a0,a0,16
	addi	s10,s10,1
.LVL276:
	call	gf_mul
.LVL277:
	mv	s3,a0
.LVL278:
	.loc 1 476 53 is_stmt 1 discriminator 3
	j	.L90
	.cfi_endproc
.LFE28:
	.size	correct_errata, .-correct_errata
	.section	.text.find_error_locator,"ax",@progbits
	.align	1
	.globl	find_error_locator
	.type	find_error_locator, @function
find_error_locator:
.LFB29:
	.loc 1 490 1
	.cfi_startproc
.LVL279:
	.loc 1 491 5
	.loc 1 492 5
	.loc 1 493 5
	.loc 1 494 5
	.loc 1 495 5
	.loc 1 496 5
	.loc 1 497 5
	.loc 1 498 5
	.loc 1 500 5
	.loc 1 501 5
	.loc 1 490 1 is_stmt 0
	addi	sp,sp,-96
	.cfi_def_cfa_offset 96
	sw	s0,88(sp)
	sw	s3,76(sp)
	sw	s4,72(sp)
	sw	s5,68(sp)
	sw	s6,64(sp)
	sw	s7,60(sp)
	sw	s8,56(sp)
	sw	s11,44(sp)
	sw	ra,92(sp)
	sw	s1,84(sp)
	sw	s2,80(sp)
	sw	s9,52(sp)
	sw	s10,48(sp)
	.cfi_offset 8, -8
	.cfi_offset 19, -20
	.cfi_offset 20, -24
	.cfi_offset 21, -28
	.cfi_offset 22, -32
	.cfi_offset 23, -36
	.cfi_offset 24, -40
	.cfi_offset 27, -52
	.cfi_offset 1, -4
	.cfi_offset 9, -12
	.cfi_offset 18, -16
	.cfi_offset 25, -44
	.cfi_offset 26, -48
	.loc 1 490 1
	mv	s0,a0
	mv	s7,a1
	mv	s4,a2
	mv	s3,a3
	.loc 1 501 15
	addi	s5,a0,36
.LVL280:
	.loc 1 502 5 is_stmt 1
	.loc 1 502 15 is_stmt 0
	addi	s6,a0,48
.LVL281:
	.loc 1 503 5 is_stmt 1
	.loc 1 503 15 is_stmt 0
	addi	s8,a0,72
.LVL282:
	.loc 1 504 5 is_stmt 1
	.loc 1 504 15 is_stmt 0
	addi	s11,a0,84
.LVL283:
	.loc 1 506 5 is_stmt 1
	.loc 1 506 8 is_stmt 0
	beq	a2,zero,.L95
	.loc 1 507 9 is_stmt 1
	mv	a1,a2
.LVL284:
	mv	a0,s5
.LVL285:
	call	poly_copy
.LVL286:
	.loc 1 508 9
	mv	a1,s4
	mv	a0,s6
	call	poly_copy
.LVL287:
.L96:
	.loc 1 517 5
	.loc 1 517 13 is_stmt 0
	lbu	a5,8(s7)
	.loc 1 517 8
	li	a4,126
	.loc 1 492 13
	li	s10,0
	.loc 1 517 8
	bleu	a5,a4,.L97
	.loc 1 518 9 is_stmt 1
	.loc 1 518 20 is_stmt 0
	addi	a5,a5,-126
	andi	s10,a5,0xff
.LVL288:
.L97:
	.loc 1 521 5 is_stmt 1
	.loc 1 521 25 is_stmt 0
	li	s9,126
	sub	a5,s9,s3
	.loc 1 521 5
	mv	s2,s10
	.loc 1 521 25
	sw	a5,12(sp)
.LVL289:
.L98:
	.loc 1 521 17 is_stmt 1 discriminator 1
	.loc 1 521 5 is_stmt 0 discriminator 1
	lw	a4,12(sp)
	.loc 1 521 19 discriminator 1
	sub	a5,s2,s10
	andi	a5,a5,0xff
	lbu	s1,44(s0)
	.loc 1 521 5 discriminator 1
	bltu	a5,a4,.L104
	.loc 1 497 14
	li	s2,0
.LVL290:
.L105:
	.loc 1 549 10 is_stmt 1 discriminator 1
	beq	s1,zero,.L106
.LVL291:
.LBB647:
.LBB648:
	.loc 1 148 5 discriminator 2
	.loc 1 150 5 discriminator 2
	.loc 1 152 5 discriminator 2
.LBB649:
.LBB650:
	.loc 1 125 5 discriminator 2
	.loc 1 127 5 discriminator 2
.LBE650:
.LBE649:
	.loc 1 154 5 discriminator 2
.LBE648:
.LBE647:
	.loc 1 549 30 is_stmt 0 discriminator 2
	lw	a4,40(s0)
.LBB654:
.LBB653:
.LBB652:
.LBB651:
	.loc 1 127 31 discriminator 2
	lhu	a3,38(s0)
.LBE651:
.LBE652:
	.loc 1 154 16 discriminator 2
	andi	a5,s2,255
.LBE653:
.LBE654:
	.loc 1 549 30 discriminator 2
	add	a5,a4,a5
	add	a5,a5,a3
	.loc 1 549 27 discriminator 2
	lbu	a5,0(a5)
	beq	a5,zero,.L107
.LVL292:
.L106:
	.loc 1 551 5 is_stmt 1
	.loc 1 551 28 is_stmt 0
	sub	a2,s1,s2
.LVL293:
	.loc 1 552 5 is_stmt 1
	.loc 1 552 16 is_stmt 0
	not	a5,s3
	add	a5,a5,a2
	.loc 1 552 31
	slli	a5,a5,1
	.loc 1 552 35
	add	a3,a5,s3
	.loc 1 552 8
	li	a5,126
	.loc 1 553 16
	li	a0,0
	.loc 1 552 8
	bgtu	a3,a5,.L108
	.loc 1 556 5 is_stmt 1
.LVL294:
.LBB655:
.LBB656:
	.loc 1 125 5
	.loc 1 127 5
.LBE656:
.LBE655:
.LBB658:
.LBB659:
	.loc 1 125 5
	.loc 1 127 5
	.loc 1 127 31 is_stmt 0
	lhu	a5,38(s0)
.LBE659:
.LBE658:
	.loc 1 556 51
	lw	a1,40(s0)
.LBB660:
.LBB657:
	.loc 1 127 31
	lhu	a4,134(s0)
	.loc 1 127 26
	lw	a0,136(s0)
.LBE657:
.LBE660:
	.loc 1 556 51
	add	a5,a5,s2
	.loc 1 556 5
	add	a1,a1,a5
	add	a0,a0,a4
	call	memcpy
.LVL295:
	.loc 1 557 5 is_stmt 1
	.loc 1 557 42 is_stmt 0
	lbu	a5,44(s0)
	.loc 1 558 12
	li	a0,1
	.loc 1 557 42
	sub	s2,a5,s2
.LVL296:
	.loc 1 557 23
	sb	s2,140(s0)
	.loc 1 558 5 is_stmt 1
.L108:
	.loc 1 559 1 is_stmt 0
	lw	ra,92(sp)
	.cfi_remember_state
	.cfi_restore 1
	lw	s0,88(sp)
	.cfi_restore 8
.LVL297:
	lw	s1,84(sp)
	.cfi_restore 9
	lw	s2,80(sp)
	.cfi_restore 18
	lw	s3,76(sp)
	.cfi_restore 19
.LVL298:
	lw	s4,72(sp)
	.cfi_restore 20
.LVL299:
	lw	s5,68(sp)
	.cfi_restore 21
.LVL300:
	lw	s6,64(sp)
	.cfi_restore 22
.LVL301:
	lw	s7,60(sp)
	.cfi_restore 23
.LVL302:
	lw	s8,56(sp)
	.cfi_restore 24
.LVL303:
	lw	s9,52(sp)
	.cfi_restore 25
	lw	s10,48(sp)
	.cfi_restore 26
.LVL304:
	lw	s11,44(sp)
	.cfi_restore 27
.LVL305:
	addi	sp,sp,96
	.cfi_def_cfa_offset 0
	jr	ra
.LVL306:
.L95:
	.cfi_restore_state
	.loc 1 510 9 is_stmt 1
.LBB661:
.LBB662:
.LBB663:
.LBB664:
	.loc 1 127 31 is_stmt 0
	lhu	a3,38(a0)
.LVL307:
.LBE664:
.LBE663:
.LBE662:
.LBE661:
	.loc 1 512 30
	lw	a4,40(a0)
	.loc 1 510 25
	li	a5,1
	sb	a5,44(a0)
	.loc 1 511 9 is_stmt 1
	.loc 1 512 30 is_stmt 0
	add	a4,a4,a3
	.loc 1 511 25
	sb	a5,56(a0)
	.loc 1 512 9 is_stmt 1
.LVL308:
.LBB668:
.LBB667:
	.loc 1 148 5
	.loc 1 150 5
	.loc 1 152 5
.LBB666:
.LBB665:
	.loc 1 125 5
	.loc 1 127 5
.LBE665:
.LBE666:
	.loc 1 154 5
.LBE667:
.LBE668:
	.loc 1 512 30 is_stmt 0
	sb	a5,0(a4)
	.loc 1 513 9 is_stmt 1
.LVL309:
.LBB669:
.LBB670:
	.loc 1 148 5
	.loc 1 150 5
	.loc 1 152 5
.LBB671:
.LBB672:
	.loc 1 125 5
	.loc 1 127 5
.LBE672:
.LBE671:
	.loc 1 154 5
.LBB674:
.LBB673:
	.loc 1 127 31 is_stmt 0
	lhu	a3,50(a0)
.LBE673:
.LBE674:
.LBE670:
.LBE669:
	.loc 1 513 30
	lw	a4,52(a0)
.LVL310:
	add	a4,a4,a3
.LVL311:
	sb	a5,0(a4)
	j	.L96
.LVL312:
.L104:
	.loc 1 523 9 is_stmt 1
	.loc 1 526 15 is_stmt 0
	mv	a3,s2
	.loc 1 523 12
	beq	s4,zero,.L99
	.loc 1 524 13 is_stmt 1
	add	a3,s2,s3
	andi	a3,a3,0xff
.LVL313:
.L99:
	.loc 1 529 9
.LBB675:
.LBB676:
	.loc 1 148 5
	.loc 1 150 5
	.loc 1 152 5
.LBB677:
.LBB678:
	.loc 1 125 5
	.loc 1 127 5
	.loc 1 127 16 is_stmt 0
	lw	a6,4(s7)
	.loc 1 127 31
	lhu	a2,2(s7)
.LVL314:
.LBE678:
.LBE677:
	.loc 1 154 5 is_stmt 1
	addi	a7,s1,-1
.LBE676:
.LBE675:
	.loc 1 529 15 is_stmt 0
	add	a5,a6,a3
	add	a5,a5,a2
	lbu	s9,0(a5)
.LVL315:
	.loc 1 530 9 is_stmt 1
	andi	a7,a7,0xff
	.loc 1 530 16 is_stmt 0
	li	a5,1
	.loc 1 532 55
	add	a6,a6,a2
.LVL316:
.L100:
	.loc 1 530 21 is_stmt 1 discriminator 1
	.loc 1 530 9 is_stmt 0 discriminator 1
	bgtu	s1,a5,.L101
	.loc 1 535 9 is_stmt 1
	li	a1,0
	mv	a0,s6
	call	poly_append
.LVL317:
	.loc 1 537 9
	.loc 1 537 12 is_stmt 0
	beq	s9,zero,.L102
	.loc 1 538 13 is_stmt 1
	.loc 1 538 16 is_stmt 0
	lbu	a3,56(s0)
	lbu	a5,44(s0)
	.loc 1 539 17
	slli	s1,s9,16
	srli	s1,s1,16
	.loc 1 538 16
	bleu	a3,a5,.L103
	.loc 1 539 17 is_stmt 1
	mv	a2,s1
	mv	a1,s8
	mv	a0,s6
	call	poly_scale
.LVL318:
	.loc 1 540 17
	.loc 1 540 46 is_stmt 0
	mv	a0,s9
	call	gf_inverse
.LVL319:
	.loc 1 540 17
	slli	a2,a0,16
	mv	a1,s6
	mv	a0,s5
	srli	a2,a2,16
	call	poly_scale
.LVL320:
	.loc 1 541 17 is_stmt 1
	mv	a1,s8
	mv	a0,s5
	call	poly_copy
.LVL321:
.L103:
	.loc 1 543 13
	mv	a2,s1
	mv	a1,s8
	mv	a0,s6
	call	poly_scale
.LVL322:
	.loc 1 544 13
	mv	a1,s8
	mv	a0,s5
	mv	a2,s11
	call	poly_add
.LVL323:
	.loc 1 545 13
	mv	a1,s11
	mv	a0,s5
	call	poly_copy
.LVL324:
.L102:
	.loc 1 521 40 discriminator 2
	addi	s2,s2,1
.LVL325:
	andi	s2,s2,0xff
	j	.L98
.LVL326:
.L101:
	.loc 1 531 13 discriminator 3
	.loc 1 532 13 discriminator 3
.LBB679:
.LBB680:
	.loc 1 148 5 discriminator 3
	.loc 1 150 5 discriminator 3
	.loc 1 152 5 discriminator 3
.LBB681:
.LBB682:
	.loc 1 125 5 discriminator 3
	.loc 1 127 5 discriminator 3
.LBE682:
.LBE681:
	.loc 1 154 5 discriminator 3
.LBE680:
.LBE679:
.LBB688:
.LBB689:
	.loc 1 148 5 discriminator 3
	.loc 1 150 5 discriminator 3
	.loc 1 152 5 discriminator 3
.LBE689:
.LBE688:
	.loc 1 125 5 discriminator 3
	.loc 1 127 5 discriminator 3
.LBB694:
.LBB690:
	.loc 1 154 5 discriminator 3
.LBE690:
.LBE694:
.LBB695:
.LBB685:
.LBB684:
.LBB683:
	.loc 1 127 31 is_stmt 0 discriminator 3
	lhu	t1,38(s0)
.LBE683:
.LBE684:
.LBE685:
.LBE695:
	.loc 1 532 29 discriminator 3
	lw	a2,40(s0)
.LBB696:
.LBB691:
	.loc 1 154 16 discriminator 3
	sub	a1,a3,a5
.LBE691:
.LBE696:
.LBB697:
.LBB686:
	sub	a0,a7,a5
	andi	a0,a0,0xff
.LBE686:
.LBE697:
	.loc 1 532 29 discriminator 3
	add	a2,a2,t1
.LVL327:
.LBB698:
.LBB692:
	.loc 1 154 16 discriminator 3
	andi	a1,a1,0xff
.LBE692:
.LBE698:
	.loc 1 532 55 discriminator 3
	add	a1,a6,a1
	.loc 1 532 29 discriminator 3
	add	a2,a2,a0
.LVL328:
	.loc 1 532 22 discriminator 3
	lbu	a1,0(a1)
	lbu	a0,0(a2)
.LBB699:
.LBB693:
	.loc 1 154 16 discriminator 3
	sw	a3,28(sp)
.LBE693:
.LBE699:
	.loc 1 532 55 discriminator 3
	sw	a6,24(sp)
.LBB700:
.LBB687:
	.loc 1 154 16 discriminator 3
	sw	a5,20(sp)
	sw	a7,16(sp)
.LBE687:
.LBE700:
	.loc 1 532 22 discriminator 3
	call	gf_mul
.LVL329:
	.loc 1 530 43 discriminator 3
	lw	a5,20(sp)
	.loc 1 532 19 discriminator 3
	xor	a4,s9,a0
	.loc 1 530 43 discriminator 3
	lw	a3,28(sp)
	addi	a5,a5,1
	lw	a6,24(sp)
	lw	a7,16(sp)
	.loc 1 532 19 discriminator 3
	andi	s9,a4,0xff
.LVL330:
	.loc 1 530 42 is_stmt 1 discriminator 3
	.loc 1 530 43 is_stmt 0 discriminator 3
	andi	a5,a5,0xff
.LVL331:
	j	.L100
.LVL332:
.L107:
	.loc 1 549 61 is_stmt 1 discriminator 3
	.loc 1 549 66 is_stmt 0 discriminator 3
	addi	s2,s2,1
.LVL333:
	j	.L105
	.cfi_endproc
.LFE29:
	.size	find_error_locator, .-find_error_locator
	.section	.text.find_errors,"ax",@progbits
	.align	1
	.globl	find_errors
	.type	find_errors, @function
find_errors:
.LFB30:
	.loc 1 562 1 is_stmt 1
	.cfi_startproc
.LVL334:
	.loc 1 563 5
	.loc 1 565 5
	.loc 1 562 1 is_stmt 0
	addi	sp,sp,-32
	.cfi_def_cfa_offset 32
	sw	s0,24(sp)
	sw	s2,16(sp)
	sw	s3,12(sp)
	sw	s4,8(sp)
	sw	s5,4(sp)
	sw	s6,0(sp)
	sw	ra,28(sp)
	sw	s1,20(sp)
	.cfi_offset 8, -8
	.cfi_offset 18, -16
	.cfi_offset 19, -20
	.cfi_offset 20, -24
	.cfi_offset 21, -28
	.cfi_offset 22, -32
	.cfi_offset 1, -4
	.cfi_offset 9, -12
	.loc 1 566 13
	lbu	s1,8(a1)
	.loc 1 562 1
	mv	s2,a0
	mv	s4,a1
	.loc 1 566 13
	addi	s1,s1,-1
	.loc 1 562 1
	mv	s3,a2
	.loc 1 565 15
	addi	s5,a0,156
.LVL335:
	.loc 1 566 5 is_stmt 1
	.loc 1 566 13 is_stmt 0
	andi	s1,s1,0xff
.LVL336:
	.loc 1 568 5 is_stmt 1
	.loc 1 568 17 is_stmt 0
	sb	zero,164(a0)
	.loc 1 570 5 is_stmt 1
.LVL337:
	.loc 1 570 12 is_stmt 0
	li	s0,0
	.loc 1 574 13
	addi	s6,a2,-1
.LVL338:
.L120:
	.loc 1 570 17 is_stmt 1 discriminator 1
	.loc 1 570 5 is_stmt 0 discriminator 1
	bltu	s0,s3,.L122
	.loc 1 581 5 is_stmt 1
	.loc 1 581 8 is_stmt 0
	lbu	a0,164(s2)
	.loc 1 587 1
	lw	ra,28(sp)
	.cfi_remember_state
	.cfi_restore 1
	lw	s0,24(sp)
	.cfi_restore 8
.LVL339:
	.loc 1 581 8
	sub	a0,a0,s1
	.loc 1 587 1
	lw	s2,16(sp)
	.cfi_restore 18
.LVL340:
	lw	s1,20(sp)
	.cfi_restore 9
.LVL341:
	lw	s3,12(sp)
	.cfi_restore 19
.LVL342:
	lw	s4,8(sp)
	.cfi_restore 20
.LVL343:
	lw	s5,4(sp)
	.cfi_restore 21
.LVL344:
	lw	s6,0(sp)
	.cfi_restore 22
.LVL345:
	seqz	a0,a0
	addi	sp,sp,32
	.cfi_def_cfa_offset 0
	jr	ra
.LVL346:
.L122:
	.cfi_restore_state
	.loc 1 572 9 is_stmt 1
	.loc 1 572 34 is_stmt 0
	mv	a1,s0
	li	a2,0
	li	a0,2
	call	gf_pow
.LVL347:
	.loc 1 572 13
	slli	a1,a0,16
	srli	a1,a1,16
	mv	a0,s4
	call	poly_eval
.LVL348:
	.loc 1 572 12
	bne	a0,zero,.L121
	.loc 1 574 13 is_stmt 1
	sub	a1,s6,s0
	andi	a1,a1,0xff
	mv	a0,s5
	call	poly_append
.LVL349:
.L121:
	.loc 1 570 34 discriminator 2
	.loc 1 570 35 is_stmt 0 discriminator 2
	addi	s0,s0,1
.LVL350:
	andi	s0,s0,0xff
.LVL351:
	j	.L120
	.cfi_endproc
.LFE30:
	.size	find_errors, .-find_errors
	.section	.text.calc_forney_syndromes,"ax",@progbits
	.align	1
	.globl	calc_forney_syndromes
	.type	calc_forney_syndromes, @function
calc_forney_syndromes:
.LFB31:
	.loc 1 590 1 is_stmt 1
	.cfi_startproc
.LVL352:
	.loc 1 591 5
	.loc 1 592 5
	.loc 1 593 5
	.loc 1 595 5
	.loc 1 590 1 is_stmt 0
	addi	sp,sp,-48
	.cfi_def_cfa_offset 48
	sw	s0,40(sp)
	sw	s1,36(sp)
	sw	s2,32(sp)
	sw	s3,28(sp)
	sw	s4,24(sp)
	sw	s5,20(sp)
	sw	s6,16(sp)
	sw	ra,44(sp)
	sw	s7,12(sp)
	.cfi_offset 8, -8
	.cfi_offset 9, -12
	.cfi_offset 18, -16
	.cfi_offset 19, -20
	.cfi_offset 20, -24
	.cfi_offset 21, -28
	.cfi_offset 22, -32
	.cfi_offset 1, -4
	.cfi_offset 23, -36
	.loc 1 590 1
	mv	s0,a0
	mv	s2,a1
	mv	s3,a2
	.loc 1 595 15
	addi	s6,a0,36
.LVL353:
	.loc 1 596 5 is_stmt 1
	.loc 1 596 15 is_stmt 0
	addi	s4,a0,108
.LVL354:
	.loc 1 598 5 is_stmt 1
	.loc 1 598 32 is_stmt 0
	sb	zero,44(a0)
	.loc 1 600 5 is_stmt 1
.LVL355:
	.loc 1 600 12 is_stmt 0
	li	s1,0
	.loc 1 602 9
	addi	s5,a3,-1
.LVL356:
.L125:
	.loc 1 600 17 is_stmt 1 discriminator 1
	.loc 1 600 5 is_stmt 0 discriminator 1
	lbu	a5,8(s3)
	bgtu	a5,s1,.L126
	.loc 1 605 5 is_stmt 1
	mv	a0,s4
	call	poly_reset
.LVL357:
	.loc 1 606 5
.LBB701:
.LBB702:
	.loc 1 125 5
	.loc 1 127 5
.LBE702:
.LBE701:
	.loc 1 606 5 is_stmt 0
	lbu	a2,8(s2)
.LBB704:
.LBB703:
	.loc 1 127 31
	lhu	a5,2(s2)
.LBE703:
.LBE704:
	.loc 1 606 5
	lw	a1,4(s2)
	addi	a2,a2,-1
	addi	a5,a5,1
	li	a3,0
	andi	a2,a2,0xff
	add	a1,a1,a5
	mv	a0,s4
	call	poly_set
.LVL358:
	.loc 1 608 5 is_stmt 1
	.loc 1 608 12 is_stmt 0
	li	s2,0
.LVL359:
.L127:
	.loc 1 608 17 is_stmt 1 discriminator 1
	.loc 1 608 5 is_stmt 0 discriminator 1
	lbu	a5,8(s3)
	bgtu	a5,s2,.L130
	.loc 1 616 1
	lw	ra,44(sp)
	.cfi_remember_state
	.cfi_restore 1
	lw	s0,40(sp)
	.cfi_restore 8
.LVL360:
	lw	s1,36(sp)
	.cfi_restore 9
	lw	s2,32(sp)
	.cfi_restore 18
.LVL361:
	lw	s3,28(sp)
	.cfi_restore 19
.LVL362:
	lw	s4,24(sp)
	.cfi_restore 20
	lw	s5,20(sp)
	.cfi_restore 21
	lw	s6,16(sp)
	.cfi_restore 22
	lw	s7,12(sp)
	.cfi_restore 23
	addi	sp,sp,48
	.cfi_def_cfa_offset 0
	jr	ra
.LVL363:
.L126:
	.cfi_restore_state
	.loc 1 602 9 is_stmt 1 discriminator 3
.LBB705:
.LBB706:
	.loc 1 148 5 discriminator 3
	.loc 1 150 5 discriminator 3
	.loc 1 152 5 discriminator 3
.LBB707:
.LBB708:
	.loc 1 125 5 discriminator 3
	.loc 1 127 5 discriminator 3
.LBE708:
.LBE707:
	.loc 1 154 5 discriminator 3
.LBE706:
.LBE705:
	.loc 1 602 59 is_stmt 0 discriminator 3
	lw	a5,4(s3)
.LBB712:
.LBB711:
.LBB710:
.LBB709:
	.loc 1 127 31 discriminator 3
	lhu	a4,2(s3)
.LBE709:
.LBE710:
.LBE711:
.LBE712:
	.loc 1 602 9 discriminator 3
	mv	a0,s6
	.loc 1 602 59 discriminator 3
	add	a5,a5,s1
	add	a5,a5,a4
	.loc 1 602 9 discriminator 3
	lbu	a1,0(a5)
	.loc 1 600 44 discriminator 3
	addi	s1,s1,1
.LVL364:
	andi	s1,s1,0xff
	.loc 1 602 9 discriminator 3
	sub	a1,s5,a1
	andi	a1,a1,0xff
	call	poly_append
.LVL365:
	.loc 1 600 43 is_stmt 1 discriminator 3
	j	.L125
.LVL366:
.L130:
	.loc 1 610 9
.LBB713:
.LBB714:
	.loc 1 148 5
	.loc 1 150 5
	.loc 1 152 5
.LBB715:
.LBB716:
	.loc 1 125 5
	.loc 1 127 5
.LBE716:
.LBE715:
	.loc 1 154 5
.LBE714:
.LBE713:
	.loc 1 610 23 is_stmt 0
	lw	a5,40(s0)
.LBB720:
.LBB719:
.LBB718:
.LBB717:
	.loc 1 127 31
	lhu	a4,38(s0)
.LBE717:
.LBE718:
.LBE719:
.LBE720:
	.loc 1 610 13
	li	a2,0
	.loc 1 610 23
	add	a5,a5,s2
	add	a5,a5,a4
	.loc 1 610 13
	lbu	a1,0(a5)
	li	a0,2
	.loc 1 611 16
	li	s1,0
	.loc 1 610 13
	call	gf_pow
.LVL367:
	.loc 1 611 9 is_stmt 1
	.loc 1 613 40 is_stmt 0
	slli	s6,a0,16
	srli	s6,s6,16
.LVL368:
.L128:
	.loc 1 611 21 is_stmt 1 discriminator 1
	.loc 1 611 36 is_stmt 0 discriminator 1
	lbu	a5,116(s0)
	.loc 1 611 45 discriminator 1
	addi	a5,a5,-1
	.loc 1 611 9 discriminator 1
	blt	s1,a5,.L129
	.loc 1 608 43 is_stmt 1 discriminator 2
	.loc 1 608 44 is_stmt 0 discriminator 2
	addi	s2,s2,1
.LVL369:
	andi	s2,s2,0xff
.LVL370:
	j	.L127
.L129:
	.loc 1 613 13 is_stmt 1
.LVL371:
.LBB721:
.LBB722:
	.loc 1 148 5
	.loc 1 150 5
	.loc 1 152 5
.LBB723:
.LBB724:
	.loc 1 125 5
	.loc 1 127 5
	.loc 1 127 31 is_stmt 0
	lhu	s7,110(s0)
.LVL372:
	.loc 1 127 16
	lw	s4,112(s0)
.LVL373:
.LBE724:
.LBE723:
	.loc 1 154 5 is_stmt 1
.LBE722:
.LBE721:
	.loc 1 613 40 is_stmt 0
	mv	a1,s6
.LBB726:
.LBB725:
	.loc 1 154 16
	add	s5,s1,s7
	add	s5,s4,s5
.LVL374:
.LBE725:
.LBE726:
	.loc 1 613 40
	lbu	a0,0(s5)
	.loc 1 613 79
	addi	s1,s1,1
.LVL375:
	andi	s1,s1,0xff
	.loc 1 613 78
	add	s4,s4,s1
.LVL376:
	.loc 1 613 40
	call	gf_mul
.LVL377:
.LBB727:
.LBB728:
	.loc 1 148 5 is_stmt 1
	.loc 1 150 5
	.loc 1 152 5
.LBE728:
.LBE727:
	.loc 1 125 5
	.loc 1 127 5
.LBB730:
.LBB729:
	.loc 1 154 5
.LBE729:
.LBE730:
	.loc 1 148 5
	.loc 1 150 5
	.loc 1 152 5
	.loc 1 125 5
	.loc 1 127 5
	.loc 1 154 5
	.loc 1 613 78 is_stmt 0
	add	s4,s4,s7
	.loc 1 613 38
	lbu	a5,0(s4)
	xor	a0,a0,a5
	sb	a0,0(s5)
	.loc 1 611 50 is_stmt 1
.LVL378:
	j	.L128
	.cfi_endproc
.LFE31:
	.size	calc_forney_syndromes, .-calc_forney_syndromes
	.section	.rodata.reedsolomon_init.str1.4,"aMS",@progbits,1
	.align	2
.LC0:
	.string	"utils_fec.c"
	.align	2
.LC1:
	.string	"INFO  "
	.align	2
.LC2:
	.string	"[%10u][%s: %s:%4d] reedsolomon_init.\r\n"
	.section	.text.reedsolomon_init,"ax",@progbits
	.align	1
	.globl	reedsolomon_init
	.type	reedsolomon_init, @function
reedsolomon_init:
.LFB32:
	.loc 1 619 1
	.cfi_startproc
.LVL379:
	.loc 1 620 5
	.loc 1 621 5
	.loc 1 622 5
	.loc 1 623 5
	.loc 1 624 5
	.loc 1 626 5
	.loc 1 628 5
	.loc 1 628 10
	.loc 1 628 12
	.loc 1 619 1 is_stmt 0
	addi	sp,sp,-16
	.cfi_def_cfa_offset 16
	sw	s0,8(sp)
	sw	ra,12(sp)
	.cfi_offset 8, -8
	.cfi_offset 1, -4
	.loc 1 619 1
	mv	s0,a0
	.loc 1 628 70
	call	xPortIsInsideInterrupt
.LVL380:
	.loc 1 628 12
	beq	a0,zero,.L133
	.loc 1 628 97 discriminator 1
	call	xTaskGetTickCountFromISR
.LVL381:
.L138:
	.loc 1 628 126 discriminator 2
	mv	a1,a0
	.loc 1 628 12 discriminator 2
	lui	a3,%hi(.LC0)
	lui	a2,%hi(.LC1)
	lui	a0,%hi(.LC2)
	li	a4,628
	addi	a2,a2,%lo(.LC1)
	addi	a0,a0,%lo(.LC2)
	addi	a3,a3,%lo(.LC0)
	call	bl_printk
.LVL382:
	.loc 1 628 179 is_stmt 1 discriminator 2
	.loc 1 628 188 discriminator 2
	.loc 1 630 5 discriminator 2
.LBB731:
.LBB732:
	.loc 1 116 14 is_stmt 0 discriminator 2
	li	a4,65536
	addi	a4,a4,-512
	sw	a4,0(s0)
.LBE732:
.LBE731:
.LBB735:
.LBB736:
	li	a4,16711680
	addi	a4,a4,-511
	sw	a4,12(s0)
.LBE736:
.LBE735:
.LBB738:
.LBB739:
	li	a4,-1022
	sh	a4,24(s0)
	.loc 1 118 18 discriminator 2
	li	a4,508
	sh	a4,26(s0)
	.loc 1 116 14 discriminator 2
	li	a4,-1021
	sh	a4,36(s0)
	.loc 1 118 18 discriminator 2
	li	a4,760
	sh	a4,38(s0)
	.loc 1 116 14 discriminator 2
	li	a4,-1020
	sh	a4,48(s0)
	.loc 1 118 18 discriminator 2
	li	a4,1012
	sh	a4,50(s0)
.LBE739:
.LBE738:
.LBB743:
.LBB744:
	.loc 1 116 14 discriminator 2
	li	a4,82903040
.LBE744:
.LBE743:
	.loc 1 630 63 discriminator 2
	addi	a5,s0,204
.LVL383:
.LBB748:
.LBB733:
	.loc 1 114 5 is_stmt 1 discriminator 2
	.loc 1 116 5 discriminator 2
	.loc 1 117 5 discriminator 2
	.loc 1 118 5 discriminator 2
	.loc 1 119 5 discriminator 2
.LBE733:
.LBE748:
.LBB749:
.LBB745:
	.loc 1 116 14 is_stmt 0 discriminator 2
	addi	a4,a4,-507
	sw	a4,60(s0)
.LBE745:
.LBE749:
.LBB750:
.LBB734:
	.loc 1 119 18 discriminator 2
	sw	a5,4(s0)
	.loc 1 120 5 is_stmt 1 discriminator 2
	.loc 1 120 17 is_stmt 0 discriminator 2
	sb	zero,8(s0)
.LVL384:
.LBE734:
.LBE750:
	.loc 1 631 5 is_stmt 1 discriminator 2
	.loc 1 633 5 discriminator 2
.LBB751:
.LBB737:
	.loc 1 114 5 discriminator 2
	.loc 1 116 5 discriminator 2
	.loc 1 117 5 discriminator 2
	.loc 1 118 5 discriminator 2
	.loc 1 119 5 discriminator 2
	.loc 1 119 18 is_stmt 0 discriminator 2
	sw	a5,16(s0)
	.loc 1 120 5 is_stmt 1 discriminator 2
	.loc 1 120 17 is_stmt 0 discriminator 2
	sb	zero,20(s0)
.LVL385:
.LBE737:
.LBE751:
	.loc 1 634 5 is_stmt 1 discriminator 2
	.loc 1 636 5 discriminator 2
	.loc 1 636 28 discriminator 2
	.loc 1 638 9 discriminator 2
.LBB752:
.LBB740:
	.loc 1 114 5 discriminator 2
	.loc 1 116 5 discriminator 2
	.loc 1 117 5 discriminator 2
	.loc 1 118 5 discriminator 2
	.loc 1 119 5 discriminator 2
	.loc 1 119 18 is_stmt 0 discriminator 2
	sw	a5,28(s0)
	.loc 1 120 5 is_stmt 1 discriminator 2
	.loc 1 120 17 is_stmt 0 discriminator 2
	sb	zero,32(s0)
.LVL386:
.LBE740:
.LBE752:
	.loc 1 639 9 is_stmt 1 discriminator 2
	.loc 1 636 42 discriminator 2
	.loc 1 636 28 discriminator 2
	.loc 1 638 9 discriminator 2
.LBB753:
.LBB741:
	.loc 1 114 5 discriminator 2
	.loc 1 116 5 discriminator 2
	.loc 1 117 5 discriminator 2
	.loc 1 118 5 discriminator 2
	.loc 1 119 5 discriminator 2
	.loc 1 119 18 is_stmt 0 discriminator 2
	sw	a5,40(s0)
	.loc 1 120 5 is_stmt 1 discriminator 2
	.loc 1 120 17 is_stmt 0 discriminator 2
	sb	zero,44(s0)
.LVL387:
.LBE741:
.LBE753:
	.loc 1 639 9 is_stmt 1 discriminator 2
	.loc 1 636 42 discriminator 2
	.loc 1 636 28 discriminator 2
	.loc 1 638 9 discriminator 2
.LBB754:
.LBB742:
	.loc 1 114 5 discriminator 2
	.loc 1 116 5 discriminator 2
	.loc 1 117 5 discriminator 2
	.loc 1 118 5 discriminator 2
	.loc 1 119 5 discriminator 2
	.loc 1 119 18 is_stmt 0 discriminator 2
	sw	a5,52(s0)
	.loc 1 120 5 is_stmt 1 discriminator 2
	.loc 1 120 17 is_stmt 0 discriminator 2
	sb	zero,56(s0)
.LVL388:
.LBE742:
.LBE754:
	.loc 1 639 9 is_stmt 1 discriminator 2
	.loc 1 636 42 discriminator 2
	.loc 1 636 28 discriminator 2
	.loc 1 642 5 discriminator 2
.LBB755:
.LBB746:
	.loc 1 114 5 discriminator 2
	.loc 1 116 5 discriminator 2
	.loc 1 117 5 discriminator 2
	.loc 1 118 5 discriminator 2
	.loc 1 119 5 discriminator 2
	.loc 1 119 18 is_stmt 0 discriminator 2
	sw	a5,64(s0)
	.loc 1 120 5 is_stmt 1 discriminator 2
	.loc 1 120 17 is_stmt 0 discriminator 2
	sb	zero,68(s0)
.LVL389:
.LBE746:
.LBE755:
	.loc 1 643 5 is_stmt 1 discriminator 2
	.loc 1 645 5 discriminator 2
	.loc 1 645 25 discriminator 2
.LBB756:
.LBB747:
	.loc 1 120 17 is_stmt 0 discriminator 2
	li	a4,6
	addi	s0,s0,72
.LVL390:
.LBE747:
.LBE756:
.LBB757:
.LBB758:
	.loc 1 117 16 discriminator 2
	li	a0,-4
	.loc 1 118 18 discriminator 2
	li	a1,252
.LBE758:
.LBE757:
	.loc 1 645 5 discriminator 2
	li	a2,17
.LVL391:
.L135:
	.loc 1 647 9 is_stmt 1 discriminator 3
.LBB761:
.LBB759:
	.loc 1 114 5 discriminator 3
	.loc 1 116 5 discriminator 3
	.loc 1 118 18 is_stmt 0 discriminator 3
	mul	a3,a4,a1
	.loc 1 116 14 discriminator 3
	sb	a4,0(s0)
	.loc 1 117 5 is_stmt 1 discriminator 3
	.loc 1 117 16 is_stmt 0 discriminator 3
	sb	a0,1(s0)
	.loc 1 118 5 is_stmt 1 discriminator 3
	.loc 1 119 18 is_stmt 0 discriminator 3
	sw	a5,4(s0)
	.loc 1 120 17 discriminator 3
	sb	zero,8(s0)
.LBE759:
.LBE761:
	.loc 1 645 5 discriminator 3
	addi	a4,a4,1
.LVL392:
	addi	s0,s0,12
.LVL393:
.LBB762:
.LBB760:
	.loc 1 118 18 discriminator 3
	addi	a3,a3,6
	sh	a3,-10(s0)
	.loc 1 119 5 is_stmt 1 discriminator 3
	.loc 1 120 5 discriminator 3
.LVL394:
.LBE760:
.LBE762:
	.loc 1 648 9 discriminator 3
	.loc 1 645 44 discriminator 3
	.loc 1 645 25 discriminator 3
	.loc 1 645 5 is_stmt 0 discriminator 3
	bne	a4,a2,.L135
	.loc 1 650 1
	lw	ra,12(sp)
	.cfi_remember_state
	.cfi_restore 1
	lw	s0,8(sp)
	.cfi_restore 8
	addi	sp,sp,16
	.cfi_def_cfa_offset 0
	jr	ra
.LVL395:
.L133:
	.cfi_restore_state
	.loc 1 628 126 discriminator 2
	call	xTaskGetTickCount
.LVL396:
	j	.L138
	.cfi_endproc
.LFE32:
	.size	reedsolomon_init, .-reedsolomon_init
	.section	.text.encode_block,"ax",@progbits
	.align	1
	.globl	encode_block
	.type	encode_block, @function
encode_block:
.LFB33:
	.loc 1 653 1 is_stmt 1
	.cfi_startproc
.LVL397:
	.loc 1 656 5
	.loc 1 657 5
	.loc 1 658 5
	.loc 1 660 5
	.loc 1 653 1 is_stmt 0
	addi	sp,sp,-48
	.cfi_def_cfa_offset 48
	sw	ra,44(sp)
	sw	s0,40(sp)
	sw	s1,36(sp)
	.cfi_offset 1, -4
	.cfi_offset 8, -8
	.cfi_offset 9, -12
	mv	s0,a0
	sw	s2,32(sp)
	sw	s3,28(sp)
	sw	s4,24(sp)
	sw	s5,20(sp)
	.cfi_offset 18, -16
	.cfi_offset 19, -20
	.cfi_offset 20, -24
	.cfi_offset 21, -28
	mv	s2,a1
.LVL398:
	.loc 1 661 5 is_stmt 1
	.loc 1 653 1 is_stmt 0
	mv	s3,a2
.LVL399:
	.loc 1 663 5 is_stmt 1
	.loc 1 664 5
	.loc 1 664 15 is_stmt 0
	addi	s5,a0,12
.LVL400:
	.loc 1 665 5 is_stmt 1
	.loc 1 667 5
	.loc 1 669 5
	.loc 1 653 1 is_stmt 0
	sw	s6,16(sp)
	sw	s7,12(sp)
	sw	s8,8(sp)
	.cfi_offset 22, -32
	.cfi_offset 23, -36
	.cfi_offset 24, -40
	.loc 1 669 5
	call	poly_reset
.LVL401:
	.loc 1 670 5 is_stmt 1
	.loc 1 673 30 is_stmt 0
	li	s1,4096
	.loc 1 670 5
	mv	a0,s5
	.loc 1 673 30
	addi	s4,s1,20
	.loc 1 670 5
	call	poly_reset
.LVL402:
	.loc 1 672 5 is_stmt 1
	.loc 1 672 16 is_stmt 0
	add	s1,s0,s1
	.loc 1 672 8
	lbu	a5,147(s1)
	.loc 1 673 30
	add	s4,s0,s4
	.loc 1 672 8
	beq	a5,zero,.L140
	.loc 1 673 9 is_stmt 1
	li	a3,0
	li	a2,127
	mv	a1,s4
	addi	a0,s0,24
.LVL403:
	call	poly_set
.LVL404:
.L141:
	.loc 1 681 5
	li	a3,0
	li	a2,128
	mv	a1,s2
	mv	a0,s0
	call	poly_set
.LVL405:
	.loc 1 682 5
	li	a3,0
	li	a2,128
	mv	a1,s2
	mv	a0,s5
	call	poly_set
.LVL406:
	.loc 1 683 5
	.loc 1 683 38 is_stmt 0
	lbu	a5,8(s0)
	.loc 1 683 21
	li	s1,0
	.loc 1 687 5
	li	s6,128
	.loc 1 683 38
	addi	a5,a5,126
	.loc 1 683 21
	sb	a5,20(s0)
	.loc 1 687 5 is_stmt 1
.LVL407:
	.loc 1 687 17
.L143:
	.loc 1 688 14 is_stmt 0
	lw	a5,16(s0)
.LBB763:
.LBB764:
.LBB765:
.LBB766:
	.loc 1 127 31
	lhu	a4,14(s0)
	andi	s8,s1,0xff
.LVL408:
.LBE766:
.LBE765:
.LBE764:
.LBE763:
	.loc 1 688 9 is_stmt 1
.LBB770:
.LBB769:
	.loc 1 148 5
	.loc 1 150 5
	.loc 1 152 5
.LBB768:
.LBB767:
	.loc 1 125 5
	.loc 1 127 5
.LBE767:
.LBE768:
	.loc 1 154 5
.LBE769:
.LBE770:
	.loc 1 688 14 is_stmt 0
	add	a5,a5,s1
.LVL409:
	add	a5,a5,a4
	lbu	a1,0(a5)
.LVL410:
	.loc 1 689 9 is_stmt 1
	.loc 1 689 12 is_stmt 0
	bne	a1,zero,.L147
.LVL411:
.L146:
	.loc 1 687 26 is_stmt 1
	.loc 1 687 17
	.loc 1 687 5 is_stmt 0
	addi	s1,s1,1
.LVL412:
	bne	s1,s6,.L143
	.loc 1 697 5 is_stmt 1
.LVL413:
.LBB771:
.LBB772:
	.loc 1 125 5
	.loc 1 127 5
	.loc 1 127 31 is_stmt 0
	lhu	a5,14(s0)
.LBE772:
.LBE771:
	.loc 1 697 38
	lw	a1,16(s0)
	.loc 1 699 1
	lw	s0,40(sp)
	.cfi_remember_state
	.cfi_restore 8
.LVL414:
	lw	ra,44(sp)
	.cfi_restore 1
	lw	s1,36(sp)
	.cfi_restore 9
	lw	s2,32(sp)
	.cfi_restore 18
	lw	s4,24(sp)
	.cfi_restore 20
	lw	s5,20(sp)
	.cfi_restore 21
	lw	s6,16(sp)
	.cfi_restore 22
	lw	s7,12(sp)
	.cfi_restore 23
	lw	s8,8(sp)
	.cfi_restore 24
.LVL415:
	.loc 1 697 5
	mv	a0,s3
	.loc 1 699 1
	lw	s3,28(sp)
	.cfi_restore 19
.LVL416:
	.loc 1 697 38
	addi	a5,a5,128
	.loc 1 699 1
	.loc 1 697 5
	li	a2,126
	add	a1,a1,a5
	.loc 1 699 1
	addi	sp,sp,48
	.cfi_def_cfa_offset 0
	.loc 1 697 5
	tail	memcpy
.LVL417:
.L140:
	.cfi_restore_state
	.loc 1 675 9 is_stmt 1
	mv	a0,s0
	call	generator_poly
.LVL418:
	.loc 1 676 9
.LBB773:
.LBB774:
	.loc 1 125 5
	.loc 1 127 5
	.loc 1 127 31 is_stmt 0
	lhu	a5,26(s0)
	.loc 1 127 26
	lw	a1,28(s0)
.LBE774:
.LBE773:
	.loc 1 676 9
	lbu	a2,32(s0)
	mv	a0,s4
	add	a1,a1,a5
	call	memcpy
.LVL419:
	.loc 1 677 9 is_stmt 1
	.loc 1 677 42 is_stmt 0
	li	a5,1
	sb	a5,147(s1)
	j	.L141
.LVL420:
.L145:
	.loc 1 691 17 is_stmt 1 discriminator 3
.LBB775:
.LBB776:
	.loc 1 148 5 discriminator 3
	.loc 1 150 5 discriminator 3
	.loc 1 152 5 discriminator 3
.LBB777:
.LBB778:
	.loc 1 125 5 discriminator 3
	.loc 1 127 5 discriminator 3
.LBE778:
.LBE777:
	.loc 1 154 5 discriminator 3
.LBE776:
.LBE775:
	.loc 1 691 50 is_stmt 0 discriminator 3
	lw	a4,28(s0)
.LBB782:
.LBB781:
.LBB780:
.LBB779:
	.loc 1 127 31 discriminator 3
	lhu	a5,26(s0)
.LBE779:
.LBE780:
.LBE781:
.LBE782:
	.loc 1 691 43 discriminator 3
	mv	a1,s5
	.loc 1 691 50 discriminator 3
	add	a4,a4,s2
	add	a4,a4,a5
	.loc 1 691 43 discriminator 3
	lbu	a0,0(a4)
	call	gf_mul
.LVL421:
.LBB783:
.LBB784:
	.loc 1 148 5 is_stmt 1 discriminator 3
	.loc 1 150 5 discriminator 3
	.loc 1 152 5 discriminator 3
.LBB785:
.LBB786:
	.loc 1 125 5 discriminator 3
	.loc 1 127 5 discriminator 3
.LBE786:
.LBE785:
	.loc 1 154 5 discriminator 3
	.loc 1 154 16 is_stmt 0 discriminator 3
	add	a5,s8,s2
	andi	a5,a5,0xff
	add	a5,a5,s7
	add	a5,s4,a5
.LVL422:
.LBE784:
.LBE783:
	.loc 1 691 40 discriminator 3
	lbu	a4,0(a5)
	.loc 1 690 43 discriminator 3
	addi	s2,s2,1
.LVL423:
	.loc 1 691 40 discriminator 3
	xor	a0,a0,a4
	sb	a0,0(a5)
.LVL424:
	.loc 1 690 42 is_stmt 1 discriminator 3
.L142:
	.loc 1 690 25 discriminator 1
	.loc 1 690 32 is_stmt 0 discriminator 1
	lbu	a4,32(s0)
.LBB790:
.LBB789:
.LBB788:
.LBB787:
	.loc 1 127 16 discriminator 1
	lw	s4,16(s0)
	.loc 1 127 31 discriminator 1
	lhu	s7,14(s0)
.LBE787:
.LBE788:
.LBE789:
.LBE790:
	.loc 1 690 13 discriminator 1
	bgtu	a4,s2,.L145
	j	.L146
.LVL425:
.L147:
	.loc 1 691 43
	slli	s5,a1,16
	.loc 1 690 20
	li	s2,1
	.loc 1 691 43
	srli	s5,s5,16
	j	.L142
	.cfi_endproc
.LFE33:
	.size	encode_block, .-encode_block
	.section	.text.reedsolomon_encode,"ax",@progbits
	.align	1
	.globl	reedsolomon_encode
	.type	reedsolomon_encode, @function
reedsolomon_encode:
.LFB34:
	.loc 1 702 1 is_stmt 1
	.cfi_startproc
.LVL426:
	.loc 1 703 5
	.loc 1 702 1 is_stmt 0
	addi	sp,sp,-16
	.cfi_def_cfa_offset 16
	sw	s0,8(sp)
	.cfi_offset 8, -8
	mv	s0,a2
	sw	s1,4(sp)
	.loc 1 707 5
	li	a2,128
.LVL427:
	.cfi_offset 9, -12
	.loc 1 702 1
	mv	s1,a0
.LVL428:
	.loc 1 704 5 is_stmt 1
	.loc 1 707 5
	mv	a0,s0
.LVL429:
	.loc 1 702 1 is_stmt 0
	sw	s2,0(sp)
	sw	ra,12(sp)
	.cfi_offset 18, -16
	.cfi_offset 1, -4
	.loc 1 702 1
	mv	s2,a1
	.loc 1 707 5
	call	memcpy
.LVL430:
	.loc 1 710 5 is_stmt 1
	addi	a2,s0,128
	.loc 1 711 1 is_stmt 0
	lw	s0,8(sp)
	.cfi_restore 8
.LVL431:
	lw	ra,12(sp)
	.cfi_restore 1
	.loc 1 710 5
	mv	a1,s2
	mv	a0,s1
	.loc 1 711 1
	lw	s2,0(sp)
	.cfi_restore 18
.LVL432:
	lw	s1,4(sp)
	.cfi_restore 9
.LVL433:
	addi	sp,sp,16
	.cfi_def_cfa_offset 0
	.loc 1 710 5
	tail	encode_block
.LVL434:
	.cfi_endproc
.LFE34:
	.size	reedsolomon_encode, .-reedsolomon_encode
	.section	.text.decode_block,"ax",@progbits
	.align	1
	.globl	decode_block
	.type	decode_block, @function
decode_block:
.LFB35:
	.loc 1 714 1 is_stmt 1
	.cfi_startproc
.LVL435:
	addi	sp,sp,-32
	.cfi_def_cfa_offset 32
	sw	s3,12(sp)
	sw	s5,4(sp)
	.cfi_offset 19, -20
	.cfi_offset 21, -28
	mv	s3,a3
	mv	s5,a2
	.loc 1 740 5 is_stmt 0
	li	a3,0
.LVL436:
	li	a2,128
.LVL437:
	.loc 1 714 1
	sw	ra,28(sp)
	sw	s0,24(sp)
	sw	s1,20(sp)
	.cfi_offset 1, -4
	.cfi_offset 8, -8
	.cfi_offset 9, -12
	mv	s0,a0
	.loc 1 715 5 is_stmt 1
	.loc 1 716 5
	.loc 1 717 5
	.loc 1 719 5
.LVL438:
	.loc 1 720 5
	.loc 1 721 5
	.loc 1 723 5
	.loc 1 724 5
	.loc 1 726 5
	.loc 1 728 5
	.loc 1 729 5
	.loc 1 730 5
	.loc 1 714 1 is_stmt 0
	sw	s2,16(sp)
	sw	s4,8(sp)
	.cfi_offset 18, -16
	.cfi_offset 20, -24
	.loc 1 714 1
	mv	s1,a4
	mv	s4,a5
	.loc 1 730 15
	addi	s2,a0,144
.LVL439:
	.loc 1 731 5 is_stmt 1
	.loc 1 732 5
	.loc 1 733 5
	.loc 1 734 5
	.loc 1 735 5
	.loc 1 737 5
	.loc 1 740 5
	call	poly_set
.LVL440:
	.loc 1 741 5
	mv	a1,s5
	mv	a0,s0
	li	a3,128
	li	a2,126
	call	poly_set
.LVL441:
	.loc 1 742 5
	mv	a1,s0
	addi	a0,s0,12
.LVL442:
	call	poly_copy
.LVL443:
	.loc 1 745 5
	.loc 1 745 8 is_stmt 0
	bne	s1,zero,.L154
	.loc 1 746 9 is_stmt 1
	.loc 1 746 22 is_stmt 0
	sb	zero,152(s0)
	.loc 1 755 5 is_stmt 1
.L155:
	.loc 1 759 5
	mv	a1,s0
	mv	a0,s0
	call	calc_syndromes
.LVL444:
	.loc 1 762 5
	.loc 1 763 5
	.loc 1 763 25 is_stmt 0
	lbu	a3,104(s0)
	.loc 1 763 5
	li	a4,0
.LVL445:
.L159:
	.loc 1 763 17 is_stmt 1 discriminator 1
	.loc 1 763 5 is_stmt 0 discriminator 1
	andi	a5,a4,0xff
	bgtu	a3,a5,.L161
.LVL446:
.L162:
	.loc 1 809 5 is_stmt 1
	.loc 1 809 21 is_stmt 0
	li	a5,-128
.LBB791:
.LBB792:
	.loc 1 127 26
	lw	a1,16(s0)
.LBE792:
.LBE791:
	.loc 1 809 21
	sb	a5,20(s0)
	.loc 1 810 5 is_stmt 1
.LVL447:
.LBB794:
.LBB793:
	.loc 1 125 5
	.loc 1 127 5
	.loc 1 127 31 is_stmt 0
	lhu	a5,14(s0)
.LBE793:
.LBE794:
	.loc 1 810 5
	li	a2,128
	mv	a0,s3
	add	a1,a1,a5
	call	memcpy
.LVL448:
	.loc 1 811 5 is_stmt 1
	.loc 1 811 12 is_stmt 0
	li	a0,0
	j	.L174
.LVL449:
.L154:
	.loc 1 748 9 is_stmt 1
	li	a3,0
	andi	a2,s4,0xff
	mv	a1,s1
	mv	a0,s2
	call	poly_set
.LVL450:
	.loc 1 749 9
	.loc 1 749 16 is_stmt 0
	li	a5,0
.LVL451:
.L156:
	.loc 1 749 21 is_stmt 1 discriminator 1
	.loc 1 749 29 is_stmt 0 discriminator 1
	lbu	a4,152(s0)
	.loc 1 749 9 discriminator 1
	bgtu	a4,a5,.L157
	.loc 1 755 5 is_stmt 1
	.loc 1 755 8 is_stmt 0
	li	a5,126
.LVL452:
	bleu	a4,a5,.L155
.LVL453:
.L164:
	.loc 1 755 36
	li	a0,1
.LVL454:
.L174:
	.loc 1 812 1
	lw	ra,28(sp)
	.cfi_remember_state
	.cfi_restore 1
	lw	s0,24(sp)
	.cfi_restore 8
.LVL455:
	lw	s1,20(sp)
	.cfi_restore 9
	lw	s2,16(sp)
	.cfi_restore 18
.LVL456:
	lw	s3,12(sp)
	.cfi_restore 19
.LVL457:
	lw	s4,8(sp)
	.cfi_restore 20
	lw	s5,4(sp)
	.cfi_restore 21
.LVL458:
	addi	sp,sp,32
	.cfi_def_cfa_offset 0
	jr	ra
.LVL459:
.L157:
	.cfi_restore_state
	.loc 1 750 13 is_stmt 1
.LBB795:
.LBB796:
	.loc 1 148 5
	.loc 1 150 5
	.loc 1 152 5
.LBB797:
.LBB798:
	.loc 1 125 5
	.loc 1 127 5
.LBE798:
.LBE797:
	.loc 1 154 5
.LBE796:
.LBE795:
.LBB802:
.LBB803:
	.loc 1 148 5
	.loc 1 150 5
	.loc 1 152 5
.LBB804:
.LBB805:
	.loc 1 125 5
	.loc 1 127 5
.LBE805:
.LBE804:
	.loc 1 154 5
.LBE803:
.LBE802:
	.loc 1 750 14 is_stmt 0
	lw	a4,148(s0)
.LBB810:
.LBB801:
.LBB800:
.LBB799:
	.loc 1 127 31
	lhu	a3,146(s0)
.LBE799:
.LBE800:
.LBE801:
.LBE810:
	.loc 1 750 14
	add	a4,a4,a5
	add	a4,a4,a3
.LBB811:
.LBB808:
	.loc 1 154 16
	lbu	a2,0(a4)
.LBE808:
.LBE811:
	.loc 1 750 49
	lw	a4,4(s0)
.LBB812:
.LBB809:
.LBB807:
.LBB806:
	.loc 1 127 31
	lhu	a3,2(s0)
.LBE806:
.LBE807:
.LBE809:
.LBE812:
	.loc 1 749 40
	addi	a5,a5,1
.LVL460:
	.loc 1 750 49
	add	a4,a4,a2
	add	a4,a4,a3
	sb	zero,0(a4)
.LVL461:
	.loc 1 749 39 is_stmt 1
	.loc 1 749 40 is_stmt 0
	andi	a5,a5,0xff
.LVL462:
	j	.L156
.LVL463:
.L161:
	.loc 1 764 9 is_stmt 1
.LBB813:
.LBB814:
	.loc 1 148 5
	.loc 1 150 5
	.loc 1 152 5
.LBB815:
.LBB816:
	.loc 1 125 5
	.loc 1 127 5
.LBE816:
.LBE815:
	.loc 1 154 5
.LBE814:
.LBE813:
	.loc 1 764 13 is_stmt 0
	lw	a5,100(s0)
.LBB820:
.LBB819:
.LBB818:
.LBB817:
	.loc 1 127 31
	lhu	a2,98(s0)
.LBE817:
.LBE818:
.LBE819:
.LBE820:
	.loc 1 764 13
	add	a5,a5,a4
	add	a5,a5,a2
	lbu	a5,0(a5)
	.loc 1 764 12
	addi	a4,a4,1
.LVL464:
	beq	a5,zero,.L159
	.loc 1 731 15
	addi	s4,s0,96
.LVL465:
	.loc 1 771 5 is_stmt 1
	.loc 1 775 5
	li	a3,254
	mv	a2,s2
	mv	a1,s4
	mv	a0,s0
	call	calc_forney_syndromes
.LVL466:
	.loc 1 776 5
	lbu	a3,152(s0)
	li	a2,0
	addi	a1,s0,108
	mv	a0,s0
	call	find_error_locator
.LVL467:
	.loc 1 782 5
	.loc 1 782 25 is_stmt 0
	lbu	a5,140(s0)
	.loc 1 784 5
	li	a4,0
	.loc 1 782 19
	sb	a5,44(s0)
	.loc 1 784 5 is_stmt 1
	.loc 1 784 28 is_stmt 0
	addi	a5,a5,-1
	andi	a2,a5,0xff
	.loc 1 784 14
	slli	a5,a5,24
	srai	a5,a5,24
.LVL468:
	.loc 1 784 5
	j	.L166
.LVL469:
.L163:
	.loc 1 785 9 is_stmt 1 discriminator 3
.LBB821:
.LBB822:
	.loc 1 148 5 discriminator 3
	.loc 1 150 5 discriminator 3
	.loc 1 152 5 discriminator 3
.LBB823:
.LBB824:
	.loc 1 125 5 discriminator 3
	.loc 1 127 5 discriminator 3
.LBE824:
.LBE823:
	.loc 1 154 5 discriminator 3
.LBE822:
.LBE821:
.LBB829:
.LBB830:
	.loc 1 148 5 discriminator 3
	.loc 1 150 5 discriminator 3
	.loc 1 152 5 discriminator 3
.LBB831:
.LBB832:
	.loc 1 125 5 discriminator 3
	.loc 1 127 5 discriminator 3
.LBE832:
.LBE831:
	.loc 1 154 5 discriminator 3
.LBE830:
.LBE829:
.LBB836:
.LBB827:
.LBB826:
.LBB825:
	.loc 1 127 31 is_stmt 0 discriminator 3
	lhu	a0,134(s0)
.LBE825:
.LBE826:
.LBE827:
.LBE836:
	.loc 1 785 30 discriminator 3
	lw	a3,136(s0)
.LBB837:
.LBB828:
	.loc 1 154 16 discriminator 3
	sub	a1,a5,a4
.LBE828:
.LBE837:
	.loc 1 785 30 discriminator 3
	add	a3,a3,a0
.LVL470:
	add	a3,a3,a1
.LVL471:
	lbu	a1,0(a3)
	.loc 1 785 28 discriminator 3
	lw	a3,40(s0)
.LBB838:
.LBB835:
.LBB834:
.LBB833:
	.loc 1 127 31 discriminator 3
	lhu	a0,38(s0)
.LBE833:
.LBE834:
.LBE835:
.LBE838:
	.loc 1 785 28 discriminator 3
	add	a3,a3,a4
	add	a3,a3,a0
	sb	a1,0(a3)
.LVL472:
	.loc 1 784 49 is_stmt 1 discriminator 3
	addi	a4,a4,1
.LVL473:
.L166:
	.loc 1 784 39 discriminator 1
	.loc 1 784 5 is_stmt 0 discriminator 1
	sub	a3,a2,a4
	slli	a3,a3,24
	srai	a3,a3,24
	bge	a3,zero,.L163
	.loc 1 789 5 is_stmt 1
	.loc 1 789 10 is_stmt 0
	li	a2,254
	addi	a1,s0,36
	mv	a0,s0
	call	find_errors
.LVL474:
	.loc 1 790 5 is_stmt 1
	.loc 1 790 8 is_stmt 0
	beq	a0,zero,.L164
	.loc 1 795 5 is_stmt 1
	.loc 1 795 8 is_stmt 0
	lbu	a5,164(s0)
	beq	a5,zero,.L164
.LBB839:
	.loc 1 800 18
	li	s1,0
.LVL475:
.L165:
	.loc 1 801 9 is_stmt 1
.LBB840:
.LBB841:
	.loc 1 148 5
	.loc 1 150 5
	.loc 1 152 5
.LBB842:
.LBB843:
	.loc 1 125 5
	.loc 1 127 5
.LBE843:
.LBE842:
	.loc 1 154 5
.LBE841:
.LBE840:
	.loc 1 801 9 is_stmt 0
	lw	a5,160(s0)
.LBB847:
.LBB846:
.LBB845:
.LBB844:
	.loc 1 127 31
	lhu	a4,158(s0)
.LBE844:
.LBE845:
.LBE846:
.LBE847:
	.loc 1 801 9
	mv	a0,s2
	add	a5,a5,s1
	add	a5,a5,a4
	lbu	a1,0(a5)
	.loc 1 800 43
	addi	s1,s1,1
.LVL476:
	andi	s1,s1,0xff
	.loc 1 801 9
	call	poly_append
.LVL477:
	.loc 1 800 42 is_stmt 1
	.loc 1 800 25
	.loc 1 800 5 is_stmt 0
	lbu	a5,164(s0)
	bgtu	a5,s1,.L165
.LBE839:
	.loc 1 805 5 is_stmt 1
	mv	a3,s0
	mv	a2,s2
	mv	a1,s4
	mv	a0,s0
	call	correct_errata
.LVL478:
	j	.L162
	.cfi_endproc
.LFE35:
	.size	decode_block, .-decode_block
	.section	.text.reedsolomon_decode,"ax",@progbits
	.align	1
	.globl	reedsolomon_decode
	.type	reedsolomon_decode, @function
reedsolomon_decode:
.LFB36:
	.loc 1 820 1
	.cfi_startproc
.LVL479:
	.loc 1 821 5
	.loc 1 822 5
	.loc 1 823 5
	.loc 1 825 5
	.loc 1 820 1 is_stmt 0
	mv	a3,a2
	.loc 1 825 12
	li	a5,0
	li	a4,0
	addi	a2,a1,128
.LVL480:
	tail	decode_block
.LVL481:
	.cfi_endproc
.LFE36:
	.size	reedsolomon_decode, .-reedsolomon_decode
	.section	.rodata.reedsolomon_getmemsize.str1.4,"aMS",@progbits,1
	.align	2
.LC3:
	.string	"[%10u][%s: %s:%4d] sizeof(fec_t) = %d   sizeof(fec_context_t) = %d\r\n"
	.section	.text.reedsolomon_getmemsize,"ax",@progbits
	.align	1
	.globl	reedsolomon_getmemsize
	.type	reedsolomon_getmemsize, @function
reedsolomon_getmemsize:
.LFB37:
	.loc 1 831 1 is_stmt 1
	.cfi_startproc
	.loc 1 836 5
	.loc 1 839 5
	.loc 1 839 10
	.loc 1 839 12
	.loc 1 831 1 is_stmt 0
	addi	sp,sp,-16
	.cfi_def_cfa_offset 16
	sw	ra,12(sp)
	sw	s0,8(sp)
	.cfi_offset 1, -4
	.cfi_offset 8, -8
	.loc 1 839 100
	call	xPortIsInsideInterrupt
.LVL482:
	.loc 1 839 12
	beq	a0,zero,.L178
	.loc 1 839 127 discriminator 1
	call	xTaskGetTickCountFromISR
.LVL483:
.L181:
	.loc 1 839 12 discriminator 2
	li	s0,4096
	.loc 1 839 156 discriminator 2
	mv	a1,a0
	.loc 1 839 12 discriminator 2
	lui	a3,%hi(.LC0)
	lui	a2,%hi(.LC1)
	lui	a0,%hi(.LC3)
	addi	a6,s0,148
	addi	a5,s0,384
	addi	a0,a0,%lo(.LC3)
	li	a4,839
	addi	a3,a3,%lo(.LC0)
	addi	a2,a2,%lo(.LC1)
	call	bl_printk
.LVL484:
	.loc 1 839 247 is_stmt 1 discriminator 2
	.loc 1 839 256 discriminator 2
	.loc 1 840 5 discriminator 2
	.loc 1 841 1 is_stmt 0 discriminator 2
	lw	ra,12(sp)
	.cfi_remember_state
	.cfi_restore 1
	addi	a0,s0,148
	lw	s0,8(sp)
	.cfi_restore 8
	addi	sp,sp,16
	.cfi_def_cfa_offset 0
	jr	ra
.L178:
	.cfi_restore_state
	.loc 1 839 156 discriminator 2
	call	xTaskGetTickCount
.LVL485:
	j	.L181
	.cfi_endproc
.LFE37:
	.size	reedsolomon_getmemsize, .-reedsolomon_getmemsize
	.globl	code_log
	.globl	code_exp
	.section	.rodata.code_exp,"a"
	.align	2
	.set	.LANCHOR0,. + 0
	.type	code_exp, @object
	.size	code_exp, 512
code_exp:
	.ascii	"\001\002\004\b\020 @\200\035:t\350\315\207\023&L\230-Z\264u\352"
	.ascii	"\311\217\003\006\f\0300`\300\235'N\234%J\2245j\324\265w\356\301"
	.ascii	"\237#F\214\005\n\024(P\240]\272i\322\271o\336\241_\276a\302\231"
	.ascii	"/^\274e\312\211\017\036<x\360\375\347\323\273k\326\261\177\376"
	.ascii	"\341\337\243[\266q\342\331\257C\206\021\"D\210\r\0324h\320\275"
	.ascii	"g\316\201\037>|\370\355\307\223;v\354\305\2273f\314\205\027."
	.ascii	"\\\270m\332\251O\236!B\204\025*T\250M\232)R\244U\252I\2229r\344"
	.ascii	"\325\267s\346\321\277c\306\221?~\374\345\327\263{\366\361\377"
	.ascii	"\343\333\253K\2261b\304\2257n\334\245W\256A\202\0312d\310\215"
	.ascii	"\007\016\0348p\340\335\247S\246Q\242Y\262y\362\371\357\303\233"
	.ascii	"+V\254E\212\t\022$H\220=z\364\365\367\363\373\353\313\213\013"
	.ascii	"\026,X\260}\372\351\317\203\0336l\330\255G\216\001\002\004\b"
	.ascii	"\020 @\200\035:t\350\315\207\023&L\230-Z\264u\352\311\217\003"
	.ascii	"\006\f\0300`\300\235'N\234%J\2245j\324\265w\356\301\237#F\214"
	.ascii	"\005\n\024(P\240]\272i\322\271o\336\241_\276a\302\231/^\274e"
	.ascii	"\312\211\017\036<x\360\375\347\323\273k\326\261\177\376\341\337"
	.ascii	"\243[\266q\342\331\257C\206\021\"D\210\r\0324h\320\275g\316\201"
	.ascii	"\037>|\370\355\307\223;v\354\305\2273f\314\205\027.\\\270m\332"
	.ascii	"\251O\236!B\204\025*T\250M\232)R\244U\252I\2229r\344\325\267"
	.ascii	"s\346\321\277c\306\221?~\374\345\327\263{\366\361\377\343\333"
	.ascii	"\253K\2261b\304\2257n\334\245W\256A\202\0312d\310\215\007\016"
	.ascii	"\0348p\340\335\247S\246Q\242Y\262y\362\371\357\303\233+V\254"
	.ascii	"E\212\t\022$H\220=z\364\365\367\363\373\353\313\213\013\026,"
	.ascii	"X\260}\372\351\317\203\0336l\330\255G\216\001\002"
	.section	.rodata.code_log,"a"
	.align	2
	.set	.LANCHOR1,. + 0
	.type	code_log, @object
	.size	code_log, 256
code_log:
	.string	""
	.string	""
	.ascii	"\001\031\0022\032\306\003\3373\356\033h\307K\004d\340\0164\215"
	.ascii	"\357\201\034\301i\370\310\bLq\005\212e/\341$\017!5\223\216\332"
	.ascii	"\360\022\202E\035\265\302}j'\371\271\311\232\txM\344r\246\006"
	.ascii	"\277\213bf\3350\375\342\230%\263\020\221\"\2106\320\224\316\217"
	.ascii	"\226\333\275\361\322\023\\\2038F@\036B\266\243\303H~nk:(T\372"
	.ascii	"\205\272=\312^\233\237\n\025y+N\324\345\254s\363\247W\007p\300"
	.ascii	"\367\214\200c\rgJ\336\3551\305\376\030\343\245\231w&\270\264"
	.ascii	"|\021D\222\331# \211.7?\321[\225\274\317\315\220\207\227\262"
	.ascii	"\334\374\276a\362V\323\253\024*]\236\204<9SGmA\242\037-C\330"
	.ascii	"\267{\244v\304\027I\354\177\fo\366l\241;R)\235U\252\373`\206"
	.ascii	"\261\273\314>Z\313Y_\260\234\251\240Q\013\365\026\353zu,\327"
	.ascii	"O\256\325\351\346\347\255\350t\326\364\352\250PX\257"
	.text
.Letext0:
	.file 2 "/mnt/d/GitHub/bl_iot_sdk_for_aithinker/toolchain/riscv/Linux/lib/gcc/riscv64-unknown-elf/10.2.0/include/stdint-gcc.h"
	.file 3 "/mnt/d/GitHub/bl_iot_sdk_for_aithinker/components/platform/soc/bl602/freertos_riscv_ram/portable/GCC/RISC-V/portmacro.h"
	.file 4 "/mnt/d/GitHub/bl_iot_sdk_for_aithinker/components/platform/soc/bl602/freertos_riscv_ram/config/task.h"
	.file 5 "/mnt/d/GitHub/bl_iot_sdk_for_aithinker/components/utils/include/utils_log.h"
	.file 6 "/mnt/d/GitHub/bl_iot_sdk_for_aithinker/toolchain/riscv/Linux/riscv64-unknown-elf/include/string.h"