	.file	"utils_hexdump.c"
	.option nopic
	.attribute arch, "rv32i2p0_m2p0_f2p0_c2p0"
	.attribute unaligned_access, 0
	.attribute stack_align, 16
	.text
.Ltext0:
	.cfi_sections	.debug_frame
	.section	.rodata.utils_hexdump.str1.4,"aMS",@progbits,1
	.align	2
.LC0:
	.string	"0x%06x: "
	.align	2
.LC1:
	.string	"%02x "
	.align	2
.LC2:
	.string	"   "
	.align	2
.LC3:
	.string	"\r\n"
	.section	.text.utils_hexdump,"ax",@progbits
	.align	1
	.globl	utils_hexdump
	.type	utils_hexdump, @function
utils_hexdump:
.LFB4:
	.file 1 "/mnt/d/GitHub/bl_iot_sdk_for_aithinker/components/utils/src/utils_hexdump.c"
	.loc 1 13 1
	.cfi_startproc
.LVL0:
	.loc 1 14 5
	.loc 1 16 5
	.loc 1 13 1 is_stmt 0
	addi	sp,sp,-64
	.cfi_def_cfa_offset 64
	sw	s1,52(sp)
	sw	s2,48(sp)
	sw	s3,44(sp)
	sw	ra,60(sp)
	sw	s0,56(sp)
	sw	s4,40(sp)
	sw	s5,36(sp)
	sw	s6,32(sp)
	sw	s7,28(sp)
	sw	s8,24(sp)
	sw	s9,20(sp)
	sw	s10,16(sp)
	sw	s11,12(sp)
	.cfi_offset 9, -12
	.cfi_offset 18, -16
	.cfi_offset 19, -20
	.cfi_offset 1, -4
	.cfi_offset 8, -8
	.cfi_offset 20, -24
	.cfi_offset 21, -28
	.cfi_offset 22, -32
	.cfi_offset 23, -36
	.cfi_offset 24, -40
	.cfi_offset 25, -44
	.cfi_offset 26, -48
	.cfi_offset 27, -52
	.loc 1 16 33
	andi	a5,a1,15
	.loc 1 13 1
	mv	s3,a0
	mv	s2,a1
	li	s1,0
	.loc 1 16 25
	beq	a5,zero,.L3
	.loc 1 16 57
	li	s1,16
	sub	s1,s1,a5
.L3:
	.loc 1 36 29
	lui	s4,%hi(_ctype_+1)
	.loc 1 16 25
	add	s1,s1,s2
	.loc 1 16 12
	li	s0,0
	.loc 1 19 13
	lui	s6,%hi(.LC0)
	.loc 1 27 13
	lui	s7,%hi(.LC2)
	.loc 1 24 13
	lui	s8,%hi(.LC1)
	.loc 1 31 12
	li	s9,15
	.loc 1 36 29
	addi	s4,s4,%lo(_ctype_+1)
	.loc 1 44 13
	lui	s10,%hi(.LC3)
.LVL1:
.L4:
	.loc 1 16 17 is_stmt 1 discriminator 1
	.loc 1 16 5 is_stmt 0 discriminator 1
	bne	s1,s0,.L16
	.loc 1 47 1
	lw	ra,60(sp)
	.cfi_remember_state
	.cfi_restore 1
	lw	s0,56(sp)
	.cfi_restore 8
.LVL2:
	lw	s1,52(sp)
	.cfi_restore 9
	lw	s2,48(sp)
	.cfi_restore 18
.LVL3:
	lw	s3,44(sp)
	.cfi_restore 19
.LVL4:
	lw	s4,40(sp)
	.cfi_restore 20
	lw	s5,36(sp)
	.cfi_restore 21
	lw	s6,32(sp)
	.cfi_restore 22
	lw	s7,28(sp)
	.cfi_restore 23
	lw	s8,24(sp)
	.cfi_restore 24
	lw	s9,20(sp)
	.cfi_restore 25
	lw	s10,16(sp)
	.cfi_restore 26
	lw	s11,12(sp)
	.cfi_restore 27
	addi	sp,sp,64
	.cfi_def_cfa_offset 0
	jr	ra
.LVL5:
.L16:
	.cfi_restore_state
	.loc 1 18 9 is_stmt 1
	.loc 1 18 15 is_stmt 0
	andi	s11,s0,15
	.loc 1 18 12
	bne	s11,zero,.L5
	.loc 1 19 13 is_stmt 1
	mv	a1,s0
	addi	a0,s6,%lo(.LC0)
	call	printf
.LVL6:
.L5:
	.loc 1 23 9
	.loc 1 23 12 is_stmt 0
	bgeu	s0,s2,.L6
	.loc 1 24 13 is_stmt 1
	.loc 1 24 48 is_stmt 0
	add	a5,s3,s0
	.loc 1 24 13
	lbu	a1,0(a5)
	addi	a0,s8,%lo(.LC1)
	call	printf
.LVL7:
.L7:
	.loc 1 31 9 is_stmt 1
	addi	s5,s0,1
	.loc 1 31 12 is_stmt 0
	bne	s11,s9,.L8
	.loc 1 32 13 is_stmt 1
	.loc 1 32 20 is_stmt 0
	addi	s11,s0,-15
.LVL8:
	li	a5,17
	bleu	s11,s5,.L10
	li	a5,1
.L10:
	addi	s0,s0,-16
.LVL9:
	add	s0,a5,s0
.LVL10:
.L11:
	.loc 1 32 36 is_stmt 1 discriminator 1
	.loc 1 32 13 is_stmt 0 discriminator 1
	bne	s11,s0,.L15
	.loc 1 44 13 is_stmt 1
	addi	a0,s10,%lo(.LC3)
	call	puts
.LVL11:
.L8:
	.loc 1 16 63 discriminator 2
	.loc 1 16 64 is_stmt 0 discriminator 2
	mv	s0,s5
.LVL12:
	j	.L4
.LVL13:
.L6:
	.loc 1 27 13 is_stmt 1
	addi	a0,s7,%lo(.LC2)
	call	printf
.LVL14:
	j	.L7
.LVL15:
.L15:
	.loc 1 33 17
	.loc 1 35 21 is_stmt 0
	li	a0,32
	.loc 1 33 20
	bgeu	s11,s2,.L20
	.loc 1 36 24 is_stmt 1
	.loc 1 36 43 is_stmt 0
	add	a5,s3,s11
	lbu	a0,0(a5)
	.loc 1 36 29
	add	a5,a0,s4
	.loc 1 36 26
	lbu	a5,0(a5)
	andi	a5,a5,151
	beq	a5,zero,.L14
.L20:
	.loc 1 41 21
	call	bl_putchar
.LVL16:
	.loc 1 32 44 is_stmt 1
	.loc 1 32 45 is_stmt 0
	addi	s11,s11,1
.LVL17:
	j	.L11
.L14:
	.loc 1 41 21 is_stmt 1
	li	a0,46
	j	.L20
	.cfi_endproc
.LFE4:
	.size	utils_hexdump, .-utils_hexdump
	.text
.Letext0:
	.file 2 "/mnt/d/GitHub/bl_iot_sdk_for_aithinker/toolchain/riscv/Linux/riscv64-unknown-elf/include/stdio.h"
	.file 3 "/mnt/d/GitHub/bl_iot_sdk_for_aithinker/toolchain/riscv/Linux/riscv64-unknown-elf/include/ctype.h"