	.file	"utils_base64.c"
	.option nopic
	.attribute arch, "rv32i2p0_m2p0_f2p0_c2p0"
	.attribute unaligned_access, 0
	.attribute stack_align, 16
	.text
.Ltext0:
	.cfi_sections	.debug_frame
	.section	.rodata.utils_base64encode.str1.4,"aMS",@progbits,1
	.align	2
.LC0:
	.string	"utils_base64.c"
	.align	2
.LC1:
	.string	"ERROR "
	.align	2
.LC2:
	.string	"[%10u][%s: %s:%4d] pointer of encodedData is NULL!\r\n"
	.align	2
.LC3:
	.string	"[%10u][%s: %s:%4d] the length of output memory is not enough!\r\n"
	.section	.text.utils_base64encode,"ax",@progbits
	.align	1
	.globl	utils_base64encode
	.type	utils_base64encode, @function
utils_base64encode:
.LFB5:
	.file 1 "/mnt/d/GitHub/bl_iot_sdk_for_aithinker/components/utils/src/utils_base64.c"
	.loc 1 42 1
	.cfi_startproc
.LVL0:
	.loc 1 43 5
	.loc 1 44 5
	.loc 1 46 5
	.loc 1 42 1 is_stmt 0
	addi	sp,sp,-16
	.cfi_def_cfa_offset 16
	sw	ra,12(sp)
	.cfi_offset 1, -4
	.loc 1 46 8
	bne	a3,zero,.L2
	.loc 1 47 9 is_stmt 1
	.loc 1 47 14
	.loc 1 47 16
	.loc 1 47 88 is_stmt 0
	call	xPortIsInsideInterrupt
.LVL1:
	.loc 1 47 16
	beq	a0,zero,.L3
	.loc 1 47 115 discriminator 1
	call	xTaskGetTickCountFromISR
.LVL2:
.L17:
	.loc 1 47 144 discriminator 2
	mv	a1,a0
	.loc 1 47 16 discriminator 2
	lui	a3,%hi(.LC0)
	lui	a2,%hi(.LC1)
	lui	a0,%hi(.LC2)
	li	a4,47
	addi	a3,a3,%lo(.LC0)
	addi	a2,a2,%lo(.LC1)
	addi	a0,a0,%lo(.LC2)
.L20:
	.loc 1 54 16 discriminator 4
	call	bl_printk
.LVL3:
	.loc 1 54 210 is_stmt 1 discriminator 4
	.loc 1 54 219 discriminator 4
	.loc 1 55 9 discriminator 4
	.loc 1 55 16 is_stmt 0 discriminator 4
	li	a0,0
.LVL4:
.L1:
	.loc 1 76 1
	lw	ra,12(sp)
	.cfi_remember_state
	.cfi_restore 1
	addi	sp,sp,16
	.cfi_def_cfa_offset 0
	jr	ra
.LVL5:
.L3:
	.cfi_restore_state
	.loc 1 47 144 discriminator 2
	call	xTaskGetTickCount
.LVL6:
	j	.L17
.LVL7:
.L2:
	.loc 1 51 5 is_stmt 1
	.loc 1 51 39 is_stmt 0
	addi	a5,a1,2
	.loc 1 51 44
	li	a6,3
	divu	a5,a5,a6
	.loc 1 51 23
	slli	a5,a5,2
	.loc 1 51 19
	sw	a5,0(a4)
	.loc 1 53 5 is_stmt 1
	.loc 1 53 8 is_stmt 0
	bgtu	a5,a2,.L6
.LBB2:
	.loc 1 65 43
	lui	t1,%hi(.LANCHOR0)
	mv	a7,a3
.LBE2:
	.loc 1 58 12
	li	a2,0
.LVL8:
.LBB3:
	.loc 1 65 43
	addi	t1,t1,%lo(.LANCHOR0)
.LVL9:
.L7:
.LBE3:
	.loc 1 58 24 is_stmt 1 discriminator 1
	.loc 1 58 5 is_stmt 0 discriminator 1
	bltu	a2,a1,.L11
	.loc 1 71 44
	li	a5,3
	remu	a1,a1,a5
.LVL10:
	.loc 1 71 31
	lui	a5,%hi(.LANCHOR1)
	addi	a5,a5,%lo(.LANCHOR1)
	.loc 1 71 12
	li	a2,0
.LVL11:
	.loc 1 72 44
	li	a0,61
.LVL12:
	.loc 1 71 31
	slli	a1,a1,2
	add	a1,a5,a1
	lw	a1,0(a1)
.L12:
.LVL13:
	.loc 1 71 17 is_stmt 1 discriminator 1
	.loc 1 71 5 is_stmt 0 discriminator 1
	bne	a1,a2,.L13
	.loc 1 75 12
	li	a0,1
	j	.L1
.LVL14:
.L6:
	.loc 1 54 9 is_stmt 1
	.loc 1 54 14
	.loc 1 54 16
	.loc 1 54 99 is_stmt 0
	call	xPortIsInsideInterrupt
.LVL15:
	.loc 1 54 16
	beq	a0,zero,.L8
	.loc 1 54 126 discriminator 1
	call	xTaskGetTickCountFromISR
.LVL16:
.L18:
	.loc 1 54 155 discriminator 2
	mv	a1,a0
	.loc 1 54 16 discriminator 2
	lui	a3,%hi(.LC0)
	lui	a2,%hi(.LC1)
	lui	a0,%hi(.LC3)
	li	a4,54
	addi	a3,a3,%lo(.LC0)
	addi	a2,a2,%lo(.LC1)
	addi	a0,a0,%lo(.LC3)
	j	.L20
.L8:
	.loc 1 54 155 discriminator 2
	call	xTaskGetTickCount
.LVL17:
	j	.L18
.LVL18:
.L11:
.LBB4:
	.loc 1 59 9 is_stmt 1 discriminator 1
	.loc 1 59 60 is_stmt 0 discriminator 1
	add	a5,a0,a2
	.loc 1 59 62 discriminator 1
	addi	a6,a2,1
.LVL19:
	.loc 1 59 66 discriminator 1
	lbu	a5,0(a5)
.LVL20:
	.loc 1 60 9 is_stmt 1 discriminator 1
	.loc 1 60 66 is_stmt 0 discriminator 1
	bleu	a1,a6,.L14
	.loc 1 60 60 discriminator 1
	add	a6,a0,a6
.LVL21:
	.loc 1 60 62 discriminator 1
	addi	t3,a2,2
.LVL22:
	.loc 1 60 66 discriminator 1
	lbu	t4,0(a6)
.LVL23:
	.loc 1 61 9 is_stmt 1 discriminator 1
	.loc 1 61 66 is_stmt 0 discriminator 1
	bleu	a1,t3,.L15
	.loc 1 61 60 discriminator 1
	add	t3,a0,t3
.LVL24:
	.loc 1 61 62 discriminator 1
	addi	a6,a2,3
.LVL25:
	.loc 1 61 66 discriminator 1
	lbu	a2,0(t3)
.LVL26:
.L10:
	.loc 1 63 9 is_stmt 1 discriminator 4
	.loc 1 63 36 is_stmt 0 discriminator 4
	slli	a5,a5,16
.LVL27:
	.loc 1 63 56 discriminator 4
	slli	t4,t4,8
	.loc 1 63 45 discriminator 4
	add	a5,a5,t4
	.loc 1 63 18 discriminator 4
	add	a2,a5,a2
.LVL28:
	.loc 1 65 9 is_stmt 1 discriminator 4
	.loc 1 65 52 is_stmt 0 discriminator 4
	srli	t3,a5,18
	.loc 1 66 52 discriminator 4
	srli	a5,a5,12
	.loc 1 66 62 discriminator 4
	andi	a5,a5,63
	.loc 1 66 43 discriminator 4
	add	a5,t1,a5
	.loc 1 66 26 discriminator 4
	lbu	a5,0(a5)
	.loc 1 65 43 discriminator 4
	add	t3,t1,t3
	.loc 1 65 26 discriminator 4
	lbu	t3,0(t3)
	.loc 1 66 26 discriminator 4
	sb	a5,1(a7)
	.loc 1 67 52 discriminator 4
	srli	a5,a2,6
	.loc 1 67 62 discriminator 4
	andi	a5,a5,63
	.loc 1 67 43 discriminator 4
	add	a5,t1,a5
	.loc 1 67 26 discriminator 4
	lbu	a5,0(a5)
	.loc 1 68 62 discriminator 4
	andi	a2,a2,63
.LVL29:
	.loc 1 68 43 discriminator 4
	add	a2,t1,a2
	.loc 1 67 26 discriminator 4
	sb	a5,2(a7)
	.loc 1 68 26 discriminator 4
	lbu	a5,0(a2)
	.loc 1 65 26 discriminator 4
	sb	t3,0(a7)
	.loc 1 66 9 is_stmt 1 discriminator 4
.LVL30:
	.loc 1 67 9 discriminator 4
	.loc 1 68 9 discriminator 4
	.loc 1 68 26 is_stmt 0 discriminator 4
	mv	a2,a6
	sb	a5,3(a7)
	addi	a7,a7,4
.LVL31:
	j	.L7
.LVL32:
.L14:
	.loc 1 60 66
	li	t4,0
.L19:
	.loc 1 61 66
	li	a2,0
	j	.L10
.LVL33:
.L15:
	mv	a6,t3
	j	.L19
.LVL34:
.L13:
.LBE4:
	.loc 1 72 9 is_stmt 1 discriminator 3
	.loc 1 72 39 is_stmt 0 discriminator 3
	lw	a5,0(a4)
	addi	a5,a5,-1
	sub	a5,a5,a2
	.loc 1 72 44 discriminator 3
	add	a5,a3,a5
	sb	a0,0(a5)
	.loc 1 71 50 is_stmt 1 discriminator 3
	.loc 1 71 51 is_stmt 0 discriminator 3
	addi	a2,a2,1
.LVL35:
	j	.L12
	.cfi_endproc
.LFE5:
	.size	utils_base64encode, .-utils_base64encode
	.section	.text.utils_base64_encode_stream,"ax",@progbits
	.align	1
	.globl	utils_base64_encode_stream
	.type	utils_base64_encode_stream, @function
utils_base64_encode_stream:
.LFB6:
	.loc 1 87 1 is_stmt 1
	.cfi_startproc
.LVL36:
	.loc 1 88 3
	.loc 1 89 3
	.loc 1 91 3
	.loc 1 91 9
	.loc 1 87 1 is_stmt 0
	addi	sp,sp,-64
	.cfi_def_cfa_offset 64
	sw	s2,48(sp)
	.cfi_offset 18, -16
.LBB5:
	.loc 1 102 37
	lui	s2,%hi(.LANCHOR0)
.LBE5:
	.loc 1 87 1
	sw	s1,52(sp)
	sw	s3,44(sp)
	sw	s4,40(sp)
	sw	s5,36(sp)
	sw	s6,32(sp)
	sw	s7,28(sp)
	sw	ra,60(sp)
	sw	s0,56(sp)
	sw	s8,24(sp)
	.cfi_offset 9, -12
	.cfi_offset 19, -20
	.cfi_offset 20, -24
	.cfi_offset 21, -28
	.cfi_offset 22, -32
	.cfi_offset 23, -36
	.cfi_offset 1, -4
	.cfi_offset 8, -8
	.cfi_offset 24, -40
	.loc 1 87 1
	mv	s3,a0
	mv	s4,a1
	mv	s7,a2
	.loc 1 89 16
	li	s1,-1
.LBB6:
	.loc 1 93 97
	li	s6,-1
	.loc 1 102 37
	addi	s2,s2,%lo(.LANCHOR0)
	addi	s5,sp,12
.LVL37:
.L33:
	.loc 1 92 5 is_stmt 1
	.loc 1 92 31 is_stmt 0
	mv	a1,s7
	addi	a0,sp,11
	jalr	s3
.LVL38:
	.loc 1 92 106
	beq	a0,zero,.L22
	.loc 1 92 67 discriminator 1
	bge	s1,zero,.L23
	li	s1,0
.L23:
.LVL39:
	.loc 1 92 106 discriminator 1
	li	s0,0
.LVL40:
.L24:
	.loc 1 93 5 is_stmt 1 discriminator 4
	.loc 1 93 31 is_stmt 0 discriminator 4
	mv	a1,s7
	addi	a0,sp,11
.LVL41:
	jalr	s3
.LVL42:
	.loc 1 93 106 discriminator 4
	beq	a0,zero,.L25
	.loc 1 93 106 discriminator 1
	li	s8,0
	.loc 1 93 97 discriminator 1
	bne	s1,s6,.L26
	.loc 1 93 97
	li	s1,1
.LVL43:
.L26:
	.loc 1 94 5 is_stmt 1 discriminator 8
	.loc 1 94 31 is_stmt 0 discriminator 8
	mv	a1,s7
	addi	a0,sp,11
.LVL44:
	jalr	s3
.LVL45:
	.loc 1 94 106 discriminator 8
	beq	a0,zero,.L27
	.loc 1 94 106 discriminator 1
	li	a4,0
	.loc 1 94 97 discriminator 1
	bne	s1,s6,.L28
	.loc 1 94 97
	li	s1,2
.LVL46:
.L28:
	.loc 1 96 5 is_stmt 1 discriminator 8
	.loc 1 96 32 is_stmt 0 discriminator 8
	slli	a5,s0,16
	.loc 1 96 52 discriminator 8
	slli	s8,s8,8
.LVL47:
	.loc 1 96 41 discriminator 8
	add	a5,a5,s8
	.loc 1 96 14 discriminator 8
	add	a5,a5,a4
.LVL48:
	.loc 1 98 5 is_stmt 1 discriminator 8
	.loc 1 98 8 is_stmt 0 discriminator 8
	beq	a0,zero,.L29
	.loc 1 98 13 discriminator 1
	beq	s1,zero,.L21
.L29:
.LVL49:
	.loc 1 102 5 is_stmt 1
	.loc 1 102 46 is_stmt 0
	srli	a4,a5,18
	.loc 1 102 37
	add	a4,s2,a4
	.loc 1 102 20
	lbu	a4,0(a4)
	sb	a4,12(sp)
	.loc 1 103 5 is_stmt 1
	.loc 1 103 46 is_stmt 0
	srli	a4,a5,12
	.loc 1 103 56
	andi	a4,a4,63
	.loc 1 103 37
	add	a4,s2,a4
	.loc 1 103 20
	lbu	a4,0(a4)
	sb	a4,13(sp)
	.loc 1 104 5 is_stmt 1
	.loc 1 104 46 is_stmt 0
	srli	a4,a5,6
	.loc 1 104 56
	andi	a4,a4,63
	.loc 1 105 56
	andi	a5,a5,63
	.loc 1 104 37
	add	a4,s2,a4
	.loc 1 105 37
	add	a5,s2,a5
	.loc 1 104 20
	lbu	a4,0(a4)
	.loc 1 105 20
	lbu	a5,0(a5)
	.loc 1 104 20
	sb	a4,14(sp)
	.loc 1 105 5 is_stmt 1
	.loc 1 105 20 is_stmt 0
	sb	a5,15(sp)
	.loc 1 107 5 is_stmt 1
	.loc 1 107 8 is_stmt 0
	beq	a0,zero,.L31
.LBE6:
	.loc 1 112 29
	slli	a5,s1,2
	lui	s1,%hi(.LANCHOR1)
	addi	s1,s1,%lo(.LANCHOR1)
	add	s1,s1,a5
	lw	a4,0(s1)
	mv	a5,s5
	.loc 1 113 24
	li	a2,61
.LVL50:
.L32:
	.loc 1 112 15 is_stmt 1 discriminator 1
	.loc 1 112 3 is_stmt 0 discriminator 1
	sub	a3,s5,a5
	blt	a3,a4,.L34
	.loc 1 116 3 is_stmt 1
	mv	a1,s7
	mv	a0,s5
	jalr	s4
.LVL51:
	.loc 1 118 3
.L21:
	.loc 1 119 1 is_stmt 0
	lw	ra,60(sp)
	.cfi_remember_state
	.cfi_restore 1
	lw	s0,56(sp)
	.cfi_restore 8
.LVL52:
	lw	s1,52(sp)
	.cfi_restore 9
	lw	s2,48(sp)
	.cfi_restore 18
	lw	s3,44(sp)
	.cfi_restore 19
.LVL53:
	lw	s4,40(sp)
	.cfi_restore 20
.LVL54:
	lw	s5,36(sp)
	.cfi_restore 21
	lw	s6,32(sp)
	.cfi_restore 22
	lw	s7,28(sp)
	.cfi_restore 23
.LVL55:
	lw	s8,24(sp)
	.cfi_restore 24
	addi	sp,sp,64
	.cfi_def_cfa_offset 0
	jr	ra
.LVL56:
.L22:
	.cfi_restore_state
.LBB7:
	.loc 1 92 106 discriminator 2
	lbu	s0,11(sp)
	j	.L24
.LVL57:
.L25:
	.loc 1 93 106 discriminator 2
	lbu	s8,11(sp)
	j	.L26
.LVL58:
.L27:
	.loc 1 94 106 discriminator 2
	lbu	a4,11(sp)
	j	.L28
.LVL59:
.L31:
	.loc 1 108 7 is_stmt 1
	mv	a1,s7
	mv	a0,s5
.LVL60:
	jalr	s4
.LVL61:
.LBE7:
	.loc 1 91 9
	j	.L33
.LVL62:
.L34:
	.loc 1 113 5 discriminator 3
	.loc 1 113 24 is_stmt 0 discriminator 3
	sb	a2,3(a5)
	.loc 1 112 42 is_stmt 1 discriminator 3
.LVL63:
	addi	a5,a5,-1
.LVL64:
	j	.L32
	.cfi_endproc
.LFE6:
	.size	utils_base64_encode_stream, .-utils_base64_encode_stream
	.section	.rodata.utils_base64decode.str1.4,"aMS",@progbits,1
	.align	2
.LC4:
	.string	"[%10u][%s: %s:%4d] the input length is error!\r\n"
	.section	.text.utils_base64decode,"ax",@progbits
	.align	1
	.globl	utils_base64decode
	.type	utils_base64decode, @function
utils_base64decode:
.LFB7:
	.loc 1 123 1
	.cfi_startproc
.LVL65:
	.loc 1 124 5
	.loc 1 125 5
	.loc 1 127 5
.LBB10:
.LBB11:
	.loc 1 25 5
	.loc 1 26 5
	.loc 1 28 5
	.loc 1 28 16 is_stmt 0
	lui	a6,%hi(.LANCHOR2)
	lw	a5,%lo(.LANCHOR2)(a6)
.LBE11:
.LBE10:
	.loc 1 123 1
	addi	sp,sp,-16
	.cfi_def_cfa_offset 16
	sw	ra,12(sp)
	sw	s0,8(sp)
	.cfi_offset 1, -4
	.cfi_offset 8, -8
.LBB13:
.LBB12:
	.loc 1 28 8
	bne	a5,zero,.L45
	.loc 1 33 55
	lui	t1,%hi(.LANCHOR3)
	.loc 1 33 50
	lui	t3,%hi(.LANCHOR0)
	addi	a6,a6,%lo(.LANCHOR2)
	.loc 1 33 55
	addi	t1,t1,%lo(.LANCHOR3)
	.loc 1 33 50
	addi	t3,t3,%lo(.LANCHOR0)
	.loc 1 32 5
	li	t4,64
.LVL66:
.L46:
	.loc 1 33 9 is_stmt 1
	.loc 1 33 50 is_stmt 0
	add	a7,t3,a5
	.loc 1 33 25
	lbu	a7,0(a7)
	.loc 1 33 55
	add	a7,t1,a7
	sb	a5,0(a7)
	.loc 1 32 25 is_stmt 1
	.loc 1 32 26 is_stmt 0
	addi	a5,a5,1
.LVL67:
	.loc 1 32 17 is_stmt 1
	.loc 1 32 5 is_stmt 0
	bne	a5,t4,.L46
	.loc 1 36 5 is_stmt 1
	.loc 1 36 12 is_stmt 0
	li	a5,1
.LVL68:
	sw	a5,0(a6)
	.loc 1 37 5 is_stmt 1
.L45:
.LBE12:
.LBE13:
	.loc 1 129 5
	.loc 1 129 21 is_stmt 0
	andi	s0,a1,3
	.loc 1 129 8
	beq	s0,zero,.L47
	.loc 1 130 9 is_stmt 1
	.loc 1 130 14
	.loc 1 130 16
	.loc 1 130 83 is_stmt 0
	call	xPortIsInsideInterrupt
.LVL69:
	.loc 1 130 16
	beq	a0,zero,.L48
	.loc 1 130 110 discriminator 1
	call	xTaskGetTickCountFromISR
.LVL70:
.L71:
	.loc 1 130 139 discriminator 2
	mv	a1,a0
	.loc 1 130 16 discriminator 2
	lui	a3,%hi(.LC0)
	lui	a2,%hi(.LC1)
	lui	a0,%hi(.LC4)
	li	a4,130
	addi	a3,a3,%lo(.LC0)
	addi	a2,a2,%lo(.LC1)
	addi	a0,a0,%lo(.LC4)
	call	bl_printk
.LVL71:
	.loc 1 130 195 is_stmt 1 discriminator 2
	.loc 1 130 204 discriminator 2
	.loc 1 131 9 discriminator 2
	.loc 1 131 16 is_stmt 0 discriminator 2
	li	s0,0
.LVL72:
.L44:
	.loc 1 178 1
	lw	ra,12(sp)
	.cfi_remember_state
	.cfi_restore 1
	mv	a0,s0
	lw	s0,8(sp)
	.cfi_restore 8
	addi	sp,sp,16
	.cfi_def_cfa_offset 0
	jr	ra
.LVL73:
.L48:
	.cfi_restore_state
	.loc 1 130 139 discriminator 2
	call	xTaskGetTickCount
.LVL74:
	j	.L71
.LVL75:
.L47:
	.loc 1 134 5 is_stmt 1
	.loc 1 134 37 is_stmt 0
	li	a6,3
	.loc 1 134 33
	srli	a5,a1,2
	.loc 1 134 37
	mul	a5,a5,a6
	.loc 1 137 13
	add	a6,a0,a1
	.loc 1 137 8
	li	a7,61
	.loc 1 134 19
	sw	a5,0(a4)
	.loc 1 137 5 is_stmt 1
	.loc 1 137 8 is_stmt 0
	lbu	t1,-1(a6)
	bne	t1,a7,.L51
	.loc 1 138 9 is_stmt 1
	.loc 1 138 24 is_stmt 0
	addi	a5,a5,-1
	sw	a5,0(a4)
.L51:
	.loc 1 141 5 is_stmt 1
	.loc 1 141 8 is_stmt 0
	lbu	a6,-2(a6)
	li	a5,61
	bne	a6,a5,.L52
	.loc 1 142 9 is_stmt 1
	.loc 1 142 24 is_stmt 0
	lw	a5,0(a4)
	addi	a5,a5,-1
	sw	a5,0(a4)
.L52:
	.loc 1 145 5 is_stmt 1
	.loc 1 145 8 is_stmt 0
	lw	a5,0(a4)
	bgtu	a5,a2,.L53
	.loc 1 157 62
	lui	t3,%hi(.LANCHOR3)
	.loc 1 145 8
	mv	a6,a0
	.loc 1 156 19
	li	a7,0
	.loc 1 157 45
	li	t4,61
	.loc 1 157 62
	addi	t3,t3,%lo(.LANCHOR3)
.LVL76:
.L54:
	.loc 1 156 24 is_stmt 1 discriminator 1
	.loc 1 156 5 is_stmt 0 discriminator 1
	sub	a5,a6,a0
	bltu	a5,a1,.L63
	.loc 1 177 12
	li	s0,1
	j	.L44
.LVL77:
.L53:
	.loc 1 146 9 is_stmt 1
	.loc 1 146 14
	.loc 1 146 16
	.loc 1 146 99 is_stmt 0
	call	xPortIsInsideInterrupt
.LVL78:
	.loc 1 146 16
	beq	a0,zero,.L55
	.loc 1 146 126 discriminator 1
	call	xTaskGetTickCountFromISR
.LVL79:
.L72:
	.loc 1 146 155 discriminator 2
	mv	a1,a0
	.loc 1 146 16 discriminator 2
	lui	a3,%hi(.LC0)
	lui	a2,%hi(.LC1)
	lui	a0,%hi(.LC3)
	li	a4,146
	addi	a3,a3,%lo(.LC0)
	addi	a2,a2,%lo(.LC1)
	addi	a0,a0,%lo(.LC3)
	call	bl_printk
.LVL80:
	.loc 1 146 211 is_stmt 1 discriminator 2
	.loc 1 146 220 discriminator 2
	.loc 1 147 9 discriminator 2
	.loc 1 147 16 is_stmt 0 discriminator 2
	j	.L44
.L55:
	.loc 1 146 155 discriminator 2
	call	xTaskGetTickCount
.LVL81:
	j	.L72
.LVL82:
.L63:
	.loc 1 157 9 is_stmt 1
	.loc 1 157 24 is_stmt 0
	lbu	a5,0(a6)
	.loc 1 157 45
	li	a2,0
	beq	a5,t4,.L57
.LVL83:
	.loc 1 157 62 discriminator 2
	add	a5,t3,a5
	.loc 1 157 45 discriminator 2
	lb	a2,0(a5)
.LVL84:
.L57:
	.loc 1 158 9 is_stmt 1 discriminator 4
	.loc 1 158 24 is_stmt 0 discriminator 4
	lbu	t1,1(a6)
	.loc 1 158 45 discriminator 4
	li	a5,0
	beq	t1,t4,.L58
.LVL85:
	.loc 1 158 62 discriminator 2
	add	t1,t3,t1
	.loc 1 158 45 discriminator 2
	lb	a5,0(t1)
.LVL86:
.L58:
	.loc 1 159 9 is_stmt 1 discriminator 4
	.loc 1 159 24 is_stmt 0 discriminator 4
	lbu	t5,2(a6)
	.loc 1 159 45 discriminator 4
	li	t1,0
	beq	t5,t4,.L59
.LVL87:
	.loc 1 159 62 discriminator 2
	add	t5,t3,t5
	.loc 1 159 45 discriminator 2
	lb	t1,0(t5)
.LVL88:
.L59:
	.loc 1 160 9 is_stmt 1 discriminator 4
	.loc 1 160 24 is_stmt 0 discriminator 4
	lbu	t5,3(a6)
	.loc 1 160 45 discriminator 4
	li	t6,0
	beq	t5,t4,.L60
.LVL89:
	.loc 1 160 62 discriminator 2
	add	t5,t3,t5
	.loc 1 160 45 discriminator 2
	lb	t6,0(t5)
.LVL90:
.L60:
	.loc 1 162 9 is_stmt 1 discriminator 4
	.loc 1 164 9 discriminator 4
	.loc 1 164 12 is_stmt 0 discriminator 4
	lw	t5,0(a4)
	bleu	t5,a7,.L68
	.loc 1 162 28
	slli	a2,a2,18
.LVL91:
	.loc 1 162 50
	slli	a5,a5,12
.LVL92:
	.loc 1 162 38
	add	a5,a2,a5
.LVL93:
	.loc 1 162 72
	slli	t1,t1,6
.LVL94:
	.loc 1 162 60
	add	a5,a5,t1
	.loc 1 162 16
	add	a5,a5,t6
	.loc 1 165 13 is_stmt 1
	.loc 1 165 30 is_stmt 0
	add	a2,a3,a7
	.loc 1 165 40
	srli	t5,a5,16
	.loc 1 165 30
	sb	t5,0(a2)
	.loc 1 168 12
	lw	a2,0(a4)
	.loc 1 165 26
	addi	t1,a7,1
.LVL95:
	.loc 1 168 9 is_stmt 1
	.loc 1 168 12 is_stmt 0
	bleu	a2,t1,.L61
	.loc 1 169 13 is_stmt 1
	.loc 1 169 30 is_stmt 0
	add	t1,a3,t1
.LVL96:
	.loc 1 169 40
	srli	t5,a5,8
	.loc 1 169 30
	sb	t5,0(t1)
	.loc 1 172 12
	lw	t1,0(a4)
	.loc 1 169 26
	addi	a2,a7,2
.LVL97:
	.loc 1 172 9 is_stmt 1
	.loc 1 172 12 is_stmt 0
	bleu	t1,a2,.L62
	.loc 1 173 13 is_stmt 1
.LVL98:
	.loc 1 173 30 is_stmt 0
	add	a2,a3,a2
	sb	a5,0(a2)
	.loc 1 173 26
	addi	a2,a7,3
.LVL99:
.L62:
	addi	a6,a6,4
.LVL100:
	.loc 1 173 26 discriminator 1
	mv	a7,a2
	j	.L54
.LVL101:
.L68:
	mv	t1,a7
.LVL102:
.L61:
	.loc 1 172 9 is_stmt 1
	.loc 1 160 45 is_stmt 0
	mv	a2,t1
	j	.L62
	.cfi_endproc
.LFE7:
	.size	utils_base64decode, .-utils_base64decode
	.section	.bss.g_decodingTable,"aw",@nobits
	.align	2
	.set	.LANCHOR3,. + 0
	.type	g_decodingTable, @object
	.size	g_decodingTable, 256
g_decodingTable:
	.zero	256
	.section	.rodata.g_encodingTable,"a"
	.align	2
	.set	.LANCHOR0,. + 0
	.type	g_encodingTable, @object
	.size	g_encodingTable, 64
g_encodingTable:
	.ascii	"ABCDEFGHIJKLMNOPQRSTUVWXYZabcdefghijklmnopqrstuvwxyz01234567"
	.ascii	"89+/"
	.section	.rodata.g_modTable,"a"
	.align	2
	.set	.LANCHOR1,. + 0
	.type	g_modTable, @object
	.size	g_modTable, 12
g_modTable:
	.word	0
	.word	2
	.word	1
	.section	.sbss.signal.0,"aw",@nobits
	.align	2
	.set	.LANCHOR2,. + 0
	.type	signal.0, @object
	.size	signal.0, 4
signal.0:
	.zero	4
	.text
.Letext0:
	.file 2 "/mnt/d/GitHub/bl_iot_sdk_for_aithinker/toolchain/riscv/Linux/lib/gcc/riscv64-unknown-elf/10.2.0/include/stdint-gcc.h"
	.file 3 "/mnt/d/GitHub/bl_iot_sdk_for_aithinker/components/utils/include/utils_base64.h"
	.file 4 "/mnt/d/GitHub/bl_iot_sdk_for_aithinker/components/platform/soc/bl602/freertos_riscv_ram/portable/GCC/RISC-V/portmacro.h"
	.file 5 "/mnt/d/GitHub/bl_iot_sdk_for_aithinker/components/platform/soc/bl602/freertos_riscv_ram/config/task.h"
	.file 6 "/mnt/d/GitHub/bl_iot_sdk_for_aithinker/components/utils/include/utils_log.h"