	.file	"utils_bitmap_window.c"
	.option nopic
	.attribute arch, "rv32i2p0_m2p0_f2p0_c2p0"
	.attribute unaligned_access, 0
	.attribute stack_align, 16
	.text
.Ltext0:
	.cfi_sections	.debug_frame
	.section	.text.utils_bitmap_window_init,"ax",@progbits
	.align	1
	.globl	utils_bitmap_window_init
	.type	utils_bitmap_window_init, @function
utils_bitmap_window_init:
.LFB4:
	.file 1 "/mnt/d/GitHub/bl_iot_sdk_for_aithinker/components/utils/src/utils_bitmap_window.c"
	.loc 1 36 1
	.cfi_startproc
.LVL0:
	.loc 1 37 5
	.loc 1 36 1 is_stmt 0
	addi	sp,sp,-16
	.cfi_def_cfa_offset 16
	sw	s0,8(sp)
	sw	s2,0(sp)
	.cfi_offset 8, -8
	.cfi_offset 18, -16
	mv	s0,a2
	mv	s2,a1
	.loc 1 37 5
	li	a2,16
.LVL1:
	li	a1,0
.LVL2:
	.loc 1 36 1
	sw	s1,4(sp)
	sw	ra,12(sp)
	.cfi_offset 9, -12
	.cfi_offset 1, -4
	.loc 1 36 1
	mv	s1,a0
	.loc 1 39 33
	addi	s0,s0,1
.LVL3:
	.loc 1 37 5
	call	memset
.LVL4:
	.loc 1 38 5 is_stmt 1
	.loc 1 42 1 is_stmt 0
	lw	ra,12(sp)
	.cfi_restore 1
	.loc 1 39 23
	sw	s0,4(s1)
	.loc 1 42 1
	lw	s0,8(sp)
	.cfi_restore 8
.LVL5:
	.loc 1 38 14
	sw	s2,0(s1)
	.loc 1 39 5 is_stmt 1
	.loc 1 41 5
	.loc 1 42 1 is_stmt 0
	li	a0,0
	lw	s1,4(sp)
	.cfi_restore 9
.LVL6:
	lw	s2,0(sp)
	.cfi_restore 18
.LVL7:
	addi	sp,sp,16
	.cfi_def_cfa_offset 0
	jr	ra
	.cfi_endproc
.LFE4:
	.size	utils_bitmap_window_init, .-utils_bitmap_window_init
	.section	.rodata.utils_bitmap_window_bit_set.str1.4,"aMS",@progbits,1
	.align	2
.LC0:
	.string	"small ssn %d\r\n"
	.align	2
.LC1:
	.string	"Dup bit_pos %d with pos_offset %d\r\n"
	.section	.text.utils_bitmap_window_bit_set,"ax",@progbits
	.align	1
	.globl	utils_bitmap_window_bit_set
	.type	utils_bitmap_window_bit_set, @function
utils_bitmap_window_bit_set:
.LFB5:
	.loc 1 45 1 is_stmt 1
	.cfi_startproc
.LVL8:
	.loc 1 46 5
	.loc 1 47 5
	.loc 1 49 5
	.loc 1 45 1 is_stmt 0
	addi	sp,sp,-16
	.cfi_def_cfa_offset 16
	sw	s0,8(sp)
	sw	ra,12(sp)
	.cfi_offset 8, -8
	.cfi_offset 1, -4
	.loc 1 45 1
	mv	a5,a0
	.loc 1 49 22
	lw	a0,0(a0)
.LVL9:
	.loc 1 51 16
	lw	a3,4(a5)
	.loc 1 45 1
	mv	s0,a1
	.loc 1 49 8
	ble	a0,a1,.L4
	.loc 1 51 9 is_stmt 1
	.loc 1 51 31 is_stmt 0
	sub	a4,a3,a0
	.loc 1 51 42
	add	a4,a4,a1
	.loc 1 51 52
	addi	a4,a4,1
	.loc 1 51 12
	li	a2,64
	bleu	a4,a2,.L4
	.loc 1 52 13 is_stmt 1
	lui	a0,%hi(.LC0)
	addi	a0,a0,%lo(.LC0)
	call	printf
.LVL10:
	.loc 1 53 13
	.loc 1 53 20 is_stmt 0
	li	a2,-2147483648
	addi	a2,a2,1
.L3:
	.loc 1 77 1
	lw	ra,12(sp)
	.cfi_remember_state
	.cfi_restore 1
	lw	s0,8(sp)
	.cfi_restore 8
.LVL11:
	mv	a0,a2
	addi	sp,sp,16
	.cfi_def_cfa_offset 0
	jr	ra
.LVL12:
.L4:
	.cfi_restore_state
	.loc 1 56 5 is_stmt 1
	.loc 1 56 26 is_stmt 0
	add	a2,s0,a3
	.loc 1 56 16
	sub	a2,a2,a0
.LVL13:
	.loc 1 57 5 is_stmt 1
	.loc 1 57 8 is_stmt 0
	blt	a2,a3,.L6
	.loc 1 58 9 is_stmt 1
	.loc 1 58 20 is_stmt 0
	sub	a2,a2,a3
.LVL14:
.L6:
	.loc 1 61 5 is_stmt 1
	.loc 1 61 20 is_stmt 0
	lw	a0,8(a5)
	lw	a1,12(a5)
	.loc 1 61 32
	li	a4,1
	sll	a4,a4,a2
	srai	a7,a4,31
	.loc 1 61 27
	and	a6,a0,a4
	and	t1,a1,a7
	.loc 1 61 8
	or	a6,a6,t1
	beq	a6,zero,.L7
	.loc 1 62 9 is_stmt 1
	lui	a0,%hi(.LC1)
	mv	a1,s0
	addi	a0,a0,%lo(.LC1)
	call	printf
.LVL15:
	.loc 1 63 9
	.loc 1 63 16 is_stmt 0
	neg	a2,s0
	j	.L3
.LVL16:
.L7:
	.loc 1 65 5 is_stmt 1
	.loc 1 65 23 is_stmt 0
	or	a4,a0,a4
	or	a1,a1,a7
	sw	a4,8(a5)
	sw	a1,12(a5)
	.loc 1 67 5 is_stmt 1
.LVL17:
	.loc 1 67 17
	.loc 1 65 23 is_stmt 0
	li	a0,64
.LVL18:
.L13:
	.loc 1 68 9 is_stmt 1
	.loc 1 68 24 is_stmt 0
	lw	a4,8(a5)
	lw	a1,12(a5)
	.loc 1 68 31
	andi	a6,a4,1
	.loc 1 68 12
	beq	a6,zero,.L10
	.loc 1 69 13 is_stmt 1
	.loc 1 69 31 is_stmt 0
	slli	a6,a1,31
	srli	a4,a4,1
	or	a4,a4,a6
	sw	a4,8(a5)
	.loc 1 70 22
	lw	a4,0(a5)
	.loc 1 69 31
	srli	a1,a1,1
	sw	a1,12(a5)
	.loc 1 70 13 is_stmt 1
	.loc 1 70 22 is_stmt 0
	addi	a4,a4,1
	.loc 1 71 13 is_stmt 1
	.loc 1 71 16 is_stmt 0
	beq	a4,a3,.L11
	.loc 1 70 22
	sw	a4,0(a5)
.L10:
	.loc 1 67 52 is_stmt 1 discriminator 2
.LVL19:
	.loc 1 67 17 discriminator 2
	.loc 1 67 5 is_stmt 0 discriminator 2
	addi	a0,a0,-1
.LVL20:
	bne	a0,zero,.L13
	j	.L3
.L11:
	.loc 1 72 17 is_stmt 1
	.loc 1 72 26 is_stmt 0
	sw	zero,0(a5)
	j	.L10
	.cfi_endproc
.LFE5:
	.size	utils_bitmap_window_bit_set, .-utils_bitmap_window_bit_set
	.section	.text.utils_bitmap_window_map_get,"ax",@progbits
	.align	1
	.globl	utils_bitmap_window_map_get
	.type	utils_bitmap_window_map_get, @function
utils_bitmap_window_map_get:
.LFB6:
	.loc 1 80 1 is_stmt 1
	.cfi_startproc
.LVL21:
	.loc 1 81 5
	.loc 1 82 1 is_stmt 0
	lw	a1,12(a0)
	lw	a0,8(a0)
.LVL22:
	ret
	.cfi_endproc
.LFE6:
	.size	utils_bitmap_window_map_get, .-utils_bitmap_window_map_get
	.section	.text.utils_bitmap_window_ssn_get,"ax",@progbits
	.align	1
	.globl	utils_bitmap_window_ssn_get
	.type	utils_bitmap_window_ssn_get, @function
utils_bitmap_window_ssn_get:
.LFB7:
	.loc 1 85 1 is_stmt 1
	.cfi_startproc
.LVL23:
	.loc 1 86 5
	.loc 1 87 1 is_stmt 0
	lw	a0,0(a0)
.LVL24:
	ret
	.cfi_endproc
.LFE7:
	.size	utils_bitmap_window_ssn_get, .-utils_bitmap_window_ssn_get
	.text
.Letext0:
	.file 2 "/mnt/d/GitHub/bl_iot_sdk_for_aithinker/toolchain/riscv/Linux/riscv64-unknown-elf/include/machine/_default_types.h"
	.file 3 "/mnt/d/GitHub/bl_iot_sdk_for_aithinker/toolchain/riscv/Linux/riscv64-unknown-elf/include/sys/_stdint.h"
	.file 4 "/mnt/d/GitHub/bl_iot_sdk_for_aithinker/components/utils/include/utils_bitmap_window.h"
	.file 5 "/mnt/d/GitHub/bl_iot_sdk_for_aithinker/toolchain/riscv/Linux/riscv64-unknown-elf/include/stdio.h"
	.file 6 "/mnt/d/GitHub/bl_iot_sdk_for_aithinker/toolchain/riscv/Linux/riscv64-unknown-elf/include/string.h"