	.file	"utils_list.c"
	.option nopic
	.attribute arch, "rv32i2p0_m2p0_f2p0_c2p0"
	.attribute unaligned_access, 0
	.attribute stack_align, 16
	.text
.Ltext0:
	.cfi_sections	.debug_frame
	.section	.text.utils_list_init,"ax",@progbits
	.align	1
	.globl	utils_list_init
	.type	utils_list_init, @function
utils_list_init:
.LFB23:
	.file 1 "/mnt/d/GitHub/bl_iot_sdk_for_aithinker/components/utils/src/utils_list.c"
	.loc 1 17 1
	.cfi_startproc
.LVL0:
	.loc 1 18 5
	.loc 1 18 17 is_stmt 0
	sw	zero,0(a0)
	.loc 1 19 5 is_stmt 1
	.loc 1 19 16 is_stmt 0
	sw	zero,4(a0)
	.loc 1 20 1
	ret
	.cfi_endproc
.LFE23:
	.size	utils_list_init, .-utils_list_init
	.section	.text.utils_list_push_back,"ax",@progbits
	.align	1
	.globl	utils_list_push_back
	.type	utils_list_push_back, @function
utils_list_push_back:
.LFB25:
	.loc 1 43 1 is_stmt 1
	.cfi_startproc
.LVL1:
	.loc 1 49 5
.LBB12:
.LBB13:
	.file 2 "/mnt/d/GitHub/bl_iot_sdk_for_aithinker/components/utils/include/utils_list.h"
	.loc 2 201 5
.LBE13:
.LBE12:
	.loc 1 49 8 is_stmt 0
	lw	a5,0(a0)
	bne	a5,zero,.L3
	.loc 1 52 9 is_stmt 1
	.loc 1 52 21 is_stmt 0
	sw	a1,0(a0)
.L4:
	.loc 1 61 5 is_stmt 1
	.loc 1 61 16 is_stmt 0
	sw	a1,4(a0)
	.loc 1 62 5 is_stmt 1
	.loc 1 62 20 is_stmt 0
	sw	zero,0(a1)
	.loc 1 63 1
	ret
.L3:
	.loc 1 57 9 is_stmt 1
	.loc 1 57 13 is_stmt 0
	lw	a5,4(a0)
	.loc 1 57 26
	sw	a1,0(a5)
	j	.L4
	.cfi_endproc
.LFE25:
	.size	utils_list_push_back, .-utils_list_push_back
	.section	.text.utils_list_pool_init,"ax",@progbits
	.align	1
	.globl	utils_list_pool_init
	.type	utils_list_pool_init, @function
utils_list_pool_init:
.LFB24:
	.loc 1 23 1 is_stmt 1
	.cfi_startproc
.LVL2:
	.loc 1 24 5
	.loc 1 27 5
.LBB14:
.LBB15:
	.loc 1 18 5
.LBE15:
.LBE14:
	.loc 1 23 1 is_stmt 0
	addi	sp,sp,-32
	.cfi_def_cfa_offset 32
	sw	s0,24(sp)
	sw	s1,20(sp)
	sw	s2,16(sp)
	sw	s3,12(sp)
	sw	s4,8(sp)
	sw	s5,4(sp)
	sw	ra,28(sp)
	.cfi_offset 8, -8
	.cfi_offset 9, -12
	.cfi_offset 18, -16
	.cfi_offset 19, -20
	.cfi_offset 20, -24
	.cfi_offset 21, -28
	.cfi_offset 1, -4
	.loc 1 23 1
	mv	s1,a0
	mv	s0,a1
	mv	s2,a2
	mv	s4,a3
	mv	s3,a4
.LBB17:
.LBB16:
	.loc 1 18 17
	sw	zero,0(a0)
	.loc 1 19 5 is_stmt 1
	.loc 1 19 16 is_stmt 0
	sw	zero,4(a0)
.LVL3:
.LBE16:
.LBE17:
	.loc 1 30 5 is_stmt 1
	.loc 1 30 12 is_stmt 0
	li	s5,0
.LVL4:
.L6:
	.loc 1 30 17 is_stmt 1 discriminator 1
	.loc 1 30 5 is_stmt 0 discriminator 1
	bne	s5,s4,.L8
	.loc 1 40 1
	lw	ra,28(sp)
	.cfi_remember_state
	.cfi_restore 1
	lw	s0,24(sp)
	.cfi_restore 8
.LVL5:
	lw	s1,20(sp)
	.cfi_restore 9
.LVL6:
	lw	s2,16(sp)
	.cfi_restore 18
.LVL7:
	lw	s3,12(sp)
	.cfi_restore 19
.LVL8:
	lw	s4,8(sp)
	.cfi_restore 20
.LVL9:
	lw	s5,4(sp)
	.cfi_restore 21
.LVL10:
	addi	sp,sp,32
	.cfi_def_cfa_offset 0
	jr	ra
.LVL11:
.L8:
	.cfi_restore_state
	.loc 1 31 9 is_stmt 1
	.loc 1 31 12 is_stmt 0
	beq	s3,zero,.L7
	.loc 1 33 13 is_stmt 1
	mv	a2,s2
	mv	a1,s3
	mv	a0,s0
	call	memcpy
.LVL12:
.L7:
	.loc 1 35 9 discriminator 2
	mv	a1,s0
	mv	a0,s1
	call	utils_list_push_back
.LVL13:
	.loc 1 38 9 discriminator 2
	.loc 1 38 14 is_stmt 0 discriminator 2
	add	s0,s0,s2
.LVL14:
	.loc 1 30 31 is_stmt 1 discriminator 2
	.loc 1 30 32 is_stmt 0 discriminator 2
	addi	s5,s5,1
.LVL15:
	j	.L6
	.cfi_endproc
.LFE24:
	.size	utils_list_pool_init, .-utils_list_pool_init
	.section	.text.utils_list_push_front,"ax",@progbits
	.align	1
	.globl	utils_list_push_front
	.type	utils_list_push_front, @function
utils_list_push_front:
.LFB26:
	.loc 1 66 1 is_stmt 1
	.cfi_startproc
.LVL16:
	.loc 1 72 5
.LBB18:
.LBB19:
	.loc 2 201 5
	.loc 2 201 24 is_stmt 0
	lw	a5,0(a0)
.LVL17:
.LBE19:
.LBE18:
	.loc 1 72 8
	bne	a5,zero,.L14
	.loc 1 75 9 is_stmt 1
	.loc 1 75 20 is_stmt 0
	sw	a1,4(a0)
.L14:
	.loc 1 79 5 is_stmt 1
	.loc 1 79 20 is_stmt 0
	sw	a5,0(a1)
	.loc 1 80 5 is_stmt 1
	.loc 1 80 17 is_stmt 0
	sw	a1,0(a0)
	.loc 1 81 1
	ret
	.cfi_endproc
.LFE26:
	.size	utils_list_push_front, .-utils_list_push_front
	.section	.text.utils_list_pop_front,"ax",@progbits
	.align	1
	.globl	utils_list_pop_front
	.type	utils_list_pop_front, @function
utils_list_pop_front:
.LFB27:
	.loc 1 84 1 is_stmt 1
	.cfi_startproc
.LVL18:
	.loc 1 85 5
	.loc 1 88 5
	.loc 1 84 1 is_stmt 0
	mv	a5,a0
	.loc 1 88 13
	lw	a0,0(a0)
.LVL19:
	.loc 1 89 5 is_stmt 1
	.loc 1 89 8 is_stmt 0
	beq	a0,zero,.L15
	.loc 1 92 9 is_stmt 1
	.loc 1 92 34 is_stmt 0
	lw	a4,0(a0)
	.loc 1 92 21
	sw	a4,0(a5)
	.loc 1 95 5 is_stmt 1
.L15:
	.loc 1 96 1 is_stmt 0
	ret
	.cfi_endproc
.LFE27:
	.size	utils_list_pop_front, .-utils_list_pop_front
	.section	.text.utils_list_extract,"ax",@progbits
	.align	1
	.globl	utils_list_extract
	.type	utils_list_extract, @function
utils_list_extract:
.LFB28:
	.loc 1 99 1 is_stmt 1
	.cfi_startproc
.LVL20:
	.loc 1 100 5
	.loc 1 106 5
	.loc 1 106 15 is_stmt 0
	lw	a5,0(a0)
.LVL21:
	.loc 1 109 5 is_stmt 1
	.loc 1 109 8 is_stmt 0
	beq	a5,zero,.L20
	.loc 1 113 5 is_stmt 1
	.loc 1 113 8 is_stmt 0
	bne	a5,a1,.L22
	.loc 1 116 9 is_stmt 1
	.loc 1 116 32 is_stmt 0
	lw	a5,0(a5)
.LVL22:
	.loc 1 116 21
	sw	a5,0(a0)
.LVL23:
	ret
.L22:
.LVL24:
	.loc 1 121 15 is_stmt 1
	mv	a4,a5
	.loc 1 121 26 is_stmt 0
	lw	a5,0(a5)
.LVL25:
	.loc 1 121 15
	beq	a5,zero,.L20
	.loc 1 121 41 discriminator 1
	bne	a5,a1,.L22
	.loc 1 127 9 is_stmt 1
	.loc 1 130 13
	.loc 1 130 16 is_stmt 0
	lw	a5,4(a0)
	bne	a5,a1,.L25
	.loc 1 133 17 is_stmt 1
	.loc 1 133 28 is_stmt 0
	sw	a4,4(a0)
.L25:
	.loc 1 136 13 is_stmt 1
	.loc 1 136 39 is_stmt 0
	lw	a5,0(a1)
	.loc 1 136 29
	sw	a5,0(a4)
	ret
.LVL26:
.L20:
	.loc 1 139 1
	ret
	.cfi_endproc
.LFE28:
	.size	utils_list_extract, .-utils_list_extract
	.section	.text.utils_list_find,"ax",@progbits
	.align	1
	.globl	utils_list_find
	.type	utils_list_find, @function
utils_list_find:
.LFB29:
	.loc 1 142 1 is_stmt 1
	.cfi_startproc
.LVL27:
.L38:
	.loc 1 149 9
	.loc 1 149 22 is_stmt 0
	lw	a0,0(a0)
.LVL28:
	.loc 1 147 10 is_stmt 1
	beq	a0,a1,.L37
	.loc 1 147 38 is_stmt 0 discriminator 1
	bne	a0,zero,.L38
.L37:
	.loc 1 152 5 is_stmt 1
	.loc 1 152 26 is_stmt 0
	sub	a0,a1,a0
.LVL29:
	.loc 1 153 1
	seqz	a0,a0
	ret
	.cfi_endproc
.LFE29:
	.size	utils_list_find, .-utils_list_find
	.section	.text.utils_list_cnt,"ax",@progbits
	.align	1
	.globl	utils_list_cnt
	.type	utils_list_cnt, @function
utils_list_cnt:
.LFB30:
	.loc 1 156 1 is_stmt 1
	.cfi_startproc
.LVL30:
	.loc 1 157 5
	.loc 1 158 5
.LBB20:
.LBB21:
	.loc 2 226 5
	.loc 2 226 16 is_stmt 0
	lw	a5,0(a0)
.LVL31:
.LBE21:
.LBE20:
	.loc 1 161 5 is_stmt 1
	.loc 1 157 18 is_stmt 0
	li	a0,0
.LVL32:
.L41:
	.loc 1 161 11 is_stmt 1
	bne	a5,zero,.L42
	.loc 1 167 5
	.loc 1 168 1 is_stmt 0
	ret
.L42:
	.loc 1 163 9 is_stmt 1
.LBB22:
.LBB23:
	.loc 2 236 20 is_stmt 0
	lw	a5,0(a5)
.LVL33:
.LBE23:
.LBE22:
	.loc 1 163 12
	addi	a0,a0,1
.LVL34:
	.loc 1 164 9 is_stmt 1
.LBB25:
.LBB24:
	.loc 2 236 5
	j	.L41
.LBE24:
.LBE25:
	.cfi_endproc
.LFE30:
	.size	utils_list_cnt, .-utils_list_cnt
	.section	.text.utils_list_insert,"ax",@progbits
	.align	1
	.globl	utils_list_insert
	.type	utils_list_insert, @function
utils_list_insert:
.LFB31:
	.loc 1 187 1
	.cfi_startproc
.LVL35:
	.loc 1 188 5
	.loc 1 189 5
	.loc 1 187 1 is_stmt 0
	addi	sp,sp,-32
	.cfi_def_cfa_offset 32
	sw	s0,24(sp)
	sw	s2,16(sp)
	sw	s3,12(sp)
	sw	s4,8(sp)
	sw	ra,28(sp)
	sw	s1,20(sp)
	.cfi_offset 8, -8
	.cfi_offset 18, -16
	.cfi_offset 19, -20
	.cfi_offset 20, -24
	.cfi_offset 1, -4
	.cfi_offset 9, -12
	.loc 1 189 28
	lw	s1,0(a0)
.LVL36:
	.loc 1 187 1
	mv	s2,a0
	mv	s0,a1
	mv	s4,a2
	.loc 1 188 28
	li	s3,0
.LVL37:
.L46:
	.loc 1 191 5 is_stmt 1
	.loc 1 194 9
	.loc 1 194 12 is_stmt 0
	beq	s1,zero,.L44
	.loc 1 196 13 is_stmt 1
	.loc 1 196 17 is_stmt 0
	mv	a1,s1
	mv	a0,s0
	jalr	s4
.LVL38:
	.loc 1 196 16
	bne	a0,zero,.L45
	.loc 1 201 13 is_stmt 1
.LVL39:
	.loc 1 202 13
	.loc 1 191 10
	.loc 1 194 12 is_stmt 0
	mv	s3,s1
	.loc 1 202 18
	lw	s1,0(s1)
.LVL40:
	.loc 1 194 12
	j	.L46
.L44:
	.loc 1 207 13 is_stmt 1
	.loc 1 207 24 is_stmt 0
	sw	s0,4(s2)
	.loc 1 208 13 is_stmt 1
.L45:
	.loc 1 212 5
	.loc 1 212 19 is_stmt 0
	sw	s1,0(s0)
	.loc 1 214 5 is_stmt 1
	.loc 1 214 8 is_stmt 0
	beq	s3,zero,.L47
	.loc 1 217 9 is_stmt 1
	.loc 1 217 20 is_stmt 0
	sw	s0,0(s3)
.L43:
	.loc 1 224 1
	lw	ra,28(sp)
	.cfi_remember_state
	.cfi_restore 1
	lw	s0,24(sp)
	.cfi_restore 8
.LVL41:
	lw	s1,20(sp)
	.cfi_restore 9
.LVL42:
	lw	s2,16(sp)
	.cfi_restore 18
.LVL43:
	lw	s3,12(sp)
	.cfi_restore 19
.LVL44:
	lw	s4,8(sp)
	.cfi_restore 20
.LVL45:
	addi	sp,sp,32
	.cfi_def_cfa_offset 0
	jr	ra
.LVL46:
.L47:
	.cfi_restore_state
	.loc 1 222 9 is_stmt 1
	.loc 1 222 21 is_stmt 0
	sw	s0,0(s2)
	.loc 1 224 1
	j	.L43
	.cfi_endproc
.LFE31:
	.size	utils_list_insert, .-utils_list_insert
	.section	.text.utils_list_insert_after,"ax",@progbits
	.align	1
	.globl	utils_list_insert_after
	.type	utils_list_insert_after, @function
utils_list_insert_after:
.LFB32:
	.loc 1 227 1 is_stmt 1
	.cfi_startproc
.LVL47:
	.loc 1 228 5
	.loc 1 227 1 is_stmt 0
	mv	a3,a1
	.loc 1 228 28
	lw	a5,0(a0)
.LVL48:
	.loc 1 230 5 is_stmt 1
	.loc 1 227 1 is_stmt 0
	mv	a4,a0
	mv	a1,a2
.LVL49:
	.loc 1 230 8
	bne	a3,zero,.L51
	.loc 1 233 9 is_stmt 1
	tail	utils_list_push_front
.LVL50:
.L53:
	.loc 1 240 13
	.loc 1 240 16 is_stmt 0
	beq	a5,a3,.L52
	.loc 1 246 13 is_stmt 1
	.loc 1 246 18 is_stmt 0
	lw	a5,0(a5)
.LVL51:
.L51:
	.loc 1 238 15 is_stmt 1
	bne	a5,zero,.L53
	ret
.LVL52:
.L55:
	.loc 1 257 17
	.loc 1 257 28 is_stmt 0
	sw	a1,4(a4)
	.loc 1 261 1
	ret
.LVL53:
.L52:
	.loc 1 250 9 is_stmt 1
	.loc 1 252 13
	.loc 1 252 41 is_stmt 0
	lw	a3,0(a5)
.LVL54:
	.loc 1 252 27
	sw	a3,0(a1)
	.loc 1 253 13 is_stmt 1
	.loc 1 253 32 is_stmt 0
	sw	a1,0(a5)
	.loc 1 255 13 is_stmt 1
	.loc 1 255 16 is_stmt 0
	lw	a5,0(a1)
.LVL55:
	beq	a5,zero,.L55
	.loc 1 261 1
	ret
	.cfi_endproc
.LFE32:
	.size	utils_list_insert_after, .-utils_list_insert_after
	.section	.text.utils_list_insert_before,"ax",@progbits
	.align	1
	.globl	utils_list_insert_before
	.type	utils_list_insert_before, @function
utils_list_insert_before:
.LFB33:
	.loc 1 264 1 is_stmt 1
	.cfi_startproc
.LVL56:
	.loc 1 265 5
	.loc 1 264 1 is_stmt 0
	mv	a5,a1
	mv	a1,a2
.LVL57:
	.loc 1 265 8
	bne	a5,zero,.L59
	.loc 1 268 9 is_stmt 1
	tail	utils_list_push_back
.LVL58:
.L59:
	.loc 1 270 10
	.loc 1 270 34 is_stmt 0
	lw	a4,0(a0)
	.loc 1 270 13
	bne	a4,a5,.L60
	.loc 1 273 9 is_stmt 1
	tail	utils_list_push_front
.LVL59:
.L62:
.LBB26:
	.loc 1 282 13
	.loc 1 282 21 is_stmt 0
	lw	a3,0(a4)
	.loc 1 282 16
	beq	a3,a5,.L61
	mv	a4,a3
.LVL60:
.L60:
	.loc 1 280 15 is_stmt 1
	bne	a4,zero,.L62
	ret
.L61:
	.loc 1 292 9
	.loc 1 294 13
	.loc 1 294 27 is_stmt 0
	sw	a5,0(a1)
	.loc 1 295 13 is_stmt 1
	.loc 1 295 24 is_stmt 0
	sw	a1,0(a4)
.LBE26:
	.loc 1 298 1
	ret
	.cfi_endproc
.LFE33:
	.size	utils_list_insert_before, .-utils_list_insert_before
	.section	.text.utils_list_concat,"ax",@progbits
	.align	1
	.globl	utils_list_concat
	.type	utils_list_concat, @function
utils_list_concat:
.LFB34:
	.loc 1 301 1 is_stmt 1
	.cfi_startproc
.LVL61:
	.loc 1 303 5
	.loc 1 303 14 is_stmt 0
	lw	a5,0(a1)
	.loc 1 303 8
	beq	a5,zero,.L65
	.loc 1 306 9 is_stmt 1
	.loc 1 306 12 is_stmt 0
	lw	a4,0(a0)
	bne	a4,zero,.L67
	.loc 1 309 13 is_stmt 1
	.loc 1 309 20 is_stmt 0
	sw	a5,0(a0)
.L72:
	.loc 1 315 13 is_stmt 1
	.loc 1 315 32 is_stmt 0
	lw	a5,4(a1)
	.loc 1 315 25
	sw	a5,4(a0)
	.loc 1 318 9 is_stmt 1
	.loc 1 318 22 is_stmt 0
	sw	zero,0(a1)
.L65:
	.loc 1 320 1
	ret
.L67:
	.loc 1 314 13 is_stmt 1
	.loc 1 314 18 is_stmt 0
	lw	a4,4(a0)
	.loc 1 314 31
	sw	a5,0(a4)
	j	.L72
	.cfi_endproc
.LFE34:
	.size	utils_list_concat, .-utils_list_concat
	.section	.text.utils_list_remove,"ax",@progbits
	.align	1
	.globl	utils_list_remove
	.type	utils_list_remove, @function
utils_list_remove:
.LFB35:
	.loc 1 324 1 is_stmt 1
	.cfi_startproc
.LVL62:
	.loc 1 332 5
	.loc 1 334 30 is_stmt 0
	lw	a5,0(a2)
	.loc 1 332 8
	bne	a1,zero,.L74
	.loc 1 334 9 is_stmt 1
	.loc 1 334 21 is_stmt 0
	sw	a5,0(a0)
.L75:
	.loc 1 343 5 is_stmt 1
	.loc 1 343 19 is_stmt 0
	sw	zero,0(a2)
	.loc 1 344 1
	ret
.L74:
	.loc 1 338 9 is_stmt 1
	.loc 1 338 28 is_stmt 0
	sw	a5,0(a1)
	.loc 1 339 9 is_stmt 1
	.loc 1 339 12 is_stmt 0
	lw	a5,4(a0)
	bne	a5,a2,.L75
	.loc 1 340 13 is_stmt 1
	.loc 1 340 24 is_stmt 0
	sw	a1,4(a0)
	j	.L75
	.cfi_endproc
.LFE35:
	.size	utils_list_remove, .-utils_list_remove
	.text
.Letext0:
	.file 3 "/mnt/d/GitHub/bl_iot_sdk_for_aithinker/toolchain/riscv/Linux/lib/gcc/riscv64-unknown-elf/10.2.0/include/stddef.h"
	.file 4 "/mnt/d/GitHub/bl_iot_sdk_for_aithinker/toolchain/riscv/Linux/lib/gcc/riscv64-unknown-elf/10.2.0/include/stdint-gcc.h"
	.file 5 "/mnt/d/GitHub/bl_iot_sdk_for_aithinker/toolchain/riscv/Linux/riscv64-unknown-elf/include/string.h"