	.file	"utils_psk_fast.c"
	.option nopic
	.attribute arch, "rv32i2p0_m2p0_f2p0_c2p0"
	.attribute unaligned_access, 0
	.attribute stack_align, 16
	.text
.Ltext0:
	.cfi_sections	.debug_frame
	.section	.text.Bl_F_fast.constprop.0,"ax",@progbits
	.align	1
	.type	Bl_F_fast.constprop.0, @function
Bl_F_fast.constprop.0:
.LFB7:
	.file 1 "/mnt/d/GitHub/bl_iot_sdk_for_aithinker/components/utils/src/utils_psk_fast.c"
	.loc 1 10 13
	.cfi_startproc
.LVL0:
	.loc 1 12 5
	.loc 1 13 5
	.loc 1 10 13 is_stmt 0
	addi	sp,sp,-64
	.cfi_def_cfa_offset 64
	sw	s1,52(sp)
	.cfi_offset 9, -12
	mv	s1,a0
	.loc 1 13 15
	mv	a0,a2
.LVL1:
	.loc 1 10 13
	sw	ra,60(sp)
	sw	a3,12(sp)
	sw	s0,56(sp)
	sw	s2,48(sp)
	.cfi_offset 1, -4
	.cfi_offset 8, -8
	.cfi_offset 18, -16
	mv	s0,a4
	mv	s2,a1
	sw	s3,44(sp)
	sw	s4,40(sp)
	.cfi_offset 19, -20
	.cfi_offset 20, -24
	mv	s3,a2
	sw	s5,36(sp)
	sw	s6,32(sp)
	.cfi_offset 21, -28
	.cfi_offset 22, -32
	.loc 1 10 13
	mv	s5,a6
	mv	s6,a5
	.loc 1 13 15
	call	strlen
.LVL2:
	.loc 1 18 5
	lw	a1,12(sp)
	.loc 1 14 29
	addi	a5,s0,4
	.loc 1 18 5
	mv	a2,s0
	.loc 1 13 15
	mv	s4,a0
.LVL3:
	.loc 1 14 5 is_stmt 1
	.loc 1 18 5 is_stmt 0
	mv	a0,s1
.LVL4:
	.loc 1 14 9
	sw	a5,24(sp)
	.loc 1 15 5 is_stmt 1
	.loc 1 15 21 is_stmt 0
	sw	s1,28(sp)
	.loc 1 18 5 is_stmt 1
	call	memcpy
.LVL5:
	.loc 1 19 5
	.loc 1 19 24 is_stmt 0
	add	a4,s1,s0
	.loc 1 22 28
	sb	s6,3(a4)
	.loc 1 19 24
	sb	zero,0(a4)
	.loc 1 20 5 is_stmt 1
	.loc 1 20 26 is_stmt 0
	sb	zero,1(a4)
	.loc 1 21 5 is_stmt 1
	.loc 1 21 26 is_stmt 0
	sb	zero,2(a4)
	.loc 1 22 5 is_stmt 1
	.loc 1 24 5
	call	bl_sha_mutex_take
.LVL6:
	.loc 1 25 5
	li	a6,20
	mv	a5,s2
	mv	a4,s4
	mv	a3,s3
	li	a2,1
	addi	a1,sp,24
	addi	a0,sp,28
	call	utils_hmac_sha1_fast
.LVL7:
	.loc 1 34 5
	li	a2,20
	mv	a1,s2
	mv	a0,s5
	.loc 1 35 11 is_stmt 0
	li	s0,4096
.LVL8:
	.loc 1 34 5
	call	memcpy
.LVL9:
	.loc 1 35 5 is_stmt 1
	.loc 1 35 11 is_stmt 0
	addi	s0,s0,-1
	sw	s2,28(sp)
	.loc 1 36 5 is_stmt 1
.LVL10:
	.loc 1 36 17
	.loc 1 38 16 is_stmt 0
	li	s6,20
.LVL11:
.L3:
	.loc 1 38 9 is_stmt 1
	.loc 1 41 9 is_stmt 0
	mv	a5,s1
	li	a6,20
	mv	a4,s4
	mv	a3,s3
	li	a2,1
	addi	a1,sp,24
	addi	a0,sp,28
	.loc 1 38 16
	sw	s6,24(sp)
	.loc 1 41 9 is_stmt 1
	call	utils_hmac_sha1_fast
.LVL12:
	.loc 1 49 9
	li	a2,20
	mv	a1,s1
	mv	a0,s2
	call	memcpy
.LVL13:
	.loc 1 52 9
	.loc 1 52 21
	.loc 1 52 16 is_stmt 0
	li	a5,0
.LVL14:
.L2:
	.loc 1 54 13 is_stmt 1
	add	a3,s5,a5
	.loc 1 54 32 is_stmt 0
	add	a4,s1,a5
	.loc 1 54 23
	lbu	a4,0(a4)
	lbu	a2,0(a3)
	.loc 1 52 30
	addi	a5,a5,1
.LVL15:
	.loc 1 54 23
	xor	a4,a4,a2
	sb	a4,0(a3)
	.loc 1 52 29 is_stmt 1
.LVL16:
	.loc 1 52 21
	.loc 1 52 9 is_stmt 0
	bne	a5,s6,.L2
	.loc 1 36 33 is_stmt 1
.LVL17:
	.loc 1 36 17
	.loc 1 36 5 is_stmt 0
	addi	s0,s0,-1
.LVL18:
	bne	s0,zero,.L3
	.loc 1 57 5 is_stmt 1
	call	bl_sha_mutex_give
.LVL19:
	.loc 1 58 1 is_stmt 0
	lw	ra,60(sp)
	.cfi_restore 1
	lw	s0,56(sp)
	.cfi_restore 8
.LVL20:
	lw	s1,52(sp)
	.cfi_restore 9
.LVL21:
	lw	s2,48(sp)
	.cfi_restore 18
.LVL22:
	lw	s3,44(sp)
	.cfi_restore 19
.LVL23:
	lw	s4,40(sp)
	.cfi_restore 20
.LVL24:
	lw	s5,36(sp)
	.cfi_restore 21
.LVL25:
	lw	s6,32(sp)
	.cfi_restore 22
	addi	sp,sp,64
	.cfi_def_cfa_offset 0
.LVL26:
	jr	ra
	.cfi_endproc
.LFE7:
	.size	Bl_F_fast.constprop.0, .-Bl_F_fast.constprop.0
	.section	.text.utils_wifi_psk_cal_fast_bin,"ax",@progbits
	.align	1
	.globl	utils_wifi_psk_cal_fast_bin
	.type	utils_wifi_psk_cal_fast_bin, @function
utils_wifi_psk_cal_fast_bin:
.LFB5:
	.loc 1 61 1 is_stmt 1
	.cfi_startproc
.LVL27:
	.loc 1 62 5
	.loc 1 64 5
	.loc 1 61 1 is_stmt 0
	addi	sp,sp,-96
	.cfi_def_cfa_offset 96
	sw	s0,88(sp)
	sw	s1,84(sp)
	sw	s2,80(sp)
	sw	s3,76(sp)
	sw	ra,92(sp)
	.cfi_offset 8, -8
	.cfi_offset 9, -12
	.cfi_offset 18, -16
	.cfi_offset 19, -20
	.cfi_offset 1, -4
	.loc 1 61 1
	mv	s2,a0
	mv	s3,a1
	mv	s1,a2
	mv	s0,a3
	.loc 1 64 10
	call	strlen
.LVL28:
	.loc 1 64 8
	li	a5,63
	bgtu	a0,a5,.L9
	.loc 1 64 33 discriminator 1
	li	a5,32
	.loc 1 65 16 discriminator 1
	li	a0,-1
	.loc 1 64 33 discriminator 1
	bgt	s1,a5,.L7
	.loc 1 68 5 is_stmt 1
	mv	a6,s0
	li	a5,2
	mv	a4,s1
	mv	a3,s3
	mv	a2,s2
	addi	a1,sp,8
	addi	a0,sp,28
	call	Bl_F_fast.constprop.0
.LVL29:
	.loc 1 69 5
	li	a2,12
	mv	a1,s0
	addi	a0,s0,20
	call	memcpy
.LVL30:
	.loc 1 70 5
	addi	a0,sp,28
	mv	a6,s0
	li	a5,1
	mv	a4,s1
	mv	a3,s3
	mv	a2,s2
	addi	a1,sp,8
	call	Bl_F_fast.constprop.0
.LVL31:
	.loc 1 72 5
	.loc 1 72 12 is_stmt 0
	li	a0,0
.L7:
	.loc 1 73 1
	lw	ra,92(sp)
	.cfi_remember_state
	.cfi_restore 1
	lw	s0,88(sp)
	.cfi_restore 8
.LVL32:
	lw	s1,84(sp)
	.cfi_restore 9
.LVL33:
	lw	s2,80(sp)
	.cfi_restore 18
.LVL34:
	lw	s3,76(sp)
	.cfi_restore 19
.LVL35:
	addi	sp,sp,96
	.cfi_def_cfa_offset 0
	jr	ra
.LVL36:
.L9:
	.cfi_restore_state
	.loc 1 65 16
	li	a0,-1
	j	.L7
	.cfi_endproc
.LFE5:
	.size	utils_wifi_psk_cal_fast_bin, .-utils_wifi_psk_cal_fast_bin
	.section	.text.utils_wifi_psk_cal_fast,"ax",@progbits
	.align	1
	.globl	utils_wifi_psk_cal_fast
	.type	utils_wifi_psk_cal_fast, @function
utils_wifi_psk_cal_fast:
.LFB6:
	.loc 1 76 1 is_stmt 1
	.cfi_startproc
.LVL37:
	.loc 1 77 5
	.loc 1 78 5
	.loc 1 80 5
	.loc 1 76 1 is_stmt 0
	addi	sp,sp,-48
	.cfi_def_cfa_offset 48
	sw	s1,36(sp)
	.cfi_offset 9, -12
	mv	s1,a3
	.loc 1 80 11
	mv	a3,sp
.LVL38:
	.loc 1 76 1
	sw	s0,40(sp)
	sw	ra,44(sp)
	.cfi_offset 8, -8
	.cfi_offset 1, -4
	.loc 1 80 11
	call	utils_wifi_psk_cal_fast_bin
.LVL39:
	mv	s0,a0
.LVL40:
	.loc 1 81 5 is_stmt 1
	.loc 1 81 8 is_stmt 0
	bne	a0,zero,.L12
	.loc 1 82 9 is_stmt 1
	li	a2,32
	mv	a1,sp
	mv	a0,s1
	call	utils_bin2hex
.LVL41:
	.loc 1 85 5
.L12:
	.loc 1 86 1 is_stmt 0
	lw	ra,44(sp)
	.cfi_restore 1
	mv	a0,s0
	lw	s0,40(sp)
	.cfi_restore 8
.LVL42:
	lw	s1,36(sp)
	.cfi_restore 9
.LVL43:
	addi	sp,sp,48
	.cfi_def_cfa_offset 0
	jr	ra
	.cfi_endproc
.LFE6:
	.size	utils_wifi_psk_cal_fast, .-utils_wifi_psk_cal_fast
	.text
.Letext0:
	.file 2 "/mnt/d/GitHub/bl_iot_sdk_for_aithinker/components/utils/include/utils_hex.h"
	.file 3 "/mnt/d/GitHub/bl_iot_sdk_for_aithinker/toolchain/riscv/Linux/riscv64-unknown-elf/include/string.h"
	.file 4 "/mnt/d/GitHub/bl_iot_sdk_for_aithinker/components/platform/hosal/bl602_hal/bl_sec.h"
	.file 5 "/mnt/d/GitHub/bl_iot_sdk_for_aithinker/components/utils/include/utils_hmac_sha1_fast.h"