	.file	"utils_string.c"
	.option nopic
	.attribute arch, "rv32i2p0_m2p0_f2p0_c2p0"
	.attribute unaligned_access, 0
	.attribute stack_align, 16
	.text
.Ltext0:
	.cfi_sections	.debug_frame
	.section	.text.params_filter.constprop.0.isra.0,"ax",@progbits
	.align	1
	.type	params_filter.constprop.0.isra.0, @function
params_filter.constprop.0.isra.0:
.LFB11:
	.file 1 "/mnt/d/GitHub/bl_iot_sdk_for_aithinker/components/utils/src/utils_string.c"
	.loc 1 6 12
	.cfi_startproc
.LVL0:
	.loc 1 8 2
	.loc 1 9 2
	.loc 1 10 2
	.loc 1 12 2
	.loc 1 14 5
	.loc 1 14 7 is_stmt 0
	lbu	a4,0(a0)
	li	a5,48
	.loc 1 19 8
	li	a3,10
	.loc 1 14 7
	bne	a4,a5,.L2
	.loc 1 14 40
	lbu	a5,1(a0)
	li	a4,88
	andi	a5,a5,223
	bne	a5,a4,.L2
	.loc 1 15 3 is_stmt 1
	.loc 1 15 5 is_stmt 0
	addi	a0,a0,2
.LVL1:
	.loc 1 16 3 is_stmt 1
	.loc 1 16 8 is_stmt 0
	li	a3,16
.LVL2:
.L2:
	.loc 1 19 8
	li	a5,0
	.loc 1 24 8
	li	a7,9
	.loc 1 26 10
	li	t1,10
	.loc 1 29 5
	li	t3,16
	.loc 1 30 6
	li	a6,5
	j	.L7
.LVL3:
.L8:
	.loc 1 23 3 is_stmt 1
	.loc 1 24 19 is_stmt 0
	addi	a2,a4,-48
	.loc 1 24 8
	andi	a2,a2,0xff
	.loc 1 23 10
	mul	a5,a5,a3
.LVL4:
	.loc 1 24 6 is_stmt 1
	.loc 1 24 8 is_stmt 0
	bgtu	a2,a7,.L3
	.loc 1 25 4 is_stmt 1
	addi	a5,a5,-48
.LVL5:
.L12:
	.loc 1 33 12 is_stmt 0
	add	a5,a5,a4
.LVL6:
.L4:
	.loc 1 36 3 is_stmt 1
	.loc 1 36 4 is_stmt 0
	addi	a0,a0,1
.LVL7:
.L7:
	.loc 1 22 7 is_stmt 1
	.loc 1 22 8 is_stmt 0
	lbu	a4,0(a0)
	.loc 1 22 7
	bne	a4,zero,.L8
	.loc 1 39 2 is_stmt 1
	.loc 1 39 5 is_stmt 0
	sw	a5,0(a1)
	.loc 1 40 2 is_stmt 1
	.loc 1 40 9 is_stmt 0
	li	a0,0
.LVL8:
	ret
.LVL9:
.L3:
	.loc 1 26 8 is_stmt 1
	.loc 1 26 10 is_stmt 0
	beq	a3,t1,.L11
	.loc 1 29 3 is_stmt 1
	.loc 1 29 5 is_stmt 0
	bne	a3,t3,.L4
	.loc 1 30 4 is_stmt 1
	.loc 1 30 17 is_stmt 0
	addi	a2,a4,-97
	.loc 1 30 6
	andi	a2,a2,0xff
	bgtu	a2,a6,.L6
	.loc 1 31 5 is_stmt 1
	addi	a5,a5,-87
.LVL10:
	j	.L12
.LVL11:
.L6:
	.loc 1 32 9
	.loc 1 32 22 is_stmt 0
	addi	a2,a4,-65
	.loc 1 32 11
	andi	a2,a2,0xff
	bgtu	a2,a6,.L4
	.loc 1 33 5 is_stmt 1
	.loc 1 33 12 is_stmt 0
	addi	a4,a4,-55
	j	.L12
.L11:
	.loc 1 27 11
	li	a0,-1
.LVL12:
	.loc 1 42 1
	ret
	.cfi_endproc
.LFE11:
	.size	params_filter.constprop.0.isra.0, .-params_filter.constprop.0.isra.0
	.section	.text.get_bytearray_from_string,"ax",@progbits
	.align	1
	.globl	get_bytearray_from_string
	.type	get_bytearray_from_string, @function
get_bytearray_from_string:
.LFB2:
	.loc 1 46 1 is_stmt 1
	.cfi_startproc
.LVL13:
	.loc 1 48 5
	.loc 1 49 5
	.loc 1 51 5
	.loc 1 46 1 is_stmt 0
	addi	sp,sp,-48
	.cfi_def_cfa_offset 48
	sw	s0,40(sp)
	sw	s1,36(sp)
	sw	s2,32(sp)
	sw	s3,28(sp)
	sw	ra,44(sp)
	.cfi_offset 8, -8
	.cfi_offset 9, -12
	.cfi_offset 18, -16
	.cfi_offset 19, -20
	.cfi_offset 1, -4
	.loc 1 46 1
	mv	s0,a0
	mv	s3,a1
	mv	s2,a2
	.loc 1 51 10
	li	s1,0
.LVL14:
.L14:
	.loc 1 51 14 is_stmt 1 discriminator 1
	.loc 1 51 5 is_stmt 0 discriminator 1
	blt	s1,s2,.L15
	.loc 1 57 1
	lw	ra,44(sp)
	.cfi_remember_state
	.cfi_restore 1
	lw	s0,40(sp)
	.cfi_restore 8
.LVL15:
	lw	s1,36(sp)
	.cfi_restore 9
.LVL16:
	lw	s2,32(sp)
	.cfi_restore 18
.LVL17:
	lw	s3,28(sp)
	.cfi_restore 19
.LVL18:
	addi	sp,sp,48
	.cfi_def_cfa_offset 0
	jr	ra
.LVL19:
.L15:
	.cfi_restore_state
	.loc 1 52 9 is_stmt 1 discriminator 3
	lw	a1,0(s0)
	li	a2,2
	addi	a0,sp,12
	call	strncpy
.LVL20:
	.loc 1 53 9 discriminator 3
	.loc 1 54 21 is_stmt 0 discriminator 3
	li	a2,16
	li	a1,0
	addi	a0,sp,12
	.loc 1 53 16 discriminator 3
	sb	zero,14(sp)
	.loc 1 54 9 is_stmt 1 discriminator 3
	.loc 1 54 21 is_stmt 0 discriminator 3
	call	strtol
.LVL21:
	.loc 1 54 19 discriminator 3
	add	a5,s3,s1
	sb	a0,0(a5)
	.loc 1 55 9 is_stmt 1 discriminator 3
	.loc 1 55 27 is_stmt 0 discriminator 3
	lw	a5,0(s0)
	.loc 1 51 31 discriminator 3
	addi	s1,s1,1
.LVL22:
	.loc 1 55 27 discriminator 3
	addi	a5,a5,2
	.loc 1 55 17 discriminator 3
	sw	a5,0(s0)
	.loc 1 51 30 is_stmt 1 discriminator 3
.LVL23:
	j	.L14
	.cfi_endproc
.LFE2:
	.size	get_bytearray_from_string, .-get_bytearray_from_string
	.section	.text.get_uint8_from_string,"ax",@progbits
	.align	1
	.globl	get_uint8_from_string
	.type	get_uint8_from_string, @function
get_uint8_from_string:
.LFB3:
	.loc 1 60 1
	.cfi_startproc
.LVL24:
	.loc 1 61 2
	.loc 1 60 1 is_stmt 0
	addi	sp,sp,-32
	.cfi_def_cfa_offset 32
	sw	s0,24(sp)
	sw	ra,28(sp)
	.cfi_offset 8, -8
	.cfi_offset 1, -4
	.loc 1 64 10
	lw	a0,0(a0)
.LVL25:
	.loc 1 60 1
	mv	s0,a1
	.loc 1 64 10
	addi	a1,sp,12
.LVL26:
	.loc 1 61 11
	sw	zero,12(sp)
	.loc 1 62 2 is_stmt 1
.LVL27:
	.loc 1 64 2
	.loc 1 64 10 is_stmt 0
	call	params_filter.constprop.0.isra.0
.LVL28:
	.loc 1 65 2 is_stmt 1
	li	a5,0
	.loc 1 65 4 is_stmt 0
	bne	a0,zero,.L18
	.loc 1 66 3 is_stmt 1
	.loc 1 66 11 is_stmt 0
	lbu	a5,12(sp)
.L18:
	.loc 1 69 1
	lw	ra,28(sp)
	.cfi_restore 1
	sb	a5,0(s0)
	lw	s0,24(sp)
	.cfi_restore 8
.LVL29:
	addi	sp,sp,32
	.cfi_def_cfa_offset 0
	jr	ra
	.cfi_endproc
.LFE3:
	.size	get_uint8_from_string, .-get_uint8_from_string
	.section	.text.get_uint16_from_string,"ax",@progbits
	.align	1
	.globl	get_uint16_from_string
	.type	get_uint16_from_string, @function
get_uint16_from_string:
.LFB4:
	.loc 1 72 1 is_stmt 1
	.cfi_startproc
.LVL30:
	.loc 1 73 2
	.loc 1 72 1 is_stmt 0
	addi	sp,sp,-32
	.cfi_def_cfa_offset 32
	sw	s0,24(sp)
	sw	ra,28(sp)
	.cfi_offset 8, -8
	.cfi_offset 1, -4
	.loc 1 76 10
	lw	a0,0(a0)
.LVL31:
	.loc 1 72 1
	mv	s0,a1
	.loc 1 76 10
	addi	a1,sp,12
.LVL32:
	.loc 1 73 11
	sw	zero,12(sp)
	.loc 1 74 2 is_stmt 1
.LVL33:
	.loc 1 76 2
	.loc 1 76 10 is_stmt 0
	call	params_filter.constprop.0.isra.0
.LVL34:
	.loc 1 77 2 is_stmt 1
	li	a5,0
	.loc 1 77 4 is_stmt 0
	bne	a0,zero,.L23
	.loc 1 78 3 is_stmt 1
	.loc 1 78 11 is_stmt 0
	lhu	a5,12(sp)
.L23:
	.loc 1 81 1
	lw	ra,28(sp)
	.cfi_restore 1
	sh	a5,0(s0)
	lw	s0,24(sp)
	.cfi_restore 8
.LVL35:
	addi	sp,sp,32
	.cfi_def_cfa_offset 0
	jr	ra
	.cfi_endproc
.LFE4:
	.size	get_uint16_from_string, .-get_uint16_from_string
	.section	.text.get_uint32_from_string,"ax",@progbits
	.align	1
	.globl	get_uint32_from_string
	.type	get_uint32_from_string, @function
get_uint32_from_string:
.LFB5:
	.loc 1 84 1 is_stmt 1
	.cfi_startproc
.LVL36:
	.loc 1 85 5
	.loc 1 84 1 is_stmt 0
	addi	sp,sp,-32
	.cfi_def_cfa_offset 32
	sw	s0,24(sp)
	sw	ra,28(sp)
	.cfi_offset 8, -8
	.cfi_offset 1, -4
	.loc 1 88 10
	lw	a0,0(a0)
.LVL37:
	.loc 1 84 1
	mv	s0,a1
	.loc 1 88 10
	addi	a1,sp,12
.LVL38:
	.loc 1 85 14
	sw	zero,12(sp)
	.loc 1 86 2 is_stmt 1
.LVL39:
	.loc 1 88 2
	.loc 1 88 10 is_stmt 0
	call	params_filter.constprop.0.isra.0
.LVL40:
	.loc 1 89 2 is_stmt 1
	li	a5,0
	.loc 1 89 4 is_stmt 0
	bne	a0,zero,.L28
	.loc 1 90 3 is_stmt 1
	.loc 1 90 11 is_stmt 0
	lw	a5,12(sp)
.L28:
	.loc 1 93 1
	lw	ra,28(sp)
	.cfi_restore 1
	sw	a5,0(s0)
	lw	s0,24(sp)
	.cfi_restore 8
.LVL41:
	addi	sp,sp,32
	.cfi_def_cfa_offset 0
	jr	ra
	.cfi_endproc
.LFE5:
	.size	get_uint32_from_string, .-get_uint32_from_string
	.section	.text.utils_parse_number,"ax",@progbits
	.align	1
	.globl	utils_parse_number
	.type	utils_parse_number, @function
utils_parse_number:
.LFB6:
	.loc 1 96 1 is_stmt 1
	.cfi_startproc
.LVL42:
	.loc 1 97 3
	.loc 1 98 3
	.loc 1 96 1 is_stmt 0
	addi	sp,sp,-32
	.cfi_def_cfa_offset 32
	sw	s0,24(sp)
	sw	s1,20(sp)
	sw	s2,16(sp)
	sw	s3,12(sp)
	sw	s4,8(sp)
	sw	s5,4(sp)
	sw	ra,28(sp)
	.cfi_offset 8, -8
	.cfi_offset 9, -12
	.cfi_offset 18, -16
	.cfi_offset 19, -20
	.cfi_offset 20, -24
	.cfi_offset 21, -28
	.cfi_offset 1, -4
	.loc 1 96 1
	mv	s0,a0
	mv	s3,a1
	mv	s4,a2
	mv	s2,a3
	mv	s5,a4
	.loc 1 98 10
	li	s1,0
.LVL43:
.L33:
	.loc 1 98 15 is_stmt 1 discriminator 1
	.loc 1 98 3 is_stmt 0 discriminator 1
	blt	s1,s2,.L36
.LVL44:
.L32:
	.loc 1 106 1
	lw	ra,28(sp)
	.cfi_remember_state
	.cfi_restore 1
	lw	s0,24(sp)
	.cfi_restore 8
	lw	s1,20(sp)
	.cfi_restore 9
.LVL45:
	lw	s2,16(sp)
	.cfi_restore 18
.LVL46:
	lw	s3,12(sp)
	.cfi_restore 19
	lw	s4,8(sp)
	.cfi_restore 20
.LVL47:
	lw	s5,4(sp)
	.cfi_restore 21
.LVL48:
	addi	sp,sp,32
	.cfi_def_cfa_offset 0
	jr	ra
.LVL49:
.L36:
	.cfi_restore_state
	.loc 1 99 5 is_stmt 1
	.loc 1 99 23 is_stmt 0
	li	a1,0
	mv	a2,s5
	mv	a0,s0
	call	strtol
.LVL50:
	.loc 1 99 12
	add	a5,s4,s1
	.loc 1 99 14
	sb	a0,0(a5)
	.loc 1 100 5 is_stmt 1
	.loc 1 100 11 is_stmt 0
	mv	a1,s3
	mv	a0,s0
	call	strchr
.LVL51:
	.loc 1 101 5 is_stmt 1
	.loc 1 101 8 is_stmt 0
	beq	a0,zero,.L32
	.loc 1 101 20 discriminator 1
	lbu	a5,0(a0)
	beq	a5,zero,.L32
	.loc 1 104 5 is_stmt 1 discriminator 2
	.loc 1 104 8 is_stmt 0 discriminator 2
	addi	s0,a0,1
.LVL52:
	.loc 1 98 27 is_stmt 1 discriminator 2
	.loc 1 98 28 is_stmt 0 discriminator 2
	addi	s1,s1,1
.LVL53:
	j	.L33
	.cfi_endproc
.LFE6:
	.size	utils_parse_number, .-utils_parse_number
	.section	.text.utils_parse_number_adv,"ax",@progbits
	.align	1
	.globl	utils_parse_number_adv
	.type	utils_parse_number_adv, @function
utils_parse_number_adv:
.LFB7:
	.loc 1 109 1 is_stmt 1
	.cfi_startproc
.LVL54:
	.loc 1 110 3
	.loc 1 112 3
	.loc 1 109 1 is_stmt 0
	addi	sp,sp,-48
	.cfi_def_cfa_offset 48
	sw	s0,40(sp)
	sw	s1,36(sp)
	sw	s2,32(sp)
	sw	s3,28(sp)
	sw	s4,24(sp)
	sw	s5,20(sp)
	sw	s6,16(sp)
	sw	ra,44(sp)
	sw	s7,12(sp)
	.cfi_offset 8, -8
	.cfi_offset 9, -12
	.cfi_offset 18, -16
	.cfi_offset 19, -20
	.cfi_offset 20, -24
	.cfi_offset 21, -28
	.cfi_offset 22, -32
	.cfi_offset 1, -4
	.cfi_offset 23, -36
	.loc 1 109 1
	mv	s0,a0
	mv	s4,a1
	mv	s5,a2
	mv	s3,a3
	mv	s6,a4
	mv	s2,a5
	.loc 1 112 3
	li	s1,0
.LVL55:
.L42:
	.loc 1 112 15 is_stmt 1 discriminator 1
	addi	s7,s1,1
	.loc 1 112 3 is_stmt 0 discriminator 1
	ble	s3,s1,.L44
	.loc 1 113 5 is_stmt 1
	.loc 1 113 23 is_stmt 0
	li	a1,0
	mv	a2,s6
	mv	a0,s0
	call	strtol
.LVL56:
	.loc 1 113 12
	add	s1,s5,s1
.LVL57:
	.loc 1 113 14
	sb	a0,0(s1)
	.loc 1 114 5 is_stmt 1
	.loc 1 114 11 is_stmt 0
	mv	a1,s4
	mv	a0,s0
	call	strchr
.LVL58:
	.loc 1 115 5 is_stmt 1
	.loc 1 115 8 is_stmt 0
	bne	a0,zero,.L43
.LVL59:
.L44:
	.loc 1 120 3 is_stmt 1
	.loc 1 121 1 is_stmt 0
	lw	ra,44(sp)
	.cfi_remember_state
	.cfi_restore 1
	lw	s0,40(sp)
	.cfi_restore 8
	.loc 1 120 10
	sw	s7,0(s2)
	.loc 1 121 1
	lw	s1,36(sp)
	.cfi_restore 9
	lw	s2,32(sp)
	.cfi_restore 18
.LVL60:
	lw	s3,28(sp)
	.cfi_restore 19
.LVL61:
	lw	s4,24(sp)
	.cfi_restore 20
	lw	s5,20(sp)
	.cfi_restore 21
.LVL62:
	lw	s6,16(sp)
	.cfi_restore 22
.LVL63:
	lw	s7,12(sp)
	.cfi_restore 23
.LVL64:
	addi	sp,sp,48
	.cfi_def_cfa_offset 0
	jr	ra
.LVL65:
.L43:
	.cfi_restore_state
	.loc 1 115 20 discriminator 1
	lbu	a5,0(a0)
	beq	a5,zero,.L44
	.loc 1 118 5 is_stmt 1 discriminator 2
	.loc 1 118 8 is_stmt 0 discriminator 2
	addi	s0,a0,1
.LVL66:
	.loc 1 112 27 is_stmt 1 discriminator 2
	.loc 1 118 8 is_stmt 0 discriminator 2
	mv	s1,s7
	j	.L42
	.cfi_endproc
.LFE7:
	.size	utils_parse_number_adv, .-utils_parse_number_adv
	.section	.text.convert_arrayToU64,"ax",@progbits
	.align	1
	.globl	convert_arrayToU64
	.type	convert_arrayToU64, @function
convert_arrayToU64:
.LFB8:
	.loc 1 125 1 is_stmt 1
	.cfi_startproc
.LVL67:
	.loc 1 126 5
	.loc 1 127 5
.LBB2:
	.loc 1 127 9
	.loc 1 127 24
.LBE2:
	.loc 1 125 1 is_stmt 0
	mv	a5,a0
	addi	a4,a0,7
	.loc 1 126 24
	li	a1,0
	li	a0,0
.LVL68:
.L52:
.LBB3:
	.loc 1 129 9 is_stmt 1 discriminator 3
	.loc 1 130 19 is_stmt 0 discriminator 3
	lbu	a2,0(a4)
	.loc 1 129 16 discriminator 3
	srli	a3,a0,24
	slli	a1,a1,8
.LVL69:
	slli	a0,a0,8
.LVL70:
	.loc 1 130 9 is_stmt 1 discriminator 3
	.loc 1 130 16 is_stmt 0 discriminator 3
	or	a1,a3,a1
.LVL71:
	mv	a3,a4
	or	a0,a2,a0
.LVL72:
	.loc 1 127 31 is_stmt 1 discriminator 3
	.loc 1 127 24 discriminator 3
	.loc 1 127 5 is_stmt 0 discriminator 3
	addi	a4,a4,-1
.LVL73:
	bne	a5,a3,.L52
.LBE3:
	.loc 1 133 5 is_stmt 1
	.loc 1 134 1 is_stmt 0
	ret
	.cfi_endproc
.LFE8:
	.size	convert_arrayToU64, .-convert_arrayToU64
	.globl	__lshrdi3
	.section	.text.convert_u64ToArray,"ax",@progbits
	.align	1
	.globl	convert_u64ToArray
	.type	convert_u64ToArray, @function
convert_u64ToArray:
.LFB9:
	.loc 1 137 1 is_stmt 1
	.cfi_startproc
.LVL74:
	.loc 1 138 5
.LBB4:
	.loc 1 138 9
	.loc 1 138 20
.LBE4:
	.loc 1 137 1 is_stmt 0
	addi	sp,sp,-32
	.cfi_def_cfa_offset 32
	sw	s0,24(sp)
	sw	s1,20(sp)
	sw	s2,16(sp)
	sw	s3,12(sp)
	sw	s4,8(sp)
	sw	ra,28(sp)
	sw	s5,4(sp)
	.cfi_offset 8, -8
	.cfi_offset 9, -12
	.cfi_offset 18, -16
	.cfi_offset 19, -20
	.cfi_offset 20, -24
	.cfi_offset 1, -4
	.cfi_offset 21, -28
	.loc 1 137 1
	mv	s2,a0
	mv	s1,a1
	mv	s3,a2
.LBB5:
	.loc 1 138 13
	li	s0,0
	.loc 1 138 5
	li	s4,8
.LVL75:
.L55:
	.loc 1 140 9 is_stmt 1 discriminator 3
	.loc 1 140 29 is_stmt 0 discriminator 3
	slli	a2,s0,3
	mv	a0,s2
	mv	a1,s1
	.loc 1 140 19 discriminator 3
	add	s5,s3,s0
	.loc 1 140 29 discriminator 3
	call	__lshrdi3
.LVL76:
	.loc 1 140 19 discriminator 3
	sb	a0,0(s5)
	.loc 1 138 27 is_stmt 1 discriminator 3
	.loc 1 138 28 is_stmt 0 discriminator 3
	addi	s0,s0,1
.LVL77:
	.loc 1 138 20 is_stmt 1 discriminator 3
	.loc 1 138 5 is_stmt 0 discriminator 3
	bne	s0,s4,.L55
.LBE5:
	.loc 1 142 1
	lw	ra,28(sp)
	.cfi_restore 1
	lw	s0,24(sp)
	.cfi_restore 8
.LVL78:
	lw	s1,20(sp)
	.cfi_restore 9
	lw	s2,16(sp)
	.cfi_restore 18
	lw	s3,12(sp)
	.cfi_restore 19
.LVL79:
	lw	s4,8(sp)
	.cfi_restore 20
	lw	s5,4(sp)
	.cfi_restore 21
	addi	sp,sp,32
	.cfi_def_cfa_offset 0
	jr	ra
	.cfi_endproc
.LFE9:
	.size	convert_u64ToArray, .-convert_u64ToArray
	.text
.Letext0:
	.file 2 "/mnt/d/GitHub/bl_iot_sdk_for_aithinker/toolchain/riscv/Linux/lib/gcc/riscv64-unknown-elf/10.2.0/include/stdint-gcc.h"
	.file 3 "/mnt/d/GitHub/bl_iot_sdk_for_aithinker/toolchain/riscv/Linux/riscv64-unknown-elf/include/stdlib.h"
	.file 4 "/mnt/d/GitHub/bl_iot_sdk_for_aithinker/toolchain/riscv/Linux/riscv64-unknown-elf/include/string.h"