	.file	"utils_rbtree.c"
	.option nopic
	.attribute arch, "rv32i2p0_m2p0_f2p0_c2p0"
	.attribute unaligned_access, 0
	.attribute stack_align, 16
	.text
.Ltext0:
	.cfi_sections	.debug_frame
	.section	.text.rb_node_rotate,"ax",@progbits
	.align	1
	.type	rb_node_rotate, @function
rb_node_rotate:
.LFB8:
	.file 1 "/mnt/d/GitHub/bl_iot_sdk_for_aithinker/components/utils/src/utils_rbtree.c"
	.loc 1 72 1
	.cfi_startproc
.LVL0:
	.loc 1 73 5
	.loc 1 75 5
	.loc 1 75 8 is_stmt 0
	beq	a0,zero,.L2
	.loc 1 76 9 is_stmt 1
	.loc 1 76 29 is_stmt 0
	seqz	a5,a1
	slli	a5,a5,2
	add	a5,a0,a5
	.loc 1 76 16
	lw	a4,4(a5)
.LVL1:
	.loc 1 77 9 is_stmt 1
	slli	a1,a1,2
.LVL2:
	add	a1,a4,a1
	.loc 1 77 40 is_stmt 0
	lw	a3,4(a1)
	.loc 1 77 26
	sw	a3,4(a5)
	.loc 1 78 9 is_stmt 1
	.loc 1 78 27 is_stmt 0
	sw	a0,4(a1)
	.loc 1 79 9 is_stmt 1
	.loc 1 79 19 is_stmt 0
	li	a5,1
	sw	a5,0(a0)
	.loc 1 80 9 is_stmt 1
	.loc 1 80 21 is_stmt 0
	sw	zero,0(a4)
	mv	a0,a4
.LVL3:
.L2:
	.loc 1 82 5 is_stmt 1
	.loc 1 83 1 is_stmt 0
	ret
	.cfi_endproc
.LFE8:
	.size	rb_node_rotate, .-rb_node_rotate
	.section	.text.rb_node_rotate2,"ax",@progbits
	.align	1
	.type	rb_node_rotate2, @function
rb_node_rotate2:
.LFB9:
	.loc 1 86 1 is_stmt 1
	.cfi_startproc
.LVL4:
	.loc 1 87 5
	.loc 1 89 5
	.loc 1 89 8 is_stmt 0
	beq	a0,zero,.L7
	.loc 1 86 1
	addi	sp,sp,-16
	.cfi_def_cfa_offset 16
	sw	s1,4(sp)
	.cfi_offset 9, -12
	mv	s1,a1
	.loc 1 90 9 is_stmt 1
	.loc 1 90 54 is_stmt 0
	seqz	a1,a1
.LVL5:
	.loc 1 86 1
	sw	s2,0(sp)
	.cfi_offset 18, -16
	slli	s2,a1,2
	sw	s0,8(sp)
	sw	ra,12(sp)
	.cfi_offset 8, -8
	.cfi_offset 1, -4
	add	s2,a0,s2
	mv	s0,a0
	.loc 1 90 28
	lw	a0,4(s2)
.LVL6:
	call	rb_node_rotate
.LVL7:
	.loc 1 90 26
	sw	a0,4(s2)
	.loc 1 91 9 is_stmt 1
	.loc 1 91 18 is_stmt 0
	mv	a0,s0
	.loc 1 94 1
	lw	s0,8(sp)
	.cfi_restore 8
.LVL8:
	lw	ra,12(sp)
	.cfi_restore 1
	lw	s2,0(sp)
	.cfi_restore 18
	.loc 1 91 18
	mv	a1,s1
	.loc 1 94 1
	lw	s1,4(sp)
	.cfi_restore 9
.LVL9:
	addi	sp,sp,16
	.cfi_def_cfa_offset 0
	.loc 1 91 18
	tail	rb_node_rotate
.LVL10:
.L7:
	.loc 1 93 5 is_stmt 1
	.loc 1 94 1 is_stmt 0
	ret
	.cfi_endproc
.LFE9:
	.size	rb_node_rotate2, .-rb_node_rotate2
	.section	.text.rb_tree_node_cmp_ptr_cb,"ax",@progbits
	.align	1
	.globl	rb_tree_node_cmp_ptr_cb
	.type	rb_tree_node_cmp_ptr_cb, @function
rb_tree_node_cmp_ptr_cb:
.LFB10:
	.loc 1 98 1 is_stmt 1
	.cfi_startproc
.LVL11:
	.loc 1 99 5
	.loc 1 99 14 is_stmt 0
	lw	a5,12(a1)
	.loc 1 99 25
	lw	a4,12(a2)
	.loc 1 99 22
	sgtu	a0,a5,a4
.LVL12:
	.loc 1 99 46
	sltu	a5,a5,a4
	.loc 1 100 1
	sub	a0,a0,a5
	ret
	.cfi_endproc
.LFE10:
	.size	rb_tree_node_cmp_ptr_cb, .-rb_tree_node_cmp_ptr_cb
	.section	.text.rb_iter_move,"ax",@progbits
	.align	1
	.type	rb_iter_move, @function
rb_iter_move:
.LFB28:
	.loc 1 487 1 is_stmt 1
	.cfi_startproc
.LVL13:
	.loc 1 488 5
	.loc 1 488 13 is_stmt 0
	lw	a2,4(a0)
	slli	a4,a1,2
	add	a3,a2,a4
	.loc 1 488 8
	lw	a5,4(a3)
	beq	a5,zero,.L13
	.loc 1 490 24
	lw	a5,264(a0)
	.loc 1 490 9 is_stmt 1
	xori	a1,a1,1
.LVL14:
	slli	a1,a1,2
.LVL15:
	.loc 1 490 29 is_stmt 0
	addi	a4,a5,1
	.loc 1 490 33
	slli	a5,a5,2
	.loc 1 490 29
	sw	a4,264(a0)
	.loc 1 490 33
	add	a5,a0,a5
	sw	a2,8(a5)
	.loc 1 491 9 is_stmt 1
	.loc 1 491 38 is_stmt 0
	lw	a5,4(a3)
	.loc 1 491 20
	sw	a5,4(a0)
	.loc 1 492 9 is_stmt 1
.L14:
	.loc 1 492 15
	.loc 1 492 21 is_stmt 0
	lw	a3,4(a0)
	add	a4,a3,a1
	.loc 1 492 15
	lw	a5,4(a4)
	bne	a5,zero,.L15
.L16:
	.loc 1 508 5 is_stmt 1
	.loc 1 508 16 is_stmt 0
	lw	a0,4(a0)
.LVL16:
	.loc 1 508 37
	beq	a0,zero,.L12
	.loc 1 508 37 discriminator 1
	lw	a0,12(a0)
.L12:
	.loc 1 509 1
	ret
.LVL17:
.L15:
	.loc 1 493 13 is_stmt 1
	.loc 1 493 28 is_stmt 0
	lw	a5,264(a0)
	.loc 1 493 33
	addi	a2,a5,1
	.loc 1 493 37
	slli	a5,a5,2
	.loc 1 493 33
	sw	a2,264(a0)
	.loc 1 493 37
	add	a5,a0,a5
	sw	a3,8(a5)
	.loc 1 494 13 is_stmt 1
	.loc 1 494 42 is_stmt 0
	lw	a5,4(a4)
	.loc 1 494 24
	sw	a5,4(a0)
	j	.L14
.LVL18:
.L17:
.LBB54:
	.loc 1 504 13 is_stmt 1
	.loc 1 505 37 is_stmt 0
	addi	a5,a5,-1
	.loc 1 505 24
	sw	a5,264(a0)
	.loc 1 505 36
	slli	a5,a5,2
	add	a5,a0,a5
	lw	a5,8(a5)
	.loc 1 504 18
	lw	a3,4(a0)
.LVL19:
	.loc 1 505 13 is_stmt 1
	.loc 1 505 24 is_stmt 0
	sw	a5,4(a0)
	.loc 1 506 17 is_stmt 1
	.loc 1 506 42 is_stmt 0
	add	a5,a5,a4
	.loc 1 506 9
	lw	a5,4(a5)
	bne	a5,a3,.L16
.LVL20:
.L13:
	.loc 1 499 9 is_stmt 1
	.loc 1 500 13
	.loc 1 500 21 is_stmt 0
	lw	a5,264(a0)
	.loc 1 500 16
	bne	a5,zero,.L17
	.loc 1 501 17 is_stmt 1
	.loc 1 501 28 is_stmt 0
	sw	zero,4(a0)
	.loc 1 502 17 is_stmt 1
	j	.L16
.LBE54:
	.cfi_endproc
.LFE28:
	.size	rb_iter_move, .-rb_iter_move
	.section	.text.rb_node_alloc,"ax",@progbits
	.align	1
	.globl	rb_node_alloc
	.type	rb_node_alloc, @function
rb_node_alloc:
.LFB3:
	.loc 1 40 1
	.cfi_startproc
	.loc 1 41 5
	.loc 1 41 12 is_stmt 0
	li	a0,16
	tail	pvPortMalloc
.LVL21:
	.cfi_endproc
.LFE3:
	.size	rb_node_alloc, .-rb_node_alloc
	.section	.text.rb_node_init,"ax",@progbits
	.align	1
	.globl	rb_node_init
	.type	rb_node_init, @function
rb_node_init:
.LFB4:
	.loc 1 45 1 is_stmt 1
	.cfi_startproc
.LVL22:
	.loc 1 46 5
	.loc 1 46 8 is_stmt 0
	beq	a0,zero,.L28
	.loc 1 47 9 is_stmt 1
	.loc 1 47 19 is_stmt 0
	li	a5,1
	sw	a5,0(a0)
	.loc 1 48 9 is_stmt 1
	.loc 1 48 39 is_stmt 0
	sw	zero,8(a0)
	.loc 1 48 23
	sw	zero,4(a0)
	.loc 1 49 9 is_stmt 1
	.loc 1 49 21 is_stmt 0
	sw	a1,12(a0)
.L28:
	.loc 1 51 5 is_stmt 1
	.loc 1 52 1 is_stmt 0
	ret
	.cfi_endproc
.LFE4:
	.size	rb_node_init, .-rb_node_init
	.section	.text.rb_node_create,"ax",@progbits
	.align	1
	.globl	rb_node_create
	.type	rb_node_create, @function
rb_node_create:
.LFB5:
	.loc 1 55 1 is_stmt 1
	.cfi_startproc
.LVL23:
	.loc 1 56 5
	.loc 1 55 1 is_stmt 0
	addi	sp,sp,-16
	.cfi_def_cfa_offset 16
	sw	s0,8(sp)
	sw	ra,12(sp)
	.cfi_offset 8, -8
	.cfi_offset 1, -4
	.loc 1 55 1
	mv	s0,a0
	.loc 1 56 12
	call	rb_node_alloc
.LVL24:
.LBB55:
.LBB56:
	.loc 1 46 5 is_stmt 1
	.loc 1 46 8 is_stmt 0
	beq	a0,zero,.L32
	.loc 1 47 9 is_stmt 1
	.loc 1 47 19 is_stmt 0
	li	a5,1
	sw	a5,0(a0)
	.loc 1 48 9 is_stmt 1
	.loc 1 48 39 is_stmt 0
	sw	zero,8(a0)
	.loc 1 48 23
	sw	zero,4(a0)
	.loc 1 49 9 is_stmt 1
	.loc 1 49 21 is_stmt 0
	sw	s0,12(a0)
	.loc 1 51 5 is_stmt 1
.LVL25:
.L32:
.LBE56:
.LBE55:
	.loc 1 57 1 is_stmt 0
	lw	ra,12(sp)
	.cfi_restore 1
	lw	s0,8(sp)
	.cfi_restore 8
.LVL26:
	addi	sp,sp,16
	.cfi_def_cfa_offset 0
	jr	ra
	.cfi_endproc
.LFE5:
	.size	rb_node_create, .-rb_node_create
	.section	.text.rb_node_dealloc,"ax",@progbits
	.align	1
	.globl	rb_node_dealloc
	.type	rb_node_dealloc, @function
rb_node_dealloc:
.LFB6:
	.loc 1 60 1 is_stmt 1
	.cfi_startproc
.LVL27:
	.loc 1 61 5
	.loc 1 61 8 is_stmt 0
	beq	a0,zero,.L38
	.loc 1 62 9 is_stmt 1
	tail	vPortFree
.LVL28:
.L38:
	.loc 1 64 1 is_stmt 0
	ret
	.cfi_endproc
.LFE6:
	.size	rb_node_dealloc, .-rb_node_dealloc
	.section	.text.rb_tree_node_dealloc_cb,"ax",@progbits
	.align	1
	.globl	rb_tree_node_dealloc_cb
	.type	rb_tree_node_dealloc_cb, @function
rb_tree_node_dealloc_cb:
.LFB11:
	.loc 1 103 1 is_stmt 1
	.cfi_startproc
.LVL29:
	.loc 1 104 5
	.loc 1 104 8 is_stmt 0
	beq	a0,zero,.L40
	.loc 1 105 9 is_stmt 1
	.loc 1 105 12 is_stmt 0
	beq	a1,zero,.L40
	.loc 1 106 13 is_stmt 1
	mv	a0,a1
.LVL30:
	tail	rb_node_dealloc
.LVL31:
.L40:
	.loc 1 109 1 is_stmt 0
	ret
	.cfi_endproc
.LFE11:
	.size	rb_tree_node_dealloc_cb, .-rb_tree_node_dealloc_cb
	.section	.text.rb_tree_alloc,"ax",@progbits
	.align	1
	.globl	rb_tree_alloc
	.type	rb_tree_alloc, @function
rb_tree_alloc:
.LFB35:
	.cfi_startproc
	tail	rb_node_alloc
	.cfi_endproc
.LFE35:
	.size	rb_tree_alloc, .-rb_tree_alloc
	.section	.text.rb_tree_init,"ax",@progbits
	.align	1
	.globl	rb_tree_init
	.type	rb_tree_init, @function
rb_tree_init:
.LFB13:
	.loc 1 118 1 is_stmt 1
	.cfi_startproc
.LVL32:
	.loc 1 119 5
	.loc 1 119 8 is_stmt 0
	beq	a0,zero,.L50
	.loc 1 120 9 is_stmt 1
	.loc 1 120 20 is_stmt 0
	sw	zero,0(a0)
	.loc 1 121 9 is_stmt 1
	.loc 1 121 20 is_stmt 0
	sw	zero,8(a0)
	.loc 1 122 9 is_stmt 1
	.loc 1 122 47 is_stmt 0
	bne	a1,zero,.L51
	lui	a1,%hi(rb_tree_node_cmp_ptr_cb)
.LVL33:
	addi	a1,a1,%lo(rb_tree_node_cmp_ptr_cb)
.L51:
	.loc 1 122 19 discriminator 4
	sw	a1,4(a0)
.L50:
	.loc 1 125 5 is_stmt 1
	.loc 1 126 1 is_stmt 0
	ret
	.cfi_endproc
.LFE13:
	.size	rb_tree_init, .-rb_tree_init
	.section	.text.rb_tree_create,"ax",@progbits
	.align	1
	.globl	rb_tree_create
	.type	rb_tree_create, @function
rb_tree_create:
.LFB14:
	.loc 1 129 1 is_stmt 1
	.cfi_startproc
.LVL34:
	.loc 1 130 5
	.loc 1 129 1 is_stmt 0
	addi	sp,sp,-32
	.cfi_def_cfa_offset 32
	sw	ra,28(sp)
	.cfi_offset 1, -4
	.loc 1 129 1
	sw	a0,12(sp)
	.loc 1 130 12
	call	rb_node_alloc
.LVL35:
	lw	a1,12(sp)
	.loc 1 131 1
	lw	ra,28(sp)
	.cfi_restore 1
	addi	sp,sp,32
	.cfi_def_cfa_offset 0
.LVL36:
	.loc 1 130 12
	tail	rb_tree_init
.LVL37:
	.cfi_endproc
.LFE14:
	.size	rb_tree_create, .-rb_tree_create
	.section	.text.rb_tree_dealloc,"ax",@progbits
	.align	1
	.globl	rb_tree_dealloc
	.type	rb_tree_dealloc, @function
rb_tree_dealloc:
.LFB15:
	.loc 1 134 1 is_stmt 1
	.cfi_startproc
.LVL38:
	.loc 1 135 5
	.loc 1 135 8 is_stmt 0
	beq	a0,zero,.L57
	.loc 1 134 1
	addi	sp,sp,-32
	.cfi_def_cfa_offset 32
	sw	s1,20(sp)
	sw	ra,28(sp)
	sw	s0,24(sp)
	.cfi_offset 9, -12
	.cfi_offset 1, -4
	.cfi_offset 8, -8
	mv	s1,a1
	.loc 1 136 9 is_stmt 1
	.loc 1 136 12 is_stmt 0
	bne	a1,zero,.L59
.LVL39:
.L64:
	.loc 1 160 9 is_stmt 1
	.loc 1 162 1 is_stmt 0
	lw	s0,24(sp)
	.cfi_remember_state
	.cfi_restore 8
	lw	ra,28(sp)
	.cfi_restore 1
	lw	s1,20(sp)
	.cfi_restore 9
.LVL40:
	addi	sp,sp,32
	.cfi_def_cfa_offset 0
	.loc 1 160 9
	tail	vPortFree
.LVL41:
.L59:
	.cfi_restore_state
.LBB57:
	.loc 1 137 13 is_stmt 1
	.loc 1 137 29 is_stmt 0
	lw	a1,0(a0)
.LVL42:
	.loc 1 138 13 is_stmt 1
	.loc 1 143 13
.L60:
	.loc 1 143 19
	beq	a1,zero,.L64
	.loc 1 144 17
	.loc 1 144 31 is_stmt 0
	lw	s0,4(a1)
	.loc 1 144 20
	bne	s0,zero,.L61
	.loc 1 147 21 is_stmt 1
	.loc 1 148 21 is_stmt 0
	sw	a0,12(sp)
	.loc 1 147 26
	lw	s0,8(a1)
.LVL43:
	.loc 1 148 21 is_stmt 1
	jalr	s1
.LVL44:
	.loc 1 149 21
	lw	a0,12(sp)
.LVL45:
.L62:
.LBE57:
	.loc 1 134 1 is_stmt 0
	mv	a1,s0
	j	.L60
.LVL46:
.L61:
.LBB58:
	.loc 1 153 21 is_stmt 1
	.loc 1 154 21
	.loc 1 154 47 is_stmt 0
	lw	a5,8(s0)
	.loc 1 154 35
	sw	a5,4(a1)
	.loc 1 155 21 is_stmt 1
	.loc 1 155 35 is_stmt 0
	sw	a1,8(s0)
	j	.L62
.LVL47:
.L57:
	.cfi_def_cfa_offset 0
	.cfi_restore 1
	.cfi_restore 8
	.cfi_restore 9
	ret
.LBE58:
	.cfi_endproc
.LFE15:
	.size	rb_tree_dealloc, .-rb_tree_dealloc
	.section	.rodata.rb_tree_test.str1.4,"aMS",@progbits,1
	.align	2
.LC0:
	.string	"Red violation"
	.align	2
.LC1:
	.string	"Binary tree violation"
	.align	2
.LC2:
	.string	"Black violation"
	.section	.text.rb_tree_test,"ax",@progbits
	.align	1
	.globl	rb_tree_test
	.type	rb_tree_test, @function
rb_tree_test:
.LFB16:
	.loc 1 165 1 is_stmt 1
	.cfi_startproc
.LVL48:
	.loc 1 166 5
	.loc 1 168 5
	.loc 1 165 1 is_stmt 0
	addi	sp,sp,-32
	.cfi_def_cfa_offset 32
	sw	s0,24(sp)
	sw	ra,28(sp)
	sw	s1,20(sp)
	sw	s2,16(sp)
	sw	s3,12(sp)
	sw	s4,8(sp)
	sw	s5,4(sp)
	.cfi_offset 8, -8
	.cfi_offset 1, -4
	.cfi_offset 9, -12
	.cfi_offset 18, -16
	.cfi_offset 19, -20
	.cfi_offset 20, -24
	.cfi_offset 21, -28
	.loc 1 169 16
	li	s0,1
	.loc 1 168 8
	beq	a1,zero,.L68
.LBB59:
	.loc 1 175 12
	lw	a5,0(a1)
	.loc 1 171 25
	lw	s4,4(a1)
	.loc 1 172 25
	lw	s3,8(a1)
	mv	s2,a0
	mv	s1,a1
	.loc 1 171 9 is_stmt 1
.LVL49:
	.loc 1 172 9
	.loc 1 175 9
.LBB60:
.LBB61:
	.loc 1 68 5
.LBE61:
.LBE60:
	.loc 1 175 12 is_stmt 0
	beq	a5,zero,.L70
	.loc 1 176 13 is_stmt 1
.LVL50:
.LBB62:
.LBB63:
	.loc 1 68 5
	.loc 1 68 29 is_stmt 0
	beq	s4,zero,.L71
.LVL51:
.LBE63:
.LBE62:
	.loc 1 176 16
	lw	a5,0(s4)
	bne	a5,zero,.L72
.L71:
.LVL52:
.LBB64:
.LBB65:
	.loc 1 68 5 is_stmt 1
	.loc 1 68 29 is_stmt 0
	beq	s3,zero,.L70
.LVL53:
.LBE65:
.LBE64:
	.loc 1 176 36
	lw	a5,0(s3)
	beq	a5,zero,.L70
.L72:
	.loc 1 177 17 is_stmt 1
	lui	a0,%hi(.LC0)
.LVL54:
	addi	a0,a0,%lo(.LC0)
	call	printf
.LVL55:
	.loc 1 178 17
.L80:
	.loc 1 203 20 is_stmt 0
	li	s0,0
	j	.L68
.LVL56:
.L70:
	.loc 1 182 9 is_stmt 1
	.loc 1 182 14 is_stmt 0
	mv	a1,s4
	mv	a0,s2
.LVL57:
	call	rb_tree_test
.LVL58:
	mv	s0,a0
.LVL59:
	.loc 1 183 9 is_stmt 1
	.loc 1 183 14 is_stmt 0
	mv	a1,s3
	mv	a0,s2
	call	rb_tree_test
.LVL60:
	mv	s5,a0
.LVL61:
	.loc 1 186 9 is_stmt 1
	.loc 1 186 12 is_stmt 0
	bne	s4,zero,.L73
.LVL62:
.L76:
	.loc 1 187 13
	bne	s3,zero,.L74
.L75:
	.loc 1 194 9 is_stmt 1
	.loc 1 194 12 is_stmt 0
	beq	s0,zero,.L68
	.loc 1 194 22 discriminator 1
	beq	s5,zero,.L80
	.loc 1 194 33 discriminator 2
	beq	s0,s5,.L78
	.loc 1 195 13 is_stmt 1
	lui	a0,%hi(.LC2)
	addi	a0,a0,%lo(.LC2)
	j	.L97
.LVL63:
.L73:
	.loc 1 186 29 is_stmt 0 discriminator 1
	lw	a5,4(s2)
	mv	a2,s1
	mv	a1,s4
	mv	a0,s2
.LVL64:
	jalr	a5
.LVL65:
	.loc 1 186 26 discriminator 1
	blt	a0,zero,.L76
.L77:
	.loc 1 189 13 is_stmt 1
	lui	a0,%hi(.LC1)
	addi	a0,a0,%lo(.LC1)
.L97:
	.loc 1 195 13 is_stmt 0
	call	puts
.LVL66:
	.loc 1 196 13 is_stmt 1
	j	.L80
.L74:
	.loc 1 187 31 is_stmt 0 discriminator 1
	lw	a5,4(s2)
	mv	a2,s1
	mv	a1,s3
	mv	a0,s2
	jalr	a5
.LVL67:
	.loc 1 187 28 discriminator 1
	bgt	a0,zero,.L75
	j	.L77
.L78:
	.loc 1 200 9 is_stmt 1
	.loc 1 201 13
.LVL68:
.LBB66:
.LBB67:
	.loc 1 68 5
.LBE67:
.LBE66:
	.loc 1 201 49 is_stmt 0
	lw	a5,0(s1)
	bne	a5,zero,.L68
	.loc 1 201 49 discriminator 1
	addi	s0,s0,1
.LVL69:
.L68:
.LBE59:
	.loc 1 205 1
	lw	ra,28(sp)
	.cfi_restore 1
	mv	a0,s0
	lw	s0,24(sp)
	.cfi_restore 8
	lw	s1,20(sp)
	.cfi_restore 9
	lw	s2,16(sp)
	.cfi_restore 18
	lw	s3,12(sp)
	.cfi_restore 19
	lw	s4,8(sp)
	.cfi_restore 20
	lw	s5,4(sp)
	.cfi_restore 21
	addi	sp,sp,32
	.cfi_def_cfa_offset 0
	jr	ra
	.cfi_endproc
.LFE16:
	.size	rb_tree_test, .-rb_tree_test
	.section	.text.rb_tree_find,"ax",@progbits
	.align	1
	.globl	rb_tree_find
	.type	rb_tree_find, @function
rb_tree_find:
.LFB17:
	.loc 1 208 1 is_stmt 1
	.cfi_startproc
.LVL70:
	.loc 1 209 5
	.loc 1 211 5
	.loc 1 208 1 is_stmt 0
	addi	sp,sp,-32
	.cfi_def_cfa_offset 32
	sw	s1,20(sp)
	sw	ra,28(sp)
	sw	s0,24(sp)
	.cfi_offset 9, -12
	.cfi_offset 1, -4
	.cfi_offset 8, -8
	.loc 1 208 1
	mv	s1,a0
	.loc 1 211 8
	beq	a0,zero,.L105
.LBB68:
	.loc 1 212 9 is_stmt 1
	.loc 1 213 25 is_stmt 0
	lw	s0,0(a0)
	.loc 1 212 24
	sw	zero,0(sp)
	sw	zero,4(sp)
	sw	zero,8(sp)
	sw	a1,12(sp)
	.loc 1 213 9 is_stmt 1
.LVL71:
	.loc 1 214 9
	.loc 1 215 9
.L100:
	.loc 1 215 15
	bne	s0,zero,.L102
.L103:
.LVL72:
	.loc 1 225 16 is_stmt 0 discriminator 4
	mv	s1,s0
.LVL73:
.LBE68:
	.loc 1 227 5 is_stmt 1 discriminator 4
.L105:
	.loc 1 228 1 is_stmt 0
	lw	ra,28(sp)
	.cfi_remember_state
	.cfi_restore 1
	lw	s0,24(sp)
	.cfi_restore 8
	mv	a0,s1
	lw	s1,20(sp)
	.cfi_restore 9
	addi	sp,sp,32
	.cfi_def_cfa_offset 0
	jr	ra
.LVL74:
.L102:
	.cfi_restore_state
.LBB69:
	.loc 1 216 13 is_stmt 1
	.loc 1 216 24 is_stmt 0
	lw	a5,4(s1)
	mv	a2,sp
	mv	a1,s0
	mv	a0,s1
	jalr	a5
.LVL75:
	.loc 1 216 16
	beq	a0,zero,.L101
	.loc 1 220 17 is_stmt 1
	.loc 1 220 35 is_stmt 0
	srli	a0,a0,31
.LVL76:
	.loc 1 220 20
	slli	a0,a0,2
	add	s0,s0,a0
.LVL77:
	lw	s0,4(s0)
.LVL78:
	j	.L100
.LVL79:
.L101:
	.loc 1 225 9 is_stmt 1
	.loc 1 225 33 is_stmt 0
	lw	s0,12(s0)
.LVL80:
	j	.L103
.LBE69:
	.cfi_endproc
.LFE17:
	.size	rb_tree_find, .-rb_tree_find
	.section	.text.rb_tree_insert_node,"ax",@progbits
	.align	1
	.globl	rb_tree_insert_node
	.type	rb_tree_insert_node, @function
rb_tree_insert_node:
.LFB19:
	.loc 1 250 1 is_stmt 1
	.cfi_startproc
.LVL81:
	.loc 1 251 5
	.loc 1 251 8 is_stmt 0
	beq	a0,zero,.L121
	.loc 1 250 1 discriminator 1
	addi	sp,sp,-64
	.cfi_def_cfa_offset 64
	sw	s1,52(sp)
	sw	s7,28(sp)
	sw	ra,60(sp)
	sw	s0,56(sp)
	sw	s2,48(sp)
	sw	s3,44(sp)
	sw	s4,40(sp)
	sw	s5,36(sp)
	sw	s6,32(sp)
	sw	s8,24(sp)
	.cfi_offset 9, -12
	.cfi_offset 23, -36
	.cfi_offset 1, -4
	.cfi_offset 8, -8
	.cfi_offset 18, -16
	.cfi_offset 19, -20
	.cfi_offset 20, -24
	.cfi_offset 21, -28
	.cfi_offset 22, -32
	.cfi_offset 24, -40
	mv	s1,a0
	mv	s7,a1
	.loc 1 316 16 discriminator 1
	li	a0,0
.LVL82:
	.loc 1 251 14 discriminator 1
	beq	a1,zero,.L109
.LVL83:
.LBB82:
.LBB83:
	.loc 1 252 9 is_stmt 1
	.loc 1 252 17 is_stmt 0
	lw	s0,0(s1)
	.loc 1 252 12
	bne	s0,zero,.L111
	.loc 1 253 13 is_stmt 1
	.loc 1 253 24 is_stmt 0
	sw	a1,0(s1)
.LVL84:
.L112:
	.loc 1 313 9 is_stmt 1
	.loc 1 313 13 is_stmt 0
	lw	a5,0(s1)
	.loc 1 314 9
	li	a0,1
	.loc 1 313 25
	sw	zero,0(a5)
	.loc 1 314 9 is_stmt 1
	lw	a5,8(s1)
	addi	a5,a5,1
	sw	a5,8(s1)
	.loc 1 319 5
.LVL85:
.L109:
.LBE83:
.LBE82:
	.loc 1 320 1 is_stmt 0
	lw	ra,60(sp)
	.cfi_remember_state
	.cfi_restore 1
	lw	s0,56(sp)
	.cfi_restore 8
	lw	s1,52(sp)
	.cfi_restore 9
.LVL86:
	lw	s2,48(sp)
	.cfi_restore 18
	lw	s3,44(sp)
	.cfi_restore 19
	lw	s4,40(sp)
	.cfi_restore 20
	lw	s5,36(sp)
	.cfi_restore 21
	lw	s6,32(sp)
	.cfi_restore 22
	lw	s7,28(sp)
	.cfi_restore 23
.LVL87:
	lw	s8,24(sp)
	.cfi_restore 24
	addi	sp,sp,64
	.cfi_def_cfa_offset 0
	jr	ra
.LVL88:
.L111:
	.cfi_restore_state
.LBB96:
.LBB95:
.LBB84:
	.loc 1 255 13 is_stmt 1
	.loc 1 255 28 is_stmt 0
	sw	zero,0(sp)
	sw	zero,4(sp)
	sw	zero,12(sp)
	.loc 1 256 13 is_stmt 1
	.loc 1 257 13
	.loc 1 258 13
.LVL89:
	.loc 1 261 13
	.loc 1 262 13
	.loc 1 263 13
	.loc 1 263 28 is_stmt 0
	sw	s0,8(sp)
.LVL90:
	.loc 1 258 26
	li	a5,0
	.loc 1 258 17
	li	s5,0
	.loc 1 262 19
	li	s8,0
	.loc 1 261 15
	mv	s4,sp
	.loc 1 262 15
	li	s3,0
	.loc 1 274 28
	li	s6,1
.LVL91:
.L119:
	.loc 1 266 13 is_stmt 1
	.loc 1 267 17
	.loc 1 267 20 is_stmt 0
	bne	s0,zero,.L113
	.loc 1 270 21 is_stmt 1
.LVL92:
	.loc 1 270 34 is_stmt 0
	slli	a4,s5,2
	add	a4,s8,a4
	sw	s7,4(a4)
	mv	s0,s7
.LVL93:
.L114:
	.loc 1 279 17 is_stmt 1
.LBB85:
.LBB86:
	.loc 1 68 5
.LBE86:
.LBE85:
	.loc 1 279 20 is_stmt 0
	lw	a4,0(s0)
	beq	a4,zero,.L115
.LVL94:
.LBB87:
.LBB88:
	.loc 1 68 5 is_stmt 1
	.loc 1 68 29 is_stmt 0
	beq	s8,zero,.L115
.LVL95:
.LBE88:
.LBE87:
	.loc 1 279 39
	lw	a4,0(s8)
	beq	a4,zero,.L115
.LBB89:
	.loc 1 282 21 is_stmt 1
	.loc 1 282 43 is_stmt 0
	lw	s2,8(s4)
	xori	a1,a5,1
	.loc 1 283 37
	slli	a5,a5,2
.LVL96:
	add	a5,s8,a5
	.loc 1 283 24
	lw	a5,4(a5)
	.loc 1 282 43
	sub	s2,s2,s3
	seqz	s2,s2
.LVL97:
	.loc 1 283 21 is_stmt 1
	slli	s2,s2,2
.LVL98:
	.loc 1 284 41 is_stmt 0
	mv	a0,s3
	.loc 1 283 24
	bne	a5,s0,.L116
.LVL99:
	.loc 1 284 25 is_stmt 1
	.loc 1 284 41 is_stmt 0
	call	rb_node_rotate
.LVL100:
.L148:
	.loc 1 286 39
	add	s2,s4,s2
	sw	a0,4(s2)
.L115:
.LBE89:
	.loc 1 292 17 is_stmt 1
	.loc 1 292 21 is_stmt 0
	lw	a5,4(s1)
	mv	a2,s7
	mv	a1,s0
	mv	a0,s1
	jalr	a5
.LVL101:
	.loc 1 292 20
	beq	a0,zero,.L117
	.loc 1 296 17 is_stmt 1
.LVL102:
	.loc 1 297 17
	.loc 1 297 23 is_stmt 0
	lw	a5,4(s1)
	mv	a2,s7
	mv	a1,s0
	mv	a0,s1
	jalr	a5
.LVL103:
	.loc 1 297 48
	srli	a0,a0,31
.LVL104:
	.loc 1 300 17 is_stmt 1
	.loc 1 300 20 is_stmt 0
	beq	s3,zero,.L118
	mv	s4,s3
.LVL105:
.L118:
	.loc 1 304 17 is_stmt 1
	.loc 1 305 17
	.loc 1 305 19 is_stmt 0
	slli	a4,a0,2
	add	a4,s0,a4
.LVL106:
	.loc 1 266 19 is_stmt 1
	.loc 1 296 22 is_stmt 0
	mv	a5,s5
	.loc 1 267 20
	mv	s3,s8
	.loc 1 297 21
	mv	s5,a0
.LVL107:
	.loc 1 267 20
	mv	s8,s0
.LVL108:
	.loc 1 305 19
	lw	s0,4(a4)
.LVL109:
	.loc 1 267 20
	j	.L119
.LVL110:
.L113:
	.loc 1 271 24 is_stmt 1
	.loc 1 271 50 is_stmt 0
	lw	a4,4(s0)
.LVL111:
.LBB90:
.LBB91:
	.loc 1 68 5 is_stmt 1
	.loc 1 68 29 is_stmt 0
	beq	a4,zero,.L114
.LVL112:
.LBE91:
.LBE90:
	.loc 1 271 27
	lw	a3,0(a4)
	beq	a3,zero,.L114
	.loc 1 271 80
	lw	a3,8(s0)
.LVL113:
.LBB92:
.LBB93:
	.loc 1 68 5 is_stmt 1
	.loc 1 68 29 is_stmt 0
	beq	a3,zero,.L114
.LVL114:
.LBE93:
.LBE92:
	.loc 1 271 55
	lw	a3,0(a3)
	beq	a3,zero,.L114
	.loc 1 274 21 is_stmt 1
	.loc 1 274 28 is_stmt 0
	sw	s6,0(s0)
	.loc 1 275 21 is_stmt 1
	.loc 1 275 37 is_stmt 0
	sw	zero,0(a4)
	.loc 1 276 21 is_stmt 1
	.loc 1 276 28 is_stmt 0
	lw	a4,8(s0)
	.loc 1 276 37
	sw	zero,0(a4)
	j	.L114
.LVL115:
.L116:
.LBB94:
	.loc 1 286 25 is_stmt 1
	.loc 1 286 41 is_stmt 0
	call	rb_node_rotate2
.LVL116:
	j	.L148
.L117:
.LBE94:
	.loc 1 309 13 is_stmt 1
	.loc 1 309 24 is_stmt 0
	lw	a5,8(sp)
	sw	a5,0(s1)
	j	.L112
.LVL117:
.L121:
	.cfi_def_cfa_offset 0
	.cfi_restore 1
	.cfi_restore 8
	.cfi_restore 9
	.cfi_restore 18
	.cfi_restore 19
	.cfi_restore 20
	.cfi_restore 21
	.cfi_restore 22
	.cfi_restore 23
	.cfi_restore 24
.LBE84:
.LBE95:
.LBE96:
	.loc 1 316 16
	li	a0,0
.LVL118:
	.loc 1 320 1
	ret
	.cfi_endproc
.LFE19:
	.size	rb_tree_insert_node, .-rb_tree_insert_node
	.section	.text.rb_tree_insert,"ax",@progbits
	.align	1
	.globl	rb_tree_insert
	.type	rb_tree_insert, @function
rb_tree_insert:
.LFB18:
	.loc 1 232 1 is_stmt 1
	.cfi_startproc
.LVL119:
	.loc 1 233 5
	.loc 1 235 5
	.loc 1 232 1 is_stmt 0
	addi	sp,sp,-16
	.cfi_def_cfa_offset 16
	sw	s0,8(sp)
	sw	ra,12(sp)
	.cfi_offset 8, -8
	.cfi_offset 1, -4
	.loc 1 232 1
	mv	s0,a0
	.loc 1 235 8
	beq	a0,zero,.L151
	mv	a0,a1
.LVL120:
	.loc 1 239 5 is_stmt 1
	.loc 1 239 12 is_stmt 0
	call	rb_node_create
.LVL121:
	mv	a1,a0
.LVL122:
	.loc 1 241 5 is_stmt 1
	.loc 1 241 8 is_stmt 0
	beq	a0,zero,.L151
	.loc 1 245 5 is_stmt 1
	.loc 1 245 12 is_stmt 0
	mv	a0,s0
.LVL123:
	.loc 1 246 1
	lw	s0,8(sp)
	.cfi_remember_state
	.cfi_restore 8
.LVL124:
	lw	ra,12(sp)
	.cfi_restore 1
	addi	sp,sp,16
	.cfi_def_cfa_offset 0
	.loc 1 245 12
	tail	rb_tree_insert_node
.LVL125:
.L151:
	.cfi_restore_state
	.loc 1 246 1
	lw	ra,12(sp)
	.cfi_restore 1
	lw	s0,8(sp)
	.cfi_restore 8
.LVL126:
	li	a0,0
	addi	sp,sp,16
	.cfi_def_cfa_offset 0
	jr	ra
	.cfi_endproc
.LFE18:
	.size	rb_tree_insert, .-rb_tree_insert
	.section	.text.rb_tree_remove_with_cb,"ax",@progbits
	.align	1
	.globl	rb_tree_remove_with_cb
	.type	rb_tree_remove_with_cb, @function
rb_tree_remove_with_cb:
.LFB20:
	.loc 1 326 1 is_stmt 1
	.cfi_startproc
.LVL127:
	.loc 1 327 5
	.loc 1 327 13 is_stmt 0
	lw	a5,0(a0)
	.loc 1 327 8
	beq	a5,zero,.L214
	.loc 1 326 1
	addi	sp,sp,-112
	.cfi_def_cfa_offset 112
	sw	s0,104(sp)
	sw	s3,92(sp)
	sw	s4,88(sp)
	sw	s5,84(sp)
	sw	s8,72(sp)
	sw	s10,64(sp)
	sw	s11,60(sp)
	sw	ra,108(sp)
	sw	s1,100(sp)
	sw	s2,96(sp)
	sw	s6,80(sp)
	sw	s7,76(sp)
	sw	s9,68(sp)
	.cfi_offset 8, -8
	.cfi_offset 19, -20
	.cfi_offset 20, -24
	.cfi_offset 21, -28
	.cfi_offset 24, -40
	.cfi_offset 26, -48
	.cfi_offset 27, -52
	.cfi_offset 1, -4
	.cfi_offset 9, -12
	.cfi_offset 18, -16
	.cfi_offset 22, -32
	.cfi_offset 23, -36
	.cfi_offset 25, -44
	mv	s8,a0
	mv	s3,a2
.LBB97:
	.loc 1 328 9 is_stmt 1
	.loc 1 328 24 is_stmt 0
	sw	zero,16(sp)
	sw	zero,20(sp)
	sw	zero,28(sp)
	.loc 1 329 9 is_stmt 1
	.loc 1 329 24 is_stmt 0
	sw	zero,32(sp)
	sw	zero,36(sp)
	sw	zero,40(sp)
	sw	a1,44(sp)
	.loc 1 330 9 is_stmt 1
	.loc 1 331 9
.LVL128:
	.loc 1 332 9
	.loc 1 335 9
	.loc 1 336 9
	.loc 1 337 9
	.loc 1 337 20 is_stmt 0
	sw	a5,24(sp)
	.loc 1 341 9 is_stmt 1
	.loc 1 332 13 is_stmt 0
	li	s11,1
	.loc 1 331 25
	li	s4,0
	.loc 1 336 15
	li	s10,0
	.loc 1 335 11
	addi	s0,sp,16
.LVL129:
.LBB98:
.LBB99:
.LBB100:
	.loc 1 377 57
	li	s5,1
.LVL130:
.L159:
.LBE100:
.LBE99:
.LBE98:
	.loc 1 341 15 is_stmt 1
	slli	a3,s11,2
	add	s7,s0,a3
	.loc 1 341 23 is_stmt 0
	lw	s9,4(s7)
	.loc 1 341 15
	bne	s9,zero,.L169
	.loc 1 387 9 is_stmt 1
	.loc 1 387 12 is_stmt 0
	beq	s4,zero,.L171
.LBB117:
	.loc 1 388 13 is_stmt 1
	.loc 1 389 25 is_stmt 0
	lw	a4,12(s0)
	.loc 1 388 19
	lw	a5,12(s4)
.LVL131:
	.loc 1 389 13 is_stmt 1
	.loc 1 389 22 is_stmt 0
	sw	a4,12(s4)
	.loc 1 390 13 is_stmt 1
	.loc 1 390 22 is_stmt 0
	sw	a5,12(s0)
	.loc 1 392 13 is_stmt 1
	.loc 1 392 59 is_stmt 0
	lw	a5,4(s0)
.LVL132:
	.loc 1 392 32
	lw	s1,8(s10)
	.loc 1 392 59
	seqz	a5,a5
	.loc 1 392 47
	slli	a5,a5,2
	add	a5,s0,a5
	.loc 1 392 32
	sub	s1,s1,s0
	.loc 1 392 47
	lw	a5,4(a5)
	.loc 1 392 32
	seqz	s1,s1
	.loc 1 392 38
	slli	s1,s1,2
	add	s1,s10,s1
	sw	a5,4(s1)
.LVL133:
	.loc 1 394 13 is_stmt 1
	.loc 1 394 16 is_stmt 0
	beq	s3,zero,.L171
	.loc 1 395 17 is_stmt 1
	mv	a1,s0
	mv	a0,s8
	jalr	s3
.LVL134:
.L171:
.LBE117:
	.loc 1 401 9
	.loc 1 401 31 is_stmt 0
	lw	a5,24(sp)
	.loc 1 401 20
	sw	a5,0(s8)
	.loc 1 404 9 is_stmt 1
	.loc 1 404 12 is_stmt 0
	beq	a5,zero,.L173
	.loc 1 405 13 is_stmt 1
	.loc 1 405 29 is_stmt 0
	sw	zero,0(a5)
.L173:
	.loc 1 408 9 is_stmt 1
	lw	a5,8(s8)
.LBE97:
	.loc 1 411 1 is_stmt 0
	li	a0,1
.LBB119:
	.loc 1 408 9
	addi	a5,a5,-1
	sw	a5,8(s8)
.LBE119:
	.loc 1 410 5 is_stmt 1
	.loc 1 411 1 is_stmt 0
	lw	ra,108(sp)
	.cfi_remember_state
	.cfi_restore 1
	lw	s0,104(sp)
	.cfi_restore 8
	lw	s1,100(sp)
	.cfi_restore 9
	lw	s2,96(sp)
	.cfi_restore 18
	lw	s3,92(sp)
	.cfi_restore 19
.LVL135:
	lw	s4,88(sp)
	.cfi_restore 20
.LVL136:
	lw	s5,84(sp)
	.cfi_restore 21
	lw	s6,80(sp)
	.cfi_restore 22
	lw	s7,76(sp)
	.cfi_restore 23
	lw	s8,72(sp)
	.cfi_restore 24
.LVL137:
	lw	s9,68(sp)
	.cfi_restore 25
	lw	s10,64(sp)
	.cfi_restore 26
.LVL138:
	lw	s11,60(sp)
	.cfi_restore 27
.LVL139:
	addi	sp,sp,112
	.cfi_def_cfa_offset 0
	jr	ra
.LVL140:
.L169:
	.cfi_restore_state
.LBB120:
.LBB118:
	.loc 1 347 19
	lw	a5,4(s8)
	addi	a2,sp,32
	mv	a1,s9
	mv	a0,s8
	sw	a3,12(sp)
	.loc 1 342 13 is_stmt 1
.LVL141:
	.loc 1 345 13
	.loc 1 346 13
	.loc 1 347 13
	.loc 1 347 19 is_stmt 0
	jalr	a5
.LVL142:
	.loc 1 351 17
	lw	a5,4(s8)
	.loc 1 347 19
	mv	s2,a0
	.loc 1 347 45
	srli	s6,a0,31
.LVL143:
	.loc 1 351 13 is_stmt 1
	.loc 1 351 17 is_stmt 0
	addi	a2,sp,32
	mv	a1,s9
	mv	a0,s8
	jalr	a5
.LVL144:
	.loc 1 351 16
	lw	a3,12(sp)
	bne	a0,zero,.L160
	mv	s4,s9
.LVL145:
.L160:
	.loc 1 356 13 is_stmt 1
.LBB110:
.LBB111:
	.loc 1 68 5
.LBE111:
.LBE110:
	.loc 1 356 16 is_stmt 0
	lw	a5,0(s9)
	bne	a5,zero,.L161
	.loc 1 356 62 discriminator 1
	slli	a5,s6,2
	add	a5,s9,a5
	lw	a5,4(a5)
.LVL146:
.LBB112:
.LBB113:
	.loc 1 68 5 is_stmt 1 discriminator 1
	.loc 1 68 29 is_stmt 0 discriminator 1
	beq	a5,zero,.L162
.LVL147:
.LBE113:
.LBE112:
	.loc 1 356 36
	lw	a5,0(a5)
	bne	a5,zero,.L161
.L162:
	.loc 1 357 17 is_stmt 1
	.loc 1 357 44 is_stmt 0
	not	s2,s2
	srli	s2,s2,31
	.loc 1 357 43
	slli	s2,s2,2
	add	s2,s9,s2
	lw	a5,4(s2)
.LVL148:
.LBB114:
.LBB115:
	.loc 1 68 5 is_stmt 1
	.loc 1 68 29 is_stmt 0
	beq	a5,zero,.L163
.LVL149:
.LBE115:
.LBE114:
	.loc 1 357 20
	lw	a5,0(a5)
	beq	a5,zero,.L163
	.loc 1 358 21 is_stmt 1
	.loc 1 358 41 is_stmt 0
	mv	a1,s6
	mv	a0,s9
	call	rb_node_rotate
.LVL150:
	mv	s0,a0
.LVL151:
	.loc 1 358 39
	sw	a0,4(s7)
.LVL152:
.L161:
	.loc 1 351 16
	mv	s10,s0
.LVL153:
	mv	s11,s6
.LVL154:
	mv	s0,s9
.LVL155:
	j	.L159
.LVL156:
.L163:
.LBB116:
	.loc 1 360 21 is_stmt 1
	xori	a4,s11,1
	.loc 1 360 37 is_stmt 0
	slli	a4,a4,2
	add	a5,s0,a4
	lw	a5,4(a5)
.LVL157:
	.loc 1 361 21 is_stmt 1
	.loc 1 361 24 is_stmt 0
	beq	a5,zero,.L161
	.loc 1 362 25 is_stmt 1
	.loc 1 362 52 is_stmt 0
	add	a4,a5,a4
	lw	a4,4(a4)
.LVL158:
.LBB105:
.LBB106:
	.loc 1 68 5 is_stmt 1
	.loc 1 68 29 is_stmt 0
	beq	a4,zero,.L164
.LVL159:
.LBE106:
.LBE105:
	.loc 1 362 28
	lw	a2,0(a4)
	bne	a2,zero,.L165
.L164:
	.loc 1 362 87 discriminator 1
	add	a2,a5,a3
	lw	a2,4(a2)
.LVL160:
.LBB107:
.LBB108:
	.loc 1 68 5 is_stmt 1 discriminator 1
	.loc 1 68 29 is_stmt 0 discriminator 1
	beq	a2,zero,.L166
.LVL161:
.LBE108:
.LBE107:
	.loc 1 362 61
	lw	a2,0(a2)
	bne	a2,zero,.L165
.L166:
	.loc 1 365 29 is_stmt 1
	.loc 1 365 36 is_stmt 0
	sw	zero,0(s0)
	.loc 1 366 29 is_stmt 1
	.loc 1 366 36 is_stmt 0
	sw	s5,0(a5)
	.loc 1 367 29 is_stmt 1
	.loc 1 367 36 is_stmt 0
	sw	s5,0(s9)
	j	.L161
.L165:
.LBB109:
	.loc 1 369 29 is_stmt 1
	.loc 1 369 51 is_stmt 0
	lw	s1,8(s10)
	.loc 1 370 55
	add	a5,a5,a3
.LVL162:
	lw	a5,4(a5)
	.loc 1 369 51
	sub	s1,s1,s0
	seqz	s1,s1
.LVL163:
	.loc 1 370 29 is_stmt 1
.LBB101:
.LBB102:
	.loc 1 68 5
	slli	s1,s1,2
.LVL164:
	.loc 1 68 29 is_stmt 0
	beq	a5,zero,.L167
.LVL165:
.LBE102:
.LBE101:
	.loc 1 370 32
	lw	a5,0(a5)
	beq	a5,zero,.L167
	.loc 1 371 33 is_stmt 1
	.loc 1 371 49 is_stmt 0
	mv	a1,s11
	mv	a0,s0
	call	rb_node_rotate2
.LVL166:
.L217:
	.loc 1 373 47
	add	a5,s10,s1
	sw	a0,4(a5)
.L168:
	.loc 1 377 29 is_stmt 1
	add	s1,s10,s1
	.loc 1 377 45 is_stmt 0
	lw	a5,4(s1)
	.loc 1 377 57
	sw	s5,0(a5)
	.loc 1 377 36
	sw	s5,0(s9)
	.loc 1 378 29 is_stmt 1
	.loc 1 378 48 is_stmt 0
	lw	a5,4(s1)
	lw	a5,4(a5)
	.loc 1 378 57
	sw	zero,0(a5)
	.loc 1 379 29 is_stmt 1
	.loc 1 379 48 is_stmt 0
	lw	a5,4(s1)
	lw	a5,8(a5)
	.loc 1 379 57
	sw	zero,0(a5)
	j	.L161
.LVL167:
.L167:
	.loc 1 372 36 is_stmt 1
.LBB103:
.LBB104:
	.loc 1 68 5
	.loc 1 68 29 is_stmt 0
	beq	a4,zero,.L168
.LVL168:
.LBE104:
.LBE103:
	.loc 1 372 39
	lw	a5,0(a4)
	beq	a5,zero,.L168
	.loc 1 373 33 is_stmt 1
	.loc 1 373 49 is_stmt 0
	mv	a1,s11
	mv	a0,s0
	call	rb_node_rotate
.LVL169:
	j	.L217
.LVL170:
.L214:
	.cfi_def_cfa_offset 0
	.cfi_restore 1
	.cfi_restore 8
	.cfi_restore 9
	.cfi_restore 18
	.cfi_restore 19
	.cfi_restore 20
	.cfi_restore 21
	.cfi_restore 22
	.cfi_restore 23
	.cfi_restore 24
	.cfi_restore 25
	.cfi_restore 26
	.cfi_restore 27
.LBE109:
.LBE116:
.LBE118:
.LBE120:
	.loc 1 410 5 is_stmt 1
	.loc 1 411 1 is_stmt 0
	li	a0,1
.LVL171:
	ret
	.cfi_endproc
.LFE20:
	.size	rb_tree_remove_with_cb, .-rb_tree_remove_with_cb
	.section	.text.rb_tree_remove,"ax",@progbits
	.align	1
	.globl	rb_tree_remove
	.type	rb_tree_remove, @function
rb_tree_remove:
.LFB21:
	.loc 1 414 1 is_stmt 1
	.cfi_startproc
.LVL172:
	.loc 1 415 5
	.loc 1 417 5
	.loc 1 417 8 is_stmt 0
	beq	a0,zero,.L219
	.loc 1 418 9 is_stmt 1
	.loc 1 418 18 is_stmt 0
	lui	a2,%hi(rb_tree_node_dealloc_cb)
	addi	a2,a2,%lo(rb_tree_node_dealloc_cb)
	tail	rb_tree_remove_with_cb
.LVL173:
.L219:
	.loc 1 420 5 is_stmt 1
	.loc 1 421 1 is_stmt 0
	ret
	.cfi_endproc
.LFE21:
	.size	rb_tree_remove, .-rb_tree_remove
	.section	.text.rb_tree_size,"ax",@progbits
	.align	1
	.globl	rb_tree_size
	.type	rb_tree_size, @function
rb_tree_size:
.LFB22:
	.loc 1 424 1 is_stmt 1
	.cfi_startproc
.LVL174:
	.loc 1 425 5
	.loc 1 427 5
	.loc 1 427 8 is_stmt 0
	beq	a0,zero,.L222
	.loc 1 428 9 is_stmt 1
	.loc 1 428 16 is_stmt 0
	lw	a0,8(a0)
.LVL175:
	ret
.LVL176:
.L222:
	.loc 1 425 12
	li	a0,0
.LVL177:
	.loc 1 430 5 is_stmt 1
	.loc 1 431 1 is_stmt 0
	ret
	.cfi_endproc
.LFE22:
	.size	rb_tree_size, .-rb_tree_size
	.section	.text.rb_iter_alloc,"ax",@progbits
	.align	1
	.globl	rb_iter_alloc
	.type	rb_iter_alloc, @function
rb_iter_alloc:
.LFB23:
	.loc 1 435 1 is_stmt 1
	.cfi_startproc
	.loc 1 436 5
	.loc 1 436 12 is_stmt 0
	li	a0,272
	tail	pvPortMalloc
.LVL178:
	.cfi_endproc
.LFE23:
	.size	rb_iter_alloc, .-rb_iter_alloc
	.section	.text.rb_iter_init,"ax",@progbits
	.align	1
	.globl	rb_iter_init
	.type	rb_iter_init, @function
rb_iter_init:
.LFB24:
	.loc 1 440 1 is_stmt 1
	.cfi_startproc
.LVL179:
	.loc 1 441 5
	.loc 1 441 8 is_stmt 0
	beq	a0,zero,.L225
	.loc 1 442 9 is_stmt 1
	.loc 1 442 20 is_stmt 0
	sw	zero,0(a0)
	.loc 1 443 9 is_stmt 1
	.loc 1 443 20 is_stmt 0
	sw	zero,4(a0)
	.loc 1 444 9 is_stmt 1
	.loc 1 444 19 is_stmt 0
	sw	zero,264(a0)
.L225:
	.loc 1 446 5 is_stmt 1
	.loc 1 447 1 is_stmt 0
	ret
	.cfi_endproc
.LFE24:
	.size	rb_iter_init, .-rb_iter_init
	.section	.text.rb_iter_create,"ax",@progbits
	.align	1
	.globl	rb_iter_create
	.type	rb_iter_create, @function
rb_iter_create:
.LFB25:
	.loc 1 450 1 is_stmt 1
	.cfi_startproc
	.loc 1 451 5
	.loc 1 450 1 is_stmt 0
	addi	sp,sp,-16
	.cfi_def_cfa_offset 16
	sw	ra,12(sp)
	.cfi_offset 1, -4
	.loc 1 451 12
	call	rb_iter_alloc
.LVL180:
	.loc 1 452 1
	lw	ra,12(sp)
	.cfi_restore 1
	addi	sp,sp,16
	.cfi_def_cfa_offset 0
	.loc 1 451 12
	tail	rb_iter_init
.LVL181:
	.cfi_endproc
.LFE25:
	.size	rb_iter_create, .-rb_iter_create
	.section	.text.rb_iter_dealloc,"ax",@progbits
	.align	1
	.globl	rb_iter_dealloc
	.type	rb_iter_dealloc, @function
rb_iter_dealloc:
.LFB37:
	.cfi_startproc
	tail	rb_node_dealloc
	.cfi_endproc
.LFE37:
	.size	rb_iter_dealloc, .-rb_iter_dealloc
	.section	.text.rb_iter_first,"ax",@progbits
	.align	1
	.globl	rb_iter_first
	.type	rb_iter_first, @function
rb_iter_first:
.LFB29:
	.loc 1 512 1 is_stmt 1
	.cfi_startproc
.LVL182:
	.loc 1 513 5
.LBB123:
.LBB124:
	.loc 1 465 5
	.loc 1 467 5
	.loc 1 467 8 is_stmt 0
	bne	a0,zero,.L233
.L237:
	.loc 1 465 11
	li	a0,0
.LVL183:
	ret
.LVL184:
.L233:
	.loc 1 468 9 is_stmt 1
	.loc 1 468 20 is_stmt 0
	sw	a1,0(a0)
	.loc 1 469 9 is_stmt 1
	.loc 1 469 26 is_stmt 0
	lw	a5,0(a1)
	.loc 1 470 19
	sw	zero,264(a0)
	.loc 1 469 20
	sw	a5,4(a0)
	.loc 1 470 9 is_stmt 1
	.loc 1 473 9
	.loc 1 473 12 is_stmt 0
	bne	a5,zero,.L235
.L239:
	.loc 1 479 9 is_stmt 1
	.loc 1 479 22 is_stmt 0
	lw	a5,4(a0)
	.loc 1 479 43
	beq	a5,zero,.L237
	lw	a0,12(a5)
.LVL185:
	.loc 1 482 5 is_stmt 1
.LBE124:
.LBE123:
	.loc 1 514 1 is_stmt 0
	ret
.LVL186:
.L238:
.LBB126:
.LBB125:
	.loc 1 475 17 is_stmt 1
	.loc 1 475 32 is_stmt 0
	lw	a5,264(a0)
	.loc 1 475 37
	addi	a3,a5,1
	.loc 1 475 41
	slli	a5,a5,2
	.loc 1 475 37
	sw	a3,264(a0)
	.loc 1 475 41
	add	a5,a0,a5
	sw	a4,8(a5)
	.loc 1 476 17 is_stmt 1
	.loc 1 476 46 is_stmt 0
	lw	a5,4(a4)
	.loc 1 476 28
	sw	a5,4(a0)
.L235:
	.loc 1 474 19 is_stmt 1
	.loc 1 474 24 is_stmt 0
	lw	a4,4(a0)
	.loc 1 474 19
	lw	a5,4(a4)
	bne	a5,zero,.L238
	j	.L239
.LBE125:
.LBE126:
	.cfi_endproc
.LFE29:
	.size	rb_iter_first, .-rb_iter_first
	.section	.text.rb_iter_last,"ax",@progbits
	.align	1
	.globl	rb_iter_last
	.type	rb_iter_last, @function
rb_iter_last:
.LFB30:
	.loc 1 517 1 is_stmt 1
	.cfi_startproc
.LVL187:
	.loc 1 518 5
.LBB129:
.LBB130:
	.loc 1 465 5
	.loc 1 467 5
	.loc 1 467 8 is_stmt 0
	bne	a0,zero,.L242
.L246:
	.loc 1 465 11
	li	a0,0
.LVL188:
	ret
.LVL189:
.L242:
	.loc 1 468 9 is_stmt 1
	.loc 1 468 20 is_stmt 0
	sw	a1,0(a0)
	.loc 1 469 9 is_stmt 1
	.loc 1 469 26 is_stmt 0
	lw	a5,0(a1)
	.loc 1 470 19
	sw	zero,264(a0)
	.loc 1 469 20
	sw	a5,4(a0)
	.loc 1 470 9 is_stmt 1
	.loc 1 473 9
	.loc 1 473 12 is_stmt 0
	bne	a5,zero,.L244
.L248:
	.loc 1 479 9 is_stmt 1
	.loc 1 479 22 is_stmt 0
	lw	a5,4(a0)
	.loc 1 479 43
	beq	a5,zero,.L246
	lw	a0,12(a5)
.LVL190:
	.loc 1 482 5 is_stmt 1
.LBE130:
.LBE129:
	.loc 1 519 1 is_stmt 0
	ret
.LVL191:
.L247:
.LBB132:
.LBB131:
	.loc 1 475 17 is_stmt 1
	.loc 1 475 32 is_stmt 0
	lw	a5,264(a0)
	.loc 1 475 37
	addi	a3,a5,1
	.loc 1 475 41
	slli	a5,a5,2
	.loc 1 475 37
	sw	a3,264(a0)
	.loc 1 475 41
	add	a5,a0,a5
	sw	a4,8(a5)
	.loc 1 476 17 is_stmt 1
	.loc 1 476 46 is_stmt 0
	lw	a5,8(a4)
	.loc 1 476 28
	sw	a5,4(a0)
.L244:
	.loc 1 474 19 is_stmt 1
	.loc 1 474 24 is_stmt 0
	lw	a4,4(a0)
	.loc 1 474 19
	lw	a5,8(a4)
	bne	a5,zero,.L247
	j	.L248
.LBE131:
.LBE132:
	.cfi_endproc
.LFE30:
	.size	rb_iter_last, .-rb_iter_last
	.section	.text.rb_iter_next,"ax",@progbits
	.align	1
	.globl	rb_iter_next
	.type	rb_iter_next, @function
rb_iter_next:
.LFB31:
	.loc 1 522 1 is_stmt 1
	.cfi_startproc
.LVL192:
	.loc 1 523 5
	.loc 1 523 12 is_stmt 0
	li	a1,1
	tail	rb_iter_move
.LVL193:
	.cfi_endproc
.LFE31:
	.size	rb_iter_next, .-rb_iter_next
	.section	.text.rb_iter_prev,"ax",@progbits
	.align	1
	.globl	rb_iter_prev
	.type	rb_iter_prev, @function
rb_iter_prev:
.LFB32:
	.loc 1 527 1 is_stmt 1
	.cfi_startproc
.LVL194:
	.loc 1 528 5
	.loc 1 528 12 is_stmt 0
	li	a1,0
	tail	rb_iter_move
.LVL195:
	.cfi_endproc
.LFE32:
	.size	rb_iter_prev, .-rb_iter_prev
	.text
.Letext0:
	.file 2 "/mnt/d/GitHub/bl_iot_sdk_for_aithinker/toolchain/riscv/Linux/lib/gcc/riscv64-unknown-elf/10.2.0/include/stddef.h"
	.file 3 "/mnt/d/GitHub/bl_iot_sdk_for_aithinker/components/utils/include/utils_rbtree.h"
	.file 4 "/mnt/d/GitHub/bl_iot_sdk_for_aithinker/components/platform/soc/bl602/freertos_riscv_ram/config/portable.h"
	.file 5 "/mnt/d/GitHub/bl_iot_sdk_for_aithinker/toolchain/riscv/Linux/riscv64-unknown-elf/include/stdio.h"