	.file	"utils_ringblk.c"
	.option nopic
	.attribute arch, "rv32i2p0_m2p0_f2p0_c2p0"
	.attribute unaligned_access, 0
	.attribute stack_align, 16
	.text
.Ltext0:
	.cfi_sections	.debug_frame
	.section	.rodata.utils_rbb_init.str1.4,"aMS",@progbits,1
	.align	2
.LC0:
	.string	"rbb"
	.align	2
.LC1:
	.string	"/mnt/d/GitHub/bl_iot_sdk_for_aithinker/components/utils/src/utils_ringblk.c"
	.align	2
.LC2:
	.string	"buf"
	.align	2
.LC3:
	.string	"block_set"
	.section	.text.utils_rbb_init,"ax",@progbits
	.align	1
	.globl	utils_rbb_init
	.type	utils_rbb_init, @function
utils_rbb_init:
.LFB22:
	.file 1 "/mnt/d/GitHub/bl_iot_sdk_for_aithinker/components/utils/src/utils_ringblk.c"
	.loc 1 31 1
	.cfi_startproc
.LVL0:
	.loc 1 32 5
	.loc 1 34 4
	.loc 1 31 1 is_stmt 0
	addi	sp,sp,-16
	.cfi_def_cfa_offset 16
	sw	ra,12(sp)
	.cfi_offset 1, -4
	.loc 1 34 16
	bne	a0,zero,.L2
	.loc 1 34 18 discriminator 1
	lui	a3,%hi(.LC0)
.LVL1:
	lui	a2,%hi(.LANCHOR0)
.LVL2:
	addi	a3,a3,%lo(.LC0)
	addi	a2,a2,%lo(.LANCHOR0)
	li	a1,34
.LVL3:
.L8:
	.loc 1 35 18 discriminator 1
	lui	a0,%hi(.LC1)
.LVL4:
	addi	a0,a0,%lo(.LC1)
	call	__assert_func
.LVL5:
.L2:
	.loc 1 35 4 is_stmt 1
	.loc 1 35 16 is_stmt 0
	bne	a1,zero,.L3
	.loc 1 35 18 discriminator 1
	lui	a3,%hi(.LC2)
.LVL6:
	lui	a2,%hi(.LANCHOR0)
.LVL7:
	addi	a3,a3,%lo(.LC2)
	addi	a2,a2,%lo(.LANCHOR0)
	li	a1,35
.LVL8:
	j	.L8
.LVL9:
.L3:
	.loc 1 36 4 is_stmt 1
	.loc 1 36 16 is_stmt 0
	bne	a3,zero,.L4
	.loc 1 36 18 discriminator 1
	lui	a3,%hi(.LC3)
.LVL10:
	lui	a2,%hi(.LANCHOR0)
.LVL11:
	addi	a3,a3,%lo(.LC3)
	addi	a2,a2,%lo(.LANCHOR0)
	li	a1,36
.LVL12:
	j	.L8
.LVL13:
.L4:
	.loc 1 38 5 is_stmt 1
	.loc 1 38 14 is_stmt 0
	sw	a1,0(a0)
	.loc 1 39 5 is_stmt 1
	.loc 1 39 19 is_stmt 0
	sw	a2,4(a0)
	.loc 1 40 5 is_stmt 1
	.loc 1 40 18 is_stmt 0
	sw	a3,8(a0)
	.loc 1 41 5 is_stmt 1
	.loc 1 41 22 is_stmt 0
	sw	a4,12(a0)
	.loc 1 42 5 is_stmt 1
.LVL14:
.LBB34:
.LBB35:
	.file 2 "/mnt/d/GitHub/bl_iot_sdk_for_aithinker/components/utils/include/utils_list.h"
	.loc 2 491 5
	.loc 2 491 16 is_stmt 0
	sw	zero,16(a0)
.LVL15:
.LBE35:
.LBE34:
	.loc 1 44 5 is_stmt 1
	.loc 1 44 12 is_stmt 0
	li	a5,0
	.loc 1 46 29
	li	a1,12
.LVL16:
.L5:
	.loc 1 44 17 is_stmt 1 discriminator 1
	.loc 1 44 5 is_stmt 0 discriminator 1
	bne	a5,a4,.L6
	.loc 1 48 1
	lw	ra,12(sp)
	.cfi_remember_state
	.cfi_restore 1
	addi	sp,sp,16
	.cfi_def_cfa_offset 0
	jr	ra
.L6:
	.cfi_restore_state
	.loc 1 46 9 is_stmt 1 discriminator 3
	.loc 1 46 29 is_stmt 0 discriminator 3
	mul	a2,a5,a1
	.loc 1 44 35 discriminator 3
	addi	a5,a5,1
.LVL17:
	.loc 1 46 29 discriminator 3
	add	a2,a3,a2
	sb	zero,0(a2)
	.loc 1 44 34 is_stmt 1 discriminator 3
.LVL18:
	j	.L5
	.cfi_endproc
.LFE22:
	.size	utils_rbb_init, .-utils_rbb_init
	.section	.text.utils_rbb_create,"ax",@progbits
	.align	1
	.globl	utils_rbb_create
	.type	utils_rbb_create, @function
utils_rbb_create:
.LFB23:
	.loc 1 61 1
	.cfi_startproc
.LVL19:
	.loc 1 62 5
	.loc 1 63 5
	.loc 1 64 5
	.loc 1 66 5
	.loc 1 61 1 is_stmt 0
	addi	sp,sp,-32
	.cfi_def_cfa_offset 32
	sw	s2,16(sp)
	.cfi_offset 18, -16
	mv	s2,a0
	.loc 1 66 24
	li	a0,20
.LVL20:
	.loc 1 61 1
	sw	s0,24(sp)
	sw	s3,12(sp)
	sw	ra,28(sp)
	sw	s1,20(sp)
	.cfi_offset 8, -8
	.cfi_offset 19, -20
	.cfi_offset 1, -4
	.cfi_offset 9, -12
	.loc 1 61 1
	mv	s3,a1
	.loc 1 66 24
	call	pvPortMalloc
.LVL21:
	mv	s0,a0
.LVL22:
	.loc 1 67 5 is_stmt 1
	.loc 1 67 8 is_stmt 0
	beq	a0,zero,.L9
	.loc 1 72 5 is_stmt 1
	.loc 1 72 22 is_stmt 0
	mv	a0,s2
	call	pvPortMalloc
.LVL23:
	mv	s1,a0
.LVL24:
	.loc 1 73 5 is_stmt 1
	.loc 1 73 8 is_stmt 0
	bne	a0,zero,.L11
.L17:
	.loc 1 83 9 is_stmt 1
	mv	a0,s0
	call	vPortFree
.LVL25:
	.loc 1 84 9
	.loc 1 84 15 is_stmt 0
	li	s0,0
.LVL26:
.L9:
	.loc 1 90 1
	lw	ra,28(sp)
	.cfi_remember_state
	.cfi_restore 1
	mv	a0,s0
	lw	s0,24(sp)
	.cfi_restore 8
	lw	s1,20(sp)
	.cfi_restore 9
	lw	s2,16(sp)
	.cfi_restore 18
.LVL27:
	lw	s3,12(sp)
	.cfi_restore 19
.LVL28:
	addi	sp,sp,32
	.cfi_def_cfa_offset 0
	jr	ra
.LVL29:
.L11:
	.cfi_restore_state
	.loc 1 79 5 is_stmt 1
	.loc 1 79 32 is_stmt 0
	li	a0,12
	mul	a0,s3,a0
	call	pvPortMalloc
.LVL30:
	mv	a3,a0
.LVL31:
	.loc 1 80 5 is_stmt 1
	.loc 1 80 8 is_stmt 0
	bne	a0,zero,.L12
	.loc 1 82 9 is_stmt 1
	mv	a0,s1
.LVL32:
	call	vPortFree
.LVL33:
	j	.L17
.LVL34:
.L12:
	.loc 1 87 5
	mv	a4,s3
	mv	a2,s2
	mv	a1,s1
	mv	a0,s0
.LVL35:
	call	utils_rbb_init
.LVL36:
	.loc 1 89 5
	.loc 1 89 12 is_stmt 0
	j	.L9
	.cfi_endproc
.LFE23:
	.size	utils_rbb_create, .-utils_rbb_create
	.section	.text.utils_rbb_destroy,"ax",@progbits
	.align	1
	.globl	utils_rbb_destroy
	.type	utils_rbb_destroy, @function
utils_rbb_destroy:
.LFB24:
	.loc 1 98 1 is_stmt 1
	.cfi_startproc
.LVL37:
	.loc 1 99 4
	.loc 1 98 1 is_stmt 0
	addi	sp,sp,-16
	.cfi_def_cfa_offset 16
	sw	ra,12(sp)
	sw	s0,8(sp)
	.cfi_offset 1, -4
	.cfi_offset 8, -8
	.loc 1 99 16
	bne	a0,zero,.L19
	.loc 1 99 18 discriminator 1
	lui	a3,%hi(.LC0)
	lui	a2,%hi(.LANCHOR1)
	lui	a0,%hi(.LC1)
.LVL38:
	addi	a3,a3,%lo(.LC0)
	addi	a2,a2,%lo(.LANCHOR1)
	li	a1,99
	addi	a0,a0,%lo(.LC1)
	call	__assert_func
.LVL39:
.L19:
	mv	s0,a0
	.loc 1 101 5 is_stmt 1
	lw	a0,0(a0)
.LVL40:
	call	vPortFree
.LVL41:
	.loc 1 102 5
	lw	a0,8(s0)
	call	vPortFree
.LVL42:
	.loc 1 103 5
	mv	a0,s0
	.loc 1 105 1 is_stmt 0
	lw	s0,8(sp)
	.cfi_restore 8
.LVL43:
	lw	ra,12(sp)
	.cfi_restore 1
	addi	sp,sp,16
	.cfi_def_cfa_offset 0
	.loc 1 103 5
	tail	vPortFree
.LVL44:
	.cfi_endproc
.LFE24:
	.size	utils_rbb_destroy, .-utils_rbb_destroy
	.section	.text.utils_rbb_find_used_blk,"ax",@progbits
	.align	1
	.globl	utils_rbb_find_used_blk
	.type	utils_rbb_find_used_blk, @function
utils_rbb_find_used_blk:
.LFB25:
	.loc 1 108 1 is_stmt 1
	.cfi_startproc
.LVL45:
	.loc 1 109 5
	.loc 1 111 4
	.loc 1 111 16 is_stmt 0
	beq	a0,zero,.L22
	.loc 1 113 24
	lw	a2,12(a0)
	mv	a4,a0
	.loc 1 113 12
	li	a3,0
	.loc 1 115 25
	li	a1,12
.LVL46:
.L23:
	.loc 1 113 17 is_stmt 1 discriminator 1
	.loc 1 113 5 is_stmt 0 discriminator 1
	bne	a2,a3,.L25
	.loc 1 121 11
	li	a0,0
.L21:
	.loc 1 122 1
	ret
.LVL47:
.L22:
	.loc 1 111 18 discriminator 1
	lui	a3,%hi(.LC0)
	lui	a2,%hi(.LANCHOR2)
	lui	a0,%hi(.LC1)
.LVL48:
	.loc 1 108 1 discriminator 1
	addi	sp,sp,-16
	.cfi_def_cfa_offset 16
	.loc 1 111 18 discriminator 1
	addi	a3,a3,%lo(.LC0)
	addi	a2,a2,%lo(.LANCHOR2)
	li	a1,111
	addi	a0,a0,%lo(.LC1)
	.loc 1 108 1 discriminator 1
	sw	ra,12(sp)
	.cfi_offset 1, -4
	.loc 1 111 18 discriminator 1
	call	__assert_func
.LVL49:
.L25:
	.cfi_def_cfa_offset 0
	.cfi_restore 1
	.loc 1 115 9 is_stmt 1
	.loc 1 115 25 is_stmt 0
	mul	a0,a3,a1
	lw	a5,8(a4)
	add	a0,a5,a0
	.loc 1 115 12
	lbu	a5,0(a0)
	bne	a5,zero,.L21
	.loc 1 113 39 is_stmt 1 discriminator 2
	.loc 1 113 41 is_stmt 0 discriminator 2
	addi	a3,a3,1
.LVL50:
	j	.L23
	.cfi_endproc
.LFE25:
	.size	utils_rbb_find_used_blk, .-utils_rbb_find_used_blk
	.section	.text.utils_rbb_find_empty_blk,"ax",@progbits
	.align	1
	.globl	utils_rbb_find_empty_blk
	.type	utils_rbb_find_empty_blk, @function
utils_rbb_find_empty_blk:
.LFB26:
	.loc 1 125 1 is_stmt 1
	.cfi_startproc
.LVL51:
	.loc 1 126 5
	.loc 1 128 4
	.loc 1 128 16 is_stmt 0
	beq	a0,zero,.L29
	.loc 1 130 24
	lw	a2,12(a0)
	mv	a4,a0
	.loc 1 130 12
	li	a3,0
	.loc 1 132 25
	li	a1,12
.LVL52:
.L30:
	.loc 1 130 17 is_stmt 1 discriminator 1
	.loc 1 130 5 is_stmt 0 discriminator 1
	bne	a2,a3,.L32
	.loc 1 138 11
	li	a0,0
.L28:
	.loc 1 139 1
	ret
.LVL53:
.L29:
.LBB38:
.LBB39:
	.loc 1 128 18
	lui	a3,%hi(.LC0)
	lui	a2,%hi(.LANCHOR3)
	lui	a0,%hi(.LC1)
.LVL54:
.LBE39:
.LBE38:
	.loc 1 125 1
	addi	sp,sp,-16
	.cfi_def_cfa_offset 16
.LBB42:
.LBB40:
	.loc 1 128 18
	addi	a3,a3,%lo(.LC0)
	addi	a2,a2,%lo(.LANCHOR3)
	li	a1,128
	addi	a0,a0,%lo(.LC1)
.LBE40:
.LBE42:
	.loc 1 125 1
	sw	ra,12(sp)
	.cfi_offset 1, -4
.LBB43:
.LBB41:
	.loc 1 128 18
	call	__assert_func
.LVL55:
.L32:
	.cfi_def_cfa_offset 0
	.cfi_restore 1
.LBE41:
.LBE43:
	.loc 1 132 9 is_stmt 1
	.loc 1 132 25 is_stmt 0
	mul	a0,a3,a1
	lw	a5,8(a4)
	add	a0,a5,a0
	.loc 1 132 12
	lbu	a5,0(a0)
	beq	a5,zero,.L28
	.loc 1 130 39 is_stmt 1 discriminator 2
	.loc 1 130 41 is_stmt 0 discriminator 2
	addi	a3,a3,1
.LVL56:
	j	.L30
	.cfi_endproc
.LFE26:
	.size	utils_rbb_find_empty_blk, .-utils_rbb_find_empty_blk
	.section	.rodata.utils_rbb_blk_alloc.str1.4,"aMS",@progbits,1
	.align	2
.LC4:
	.string	"blk_size < (1L << 24)"
	.section	.text.utils_rbb_blk_alloc,"ax",@progbits
	.align	1
	.globl	utils_rbb_blk_alloc
	.type	utils_rbb_blk_alloc, @function
utils_rbb_blk_alloc:
.LFB27:
	.loc 1 153 1 is_stmt 1
	.cfi_startproc
.LVL57:
	.loc 1 154 5
	.loc 1 155 5
	.loc 1 156 5
	.loc 1 158 4
	.loc 1 153 1 is_stmt 0
	addi	sp,sp,-32
	.cfi_def_cfa_offset 32
	sw	ra,28(sp)
	sw	s0,24(sp)
	sw	s1,20(sp)
	.cfi_offset 1, -4
	.cfi_offset 8, -8
	.cfi_offset 9, -12
	.loc 1 158 16
	bne	a0,zero,.L39
	.loc 1 158 18 discriminator 1
	lui	a3,%hi(.LC0)
	lui	a2,%hi(.LANCHOR4)
	addi	a3,a3,%lo(.LC0)
	addi	a2,a2,%lo(.LANCHOR4)
	li	a1,158
.LVL58:
.L72:
	.loc 1 159 18 discriminator 1
	lui	a0,%hi(.LC1)
.LVL59:
	addi	a0,a0,%lo(.LC1)
	call	__assert_func
.LVL60:
.L39:
	.loc 1 159 16
	li	a5,16777216
	mv	s0,a1
	.loc 1 159 4 is_stmt 1
	.loc 1 159 16 is_stmt 0
	bltu	a1,a5,.L40
.LVL61:
	.loc 1 159 18 discriminator 1
	lui	a3,%hi(.LC4)
	lui	a2,%hi(.LANCHOR4)
	addi	a3,a3,%lo(.LC4)
	addi	a2,a2,%lo(.LANCHOR4)
	li	a1,159
	j	.L72
.L40:
	mv	s1,a0
	.loc 1 161 5 is_stmt 1
	call	vTaskEnterCritical
.LVL62:
	.loc 1 163 5
	.loc 1 163 15 is_stmt 0
	mv	a0,s1
	call	utils_rbb_find_empty_blk
.LVL63:
	.loc 1 165 5 is_stmt 1
	.loc 1 165 16 is_stmt 0
	addi	a5,s1,16
.LVL64:
.LBB60:
.LBB61:
	.loc 2 593 2 is_stmt 1
	.loc 2 594 5
	.loc 2 595 5
	.loc 2 594 20 is_stmt 0
	mv	a3,a5
	.loc 2 595 13
	li	a4,0
.LVL65:
.L41:
	.loc 2 595 16 is_stmt 1
	.loc 2 595 19 is_stmt 0
	lw	a3,0(a3)
.LVL66:
	.loc 2 595 5
	bne	a3,zero,.L42
	.loc 2 598 5 is_stmt 1
.LVL67:
.LBE61:
.LBE60:
	.loc 1 167 5
	.loc 1 167 8 is_stmt 0
	lw	a3,12(s1)
	bleu	a3,a4,.L56
	.loc 1 167 37 discriminator 1
	beq	a0,zero,.L43
	.loc 1 169 9 is_stmt 1
	.loc 1 169 12 is_stmt 0
	beq	a4,zero,.L44
.LBB63:
.LBB64:
	.loc 2 508 13
	lw	a4,16(s1)
.LVL68:
.LBE64:
.LBE63:
	.loc 1 171 13 is_stmt 1
.LBB66:
.LBB65:
	.loc 2 508 5
.LBE65:
.LBE66:
	.loc 1 171 171 is_stmt 0
	beq	a4,zero,.L45
.LVL69:
	.loc 2 508 5 is_stmt 1 discriminator 1
	.loc 1 171 121 is_stmt 0 discriminator 1
	addi	a4,a4,-8
.L45:
.LVL70:
	.loc 1 172 13 is_stmt 1 discriminator 4
.LBB67:
.LBB68:
	.loc 2 501 5 discriminator 4
	.loc 2 501 11 is_stmt 0 discriminator 4
	mv	a3,a5
.LVL71:
.L46:
	.loc 2 501 11 is_stmt 1
	.loc 2 501 13 is_stmt 0
	lw	a3,0(a3)
.LVL72:
	.loc 2 501 11
	bne	a3,zero,.L46
	mv	a3,a5
.L47:
.LVL73:
.LBE68:
.LBE67:
.LBB69:
.LBB70:
	.loc 2 501 11 is_stmt 1
	mv	a1,a3
	.loc 2 501 13 is_stmt 0
	lw	a3,0(a3)
.LVL74:
	.loc 2 501 11
	bne	a3,zero,.L47
	.loc 2 503 5 is_stmt 1
.LVL75:
.LBE70:
.LBE69:
	.loc 1 182 72 is_stmt 0
	lw	a3,-8(a1)
	.loc 1 173 34
	lw	a2,-4(a1)
	.loc 1 173 21
	lw	a4,4(a4)
.LVL76:
	.loc 1 182 72
	srli	a3,a3,8
	.loc 1 172 121
	addi	a6,a1,-8
.LVL77:
	.loc 1 173 13 is_stmt 1
	.loc 1 182 66 is_stmt 0
	add	a3,a2,a3
	.loc 1 173 16
	bgtu	a4,a2,.L48
	.loc 1 182 17 is_stmt 1
	.loc 1 182 30 is_stmt 0
	lw	a7,0(s1)
.LVL78:
	.loc 1 183 17 is_stmt 1
	.loc 1 185 17
	.loc 1 182 36 is_stmt 0
	lw	a2,4(s1)
	add	a2,a7,a2
	.loc 1 182 53
	sub	a3,a2,a3
.LVL79:
	.loc 1 185 20
	bgtu	s0,a3,.L49
	.loc 1 187 21 is_stmt 1
	addi	a3,a0,8
.LVL80:
.LBB71:
.LBB72:
	.loc 2 462 5
	.loc 2 464 5
	.loc 2 465 5
.L50:
	.loc 2 465 11
	mv	a4,a5
	.loc 2 465 16 is_stmt 0
	lw	a5,0(a5)
.LVL81:
	.loc 2 465 11
	bne	a5,zero,.L50
.LVL82:
.L73:
.LBE72:
.LBE71:
.LBB73:
.LBB74:
	.loc 2 468 5 is_stmt 1
	.loc 2 468 16 is_stmt 0
	sw	a3,0(a4)
	.loc 2 469 5 is_stmt 1
.LBE74:
.LBE73:
	.loc 1 219 37 is_stmt 0
	li	a5,1
.LBB77:
.LBB75:
	.loc 2 469 13
	sw	zero,8(a0)
.LBE75:
.LBE77:
	.loc 1 219 21 is_stmt 1
	.loc 1 219 37 is_stmt 0
	sb	a5,0(a0)
	.loc 1 220 21 is_stmt 1
	.loc 1 220 52 is_stmt 0
	lw	a5,-8(a1)
	srli	a4,a5,8
	.loc 1 220 46
	lw	a5,4(a6)
	add	a5,a5,a4
	j	.L70
.LVL83:
.L42:
.LBB78:
.LBB62:
	.loc 2 596 3 is_stmt 1
	.loc 2 595 26
	.loc 2 595 44 is_stmt 0
	addi	a4,a4,1
.LVL84:
	j	.L41
.LVL85:
.L49:
.LBE62:
.LBE78:
	.loc 1 192 22 is_stmt 1
	.loc 1 183 36 is_stmt 0
	sub	a4,a4,a7
.LVL86:
	.loc 1 192 25
	bgtu	s0,a4,.L56
	.loc 1 194 21 is_stmt 1
	addi	a3,a0,8
.LVL87:
.LBB79:
.LBB80:
	.loc 2 462 5
	.loc 2 464 5
	.loc 2 465 5
.L51:
	.loc 2 465 11
	mv	a4,a5
	.loc 2 465 16 is_stmt 0
	lw	a5,0(a5)
.LVL88:
	.loc 2 465 11
	bne	a5,zero,.L51
	.loc 2 468 5 is_stmt 1
	.loc 2 468 16 is_stmt 0
	sw	a3,0(a4)
.LVL89:
	.loc 2 469 5 is_stmt 1
.LBE80:
.LBE79:
	.loc 1 195 37 is_stmt 0
	li	a5,1
.LBB82:
.LBB81:
	.loc 2 469 13
	sw	zero,8(a0)
.LVL90:
.LBE81:
.LBE82:
	.loc 1 195 21 is_stmt 1
	.loc 1 195 37 is_stmt 0
	sb	a5,0(a0)
	.loc 1 196 21 is_stmt 1
	.loc 1 196 39 is_stmt 0
	lw	a5,0(s1)
.L70:
	.loc 1 196 34
	sw	a5,4(a0)
	.loc 1 197 21 is_stmt 1
	.loc 1 197 35 is_stmt 0
	lbu	a5,0(a0)
	slli	s0,s0,8
.LVL91:
	or	s0,a5,s0
.LVL92:
.L71:
	sw	s0,0(a0)
.LVL93:
.L43:
	sw	a0,12(sp)
.LVL94:
	.loc 1 244 5 is_stmt 1
	call	vTaskExitCritical
.LVL95:
	.loc 1 246 5
	.loc 1 247 1 is_stmt 0
	lw	ra,28(sp)
	.cfi_remember_state
	.cfi_restore 1
	lw	s0,24(sp)
	.cfi_restore 8
	lw	a0,12(sp)
	lw	s1,20(sp)
	.cfi_restore 9
.LVL96:
	addi	sp,sp,32
	.cfi_def_cfa_offset 0
.LVL97:
	jr	ra
.LVL98:
.L48:
	.cfi_restore_state
	.loc 1 214 17 is_stmt 1
	.loc 1 216 17
	.loc 1 214 36 is_stmt 0
	sub	a4,a4,a3
.LVL99:
	.loc 1 216 20
	bgtu	s0,a4,.L56
	.loc 1 218 21 is_stmt 1
	addi	a3,a0,8
.LVL100:
.LBB83:
.LBB76:
	.loc 2 462 5
	.loc 2 464 5
	.loc 2 465 5
.L52:
	.loc 2 465 11
	mv	a4,a5
	.loc 2 465 16 is_stmt 0
	lw	a5,0(a5)
.LVL101:
	.loc 2 465 11
	bne	a5,zero,.L52
	j	.L73
.LVL102:
.L44:
.LBE76:
.LBE83:
	.loc 1 233 13 is_stmt 1
	addi	a3,a0,8
.LVL103:
.LBB84:
.LBB85:
	.loc 2 462 5
	.loc 2 464 5
	.loc 2 465 5
.L53:
	.loc 2 465 11
	mv	a4,a5
	.loc 2 465 16 is_stmt 0
	lw	a5,0(a5)
.LVL104:
	.loc 2 465 11
	bne	a5,zero,.L53
	.loc 2 468 5 is_stmt 1
	.loc 2 468 16 is_stmt 0
	sw	a3,0(a4)
	.loc 2 469 5 is_stmt 1
.LBE85:
.LBE84:
	.loc 1 234 29 is_stmt 0
	li	a5,1
	sb	a5,0(a0)
.LBB87:
.LBB86:
	.loc 2 469 13
	sw	zero,8(a0)
.LVL105:
.LBE86:
.LBE87:
	.loc 1 234 13 is_stmt 1
	.loc 1 235 13
	.loc 1 235 31 is_stmt 0
	lw	a5,0(s1)
	.loc 1 236 27
	lbu	a1,0(a0)
	slli	s0,s0,8
.LVL106:
	.loc 1 235 26
	sw	a5,4(a0)
	.loc 1 236 13 is_stmt 1
	.loc 1 236 27 is_stmt 0
	or	s0,a1,s0
	j	.L71
.LVL107:
.L56:
	.loc 1 241 17
	li	a0,0
.LVL108:
	j	.L43
	.cfi_endproc
.LFE27:
	.size	utils_rbb_blk_alloc, .-utils_rbb_blk_alloc
	.section	.rodata.utils_rbb_blk_put.str1.4,"aMS",@progbits,1
	.align	2
.LC5:
	.string	"block"
	.align	2
.LC6:
	.string	"block->status == RBB_BLK_INITED"
	.section	.text.utils_rbb_blk_put,"ax",@progbits
	.align	1
	.globl	utils_rbb_blk_put
	.type	utils_rbb_blk_put, @function
utils_rbb_blk_put:
.LFB28:
	.loc 1 255 1 is_stmt 1
	.cfi_startproc
.LVL109:
	.loc 1 256 4
	.loc 1 255 1 is_stmt 0
	addi	sp,sp,-16
	.cfi_def_cfa_offset 16
	sw	ra,12(sp)
	.cfi_offset 1, -4
	.loc 1 256 16
	bne	a0,zero,.L75
	.loc 1 256 18 discriminator 1
	lui	a3,%hi(.LC5)
	lui	a2,%hi(.LANCHOR5)
	addi	a3,a3,%lo(.LC5)
	addi	a2,a2,%lo(.LANCHOR5)
	li	a1,256
.L78:
	.loc 1 257 18 discriminator 1
	lui	a0,%hi(.LC1)
.LVL110:
	addi	a0,a0,%lo(.LC1)
	call	__assert_func
.LVL111:
.L75:
	.loc 1 257 4 is_stmt 1
	.loc 1 257 16 is_stmt 0
	lbu	a4,0(a0)
	li	a5,1
	beq	a4,a5,.L76
	.loc 1 257 18 discriminator 1
	lui	a3,%hi(.LC6)
	lui	a2,%hi(.LANCHOR5)
	addi	a3,a3,%lo(.LC6)
	addi	a2,a2,%lo(.LANCHOR5)
	li	a1,257
	j	.L78
.L76:
	.loc 1 259 5 is_stmt 1
	.loc 1 259 19 is_stmt 0
	li	a5,2
	sb	a5,0(a0)
	.loc 1 260 1
	lw	ra,12(sp)
	.cfi_restore 1
	addi	sp,sp,16
	.cfi_def_cfa_offset 0
	jr	ra
	.cfi_endproc
.LFE28:
	.size	utils_rbb_blk_put, .-utils_rbb_blk_put
	.section	.text.utils_rbb_blk_get,"ax",@progbits
	.align	1
	.globl	utils_rbb_blk_get
	.type	utils_rbb_blk_get, @function
utils_rbb_blk_get:
.LFB29:
	.loc 1 271 1 is_stmt 1
	.cfi_startproc
.LVL112:
	.loc 1 272 5
	.loc 1 273 5
	.loc 1 275 4
	.loc 1 271 1 is_stmt 0
	addi	sp,sp,-16
	.cfi_def_cfa_offset 16
	sw	ra,12(sp)
	sw	s0,8(sp)
	sw	s1,4(sp)
	.cfi_offset 1, -4
	.cfi_offset 8, -8
	.cfi_offset 9, -12
	.loc 1 275 16
	bne	a0,zero,.L80
	.loc 1 275 18 discriminator 1
	lui	a3,%hi(.LC0)
	lui	a2,%hi(.LANCHOR6)
	lui	a0,%hi(.LC1)
.LVL113:
	addi	a3,a3,%lo(.LC0)
	addi	a2,a2,%lo(.LANCHOR6)
	li	a1,275
	addi	a0,a0,%lo(.LC1)
	call	__assert_func
.LVL114:
.L80:
.LBB88:
.LBB89:
	.loc 2 486 17
	lw	s0,16(a0)
	mv	s1,a0
.LBE89:
.LBE88:
	.loc 1 277 5 is_stmt 1
.LVL115:
.LBB91:
.LBB90:
	.loc 2 486 5
.LBE90:
.LBE91:
	.loc 1 277 8 is_stmt 0
	beq	s0,zero,.L79
.LVL116:
	.loc 1 280 5 is_stmt 1
	call	vTaskEnterCritical
.LVL117:
	.loc 1 282 5
.LBB92:
.LBB93:
	.loc 2 496 5
	.loc 2 496 13 is_stmt 0
	lw	s0,16(s1)
.LVL118:
.LBE93:
.LBE92:
	.loc 1 285 12
	li	a4,2
.LVL119:
.L82:
	.loc 1 282 52 is_stmt 1 discriminator 1
	.loc 1 282 5 is_stmt 0 discriminator 1
	beq	s0,zero,.L84
	.loc 1 284 9 is_stmt 1 discriminator 1
	.loc 1 285 12 is_stmt 0 discriminator 1
	lbu	a3,-8(s0)
	.loc 1 284 62 discriminator 1
	addi	a5,s0,-8
.LVL120:
	.loc 1 285 9 is_stmt 1 discriminator 1
	.loc 1 285 12 is_stmt 0 discriminator 1
	bne	a3,a4,.L83
	.loc 1 287 13 is_stmt 1
	.loc 1 287 27 is_stmt 0
	li	a4,3
	sb	a4,-8(s0)
	.loc 1 288 13 is_stmt 1
	mv	s0,a5
.LVL121:
.L84:
	.loc 1 296 5
	call	vTaskExitCritical
.LVL122:
	.loc 1 298 5
.L79:
	.loc 1 299 1 is_stmt 0
	lw	ra,12(sp)
	.cfi_remember_state
	.cfi_restore 1
	mv	a0,s0
	lw	s0,8(sp)
	.cfi_restore 8
	lw	s1,4(sp)
	.cfi_restore 9
.LVL123:
	addi	sp,sp,16
	.cfi_def_cfa_offset 0
	jr	ra
.LVL124:
.L83:
	.cfi_restore_state
	.loc 1 282 58 is_stmt 1
.LBB94:
.LBB95:
	.loc 2 508 5
	.loc 2 508 13 is_stmt 0
	lw	s0,0(s0)
.LVL125:
	j	.L82
.LBE95:
.LBE94:
	.cfi_endproc
.LFE29:
	.size	utils_rbb_blk_get, .-utils_rbb_blk_get
	.section	.text.utils_rbb_blk_size,"ax",@progbits
	.align	1
	.globl	utils_rbb_blk_size
	.type	utils_rbb_blk_size, @function
utils_rbb_blk_size:
.LFB30:
	.loc 1 309 1 is_stmt 1
	.cfi_startproc
.LVL126:
	.loc 1 310 4
	.loc 1 310 16 is_stmt 0
	bne	a0,zero,.L91
	.loc 1 310 18 discriminator 1
	lui	a3,%hi(.LC5)
	lui	a2,%hi(.LANCHOR7)
	lui	a0,%hi(.LC1)
.LVL127:
	.loc 1 309 1 discriminator 1
	addi	sp,sp,-16
	.cfi_def_cfa_offset 16
	.loc 1 310 18 discriminator 1
	addi	a3,a3,%lo(.LC5)
	addi	a2,a2,%lo(.LANCHOR7)
	li	a1,310
	addi	a0,a0,%lo(.LC1)
	.loc 1 309 1 discriminator 1
	sw	ra,12(sp)
	.cfi_offset 1, -4
	.loc 1 310 18 discriminator 1
	call	__assert_func
.LVL128:
.L91:
	.cfi_def_cfa_offset 0
	.cfi_restore 1
	.loc 1 312 5 is_stmt 1
	.loc 1 312 17 is_stmt 0
	lw	a0,0(a0)
.LVL129:
	.loc 1 313 1
	srli	a0,a0,8
	ret
	.cfi_endproc
.LFE30:
	.size	utils_rbb_blk_size, .-utils_rbb_blk_size
	.section	.text.utils_rbb_blk_buf,"ax",@progbits
	.align	1
	.globl	utils_rbb_blk_buf
	.type	utils_rbb_blk_buf, @function
utils_rbb_blk_buf:
.LFB31:
	.loc 1 323 1 is_stmt 1
	.cfi_startproc
.LVL130:
	.loc 1 324 4
	.loc 1 324 16 is_stmt 0
	bne	a0,zero,.L96
	.loc 1 324 18 discriminator 1
	lui	a3,%hi(.LC5)
	lui	a2,%hi(.LANCHOR8)
	lui	a0,%hi(.LC1)
.LVL131:
	.loc 1 323 1 discriminator 1
	addi	sp,sp,-16
	.cfi_def_cfa_offset 16
	.loc 1 324 18 discriminator 1
	addi	a3,a3,%lo(.LC5)
	addi	a2,a2,%lo(.LANCHOR8)
	li	a1,324
	addi	a0,a0,%lo(.LC1)
	.loc 1 323 1 discriminator 1
	sw	ra,12(sp)
	.cfi_offset 1, -4
	.loc 1 324 18 discriminator 1
	call	__assert_func
.LVL132:
.L96:
	.cfi_def_cfa_offset 0
	.cfi_restore 1
	.loc 1 326 5 is_stmt 1
	.loc 1 327 1 is_stmt 0
	lw	a0,4(a0)
.LVL133:
	ret
	.cfi_endproc
.LFE31:
	.size	utils_rbb_blk_buf, .-utils_rbb_blk_buf
	.section	.rodata.utils_rbb_blk_free.str1.4,"aMS",@progbits,1
	.align	2
.LC7:
	.string	"block->status != RBB_BLK_UNUSED"
	.section	.text.utils_rbb_blk_free,"ax",@progbits
	.align	1
	.globl	utils_rbb_blk_free
	.type	utils_rbb_blk_free, @function
utils_rbb_blk_free:
.LFB32:
	.loc 1 336 1 is_stmt 1
	.cfi_startproc
.LVL134:
	.loc 1 337 4
	.loc 1 336 1 is_stmt 0
	addi	sp,sp,-16
	.cfi_def_cfa_offset 16
	sw	ra,12(sp)
	sw	s0,8(sp)
	sw	s1,4(sp)
	.cfi_offset 1, -4
	.cfi_offset 8, -8
	.cfi_offset 9, -12
	.loc 1 337 16
	bne	a0,zero,.L101
	.loc 1 337 18 discriminator 1
	lui	a3,%hi(.LC0)
	lui	a2,%hi(.LANCHOR9)
	addi	a3,a3,%lo(.LC0)
	addi	a2,a2,%lo(.LANCHOR9)
	li	a1,337
.LVL135:
.L109:
	.loc 1 338 18 discriminator 1
	lui	a0,%hi(.LC1)
.LVL136:
	addi	a0,a0,%lo(.LC1)
	call	__assert_func
.LVL137:
.L101:
	mv	s1,a1
	.loc 1 338 4 is_stmt 1
	.loc 1 338 16 is_stmt 0
	bne	a1,zero,.L102
.LVL138:
	.loc 1 338 18 discriminator 1
	lui	a3,%hi(.LC5)
	lui	a2,%hi(.LANCHOR9)
	addi	a3,a3,%lo(.LC5)
	addi	a2,a2,%lo(.LANCHOR9)
	li	a1,338
	j	.L109
.L102:
	.loc 1 339 4 is_stmt 1
	.loc 1 339 16 is_stmt 0
	lbu	a5,0(a1)
	bne	a5,zero,.L103
	.loc 1 339 18 discriminator 1
	lui	a3,%hi(.LC7)
	lui	a2,%hi(.LANCHOR9)
	addi	a3,a3,%lo(.LC7)
	addi	a2,a2,%lo(.LANCHOR9)
	li	a1,339
	j	.L109
.L103:
	mv	s0,a0
	.loc 1 341 5 is_stmt 1
	call	vTaskEnterCritical
.LVL139:
	.loc 1 344 5
	addi	a4,s1,8
	addi	a0,s0,16
.LVL140:
.LBB98:
.LBB99:
	.loc 2 474 5
.L104:
	.loc 2 474 11
	mv	a5,a0
	.loc 2 474 16 is_stmt 0
	lw	a0,0(a0)
.LVL141:
	.loc 2 474 11
	beq	a0,zero,.L105
	.loc 2 475 9 is_stmt 1
	.loc 2 475 12 is_stmt 0
	bne	a4,a0,.L104
	.loc 2 476 13 is_stmt 1
	.loc 2 476 30 is_stmt 0
	lw	a4,8(s1)
.LVL142:
	.loc 2 476 24
	sw	a4,0(a5)
	.loc 2 477 13 is_stmt 1
.L105:
.LVL143:
.LBE99:
.LBE98:
	.loc 1 346 5
	.loc 1 346 19 is_stmt 0
	sb	zero,0(s1)
	.loc 1 348 5 is_stmt 1
	.loc 1 349 1 is_stmt 0
	lw	s0,8(sp)
	.cfi_restore 8
.LVL144:
	lw	ra,12(sp)
	.cfi_restore 1
	lw	s1,4(sp)
	.cfi_restore 9
.LVL145:
	addi	sp,sp,16
	.cfi_def_cfa_offset 0
	.loc 1 348 5
	tail	vTaskExitCritical
.LVL146:
	.cfi_endproc
.LFE32:
	.size	utils_rbb_blk_free, .-utils_rbb_blk_free
	.section	.rodata.utils_rbb_blk_queue_get.str1.4,"aMS",@progbits,1
	.align	2
.LC8:
	.string	"blk_queue"
	.section	.text.utils_rbb_blk_queue_get,"ax",@progbits
	.align	1
	.globl	utils_rbb_blk_queue_get
	.type	utils_rbb_blk_queue_get, @function
utils_rbb_blk_queue_get:
.LFB33:
	.loc 1 375 1 is_stmt 1
	.cfi_startproc
.LVL147:
	.loc 1 376 5
	.loc 1 377 5
	.loc 1 378 5
	.loc 1 380 4
	.loc 1 375 1 is_stmt 0
	addi	sp,sp,-32
	.cfi_def_cfa_offset 32
	sw	ra,28(sp)
	sw	s0,24(sp)
	sw	s1,20(sp)
	sw	s2,16(sp)
	.cfi_offset 1, -4
	.cfi_offset 8, -8
	.cfi_offset 9, -12
	.cfi_offset 18, -16
	.loc 1 380 16
	bne	a0,zero,.L111
	.loc 1 380 18 discriminator 1
	lui	a3,%hi(.LC0)
	lui	a2,%hi(.LANCHOR10)
.LVL148:
	addi	a3,a3,%lo(.LC0)
	addi	a2,a2,%lo(.LANCHOR10)
	li	a1,380
.LVL149:
.L126:
	.loc 1 381 18 discriminator 1
	lui	a0,%hi(.LC1)
.LVL150:
	addi	a0,a0,%lo(.LC1)
	call	__assert_func
.LVL151:
.L111:
	mv	s0,a2
	.loc 1 381 4 is_stmt 1
	.loc 1 381 16 is_stmt 0
	bne	a2,zero,.L112
.LVL152:
	.loc 1 381 18 discriminator 1
	lui	a3,%hi(.LC8)
	lui	a2,%hi(.LANCHOR10)
	addi	a3,a3,%lo(.LC8)
	addi	a2,a2,%lo(.LANCHOR10)
	li	a1,381
.LVL153:
	j	.L126
.LVL154:
.L112:
	.loc 1 383 8
	lw	a5,16(a0)
	mv	s1,a0
	.loc 1 383 5 is_stmt 1
.LVL155:
.LBB108:
.LBB109:
	.loc 2 486 5
.LBE109:
.LBE108:
	.loc 1 384 16 is_stmt 0
	li	a0,0
.LVL156:
	.loc 1 383 8
	beq	a5,zero,.L110
	mv	s2,a1
	.loc 1 386 5 is_stmt 1
	call	vTaskEnterCritical
.LVL157:
	.loc 1 388 5
.LBB110:
.LBB111:
	.loc 2 496 5
	.loc 2 496 13 is_stmt 0
	lw	a4,16(s1)
.LVL158:
.LBE111:
.LBE110:
	.loc 1 378 21
	li	a3,0
	.loc 1 376 14
	li	a0,0
	.loc 1 427 28
	li	a1,3
	.loc 1 415 16
	li	a2,2
.LVL159:
.L114:
	.loc 1 388 52 is_stmt 1 discriminator 1
	.loc 1 388 5 is_stmt 0 discriminator 1
	beq	a4,zero,.L118
	.loc 1 390 9 is_stmt 1
	.loc 1 393 16 is_stmt 0
	lbu	a6,-8(a4)
	addi	a5,a4,-8
	.loc 1 390 12
	bne	a3,zero,.L115
	.loc 1 392 13 is_stmt 1 discriminator 1
.LVL160:
	.loc 1 393 13 discriminator 1
	.loc 1 393 16 is_stmt 0 discriminator 1
	bne	a6,a2,.L116
	.loc 1 396 17 is_stmt 1
	.loc 1 396 35 is_stmt 0
	sw	a5,0(s0)
	.loc 1 397 17 is_stmt 1
	.loc 1 397 36 is_stmt 0
	sw	zero,4(s0)
.LVL161:
.L117:
	.loc 1 425 9 is_stmt 1
	addi	a7,a5,8
	addi	a3,s1,16
.LVL162:
.LBB112:
.LBB113:
	.loc 2 474 5
.L119:
	.loc 2 474 11
	mv	a6,a3
	.loc 2 474 16 is_stmt 0
	lw	a3,0(a3)
.LVL163:
	.loc 2 474 11
	beq	a3,zero,.L120
	.loc 2 475 9 is_stmt 1
	.loc 2 475 12 is_stmt 0
	bne	a7,a3,.L119
	.loc 2 476 13 is_stmt 1
	.loc 2 476 30 is_stmt 0
	lw	a3,8(a5)
	.loc 2 476 24
	sw	a3,0(a6)
	.loc 2 477 13 is_stmt 1
.L120:
.LVL164:
.LBE113:
.LBE112:
	.loc 1 426 9
	.loc 1 426 38 is_stmt 0
	lw	a3,0(a5)
	.loc 1 427 28
	sb	a1,0(a5)
	.loc 1 426 38
	srli	a3,a3,8
	.loc 1 426 25
	add	a0,a0,a3
.LVL165:
	.loc 1 427 9 is_stmt 1
	.loc 1 428 9
	.loc 1 428 27 is_stmt 0
	lw	a3,4(s0)
	addi	a3,a3,1
	sw	a3,4(s0)
	mv	a3,a5
.L116:
.LVL166:
	.loc 1 388 58 is_stmt 1 discriminator 2
.LBB114:
.LBB115:
	.loc 2 508 5 discriminator 2
	.loc 2 508 13 is_stmt 0 discriminator 2
	lw	a4,0(a4)
.LVL167:
	j	.L114
.L115:
.LBE115:
.LBE114:
	.loc 1 408 13 is_stmt 1 discriminator 1
.LVL168:
	.loc 1 415 13 discriminator 1
	.loc 1 415 16 is_stmt 0 discriminator 1
	bne	a6,a2,.L118
	.loc 1 415 46 discriminator 1
	lw	a6,4(a3)
	lw	a3,4(a5)
.LVL169:
	bgtu	a6,a3,.L118
	.loc 1 417 40
	lw	a3,0(a5)
	srli	a3,a3,8
	.loc 1 417 33
	add	a3,a3,a0
	.loc 1 416 46
	bleu	a3,s2,.L117
.LVL170:
.L118:
	sw	a0,12(sp)
	.loc 1 431 5 is_stmt 1
	call	vTaskExitCritical
.LVL171:
	lw	a0,12(sp)
	.loc 1 433 5
.LVL172:
.L110:
	.loc 1 434 1 is_stmt 0
	lw	ra,28(sp)
	.cfi_restore 1
	lw	s0,24(sp)
	.cfi_restore 8
.LVL173:
	lw	s1,20(sp)
	.cfi_restore 9
.LVL174:
	lw	s2,16(sp)
	.cfi_restore 18
	addi	sp,sp,32
	.cfi_def_cfa_offset 0
	jr	ra
	.cfi_endproc
.LFE33:
	.size	utils_rbb_blk_queue_get, .-utils_rbb_blk_queue_get
	.section	.text.utils_rbb_blk_queue_len,"ax",@progbits
	.align	1
	.globl	utils_rbb_blk_queue_len
	.type	utils_rbb_blk_queue_len, @function
utils_rbb_blk_queue_len:
.LFB34:
	.loc 1 444 1 is_stmt 1
	.cfi_startproc
.LVL175:
	.loc 1 445 5
	.loc 1 447 4
	.loc 1 447 16 is_stmt 0
	beq	a0,zero,.L128
	.loc 1 449 30
	lw	a2,4(a0)
	mv	a5,a0
	.loc 1 449 12
	li	a4,0
	.loc 1 445 17
	li	a0,0
.LVL176:
	.loc 1 451 48
	li	a1,12
.LVL177:
.L129:
	.loc 1 449 17 is_stmt 1 discriminator 1
	.loc 1 449 5 is_stmt 0 discriminator 1
	bne	a2,a4,.L130
	.loc 1 454 5 is_stmt 1
	.loc 1 455 1 is_stmt 0
	ret
.LVL178:
.L128:
	.loc 1 447 18 discriminator 1
	lui	a3,%hi(.LC8)
	lui	a2,%hi(.LANCHOR11)
	lui	a0,%hi(.LC1)
.LVL179:
	.loc 1 444 1 discriminator 1
	addi	sp,sp,-16
	.cfi_def_cfa_offset 16
	.loc 1 447 18 discriminator 1
	addi	a3,a3,%lo(.LC8)
	addi	a2,a2,%lo(.LANCHOR11)
	li	a1,447
	addi	a0,a0,%lo(.LC1)
	.loc 1 444 1 discriminator 1
	sw	ra,12(sp)
	.cfi_offset 1, -4
	.loc 1 447 18 discriminator 1
	call	__assert_func
.LVL180:
.L130:
	.cfi_def_cfa_offset 0
	.cfi_restore 1
	.loc 1 451 9 is_stmt 1 discriminator 3
	.loc 1 451 48 is_stmt 0 discriminator 3
	mul	a6,a4,a1
	lw	a3,0(a5)
	.loc 1 449 42 discriminator 3
	addi	a4,a4,1
.LVL181:
	.loc 1 451 48 discriminator 3
	add	a3,a3,a6
	lw	a3,0(a3)
	srli	a3,a3,8
	.loc 1 451 25 discriminator 3
	add	a0,a0,a3
.LVL182:
	.loc 1 449 41 is_stmt 1 discriminator 3
	j	.L129
	.cfi_endproc
.LFE34:
	.size	utils_rbb_blk_queue_len, .-utils_rbb_blk_queue_len
	.section	.text.utils_rbb_blk_queue_buf,"ax",@progbits
	.align	1
	.globl	utils_rbb_blk_queue_buf
	.type	utils_rbb_blk_queue_buf, @function
utils_rbb_blk_queue_buf:
.LFB35:
	.loc 1 465 1
	.cfi_startproc
.LVL183:
	.loc 1 466 4
	.loc 1 466 16 is_stmt 0
	bne	a0,zero,.L134
	.loc 1 466 18 discriminator 1
	lui	a3,%hi(.LC8)
	lui	a2,%hi(.LANCHOR12)
	lui	a0,%hi(.LC1)
.LVL184:
	.loc 1 465 1 discriminator 1
	addi	sp,sp,-16
	.cfi_def_cfa_offset 16
	.loc 1 466 18 discriminator 1
	addi	a3,a3,%lo(.LC8)
	addi	a2,a2,%lo(.LANCHOR12)
	li	a1,466
	addi	a0,a0,%lo(.LC1)
	.loc 1 465 1 discriminator 1
	sw	ra,12(sp)
	.cfi_offset 1, -4
	.loc 1 466 18 discriminator 1
	call	__assert_func
.LVL185:
.L134:
	.cfi_def_cfa_offset 0
	.cfi_restore 1
	.loc 1 468 5 is_stmt 1
	.loc 1 468 32 is_stmt 0
	lw	a5,0(a0)
	.loc 1 469 1
	lw	a0,4(a5)
.LVL186:
	ret
	.cfi_endproc
.LFE35:
	.size	utils_rbb_blk_queue_buf, .-utils_rbb_blk_queue_buf
	.section	.text.utils_rbb_blk_queue_free,"ax",@progbits
	.align	1
	.globl	utils_rbb_blk_queue_free
	.type	utils_rbb_blk_queue_free, @function
utils_rbb_blk_queue_free:
.LFB36:
	.loc 1 478 1 is_stmt 1
	.cfi_startproc
.LVL187:
	.loc 1 479 5
	.loc 1 481 4
	.loc 1 478 1 is_stmt 0
	addi	sp,sp,-32
	.cfi_def_cfa_offset 32
	sw	ra,28(sp)
	sw	s0,24(sp)
	sw	s1,20(sp)
	sw	s2,16(sp)
	sw	s3,12(sp)
	.cfi_offset 1, -4
	.cfi_offset 8, -8
	.cfi_offset 9, -12
	.cfi_offset 18, -16
	.cfi_offset 19, -20
	.loc 1 481 16
	bne	a0,zero,.L139
	.loc 1 481 18 discriminator 1
	lui	a3,%hi(.LC0)
	lui	a2,%hi(.LANCHOR13)
	addi	a3,a3,%lo(.LC0)
	addi	a2,a2,%lo(.LANCHOR13)
	li	a1,481
.LVL188:
.L145:
	.loc 1 482 18 discriminator 1
	lui	a0,%hi(.LC1)
.LVL189:
	addi	a0,a0,%lo(.LC1)
	call	__assert_func
.LVL190:
.L139:
	mv	s2,a0
	mv	s0,a1
	.loc 1 482 4 is_stmt 1
	.loc 1 484 12 is_stmt 0
	li	s1,0
	.loc 1 486 9
	li	s3,12
	.loc 1 482 16
	bne	a1,zero,.L140
.LVL191:
	.loc 1 482 18 discriminator 1
	lui	a3,%hi(.LC8)
	lui	a2,%hi(.LANCHOR13)
	addi	a3,a3,%lo(.LC8)
	addi	a2,a2,%lo(.LANCHOR13)
	li	a1,482
	j	.L145
.LVL192:
.L141:
	.loc 1 486 9 is_stmt 1 discriminator 3
	mul	a5,s1,s3
	lw	a1,0(s0)
	mv	a0,s2
	.loc 1 484 42 is_stmt 0 discriminator 3
	addi	s1,s1,1
.LVL193:
	.loc 1 486 9 discriminator 3
	add	a1,a1,a5
	call	utils_rbb_blk_free
.LVL194:
	.loc 1 484 41 is_stmt 1 discriminator 3
.L140:
	.loc 1 484 17 discriminator 1
	.loc 1 484 5 is_stmt 0 discriminator 1
	lw	a5,4(s0)
	bgtu	a5,s1,.L141
	.loc 1 488 1
	lw	ra,28(sp)
	.cfi_restore 1
	lw	s0,24(sp)
	.cfi_restore 8
.LVL195:
	lw	s1,20(sp)
	.cfi_restore 9
.LVL196:
	lw	s2,16(sp)
	.cfi_restore 18
.LVL197:
	lw	s3,12(sp)
	.cfi_restore 19
	addi	sp,sp,32
	.cfi_def_cfa_offset 0
	jr	ra
	.cfi_endproc
.LFE36:
	.size	utils_rbb_blk_queue_free, .-utils_rbb_blk_queue_free
	.section	.text.utils_rbb_next_blk_queue_len,"ax",@progbits
	.align	1
	.globl	utils_rbb_next_blk_queue_len
	.type	utils_rbb_next_blk_queue_len, @function
utils_rbb_next_blk_queue_len:
.LFB37:
	.loc 1 499 1 is_stmt 1
	.cfi_startproc
.LVL198:
	.loc 1 500 5
	.loc 1 501 5
	.loc 1 502 5
	.loc 1 504 4
	.loc 1 499 1 is_stmt 0
	addi	sp,sp,-32
	.cfi_def_cfa_offset 32
	sw	ra,28(sp)
	sw	s0,24(sp)
	.cfi_offset 1, -4
	.cfi_offset 8, -8
	.loc 1 504 16
	bne	a0,zero,.L147
	.loc 1 504 18 discriminator 1
	lui	a3,%hi(.LC0)
	lui	a2,%hi(.LANCHOR14)
	lui	a0,%hi(.LC1)
.LVL199:
	addi	a3,a3,%lo(.LC0)
	addi	a2,a2,%lo(.LANCHOR14)
	li	a1,504
	addi	a0,a0,%lo(.LC1)
	call	__assert_func
.LVL200:
.L147:
	.loc 1 506 8
	lw	a5,16(a0)
	mv	s0,a0
	.loc 1 506 5 is_stmt 1
.LVL201:
.LBB116:
.LBB117:
	.loc 2 486 5
.LBE117:
.LBE116:
	.loc 1 507 16 is_stmt 0
	li	a0,0
.LVL202:
	.loc 1 506 8
	beq	a5,zero,.L146
	.loc 1 509 5 is_stmt 1
	call	vTaskEnterCritical
.LVL203:
	.loc 1 511 5
.LBB118:
.LBB119:
	.loc 2 496 5
	.loc 2 496 13 is_stmt 0
	lw	a5,16(s0)
.LVL204:
.LBE119:
.LBE118:
	.loc 1 502 21
	li	a4,0
	.loc 1 500 14
	li	a0,0
	.loc 1 531 16
	li	a2,2
.LVL205:
.L149:
	.loc 1 511 52 is_stmt 1 discriminator 1
	.loc 1 511 5 is_stmt 0 discriminator 1
	bne	a5,zero,.L154
.LVL206:
.L153:
	sw	a0,12(sp)
	.loc 1 541 5 is_stmt 1
	call	vTaskExitCritical
.LVL207:
	lw	a0,12(sp)
	.loc 1 543 5
.LVL208:
.L146:
	.loc 1 544 1 is_stmt 0
	lw	ra,28(sp)
	.cfi_remember_state
	.cfi_restore 1
	lw	s0,24(sp)
	.cfi_restore 8
.LVL209:
	addi	sp,sp,32
	.cfi_def_cfa_offset 0
	jr	ra
.LVL210:
.L154:
	.cfi_restore_state
	.loc 1 513 9 is_stmt 1
	.loc 1 516 16 is_stmt 0
	lbu	a1,-8(a5)
	addi	a3,a5,-8
	.loc 1 513 12
	bne	a4,zero,.L150
	.loc 1 515 13 is_stmt 1 discriminator 1
.LVL211:
	.loc 1 516 13 discriminator 1
	.loc 1 516 16 is_stmt 0 discriminator 1
	beq	a1,a2,.L152
.L151:
.LVL212:
	.loc 1 511 58 is_stmt 1 discriminator 2
.LBB120:
.LBB121:
	.loc 2 508 5 discriminator 2
	.loc 2 508 13 is_stmt 0 discriminator 2
	lw	a5,0(a5)
.LVL213:
	j	.L149
.L150:
.LBE121:
.LBE120:
	.loc 1 525 13 is_stmt 1 discriminator 1
.LVL214:
	.loc 1 531 13 discriminator 1
	.loc 1 531 16 is_stmt 0 discriminator 1
	bne	a1,a2,.L153
	.loc 1 531 46 discriminator 1
	lw	a1,4(a4)
	lw	a4,4(a3)
.LVL215:
	bgtu	a1,a4,.L153
.LVL216:
.L152:
	.loc 1 538 9 is_stmt 1
	.loc 1 538 31 is_stmt 0
	lw	a4,0(a3)
	srli	a4,a4,8
	.loc 1 538 18
	add	a0,a0,a4
.LVL217:
	mv	a4,a3
	j	.L151
	.cfi_endproc
.LFE37:
	.size	utils_rbb_next_blk_queue_len, .-utils_rbb_next_blk_queue_len
	.section	.text.utils_rbb_get_buf_size,"ax",@progbits
	.align	1
	.globl	utils_rbb_get_buf_size
	.type	utils_rbb_get_buf_size, @function
utils_rbb_get_buf_size:
.LFB38:
	.loc 1 554 1 is_stmt 1
	.cfi_startproc
.LVL218:
	.loc 1 555 4
	.loc 1 555 16 is_stmt 0
	bne	a0,zero,.L158
	.loc 1 555 18 discriminator 1
	lui	a3,%hi(.LC0)
	lui	a2,%hi(.LANCHOR15)
	lui	a0,%hi(.LC1)
.LVL219:
	.loc 1 554 1 discriminator 1
	addi	sp,sp,-16
	.cfi_def_cfa_offset 16
	.loc 1 555 18 discriminator 1
	addi	a3,a3,%lo(.LC0)
	addi	a2,a2,%lo(.LANCHOR15)
	li	a1,555
	addi	a0,a0,%lo(.LC1)
	.loc 1 554 1 discriminator 1
	sw	ra,12(sp)
	.cfi_offset 1, -4
	.loc 1 555 18 discriminator 1
	call	__assert_func
.LVL220:
.L158:
	.cfi_def_cfa_offset 0
	.cfi_restore 1
	.loc 1 557 5 is_stmt 1
	.loc 1 558 1 is_stmt 0
	lw	a0,4(a0)
.LVL221:
	ret
	.cfi_endproc
.LFE38:
	.size	utils_rbb_get_buf_size, .-utils_rbb_get_buf_size
	.section	.rodata.__func__.0,"a"
	.align	2
	.set	.LANCHOR15,. + 0
	.type	__func__.0, @object
	.size	__func__.0, 23
__func__.0:
	.string	"utils_rbb_get_buf_size"
	.section	.rodata.__func__.1,"a"
	.align	2
	.set	.LANCHOR14,. + 0
	.type	__func__.1, @object
	.size	__func__.1, 29
__func__.1:
	.string	"utils_rbb_next_blk_queue_len"
	.section	.rodata.__func__.10,"a"
	.align	2
	.set	.LANCHOR5,. + 0
	.type	__func__.10, @object
	.size	__func__.10, 18
__func__.10:
	.string	"utils_rbb_blk_put"
	.section	.rodata.__func__.11,"a"
	.align	2
	.set	.LANCHOR4,. + 0
	.type	__func__.11, @object
	.size	__func__.11, 20
__func__.11:
	.string	"utils_rbb_blk_alloc"
	.section	.rodata.__func__.12,"a"
	.align	2
	.set	.LANCHOR3,. + 0
	.type	__func__.12, @object
	.size	__func__.12, 25
__func__.12:
	.string	"utils_rbb_find_empty_blk"
	.section	.rodata.__func__.13,"a"
	.align	2
	.set	.LANCHOR2,. + 0
	.type	__func__.13, @object
	.size	__func__.13, 24
__func__.13:
	.string	"utils_rbb_find_used_blk"
	.section	.rodata.__func__.14,"a"
	.align	2
	.set	.LANCHOR1,. + 0
	.type	__func__.14, @object
	.size	__func__.14, 18
__func__.14:
	.string	"utils_rbb_destroy"
	.section	.rodata.__func__.15,"a"
	.align	2
	.set	.LANCHOR0,. + 0
	.type	__func__.15, @object
	.size	__func__.15, 15
__func__.15:
	.string	"utils_rbb_init"
	.section	.rodata.__func__.2,"a"
	.align	2
	.set	.LANCHOR13,. + 0
	.type	__func__.2, @object
	.size	__func__.2, 25
__func__.2:
	.string	"utils_rbb_blk_queue_free"
	.section	.rodata.__func__.3,"a"
	.align	2
	.set	.LANCHOR12,. + 0
	.type	__func__.3, @object
	.size	__func__.3, 24
__func__.3:
	.string	"utils_rbb_blk_queue_buf"
	.section	.rodata.__func__.4,"a"
	.align	2
	.set	.LANCHOR11,. + 0
	.type	__func__.4, @object
	.size	__func__.4, 24
__func__.4:
	.string	"utils_rbb_blk_queue_len"
	.section	.rodata.__func__.5,"a"
	.align	2
	.set	.LANCHOR10,. + 0
	.type	__func__.5, @object
	.size	__func__.5, 24
__func__.5:
	.string	"utils_rbb_blk_queue_get"
	.section	.rodata.__func__.6,"a"
	.align	2
	.set	.LANCHOR9,. + 0
	.type	__func__.6, @object
	.size	__func__.6, 19
__func__.6:
	.string	"utils_rbb_blk_free"
	.section	.rodata.__func__.7,"a"
	.align	2
	.set	.LANCHOR8,. + 0
	.type	__func__.7, @object
	.size	__func__.7, 18
__func__.7:
	.string	"utils_rbb_blk_buf"
	.section	.rodata.__func__.8,"a"
	.align	2
	.set	.LANCHOR7,. + 0
	.type	__func__.8, @object
	.size	__func__.8, 19
__func__.8:
	.string	"utils_rbb_blk_size"
	.section	.rodata.__func__.9,"a"
	.align	2
	.set	.LANCHOR6,. + 0
	.type	__func__.9, @object
	.size	__func__.9, 18
__func__.9:
	.string	"utils_rbb_blk_get"
	.text
.Letext0:
	.file 3 "/mnt/d/GitHub/bl_iot_sdk_for_aithinker/toolchain/riscv/Linux/lib/gcc/riscv64-unknown-elf/10.2.0/include/stddef.h"
	.file 4 "/mnt/d/GitHub/bl_iot_sdk_for_aithinker/toolchain/riscv/Linux/lib/gcc/riscv64-unknown-elf/10.2.0/include/stdint-gcc.h"
	.file 5 "/mnt/d/GitHub/bl_iot_sdk_for_aithinker/components/utils/include/utils_ringblk.h"
	.file 6 "/mnt/d/GitHub/bl_iot_sdk_for_aithinker/toolchain/riscv/Linux/riscv64-unknown-elf/include/assert.h"
	.file 7 "/mnt/d/GitHub/bl_iot_sdk_for_aithinker/components/platform/soc/bl602/freertos_riscv_ram/portable/GCC/RISC-V/portmacro.h"
	.file 8 "/mnt/d/GitHub/bl_iot_sdk_for_aithinker/components/platform/soc/bl602/freertos_riscv_ram/config/portable.h"