	.file	"utils_sha256.c"
	.option nopic
	.attribute arch, "rv32i2p0_m2p0_f2p0_c2p0"
	.attribute unaligned_access, 0
	.attribute stack_align, 16
	.text
.Ltext0:
	.cfi_sections	.debug_frame
	.section	.text.utils_sha256_init,"ax",@progbits
	.align	1
	.globl	utils_sha256_init
	.type	utils_sha256_init, @function
utils_sha256_init:
.LFB2:
	.file 1 "/mnt/d/GitHub/bl_iot_sdk_for_aithinker/components/utils/src/utils_sha256.c"
	.loc 1 44 1
	.cfi_startproc
.LVL0:
	.loc 1 45 5
	li	a2,108
	li	a1,0
	tail	memset
.LVL1:
	.cfi_endproc
.LFE2:
	.size	utils_sha256_init, .-utils_sha256_init
	.section	.text.utils_sha256_free,"ax",@progbits
	.align	1
	.globl	utils_sha256_free
	.type	utils_sha256_free, @function
utils_sha256_free:
.LFB3:
	.loc 1 48 1
	.cfi_startproc
.LVL2:
	.loc 1 49 5
	addi	a5,a0,108
	.loc 1 49 8 is_stmt 0
	bne	a0,zero,.L4
.LVL3:
.L2:
	.loc 1 54 1
	ret
.LVL4:
.L5:
.LBB6:
.LBB7:
	.loc 1 40 9 is_stmt 1
	.loc 1 40 14 is_stmt 0
	sb	zero,0(a0)
	.loc 1 40 11
	addi	a0,a0,1
.LVL5:
.L4:
	.loc 1 39 11 is_stmt 1
	bne	a0,a5,.L5
	j	.L2
.LBE7:
.LBE6:
	.cfi_endproc
.LFE3:
	.size	utils_sha256_free, .-utils_sha256_free
	.section	.text.utils_sha256_clone,"ax",@progbits
	.align	1
	.globl	utils_sha256_clone
	.type	utils_sha256_clone, @function
utils_sha256_clone:
.LFB4:
	.loc 1 57 1
	.cfi_startproc
.LVL6:
	.loc 1 58 5
	.loc 1 57 1 is_stmt 0
	addi	sp,sp,-16
	.cfi_def_cfa_offset 16
	.loc 1 58 10
	li	a2,108
	.loc 1 57 1
	sw	ra,12(sp)
	.cfi_offset 1, -4
	.loc 1 58 10
	call	memcpy
.LVL7:
	.loc 1 59 1
	lw	ra,12(sp)
	.cfi_restore 1
	addi	sp,sp,16
	.cfi_def_cfa_offset 0
	jr	ra
	.cfi_endproc
.LFE4:
	.size	utils_sha256_clone, .-utils_sha256_clone
	.section	.text.utils_sha256_starts,"ax",@progbits
	.align	1
	.globl	utils_sha256_starts
	.type	utils_sha256_starts, @function
utils_sha256_starts:
.LFB5:
	.loc 1 61 1 is_stmt 1
	.cfi_startproc
.LVL8:
	.loc 1 62 5
	.loc 1 63 5
	.loc 1 68 23 is_stmt 0
	li	a5,1779032064
	addi	a5,a5,1639
	sw	a5,8(a0)
	.loc 1 69 23
	li	a5,-1150832640
	addi	a5,a5,-379
	sw	a5,12(a0)
	.loc 1 70 23
	li	a5,1013903360
	addi	a5,a5,882
	sw	a5,16(a0)
	.loc 1 71 23
	li	a5,-1521487872
	addi	a5,a5,1338
	sw	a5,20(a0)
	.loc 1 72 23
	li	a5,1359892480
	addi	a5,a5,639
	sw	a5,24(a0)
	.loc 1 73 23
	li	a5,-1694142464
	addi	a5,a5,-1908
	sw	a5,28(a0)
	.loc 1 74 23
	li	a5,528736256
	addi	a5,a5,-1621
	sw	a5,32(a0)
	.loc 1 75 23
	li	a5,1541459968
	addi	a5,a5,-743
	.loc 1 63 19
	sw	zero,0(a0)
	.loc 1 64 5 is_stmt 1
	.loc 1 64 19 is_stmt 0
	sw	zero,4(a0)
	.loc 1 66 5 is_stmt 1
	.loc 1 68 9
	.loc 1 69 9
	.loc 1 70 9
	.loc 1 71 9
	.loc 1 72 9
	.loc 1 73 9
	.loc 1 74 9
	.loc 1 75 9
	.loc 1 75 23 is_stmt 0
	sw	a5,36(a0)
	.loc 1 78 5 is_stmt 1
	.loc 1 78 16 is_stmt 0
	sw	zero,104(a0)
	.loc 1 79 1
	ret
	.cfi_endproc
.LFE5:
	.size	utils_sha256_starts, .-utils_sha256_starts
	.section	.text.utils_sha256_process,"ax",@progbits
	.align	1
	.globl	utils_sha256_process
	.type	utils_sha256_process, @function
utils_sha256_process:
.LFB6:
	.loc 1 126 1 is_stmt 1
	.cfi_startproc
.LVL9:
	.loc 1 127 5
	.loc 1 128 5
	.loc 1 129 5
	.loc 1 131 5
	.loc 1 131 17
	.loc 1 126 1 is_stmt 0
	addi	sp,sp,-336
	.cfi_def_cfa_offset 336
	sw	s2,324(sp)
	sw	s3,320(sp)
	.cfi_offset 18, -12
	.cfi_offset 19, -16
	addi	s2,a0,8
	mv	s3,sp
	sw	s1,328(sp)
	sw	s0,332(sp)
	sw	s4,316(sp)
	sw	s5,312(sp)
	sw	s6,308(sp)
	sw	s7,304(sp)
	sw	s8,300(sp)
	.cfi_offset 9, -8
	.cfi_offset 8, -4
	.cfi_offset 20, -20
	.cfi_offset 21, -24
	.cfi_offset 22, -28
	.cfi_offset 23, -32
	.cfi_offset 24, -36
	addi	s1,a0,40
	.loc 1 126 1
	mv	a4,s3
	mv	a5,s2
.LVL10:
.L13:
	.loc 1 132 9 is_stmt 1 discriminator 3
	.loc 1 132 14 is_stmt 0 discriminator 3
	lw	a3,0(a5)
	.loc 1 131 5 discriminator 3
	addi	a5,a5,4
	.loc 1 132 14 discriminator 3
	sw	a3,0(a4)
	.loc 1 131 24 is_stmt 1 discriminator 3
	.loc 1 131 17 discriminator 3
	.loc 1 131 5 is_stmt 0 discriminator 3
	addi	a4,a4,4
	bne	s1,a5,.L13
	addi	t1,sp,32
	addi	a2,a1,64
	.loc 1 131 5
	mv	a4,t1
.LVL11:
.L14:
	.loc 1 157 9 is_stmt 1 discriminator 3
	.loc 1 157 14 discriminator 3
	.loc 1 157 25 is_stmt 0 discriminator 3
	lbu	a5,0(a1)
	.loc 1 157 65 discriminator 3
	lbu	a3,1(a1)
	.loc 1 156 5 discriminator 3
	addi	a1,a1,4
	.loc 1 157 53 discriminator 3
	slli	a5,a5,24
	.loc 1 157 96 discriminator 3
	slli	a3,a3,16
	.loc 1 157 146 discriminator 3
	or	a5,a5,a3
	.loc 1 157 150 discriminator 3
	lbu	a3,-1(a1)
	.loc 1 157 146 discriminator 3
	or	a5,a5,a3
	.loc 1 157 108 discriminator 3
	lbu	a3,-2(a1)
	.loc 1 157 139 discriminator 3
	slli	a3,a3,8
	.loc 1 157 146 discriminator 3
	or	a5,a5,a3
	.loc 1 157 21 discriminator 3
	sw	a5,0(a4)
	.loc 1 157 191 is_stmt 1 discriminator 3
	.loc 1 156 25 discriminator 3
	.loc 1 156 17 discriminator 3
	.loc 1 156 5 is_stmt 0 discriminator 3
	addi	a4,a4,4
	bne	a2,a1,.L14
	lui	t3,%hi(.LANCHOR0)
	lw	a0,28(sp)
.LVL12:
	lw	a6,16(sp)
	lw	a7,24(sp)
	lw	a1,20(sp)
	lw	a2,0(sp)
.LVL13:
	lw	a3,4(sp)
	lw	a4,8(sp)
	lw	a5,12(sp)
	addi	s0,t3,%lo(.LANCHOR0)
	addi	t6,s0,64
	.loc 1 156 5
	mv	t5,t1
	addi	t3,t3,%lo(.LANCHOR0)
.L15:
	.loc 1 161 11 is_stmt 1 discriminator 3
	.loc 1 161 55 is_stmt 0 discriminator 3
	slli	t0,a6,26
	srli	t4,a6,6
	.loc 1 161 108 discriminator 3
	slli	t2,a6,21
	.loc 1 161 55 discriminator 3
	or	t4,t4,t0
	.loc 1 161 108 discriminator 3
	srli	t0,a6,11
	or	t0,t0,t2
	.loc 1 161 77 discriminator 3
	xor	t4,t4,t0
	.loc 1 161 162 discriminator 3
	srli	t2,a6,25
	slli	t0,a6,7
	or	t0,t0,t2
	.loc 1 161 131 discriminator 3
	xor	t4,t4,t0
	.loc 1 161 17 discriminator 3
	lw	t2,0(t5)
	lw	t0,0(t3)
	.loc 1 160 5 discriminator 3
	addi	t3,t3,32
	addi	t5,t5,32
	.loc 1 161 17 discriminator 3
	add	t0,t0,t2
	add	t4,t4,t0
	.loc 1 161 210 discriminator 3
	xor	t0,a7,a1
	.loc 1 161 202 discriminator 3
	and	t0,t0,a6
	.loc 1 161 194 discriminator 3
	xor	t0,t0,a7
	.loc 1 161 17 discriminator 3
	add	t4,t4,t0
	add	a0,t4,a0
.LVL14:
	.loc 1 161 243 is_stmt 1 discriminator 3
	.loc 1 161 455 discriminator 3
	.loc 1 161 280 is_stmt 0 discriminator 3
	slli	t0,a2,30
	srli	t4,a2,2
	.loc 1 161 333 discriminator 3
	slli	t2,a2,19
	.loc 1 161 280 discriminator 3
	or	t4,t4,t0
	.loc 1 161 333 discriminator 3
	srli	t0,a2,13
	or	t0,t0,t2
	.loc 1 161 302 discriminator 3
	xor	t4,t4,t0
	.loc 1 161 387 discriminator 3
	srli	t2,a2,22
	slli	t0,a2,10
	or	t0,t0,t2
	.loc 1 161 356 discriminator 3
	xor	t4,t4,t0
	.loc 1 161 444 discriminator 3
	or	t0,a2,a3
	.loc 1 161 420 discriminator 3
	and	t2,a2,a3
	.loc 1 161 436 discriminator 3
	and	t0,t0,a4
	.loc 1 161 428 discriminator 3
	or	t0,t0,t2
	.loc 1 161 249 discriminator 3
	add	t4,t4,t0
	.loc 1 161 460 discriminator 3
	add	a5,a5,a0
	.loc 1 161 470 is_stmt 1 discriminator 3
	.loc 1 162 17 is_stmt 0 discriminator 3
	lw	t0,-28(t5)
	.loc 1 161 483 discriminator 3
	add	a0,t4,a0
.LVL15:
	.loc 1 161 493 is_stmt 1 discriminator 3
	.loc 1 162 11 discriminator 3
	.loc 1 162 17 is_stmt 0 discriminator 3
	lw	t4,-28(t3)
	.loc 1 162 108 discriminator 3
	slli	t2,a5,21
	.loc 1 162 17 discriminator 3
	add	t4,t4,t0
	add	a7,t4,a7
	.loc 1 162 210 discriminator 3
	xor	t4,a6,a1
	.loc 1 162 202 discriminator 3
	and	t4,t4,a5
	.loc 1 162 194 discriminator 3
	xor	t4,t4,a1
	.loc 1 162 17 discriminator 3
	add	a7,a7,t4
	.loc 1 162 55 discriminator 3
	srli	t0,a5,6
	slli	t4,a5,26
	or	t0,t0,t4
	.loc 1 162 108 discriminator 3
	srli	t4,a5,11
	or	t4,t4,t2
	.loc 1 162 77 discriminator 3
	xor	t0,t0,t4
	.loc 1 162 162 discriminator 3
	srli	t2,a5,25
	slli	t4,a5,7
	or	t4,t4,t2
	.loc 1 162 131 discriminator 3
	xor	t4,t0,t4
	.loc 1 162 17 discriminator 3
	add	t4,a7,t4
.LVL16:
	.loc 1 162 243 is_stmt 1 discriminator 3
	.loc 1 162 455 discriminator 3
	.loc 1 162 280 is_stmt 0 discriminator 3
	slli	t0,a0,30
	srli	a7,a0,2
	.loc 1 162 333 discriminator 3
	slli	t2,a0,19
	.loc 1 162 280 discriminator 3
	or	a7,a7,t0
	.loc 1 162 333 discriminator 3
	srli	t0,a0,13
	or	t0,t0,t2
	.loc 1 162 302 discriminator 3
	xor	a7,a7,t0
	.loc 1 162 387 discriminator 3
	srli	t2,a0,22
	slli	t0,a0,10
	or	t0,t0,t2
	.loc 1 162 356 discriminator 3
	xor	a7,a7,t0
	.loc 1 162 444 discriminator 3
	or	t0,a0,a2
	.loc 1 162 420 discriminator 3
	and	t2,a0,a2
	.loc 1 162 436 discriminator 3
	and	t0,t0,a3
	.loc 1 162 428 discriminator 3
	or	t0,t0,t2
	.loc 1 162 249 discriminator 3
	add	a7,a7,t0
	.loc 1 162 483 discriminator 3
	add	a7,a7,t4
	.loc 1 162 460 discriminator 3
	add	a4,a4,t4
	.loc 1 162 470 is_stmt 1 discriminator 3
	.loc 1 162 493 discriminator 3
	.loc 1 163 11 discriminator 3
	.loc 1 163 17 is_stmt 0 discriminator 3
	lw	t0,-24(t5)
	lw	t4,-24(t3)
.LVL17:
	.loc 1 163 108 discriminator 3
	slli	t2,a4,21
	.loc 1 163 17 discriminator 3
	add	t4,t4,t0
	add	a1,t4,a1
	.loc 1 163 210 discriminator 3
	xor	t4,a5,a6
	.loc 1 163 202 discriminator 3
	and	t4,t4,a4
	.loc 1 163 194 discriminator 3
	xor	t4,t4,a6
	.loc 1 163 17 discriminator 3
	add	a1,a1,t4
	.loc 1 163 55 discriminator 3
	srli	t0,a4,6
	slli	t4,a4,26
	or	t0,t0,t4
	.loc 1 163 108 discriminator 3
	srli	t4,a4,11
	or	t4,t4,t2
	.loc 1 163 77 discriminator 3
	xor	t0,t0,t4
	.loc 1 163 162 discriminator 3
	srli	t2,a4,25
	slli	t4,a4,7
	or	t4,t4,t2
	.loc 1 163 131 discriminator 3
	xor	t4,t0,t4
	.loc 1 163 17 discriminator 3
	add	t4,a1,t4
.LVL18:
	.loc 1 163 243 is_stmt 1 discriminator 3
	.loc 1 163 455 discriminator 3
	.loc 1 163 280 is_stmt 0 discriminator 3
	slli	t0,a7,30
	srli	a1,a7,2
	.loc 1 163 333 discriminator 3
	slli	t2,a7,19
	.loc 1 163 280 discriminator 3
	or	a1,a1,t0
	.loc 1 163 333 discriminator 3
	srli	t0,a7,13
	or	t0,t0,t2
	.loc 1 163 302 discriminator 3
	xor	a1,a1,t0
	.loc 1 163 387 discriminator 3
	srli	t2,a7,22
	slli	t0,a7,10
	or	t0,t0,t2
	.loc 1 163 356 discriminator 3
	xor	a1,a1,t0
	.loc 1 163 444 discriminator 3
	or	t0,a0,a7
	.loc 1 163 420 discriminator 3
	and	t2,a0,a7
	.loc 1 163 436 discriminator 3
	and	t0,t0,a2
	.loc 1 163 428 discriminator 3
	or	t0,t0,t2
	.loc 1 163 249 discriminator 3
	add	a1,a1,t0
	.loc 1 163 483 discriminator 3
	add	a1,a1,t4
	.loc 1 163 460 discriminator 3
	add	a3,a3,t4
	.loc 1 163 470 is_stmt 1 discriminator 3
	.loc 1 163 493 discriminator 3
	.loc 1 164 11 discriminator 3
	.loc 1 164 17 is_stmt 0 discriminator 3
	lw	t0,-20(t5)
	lw	t4,-20(t3)
.LVL19:
	.loc 1 164 108 discriminator 3
	slli	t2,a3,21
	.loc 1 164 17 discriminator 3
	add	t4,t4,t0
	add	a6,t4,a6
	.loc 1 164 210 discriminator 3
	xor	t4,a5,a4
	.loc 1 164 202 discriminator 3
	and	t4,t4,a3
	.loc 1 164 194 discriminator 3
	xor	t4,t4,a5
	.loc 1 164 17 discriminator 3
	add	a6,a6,t4
	.loc 1 164 55 discriminator 3
	srli	t0,a3,6
	slli	t4,a3,26
	or	t0,t0,t4
	.loc 1 164 108 discriminator 3
	srli	t4,a3,11
	or	t4,t4,t2
	.loc 1 164 77 discriminator 3
	xor	t0,t0,t4
	.loc 1 164 162 discriminator 3
	srli	t2,a3,25
	slli	t4,a3,7
	or	t4,t4,t2
	.loc 1 164 131 discriminator 3
	xor	t4,t0,t4
	.loc 1 164 17 discriminator 3
	add	t4,a6,t4
.LVL20:
	.loc 1 164 243 is_stmt 1 discriminator 3
	.loc 1 164 455 discriminator 3
	.loc 1 164 280 is_stmt 0 discriminator 3
	slli	t0,a1,30
	srli	a6,a1,2
	.loc 1 164 333 discriminator 3
	slli	t2,a1,19
	.loc 1 164 280 discriminator 3
	or	a6,a6,t0
	.loc 1 164 333 discriminator 3
	srli	t0,a1,13
	or	t0,t0,t2
	.loc 1 164 302 discriminator 3
	xor	a6,a6,t0
	.loc 1 164 387 discriminator 3
	srli	t2,a1,22
	slli	t0,a1,10
	or	t0,t0,t2
	.loc 1 164 356 discriminator 3
	xor	a6,a6,t0
	.loc 1 164 444 discriminator 3
	or	t0,a7,a1
	.loc 1 164 420 discriminator 3
	and	t2,a7,a1
	.loc 1 164 436 discriminator 3
	and	t0,t0,a0
	.loc 1 164 428 discriminator 3
	or	t0,t0,t2
	.loc 1 164 249 discriminator 3
	add	a6,a6,t0
	.loc 1 164 483 discriminator 3
	add	a6,a6,t4
	.loc 1 164 460 discriminator 3
	add	a2,a2,t4
	.loc 1 164 470 is_stmt 1 discriminator 3
	.loc 1 164 493 discriminator 3
	.loc 1 165 11 discriminator 3
	.loc 1 165 17 is_stmt 0 discriminator 3
	lw	t0,-16(t5)
	lw	t4,-16(t3)
.LVL21:
	.loc 1 165 108 discriminator 3
	slli	t2,a2,21
	.loc 1 165 17 discriminator 3
	add	t4,t4,t0
	add	a5,t4,a5
	.loc 1 165 210 discriminator 3
	xor	t4,a4,a3
	.loc 1 165 202 discriminator 3
	and	t4,t4,a2
	.loc 1 165 194 discriminator 3
	xor	t4,t4,a4
	.loc 1 165 17 discriminator 3
	add	a5,a5,t4
	.loc 1 165 55 discriminator 3
	srli	t0,a2,6
	slli	t4,a2,26
	or	t0,t0,t4
	.loc 1 165 108 discriminator 3
	srli	t4,a2,11
	or	t4,t4,t2
	.loc 1 165 77 discriminator 3
	xor	t0,t0,t4
	.loc 1 165 162 discriminator 3
	srli	t2,a2,25
	slli	t4,a2,7
	or	t4,t4,t2
	.loc 1 165 131 discriminator 3
	xor	t4,t0,t4
	.loc 1 165 17 discriminator 3
	add	t4,a5,t4
.LVL22:
	.loc 1 165 243 is_stmt 1 discriminator 3
	.loc 1 165 455 discriminator 3
	.loc 1 165 280 is_stmt 0 discriminator 3
	slli	t0,a6,30
	srli	a5,a6,2
	.loc 1 165 333 discriminator 3
	slli	t2,a6,19
	.loc 1 165 280 discriminator 3
	or	a5,a5,t0
	.loc 1 165 333 discriminator 3
	srli	t0,a6,13
	or	t0,t0,t2
	.loc 1 165 302 discriminator 3
	xor	a5,a5,t0
	.loc 1 165 387 discriminator 3
	srli	t2,a6,22
	slli	t0,a6,10
	or	t0,t0,t2
	.loc 1 165 356 discriminator 3
	xor	a5,a5,t0
	.loc 1 165 444 discriminator 3
	or	t0,a1,a6
	.loc 1 165 420 discriminator 3
	and	t2,a1,a6
	.loc 1 165 436 discriminator 3
	and	t0,t0,a7
	.loc 1 165 428 discriminator 3
	or	t0,t0,t2
	.loc 1 165 249 discriminator 3
	add	a5,a5,t0
	.loc 1 165 483 discriminator 3
	add	a5,a5,t4
	.loc 1 165 460 discriminator 3
	add	a0,a0,t4
	.loc 1 165 470 is_stmt 1 discriminator 3
	.loc 1 165 493 discriminator 3
	.loc 1 166 11 discriminator 3
	.loc 1 166 17 is_stmt 0 discriminator 3
	lw	t0,-12(t5)
	lw	t4,-12(t3)
.LVL23:
	.loc 1 166 108 discriminator 3
	slli	t2,a0,21
	.loc 1 166 17 discriminator 3
	add	t4,t4,t0
	add	a4,t4,a4
	.loc 1 166 210 discriminator 3
	xor	t4,a3,a2
	.loc 1 166 202 discriminator 3
	and	t4,t4,a0
	.loc 1 166 194 discriminator 3
	xor	t4,t4,a3
	.loc 1 166 17 discriminator 3
	add	a4,a4,t4
	.loc 1 166 55 discriminator 3
	srli	t0,a0,6
	slli	t4,a0,26
	or	t0,t0,t4
	.loc 1 166 108 discriminator 3
	srli	t4,a0,11
	or	t4,t4,t2
	.loc 1 166 77 discriminator 3
	xor	t0,t0,t4
	.loc 1 166 162 discriminator 3
	srli	t2,a0,25
	slli	t4,a0,7
	or	t4,t4,t2
	.loc 1 166 131 discriminator 3
	xor	t4,t0,t4
	.loc 1 166 17 discriminator 3
	add	t4,a4,t4
.LVL24:
	.loc 1 166 243 is_stmt 1 discriminator 3
	.loc 1 166 455 discriminator 3
	.loc 1 166 280 is_stmt 0 discriminator 3
	slli	t0,a5,30
	srli	a4,a5,2
	or	a4,a4,t0
	.loc 1 166 333 discriminator 3
	slli	t2,a5,19
	srli	t0,a5,13
	or	t0,t0,t2
	.loc 1 166 302 discriminator 3
	xor	a4,a4,t0
	.loc 1 166 387 discriminator 3
	srli	t2,a5,22
	slli	t0,a5,10
	or	t0,t0,t2
	.loc 1 166 356 discriminator 3
	xor	a4,a4,t0
	.loc 1 166 444 discriminator 3
	or	t0,a6,a5
	.loc 1 166 420 discriminator 3
	and	t2,a6,a5
	.loc 1 166 436 discriminator 3
	and	t0,t0,a1
	.loc 1 166 428 discriminator 3
	or	t0,t0,t2
	.loc 1 166 249 discriminator 3
	add	a4,a4,t0
	.loc 1 166 483 discriminator 3
	add	a4,a4,t4
	.loc 1 166 460 discriminator 3
	add	a7,a7,t4
	.loc 1 166 470 is_stmt 1 discriminator 3
	.loc 1 166 493 discriminator 3
	.loc 1 167 11 discriminator 3
	.loc 1 167 17 is_stmt 0 discriminator 3
	lw	t0,-8(t5)
	lw	t4,-8(t3)
.LVL25:
	.loc 1 167 108 discriminator 3
	slli	t2,a7,21
	.loc 1 167 17 discriminator 3
	add	t4,t4,t0
	add	a3,t4,a3
	.loc 1 167 210 discriminator 3
	xor	t4,a2,a0
	.loc 1 167 202 discriminator 3
	and	t4,t4,a7
	.loc 1 167 194 discriminator 3
	xor	t4,t4,a2
	.loc 1 167 17 discriminator 3
	add	a3,a3,t4
	.loc 1 167 55 discriminator 3
	srli	t0,a7,6
	slli	t4,a7,26
	or	t0,t0,t4
	.loc 1 167 108 discriminator 3
	srli	t4,a7,11
	or	t4,t4,t2
	.loc 1 167 77 discriminator 3
	xor	t0,t0,t4
	.loc 1 167 162 discriminator 3
	srli	t2,a7,25
	slli	t4,a7,7
	or	t4,t4,t2
	.loc 1 167 131 discriminator 3
	xor	t4,t0,t4
	.loc 1 167 17 discriminator 3
	add	t4,a3,t4
.LVL26:
	.loc 1 167 243 is_stmt 1 discriminator 3
	.loc 1 167 455 discriminator 3
	.loc 1 167 280 is_stmt 0 discriminator 3
	slli	t0,a4,30
	srli	a3,a4,2
	or	a3,a3,t0
	.loc 1 167 333 discriminator 3
	slli	t2,a4,19
	srli	t0,a4,13
	or	t0,t0,t2
	.loc 1 167 302 discriminator 3
	xor	a3,a3,t0
	.loc 1 167 387 discriminator 3
	srli	t2,a4,22
	slli	t0,a4,10
	or	t0,t0,t2
	.loc 1 167 356 discriminator 3
	xor	a3,a3,t0
	.loc 1 167 444 discriminator 3
	or	t0,a5,a4
	.loc 1 167 436 discriminator 3
	and	t0,t0,a6
	.loc 1 167 420 discriminator 3
	and	t2,a5,a4
	.loc 1 167 428 discriminator 3
	or	t0,t0,t2
	.loc 1 167 249 discriminator 3
	add	a3,a3,t0
	.loc 1 167 483 discriminator 3
	add	a3,a3,t4
	.loc 1 167 460 discriminator 3
	add	a1,a1,t4
	.loc 1 167 470 is_stmt 1 discriminator 3
	.loc 1 167 493 discriminator 3
	.loc 1 168 11 discriminator 3
	.loc 1 168 17 is_stmt 0 discriminator 3
	lw	t0,-4(t5)
	lw	t4,-4(t3)
.LVL27:
	.loc 1 168 108 discriminator 3
	slli	t2,a1,21
	.loc 1 168 17 discriminator 3
	add	t4,t4,t0
	add	a2,t4,a2
	.loc 1 168 210 discriminator 3
	xor	t4,a0,a7
	.loc 1 168 202 discriminator 3
	and	t4,t4,a1
	.loc 1 168 194 discriminator 3
	xor	t4,t4,a0
	.loc 1 168 17 discriminator 3
	add	a2,a2,t4
	.loc 1 168 55 discriminator 3
	srli	t0,a1,6
	slli	t4,a1,26
	or	t0,t0,t4
	.loc 1 168 108 discriminator 3
	srli	t4,a1,11
	or	t4,t4,t2
	.loc 1 168 77 discriminator 3
	xor	t0,t0,t4
	.loc 1 168 162 discriminator 3
	srli	t2,a1,25
	slli	t4,a1,7
	or	t4,t4,t2
	.loc 1 168 131 discriminator 3
	xor	t4,t0,t4
	.loc 1 168 17 discriminator 3
	add	t4,a2,t4
.LVL28:
	.loc 1 168 243 is_stmt 1 discriminator 3
	.loc 1 168 455 discriminator 3
	.loc 1 168 280 is_stmt 0 discriminator 3
	slli	t0,a3,30
	srli	a2,a3,2
	or	a2,a2,t0
	.loc 1 168 333 discriminator 3
	slli	t2,a3,19
	srli	t0,a3,13
	or	t0,t0,t2
	.loc 1 168 302 discriminator 3
	xor	a2,a2,t0
	.loc 1 168 387 discriminator 3
	srli	t2,a3,22
	slli	t0,a3,10
	or	t0,t0,t2
	.loc 1 168 356 discriminator 3
	xor	a2,a2,t0
	.loc 1 168 444 discriminator 3
	or	t0,a4,a3
	.loc 1 168 436 discriminator 3
	and	t0,t0,a5
	.loc 1 168 420 discriminator 3
	and	t2,a4,a3
	.loc 1 168 428 discriminator 3
	or	t0,t0,t2
	.loc 1 168 249 discriminator 3
	add	a2,a2,t0
	.loc 1 168 460 discriminator 3
	add	a6,a6,t4
	.loc 1 168 470 is_stmt 1 discriminator 3
	.loc 1 168 483 is_stmt 0 discriminator 3
	add	a2,a2,t4
	.loc 1 168 493 is_stmt 1 discriminator 3
	.loc 1 160 25 discriminator 3
	.loc 1 160 17 discriminator 3
	.loc 1 160 5 is_stmt 0 discriminator 3
	bne	t6,t3,.L15
	addi	s4,t1,192
.LVL29:
.L16:
	.loc 1 172 11 is_stmt 1 discriminator 3
	.loc 1 172 251 is_stmt 0 discriminator 3
	lw	s5,56(t1)
	.loc 1 172 446 discriminator 3
	lw	t4,4(t1)
	.loc 1 173 251 discriminator 3
	lw	s6,60(t1)
	.loc 1 172 284 discriminator 3
	srli	t5,s5,17
	slli	t3,s5,15
	.loc 1 172 354 discriminator 3
	srli	t6,s5,19
	.loc 1 172 284 discriminator 3
	or	t3,t3,t5
	.loc 1 172 354 discriminator 3
	slli	t5,s5,13
	or	t5,t5,t6
	.loc 1 172 315 discriminator 3
	xor	t3,t3,t5
	.loc 1 172 416 discriminator 3
	srli	t5,s5,10
	.loc 1 172 621 discriminator 3
	lw	t6,0(t1)
	.loc 1 172 385 discriminator 3
	xor	t3,t3,t5
	.loc 1 172 621 discriminator 3
	lw	t5,36(t1)
	.loc 1 172 550 discriminator 3
	srli	t0,t4,18
	.loc 1 173 284 discriminator 3
	slli	t2,s6,15
	.loc 1 172 621 discriminator 3
	add	t5,t5,t6
	add	t3,t3,t5
	.loc 1 172 479 discriminator 3
	slli	t6,t4,25
	srli	t5,t4,7
	or	t5,t5,t6
	.loc 1 172 550 discriminator 3
	slli	t6,t4,14
	or	t6,t6,t0
	.loc 1 172 510 discriminator 3
	xor	t5,t5,t6
	.loc 1 172 614 discriminator 3
	srli	t6,t4,3
	.loc 1 172 582 discriminator 3
	xor	t5,t5,t6
	.loc 1 172 621 discriminator 3
	add	t3,t3,t5
	.loc 1 172 55 discriminator 3
	slli	t6,a6,26
	srli	t5,a6,6
	.loc 1 172 108 discriminator 3
	slli	t0,a6,21
	.loc 1 172 55 discriminator 3
	or	t5,t5,t6
	.loc 1 172 108 discriminator 3
	srli	t6,a6,11
	or	t6,t6,t0
	.loc 1 172 77 discriminator 3
	xor	t5,t5,t6
	.loc 1 172 162 discriminator 3
	srli	t0,a6,25
	slli	t6,a6,7
	or	t6,t6,t0
	.loc 1 172 131 discriminator 3
	xor	t5,t5,t6
	.loc 1 172 210 discriminator 3
	xor	t6,a7,a1
	.loc 1 172 202 discriminator 3
	and	t6,t6,a6
	.loc 1 172 194 discriminator 3
	xor	t6,t6,a7
	add	t5,t5,t6
	lw	t6,64(s0)
	.loc 1 172 730 discriminator 3
	slli	t0,a2,19
	.loc 1 174 446 discriminator 3
	lw	s7,12(t1)
	add	t5,t5,t6
	add	t5,t5,t3
	.loc 1 172 17 discriminator 3
	add	a0,a0,t5
.LVL30:
	.loc 1 172 640 is_stmt 1 discriminator 3
	.loc 1 172 852 discriminator 3
	.loc 1 172 677 is_stmt 0 discriminator 3
	slli	t6,a2,30
	srli	t5,a2,2
	or	t5,t5,t6
	.loc 1 172 730 discriminator 3
	srli	t6,a2,13
	or	t6,t6,t0
	.loc 1 172 699 discriminator 3
	xor	t5,t5,t6
	.loc 1 172 784 discriminator 3
	srli	t0,a2,22
	slli	t6,a2,10
	or	t6,t6,t0
	.loc 1 172 753 discriminator 3
	xor	t5,t5,t6
	.loc 1 172 841 discriminator 3
	or	t6,a2,a3
	.loc 1 172 817 discriminator 3
	and	t0,a2,a3
	.loc 1 172 833 discriminator 3
	and	t6,t6,a4
	.loc 1 172 825 discriminator 3
	or	t6,t6,t0
	.loc 1 172 646 discriminator 3
	add	t5,t5,t6
	.loc 1 173 284 discriminator 3
	srli	t6,s6,17
	.loc 1 173 354 discriminator 3
	srli	t0,s6,19
	.loc 1 173 284 discriminator 3
	or	t2,t2,t6
	.loc 1 173 354 discriminator 3
	slli	t6,s6,13
	or	t6,t6,t0
	.loc 1 173 315 discriminator 3
	xor	t2,t2,t6
	.loc 1 173 416 discriminator 3
	srli	t6,s6,10
	.loc 1 173 385 discriminator 3
	xor	t2,t2,t6
	.loc 1 173 621 discriminator 3
	lw	t6,40(t1)
	.loc 1 172 857 discriminator 3
	add	a5,a5,a0
	.loc 1 172 867 is_stmt 1 discriminator 3
	.loc 1 172 880 is_stmt 0 discriminator 3
	add	a0,t5,a0
.LVL31:
	.loc 1 172 890 is_stmt 1 discriminator 3
	.loc 1 173 11 discriminator 3
	.loc 1 173 446 is_stmt 0 discriminator 3
	lw	t5,8(t1)
	.loc 1 173 621 discriminator 3
	add	t4,t4,t6
	add	t2,t2,t4
	.loc 1 173 479 discriminator 3
	srli	t6,t5,7
	slli	t4,t5,25
	.loc 1 173 550 discriminator 3
	srli	t0,t5,18
	.loc 1 173 479 discriminator 3
	or	t6,t6,t4
	.loc 1 173 550 discriminator 3
	slli	t4,t5,14
	or	t4,t4,t0
	.loc 1 173 510 discriminator 3
	xor	t6,t6,t4
	.loc 1 173 614 discriminator 3
	srli	t4,t5,3
	.loc 1 173 582 discriminator 3
	xor	t6,t6,t4
	.loc 1 173 621 discriminator 3
	add	t2,t2,t6
	lw	t6,68(s0)
	.loc 1 173 210 discriminator 3
	xor	t4,a6,a1
	.loc 1 173 202 discriminator 3
	and	t4,t4,a5
	add	a7,a7,t6
	add	a7,a7,t2
	.loc 1 173 194 discriminator 3
	xor	t4,t4,a1
	.loc 1 173 55 discriminator 3
	slli	t6,a5,26
	add	t4,t4,a7
	srli	a7,a5,6
	.loc 1 173 108 discriminator 3
	slli	t0,a5,21
	.loc 1 173 55 discriminator 3
	or	a7,a7,t6
	.loc 1 173 108 discriminator 3
	srli	t6,a5,11
	or	t6,t6,t0
	.loc 1 173 77 discriminator 3
	xor	a7,a7,t6
	.loc 1 173 162 discriminator 3
	srli	t0,a5,25
	slli	t6,a5,7
	or	t6,t6,t0
	.loc 1 173 131 discriminator 3
	xor	a7,a7,t6
	.loc 1 173 17 discriminator 3
	add	t4,a7,t4
.LVL32:
	.loc 1 173 640 is_stmt 1 discriminator 3
	.loc 1 173 852 discriminator 3
	.loc 1 173 677 is_stmt 0 discriminator 3
	slli	t6,a0,30
	srli	a7,a0,2
	.loc 1 173 730 discriminator 3
	slli	t0,a0,19
	.loc 1 173 677 discriminator 3
	or	a7,a7,t6
	.loc 1 173 730 discriminator 3
	srli	t6,a0,13
	or	t6,t6,t0
	.loc 1 173 699 discriminator 3
	xor	a7,a7,t6
	.loc 1 173 784 discriminator 3
	srli	t0,a0,22
	slli	t6,a0,10
	or	t6,t6,t0
	.loc 1 173 753 discriminator 3
	xor	a7,a7,t6
	.loc 1 173 841 discriminator 3
	or	t6,a2,a0
	.loc 1 173 817 discriminator 3
	and	t0,a2,a0
	.loc 1 173 833 discriminator 3
	and	t6,t6,a3
	.loc 1 173 825 discriminator 3
	or	t6,t6,t0
	.loc 1 173 646 discriminator 3
	add	a7,a7,t6
	.loc 1 173 880 discriminator 3
	add	a7,a7,t4
	.loc 1 173 857 discriminator 3
	add	a4,a4,t4
	.loc 1 173 867 is_stmt 1 discriminator 3
	.loc 1 173 890 discriminator 3
	.loc 1 174 11 discriminator 3
	.loc 1 174 284 is_stmt 0 discriminator 3
	slli	t0,t3,15
	srli	t4,t3,17
.LVL33:
	.loc 1 174 354 discriminator 3
	srli	t6,t3,19
	.loc 1 174 284 discriminator 3
	or	t0,t0,t4
	.loc 1 174 354 discriminator 3
	slli	t4,t3,13
	or	t4,t4,t6
	.loc 1 174 315 discriminator 3
	xor	t0,t0,t4
	.loc 1 174 416 discriminator 3
	srli	t4,t3,10
	.loc 1 174 385 discriminator 3
	xor	t0,t0,t4
	.loc 1 174 621 discriminator 3
	lw	t4,44(t1)
	.loc 1 174 550 discriminator 3
	srli	t6,s7,18
	.loc 1 175 354 discriminator 3
	srli	s8,t2,19
	.loc 1 174 621 discriminator 3
	add	t5,t5,t4
	add	t0,t0,t5
	.loc 1 174 479 discriminator 3
	slli	t4,s7,25
	srli	t5,s7,7
	or	t5,t5,t4
	.loc 1 174 550 discriminator 3
	slli	t4,s7,14
	or	t4,t4,t6
	.loc 1 174 510 discriminator 3
	xor	t5,t5,t4
	.loc 1 174 614 discriminator 3
	srli	t4,s7,3
	.loc 1 174 582 discriminator 3
	xor	t5,t5,t4
	.loc 1 174 621 discriminator 3
	add	t0,t0,t5
	lw	t5,72(s0)
	.loc 1 174 210 discriminator 3
	xor	t4,a6,a5
	.loc 1 174 202 discriminator 3
	and	t4,t4,a4
	add	a1,a1,t5
	add	a1,a1,t0
	.loc 1 174 194 discriminator 3
	xor	t4,t4,a6
	.loc 1 174 55 discriminator 3
	slli	t5,a4,26
	add	t4,t4,a1
	srli	a1,a4,6
	.loc 1 174 108 discriminator 3
	slli	t6,a4,21
	.loc 1 174 55 discriminator 3
	or	a1,a1,t5
	.loc 1 174 108 discriminator 3
	srli	t5,a4,11
	or	t5,t5,t6
	.loc 1 174 77 discriminator 3
	xor	a1,a1,t5
	.loc 1 174 162 discriminator 3
	srli	t6,a4,25
	slli	t5,a4,7
	or	t5,t5,t6
	.loc 1 174 131 discriminator 3
	xor	a1,a1,t5
	.loc 1 174 17 discriminator 3
	add	t4,a1,t4
.LVL34:
	.loc 1 174 640 is_stmt 1 discriminator 3
	.loc 1 174 852 discriminator 3
	.loc 1 174 677 is_stmt 0 discriminator 3
	slli	t5,a7,30
	srli	a1,a7,2
	.loc 1 174 730 discriminator 3
	slli	t6,a7,19
	.loc 1 174 677 discriminator 3
	or	a1,a1,t5
	.loc 1 174 730 discriminator 3
	srli	t5,a7,13
	or	t5,t5,t6
	.loc 1 174 699 discriminator 3
	xor	a1,a1,t5
	.loc 1 174 784 discriminator 3
	srli	t6,a7,22
	slli	t5,a7,10
	or	t5,t5,t6
	.loc 1 174 753 discriminator 3
	xor	a1,a1,t5
	.loc 1 174 841 discriminator 3
	or	t5,a0,a7
	.loc 1 174 817 discriminator 3
	and	t6,a0,a7
	.loc 1 174 833 discriminator 3
	and	t5,t5,a2
	.loc 1 174 825 discriminator 3
	or	t5,t5,t6
	.loc 1 174 646 discriminator 3
	add	a1,a1,t5
	.loc 1 175 284 discriminator 3
	slli	t6,t2,15
	srli	t5,t2,17
	or	t6,t6,t5
	.loc 1 175 354 discriminator 3
	slli	t5,t2,13
	or	t5,t5,s8
	.loc 1 175 315 discriminator 3
	xor	t6,t6,t5
	.loc 1 173 244 discriminator 3
	sw	t2,68(t1)
	.loc 1 175 416 discriminator 3
	srli	t2,t2,10
	.loc 1 175 385 discriminator 3
	xor	t2,t6,t2
	.loc 1 175 621 discriminator 3
	lw	t6,48(t1)
	.loc 1 174 880 discriminator 3
	add	a1,a1,t4
	.loc 1 174 857 discriminator 3
	add	a3,a3,t4
	.loc 1 174 867 is_stmt 1 discriminator 3
	.loc 1 174 890 discriminator 3
	.loc 1 175 11 discriminator 3
	.loc 1 175 446 is_stmt 0 discriminator 3
	lw	t4,16(t1)
.LVL35:
	.loc 1 175 621 discriminator 3
	add	s7,s7,t6
	add	t6,t2,s7
	.loc 1 175 479 discriminator 3
	srli	t5,t4,7
	slli	t2,t4,25
	.loc 1 175 550 discriminator 3
	srli	s7,t4,18
	.loc 1 175 479 discriminator 3
	or	t5,t5,t2
	.loc 1 175 550 discriminator 3
	slli	t2,t4,14
	or	t2,t2,s7
	.loc 1 175 510 discriminator 3
	xor	t5,t5,t2
	.loc 1 175 614 discriminator 3
	srli	t2,t4,3
	.loc 1 175 582 discriminator 3
	xor	t5,t5,t2
	lw	t2,76(s0)
	.loc 1 175 621 discriminator 3
	add	t6,t6,t5
	.loc 1 175 210 discriminator 3
	xor	t5,a5,a4
	.loc 1 175 202 discriminator 3
	and	t5,t5,a3
	add	a6,a6,t2
	add	a6,a6,t6
	.loc 1 175 194 discriminator 3
	xor	t5,t5,a5
	.loc 1 175 55 discriminator 3
	slli	t2,a3,26
	add	t5,t5,a6
	srli	a6,a3,6
	.loc 1 175 108 discriminator 3
	slli	s7,a3,21
	.loc 1 175 55 discriminator 3
	or	a6,a6,t2
	.loc 1 175 108 discriminator 3
	srli	t2,a3,11
	or	t2,t2,s7
	.loc 1 175 77 discriminator 3
	xor	a6,a6,t2
	.loc 1 175 162 discriminator 3
	srli	s7,a3,25
	slli	t2,a3,7
	or	t2,t2,s7
	.loc 1 175 131 discriminator 3
	xor	a6,a6,t2
	.loc 1 175 17 discriminator 3
	add	t5,a6,t5
.LVL36:
	.loc 1 175 640 is_stmt 1 discriminator 3
	.loc 1 175 852 discriminator 3
	.loc 1 175 677 is_stmt 0 discriminator 3
	slli	t2,a1,30
	srli	a6,a1,2
	.loc 1 175 730 discriminator 3
	slli	s7,a1,19
	.loc 1 175 677 discriminator 3
	or	a6,a6,t2
	.loc 1 175 730 discriminator 3
	srli	t2,a1,13
	or	t2,t2,s7
	.loc 1 175 699 discriminator 3
	xor	a6,a6,t2
	.loc 1 175 784 discriminator 3
	srli	s7,a1,22
	slli	t2,a1,10
	or	t2,t2,s7
	.loc 1 175 753 discriminator 3
	xor	a6,a6,t2
	.loc 1 175 841 discriminator 3
	or	t2,a7,a1
	.loc 1 175 817 discriminator 3
	and	s7,a7,a1
	.loc 1 175 833 discriminator 3
	and	t2,t2,a0
	.loc 1 175 825 discriminator 3
	or	t2,t2,s7
	.loc 1 175 646 discriminator 3
	add	a6,a6,t2
	.loc 1 175 880 discriminator 3
	add	a6,a6,t5
	.loc 1 175 857 discriminator 3
	add	a2,a2,t5
	.loc 1 175 867 is_stmt 1 discriminator 3
	.loc 1 175 890 discriminator 3
	.loc 1 176 11 discriminator 3
	.loc 1 176 284 is_stmt 0 discriminator 3
	srli	t2,t0,17
	slli	t5,t0,15
.LVL37:
	.loc 1 176 354 discriminator 3
	srli	s8,t0,19
	.loc 1 176 284 discriminator 3
	or	t5,t5,t2
	.loc 1 176 354 discriminator 3
	slli	t2,t0,13
	or	t2,t2,s8
	.loc 1 176 315 discriminator 3
	xor	t5,t5,t2
	.loc 1 174 244 discriminator 3
	sw	t0,72(t1)
	.loc 1 176 416 discriminator 3
	srli	t0,t0,10
	.loc 1 176 385 discriminator 3
	xor	t0,t5,t0
	.loc 1 176 621 discriminator 3
	lw	t5,52(t1)
	.loc 1 176 446 discriminator 3
	lw	s7,20(t1)
	.loc 1 177 354 discriminator 3
	srli	s8,t6,19
	.loc 1 176 621 discriminator 3
	add	t4,t4,t5
	add	t5,t0,t4
	.loc 1 176 479 discriminator 3
	slli	t0,s7,25
	srli	t4,s7,7
	.loc 1 176 550 discriminator 3
	srli	t2,s7,18
	.loc 1 176 479 discriminator 3
	or	t4,t4,t0
	.loc 1 176 550 discriminator 3
	slli	t0,s7,14
	or	t0,t0,t2
	.loc 1 176 510 discriminator 3
	xor	t4,t4,t0
	.loc 1 176 614 discriminator 3
	srli	t0,s7,3
	.loc 1 176 582 discriminator 3
	xor	t4,t4,t0
	lw	t0,80(s0)
	.loc 1 176 621 discriminator 3
	add	t5,t5,t4
	.loc 1 176 210 discriminator 3
	xor	t4,a4,a3
	add	t0,t5,t0
	.loc 1 176 202 discriminator 3
	and	t4,t4,a2
	.loc 1 176 194 discriminator 3
	xor	t4,t4,a4
	add	a5,t0,a5
	add	t0,t4,a5
	.loc 1 176 55 discriminator 3
	slli	a5,a2,26
	srli	t4,a2,6
	.loc 1 176 108 discriminator 3
	slli	t2,a2,21
	.loc 1 176 55 discriminator 3
	or	t4,t4,a5
	.loc 1 176 108 discriminator 3
	srli	a5,a2,11
	or	a5,a5,t2
	.loc 1 176 77 discriminator 3
	xor	t4,t4,a5
	.loc 1 176 162 discriminator 3
	srli	t2,a2,25
	slli	a5,a2,7
	or	a5,a5,t2
	.loc 1 176 131 discriminator 3
	xor	a5,t4,a5
	.loc 1 176 17 discriminator 3
	add	t4,a5,t0
.LVL38:
	.loc 1 176 640 is_stmt 1 discriminator 3
	.loc 1 176 852 discriminator 3
	.loc 1 176 677 is_stmt 0 discriminator 3
	slli	t0,a6,30
	srli	a5,a6,2
	.loc 1 176 730 discriminator 3
	slli	t2,a6,19
	.loc 1 176 677 discriminator 3
	or	a5,a5,t0
	.loc 1 176 730 discriminator 3
	srli	t0,a6,13
	or	t0,t0,t2
	.loc 1 176 699 discriminator 3
	xor	a5,a5,t0
	.loc 1 176 784 discriminator 3
	srli	t2,a6,22
	slli	t0,a6,10
	or	t0,t0,t2
	.loc 1 176 753 discriminator 3
	xor	a5,a5,t0
	.loc 1 176 841 discriminator 3
	or	t0,a1,a6
	.loc 1 176 817 discriminator 3
	and	t2,a1,a6
	.loc 1 176 833 discriminator 3
	and	t0,t0,a7
	.loc 1 176 825 discriminator 3
	or	t0,t0,t2
	.loc 1 176 646 discriminator 3
	add	a5,a5,t0
	.loc 1 176 880 discriminator 3
	add	a5,a5,t4
	.loc 1 176 857 discriminator 3
	add	a0,a0,t4
	.loc 1 176 867 is_stmt 1 discriminator 3
	.loc 1 176 890 discriminator 3
	.loc 1 177 11 discriminator 3
	.loc 1 177 284 is_stmt 0 discriminator 3
	srli	t0,t6,17
	slli	t4,t6,15
.LVL39:
	.loc 1 177 446 discriminator 3
	lw	t2,24(t1)
	.loc 1 177 284 discriminator 3
	or	t4,t4,t0
	.loc 1 177 354 discriminator 3
	slli	t0,t6,13
	or	t0,t0,s8
	.loc 1 175 244 discriminator 3
	sw	t6,76(t1)
	.loc 1 177 315 discriminator 3
	xor	t4,t4,t0
	.loc 1 177 416 discriminator 3
	srli	t6,t6,10
	.loc 1 177 621 discriminator 3
	add	s5,s5,s7
	.loc 1 177 479 discriminator 3
	slli	t0,t2,25
	.loc 1 177 385 discriminator 3
	xor	t4,t4,t6
	.loc 1 177 479 discriminator 3
	srli	t6,t2,7
	.loc 1 177 621 discriminator 3
	add	t4,t4,s5
	.loc 1 177 479 discriminator 3
	or	t6,t6,t0
	.loc 1 177 550 discriminator 3
	srli	s5,t2,18
	slli	t0,t2,14
	or	t0,t0,s5
	.loc 1 177 510 discriminator 3
	xor	t6,t6,t0
	.loc 1 177 614 discriminator 3
	srli	t0,t2,3
	.loc 1 177 582 discriminator 3
	xor	t6,t6,t0
	lw	t0,84(s0)
	.loc 1 177 621 discriminator 3
	add	t4,t4,t6
	.loc 1 177 210 discriminator 3
	xor	t6,a3,a2
	add	t0,t4,t0
	.loc 1 177 202 discriminator 3
	and	t6,t6,a0
	.loc 1 177 194 discriminator 3
	xor	t6,t6,a3
	add	a4,t0,a4
	add	t0,t6,a4
	.loc 1 177 55 discriminator 3
	slli	a4,a0,26
	srli	t6,a0,6
	or	t6,t6,a4
	.loc 1 177 108 discriminator 3
	slli	s5,a0,21
	srli	a4,a0,11
	or	a4,a4,s5
	.loc 1 177 77 discriminator 3
	xor	t6,t6,a4
	.loc 1 177 162 discriminator 3
	srli	s5,a0,25
	slli	a4,a0,7
	or	a4,a4,s5
	.loc 1 177 131 discriminator 3
	xor	a4,t6,a4
	.loc 1 177 17 discriminator 3
	add	t6,a4,t0
.LVL40:
	.loc 1 177 640 is_stmt 1 discriminator 3
	.loc 1 177 852 discriminator 3
	.loc 1 177 677 is_stmt 0 discriminator 3
	slli	t0,a5,30
	srli	a4,a5,2
	or	a4,a4,t0
	.loc 1 177 730 discriminator 3
	slli	s5,a5,19
	srli	t0,a5,13
	or	t0,t0,s5
	.loc 1 177 699 discriminator 3
	xor	a4,a4,t0
	.loc 1 177 784 discriminator 3
	srli	s5,a5,22
	slli	t0,a5,10
	or	t0,t0,s5
	.loc 1 177 753 discriminator 3
	xor	a4,a4,t0
	.loc 1 177 841 discriminator 3
	or	t0,a6,a5
	.loc 1 177 817 discriminator 3
	and	s5,a6,a5
	.loc 1 177 833 discriminator 3
	and	t0,t0,a1
	.loc 1 177 825 discriminator 3
	or	t0,t0,s5
	.loc 1 177 646 discriminator 3
	add	a4,a4,t0
	.loc 1 178 284 discriminator 3
	srli	s5,t5,17
	slli	t0,t5,15
	or	t0,t0,s5
	.loc 1 178 354 discriminator 3
	srli	s7,t5,19
	slli	s5,t5,13
	.loc 1 177 880 discriminator 3
	add	a4,a4,t6
	.loc 1 177 857 discriminator 3
	add	a7,a7,t6
	.loc 1 177 867 is_stmt 1 discriminator 3
	.loc 1 177 890 discriminator 3
	.loc 1 178 11 discriminator 3
	.loc 1 178 354 is_stmt 0 discriminator 3
	or	s5,s5,s7
	.loc 1 178 446 discriminator 3
	lw	t6,28(t1)
.LVL41:
	.loc 1 178 315 discriminator 3
	xor	t0,t0,s5
	.loc 1 176 244 discriminator 3
	sw	t5,80(t1)
	.loc 1 178 416 discriminator 3
	srli	t5,t5,10
	.loc 1 178 385 discriminator 3
	xor	t5,t0,t5
	.loc 1 178 621 discriminator 3
	add	s6,s6,t2
	.loc 1 178 479 discriminator 3
	slli	t0,t6,25
	.loc 1 178 621 discriminator 3
	add	s6,t5,s6
	.loc 1 178 479 discriminator 3
	srli	t5,t6,7
	.loc 1 178 550 discriminator 3
	srli	t2,t6,18
	.loc 1 178 479 discriminator 3
	or	t5,t5,t0
	.loc 1 178 550 discriminator 3
	slli	t0,t6,14
	or	t0,t0,t2
	.loc 1 178 510 discriminator 3
	xor	t5,t5,t0
	.loc 1 178 614 discriminator 3
	srli	t0,t6,3
	.loc 1 178 582 discriminator 3
	xor	t5,t5,t0
	lw	t0,88(s0)
	.loc 1 178 621 discriminator 3
	add	s6,s6,t5
	.loc 1 178 210 discriminator 3
	xor	t5,a2,a0
	add	t0,s6,t0
	.loc 1 178 202 discriminator 3
	and	t5,t5,a7
	.loc 1 178 194 discriminator 3
	xor	t5,t5,a2
	add	a3,t0,a3
	add	t0,t5,a3
	.loc 1 178 55 discriminator 3
	slli	a3,a7,26
	srli	t5,a7,6
	or	t5,t5,a3
	.loc 1 178 108 discriminator 3
	slli	t2,a7,21
	srli	a3,a7,11
	or	a3,a3,t2
	.loc 1 178 77 discriminator 3
	xor	t5,t5,a3
	.loc 1 178 162 discriminator 3
	srli	t2,a7,25
	slli	a3,a7,7
	or	a3,a3,t2
	.loc 1 178 131 discriminator 3
	xor	a3,t5,a3
	.loc 1 178 17 discriminator 3
	add	t5,a3,t0
.LVL42:
	.loc 1 178 640 is_stmt 1 discriminator 3
	.loc 1 178 852 discriminator 3
	.loc 1 178 677 is_stmt 0 discriminator 3
	slli	t0,a4,30
	srli	a3,a4,2
	or	a3,a3,t0
	.loc 1 178 730 discriminator 3
	slli	t2,a4,19
	srli	t0,a4,13
	or	t0,t0,t2
	.loc 1 178 699 discriminator 3
	xor	a3,a3,t0
	.loc 1 178 784 discriminator 3
	srli	t2,a4,22
	slli	t0,a4,10
	or	t0,t0,t2
	.loc 1 178 753 discriminator 3
	xor	a3,a3,t0
	.loc 1 178 841 discriminator 3
	or	t0,a5,a4
	.loc 1 178 833 discriminator 3
	and	t0,t0,a6
	.loc 1 178 817 discriminator 3
	and	t2,a5,a4
	.loc 1 178 825 discriminator 3
	or	t0,t0,t2
	.loc 1 178 646 discriminator 3
	add	a3,a3,t0
	.loc 1 178 880 discriminator 3
	add	a3,a3,t5
	.loc 1 178 857 discriminator 3
	add	a1,a1,t5
	.loc 1 178 867 is_stmt 1 discriminator 3
	.loc 1 178 890 discriminator 3
	.loc 1 179 11 discriminator 3
	.loc 1 179 284 is_stmt 0 discriminator 3
	srli	t2,t4,17
	slli	t5,t4,15
.LVL43:
	or	t5,t5,t2
	.loc 1 179 354 discriminator 3
	srli	s5,t4,19
	slli	t2,t4,13
	.loc 1 179 446 discriminator 3
	lw	t0,32(t1)
	.loc 1 179 354 discriminator 3
	or	t2,t2,s5
	.loc 1 177 244 discriminator 3
	sw	t4,84(t1)
	.loc 1 179 315 discriminator 3
	xor	t5,t5,t2
	.loc 1 179 416 discriminator 3
	srli	t4,t4,10
	.loc 1 179 385 discriminator 3
	xor	t4,t5,t4
	.loc 1 172 244 discriminator 3
	sw	t3,64(t1)
	.loc 1 179 621 discriminator 3
	add	t3,t3,t6
	.loc 1 179 479 discriminator 3
	slli	t5,t0,25
	.loc 1 179 621 discriminator 3
	add	t3,t4,t3
	.loc 1 179 479 discriminator 3
	srli	t4,t0,7
	or	t4,t4,t5
	.loc 1 179 550 discriminator 3
	srli	t6,t0,18
	slli	t5,t0,14
	or	t5,t5,t6
	.loc 1 179 510 discriminator 3
	xor	t4,t4,t5
	.loc 1 179 614 discriminator 3
	srli	t0,t0,3
	lw	t5,92(s0)
	.loc 1 179 582 discriminator 3
	xor	t4,t4,t0
	.loc 1 179 621 discriminator 3
	add	t3,t3,t4
	.loc 1 179 210 discriminator 3
	xor	t4,a0,a7
	add	t5,t3,t5
	.loc 1 179 202 discriminator 3
	and	t4,t4,a1
	.loc 1 179 194 discriminator 3
	xor	t4,t4,a0
	add	a2,t5,a2
	add	a2,t4,a2
	.loc 1 179 244 discriminator 3
	sw	t3,92(t1)
	.loc 1 179 55 discriminator 3
	slli	t4,a1,26
	srli	t3,a1,6
	or	t3,t3,t4
	.loc 1 179 108 discriminator 3
	slli	t5,a1,21
	srli	t4,a1,11
	or	t4,t4,t5
	.loc 1 179 77 discriminator 3
	xor	t3,t3,t4
	.loc 1 179 162 discriminator 3
	srli	t5,a1,25
	slli	t4,a1,7
	or	t4,t4,t5
	.loc 1 179 131 discriminator 3
	xor	t3,t3,t4
	.loc 1 179 17 discriminator 3
	add	t3,t3,a2
.LVL44:
	.loc 1 179 640 is_stmt 1 discriminator 3
	.loc 1 179 852 discriminator 3
	.loc 1 179 677 is_stmt 0 discriminator 3
	slli	t4,a3,30
	srli	a2,a3,2
	or	a2,a2,t4
	.loc 1 179 730 discriminator 3
	slli	t5,a3,19
	srli	t4,a3,13
	or	t4,t4,t5
	.loc 1 179 699 discriminator 3
	xor	a2,a2,t4
	.loc 1 179 784 discriminator 3
	srli	t5,a3,22
	slli	t4,a3,10
	or	t4,t4,t5
	.loc 1 179 753 discriminator 3
	xor	a2,a2,t4
	.loc 1 179 841 discriminator 3
	or	t4,a4,a3
	.loc 1 179 833 discriminator 3
	and	t4,t4,a5
	.loc 1 179 817 discriminator 3
	and	t5,a4,a3
	.loc 1 179 825 discriminator 3
	or	t4,t4,t5
	.loc 1 178 244 discriminator 3
	sw	s6,88(t1)
	.loc 1 179 646 discriminator 3
	add	a2,a2,t4
	.loc 1 171 5 discriminator 3
	addi	t1,t1,32
	.loc 1 179 857 discriminator 3
	add	a6,a6,t3
	.loc 1 179 867 is_stmt 1 discriminator 3
	.loc 1 179 880 is_stmt 0 discriminator 3
	add	a2,a2,t3
	.loc 1 179 890 is_stmt 1 discriminator 3
	.loc 1 171 26 discriminator 3
	.loc 1 171 18 discriminator 3
	.loc 1 171 5 is_stmt 0 discriminator 3
	addi	s0,s0,32
	bne	s4,t1,.L16
	sw	a0,28(sp)
	sw	a6,16(sp)
	sw	a7,24(sp)
	sw	a1,20(sp)
	sw	a2,0(sp)
	sw	a3,4(sp)
	sw	a4,8(sp)
	sw	a5,12(sp)
.LVL45:
.L17:
	.loc 1 184 9 is_stmt 1 discriminator 3
	.loc 1 184 23 is_stmt 0 discriminator 3
	lw	a5,0(s2)
	lw	a4,0(s3)
	.loc 1 183 5 discriminator 3
	addi	s2,s2,4
	addi	s3,s3,4
	.loc 1 184 23 discriminator 3
	add	a5,a5,a4
	sw	a5,-4(s2)
	.loc 1 183 24 is_stmt 1 discriminator 3
	.loc 1 183 17 discriminator 3
	.loc 1 183 5 is_stmt 0 discriminator 3
	bne	s1,s2,.L17
	.loc 1 186 1
	lw	s0,332(sp)
	.cfi_restore 8
	lw	s1,328(sp)
	.cfi_restore 9
.LVL46:
	lw	s2,324(sp)
	.cfi_restore 18
	lw	s3,320(sp)
	.cfi_restore 19
	lw	s4,316(sp)
	.cfi_restore 20
	lw	s5,312(sp)
	.cfi_restore 21
	lw	s6,308(sp)
	.cfi_restore 22
	lw	s7,304(sp)
	.cfi_restore 23
	lw	s8,300(sp)
	.cfi_restore 24
	addi	sp,sp,336
	.cfi_def_cfa_offset 0
.LVL47:
	jr	ra
	.cfi_endproc
.LFE6:
	.size	utils_sha256_process, .-utils_sha256_process
	.section	.text.utils_sha256_update.part.0,"ax",@progbits
	.align	1
	.type	utils_sha256_update.part.0, @function
utils_sha256_update.part.0:
.LFB10:
	.loc 1 187 6 is_stmt 1
	.cfi_startproc
.LVL48:
	.loc 1 196 5
	.loc 1 187 6 is_stmt 0
	addi	sp,sp,-32
	.cfi_def_cfa_offset 32
	sw	s0,24(sp)
	sw	s1,20(sp)
	sw	s2,16(sp)
	sw	s3,12(sp)
	sw	ra,28(sp)
	sw	s4,8(sp)
	sw	s5,4(sp)
	sw	s6,0(sp)
	.cfi_offset 8, -8
	.cfi_offset 9, -12
	.cfi_offset 18, -16
	.cfi_offset 19, -20
	.cfi_offset 1, -4
	.cfi_offset 20, -24
	.cfi_offset 21, -28
	.cfi_offset 22, -32
	.loc 1 196 22
	lw	a5,0(a0)
	.loc 1 187 6
	mv	s1,a0
	mv	s2,a1
	.loc 1 196 10
	andi	s3,a5,63
.LVL49:
	.loc 1 197 5 is_stmt 1
	.loc 1 199 5
	.loc 1 199 19 is_stmt 0
	add	a5,a5,a2
	sw	a5,0(a0)
	.loc 1 200 5 is_stmt 1
	.loc 1 202 5
	.loc 1 187 6 is_stmt 0
	mv	s0,a2
	.loc 1 202 8
	bleu	a2,a5,.L25
	.loc 1 203 9 is_stmt 1
	.loc 1 203 22 is_stmt 0
	lw	a5,4(a0)
	addi	a5,a5,1
	sw	a5,4(a0)
.L25:
	.loc 1 206 5 is_stmt 1
	.loc 1 206 8 is_stmt 0
	beq	s3,zero,.L26
	.loc 1 197 10
	li	s4,64
	sub	s4,s4,s3
	.loc 1 206 14
	bgtu	s4,s0,.L26
	.loc 1 207 9 is_stmt 1
	.loc 1 207 25 is_stmt 0
	addi	s5,s1,40
	.loc 1 207 9
	mv	a1,s2
.LVL50:
	mv	a2,s4
.LVL51:
	add	a0,s5,s3
.LVL52:
	call	memcpy
.LVL53:
	.loc 1 208 9 is_stmt 1
	mv	a1,s5
	mv	a0,s1
	addi	s0,s0,-64
.LVL54:
	.loc 1 210 14 is_stmt 0
	add	s0,s3,s0
.LVL55:
	.loc 1 208 9
	call	utils_sha256_process
.LVL56:
	.loc 1 209 9 is_stmt 1
	.loc 1 209 15 is_stmt 0
	add	s2,s2,s4
.LVL57:
	.loc 1 210 9 is_stmt 1
	.loc 1 211 9
	.loc 1 211 14 is_stmt 0
	li	s3,0
.LVL58:
.L26:
	mv	s4,s0
	add	s6,s2,s0
	.loc 1 214 11
	li	s5,63
	j	.L27
.LVL59:
.L28:
	.loc 1 215 9 is_stmt 1
	mv	a0,s1
	call	utils_sha256_process
.LVL60:
	.loc 1 216 9
	.loc 1 217 9
	.loc 1 217 14 is_stmt 0
	addi	s4,s4,-64
.LVL61:
.L27:
	sub	a1,s6,s4
.LVL62:
	.loc 1 214 11 is_stmt 1
	bgtu	s4,s5,.L28
	srli	a2,s0,6
	li	a5,-64
	mul	a2,a2,a5
	andi	a1,s0,-64
.LVL63:
	add	a1,s2,a1
	add	a2,a2,s0
	.loc 1 220 5
	.loc 1 220 8 is_stmt 0
	beq	a2,zero,.L24
	.loc 1 221 9 is_stmt 1
	.loc 1 223 1 is_stmt 0
	lw	s0,24(sp)
	.cfi_remember_state
	.cfi_restore 8
	.loc 1 221 25
	addi	a0,s1,40
	.loc 1 223 1
	lw	ra,28(sp)
	.cfi_restore 1
	lw	s1,20(sp)
	.cfi_restore 9
.LVL64:
	lw	s2,16(sp)
	.cfi_restore 18
	lw	s4,8(sp)
	.cfi_restore 20
.LVL65:
	lw	s5,4(sp)
	.cfi_restore 21
	lw	s6,0(sp)
	.cfi_restore 22
	.loc 1 221 9
	add	a0,a0,s3
.LVL66:
	.loc 1 223 1
	lw	s3,12(sp)
	.cfi_restore 19
.LVL67:
	addi	sp,sp,32
	.cfi_def_cfa_offset 0
	.loc 1 221 9
	tail	memcpy
.LVL68:
.L24:
	.cfi_restore_state
	.loc 1 223 1
	lw	ra,28(sp)
	.cfi_restore 1
	lw	s0,24(sp)
	.cfi_restore 8
	lw	s1,20(sp)
	.cfi_restore 9
.LVL69:
	lw	s2,16(sp)
	.cfi_restore 18
	lw	s3,12(sp)
	.cfi_restore 19
.LVL70:
	lw	s4,8(sp)
	.cfi_restore 20
.LVL71:
	lw	s5,4(sp)
	.cfi_restore 21
	lw	s6,0(sp)
	.cfi_restore 22
	addi	sp,sp,32
	.cfi_def_cfa_offset 0
	jr	ra
	.cfi_endproc
.LFE10:
	.size	utils_sha256_update.part.0, .-utils_sha256_update.part.0
	.section	.text.utils_sha256_update,"ax",@progbits
	.align	1
	.globl	utils_sha256_update
	.type	utils_sha256_update, @function
utils_sha256_update:
.LFB7:
	.loc 1 188 1 is_stmt 1
	.cfi_startproc
.LVL72:
	.loc 1 189 5
	.loc 1 190 5
	.loc 1 192 5
	.loc 1 192 8 is_stmt 0
	beq	a2,zero,.L34
	tail	utils_sha256_update.part.0
.LVL73:
.L34:
	.loc 1 223 1
	ret
	.cfi_endproc
.LFE7:
	.size	utils_sha256_update, .-utils_sha256_update
	.section	.text.utils_sha256_finish,"ax",@progbits
	.align	1
	.globl	utils_sha256_finish
	.type	utils_sha256_finish, @function
utils_sha256_finish:
.LFB8:
	.loc 1 233 1 is_stmt 1
	.cfi_startproc
.LVL74:
	.loc 1 234 5
	.loc 1 235 5
	.loc 1 236 5
	.loc 1 238 5
	.loc 1 233 1 is_stmt 0
	addi	sp,sp,-32
	.cfi_def_cfa_offset 32
	sw	s0,24(sp)
	sw	s1,20(sp)
	sw	ra,28(sp)
	.cfi_offset 8, -8
	.cfi_offset 9, -12
	.cfi_offset 1, -4
	.loc 1 238 23
	lw	a2,0(a0)
	.loc 1 239 29
	lw	a3,4(a0)
	.loc 1 233 1
	mv	s1,a1
	.loc 1 238 27
	srli	a5,a2,29
	.loc 1 239 29
	slli	a3,a3,3
	.loc 1 238 10
	or	a5,a3,a5
.LVL75:
	.loc 1 240 5 is_stmt 1
	.loc 1 242 52 is_stmt 0
	srli	a1,a3,24
.LVL76:
	.loc 1 242 106
	srli	a3,a3,16
	.loc 1 242 81
	sb	a3,9(sp)
	.loc 1 242 133
	slli	a3,a5,8
	slli	a5,a5,16
.LVL77:
	srli	a5,a5,16
	srli	a5,a5,8
	.loc 1 240 9
	slli	a4,a2,3
.LVL78:
	.loc 1 242 5 is_stmt 1
	.loc 1 242 10
	.loc 1 242 133 is_stmt 0
	or	a5,a3,a5
	sh	a5,10(sp)
	.loc 1 243 51
	srli	a5,a4,24
	.loc 1 243 27
	sb	a5,12(sp)
	.loc 1 243 104
	srli	a5,a4,16
	.loc 1 243 131
	slli	a4,a4,16
.LVL79:
	srli	a4,a4,16
	.loc 1 243 80
	sb	a5,13(sp)
	.loc 1 243 131
	srli	a4,a4,8
	slli	a5,a2,11
	or	a4,a5,a4
	.loc 1 242 27
	sb	a1,8(sp)
	.loc 1 242 61 is_stmt 1
	.loc 1 242 115
	.loc 1 242 168
	.loc 1 242 223
	.loc 1 243 5
	.loc 1 243 10
	.loc 1 243 60
	.loc 1 243 113
	.loc 1 243 165
	.loc 1 243 131 is_stmt 0
	sh	a4,14(sp)
	.loc 1 243 219 is_stmt 1
	.loc 1 245 5
	.loc 1 245 10 is_stmt 0
	andi	a2,a2,63
.LVL80:
	.loc 1 246 5 is_stmt 1
	.loc 1 246 38 is_stmt 0
	li	a5,55
	.loc 1 233 1
	mv	s0,a0
	.loc 1 246 38
	bgtu	a2,a5,.L37
	.loc 1 246 38 discriminator 1
	li	a5,56
.L41:
	.loc 1 248 5 discriminator 2
	lui	a1,%hi(.LANCHOR1)
	.loc 1 246 38 discriminator 2
	sub	a2,a5,a2
.LVL81:
	.loc 1 248 5 is_stmt 1 discriminator 2
	addi	a1,a1,%lo(.LANCHOR1)
	mv	a0,s0
.LVL82:
	call	utils_sha256_update
.LVL83:
	.loc 1 249 5 discriminator 2
.LBB8:
.LBB9:
	.loc 1 189 5 discriminator 2
	.loc 1 190 5 discriminator 2
	.loc 1 192 5 discriminator 2
	li	a2,8
	addi	a1,sp,8
.LVL84:
	mv	a0,s0
	call	utils_sha256_update.part.0
.LVL85:
.LBE9:
.LBE8:
	.loc 1 251 5 discriminator 2
	.loc 1 251 10 discriminator 2
	.loc 1 251 61 is_stmt 0 discriminator 2
	lbu	a5,11(s0)
	.loc 1 251 27 discriminator 2
	sb	a5,0(s1)
	.loc 1 251 70 is_stmt 1 discriminator 2
	.loc 1 251 124 is_stmt 0 discriminator 2
	lhu	a5,10(s0)
	.loc 1 251 90 discriminator 2
	sb	a5,1(s1)
	.loc 1 251 133 is_stmt 1 discriminator 2
	.loc 1 251 187 is_stmt 0 discriminator 2
	lw	a5,8(s0)
	srli	a5,a5,8
	.loc 1 251 153 discriminator 2
	sb	a5,2(s1)
	.loc 1 251 195 is_stmt 1 discriminator 2
	.loc 1 251 215 is_stmt 0 discriminator 2
	lw	a5,8(s0)
	sb	a5,3(s1)
	.loc 1 251 259 is_stmt 1 discriminator 2
	.loc 1 252 5 discriminator 2
	.loc 1 252 10 discriminator 2
	.loc 1 252 61 is_stmt 0 discriminator 2
	lbu	a5,15(s0)
	.loc 1 252 27 discriminator 2
	sb	a5,4(s1)
	.loc 1 252 70 is_stmt 1 discriminator 2
	.loc 1 252 124 is_stmt 0 discriminator 2
	lhu	a5,14(s0)
	.loc 1 252 90 discriminator 2
	sb	a5,5(s1)
	.loc 1 252 133 is_stmt 1 discriminator 2
	.loc 1 252 187 is_stmt 0 discriminator 2
	lw	a5,12(s0)
	srli	a5,a5,8
	.loc 1 252 153 discriminator 2
	sb	a5,6(s1)
	.loc 1 252 195 is_stmt 1 discriminator 2
	.loc 1 252 215 is_stmt 0 discriminator 2
	lw	a5,12(s0)
	sb	a5,7(s1)
	.loc 1 252 259 is_stmt 1 discriminator 2
	.loc 1 253 5 discriminator 2
	.loc 1 253 10 discriminator 2
	.loc 1 253 61 is_stmt 0 discriminator 2
	lbu	a5,19(s0)
	.loc 1 253 27 discriminator 2
	sb	a5,8(s1)
	.loc 1 253 70 is_stmt 1 discriminator 2
	.loc 1 253 124 is_stmt 0 discriminator 2
	lhu	a5,18(s0)
	.loc 1 253 90 discriminator 2
	sb	a5,9(s1)
	.loc 1 253 133 is_stmt 1 discriminator 2
	.loc 1 253 187 is_stmt 0 discriminator 2
	lw	a5,16(s0)
	srli	a5,a5,8
	.loc 1 253 153 discriminator 2
	sb	a5,10(s1)
	.loc 1 253 195 is_stmt 1 discriminator 2
	.loc 1 253 215 is_stmt 0 discriminator 2
	lw	a5,16(s0)
	sb	a5,11(s1)
	.loc 1 253 259 is_stmt 1 discriminator 2
	.loc 1 254 5 discriminator 2
	.loc 1 254 10 discriminator 2
	.loc 1 254 62 is_stmt 0 discriminator 2
	lbu	a5,23(s0)
	.loc 1 254 28 discriminator 2
	sb	a5,12(s1)
	.loc 1 254 71 is_stmt 1 discriminator 2
	.loc 1 254 126 is_stmt 0 discriminator 2
	lhu	a5,22(s0)
	.loc 1 254 92 discriminator 2
	sb	a5,13(s1)
	.loc 1 254 135 is_stmt 1 discriminator 2
	.loc 1 254 190 is_stmt 0 discriminator 2
	lw	a5,20(s0)
	srli	a5,a5,8
	.loc 1 254 156 discriminator 2
	sb	a5,14(s1)
	.loc 1 254 198 is_stmt 1 discriminator 2
	.loc 1 254 219 is_stmt 0 discriminator 2
	lw	a5,20(s0)
	sb	a5,15(s1)
	.loc 1 254 263 is_stmt 1 discriminator 2
	.loc 1 255 5 discriminator 2
	.loc 1 255 10 discriminator 2
	.loc 1 255 62 is_stmt 0 discriminator 2
	lbu	a5,27(s0)
	.loc 1 255 28 discriminator 2
	sb	a5,16(s1)
	.loc 1 255 71 is_stmt 1 discriminator 2
	.loc 1 255 126 is_stmt 0 discriminator 2
	lhu	a5,26(s0)
	.loc 1 255 92 discriminator 2
	sb	a5,17(s1)
	.loc 1 255 135 is_stmt 1 discriminator 2
	.loc 1 255 190 is_stmt 0 discriminator 2
	lw	a5,24(s0)
	srli	a5,a5,8
	.loc 1 255 156 discriminator 2
	sb	a5,18(s1)
	.loc 1 255 198 is_stmt 1 discriminator 2
	.loc 1 255 219 is_stmt 0 discriminator 2
	lw	a5,24(s0)
	sb	a5,19(s1)
	.loc 1 255 263 is_stmt 1 discriminator 2
	.loc 1 256 5 discriminator 2
	.loc 1 256 10 discriminator 2
	.loc 1 256 62 is_stmt 0 discriminator 2
	lbu	a5,31(s0)
	.loc 1 256 28 discriminator 2
	sb	a5,20(s1)
	.loc 1 256 71 is_stmt 1 discriminator 2
	.loc 1 256 126 is_stmt 0 discriminator 2
	lhu	a5,30(s0)
	.loc 1 256 92 discriminator 2
	sb	a5,21(s1)
	.loc 1 256 135 is_stmt 1 discriminator 2
	.loc 1 256 190 is_stmt 0 discriminator 2
	lw	a5,28(s0)
	srli	a5,a5,8
	.loc 1 256 156 discriminator 2
	sb	a5,22(s1)
	.loc 1 256 198 is_stmt 1 discriminator 2
	.loc 1 256 219 is_stmt 0 discriminator 2
	lw	a5,28(s0)
	sb	a5,23(s1)
	.loc 1 256 263 is_stmt 1 discriminator 2
	.loc 1 257 5 discriminator 2
	.loc 1 257 10 discriminator 2
	.loc 1 257 62 is_stmt 0 discriminator 2
	lbu	a5,35(s0)
	.loc 1 257 28 discriminator 2
	sb	a5,24(s1)
	.loc 1 257 71 is_stmt 1 discriminator 2
	.loc 1 257 126 is_stmt 0 discriminator 2
	lhu	a5,34(s0)
	.loc 1 257 92 discriminator 2
	sb	a5,25(s1)
	.loc 1 257 135 is_stmt 1 discriminator 2
	.loc 1 257 190 is_stmt 0 discriminator 2
	lw	a5,32(s0)
	srli	a5,a5,8
	.loc 1 257 156 discriminator 2
	sb	a5,26(s1)
	.loc 1 257 198 is_stmt 1 discriminator 2
	.loc 1 257 219 is_stmt 0 discriminator 2
	lw	a5,32(s0)
	sb	a5,27(s1)
	.loc 1 257 263 is_stmt 1 discriminator 2
	.loc 1 259 5 discriminator 2
	.loc 1 259 8 is_stmt 0 discriminator 2
	lw	a5,104(s0)
	bne	a5,zero,.L36
	.loc 1 260 9 is_stmt 1
	.loc 1 260 14
	.loc 1 260 66 is_stmt 0
	lbu	a5,39(s0)
	.loc 1 260 32
	sb	a5,28(s1)
	.loc 1 260 75 is_stmt 1
	.loc 1 260 130 is_stmt 0
	lhu	a5,38(s0)
	.loc 1 260 96
	sb	a5,29(s1)
	.loc 1 260 139 is_stmt 1
	.loc 1 260 194 is_stmt 0
	lw	a5,36(s0)
	srli	a5,a5,8
	.loc 1 260 160
	sb	a5,30(s1)
	.loc 1 260 202 is_stmt 1
	.loc 1 260 223 is_stmt 0
	lw	a5,36(s0)
	sb	a5,31(s1)
	.loc 1 260 267 is_stmt 1
.L36:
	.loc 1 262 1 is_stmt 0
	lw	ra,28(sp)
	.cfi_remember_state
	.cfi_restore 1
	lw	s0,24(sp)
	.cfi_restore 8
.LVL86:
	lw	s1,20(sp)
	.cfi_restore 9
.LVL87:
	addi	sp,sp,32
	.cfi_def_cfa_offset 0
	jr	ra
.LVL88:
.L37:
	.cfi_restore_state
	.loc 1 246 38 discriminator 2
	li	a5,120
	j	.L41
	.cfi_endproc
.LFE8:
	.size	utils_sha256_finish, .-utils_sha256_finish
	.section	.text.utils_sha256,"ax",@progbits
	.align	1
	.globl	utils_sha256
	.type	utils_sha256, @function
utils_sha256:
.LFB9:
	.loc 1 265 1 is_stmt 1
	.cfi_startproc
.LVL89:
	.loc 1 266 5
	.loc 1 268 5
	.loc 1 265 1 is_stmt 0
	addi	sp,sp,-128
	.cfi_def_cfa_offset 128
	sw	s1,116(sp)
	.cfi_offset 9, -12
	mv	s1,a0
	.loc 1 268 5
	addi	a0,sp,4
.LVL90:
	.loc 1 265 1
	sw	ra,124(sp)
	sw	s0,120(sp)
	sw	s2,112(sp)
	.cfi_offset 1, -4
	.cfi_offset 8, -8
	.cfi_offset 18, -16
	.loc 1 265 1
	mv	s0,a2
	mv	s2,a1
	.loc 1 268 5
	call	utils_sha256_init
.LVL91:
	.loc 1 269 5 is_stmt 1
	addi	a0,sp,4
	call	utils_sha256_starts
.LVL92:
	.loc 1 270 5
	mv	a2,s2
	mv	a1,s1
	addi	a0,sp,4
	call	utils_sha256_update
.LVL93:
	.loc 1 271 5
	mv	a1,s0
	addi	a0,sp,4
	call	utils_sha256_finish
.LVL94:
	.loc 1 272 5
	addi	a0,sp,4
	call	utils_sha256_free
.LVL95:
	.loc 1 273 1 is_stmt 0
	lw	ra,124(sp)
	.cfi_restore 1
	lw	s0,120(sp)
	.cfi_restore 8
.LVL96:
	lw	s1,116(sp)
	.cfi_restore 9
.LVL97:
	lw	s2,112(sp)
	.cfi_restore 18
.LVL98:
	addi	sp,sp,128
	.cfi_def_cfa_offset 0
	jr	ra
	.cfi_endproc
.LFE9:
	.size	utils_sha256, .-utils_sha256
	.section	.rodata.K,"a"
	.align	2
	.set	.LANCHOR0,. + 0
	.type	K, @object
	.size	K, 256
K:
	.word	1116352408
	.word	1899447441
	.word	-1245643825
	.word	-373957723
	.word	961987163
	.word	1508970993
	.word	-1841331548
	.word	-1424204075
	.word	-670586216
	.word	310598401
	.word	607225278
	.word	1426881987
	.word	1925078388
	.word	-2132889090
	.word	-1680079193
	.word	-1046744716
	.word	-459576895
	.word	-272742522
	.word	264347078
	.word	604807628
	.word	770255983
	.word	1249150122
	.word	1555081692
	.word	1996064986
	.word	-1740746414
	.word	-1473132947
	.word	-1341970488
	.word	-1084653625
	.word	-958395405
	.word	-710438585
	.word	113926993
	.word	338241895
	.word	666307205
	.word	773529912
	.word	1294757372
	.word	1396182291
	.word	1695183700
	.word	1986661051
	.word	-2117940946
	.word	-1838011259
	.word	-1564481375
	.word	-1474664885
	.word	-1035236496
	.word	-949202525
	.word	-778901479
	.word	-694614492
	.word	-200395387
	.word	275423344
	.word	430227734
	.word	506948616
	.word	659060556
	.word	883997877
	.word	958139571
	.word	1322822218
	.word	1537002063
	.word	1747873779
	.word	1955562222
	.word	2024104815
	.word	-2067236844
	.word	-1933114872
	.word	-1866530822
	.word	-1538233109
	.word	-1090935817
	.word	-965641998
	.section	.rodata.sha256_padding,"a"
	.align	2
	.set	.LANCHOR1,. + 0
	.type	sha256_padding, @object
	.size	sha256_padding, 64
sha256_padding:
	.string	"\200"
	.string	""
	.string	""
	.string	""
	.string	""
	.string	""
	.string	""
	.string	""
	.string	""
	.string	""
	.string	""
	.string	""
	.string	""
	.string	""
	.string	""
	.string	""
	.string	""
	.string	""
	.string	""
	.string	""
	.string	""
	.string	""
	.string	""
	.string	""
	.string	""
	.string	""
	.string	""
	.string	""
	.string	""
	.string	""
	.string	""
	.string	""
	.string	""
	.string	""
	.string	""
	.string	""
	.string	""
	.string	""
	.string	""
	.string	""
	.string	""
	.string	""
	.string	""
	.string	""
	.string	""
	.string	""
	.string	""
	.string	""
	.string	""
	.string	""
	.string	""
	.string	""
	.string	""
	.string	""
	.string	""
	.string	""
	.string	""
	.string	""
	.string	""
	.string	""
	.string	""
	.string	""
	.string	""
	.text
.Letext0:
	.file 2 "/mnt/d/GitHub/bl_iot_sdk_for_aithinker/toolchain/riscv/Linux/lib/gcc/riscv64-unknown-elf/10.2.0/include/stddef.h"
	.file 3 "/mnt/d/GitHub/bl_iot_sdk_for_aithinker/toolchain/riscv/Linux/lib/gcc/riscv64-unknown-elf/10.2.0/include/stdint-gcc.h"
	.file 4 "/mnt/d/GitHub/bl_iot_sdk_for_aithinker/components/utils/include/utils_sha256.h"
	.file 5 "/mnt/d/GitHub/bl_iot_sdk_for_aithinker/toolchain/riscv/Linux/riscv64-unknown-elf/include/string.h"
	.file 6 "<built-in>"