	.file	"utils_hmac_sha1_fast.c"
	.option nopic
	.attribute arch, "rv32i2p0_m2p0_f2p0_c2p0"
	.attribute unaligned_access, 0
	.attribute stack_align, 16
	.text
.Ltext0:
	.cfi_sections	.debug_frame
	.section	.text.utils_hmac_sha1_fast,"ax",@progbits
	.align	1
	.globl	utils_hmac_sha1_fast
	.type	utils_hmac_sha1_fast, @function
utils_hmac_sha1_fast:
.LFB4:
	.file 1 "/mnt/d/GitHub/bl_iot_sdk_for_aithinker/components/utils/src/utils_hmac_sha1_fast.c"
	.loc 1 15 1
	.cfi_startproc
.LVL0:
	.loc 1 16 5
	.loc 1 17 5
	.loc 1 18 5
	.loc 1 19 5
	.loc 1 20 5
	.loc 1 23 5
	.loc 1 15 1 is_stmt 0
	addi	sp,sp,-288
	.cfi_def_cfa_offset 288
.LVL1:
	.loc 1 24 5 is_stmt 1
	.loc 1 27 5
	.loc 1 15 1 is_stmt 0
	sw	s1,276(sp)
	sw	s2,272(sp)
	sw	s4,264(sp)
	sw	s5,260(sp)
	sw	s7,252(sp)
	sw	s8,248(sp)
	sw	s9,244(sp)
	.cfi_offset 9, -12
	.cfi_offset 18, -16
	.cfi_offset 20, -24
	.cfi_offset 21, -28
	.cfi_offset 23, -36
	.cfi_offset 24, -40
	.cfi_offset 25, -44
	mv	s4,a5
	sw	ra,284(sp)
	sw	s0,280(sp)
	sw	s3,268(sp)
	sw	s6,256(sp)
	.cfi_offset 1, -4
	.cfi_offset 8, -8
	.cfi_offset 19, -20
	.cfi_offset 22, -32
	.loc 1 27 8
	li	a5,64
.LVL2:
	.loc 1 15 1
	mv	s8,a0
	mv	s9,a1
	mv	s7,a2
	mv	s2,a3
	mv	s1,a4
	mv	s5,a6
	.loc 1 27 8
	ble	a4,a5,.L2
	.loc 1 29 9 is_stmt 1
	li	a1,2
.LVL3:
	addi	a0,sp,92
.LVL4:
	call	bl_sha_init
.LVL5:
	.loc 1 30 9
	mv	a2,s1
	mv	a1,s2
	addi	a0,sp,92
	call	bl_sha_update
.LVL6:
	.loc 1 31 9
	mv	a1,s2
	addi	a0,sp,92
	call	bl_sha_finish
.LVL7:
	.loc 1 33 9
	.loc 1 33 17 is_stmt 0
	li	s1,20
.LVL8:
.L2:
	.loc 1 49 5 is_stmt 1
	li	a2,64
	li	a1,0
	mv	a0,sp
	call	memset
.LVL9:
	.loc 1 50 5
	mv	a2,s1
	mv	a1,s2
	mv	a0,sp
	call	memcpy
.LVL10:
	.loc 1 53 5
	.loc 1 53 17
	.loc 1 55 32 is_stmt 0
	li	a5,909520896
	mv	s0,sp
	addi	s6,sp,64
.LVL11:
	.loc 1 50 5
	mv	a4,sp
	.loc 1 55 32
	addi	a5,a5,1590
.LVL12:
.L3:
	.loc 1 55 9 is_stmt 1 discriminator 3
	.loc 1 55 32 is_stmt 0 discriminator 3
	lw	a3,0(a4)
	xor	a3,a3,a5
	sw	a3,0(a4)
	lw	a3,4(a4)
	xor	a3,a3,a5
	sw	a3,4(a4)
	.loc 1 53 24 is_stmt 1 discriminator 3
	.loc 1 53 17 discriminator 3
	.loc 1 53 5 is_stmt 0 discriminator 3
	addi	a4,a4,8
	bne	a4,s6,.L3
	.loc 1 58 5 is_stmt 1
	li	a1,2
	addi	a0,sp,92
	call	bl_sha_init
.LVL13:
	.loc 1 59 5
	li	a2,64
	mv	a1,sp
	addi	a0,sp,92
	call	bl_sha_update
.LVL14:
	.loc 1 60 5
	.loc 1 60 12 is_stmt 0
	li	s3,0
.LVL15:
.L4:
	.loc 1 60 17 is_stmt 1 discriminator 1
	.loc 1 60 5 is_stmt 0 discriminator 1
	blt	s3,s7,.L5
	.loc 1 66 5 is_stmt 1
	mv	a1,s6
	addi	a0,sp,92
	call	bl_sha_finish
.LVL16:
	.loc 1 70 5
	li	a2,64
	li	a1,0
	mv	a0,sp
	call	memset
.LVL17:
	.loc 1 71 5
	mv	a2,s1
	mv	a1,s2
	mv	a0,sp
	call	memcpy
.LVL18:
	.loc 1 74 5
	.loc 1 74 17
	.loc 1 76 32 is_stmt 0
	li	a4,1549557760
	addi	a4,a4,-932
.LVL19:
.L6:
	.loc 1 76 9 is_stmt 1 discriminator 3
	.loc 1 76 32 is_stmt 0 discriminator 3
	lw	a5,0(s0)
	xor	a5,a5,a4
	sw	a5,0(s0)
	lw	a5,4(s0)
	xor	a5,a5,a4
	sw	a5,4(s0)
	.loc 1 74 24 is_stmt 1 discriminator 3
	.loc 1 74 17 discriminator 3
	.loc 1 74 5 is_stmt 0 discriminator 3
	addi	s0,s0,8
	bne	s0,s6,.L6
	.loc 1 79 5 is_stmt 1
	addi	a0,sp,92
	li	a1,2
	call	bl_sha_init
.LVL20:
	.loc 1 80 5
	mv	a1,sp
	li	a2,64
	addi	a0,sp,92
	call	bl_sha_update
.LVL21:
	.loc 1 81 5
	li	a2,20
	mv	a1,s0
	addi	a0,sp,92
	call	bl_sha_update
.LVL22:
	.loc 1 82 5
	mv	a1,s0
	addi	a0,sp,92
	call	bl_sha_finish
.LVL23:
	.loc 1 83 5
	mv	a2,s5
	mv	a1,s0
	mv	a0,s4
	call	memcpy
.LVL24:
	.loc 1 84 1 is_stmt 0
	lw	ra,284(sp)
	.cfi_remember_state
	.cfi_restore 1
	lw	s0,280(sp)
	.cfi_restore 8
	lw	s1,276(sp)
	.cfi_restore 9
.LVL25:
	lw	s2,272(sp)
	.cfi_restore 18
.LVL26:
	lw	s3,268(sp)
	.cfi_restore 19
	lw	s4,264(sp)
	.cfi_restore 20
.LVL27:
	lw	s5,260(sp)
	.cfi_restore 21
.LVL28:
	lw	s6,256(sp)
	.cfi_restore 22
.LVL29:
	lw	s7,252(sp)
	.cfi_restore 23
.LVL30:
	lw	s8,248(sp)
	.cfi_restore 24
.LVL31:
	lw	s9,244(sp)
	.cfi_restore 25
.LVL32:
	addi	sp,sp,288
	.cfi_def_cfa_offset 0
.LVL33:
	jr	ra
.LVL34:
.L5:
	.cfi_restore_state
	.loc 1 63 9 is_stmt 1 discriminator 3
	slli	a4,s3,2
	.loc 1 63 52 is_stmt 0 discriminator 3
	add	a5,s9,a4
	.loc 1 63 9 discriminator 3
	add	a4,s8,a4
	lw	a2,0(a5)
	lw	a1,0(a4)
	addi	a0,sp,92
	.loc 1 60 31 discriminator 3
	addi	s3,s3,1
.LVL35:
	.loc 1 63 9 discriminator 3
	call	bl_sha_update
.LVL36:
	.loc 1 60 30 is_stmt 1 discriminator 3
	j	.L4
	.cfi_endproc
.LFE4:
	.size	utils_hmac_sha1_fast, .-utils_hmac_sha1_fast
	.text
.Letext0:
	.file 2 "/mnt/d/GitHub/bl_iot_sdk_for_aithinker/toolchain/riscv/Linux/lib/gcc/riscv64-unknown-elf/10.2.0/include/stdint-gcc.h"
	.file 3 "/mnt/d/GitHub/bl_iot_sdk_for_aithinker/components/platform/hosal/bl602_hal/bl_sec.h"
	.file 4 "/mnt/d/GitHub/bl_iot_sdk_for_aithinker/toolchain/riscv/Linux/riscv64-unknown-elf/include/string.h"