	.file	"utils_hex.c"
	.option nopic
	.attribute arch, "rv32i2p0_m2p0_f2p0_c2p0"
	.attribute unaligned_access, 0
	.attribute stack_align, 16
	.text
.Ltext0:
	.cfi_sections	.debug_frame
	.section	.text.char2hex,"ax",@progbits
	.align	1
	.type	char2hex, @function
char2hex:
.LFB1:
	.file 1 "/mnt/d/GitHub/bl_iot_sdk_for_aithinker/components/utils/src/utils_hex.c"
	.loc 1 18 1
	.cfi_startproc
.LVL0:
	.loc 1 19 2
	.loc 1 19 15 is_stmt 0
	addi	a4,a0,-48
	andi	a4,a4,0xff
	.loc 1 19 5
	li	a3,9
	.loc 1 18 1
	mv	a5,a0
	.loc 1 19 5
	bgtu	a4,a3,.L2
	.loc 1 20 3 is_stmt 1
	.loc 1 20 6 is_stmt 0
	sb	a4,0(a1)
.LVL1:
.L6:
.LBB4:
.LBB5:
	.loc 1 29 9
	li	a0,0
.L1:
.LBE5:
.LBE4:
	.loc 1 30 1
	ret
.LVL2:
.L2:
	.loc 1 21 9 is_stmt 1
	.loc 1 21 22 is_stmt 0
	addi	a4,a0,-97
	.loc 1 21 12
	andi	a4,a4,0xff
	li	a3,5
	bgtu	a4,a3,.L4
	.loc 1 22 3 is_stmt 1
	.loc 1 22 16 is_stmt 0
	addi	a5,a0,-87
.LVL3:
.L7:
.LBB7:
.LBB6:
	.loc 1 24 6
	sb	a5,0(a1)
	j	.L6
.LVL4:
.L4:
	.loc 1 23 9 is_stmt 1
	.loc 1 23 22 is_stmt 0
	addi	a4,a0,-65
	.loc 1 23 12
	andi	a4,a4,0xff
	.loc 1 26 10
	li	a0,-1
.LVL5:
	.loc 1 23 12
	bgtu	a4,a3,.L1
	.loc 1 24 3 is_stmt 1
	.loc 1 24 16 is_stmt 0
	addi	a5,a5,-55
	j	.L7
.LBE6:
.LBE7:
	.cfi_endproc
.LFE1:
	.size	char2hex, .-char2hex
	.section	.text.utils_bin2hex,"ax",@progbits
	.align	1
	.globl	utils_bin2hex
	.type	utils_bin2hex, @function
utils_bin2hex:
.LFB2:
	.loc 1 33 1 is_stmt 1
	.cfi_startproc
.LVL6:
	.loc 1 34 5
	.loc 1 36 5
.LBB10:
.LBB11:
	.loc 1 12 27 is_stmt 0
	lui	a3,%hi(.LANCHOR0)
	add	a7,a1,a2
.LBE11:
.LBE10:
	.loc 1 36 11
	mv	a4,a0
.LBB14:
.LBB12:
	.loc 1 12 27
	addi	a3,a3,%lo(.LANCHOR0)
.LVL7:
.L9:
.LBE12:
.LBE14:
	.loc 1 36 11 is_stmt 1
	bne	a1,a7,.L10
	.loc 1 40 5
	.loc 1 40 12 is_stmt 0
	slli	a2,a2,1
.LVL8:
	.loc 1 41 1
	add	a0,a0,a2
	ret
.LVL9:
.L10:
	.loc 1 37 9 is_stmt 1
	.loc 1 37 15 is_stmt 0
	lbu	a5,0(a1)
	addi	a4,a4,2
.LVL10:
	.loc 1 37 39
	addi	a1,a1,1
.LVL11:
.LBB15:
.LBB13:
	.loc 1 12 5 is_stmt 1
	.loc 1 12 44 is_stmt 0
	srli	a6,a5,4
	.loc 1 12 27
	add	a6,a3,a6
	.loc 1 13 36
	andi	a5,a5,15
.LVL12:
	.loc 1 12 12
	lbu	a6,0(a6)
	.loc 1 13 27
	add	a5,a3,a5
	.loc 1 13 12
	lbu	a5,0(a5)
	.loc 1 12 12
	sb	a6,-2(a4)
.LVL13:
	.loc 1 13 5 is_stmt 1
	.loc 1 13 12 is_stmt 0
	sb	a5,-1(a4)
	.loc 1 14 5 is_stmt 1
.LVL14:
	j	.L9
.LBE13:
.LBE15:
	.cfi_endproc
.LFE2:
	.size	utils_bin2hex, .-utils_bin2hex
	.section	.text.utils_hex2bin,"ax",@progbits
	.align	1
	.globl	utils_hex2bin
	.type	utils_hex2bin, @function
utils_hex2bin:
.LFB3:
	.loc 1 44 1
	.cfi_startproc
.LVL15:
	.loc 1 45 2
	.loc 1 47 2
	.loc 1 44 1 is_stmt 0
	addi	sp,sp,-48
	.cfi_def_cfa_offset 48
	sw	s2,32(sp)
	.cfi_offset 18, -16
	.loc 1 47 22
	srli	s2,a1,1
	.loc 1 47 35
	andi	a1,a1,1
.LVL16:
	.loc 1 44 1
	sw	s3,28(sp)
	sw	ra,44(sp)
	sw	s0,40(sp)
	sw	s1,36(sp)
	.cfi_offset 19, -20
	.cfi_offset 1, -4
	.cfi_offset 8, -8
	.cfi_offset 9, -12
	.loc 1 47 26
	add	s3,s2,a1
	.loc 1 47 5
	bleu	s3,a3,.L12
.LVL17:
.L15:
	.loc 1 48 10
	li	s3,0
.L11:
	.loc 1 75 1
	lw	ra,44(sp)
	.cfi_remember_state
	.cfi_restore 1
	lw	s0,40(sp)
	.cfi_restore 8
	lw	s1,36(sp)
	.cfi_restore 9
	lw	s2,32(sp)
	.cfi_restore 18
	mv	a0,s3
	lw	s3,28(sp)
	.cfi_restore 19
	addi	sp,sp,48
	.cfi_def_cfa_offset 0
	jr	ra
.LVL18:
.L12:
	.cfi_restore_state
	mv	s1,a0
	mv	s0,a2
	.loc 1 52 2 is_stmt 1
	.loc 1 52 5 is_stmt 0
	beq	a1,zero,.L14
.LVL19:
	.loc 1 53 3 is_stmt 1
	.loc 1 53 7 is_stmt 0
	lbu	a0,0(a0)
	addi	a1,sp,15
	call	char2hex
.LVL20:
	.loc 1 53 6
	blt	a0,zero,.L15
	.loc 1 56 3 is_stmt 1
	.loc 1 56 10 is_stmt 0
	lbu	a5,15(sp)
	.loc 1 57 6
	addi	s1,s1,1
.LVL21:
	.loc 1 58 6
	addi	s0,s0,1
.LVL22:
	.loc 1 56 10
	sb	a5,-1(s0)
	.loc 1 57 3 is_stmt 1
.LVL23:
	.loc 1 58 3
.L14:
	.loc 1 62 2
.LBB16:
	.loc 1 62 7
	addi	s1,s1,1
.LVL24:
	add	s2,s0,s2
.LVL25:
.L16:
	.loc 1 62 21 discriminator 1
	.loc 1 62 2 is_stmt 0 discriminator 1
	beq	s0,s2,.L11
	.loc 1 63 3 is_stmt 1
	.loc 1 63 7 is_stmt 0
	lbu	a0,-1(s1)
	addi	a1,sp,15
	call	char2hex
.LVL26:
	.loc 1 63 6
	blt	a0,zero,.L15
	.loc 1 66 3 is_stmt 1
	.loc 1 66 16 is_stmt 0
	lbu	a5,15(sp)
	.loc 1 68 7
	addi	a1,sp,15
	.loc 1 68 6
	addi	s1,s1,2
	.loc 1 66 16
	slli	a5,a5,4
	.loc 1 66 10
	sb	a5,0(s0)
	.loc 1 68 3 is_stmt 1
	.loc 1 68 7 is_stmt 0
	lbu	a0,-2(s1)
	call	char2hex
.LVL27:
	.loc 1 68 6
	blt	a0,zero,.L15
	.loc 1 71 3 is_stmt 1 discriminator 2
	.loc 1 71 10 is_stmt 0 discriminator 2
	lbu	a5,0(s0)
	lbu	a4,15(sp)
	addi	s0,s0,1
	add	a5,a5,a4
	sb	a5,-1(s0)
	.loc 1 62 37 is_stmt 1 discriminator 2
	j	.L16
.LBE16:
	.cfi_endproc
.LFE3:
	.size	utils_hex2bin, .-utils_hex2bin
	.globl	hex_asc_upper
	.globl	hex_asc
	.section	.rodata.hex_asc,"a"
	.align	2
	.type	hex_asc, @object
	.size	hex_asc, 17
hex_asc:
	.string	"0123456789abcdef"
	.section	.rodata.hex_asc_upper,"a"
	.align	2
	.set	.LANCHOR0,. + 0
	.type	hex_asc_upper, @object
	.size	hex_asc_upper, 17
hex_asc_upper:
	.string	"0123456789ABCDEF"
	.text
.Letext0:
	.file 2 "/mnt/d/GitHub/bl_iot_sdk_for_aithinker/toolchain/riscv/Linux/lib/gcc/riscv64-unknown-elf/10.2.0/include/stdint-gcc.h"
	.file 3 "/mnt/d/GitHub/bl_iot_sdk_for_aithinker/toolchain/riscv/Linux/lib/gcc/riscv64-unknown-elf/10.2.0/include/stddef.h"