	.file	"local_event.c"
	.option nopic
	.attribute arch, "rv32i2p0_m2p0_f2p0_c2p0"
	.attribute unaligned_access, 0
	.attribute stack_align, 16
	.text
.Ltext0:
	.cfi_sections	.debug_frame
	.section	.text.event_read_cb,"ax",@progbits
	.align	1
	.type	event_read_cb, @function
event_read_cb:
.LFB16:
	.file 1 "/mnt/d/GitHub/bl_iot_sdk_for_aithinker/components/stage/yloop/src/local_event.c"
	.loc 1 76 1
	.cfi_startproc
.LVL0:
	.loc 1 77 5
	.loc 1 78 5
	.loc 1 76 1 is_stmt 0
	addi	sp,sp,-32
	.cfi_def_cfa_offset 32
	.loc 1 78 15
	li	a2,16
	mv	a1,sp
.LVL1:
	.loc 1 76 1
	sw	ra,28(sp)
	sw	s0,24(sp)
	sw	s1,20(sp)
	.cfi_offset 1, -4
	.cfi_offset 8, -8
	.cfi_offset 9, -12
	.loc 1 78 15
	call	aos_read
.LVL2:
	.loc 1 79 5 is_stmt 1
	.loc 1 79 8 is_stmt 0
	li	a5,16
	bne	a0,a5,.L1
	.loc 1 80 9 is_stmt 1
.LVL3:
.LBB11:
.LBB12:
	.loc 1 42 5
	.loc 1 42 8 is_stmt 0
	lhu	a4,4(sp)
	li	a5,256
	bne	a4,a5,.L4
.LBB13:
	.loc 1 43 9 is_stmt 1
.LVL4:
	.loc 1 44 9
	.loc 1 45 9
	lw	a0,12(sp)
.LVL5:
	lw	a5,8(sp)
	jalr	a5
.LVL6:
	.loc 1 47 9
.L1:
.LBE13:
.LBE12:
.LBE11:
	.loc 1 82 1 is_stmt 0
	lw	ra,28(sp)
	.cfi_remember_state
	.cfi_restore 1
	lw	s0,24(sp)
	.cfi_restore 8
	lw	s1,20(sp)
	.cfi_restore 9
	addi	sp,sp,32
	.cfi_def_cfa_offset 0
	jr	ra
.LVL7:
.L4:
	.cfi_restore_state
.LBB15:
.LBB14:
	.loc 1 50 5 is_stmt 1
	.loc 1 51 5
	.loc 1 51 21 is_stmt 0
	lui	a5,%hi(.LANCHOR0)
	addi	a4,a5,%lo(.LANCHOR0)
	lw	s0,4(a4)
.LVL8:
	addi	s1,a5,%lo(.LANCHOR0)
.LVL9:
.L5:
	.loc 1 51 135 is_stmt 1
	.loc 1 51 5 is_stmt 0
	beq	s0,s1,.L1
	.loc 1 52 9 is_stmt 1
	.loc 1 52 23 is_stmt 0
	lhu	a5,16(s0)
	.loc 1 52 12
	beq	a5,zero,.L6
	.loc 1 53 13
	lhu	a4,4(sp)
	bne	a4,a5,.L7
.L6:
	.loc 1 56 9 is_stmt 1
	.loc 1 56 20 is_stmt 0
	lw	a5,8(s0)
	lw	a1,12(s0)
	mv	a0,sp
	jalr	a5
.LVL10:
.L7:
	.loc 1 51 179 is_stmt 1
	.loc 1 51 190 is_stmt 0
	lw	s0,4(s0)
.LVL11:
	j	.L5
.LBE14:
.LBE15:
	.cfi_endproc
.LFE16:
	.size	event_read_cb, .-event_read_cb
	.section	.text._schedule_call,"ax",@progbits
	.align	1
	.type	_schedule_call, @function
_schedule_call:
.LFB22:
	.loc 1 167 1 is_stmt 1
	.cfi_startproc
.LVL12:
	.loc 1 169 5
	.loc 1 169 8 is_stmt 0
	beq	a1,zero,.L19
	.loc 1 169 34 discriminator 1
	lui	a5,%hi(g_main_ctx)
	.loc 1 169 20 discriminator 1
	lw	a4,%lo(g_main_ctx)(a5)
	.loc 1 170 16 discriminator 1
	li	a5,-22
	.loc 1 169 20 discriminator 1
	beq	a4,zero,.L26
	.loc 1 167 1
	addi	sp,sp,-32
	.cfi_def_cfa_offset 32
	.loc 1 173 19
	sw	zero,4(sp)
	li	a5,256
	.loc 1 167 1
	sw	s0,24(sp)
	sw	ra,28(sp)
	.cfi_offset 8, -8
	.cfi_offset 1, -4
	mv	s0,a3
	.loc 1 173 5 is_stmt 1
	.loc 1 173 19 is_stmt 0
	sw	zero,0(sp)
	sh	a5,4(sp)
	sw	a1,8(sp)
	sw	a2,12(sp)
	.loc 1 178 5 is_stmt 1
	.loc 1 178 14 is_stmt 0
	call	aos_loop_get_eventfd
.LVL13:
	.loc 1 179 5 is_stmt 1
	.loc 1 179 8 is_stmt 0
	bge	a0,zero,.L16
	.loc 1 180 9 is_stmt 1
	.loc 1 180 12 is_stmt 0
	lui	a5,%hi(.LANCHOR1+4)
	lw	a0,%lo(.LANCHOR1+4)(a5)
.LVL14:
.L16:
	.loc 1 183 5 is_stmt 1
	.loc 1 183 8 is_stmt 0
	beq	s0,zero,.L17
	.loc 1 184 9 is_stmt 1
	.loc 1 184 20 is_stmt 0
	lhu	a5,4(sp)
	li	a4,-32768
	or	a5,a5,a4
	sh	a5,4(sp)
.L17:
	.loc 1 186 5 is_stmt 1
.LVL15:
.LBB18:
.LBB19:
	.loc 1 62 4
	.loc 1 62 23 is_stmt 0
	lhu	a1,4(sp)
.LVL16:
	.loc 1 63 5 is_stmt 1
	.loc 1 72 12 is_stmt 0
	mv	a2,sp
	.loc 1 63 17
	slli	a5,a1,17
	.loc 1 69 13
	srli	a1,a1,15
.LVL17:
	.loc 1 63 17
	srli	a5,a5,17
	.loc 1 72 12
	addi	a1,a1,257
	.loc 1 63 17
	sh	a5,4(sp)
.LVL18:
	.loc 1 64 5 is_stmt 1
	.loc 1 66 5
	.loc 1 72 5
	.loc 1 72 12 is_stmt 0
	call	aos_ioctl
.LVL19:
.LBE19:
.LBE18:
	.loc 1 187 1
	lw	ra,28(sp)
	.cfi_restore 1
	lw	s0,24(sp)
	.cfi_restore 8
	addi	sp,sp,32
	.cfi_def_cfa_offset 0
	jr	ra
.LVL20:
.L19:
	.loc 1 170 16
	li	a5,-22
.L26:
	.loc 1 187 1
	mv	a0,a5
.LVL21:
	ret
	.cfi_endproc
.LFE22:
	.size	_schedule_call, .-_schedule_call
	.section	.rodata.aos_event_service_init.str1.4,"aMS",@progbits,1
	.align	2
.LC0:
	.string	"/dev/event"
	.section	.text.aos_event_service_init,"ax",@progbits
	.align	1
	.globl	aos_event_service_init
	.type	aos_event_service_init, @function
aos_event_service_init:
.LFB17:
	.loc 1 85 1 is_stmt 1
	.cfi_startproc
	.loc 1 89 5
	.loc 1 89 14 is_stmt 0
	lui	a0,%hi(.LC0)
	.loc 1 85 1
	addi	sp,sp,-16
	.cfi_def_cfa_offset 16
	.loc 1 89 14
	li	a1,0
	addi	a0,a0,%lo(.LC0)
	.loc 1 85 1
	sw	s0,8(sp)
	sw	ra,12(sp)
	.cfi_offset 8, -8
	.cfi_offset 1, -4
	.loc 1 89 14
	call	aos_open
.LVL22:
	.loc 1 92 20
	lui	a5,%hi(.LANCHOR1)
	addi	a5,a5,%lo(.LANCHOR1)
	.loc 1 92 8
	lw	a4,4(a5)
	.loc 1 89 14
	mv	s0,a0
.LVL23:
	.loc 1 92 5 is_stmt 1
	.loc 1 92 8 is_stmt 0
	bge	a4,zero,.L30
	.loc 1 93 9 is_stmt 1
	.loc 1 93 24 is_stmt 0
	sw	a0,4(a5)
.L30:
	.loc 1 95 5 is_stmt 1
	lui	a1,%hi(event_read_cb)
	li	a2,0
	addi	a1,a1,%lo(event_read_cb)
	mv	a0,s0
	call	aos_poll_read_fd
.LVL24:
	.loc 1 96 5
	mv	a0,s0
	call	aos_loop_set_eventfd
.LVL25:
	.loc 1 98 5
	.loc 1 99 1 is_stmt 0
	lw	ra,12(sp)
	.cfi_restore 1
	lw	s0,8(sp)
	.cfi_restore 8
.LVL26:
	li	a0,0
	addi	sp,sp,16
	.cfi_def_cfa_offset 0
	jr	ra
	.cfi_endproc
.LFE17:
	.size	aos_event_service_init, .-aos_event_service_init
	.section	.text.aos_event_service_deinit,"ax",@progbits
	.align	1
	.globl	aos_event_service_deinit
	.type	aos_event_service_deinit, @function
aos_event_service_deinit:
.LFB18:
	.loc 1 102 1 is_stmt 1
	.cfi_startproc
.LVL27:
	.loc 1 103 5
	lui	a1,%hi(event_read_cb)
	.loc 1 102 1 is_stmt 0
	addi	sp,sp,-16
	.cfi_def_cfa_offset 16
	.loc 1 103 5
	li	a2,0
	addi	a1,a1,%lo(event_read_cb)
	.loc 1 102 1
	sw	s0,8(sp)
	sw	ra,12(sp)
	.cfi_offset 8, -8
	.cfi_offset 1, -4
	.loc 1 102 1
	mv	s0,a0
	.loc 1 103 5
	call	aos_cancel_poll_read_fd
.LVL28:
	.loc 1 104 5 is_stmt 1
	mv	a0,s0
	.loc 1 105 1 is_stmt 0
	lw	s0,8(sp)
	.cfi_restore 8
.LVL29:
	lw	ra,12(sp)
	.cfi_restore 1
	addi	sp,sp,16
	.cfi_def_cfa_offset 0
	.loc 1 104 5
	tail	aos_close
.LVL30:
	.cfi_endproc
.LFE18:
	.size	aos_event_service_deinit, .-aos_event_service_deinit
	.section	.text.aos_post_event,"ax",@progbits
	.align	1
	.globl	aos_post_event
	.type	aos_post_event, @function
aos_post_event:
.LFB19:
	.loc 1 108 1 is_stmt 1
	.cfi_startproc
.LVL31:
	.loc 1 109 5
.LBB22:
.LBB23:
	.loc 1 63 17 is_stmt 0
	slli	a5,a0,17
.LBE23:
.LBE22:
	.loc 1 108 1
	addi	sp,sp,-32
	.cfi_def_cfa_offset 32
.LBB28:
.LBB24:
	.loc 1 63 17
	srli	a5,a5,17
	sh	a5,4(sp)
	.loc 1 69 13
	srli	a0,a0,15
.LVL32:
	.loc 1 72 12
	lui	a5,%hi(.LANCHOR1+4)
.LBE24:
.LBE28:
	.loc 1 109 19
	sh	a1,6(sp)
.LBB29:
.LBB25:
	.loc 1 72 12
	addi	a1,a0,257
.LVL33:
	lw	a0,%lo(.LANCHOR1+4)(a5)
.LBE25:
.LBE29:
	.loc 1 109 19
	sw	a2,8(sp)
	.loc 1 115 5 is_stmt 1
.LVL34:
.LBB30:
.LBB26:
	.loc 1 62 4
	.loc 1 63 5
	.loc 1 64 5
	.loc 1 66 5
	.loc 1 72 5
	.loc 1 72 12 is_stmt 0
	mv	a2,sp
.LVL35:
.LBE26:
.LBE30:
	.loc 1 108 1
	sw	ra,28(sp)
	.cfi_offset 1, -4
	.loc 1 109 19
	sw	zero,0(sp)
	sw	zero,12(sp)
.LBB31:
.LBB27:
	.loc 1 72 12
	call	aos_ioctl
.LVL36:
.LBE27:
.LBE31:
	.loc 1 116 1
	lw	ra,28(sp)
	.cfi_restore 1
	addi	sp,sp,32
	.cfi_def_cfa_offset 0
	jr	ra
	.cfi_endproc
.LFE19:
	.size	aos_post_event, .-aos_post_event
	.section	.text.aos_register_event_filter,"ax",@progbits
	.align	1
	.globl	aos_register_event_filter
	.type	aos_register_event_filter, @function
aos_register_event_filter:
.LFB20:
	.loc 1 119 1 is_stmt 1
	.cfi_startproc
.LVL37:
	.loc 1 120 5
	.loc 1 120 8 is_stmt 0
	beq	a1,zero,.L40
	.loc 1 119 1
	addi	sp,sp,-16
	.cfi_def_cfa_offset 16
	sw	s2,0(sp)
	.cfi_offset 18, -16
	mv	s2,a0
	.loc 1 124 37
	li	a0,20
.LVL38:
	.loc 1 119 1
	sw	s0,8(sp)
	sw	s1,4(sp)
	sw	ra,12(sp)
	.cfi_offset 8, -8
	.cfi_offset 9, -12
	.cfi_offset 1, -4
	mv	s0,a1
	mv	s1,a2
	.loc 1 124 5 is_stmt 1
	.loc 1 124 37 is_stmt 0
	call	aos_malloc
.LVL39:
	mv	a5,a0
.LVL40:
	.loc 1 125 5 is_stmt 1
	.loc 1 126 16 is_stmt 0
	li	a0,-12
.LVL41:
	.loc 1 125 8
	beq	a5,zero,.L38
	.loc 1 129 5 is_stmt 1
.LBB32:
.LBB33:
	.file 2 "/mnt/d/GitHub/bl_iot_sdk_for_aithinker/components/stage/yloop/include/aos/list.h"
	.loc 2 63 28 is_stmt 0
	lui	a4,%hi(.LANCHOR0)
	addi	a4,a4,%lo(.LANCHOR0)
	lw	a3,0(a4)
.LBE33:
.LBE32:
	.loc 1 129 20
	sw	s0,8(a5)
	.loc 1 130 5 is_stmt 1
	.loc 1 130 29 is_stmt 0
	sh	s2,16(a5)
	.loc 1 131 5 is_stmt 1
.LBB40:
.LBB38:
.LBB34:
.LBB35:
	.loc 2 39 16 is_stmt 0
	sw	a3,0(a5)
.LBE35:
.LBE34:
.LBE38:
.LBE40:
	.loc 1 131 22
	sw	s1,12(a5)
	.loc 1 133 5 is_stmt 1
.LVL42:
.LBB41:
.LBB39:
	.loc 2 63 5
.LBB37:
.LBB36:
	.loc 2 38 5
	.loc 2 38 16 is_stmt 0
	sw	a4,4(a5)
	.loc 2 39 5 is_stmt 1
	.loc 2 41 5
	.loc 2 41 16 is_stmt 0
	sw	a5,4(a3)
	.loc 2 42 5 is_stmt 1
	.loc 2 42 16 is_stmt 0
	sw	a5,0(a4)
.LVL43:
.LBE36:
.LBE37:
.LBE39:
.LBE41:
	.loc 1 135 5 is_stmt 1
	.loc 1 135 12 is_stmt 0
	li	a0,0
.L38:
	.loc 1 136 1
	lw	ra,12(sp)
	.cfi_restore 1
	lw	s0,8(sp)
	.cfi_restore 8
.LVL44:
	lw	s1,4(sp)
	.cfi_restore 9
.LVL45:
	lw	s2,0(sp)
	.cfi_restore 18
	addi	sp,sp,16
	.cfi_def_cfa_offset 0
	jr	ra
.LVL46:
.L40:
	.loc 1 121 16
	li	a0,-22
.LVL47:
	.loc 1 136 1
	ret
	.cfi_endproc
.LFE20:
	.size	aos_register_event_filter, .-aos_register_event_filter
	.section	.text.aos_unregister_event_filter,"ax",@progbits
	.align	1
	.globl	aos_unregister_event_filter
	.type	aos_unregister_event_filter, @function
aos_unregister_event_filter:
.LFB21:
	.loc 1 139 1 is_stmt 1
	.cfi_startproc
.LVL48:
	.loc 1 140 5
	.loc 1 141 5
	.loc 1 141 21 is_stmt 0
	lui	a5,%hi(.LANCHOR0)
	addi	a3,a5,%lo(.LANCHOR0)
	.loc 1 139 1
	mv	a4,a0
	.loc 1 141 21
	lw	a0,4(a3)
.LVL49:
	addi	a5,a5,%lo(.LANCHOR0)
.L47:
	.loc 1 141 135 is_stmt 1 discriminator 1
	.loc 1 141 5 is_stmt 0 discriminator 1
	bne	a0,a5,.L50
	.loc 1 159 12
	li	a0,-22
.LVL50:
	.loc 1 160 1
	ret
.LVL51:
.L50:
	.loc 1 142 9 is_stmt 1
	.loc 1 142 12 is_stmt 0
	lhu	a3,16(a0)
	bne	a3,a4,.L48
	.loc 1 146 9 is_stmt 1
	.loc 1 146 12 is_stmt 0
	lw	a3,8(a0)
	bne	a3,a1,.L48
	.loc 1 150 9 is_stmt 1
	.loc 1 150 12 is_stmt 0
	lw	a3,12(a0)
	bne	a3,a2,.L48
	.loc 1 154 9 is_stmt 1
.LVL52:
.LBB44:
.LBB45:
	.loc 2 68 5
.LBE45:
.LBE44:
	.loc 1 139 1 is_stmt 0
	addi	sp,sp,-16
	.cfi_def_cfa_offset 16
	sw	ra,12(sp)
	.cfi_offset 1, -4
.LBB47:
.LBB46:
	.loc 2 68 14
	lw	a4,0(a0)
.LVL53:
	.loc 2 69 5 is_stmt 1
	.loc 2 69 14 is_stmt 0
	lw	a5,4(a0)
.LVL54:
	.loc 2 71 5 is_stmt 1
	.loc 2 71 16 is_stmt 0
	sw	a5,4(a4)
	.loc 2 72 5 is_stmt 1
	.loc 2 72 16 is_stmt 0
	sw	a4,0(a5)
.LVL55:
.LBE46:
.LBE47:
	.loc 1 155 9 is_stmt 1
	call	aos_free
.LVL56:
	.loc 1 156 9
	.loc 1 160 1 is_stmt 0
	lw	ra,12(sp)
	.cfi_restore 1
	.loc 1 156 16
	li	a0,0
	.loc 1 160 1
	addi	sp,sp,16
	.cfi_def_cfa_offset 0
	jr	ra
.LVL57:
.L48:
	.loc 1 141 179 is_stmt 1 discriminator 2
	.loc 1 141 190 is_stmt 0 discriminator 2
	lw	a0,4(a0)
.LVL58:
	j	.L47
	.cfi_endproc
.LFE21:
	.size	aos_unregister_event_filter, .-aos_unregister_event_filter
	.section	.text.aos_loop_schedule_urgent_call,"ax",@progbits
	.align	1
	.globl	aos_loop_schedule_urgent_call
	.type	aos_loop_schedule_urgent_call, @function
aos_loop_schedule_urgent_call:
.LFB23:
	.loc 1 190 1 is_stmt 1
	.cfi_startproc
.LVL59:
	.loc 1 191 5
	.loc 1 191 12 is_stmt 0
	li	a3,1
	tail	_schedule_call
.LVL60:
	.cfi_endproc
.LFE23:
	.size	aos_loop_schedule_urgent_call, .-aos_loop_schedule_urgent_call
	.section	.text.aos_loop_schedule_call,"ax",@progbits
	.align	1
	.globl	aos_loop_schedule_call
	.type	aos_loop_schedule_call, @function
aos_loop_schedule_call:
.LFB24:
	.loc 1 195 1 is_stmt 1
	.cfi_startproc
.LVL61:
	.loc 1 196 5
	.loc 1 196 12 is_stmt 0
	li	a3,0
	tail	_schedule_call
.LVL62:
	.cfi_endproc
.LFE24:
	.size	aos_loop_schedule_call, .-aos_loop_schedule_call
	.section	.text.aos_schedule_call,"ax",@progbits
	.align	1
	.globl	aos_schedule_call
	.type	aos_schedule_call, @function
aos_schedule_call:
.LFB25:
	.loc 1 200 1 is_stmt 1
	.cfi_startproc
.LVL63:
	.loc 1 201 5
	.loc 1 200 1 is_stmt 0
	mv	a2,a1
	.loc 1 201 12
	li	a3,0
	mv	a1,a0
.LVL64:
	li	a0,0
.LVL65:
	tail	_schedule_call
.LVL66:
	.cfi_endproc
.LFE25:
	.size	aos_schedule_call, .-aos_schedule_call
	.section	.sdata.g_local_event_list,"aw"
	.align	2
	.set	.LANCHOR0,. + 0
	.type	g_local_event_list, @object
	.size	g_local_event_list, 8
g_local_event_list:
	.word	g_local_event_list
	.word	g_local_event_list
	.section	.sdata.local_event,"aw"
	.align	2
	.set	.LANCHOR1,. + 0
	.type	local_event, @object
	.size	local_event, 8
local_event:
	.zero	4
	.word	-1
	.text
.Letext0:
	.file 3 "/mnt/d/GitHub/bl_iot_sdk_for_aithinker/toolchain/riscv/Linux/lib/gcc/riscv64-unknown-elf/10.2.0/include/stddef.h"
	.file 4 "/mnt/d/GitHub/bl_iot_sdk_for_aithinker/toolchain/riscv/Linux/riscv64-unknown-elf/include/machine/_default_types.h"
	.file 5 "/mnt/d/GitHub/bl_iot_sdk_for_aithinker/toolchain/riscv/Linux/riscv64-unknown-elf/include/sys/_stdint.h"
	.file 6 "/mnt/d/GitHub/bl_iot_sdk_for_aithinker/components/stage/yloop/include/aos/yloop.h"
	.file 7 "/mnt/d/GitHub/bl_iot_sdk_for_aithinker/components/stage/yloop/include/yloop_types.h"
	.file 8 "/mnt/d/GitHub/bl_iot_sdk_for_aithinker/components/stage/yloop/include/yloop.h"
	.file 9 "/mnt/d/GitHub/bl_iot_sdk_for_aithinker/components/fs/vfs/include/vfs.h"
	.file 10 "/mnt/d/GitHub/bl_iot_sdk_for_aithinker/components/stage/yloop/include/aos/kernel.h"