	.file	"select.c"
	.option nopic
	.attribute arch, "rv32i2p0_m2p0_f2p0_c2p0"
	.attribute unaligned_access, 0
	.attribute stack_align, 16
	.text
.Ltext0:
	.cfi_sections	.debug_frame
	.section	.text.vfs_poll_notify,"ax",@progbits
	.align	1
	.type	vfs_poll_notify, @function
vfs_poll_notify:
.LFB6:
	.file 1 "/mnt/d/GitHub/bl_iot_sdk_for_aithinker/components/stage/yloop/src/select.c"
	.loc 1 44 1
	.cfi_startproc
.LVL0:
	.loc 1 45 5
	.loc 1 46 5
	mv	a0,a1
.LVL1:
	tail	aos_sem_signal
.LVL2:
	.cfi_endproc
.LFE6:
	.size	vfs_poll_notify, .-vfs_poll_notify
	.section	.text.aos_poll,"ax",@progbits
	.align	1
	.globl	aos_poll
	.type	aos_poll, @function
aos_poll:
.LFB12:
	.loc 1 134 1
	.cfi_startproc
.LVL3:
	.loc 1 135 5
	.loc 1 137 5
	.loc 1 138 5
	.loc 1 139 5
	.loc 1 141 5
	.loc 1 134 1 is_stmt 0
	addi	sp,sp,-64
	.cfi_def_cfa_offset 64
.LVL4:
.LBB34:
.LBB35:
	.loc 1 58 5 is_stmt 1
.LBE35:
.LBE34:
	.loc 1 134 1 is_stmt 0
	sw	s0,56(sp)
	sw	s3,44(sp)
	.cfi_offset 8, -8
	.cfi_offset 19, -20
	mv	s0,a0
	mv	s3,a1
.LBB38:
.LBB36:
	.loc 1 58 5
	addi	a0,sp,4
.LVL5:
	li	a1,0
.LVL6:
.LBE36:
.LBE38:
	.loc 1 134 1
	sw	s1,52(sp)
	sw	s2,48(sp)
	sw	ra,60(sp)
	sw	s4,40(sp)
	sw	s5,36(sp)
	sw	s6,32(sp)
	sw	s7,28(sp)
	sw	s8,24(sp)
	.cfi_offset 9, -12
	.cfi_offset 18, -16
	.cfi_offset 1, -4
	.cfi_offset 20, -24
	.cfi_offset 21, -28
	.cfi_offset 22, -32
	.cfi_offset 23, -36
	.cfi_offset 24, -40
	.loc 1 134 1
	mv	s1,a2
	addi	s2,s0,6
.LBB39:
.LBB37:
	.loc 1 58 5
	call	aos_sem_new
.LVL7:
	.loc 1 59 5 is_stmt 1
.LBE37:
.LBE39:
	.loc 1 145 4
.LBB40:
	.loc 1 145 9
	.loc 1 145 21
	.loc 1 145 34
	.loc 1 145 7
	.loc 1 145 94
	.loc 1 145 100
	.loc 1 145 109
	.loc 1 145 130 is_stmt 0
	mv	a4,s2
	sw	zero,12(sp)
	.loc 1 145 100 is_stmt 1
	.loc 1 145 109
.LVL8:
	.loc 1 145 130 is_stmt 0
	sw	zero,8(sp)
	.loc 1 145 100 is_stmt 1
.LBE40:
.LBB41:
.LBB42:
	.loc 1 72 12 is_stmt 0
	li	a5,0
.L3:
.LVL9:
	.loc 1 72 17 is_stmt 1
	.loc 1 72 5 is_stmt 0
	bgt	s3,a5,.L4
	mv	s7,s0
	.loc 1 78 12
	li	s8,0
.LBB43:
	.loc 1 82 12
	li	s4,1
	.loc 1 96 28
	lui	s6,%hi(vfs_poll_notify)
	.loc 1 84 13
	li	s5,32
.LVL10:
.L5:
.LBE43:
	.loc 1 78 17 is_stmt 1
	.loc 1 78 5 is_stmt 0
	bgt	s3,s8,.L9
.LVL11:
.LBE42:
.LBE41:
	.loc 1 148 5 is_stmt 1
	.loc 1 152 5
.LBB52:
.LBB53:
	.loc 1 51 5
	.loc 1 52 5
	.loc 1 51 13 is_stmt 0
	mv	a1,s1
	bge	s1,zero,.L17
	li	a1,-1
.L17:
	.loc 1 52 5
	addi	a0,sp,4
.LVL12:
	call	aos_sem_wait
.LVL13:
	.loc 1 53 5 is_stmt 1
.LBE53:
.LBE52:
	.loc 1 154 5
.LBB54:
	.loc 1 155 9
	.loc 1 157 9
	.loc 1 157 16 is_stmt 0
	li	a2,0
.LBB55:
	.loc 1 160 17
	li	a1,32
.LBE55:
	.loc 1 157 9
	j	.L18
.LVL14:
.L4:
.LBE54:
.LBB57:
.LBB49:
.LBB44:
	.loc 1 73 9 is_stmt 1
	.loc 1 75 9
	.loc 1 75 22 is_stmt 0
	sh	zero,0(a4)
.LBE44:
	.loc 1 72 27 is_stmt 1
	.loc 1 72 28 is_stmt 0
	addi	a5,a5,1
.LVL15:
	addi	a4,a4,8
.LVL16:
	j	.L3
.LVL17:
.L9:
.LBB45:
	.loc 1 79 9 is_stmt 1
	.loc 1 80 9
	.loc 1 82 9
	.loc 1 82 16 is_stmt 0
	lw	a0,0(s7)
	.loc 1 82 12
	bgt	a0,s4,.L6
	.loc 1 83 13 is_stmt 1
.LVL18:
.LBE45:
.LBE49:
.LBE57:
	.loc 1 37 1
.LBB58:
.LBB50:
.LBB46:
	.loc 1 84 12
	.loc 1 84 13 is_stmt 0
	div	a5,a0,s5
	.loc 1 84 44
	addi	a4,sp,16
	.loc 1 84 14
	rem	a0,a0,s5
	.loc 1 84 44
	slli	a5,a5,2
	add	a5,a4,a5
	lw	a4,-8(a5)
	.loc 1 84 61
	sll	a0,s4,a0
	.loc 1 84 44
	or	a0,a0,a4
	sw	a0,-8(a5)
	.loc 1 85 13 is_stmt 1
	.loc 1 86 13
.L7:
.LBE46:
	.loc 1 78 27
	.loc 1 78 28 is_stmt 0
	addi	s8,s8,1
.LVL19:
	addi	s7,s7,8
.LVL20:
	j	.L5
.LVL21:
.L6:
.LBB47:
	.loc 1 89 9 is_stmt 1
	.loc 1 89 13 is_stmt 0
	call	get_file
.LVL22:
	.loc 1 91 9 is_stmt 1
	.loc 1 91 12 is_stmt 0
	beq	a0,zero,.L19
	.loc 1 95 9 is_stmt 1
	.loc 1 96 9
	.loc 1 96 22 is_stmt 0
	lw	a5,0(a0)
	.loc 1 96 28
	addi	a4,sp,4
	mv	a3,s7
	lw	a5,0(a5)
	addi	a2,s6,%lo(vfs_poll_notify)
	li	a1,1
	lw	a5,20(a5)
	jalr	a5
.LVL23:
	j	.L7
.LVL24:
.L12:
.LBE47:
.LBE50:
.LBE58:
.LBB59:
.LBB56:
	.loc 1 158 13 is_stmt 1
	.loc 1 160 13
	.loc 1 160 19 is_stmt 0
	lw	a5,-6(s2)
	.loc 1 160 29
	addi	a3,sp,16
	.loc 1 160 17
	div	a4,a5,a1
	.loc 1 160 29
	slli	a4,a4,2
	add	a4,a3,a4
	.loc 1 160 18
	rem	a3,a5,a1
	.loc 1 160 52
	lw	a5,-8(a4)
	srl	a5,a5,a3
	andi	a5,a5,1
	.loc 1 160 16
	beq	a5,zero,.L11
	.loc 1 161 17 is_stmt 1
	.loc 1 161 30 is_stmt 0
	lhu	a5,0(s2)
	ori	a5,a5,1
	sh	a5,0(s2)
.L11:
.LBE56:
	.loc 1 157 31 is_stmt 1 discriminator 2
	.loc 1 157 32 is_stmt 0 discriminator 2
	addi	a2,a2,1
.LVL25:
	addi	s2,s2,8
.LVL26:
.L18:
	.loc 1 157 21 is_stmt 1 discriminator 1
	.loc 1 157 9 is_stmt 0 discriminator 1
	blt	a2,s3,.L12
.LBE59:
	.loc 1 152 11
	li	s4,0
.LVL27:
.L8:
	.loc 1 169 5 is_stmt 1
.LBB60:
.LBB61:
	.loc 1 104 5
	.loc 1 105 5
	.loc 1 107 5
	.loc 1 105 9 is_stmt 0
	li	s1,0
.LVL28:
	.loc 1 107 12
	li	s2,0
.LBB62:
	.loc 1 111 12
	li	s5,1
.LVL29:
.L13:
.LBE62:
	.loc 1 107 17 is_stmt 1
	.loc 1 107 5 is_stmt 0
	bgt	s3,s2,.L15
	.loc 1 130 5 is_stmt 1
.LVL30:
.LBE61:
.LBE60:
	.loc 1 171 5
.LBB65:
.LBB66:
	.loc 1 64 5
	addi	a0,sp,4
.LVL31:
	call	aos_sem_free
.LVL32:
.LBE66:
.LBE65:
	.loc 1 173 5
	.loc 1 173 24 is_stmt 0
	beq	s4,zero,.L2
	li	s1,0
.LVL33:
.L2:
	.loc 1 174 1
	lw	ra,60(sp)
	.cfi_remember_state
	.cfi_restore 1
	lw	s0,56(sp)
	.cfi_restore 8
	lw	s2,48(sp)
	.cfi_restore 18
	lw	s3,44(sp)
	.cfi_restore 19
.LVL34:
	lw	s4,40(sp)
	.cfi_restore 20
.LVL35:
	lw	s5,36(sp)
	.cfi_restore 21
	lw	s6,32(sp)
	.cfi_restore 22
	lw	s7,28(sp)
	.cfi_restore 23
	lw	s8,24(sp)
	.cfi_restore 24
	mv	a0,s1
	lw	s1,52(sp)
	.cfi_restore 9
	addi	sp,sp,64
	.cfi_def_cfa_offset 0
.LVL36:
	jr	ra
.LVL37:
.L19:
	.cfi_restore_state
.LBB67:
.LBB51:
.LBB48:
	li	s4,-1
	j	.L8
.LVL38:
.L15:
.LBE48:
.LBE51:
.LBE67:
.LBB68:
.LBB64:
.LBB63:
	.loc 1 108 9 is_stmt 1
	.loc 1 109 9
	.loc 1 111 9
	.loc 1 111 16 is_stmt 0
	lw	a0,0(s0)
	.loc 1 111 12
	ble	a0,s5,.L14
	.loc 1 117 9 is_stmt 1
	.loc 1 117 13 is_stmt 0
	call	get_file
.LVL39:
	.loc 1 119 9 is_stmt 1
	.loc 1 119 12 is_stmt 0
	beq	a0,zero,.L14
	.loc 1 123 9 is_stmt 1
	.loc 1 123 22 is_stmt 0
	lw	a5,0(a0)
	.loc 1 123 28
	li	a4,0
	li	a3,0
	lw	a5,0(a5)
	li	a2,0
	li	a1,0
	lw	a5,20(a5)
	jalr	a5
.LVL40:
	.loc 1 125 9 is_stmt 1
	.loc 1 125 12 is_stmt 0
	lh	a5,6(s0)
	beq	a5,zero,.L14
	.loc 1 126 13 is_stmt 1
	.loc 1 126 17 is_stmt 0
	addi	s1,s1,1
.LVL41:
.L14:
.LBE63:
	.loc 1 107 27 is_stmt 1
	.loc 1 107 28 is_stmt 0
	addi	s2,s2,1
.LVL42:
	addi	s0,s0,8
.LVL43:
	j	.L13
.LBE64:
.LBE68:
	.cfi_endproc
.LFE12:
	.size	aos_poll, .-aos_poll
	.section	.text.aos_fcntl,"ax",@progbits
	.align	1
	.globl	aos_fcntl
	.type	aos_fcntl, @function
aos_fcntl:
.LFB13:
	.loc 1 178 1 is_stmt 1
	.cfi_startproc
.LVL44:
	.loc 1 179 5
	.loc 1 178 1 is_stmt 0
	mv	a5,a0
	.loc 1 179 8
	blt	a0,zero,.L36
	.loc 1 183 5 is_stmt 1
	.loc 1 183 8 is_stmt 0
	li	a4,1
	.loc 1 191 12
	li	a0,0
.LVL45:
	.loc 1 183 8
	bgt	a5,a4,.L34
	.loc 1 187 16
	li	a0,-2
	ret
.LVL46:
.L36:
	.loc 1 180 16
	li	a0,-22
.LVL47:
.L34:
	.loc 1 192 1
	ret
	.cfi_endproc
.LFE13:
	.size	aos_fcntl, .-aos_fcntl
	.section	.text.aos_ioctl_in_loop,"ax",@progbits
	.align	1
	.globl	aos_ioctl_in_loop
	.type	aos_ioctl_in_loop, @function
aos_ioctl_in_loop:
.LFB14:
	.loc 1 195 1 is_stmt 1
	.cfi_startproc
.LVL48:
	.loc 1 196 5
	.loc 1 197 5
	.loc 1 198 5
	.loc 1 199 5
	.loc 1 201 5
	.loc 1 195 1 is_stmt 0
	addi	sp,sp,-272
	.cfi_def_cfa_offset 272
	sw	s4,248(sp)
	.cfi_offset 20, -24
	.loc 1 201 34
	lui	s4,%hi(g_vfs_mutex)
	.loc 1 195 1
	sw	s2,256(sp)
	.cfi_offset 18, -16
	mv	s2,a0
	.loc 1 201 34
	lw	a0,%lo(g_vfs_mutex)(s4)
.LVL49:
	.loc 1 195 1
	sw	s3,252(sp)
	.cfi_offset 19, -20
	mv	s3,a1
	.loc 1 201 34
	li	a1,-1
.LVL50:
	.loc 1 195 1
	sw	ra,268(sp)
	sw	s0,264(sp)
	sw	s1,260(sp)
	.cfi_offset 1, -4
	.cfi_offset 8, -8
	.cfi_offset 9, -12
	.loc 1 201 34
	call	xQueueSemaphoreTake
.LVL51:
	.loc 1 201 8
	li	a5,1
	bne	a0,a5,.L39
	.loc 1 206 16
	li	a1,60
	mv	s0,a0
	.loc 1 206 5 is_stmt 1
	.loc 1 206 16 is_stmt 0
	mv	a0,sp
	call	get_all_file
.LVL52:
	mv	s1,a0
.LVL53:
	.loc 1 208 5 is_stmt 1
	.loc 1 209 9 is_stmt 0
	li	a3,0
	lw	a0,%lo(g_vfs_mutex)(s4)
	li	a2,0
	li	a1,0
	.loc 1 208 8
	bne	s1,zero,.L40
	.loc 1 209 9 is_stmt 1
	call	xQueueGenericSend
.LVL54:
	.loc 1 210 9
	.loc 1 210 16 is_stmt 0
	li	a0,-2
.LVL55:
.L38:
	.loc 1 231 1
	lw	ra,268(sp)
	.cfi_remember_state
	.cfi_restore 1
	lw	s0,264(sp)
	.cfi_restore 8
	lw	s1,260(sp)
	.cfi_restore 9
	lw	s2,256(sp)
	.cfi_restore 18
.LVL56:
	lw	s3,252(sp)
	.cfi_restore 19
.LVL57:
	lw	s4,248(sp)
	.cfi_restore 20
	addi	sp,sp,272
	.cfi_def_cfa_offset 0
	jr	ra
.LVL58:
.L40:
	.cfi_restore_state
	.loc 1 213 5 is_stmt 1
	.loc 1 213 34 is_stmt 0
	call	xQueueGenericSend
.LVL59:
	.loc 1 213 8
	bne	a0,s0,.L39
	mv	s0,sp
	.loc 1 218 12
	li	s4,0
.LVL60:
.L43:
	.loc 1 219 9 is_stmt 1
	.loc 1 219 17 is_stmt 0
	lw	a0,0(s0)
.LVL61:
	.loc 1 221 9 is_stmt 1
	.loc 1 221 23 is_stmt 0
	lw	a5,0(a0)
	.loc 1 221 29
	lw	a5,0(a5)
	lw	a5,16(a5)
	.loc 1 221 12
	bne	a5,zero,.L42
.LVL62:
.L44:
	.loc 1 218 31 is_stmt 1
	.loc 1 218 32 is_stmt 0
	addi	s4,s4,1
.LVL63:
	.loc 1 218 17 is_stmt 1
	.loc 1 218 5 is_stmt 0
	addi	s0,s0,4
	bne	s1,s4,.L43
	.loc 1 230 12
	li	a0,0
	j	.L38
.LVL64:
.L42:
	.loc 1 222 13 is_stmt 1
	.loc 1 222 35 is_stmt 0
	mv	a2,s3
	mv	a1,s2
	jalr	a5
.LVL65:
	.loc 1 224 13 is_stmt 1
	.loc 1 224 16 is_stmt 0
	beq	a0,zero,.L44
	j	.L38
.LVL66:
.L39:
	.loc 1 203 16
	li	a0,-1
.LVL67:
	j	.L38
	.cfi_endproc
.LFE14:
	.size	aos_ioctl_in_loop, .-aos_ioctl_in_loop
	.text
.Letext0:
	.file 2 "/mnt/d/GitHub/bl_iot_sdk_for_aithinker/toolchain/riscv/Linux/lib/gcc/riscv64-unknown-elf/10.2.0/include/stddef.h"
	.file 3 "/mnt/d/GitHub/bl_iot_sdk_for_aithinker/toolchain/riscv/Linux/lib/gcc/riscv64-unknown-elf/10.2.0/include/stdint-gcc.h"
	.file 4 "/mnt/d/GitHub/bl_iot_sdk_for_aithinker/components/platform/soc/bl602/freertos_riscv_ram/portable/GCC/RISC-V/portmacro.h"
	.file 5 "/mnt/d/GitHub/bl_iot_sdk_for_aithinker/components/platform/soc/bl602/freertos_riscv_ram/config/queue.h"
	.file 6 "/mnt/d/GitHub/bl_iot_sdk_for_aithinker/components/platform/soc/bl602/freertos_riscv_ram/config/semphr.h"
	.file 7 "/mnt/d/GitHub/bl_iot_sdk_for_aithinker/toolchain/riscv/Linux/riscv64-unknown-elf/include/machine/_default_types.h"
	.file 8 "/mnt/d/GitHub/bl_iot_sdk_for_aithinker/toolchain/riscv/Linux/riscv64-unknown-elf/include/sys/_types.h"
	.file 9 "/mnt/d/GitHub/bl_iot_sdk_for_aithinker/toolchain/riscv/Linux/riscv64-unknown-elf/include/sys/_timeval.h"
	.file 10 "/mnt/d/GitHub/bl_iot_sdk_for_aithinker/toolchain/riscv/Linux/riscv64-unknown-elf/include/sys/_timespec.h"
	.file 11 "/mnt/d/GitHub/bl_iot_sdk_for_aithinker/toolchain/riscv/Linux/riscv64-unknown-elf/include/sys/select.h"
	.file 12 "/mnt/d/GitHub/bl_iot_sdk_for_aithinker/toolchain/riscv/Linux/riscv64-unknown-elf/include/sys/types.h"
	.file 13 "/mnt/d/GitHub/bl_iot_sdk_for_aithinker/toolchain/riscv/Linux/riscv64-unknown-elf/include/sys/stat.h"
	.file 14 "/mnt/d/GitHub/bl_iot_sdk_for_aithinker/components/fs/vfs/include/vfs_dir.h"
	.file 15 "/mnt/d/GitHub/bl_iot_sdk_for_aithinker/components/fs/vfs/include/vfs_inode.h"
	.file 16 "/mnt/d/GitHub/bl_iot_sdk_for_aithinker/components/stage/yloop/include/yloop_types.h"
	.file 17 "/mnt/d/GitHub/bl_iot_sdk_for_aithinker/components/stage/yloop/include/aos/kernel.h"
	.file 18 "/mnt/d/GitHub/bl_iot_sdk_for_aithinker/components/fs/vfs/include/vfs_file.h"