	.file	"http_client.c"
	.option nopic
	.attribute arch, "rv32i2p0_m2p0_f2p0_c2p0"
	.attribute unaligned_access, 0
	.attribute stack_align, 16
	.text
.Ltext0:
	.cfi_sections	.debug_frame
	.section	.text.httpc_tcp_sent,"ax",@progbits
	.align	1
	.type	httpc_tcp_sent, @function
httpc_tcp_sent:
.LFB12:
	.file 1 "/mnt/d/GitHub/bl_iot_sdk_for_aithinker/components/network/httpc/http_client.c"
	.loc 1 406 1
	.cfi_startproc
.LVL0:
	.loc 1 408 3
	.loc 1 409 3
	.loc 1 410 3
	.loc 1 411 3
	.loc 1 412 1 is_stmt 0
	li	a0,0
.LVL1:
	ret
	.cfi_endproc
.LFE12:
	.size	httpc_tcp_sent, .-httpc_tcp_sent
	.section	.text.httpc_get_internal_addr,"ax",@progbits
	.align	1
	.type	httpc_get_internal_addr, @function
httpc_get_internal_addr:
.LFB14:
	.loc 1 440 1 is_stmt 1
	.cfi_startproc
.LVL2:
	.loc 1 441 3
	.loc 1 442 3
	.loc 1 442 8
	.loc 1 442 7
	.loc 1 442 17
	.loc 1 444 3
	.loc 1 440 1 is_stmt 0
	mv	a5,a1
	.loc 1 444 7
	addi	a1,a0,4
.LVL3:
	.loc 1 444 6
	beq	a1,a5,.L3
	.loc 1 446 5 is_stmt 1
	.loc 1 446 22 is_stmt 0
	lw	a5,0(a5)
.LVL4:
	sw	a5,4(a0)
.L3:
	.loc 1 449 3 is_stmt 1
	.loc 1 449 9 is_stmt 0
	lhu	a2,8(a0)
	lw	a0,0(a0)
.LVL5:
	lui	a3,%hi(httpc_tcp_connected)
	addi	a3,a3,%lo(httpc_tcp_connected)
	tail	altcp_connect
.LVL6:
	.cfi_endproc
.LFE14:
	.size	httpc_get_internal_addr, .-httpc_get_internal_addr
	.section	.text.httpc_free_state,"ax",@progbits
	.align	1
	.type	httpc_free_state, @function
httpc_free_state:
.LFB5:
	.loc 1 178 1 is_stmt 1
	.cfi_startproc
.LVL7:
	.loc 1 179 3
	.loc 1 181 3
	.loc 1 178 1 is_stmt 0
	addi	sp,sp,-16
	.cfi_def_cfa_offset 16
	sw	s1,4(sp)
	sw	ra,12(sp)
	sw	s0,8(sp)
	.cfi_offset 9, -12
	.cfi_offset 1, -4
	.cfi_offset 8, -8
	.loc 1 178 1
	mv	s1,a0
	.loc 1 181 10
	lw	a0,16(a0)
.LVL8:
	.loc 1 181 6
	beq	a0,zero,.L5
	.loc 1 182 5 is_stmt 1
	call	pbuf_free
.LVL9:
	.loc 1 183 5
	.loc 1 183 18 is_stmt 0
	sw	zero,16(s1)
.L5:
	.loc 1 185 3 is_stmt 1
	.loc 1 185 10 is_stmt 0
	lw	a0,20(s1)
	.loc 1 185 6
	beq	a0,zero,.L6
	.loc 1 186 5 is_stmt 1
	call	pbuf_free
.LVL10:
	.loc 1 187 5
	.loc 1 187 18 is_stmt 0
	sw	zero,20(s1)
.L6:
	.loc 1 190 3 is_stmt 1
	.loc 1 190 8 is_stmt 0
	lw	s0,0(s1)
.LVL11:
	.loc 1 191 3 is_stmt 1
	mv	a0,s1
	call	mem_free
.LVL12:
	.loc 1 192 3
	.loc 1 194 3
	.loc 1 194 6 is_stmt 0
	bne	s0,zero,.L7
.L9:
	.loc 1 207 10
	li	a0,0
.L8:
	.loc 1 208 1
	lw	ra,12(sp)
	.cfi_remember_state
	.cfi_restore 1
	lw	s0,8(sp)
	.cfi_restore 8
.LVL13:
	lw	s1,4(sp)
	.cfi_restore 9
	addi	sp,sp,16
	.cfi_def_cfa_offset 0
	jr	ra
.LVL14:
.L7:
	.cfi_restore_state
.LBB2:
	.loc 1 195 5 is_stmt 1
	.loc 1 196 5
	li	a1,0
	mv	a0,s0
	call	altcp_arg
.LVL15:
	.loc 1 197 5
	li	a1,0
	mv	a0,s0
	call	altcp_recv
.LVL16:
	.loc 1 198 5
	li	a1,0
	mv	a0,s0
	call	altcp_err
.LVL17:
	.loc 1 199 5
	li	a2,0
	li	a1,0
	mv	a0,s0
	call	altcp_poll
.LVL18:
	.loc 1 200 5
	mv	a0,s0
	li	a1,0
	call	altcp_sent
.LVL19:
	.loc 1 201 5
	.loc 1 201 9 is_stmt 0
	mv	a0,s0
	call	altcp_close
.LVL20:
	.loc 1 202 5 is_stmt 1
	.loc 1 202 8 is_stmt 0
	beq	a0,zero,.L9
	.loc 1 203 7 is_stmt 1
	mv	a0,s0
.LVL21:
	call	altcp_abort
.LVL22:
	.loc 1 204 7
	.loc 1 204 14 is_stmt 0
	li	a0,-13
	j	.L8
.LBE2:
	.cfi_endproc
.LFE5:
	.size	httpc_free_state, .-httpc_free_state
	.section	.text.httpc_close,"ax",@progbits
	.align	1
	.type	httpc_close, @function
httpc_close:
.LFB6:
	.loc 1 213 1 is_stmt 1
	.cfi_startproc
.LVL23:
	.loc 1 214 3
	.loc 1 214 6 is_stmt 0
	beq	a0,zero,.L21
	.loc 1 213 1
	addi	sp,sp,-16
	.cfi_def_cfa_offset 16
	sw	s0,8(sp)
	sw	ra,12(sp)
	.cfi_offset 8, -8
	.cfi_offset 1, -4
.LBB5:
.LBB6:
	.loc 1 215 12
	lw	a5,32(a0)
	mv	s0,a0
.LVL24:
	.loc 1 215 5 is_stmt 1
	.loc 1 215 8 is_stmt 0
	beq	a5,zero,.L22
	.loc 1 216 7 is_stmt 1
	.loc 1 216 29 is_stmt 0
	lw	a5,20(a5)
	.loc 1 216 10
	beq	a5,zero,.L22
	mv	a4,a3
	.loc 1 217 9 is_stmt 1
	mv	a3,a2
.LVL25:
	lw	a2,40(a0)
.LVL26:
	lw	a0,36(a0)
.LVL27:
	jalr	a5
.LVL28:
.L22:
	.loc 1 220 5
	.loc 1 220 12 is_stmt 0
	mv	a0,s0
.LBE6:
.LBE5:
	.loc 1 223 1
	lw	s0,8(sp)
	.cfi_restore 8
.LVL29:
	lw	ra,12(sp)
	.cfi_restore 1
	addi	sp,sp,16
	.cfi_def_cfa_offset 0
.LBB8:
.LBB7:
	.loc 1 220 12
	tail	httpc_free_state
.LVL30:
.L21:
.LBE7:
.LBE8:
	.loc 1 223 1
	ret
	.cfi_endproc
.LFE6:
	.size	httpc_close, .-httpc_close
	.section	.rodata.httpc_tcp_recv.str1.4,"aMS",@progbits,1
	.align	2
.LC0:
	.string	"\r\n"
	.align	2
.LC1:
	.string	" "
	.align	2
.LC2:
	.string	"HTTP/"
	.align	2
.LC3:
	.string	"\r\n\r\n"
	.align	2
.LC4:
	.string	"Content-Length: "
	.section	.text.httpc_tcp_recv,"ax",@progbits
	.align	1
	.type	httpc_tcp_recv, @function
httpc_tcp_recv:
.LFB9:
	.loc 1 301 1 is_stmt 1
	.cfi_startproc
.LVL31:
	.loc 1 302 3
	.loc 1 303 3
	.loc 1 305 3
	.loc 1 301 1 is_stmt 0
	addi	sp,sp,-64
	.cfi_def_cfa_offset 64
	sw	s0,56(sp)
	sw	ra,60(sp)
	sw	s1,52(sp)
	sw	s2,48(sp)
	sw	s3,44(sp)
	sw	s4,40(sp)
	sw	s5,36(sp)
	sw	s6,32(sp)
	sw	s7,28(sp)
	sw	s8,24(sp)
	sw	s9,20(sp)
	.cfi_offset 8, -8
	.cfi_offset 1, -4
	.cfi_offset 9, -12
	.cfi_offset 18, -16
	.cfi_offset 19, -20
	.cfi_offset 20, -24
	.cfi_offset 21, -28
	.cfi_offset 22, -32
	.cfi_offset 23, -36
	.cfi_offset 24, -40
	.cfi_offset 25, -44
	.loc 1 305 22
	li	a5,30
	sw	a5,12(a0)
	.loc 1 307 3 is_stmt 1
	.loc 1 301 1 is_stmt 0
	mv	s0,a0
.LBB24:
	.loc 1 309 12
	lw	a5,48(a0)
.LBE24:
	.loc 1 307 6
	bne	a2,zero,.L33
.LBB25:
	.loc 1 308 5 is_stmt 1
	.loc 1 309 5
	.loc 1 309 8 is_stmt 0
	li	a4,2
	.loc 1 311 14
	li	a1,4
.LVL32:
	.loc 1 309 8
	bne	a5,a4,.L34
	.loc 1 312 12 is_stmt 1
	.loc 1 312 20 is_stmt 0
	lw	a5,44(a0)
	.loc 1 312 15
	li	a4,-1
	.loc 1 318 14
	li	a1,0
	.loc 1 312 15
	beq	a5,a4,.L34
	.loc 1 312 53 discriminator 1
	lw	a4,40(a0)
	beq	a5,a4,.L34
	.loc 1 315 14
	li	a1,9
.L34:
.LVL33:
	.loc 1 320 5 is_stmt 1
	.loc 1 320 12 is_stmt 0
	lhu	a2,26(s0)
.LVL34:
	li	a3,0
.LVL35:
.L71:
.LBE25:
.LBB26:
.LBB27:
	.loc 1 347 22
	mv	a0,s0
.LBE27:
.LBE26:
	.loc 1 371 1
	lw	s0,56(sp)
	.cfi_remember_state
	.cfi_restore 8
.LVL36:
	lw	ra,60(sp)
	.cfi_restore 1
	lw	s1,52(sp)
	.cfi_restore 9
	lw	s2,48(sp)
	.cfi_restore 18
	lw	s3,44(sp)
	.cfi_restore 19
	lw	s4,40(sp)
	.cfi_restore 20
	lw	s5,36(sp)
	.cfi_restore 21
	lw	s6,32(sp)
	.cfi_restore 22
	lw	s7,28(sp)
	.cfi_restore 23
	lw	s8,24(sp)
	.cfi_restore 24
	lw	s9,20(sp)
	.cfi_restore 25
	addi	sp,sp,64
	.cfi_def_cfa_offset 0
.LBB40:
.LBB28:
	.loc 1 347 22
	tail	httpc_close
.LVL37:
.L33:
	.cfi_restore_state
.LBE28:
.LBE40:
	.loc 1 322 6
	li	a4,2
	mv	s3,a1
	mv	s1,a2
	mv	s4,a3
	.loc 1 322 3 is_stmt 1
	.loc 1 322 6 is_stmt 0
	bne	a5,a4,.L35
.LVL38:
.L36:
	.loc 1 361 5 is_stmt 1
	.loc 1 361 29 is_stmt 0
	lhu	a4,8(s1)
	.loc 1 361 25
	lw	a5,40(s0)
	add	a5,a5,a4
	sw	a5,40(s0)
	.loc 1 362 5 is_stmt 1
	.loc 1 362 12 is_stmt 0
	lw	a5,28(s0)
	.loc 1 362 8
	beq	a5,zero,.L56
	.loc 1 364 7 is_stmt 1
	.loc 1 364 14 is_stmt 0
	lw	a0,36(s0)
	.loc 1 371 1
	lw	s0,56(sp)
	.cfi_remember_state
	.cfi_restore 8
.LVL39:
	lw	ra,60(sp)
	.cfi_restore 1
	lw	s2,48(sp)
	.cfi_restore 18
	lw	s5,36(sp)
	.cfi_restore 21
	lw	s6,32(sp)
	.cfi_restore 22
	lw	s7,28(sp)
	.cfi_restore 23
	lw	s8,24(sp)
	.cfi_restore 24
	lw	s9,20(sp)
	.cfi_restore 25
	.loc 1 364 14
	mv	a3,s4
	mv	a2,s1
	.loc 1 371 1
	lw	s4,40(sp)
	.cfi_restore 20
	lw	s1,52(sp)
	.cfi_restore 9
.LVL40:
	.loc 1 364 14
	mv	a1,s3
	.loc 1 371 1
	lw	s3,44(sp)
	.cfi_restore 19
.LVL41:
	addi	sp,sp,64
	.cfi_def_cfa_offset 0
	.loc 1 364 14
	jr	a5
.LVL42:
.L35:
	.cfi_restore_state
	.loc 1 323 5 is_stmt 1
	.loc 1 323 12 is_stmt 0
	lw	a0,20(a0)
	.loc 1 323 8
	bne	a0,zero,.L38
	.loc 1 324 7 is_stmt 1
	.loc 1 324 20 is_stmt 0
	sw	a2,20(s0)
.LVL43:
.L39:
	.loc 1 328 5 is_stmt 1
	.loc 1 328 8 is_stmt 0
	lw	a5,48(s0)
	bne	a5,zero,.L41
.LBB41:
	.loc 1 329 7 is_stmt 1
	.loc 1 330 7
	.loc 1 330 19 is_stmt 0
	lw	s6,20(s0)
.LVL44:
.LBB42:
.LBB43:
	.loc 1 229 3 is_stmt 1
	.loc 1 229 16 is_stmt 0
	lui	a1,%hi(.LC0)
	li	a3,0
	li	a2,2
	addi	a1,a1,%lo(.LC0)
	mv	a0,s6
	.loc 1 230 6
	li	s8,65536
	.loc 1 229 16
	call	pbuf_memfind
.LVL45:
	.loc 1 230 6
	addi	s8,s8,-1
	.loc 1 229 16
	mv	s5,a0
.LVL46:
	.loc 1 230 3 is_stmt 1
	.loc 1 230 6 is_stmt 0
	beq	a0,s8,.L41
.LBB44:
	.loc 1 232 5 is_stmt 1
	.loc 1 233 5
	.loc 1 233 14 is_stmt 0
	lui	s9,%hi(.LC1)
	li	a3,0
	li	a2,1
	addi	a1,s9,%lo(.LC1)
	mv	a0,s6
.LVL47:
	call	pbuf_memfind
.LVL48:
	mv	s2,a0
.LVL49:
	.loc 1 234 5 is_stmt 1
	.loc 1 234 8 is_stmt 0
	beq	a0,s8,.L41
	.loc 1 235 7 is_stmt 1
	.loc 1 235 12 is_stmt 0
	lui	a2,%hi(.LC2)
	li	a3,5
	addi	a2,a2,%lo(.LC2)
	li	a1,0
	mv	a0,s6
.LVL50:
	call	pbuf_memcmp
.LVL51:
	.loc 1 235 10
	bne	a0,zero,.L41
	.loc 1 235 52
	li	a1,6
	mv	a0,s6
	call	pbuf_get_at
.LVL52:
	.loc 1 235 48
	li	a5,46
	bne	a0,a5,.L41
.LBB45:
	.loc 1 236 9 is_stmt 1
	.loc 1 237 9
	.loc 1 239 9
	.loc 1 239 25 is_stmt 0
	li	a1,5
	mv	a0,s6
	call	pbuf_get_at
.LVL53:
	.loc 1 239 15
	addi	s7,a0,-48
	.loc 1 241 20
	li	a1,7
	.loc 1 239 15
	slli	s7,s7,16
	.loc 1 241 20
	mv	a0,s6
	call	pbuf_get_at
.LVL54:
	.loc 1 239 15
	srli	s7,s7,16
.LVL55:
	.loc 1 240 9 is_stmt 1
	.loc 1 241 9
	.loc 1 241 38 is_stmt 0
	addi	a0,a0,-48
	.loc 1 240 17
	slli	s7,s7,8
.LVL56:
	.loc 1 241 17
	or	s7,a0,s7
.LVL57:
	.loc 1 242 9 is_stmt 1
	.loc 1 242 23 is_stmt 0
	sh	s7,24(s0)
	.loc 1 245 9 is_stmt 1
	.loc 1 245 18 is_stmt 0
	addi	s7,s2,1
.LVL58:
	slli	s7,s7,16
	srli	s7,s7,16
	mv	a3,s7
	li	a2,1
	addi	a1,s9,%lo(.LC1)
	mv	a0,s6
	call	pbuf_memfind
.LVL59:
	.loc 1 246 9 is_stmt 1
	.loc 1 246 12 is_stmt 0
	beq	a0,s8,.L43
	.loc 1 247 11 is_stmt 1
.LVL60:
	.loc 1 248 11
	.loc 1 248 35 is_stmt 0
	sub	s2,a0,s2
.LVL61:
.L70:
	.loc 1 252 9
	li	a2,10
	li	a1,0
	mv	a0,sp
.LVL62:
	call	memset
.LVL63:
	.loc 1 250 42
	addi	s2,s2,-1
.LVL64:
	.loc 1 252 9 is_stmt 1
	.loc 1 253 9
	.loc 1 253 13 is_stmt 0
	slli	a2,s2,16
	mv	a3,s7
	srli	a2,a2,16
	mv	a1,sp
	mv	a0,s6
	call	pbuf_copy_partial
.LVL65:
	.loc 1 253 12
	bne	s2,a0,.L41
.LBB46:
	.loc 1 254 11 is_stmt 1
	.loc 1 254 24 is_stmt 0
	mv	a0,sp
	call	atoi
.LVL66:
	.loc 1 255 11 is_stmt 1
	.loc 1 255 14 is_stmt 0
	li	a5,65536
	.loc 1 255 28
	addi	a4,a0,-1
	.loc 1 255 14
	addi	a5,a5,-2
	bgtu	a4,a5,.L41
	.loc 1 256 13 is_stmt 1
.LBE46:
.LBE45:
.LBE44:
.LBE43:
.LBE42:
	.loc 1 333 26 is_stmt 0
	li	a5,1
.LBB54:
.LBB52:
.LBB50:
.LBB48:
.LBB47:
	.loc 1 256 28
	sh	a0,26(s0)
	.loc 1 257 13 is_stmt 1
.LVL67:
.LBE47:
.LBE48:
.LBE50:
.LBE52:
.LBE54:
	.loc 1 331 7
	.loc 1 333 9
	.loc 1 333 26 is_stmt 0
	sw	a5,48(s0)
.LVL68:
.LBE41:
	.loc 1 336 5 is_stmt 1
.L46:
.LBB56:
	.loc 1 337 7
	.loc 1 338 7
	.loc 1 338 19 is_stmt 0
	lw	s6,20(s0)
.LVL69:
.LBB29:
.LBB30:
	.loc 1 270 3 is_stmt 1
	.loc 1 270 16 is_stmt 0
	lui	a1,%hi(.LC3)
	li	a3,0
	li	a2,4
	addi	a1,a1,%lo(.LC3)
	mv	a0,s6
	call	pbuf_memfind
.LVL70:
	.loc 1 271 6
	li	s7,65536
	addi	a5,s7,-4
	.loc 1 270 16
	mv	s2,a0
.LVL71:
	.loc 1 271 3 is_stmt 1
	.loc 1 271 6 is_stmt 0
	bgtu	a0,a5,.L47
.LBB31:
	.loc 1 274 5 is_stmt 1
	.loc 1 275 5
	.loc 1 275 21 is_stmt 0
	li	a5,-1
	.loc 1 278 23
	lui	a1,%hi(.LC4)
	.loc 1 275 21
	sw	a5,44(s0)
	.loc 1 276 5 is_stmt 1
.LVL72:
	.loc 1 278 5
	.loc 1 278 23 is_stmt 0
	li	a3,0
	li	a2,16
	addi	a1,a1,%lo(.LC4)
	mv	a0,s6
.LVL73:
	call	pbuf_memfind
.LVL74:
	.loc 1 279 8
	addi	s7,s7,-1
	.loc 1 278 23
	mv	s5,a0
.LVL75:
	.loc 1 279 5 is_stmt 1
	.loc 1 279 8 is_stmt 0
	beq	a0,s7,.L49
.LBB32:
	.loc 1 280 7 is_stmt 1
	.loc 1 280 36 is_stmt 0
	lui	a1,%hi(.LC0)
	mv	a3,a0
	li	a2,2
	addi	a1,a1,%lo(.LC0)
	mv	a0,s6
.LVL76:
	call	pbuf_memfind
.LVL77:
	.loc 1 281 7 is_stmt 1
	.loc 1 281 10 is_stmt 0
	beq	a0,s7,.L49
.LBB33:
	.loc 1 282 9 is_stmt 1
	.loc 1 283 9
	.loc 1 283 15 is_stmt 0
	sub	s1,a0,s5
.LVL78:
	.loc 1 284 9
	li	a2,16
	li	a1,0
	mv	a0,sp
.LVL79:
	call	memset
.LVL80:
	.loc 1 283 15
	addi	s1,s1,-16
	slli	s1,s1,16
	.loc 1 285 13
	addi	a3,s5,16
	.loc 1 283 15
	srli	s1,s1,16
.LVL81:
	.loc 1 284 9 is_stmt 1
	.loc 1 285 9
	.loc 1 285 13 is_stmt 0
	slli	a3,a3,16
	srli	a3,a3,16
	mv	a2,s1
	mv	a1,sp
	mv	a0,s6
	call	pbuf_copy_partial
.LVL82:
	.loc 1 285 12
	bne	s1,a0,.L49
.LBB34:
	.loc 1 286 11 is_stmt 1
	.loc 1 286 21 is_stmt 0
	mv	a0,sp
	call	atoi
.LVL83:
	.loc 1 287 11 is_stmt 1
	.loc 1 287 14 is_stmt 0
	blt	a0,zero,.L49
	.loc 1 288 13 is_stmt 1
	.loc 1 288 29 is_stmt 0
	sw	a0,44(s0)
.LVL84:
.LBE34:
.LBE33:
.LBE32:
.LBE31:
.LBE30:
.LBE29:
	.loc 1 339 7 is_stmt 1
.L49:
.LBB37:
.LBB36:
.LBB35:
	.loc 1 276 30 is_stmt 0
	addi	s1,s2,4
	slli	s1,s1,16
	srli	s1,s1,16
.LVL85:
.LBE35:
.LBE36:
.LBE37:
.LBB38:
	.loc 1 340 9 is_stmt 1
	.loc 1 342 9
	mv	a1,s1
	mv	a0,s3
	call	altcp_recved
.LVL86:
	.loc 1 343 9
	.loc 1 343 16 is_stmt 0
	lw	a5,32(s0)
	.loc 1 343 12
	beq	a5,zero,.L54
	.loc 1 344 11 is_stmt 1
	.loc 1 344 33 is_stmt 0
	lw	a5,24(a5)
	.loc 1 344 14
	beq	a5,zero,.L54
	.loc 1 345 13 is_stmt 1
	.loc 1 345 19 is_stmt 0
	lw	a4,44(s0)
	lw	a2,20(s0)
	lw	a1,36(s0)
	mv	a3,s1
	mv	a0,s0
	jalr	a5
.LVL87:
	mv	a3,a0
.LVL88:
	.loc 1 346 13 is_stmt 1
	.loc 1 346 16 is_stmt 0
	beq	a0,zero,.L54
	.loc 1 347 15 is_stmt 1
	.loc 1 347 22 is_stmt 0
	lhu	a2,26(s0)
	li	a1,8
	j	.L71
.LVL89:
.L38:
.LBE38:
.LBE56:
	.loc 1 326 7 is_stmt 1
	mv	a1,a2
.LVL90:
	call	pbuf_cat
.LVL91:
	j	.L39
.LVL92:
.L43:
.LBB57:
.LBB55:
.LBB53:
.LBB51:
.LBB49:
	.loc 1 250 11
	.loc 1 250 33 is_stmt 0
	sub	s2,s5,s2
	j	.L70
.LVL93:
.L41:
.LBE49:
.LBE51:
.LBE53:
.LBE55:
.LBE57:
	.loc 1 336 5 is_stmt 1
	.loc 1 336 8 is_stmt 0
	lw	a4,48(s0)
	li	a5,1
	beq	a4,a5,.L46
.L47:
	.loc 1 360 18
	lw	a4,48(s0)
	li	a5,2
	beq	a4,a5,.L36
.L55:
	.loc 1 371 1
	lw	ra,60(sp)
	.cfi_remember_state
	.cfi_restore 1
	lw	s0,56(sp)
	.cfi_restore 8
.LVL94:
	lw	s1,52(sp)
	.cfi_restore 9
.LVL95:
	lw	s2,48(sp)
	.cfi_restore 18
	lw	s3,44(sp)
	.cfi_restore 19
.LVL96:
	lw	s4,40(sp)
	.cfi_restore 20
	lw	s5,36(sp)
	.cfi_restore 21
	lw	s6,32(sp)
	.cfi_restore 22
	lw	s7,28(sp)
	.cfi_restore 23
	lw	s8,24(sp)
	.cfi_restore 24
	lw	s9,20(sp)
	.cfi_restore 25
	li	a0,0
	addi	sp,sp,64
	.cfi_def_cfa_offset 0
	jr	ra
.LVL97:
.L54:
	.cfi_restore_state
.LBB58:
.LBB39:
	.loc 1 352 9 is_stmt 1
	.loc 1 352 13 is_stmt 0
	lw	a0,20(s0)
	mv	a1,s1
	call	pbuf_free_header
.LVL98:
	.loc 1 356 26
	li	a5,2
	.loc 1 354 22
	sw	zero,20(s0)
	.loc 1 356 26
	sw	a5,48(s0)
	.loc 1 352 13
	mv	s1,a0
.LVL99:
	.loc 1 353 9 is_stmt 1
	.loc 1 354 9
	.loc 1 356 9
.LBE39:
.LBE58:
	.loc 1 360 3
	.loc 1 360 6 is_stmt 0
	beq	a0,zero,.L55
	j	.L36
.LVL100:
.L56:
	.loc 1 366 7 is_stmt 1
	lhu	a1,8(s1)
	mv	a0,s3
	call	altcp_recved
.LVL101:
	.loc 1 367 7
	mv	a0,s1
	call	pbuf_free
.LVL102:
	j	.L55
	.cfi_endproc
.LFE9:
	.size	httpc_tcp_recv, .-httpc_tcp_recv
	.section	.text.httpc_dns_found,"ax",@progbits
	.align	1
	.type	httpc_dns_found, @function
httpc_dns_found:
.LFB15:
	.loc 1 463 1
	.cfi_startproc
.LVL103:
	.loc 1 464 3
	.loc 1 465 3
	.loc 1 466 3
	.loc 1 468 3
	.loc 1 470 3
	.loc 1 463 1 is_stmt 0
	addi	sp,sp,-16
	.cfi_def_cfa_offset 16
	sw	s0,8(sp)
	sw	ra,12(sp)
	.cfi_offset 8, -8
	.cfi_offset 1, -4
	.loc 1 463 1
	mv	s0,a2
	.loc 1 470 6
	beq	a1,zero,.L75
	.loc 1 471 5 is_stmt 1
	.loc 1 471 11 is_stmt 0
	mv	a0,a2
.LVL104:
	call	httpc_get_internal_addr
.LVL105:
	mv	a3,a0
.LVL106:
	.loc 1 472 5 is_stmt 1
	.loc 1 475 12 is_stmt 0
	li	a1,2
	.loc 1 472 8
	bne	a0,zero,.L73
	.loc 1 483 1
	lw	ra,12(sp)
	.cfi_remember_state
	.cfi_restore 1
	lw	s0,8(sp)
	.cfi_restore 8
.LVL107:
	addi	sp,sp,16
	.cfi_def_cfa_offset 0
	jr	ra
.LVL108:
.L75:
	.cfi_restore_state
	.loc 1 479 12
	li	a1,3
.LVL109:
	.loc 1 480 9
	li	a3,-16
.LVL110:
.L73:
	.loc 1 482 3 is_stmt 1
	mv	a0,s0
	.loc 1 483 1 is_stmt 0
	lw	s0,8(sp)
	.cfi_restore 8
.LVL111:
	lw	ra,12(sp)
	.cfi_restore 1
	.loc 1 482 3
	li	a2,0
	.loc 1 483 1
	addi	sp,sp,16
	.cfi_def_cfa_offset 0
	.loc 1 482 3
	tail	httpc_close
.LVL112:
	.cfi_endproc
.LFE15:
	.size	httpc_dns_found, .-httpc_dns_found
	.section	.text.httpc_tcp_poll,"ax",@progbits
	.align	1
	.type	httpc_tcp_poll, @function
httpc_tcp_poll:
.LFB11:
	.loc 1 388 1 is_stmt 1
	.cfi_startproc
.LVL113:
	.loc 1 390 3
	.loc 1 391 3
	.loc 1 392 3
	.loc 1 392 6 is_stmt 0
	beq	a0,zero,.L79
	.loc 1 393 5 is_stmt 1
	.loc 1 393 12 is_stmt 0
	lw	a5,12(a0)
	.loc 1 393 8
	bne	a5,zero,.L80
.L81:
.LVL114:
.LBB61:
.LBB62:
	.loc 1 397 7 is_stmt 1
	.loc 1 397 14 is_stmt 0
	li	a3,0
	li	a2,0
	li	a1,5
.LVL115:
	tail	httpc_close
.LVL116:
.L80:
.LBE62:
.LBE61:
	.loc 1 394 7 is_stmt 1
	.loc 1 394 25 is_stmt 0
	addi	a5,a5,-1
	sw	a5,12(a0)
	.loc 1 396 5 is_stmt 1
	.loc 1 396 8 is_stmt 0
	beq	a5,zero,.L81
.L79:
	.loc 1 401 1
	li	a0,0
.LVL117:
	ret
	.cfi_endproc
.LFE11:
	.size	httpc_tcp_poll, .-httpc_tcp_poll
	.section	.text.httpc_tcp_err,"ax",@progbits
	.align	1
	.type	httpc_tcp_err, @function
httpc_tcp_err:
.LFB10:
	.loc 1 376 1 is_stmt 1
	.cfi_startproc
.LVL118:
	.loc 1 377 3
	.loc 1 378 3
	.loc 1 376 1 is_stmt 0
	mv	a3,a1
	.loc 1 378 6
	beq	a0,zero,.L86
.LVL119:
.LBB65:
.LBB66:
	.loc 1 380 5 is_stmt 1
	.loc 1 380 14 is_stmt 0
	sw	zero,0(a0)
	.loc 1 381 5 is_stmt 1
	li	a2,0
	li	a1,4
.LVL120:
	tail	httpc_close
.LVL121:
.L86:
.LBE66:
.LBE65:
	.loc 1 383 1 is_stmt 0
	ret
	.cfi_endproc
.LFE10:
	.size	httpc_tcp_err, .-httpc_tcp_err
	.section	.text.httpc_tcp_connected,"ax",@progbits
	.align	1
	.type	httpc_tcp_connected, @function
httpc_tcp_connected:
.LFB13:
	.loc 1 417 1 is_stmt 1
	.cfi_startproc
.LVL122:
	.loc 1 418 3
	.loc 1 419 3
	.loc 1 420 3
	.loc 1 421 3
	.loc 1 424 3
	.loc 1 417 1 is_stmt 0
	addi	sp,sp,-16
	.cfi_def_cfa_offset 16
	sw	s0,8(sp)
	sw	ra,12(sp)
	.cfi_offset 8, -8
	.cfi_offset 1, -4
	.loc 1 424 32
	lw	a5,16(a0)
	.loc 1 417 1
	mv	s0,a0
	.loc 1 424 7
	lw	a0,0(a0)
.LVL123:
	lhu	a2,10(a5)
.LVL124:
	lw	a1,4(a5)
.LVL125:
	li	a3,1
	addi	a2,a2,-1
	slli	a2,a2,16
	srli	a2,a2,16
	call	altcp_write
.LVL126:
	.loc 1 425 3 is_stmt 1
	.loc 1 425 6 is_stmt 0
	beq	a0,zero,.L89
	mv	a3,a0
	.loc 1 427 6 is_stmt 1
	.loc 1 427 13 is_stmt 0
	mv	a0,s0
.LVL127:
	.loc 1 435 1
	lw	s0,8(sp)
	.cfi_remember_state
	.cfi_restore 8
.LVL128:
	lw	ra,12(sp)
	.cfi_restore 1
	.loc 1 427 13
	li	a2,0
	.loc 1 435 1
	.loc 1 427 13
	li	a1,7
	.loc 1 435 1
	addi	sp,sp,16
	.cfi_def_cfa_offset 0
	.loc 1 427 13
	tail	httpc_close
.LVL129:
.L89:
	.cfi_restore_state
.LBB69:
.LBB70:
	.loc 1 430 3 is_stmt 1
	lw	a0,16(s0)
.LVL130:
	call	pbuf_free
.LVL131:
	.loc 1 431 3
	.loc 1 433 3 is_stmt 0
	lw	a0,0(s0)
	.loc 1 431 16
	sw	zero,16(s0)
	.loc 1 433 3 is_stmt 1
	call	altcp_output
.LVL132:
	.loc 1 434 3
.LBE70:
.LBE69:
	.loc 1 435 1 is_stmt 0
	lw	ra,12(sp)
	.cfi_restore 1
	lw	s0,8(sp)
	.cfi_restore 8
.LVL133:
	li	a0,0
	addi	sp,sp,16
	.cfi_def_cfa_offset 0
	jr	ra
	.cfi_endproc
.LFE13:
	.size	httpc_tcp_connected, .-httpc_tcp_connected
	.section	.rodata.httpc_create_request_string.constprop.0.str1.4,"aMS",@progbits,1
	.align	2
.LC5:
	.string	"lwIP/2.1.2"
	.align	2
.LC6:
	.string	"GET http://%s:%d%s HTTP/1.1\r\nUser-Agent: %s\r\nAccept: */*\r\nHost: %s\r\nConnection: Close\r\n\r\n"
	.align	2
.LC7:
	.string	"GET http://%s%s HTTP/1.1\r\nUser-Agent: %s\r\nAccept: */*\r\nHost: %s\r\nConnection: Close\r\n\r\n"
	.align	2
.LC8:
	.string	"POST %s HTTP/1.1\r\nContent-Type: %s\r\nContent-Length: %d\r\nUser-Agent: %s\r\nHost: %s\r\nAccept: */*\r\nConnection: Close\r\n\r\n%s"
	.align	2
.LC9:
	.string	"GET %s HTTP/1.1\r\nUser-Agent: %s\r\nAccept: */*\r\nHost: %s\r\nConnection: Close\r\n\r\n"
	.section	.text.httpc_create_request_string.constprop.0,"ax",@progbits
	.align	1
	.type	httpc_create_request_string.constprop.0, @function
httpc_create_request_string.constprop.0:
.LFB27:
	.loc 1 509 1 is_stmt 1
	.cfi_startproc
.LVL134:
	.loc 1 512 3
	.loc 1 509 1 is_stmt 0
	addi	sp,sp,-64
	.cfi_def_cfa_offset 64
	sw	s1,52(sp)
	sw	s2,48(sp)
	sw	s3,44(sp)
	sw	ra,60(sp)
	sw	s0,56(sp)
	.cfi_offset 9, -12
	.cfi_offset 18, -16
	.cfi_offset 19, -20
	.cfi_offset 1, -4
	.cfi_offset 8, -8
	.loc 1 509 1
	mv	a7,a1
	mv	a1,a5
.LVL135:
	.loc 1 512 6
	lbu	a5,6(a0)
.LVL136:
	.loc 1 509 1
	mv	s2,a3
	mv	s1,a4
	lui	s3,%hi(.LC5)
	.loc 1 512 6
	beq	a5,zero,.L92
	.loc 1 513 5 is_stmt 1
	.loc 1 513 10
	.loc 1 513 9
	.loc 1 513 19
	.loc 1 514 5
	.loc 1 514 8 is_stmt 0
	li	a5,80
	beq	a2,a5,.L93
	.loc 1 515 7 is_stmt 1
	.loc 1 529 1 is_stmt 0
	lw	s0,56(sp)
	.cfi_remember_state
	.cfi_restore 8
	lw	ra,60(sp)
	.cfi_restore 1
	lw	s2,48(sp)
	.cfi_restore 18
	.loc 1 515 14
	addi	a6,s3,%lo(.LC5)
	mv	a0,s1
.LVL137:
	.loc 1 529 1
	lw	s3,44(sp)
	.cfi_restore 19
	lw	s1,52(sp)
	.cfi_restore 9
	.loc 1 515 14
	mv	a4,a2
.LVL138:
	lui	a2,%hi(.LC6)
.LVL139:
	mv	a5,a3
	.loc 1 529 1
	.loc 1 515 14
	mv	a3,a7
.LVL140:
	addi	a2,a2,%lo(.LC6)
	.loc 1 529 1
	addi	sp,sp,64
	.cfi_def_cfa_offset 0
	.loc 1 515 14
	tail	snprintf
.LVL141:
.L93:
	.cfi_restore_state
	.loc 1 517 7 is_stmt 1
	.loc 1 529 1 is_stmt 0
	lw	s0,56(sp)
	.cfi_remember_state
	.cfi_restore 8
	lw	ra,60(sp)
	.cfi_restore 1
	lw	s2,48(sp)
	.cfi_restore 18
	.loc 1 517 14
	addi	a5,s3,%lo(.LC5)
	mv	a0,s1
.LVL142:
	.loc 1 529 1
	lw	s3,44(sp)
	.cfi_restore 19
	lw	s1,52(sp)
	.cfi_restore 9
.LVL143:
	.loc 1 517 14
	lui	a2,%hi(.LC7)
.LVL144:
	mv	a4,a3
.LVL145:
	.loc 1 529 1
	.loc 1 517 14
	mv	a6,a7
	mv	a3,a7
.LVL146:
	addi	a2,a2,%lo(.LC7)
	.loc 1 529 1
	addi	sp,sp,64
	.cfi_def_cfa_offset 0
	.loc 1 517 14
	tail	snprintf
.LVL147:
.L92:
	.cfi_restore_state
	.loc 1 521 8
	lbu	a4,7(a0)
	li	a5,1
	mv	s0,a0
	.loc 1 519 10 is_stmt 1
	.loc 1 520 5
	.loc 1 520 10
	.loc 1 520 9
	.loc 1 520 19
	.loc 1 521 5
	.loc 1 521 8 is_stmt 0
	bne	a4,a5,.L94
.LVL148:
	.loc 1 522 9 is_stmt 1
	.loc 1 523 193 is_stmt 0
	lbu	a5,12(a0)
	.loc 1 522 16
	li	a3,3
.LVL149:
	li	a4,0
	bgtu	a5,a3,.L95
	slli	a4,a5,2
	lui	a5,%hi(.LANCHOR0)
	addi	a5,a5,%lo(.LANCHOR0)
	add	a5,a5,a4
	lw	a4,0(a5)
.L95:
	lw	a0,8(s0)
	sw	a1,28(sp)
	sw	a7,24(sp)
	sw	a4,20(sp)
	call	strlen
.LVL150:
	lw	a3,8(s0)
	lw	a7,24(sp)
	lw	a4,20(sp)
	lw	a1,28(sp)
	lui	a2,%hi(.LC8)
	sw	a3,0(sp)
	mv	a5,a0
	addi	a6,s3,%lo(.LC5)
	mv	a3,s2
	mv	a0,s1
	addi	a2,a2,%lo(.LC8)
	call	snprintf
.LVL151:
	.loc 1 529 1
	lw	ra,60(sp)
	.cfi_remember_state
	.cfi_restore 1
	lw	s0,56(sp)
	.cfi_restore 8
.LVL152:
	lw	s1,52(sp)
	.cfi_restore 9
.LVL153:
	lw	s2,48(sp)
	.cfi_restore 18
.LVL154:
	lw	s3,44(sp)
	.cfi_restore 19
	addi	sp,sp,64
	.cfi_def_cfa_offset 0
.LVL155:
	jr	ra
.LVL156:
.L94:
	.cfi_restore_state
	.loc 1 525 5 is_stmt 1
	.loc 1 529 1 is_stmt 0
	lw	s0,56(sp)
	.cfi_restore 8
.LVL157:
	lw	ra,60(sp)
	.cfi_restore 1
	lw	s2,48(sp)
	.cfi_restore 18
	.loc 1 525 12
	addi	a4,s3,%lo(.LC5)
	mv	a0,s1
.LVL158:
	.loc 1 529 1
	lw	s3,44(sp)
	.cfi_restore 19
	lw	s1,52(sp)
	.cfi_restore 9
.LVL159:
	.loc 1 525 12
	lui	a2,%hi(.LC9)
.LVL160:
	.loc 1 529 1
	.loc 1 525 12
	mv	a5,a7
	addi	a2,a2,%lo(.LC9)
	.loc 1 529 1
	addi	sp,sp,64
	.cfi_def_cfa_offset 0
	.loc 1 525 12
	tail	snprintf
.LVL161:
	.cfi_endproc
.LFE27:
	.size	httpc_create_request_string.constprop.0, .-httpc_create_request_string.constprop.0
	.section	.text.httpc_init_connection_common.constprop.0,"ax",@progbits
	.align	1
	.type	httpc_init_connection_common.constprop.0, @function
httpc_init_connection_common.constprop.0:
.LFB28:
	.loc 1 533 1 is_stmt 1
	.cfi_startproc
.LVL162:
	.loc 1 536 3
	.loc 1 537 3
	.loc 1 538 3
	.loc 1 539 3
	.loc 1 544 3
	.loc 1 544 8
	.loc 1 544 7
	.loc 1 544 17
	.loc 1 547 3
	.loc 1 533 1 is_stmt 0
	addi	sp,sp,-48
	.cfi_def_cfa_offset 48
	sw	s1,36(sp)
	sw	s2,32(sp)
	sw	s4,24(sp)
	sw	s5,20(sp)
	.cfi_offset 9, -12
	.cfi_offset 18, -16
	.cfi_offset 20, -24
	.cfi_offset 21, -28
	mv	s1,a1
	mv	s4,a2
	mv	s2,a3
	mv	s5,a4
	sw	s6,16(sp)
	sw	s8,8(sp)
	sw	s9,4(sp)
	.cfi_offset 22, -32
	.cfi_offset 24, -40
	.cfi_offset 25, -44
	mv	s6,a0
	mv	s8,a5
	.loc 1 547 13
	mv	s9,a3
	li	a5,0
.LVL163:
	li	a4,0
.LVL164:
	mv	a3,s5
.LVL165:
	mv	a2,s2
.LVL166:
	mv	a1,s4
.LVL167:
	mv	a0,s1
.LVL168:
	.loc 1 533 1
	sw	s7,12(sp)
	sw	ra,44(sp)
	sw	s0,40(sp)
	sw	s3,28(sp)
	sw	s10,0(sp)
	.cfi_offset 23, -36
	.cfi_offset 1, -4
	.cfi_offset 8, -8
	.cfi_offset 19, -20
	.cfi_offset 26, -48
	.loc 1 533 1
	mv	s7,a6
	.loc 1 547 13
	call	httpc_create_request_string.constprop.0
.LVL169:
	.loc 1 548 3 is_stmt 1
	.loc 1 548 6 is_stmt 0
	li	a5,65536
	addi	a5,a5,-2
	bgtu	a0,a5,.L107
	mv	s3,a0
	.loc 1 552 3 is_stmt 1
.LVL170:
	.loc 1 558 3
	.loc 1 559 3
	.loc 1 563 3
	.loc 1 563 25 is_stmt 0
	li	a0,52
.LVL171:
	call	mem_malloc
.LVL172:
	mv	s0,a0
.LVL173:
	.loc 1 564 3 is_stmt 1
	.loc 1 565 12 is_stmt 0
	li	a7,-1
	.loc 1 564 5
	beq	a0,zero,.L101
	.loc 1 567 3 is_stmt 1
	li	a2,52
	li	a1,0
	call	memset
.LVL174:
	.loc 1 568 3
	.loc 1 569 18 is_stmt 0
	addi	s10,s3,1
	.loc 1 568 22
	li	a5,30
	.loc 1 569 18
	slli	a1,s10,16
	.loc 1 568 22
	sw	a5,12(s0)
	.loc 1 569 3 is_stmt 1
	.loc 1 569 18 is_stmt 0
	li	a2,640
	srli	a1,a1,16
	li	a0,0
	call	pbuf_alloc
.LVL175:
	.loc 1 569 16
	sw	a0,16(s0)
	.loc 1 570 3 is_stmt 1
	.loc 1 570 6 is_stmt 0
	bne	a0,zero,.L102
.L113:
	.loc 1 590 5 is_stmt 1
	mv	a0,s0
	call	httpc_free_state
.LVL176:
	.loc 1 591 5
	.loc 1 591 12 is_stmt 0
	li	a7,-1
.LVL177:
.L101:
	.loc 1 614 1
	lw	ra,44(sp)
	.cfi_remember_state
	.cfi_restore 1
	lw	s0,40(sp)
	.cfi_restore 8
	lw	s1,36(sp)
	.cfi_restore 9
.LVL178:
	lw	s2,32(sp)
	.cfi_restore 18
	lw	s3,28(sp)
	.cfi_restore 19
	lw	s4,24(sp)
	.cfi_restore 20
.LVL179:
	lw	s5,20(sp)
	.cfi_restore 21
.LVL180:
	lw	s6,16(sp)
	.cfi_restore 22
.LVL181:
	lw	s7,12(sp)
	.cfi_restore 23
.LVL182:
	lw	s8,8(sp)
	.cfi_restore 24
.LVL183:
	lw	s9,4(sp)
	.cfi_restore 25
	lw	s10,0(sp)
	.cfi_restore 26
	mv	a0,a7
	addi	sp,sp,48
	.cfi_def_cfa_offset 0
	jr	ra
.LVL184:
.L102:
	.cfi_restore_state
	.loc 1 574 3 is_stmt 1
	.loc 1 574 6 is_stmt 0
	lw	a5,0(a0)
	bne	a5,zero,.L113
	.loc 1 579 3 is_stmt 1
	.loc 1 579 24 is_stmt 0
	li	a5,-1
	sw	a5,44(s0)
	.loc 1 588 3 is_stmt 1
	.loc 1 588 14 is_stmt 0
	lw	a0,16(s1)
	call	altcp_new
.LVL185:
	.loc 1 588 12
	sw	a0,0(s0)
	.loc 1 589 3 is_stmt 1
	.loc 1 589 5 is_stmt 0
	beq	a0,zero,.L113
	.loc 1 593 3 is_stmt 1
	.loc 1 593 20 is_stmt 0
	lbu	a5,6(s1)
	beq	a5,zero,.L105
	lhu	s2,4(s1)
.L105:
	.loc 1 594 3
	mv	a1,s0
	.loc 1 593 20
	sh	s2,8(s0)
	.loc 1 594 3 is_stmt 1
	call	altcp_arg
.LVL186:
	.loc 1 595 3
	lw	a0,0(s0)
	lui	a1,%hi(httpc_tcp_recv)
	addi	a1,a1,%lo(httpc_tcp_recv)
	call	altcp_recv
.LVL187:
	.loc 1 596 3
	lw	a0,0(s0)
	lui	a1,%hi(httpc_tcp_err)
	addi	a1,a1,%lo(httpc_tcp_err)
	call	altcp_err
.LVL188:
	.loc 1 597 3
	lw	a0,0(s0)
	lui	a1,%hi(httpc_tcp_poll)
	li	a2,1
	addi	a1,a1,%lo(httpc_tcp_poll)
	call	altcp_poll
.LVL189:
	.loc 1 598 3
	lw	a0,0(s0)
	lui	a1,%hi(httpc_tcp_sent)
	addi	a1,a1,%lo(httpc_tcp_sent)
	call	altcp_sent
.LVL190:
	.loc 1 601 3
	.loc 1 602 25 is_stmt 0
	lw	a4,16(s0)
	.loc 1 601 14
	mv	a5,s10
	mv	a3,s5
	lw	a4,4(a4)
	mv	a2,s9
	mv	a1,s4
	mv	a0,s1
	call	httpc_create_request_string.constprop.0
.LVL191:
	.loc 1 603 3 is_stmt 1
	.loc 1 603 6 is_stmt 0
	beq	s3,a0,.L106
	.loc 1 604 5 is_stmt 1
	mv	a0,s0
.LVL192:
	call	httpc_free_state
.LVL193:
	.loc 1 605 5
.L107:
	.loc 1 549 12 is_stmt 0
	li	a7,-6
	j	.L101
.LVL194:
.L106:
	.loc 1 608 3 is_stmt 1
	.loc 1 608 16 is_stmt 0
	sw	s8,28(s0)
	.loc 1 609 3 is_stmt 1
	.loc 1 609 22 is_stmt 0
	sw	s1,32(s0)
	.loc 1 610 3 is_stmt 1
	.loc 1 610 21 is_stmt 0
	sw	s7,36(s0)
	.loc 1 612 3 is_stmt 1
	.loc 1 612 15 is_stmt 0
	sw	s0,0(s6)
	.loc 1 613 3 is_stmt 1
	.loc 1 613 10 is_stmt 0
	li	a7,0
	j	.L101
	.cfi_endproc
.LFE28:
	.size	httpc_init_connection_common.constprop.0, .-httpc_init_connection_common.constprop.0
	.section	.text.httpc_get_file,"ax",@progbits
	.align	1
	.globl	httpc_get_file
	.type	httpc_get_file, @function
httpc_get_file:
.LFB21:
	.loc 1 660 1 is_stmt 1
	.cfi_startproc
.LVL195:
	.loc 1 661 3
	.loc 1 662 3
	.loc 1 664 3
	.loc 1 664 8
	.loc 1 660 1 is_stmt 0
	addi	sp,sp,-64
	.cfi_def_cfa_offset 64
	sw	s0,56(sp)
	sw	ra,60(sp)
	sw	s1,52(sp)
	sw	s2,48(sp)
	sw	s3,44(sp)
	sw	s4,40(sp)
	sw	s5,36(sp)
	sw	s6,32(sp)
	sw	s7,28(sp)
	.cfi_offset 8, -8
	.cfi_offset 1, -4
	.cfi_offset 9, -12
	.cfi_offset 18, -16
	.cfi_offset 19, -20
	.cfi_offset 20, -24
	.cfi_offset 21, -28
	.cfi_offset 22, -32
	.cfi_offset 23, -36
	.loc 1 664 17
	li	s0,-16
	.loc 1 664 11
	beq	a0,zero,.L115
	mv	s4,a2
	.loc 1 664 17 discriminator 2
	li	s0,-16
	.loc 1 664 4 discriminator 2
	beq	a2,zero,.L115
	mv	s5,a4
	.loc 1 664 12 discriminator 4
	beq	a4,zero,.L115
	mv	s3,a0
	mv	s6,a1
	mv	s1,a3
	mv	s7,a5
	mv	s2,a6
	.loc 1 664 25 is_stmt 1
	.loc 1 664 34
	.loc 1 666 3
.LVL196:
.LBB73:
.LBB74:
	.loc 1 635 3
	.loc 1 635 27 is_stmt 0
	call	ip4addr_ntoa
.LVL197:
	mv	a2,a0
.LVL198:
	.loc 1 636 3 is_stmt 1
	.loc 1 637 12 is_stmt 0
	li	s0,-6
	.loc 1 636 6
	beq	a0,zero,.L115
	.loc 1 639 3 is_stmt 1
	.loc 1 639 10 is_stmt 0
	mv	a6,s7
	mv	a5,s5
	mv	a4,s4
	mv	a3,s6
	mv	a1,s1
	addi	a0,sp,12
.LVL199:
	call	httpc_init_connection_common.constprop.0
.LVL200:
	mv	s0,a0
.LVL201:
.LBE74:
.LBE73:
	.loc 1 668 3 is_stmt 1
	.loc 1 668 6 is_stmt 0
	bne	a0,zero,.L115
	.loc 1 672 3 is_stmt 1
	.loc 1 672 6 is_stmt 0
	lbu	a5,6(s1)
	.loc 1 673 11
	lw	a0,12(sp)
.LVL202:
	mv	a1,s1
	.loc 1 672 6
	bne	a5,zero,.L127
	.loc 1 675 5 is_stmt 1
	.loc 1 675 11 is_stmt 0
	mv	a1,s3
.L127:
	call	httpc_get_internal_addr
.LVL203:
	mv	s0,a0
.LVL204:
	.loc 1 677 3 is_stmt 1
	.loc 1 677 5 is_stmt 0
	beq	a0,zero,.L118
	.loc 1 678 5 is_stmt 1
	lw	a0,12(sp)
.LVL205:
	call	httpc_free_state
.LVL206:
	.loc 1 679 5
.L115:
	.loc 1 686 1 is_stmt 0
	lw	ra,60(sp)
	.cfi_remember_state
	.cfi_restore 1
	mv	a0,s0
	lw	s0,56(sp)
	.cfi_restore 8
	lw	s1,52(sp)
	.cfi_restore 9
	lw	s2,48(sp)
	.cfi_restore 18
	lw	s3,44(sp)
	.cfi_restore 19
	lw	s4,40(sp)
	.cfi_restore 20
	lw	s5,36(sp)
	.cfi_restore 21
	lw	s6,32(sp)
	.cfi_restore 22
	lw	s7,28(sp)
	.cfi_restore 23
	addi	sp,sp,64
	.cfi_def_cfa_offset 0
	jr	ra
.LVL207:
.L118:
	.cfi_restore_state
	.loc 1 682 3 is_stmt 1
	.loc 1 682 6 is_stmt 0
	beq	s2,zero,.L115
	.loc 1 683 5 is_stmt 1
	.loc 1 683 17 is_stmt 0
	lw	a5,12(sp)
	sw	a5,0(s2)
	j	.L115
	.cfi_endproc
.LFE21:
	.size	httpc_get_file, .-httpc_get_file
	.section	.text.httpc_get_file_dns,"ax",@progbits
	.align	1
	.globl	httpc_get_file_dns
	.type	httpc_get_file_dns, @function
httpc_get_file_dns:
.LFB22:
	.loc 1 705 1 is_stmt 1
	.cfi_startproc
.LVL208:
	.loc 1 706 3
	.loc 1 707 3
	.loc 1 709 3
	.loc 1 709 8
	.loc 1 705 1 is_stmt 0
	addi	sp,sp,-64
	.cfi_def_cfa_offset 64
	sw	s0,56(sp)
	sw	s1,52(sp)
	sw	ra,60(sp)
	sw	s2,48(sp)
	sw	s3,44(sp)
	.cfi_offset 8, -8
	.cfi_offset 9, -12
	.cfi_offset 1, -4
	.cfi_offset 18, -16
	.cfi_offset 19, -20
	.loc 1 705 1
	mv	s0,a0
	.loc 1 709 17
	li	s1,-16
	.loc 1 709 11
	beq	a0,zero,.L129
	.loc 1 709 4 discriminator 2
	beq	a2,zero,.L129
	.loc 1 709 12 discriminator 4
	beq	a4,zero,.L129
	mv	a0,a1
.LVL209:
	mv	s2,a6
	.loc 1 709 25 is_stmt 1
	.loc 1 709 34
	.loc 1 711 3
.LVL210:
	mv	a1,a3
.LVL211:
.LBB79:
.LBB80:
	.loc 1 623 3
	.loc 1 623 10 is_stmt 0
	mv	a6,a5
.LVL212:
	mv	a3,a0
.LVL213:
	mv	a5,a4
.LVL214:
	addi	a0,sp,28
.LVL215:
	mv	a4,a2
.LVL216:
	mv	a2,s0
.LVL217:
	sw	a1,12(sp)
	call	httpc_init_connection_common.constprop.0
.LVL218:
	mv	s1,a0
.LVL219:
.LBE80:
.LBE79:
	.loc 1 712 3 is_stmt 1
	.loc 1 712 6 is_stmt 0
	bne	a0,zero,.L129
	.loc 1 716 3 is_stmt 1
	.loc 1 716 6 is_stmt 0
	lw	a1,12(sp)
	.loc 1 717 11
	lw	s3,28(sp)
	.loc 1 716 6
	lbu	a5,6(a1)
	beq	a5,zero,.L130
.LVL220:
.L145:
.LBB81:
.LBB82:
	.loc 1 501 5 is_stmt 1
	.loc 1 501 11 is_stmt 0
	mv	a0,s3
	call	httpc_get_internal_addr
.LVL221:
	mv	s0,a0
.LVL222:
.LBE82:
.LBE81:
	.loc 1 721 3 is_stmt 1
	.loc 1 721 5 is_stmt 0
	beq	a0,zero,.L133
.LVL223:
.L134:
	.loc 1 722 5 is_stmt 1
	lw	a0,28(sp)
	.loc 1 723 12 is_stmt 0
	mv	s1,s0
	.loc 1 722 5
	call	httpc_free_state
.LVL224:
	.loc 1 723 5 is_stmt 1
.L129:
	.loc 1 730 1 is_stmt 0
	lw	ra,60(sp)
	.cfi_remember_state
	.cfi_restore 1
	lw	s0,56(sp)
	.cfi_restore 8
	lw	s2,48(sp)
	.cfi_restore 18
	lw	s3,44(sp)
	.cfi_restore 19
	mv	a0,s1
	lw	s1,52(sp)
	.cfi_restore 9
	addi	sp,sp,64
	.cfi_def_cfa_offset 0
	jr	ra
.LVL225:
.L130:
	.cfi_restore_state
	.loc 1 719 5 is_stmt 1
.LBB84:
.LBB83:
	.loc 1 490 3
	.loc 1 491 3
	.loc 1 491 8
	.loc 1 491 7
	.loc 1 491 17
	.loc 1 494 3
	.loc 1 494 9 is_stmt 0
	lui	a2,%hi(httpc_dns_found)
	addi	a1,s3,4
	mv	a0,s0
.LVL226:
	mv	a3,s3
	addi	a2,a2,%lo(httpc_dns_found)
	sw	a1,12(sp)
.LVL227:
	call	dns_gethostbyname
.LVL228:
	.loc 1 499 6
	lw	a1,12(sp)
	.loc 1 494 9
	mv	s0,a0
.LVL229:
	.loc 1 499 3 is_stmt 1
	.loc 1 499 6 is_stmt 0
	beq	a0,zero,.L145
	.loc 1 502 10 is_stmt 1
	.loc 1 502 13 is_stmt 0
	li	a5,-5
	bne	a0,a5,.L134
.LVL230:
.L133:
.LBE83:
.LBE84:
	.loc 1 726 3 is_stmt 1
	.loc 1 726 6 is_stmt 0
	beq	s2,zero,.L129
	.loc 1 727 5 is_stmt 1
	.loc 1 727 17 is_stmt 0
	lw	a5,28(sp)
	sw	a5,0(s2)
	j	.L129
	.cfi_endproc
.LFE22:
	.size	httpc_get_file_dns, .-httpc_get_file_dns
	.globl	g_cont_type
	.section	.rodata.str1.4,"aMS",@progbits,1
	.align	2
.LC10:
	.string	"application/x-www-form-urlencoded"
	.align	2
.LC11:
	.string	"application/json"
	.align	2
.LC12:
	.string	"multipart/form-data"
	.align	2
.LC13:
	.string	"text/xml"
	.section	.data.g_cont_type,"aw"
	.align	2
	.set	.LANCHOR0,. + 0
	.type	g_cont_type, @object
	.size	g_cont_type, 16
g_cont_type:
	.word	.LC10
	.word	.LC11
	.word	.LC12
	.word	.LC13
	.text
.Letext0:
	.file 2 "/mnt/d/GitHub/bl_iot_sdk_for_aithinker/toolchain/riscv/Linux/riscv64-unknown-elf/include/machine/_default_types.h"
	.file 3 "/mnt/d/GitHub/bl_iot_sdk_for_aithinker/toolchain/riscv/Linux/lib/gcc/riscv64-unknown-elf/10.2.0/include/stddef.h"
	.file 4 "/mnt/d/GitHub/bl_iot_sdk_for_aithinker/toolchain/riscv/Linux/riscv64-unknown-elf/include/sys/_stdint.h"
	.file 5 "/mnt/d/GitHub/bl_iot_sdk_for_aithinker/components/network/lwip/src/include/lwip/arch.h"
	.file 6 "/mnt/d/GitHub/bl_iot_sdk_for_aithinker/components/network/lwip/src/include/lwip/ip4_addr.h"
	.file 7 "/mnt/d/GitHub/bl_iot_sdk_for_aithinker/components/network/lwip/src/include/lwip/ip_addr.h"
	.file 8 "/mnt/d/GitHub/bl_iot_sdk_for_aithinker/components/network/lwip/src/include/lwip/err.h"
	.file 9 "/mnt/d/GitHub/bl_iot_sdk_for_aithinker/components/network/lwip/src/include/lwip/pbuf.h"
	.file 10 "/mnt/d/GitHub/bl_iot_sdk_for_aithinker/components/network/lwip/src/include/lwip/altcp.h"
	.file 11 "/mnt/d/GitHub/bl_iot_sdk_for_aithinker/components/network/lwip/src/include/lwip/prot/iana.h"
	.file 12 "/mnt/d/GitHub/bl_iot_sdk_for_aithinker/components/network/httpc/include/http_client.h"
	.file 13 "/mnt/d/GitHub/bl_iot_sdk_for_aithinker/components/network/lwip/src/include/lwip/mem.h"
	.file 14 "/mnt/d/GitHub/bl_iot_sdk_for_aithinker/components/network/lwip/src/include/lwip/dns.h"
	.file 15 "/mnt/d/GitHub/bl_iot_sdk_for_aithinker/toolchain/riscv/Linux/riscv64-unknown-elf/include/stdlib.h"
	.file 16 "/mnt/d/GitHub/bl_iot_sdk_for_aithinker/toolchain/riscv/Linux/riscv64-unknown-elf/include/string.h"
	.file 17 "/mnt/d/GitHub/bl_iot_sdk_for_aithinker/toolchain/riscv/Linux/riscv64-unknown-elf/include/stdio.h"