	.file	"bl_wpas_glue.c"
	.option nopic
	.attribute arch, "rv32i2p0_m2p0_f2p0_c2p0"
	.attribute unaligned_access, 0
	.attribute stack_align, 16
	.text
.Ltext0:
	.cfi_sections	.debug_frame
	.section	.text.wpa_sm_alloc_eapol,"ax",@progbits
	.align	1
	.globl	wpa_sm_alloc_eapol
	.type	wpa_sm_alloc_eapol, @function
wpa_sm_alloc_eapol:
.LFB88:
	.file 1 "/mnt/d/GitHub/bl_iot_sdk_for_aithinker/components/security/wpa_supplicant/src/bl_supplicant/bl_wpas_glue.c"
	.loc 1 25 1
	.cfi_startproc
.LVL0:
	.loc 1 26 5
	.loc 1 27 5
	.loc 1 29 5
	.loc 1 25 1 is_stmt 0
	addi	sp,sp,-48
	.cfi_def_cfa_offset 48
	sw	s0,40(sp)
	sw	s1,36(sp)
	sw	s2,32(sp)
	sw	s3,28(sp)
	sw	s4,24(sp)
	sw	ra,44(sp)
	.cfi_offset 8, -8
	.cfi_offset 9, -12
	.cfi_offset 18, -16
	.cfi_offset 19, -20
	.cfi_offset 20, -24
	.cfi_offset 1, -4
	.loc 1 25 1
	mv	s1,a5
	.loc 1 29 46
	addi	a5,a3,4
.LVL1:
	.loc 1 25 1
	mv	s4,a0
	.loc 1 29 14
	sw	a5,0(a4)
	.loc 1 31 5 is_stmt 1
	.loc 1 31 14 is_stmt 0
	addi	a0,a3,18
.LVL2:
	.loc 1 25 1
	mv	s0,a1
	mv	s2,a2
	.loc 1 31 14
	sw	a3,12(sp)
	call	wpa_supplicant_malloc
.LVL3:
	.loc 1 33 5 is_stmt 1
	.loc 1 34 15 is_stmt 0
	li	s3,0
	.loc 1 33 8
	beq	a0,zero,.L1
	.loc 1 38 5 is_stmt 1
	.loc 1 42 20 is_stmt 0
	lw	a2,12(sp)
	.loc 1 41 15
	sb	s0,15(a0)
	.loc 1 40 18
	sb	s4,14(a0)
	.loc 1 42 20
	srli	a5,a2,8
	slli	a4,a2,8
	or	a4,a4,a5
	slli	a5,a4,16
	srli	a5,a5,16
	.loc 1 42 17
	srli	a5,a5,8
	sb	a4,16(a0)
	sb	a5,17(a0)
	.loc 1 38 9
	addi	s3,a0,14
.LVL4:
	.loc 1 40 5 is_stmt 1
	.loc 1 41 5
	.loc 1 42 5
	.loc 1 44 5
	.loc 1 45 20 is_stmt 0
	addi	s0,a0,18
	.loc 1 44 8
	beq	s2,zero,.L3
	.loc 1 45 9 is_stmt 1
	mv	a1,s2
	mv	a0,s0
.LVL5:
	call	memcpy
.LVL6:
.L4:
	.loc 1 50 5
	.loc 1 50 8 is_stmt 0
	beq	s1,zero,.L1
	.loc 1 51 9 is_stmt 1
	.loc 1 51 19 is_stmt 0
	sw	s0,0(s1)
.LVL7:
.L1:
	.loc 1 55 1
	lw	ra,44(sp)
	.cfi_remember_state
	.cfi_restore 1
	lw	s0,40(sp)
	.cfi_restore 8
	lw	s1,36(sp)
	.cfi_restore 9
.LVL8:
	lw	s2,32(sp)
	.cfi_restore 18
.LVL9:
	lw	s4,24(sp)
	.cfi_restore 20
	mv	a0,s3
	lw	s3,28(sp)
	.cfi_restore 19
	addi	sp,sp,48
	.cfi_def_cfa_offset 0
	jr	ra
.LVL10:
.L3:
	.cfi_restore_state
	.loc 1 47 9 is_stmt 1
	li	a1,0
	mv	a0,s0
.LVL11:
	call	memset
.LVL12:
	j	.L4
	.cfi_endproc
.LFE88:
	.size	wpa_sm_alloc_eapol, .-wpa_sm_alloc_eapol
	.section	.text.wpa_sm_free_eapol,"ax",@progbits
	.align	1
	.globl	wpa_sm_free_eapol
	.type	wpa_sm_free_eapol, @function
wpa_sm_free_eapol:
.LFB89:
	.loc 1 58 1
	.cfi_startproc
.LVL13:
	.loc 1 59 5
	.loc 1 59 8 is_stmt 0
	beq	a0,zero,.L10
	.loc 1 60 9 is_stmt 1
.LVL14:
	.loc 1 61 9
	addi	a0,a0,-14
.LVL15:
	tail	wpa_supplicant_free
.LVL16:
.L10:
	.loc 1 63 1 is_stmt 0
	ret
	.cfi_endproc
.LFE89:
	.size	wpa_sm_free_eapol, .-wpa_sm_free_eapol
	.section	.text.wpa_sm_deauthenticate,"ax",@progbits
	.align	1
	.globl	wpa_sm_deauthenticate
	.type	wpa_sm_deauthenticate, @function
wpa_sm_deauthenticate:
.LFB90:
	.loc 1 66 1 is_stmt 1
	.cfi_startproc
.LVL17:
	.loc 1 69 5
	.loc 1 69 8 is_stmt 0
	lw	a4,300(a0)
	li	a5,5
	bleu	a4,a5,.L12
	.loc 1 70 9 is_stmt 1
.LVL18:
	.file 2 "/mnt/d/GitHub/bl_iot_sdk_for_aithinker/components/security/wpa_supplicant/src/rsn_supp/pmksa_cache.h"
	.loc 2 116 1
	.loc 1 71 9
	lbu	a0,378(a0)
.LVL19:
	tail	wpa_deauthenticate
.LVL20:
.L12:
	.loc 1 73 1 is_stmt 0
	ret
	.cfi_endproc
.LFE90:
	.size	wpa_sm_deauthenticate, .-wpa_sm_deauthenticate
	.section	.text.wpa_sm_mlme_setprotection,"ax",@progbits
	.align	1
	.globl	wpa_sm_mlme_setprotection
	.type	wpa_sm_mlme_setprotection, @function
wpa_sm_mlme_setprotection:
.LFB91:
	.loc 1 93 1 is_stmt 1
	.cfi_startproc
.LVL21:
	.loc 1 94 5
	.loc 1 95 1 is_stmt 0
	li	a0,0
.LVL22:
	ret
	.cfi_endproc
.LFE91:
	.size	wpa_sm_mlme_setprotection, .-wpa_sm_mlme_setprotection
	.section	.text.wpa_sm_get_beacon_ie,"ax",@progbits
	.align	1
	.globl	wpa_sm_get_beacon_ie
	.type	wpa_sm_get_beacon_ie, @function
wpa_sm_get_beacon_ie:
.LFB92:
	.loc 1 101 1 is_stmt 1
	.cfi_startproc
.LVL23:
	.loc 1 102 5
	.loc 1 103 1 is_stmt 0
	li	a0,0
.LVL24:
	ret
	.cfi_endproc
.LFE92:
	.size	wpa_sm_get_beacon_ie, .-wpa_sm_get_beacon_ie
	.section	.text.wpa_sm_disassociate,"ax",@progbits
	.align	1
	.globl	wpa_sm_disassociate
	.type	wpa_sm_disassociate, @function
wpa_sm_disassociate:
.LFB93:
	.loc 1 114 1 is_stmt 1
	.cfi_startproc
.LVL25:
	.loc 1 116 1
	ret
	.cfi_endproc
.LFE93:
	.size	wpa_sm_disassociate, .-wpa_sm_disassociate
	.text
.Letext0:
	.file 3 "/mnt/d/GitHub/bl_iot_sdk_for_aithinker/toolchain/riscv/Linux/riscv64-unknown-elf/include/machine/_default_types.h"
	.file 4 "/mnt/d/GitHub/bl_iot_sdk_for_aithinker/toolchain/riscv/Linux/lib/gcc/riscv64-unknown-elf/10.2.0/include/stddef.h"
	.file 5 "/mnt/d/GitHub/bl_iot_sdk_for_aithinker/toolchain/riscv/Linux/riscv64-unknown-elf/include/sys/_stdint.h"
	.file 6 "/mnt/d/GitHub/bl_iot_sdk_for_aithinker/components/network/wifi/include/supplicant_api.h"
	.file 7 "/mnt/d/GitHub/bl_iot_sdk_for_aithinker/components/security/wpa_supplicant/src/utils/common.h"
	.file 8 "/mnt/d/GitHub/bl_iot_sdk_for_aithinker/components/security/wpa_supplicant/src/common/eapol_common.h"
	.file 9 "/mnt/d/GitHub/bl_iot_sdk_for_aithinker/components/security/wpa_supplicant/src/common/defs.h"
	.file 10 "/mnt/d/GitHub/bl_iot_sdk_for_aithinker/components/security/wpa_supplicant/src/common/wpa_common.h"
	.file 11 "/mnt/d/GitHub/bl_iot_sdk_for_aithinker/components/security/wpa_supplicant/src/rsn_supp/wpa_i.h"
	.file 12 "/mnt/d/GitHub/bl_iot_sdk_for_aithinker/components/security/wpa_supplicant/port/include/os.h"
	.file 13 "/mnt/d/GitHub/bl_iot_sdk_for_aithinker/toolchain/riscv/Linux/riscv64-unknown-elf/include/string.h"