	.file	"bl_wpa3.c"
	.option nopic
	.attribute arch, "rv32i2p0_m2p0_f2p0_c2p0"
	.attribute unaligned_access, 0
	.attribute stack_align, 16
	.text
.Ltext0:
	.cfi_sections	.debug_frame
	.section	.text.bl_wpa3_free_sae_data,"ax",@progbits
	.align	1
	.globl	bl_wpa3_free_sae_data
	.type	bl_wpa3_free_sae_data, @function
bl_wpa3_free_sae_data:
.LFB81:
	.file 1 "/mnt/d/GitHub/bl_iot_sdk_for_aithinker/components/security/wpa_supplicant/src/bl_supplicant/bl_wpa3.c"
	.loc 1 117 1
	.cfi_startproc
	.loc 1 118 5
	.loc 1 117 1 is_stmt 0
	addi	sp,sp,-16
	.cfi_def_cfa_offset 16
	sw	s0,8(sp)
	.cfi_offset 8, -8
	.loc 1 118 9
	lui	s0,%hi(.LANCHOR0)
	.loc 1 117 1
	sw	ra,12(sp)
	.cfi_offset 1, -4
	.loc 1 118 9
	addi	s0,s0,%lo(.LANCHOR0)
	lw	a0,0(s0)
	.loc 1 118 8
	beq	a0,zero,.L2
	.loc 1 119 9 is_stmt 1
	call	wpabuf_free
.LVL0:
	.loc 1 120 9
	.loc 1 120 22 is_stmt 0
	sw	zero,0(s0)
.L2:
	.loc 1 123 5 is_stmt 1
	.loc 1 123 9 is_stmt 0
	lui	s0,%hi(.LANCHOR1)
	addi	s0,s0,%lo(.LANCHOR1)
	lw	a0,0(s0)
	.loc 1 123 8
	beq	a0,zero,.L3
	.loc 1 124 9 is_stmt 1
	call	wpabuf_free
.LVL1:
	.loc 1 125 9
	.loc 1 125 23 is_stmt 0
	sw	zero,0(s0)
.L3:
	.loc 1 127 5 is_stmt 1
	.loc 1 128 1 is_stmt 0
	lw	s0,8(sp)
	.cfi_restore 8
	lw	ra,12(sp)
	.cfi_restore 1
	.loc 1 127 5
	lui	a0,%hi(.LANCHOR2)
	.loc 1 128 1
	.loc 1 127 5
	addi	a0,a0,%lo(.LANCHOR2)
	.loc 1 128 1
	addi	sp,sp,16
	.cfi_def_cfa_offset 0
	.loc 1 127 5
	tail	sae_clear_data
.LVL2:
	.cfi_endproc
.LFE81:
	.size	bl_wpa3_free_sae_data, .-bl_wpa3_free_sae_data
	.section	.text.wpa3_build_sae_msg,"ax",@progbits
	.align	1
	.globl	wpa3_build_sae_msg
	.type	wpa3_build_sae_msg, @function
wpa3_build_sae_msg:
.LFB82:
	.loc 1 131 1 is_stmt 1
	.cfi_startproc
.LVL3:
	.loc 1 132 5
	.loc 1 134 5
	.loc 1 131 1 is_stmt 0
	addi	sp,sp,-32
	.cfi_def_cfa_offset 32
	sw	s2,16(sp)
	sw	ra,28(sp)
	sw	s0,24(sp)
	sw	s1,20(sp)
	sw	s3,12(sp)
	sw	s4,8(sp)
	sw	s5,4(sp)
	sw	s6,0(sp)
	.cfi_offset 18, -16
	.cfi_offset 1, -4
	.cfi_offset 8, -8
	.cfi_offset 9, -12
	.cfi_offset 19, -20
	.cfi_offset 20, -24
	.cfi_offset 21, -28
	.cfi_offset 22, -32
	.loc 1 134 5
	li	a5,1
	.loc 1 131 1
	mv	s2,a4
	.loc 1 134 5
	beq	a3,a5,.L12
	li	a4,2
.LVL4:
	beq	a3,a4,.L13
.LVL5:
.L43:
.LBB30:
.LBB31:
	.loc 1 109 9 is_stmt 1
.LBE31:
.LBE30:
	.loc 1 143 23 is_stmt 0
	li	a0,0
	j	.L11
.LVL6:
.L12:
	mv	s3,a0
	mv	s5,a1
	mv	s4,a2
	.loc 1 136 13 is_stmt 1
.LVL7:
.LBB34:
.LBB35:
	.loc 1 31 5
	.loc 1 32 5
	.loc 1 34 5
	.loc 1 34 9 is_stmt 0
	call	wpa_sta_cur_pmksa_matches_akm
.LVL8:
	.loc 1 34 8
	bne	a0,zero,.L43
	.loc 1 39 5 is_stmt 1
	.loc 1 39 9 is_stmt 0
	lui	s0,%hi(.LANCHOR0)
	lw	a0,%lo(.LANCHOR0)(s0)
	addi	s0,s0,%lo(.LANCHOR0)
	.loc 1 39 8
	beq	a0,zero,.L16
	.loc 1 40 9 is_stmt 1
	call	wpabuf_free
.LVL9:
	.loc 1 41 9
	.loc 1 41 22 is_stmt 0
	sw	zero,0(s0)
.L16:
	.loc 1 44 5 is_stmt 1
	.loc 1 44 9 is_stmt 0
	lui	s1,%hi(.LANCHOR3)
	lw	a5,%lo(.LANCHOR3)(s1)
	addi	s1,s1,%lo(.LANCHOR3)
	.loc 1 44 8
	beq	a5,zero,.L17
	.loc 1 45 9 is_stmt 1
.LVL10:
.LBB36:
.LBB37:
	.file 2 "/mnt/d/GitHub/bl_iot_sdk_for_aithinker/components/security/wpa_supplicant/include/utils/wpabuf.h"
	.loc 2 61 2
	.loc 2 61 12 is_stmt 0
	lw	a0,4(a5)
.LVL11:
.LBE37:
.LBE36:
	.loc 1 46 9 is_stmt 1
.L18:
	.loc 1 66 5
	.loc 1 67 5
	.loc 1 67 20 is_stmt 0
	addi	a0,a0,1538
.LVL12:
	call	wpabuf_alloc
.LVL13:
	.loc 1 67 18
	sw	a0,0(s0)
	.loc 1 68 5 is_stmt 1
	.loc 1 67 20 is_stmt 0
	mv	a1,a0
	.loc 1 68 8
	beq	a0,zero,.L43
	.loc 1 73 5 is_stmt 1
	.loc 1 73 9 is_stmt 0
	lw	a2,0(s1)
	lui	s3,%hi(.LANCHOR2)
.LVL14:
	li	a3,0
	addi	a0,s3,%lo(.LANCHOR2)
	call	sae_write_commit
.LVL15:
	.loc 1 73 8
	beq	a0,zero,.L20
	.loc 1 74 9 is_stmt 1
	.loc 1 74 13
	.loc 1 74 20
	.loc 1 75 9
	lw	a0,0(s0)
.LVL16:
.L44:
.LBE35:
.LBE34:
.LBB40:
.LBB32:
	.loc 1 107 9 is_stmt 0
	call	wpabuf_free
.LVL17:
	.loc 1 108 9 is_stmt 1
	.loc 1 108 23 is_stmt 0
	sw	zero,0(s0)
	j	.L43
.LVL18:
.L17:
.LBE32:
.LBE40:
.LBB41:
.LBB38:
	.loc 1 49 5 is_stmt 1
	lui	s6,%hi(.LANCHOR2)
	li	a1,0
	li	a2,76
	addi	a0,s6,%lo(.LANCHOR2)
	call	memset
.LVL19:
	.loc 1 50 5
	.loc 1 50 9 is_stmt 0
	li	a1,19
	addi	a0,s6,%lo(.LANCHOR2)
	call	sae_set_group
.LVL20:
	.loc 1 50 8
	bne	a0,zero,.L43
	.loc 1 55 5 is_stmt 1
	.loc 1 55 8 is_stmt 0
	beq	s3,zero,.L43
	.loc 1 60 5 is_stmt 1
	.loc 1 60 9 is_stmt 0
	mv	a0,s4
	call	strlen
.LVL21:
	mv	a3,a0
	addi	a5,s6,%lo(.LANCHOR2)
	li	a4,0
	mv	a2,s4
	mv	a1,s3
	mv	a0,s5
	call	sae_prepare_commit
.LVL22:
	.loc 1 60 8
	blt	a0,zero,.L43
	.loc 1 32 9
	li	a0,0
	j	.L18
.LVL23:
.L20:
	.loc 1 80 5 is_stmt 1
	.loc 1 80 9 is_stmt 0
	lw	a0,0(s1)
	.loc 1 80 8
	beq	a0,zero,.L21
	.loc 1 81 9 is_stmt 1
	call	wpabuf_free
.LVL24:
	.loc 1 82 9
	.loc 1 82 21 is_stmt 0
	sw	zero,0(s1)
.L21:
	.loc 1 84 5 is_stmt 1
.LBE38:
.LBE41:
	.loc 1 138 28 is_stmt 0
	lw	a4,0(s0)
.LBB42:
.LBB39:
	.loc 1 84 22
	li	a5,1
	sw	a5,%lo(.LANCHOR2)(s3)
	.loc 1 86 5 is_stmt 1
.LVL25:
.LBE39:
.LBE42:
	.loc 1 138 13
.LBB43:
.LBB44:
	.loc 2 61 2
	.loc 2 61 12 is_stmt 0
	lw	a5,4(a4)
.LVL26:
.LBE44:
.LBE43:
	.loc 1 138 26
	sw	a5,0(s2)
	.loc 1 139 13 is_stmt 1
.LVL27:
	.loc 2 105 2
.LBB45:
.LBB46:
.LBB47:
	.loc 2 98 2
	.loc 2 98 9 is_stmt 0
	lw	a0,8(a4)
	.loc 2 98 5
	bne	a0,zero,.L11
	.loc 2 100 2 is_stmt 1
	.loc 2 100 13 is_stmt 0
	addi	a0,a4,12
.LVL28:
.L11:
.LBE47:
.LBE46:
.LBE45:
	.loc 1 152 1
	lw	ra,28(sp)
	.cfi_remember_state
	.cfi_restore 1
	lw	s0,24(sp)
	.cfi_restore 8
	lw	s1,20(sp)
	.cfi_restore 9
	lw	s2,16(sp)
	.cfi_restore 18
.LVL29:
	lw	s3,12(sp)
	.cfi_restore 19
	lw	s4,8(sp)
	.cfi_restore 20
	lw	s5,4(sp)
	.cfi_restore 21
	lw	s6,0(sp)
	.cfi_restore 22
	addi	sp,sp,32
	.cfi_def_cfa_offset 0
	jr	ra
.LVL30:
.L13:
	.cfi_restore_state
	.loc 1 142 13 is_stmt 1
.LBB48:
.LBB33:
	.loc 1 91 5
	.loc 1 91 19 is_stmt 0
	lui	s1,%hi(.LANCHOR2)
	.loc 1 91 8
	lw	a4,%lo(.LANCHOR2)(s1)
	addi	s3,s1,%lo(.LANCHOR2)
	bne	a4,a5,.L43
	.loc 1 94 5 is_stmt 1
	.loc 1 94 9 is_stmt 0
	lui	s0,%hi(.LANCHOR1)
	lw	a0,%lo(.LANCHOR1)(s0)
.LVL31:
	addi	s0,s0,%lo(.LANCHOR1)
	.loc 1 94 8
	beq	a0,zero,.L22
	.loc 1 95 9 is_stmt 1
	call	wpabuf_free
.LVL32:
	.loc 1 96 9
	.loc 1 96 23 is_stmt 0
	sw	zero,0(s0)
.L22:
	.loc 1 99 5 is_stmt 1
	.loc 1 99 21 is_stmt 0
	li	a0,1538
	call	wpabuf_alloc
.LVL33:
	.loc 1 99 19
	sw	a0,0(s0)
	.loc 1 100 5 is_stmt 1
	.loc 1 99 21 is_stmt 0
	mv	a1,a0
	.loc 1 100 8
	beq	a0,zero,.L43
	.loc 1 105 5 is_stmt 1
	.loc 1 105 9 is_stmt 0
	addi	a0,s1,%lo(.LANCHOR2)
	call	sae_write_confirm
.LVL34:
	lw	a3,0(s0)
	.loc 1 105 8
	beq	a0,zero,.L23
	.loc 1 106 9 is_stmt 1
	.loc 1 106 13
	.loc 1 106 20
	.loc 1 107 9
	mv	a0,a3
	j	.L44
.L23:
	.loc 1 111 5
	.loc 1 111 22 is_stmt 0
	li	a5,2
	sw	a5,0(s3)
	.loc 1 113 5 is_stmt 1
.LBE33:
.LBE48:
	.loc 1 144 13
.LVL35:
.LBB49:
.LBB50:
	.loc 2 61 2
	.loc 2 61 12 is_stmt 0
	lw	a5,4(a3)
.LVL36:
.LBE50:
.LBE49:
	.loc 1 144 26
	sw	a5,0(s2)
	.loc 1 145 13 is_stmt 1
.LVL37:
	.loc 2 105 2
.LBB51:
.LBB52:
.LBB53:
	.loc 2 98 2
	.loc 2 98 9 is_stmt 0
	lw	a0,8(a3)
	.loc 2 98 5
	bne	a0,zero,.L11
	.loc 2 100 2 is_stmt 1
	.loc 2 100 13 is_stmt 0
	addi	a0,a3,12
.LVL38:
	j	.L11
.LBE53:
.LBE52:
.LBE51:
	.cfi_endproc
.LFE82:
	.size	wpa3_build_sae_msg, .-wpa3_build_sae_msg
	.section	.text.wpa3_parse_sae_msg,"ax",@progbits
	.align	1
	.globl	wpa3_parse_sae_msg
	.type	wpa3_parse_sae_msg, @function
wpa3_parse_sae_msg:
.LFB85:
	.loc 1 210 1 is_stmt 1
	.cfi_startproc
.LVL39:
	.loc 1 211 5
	.loc 1 213 5
	.loc 1 210 1 is_stmt 0
	addi	sp,sp,-16
	.cfi_def_cfa_offset 16
	sw	s0,8(sp)
	sw	s1,4(sp)
	sw	ra,12(sp)
	sw	s2,0(sp)
	.cfi_offset 8, -8
	.cfi_offset 9, -12
	.cfi_offset 1, -4
	.cfi_offset 18, -16
	.loc 1 213 5
	li	a5,1
	.loc 1 210 1
	mv	s0,a0
	mv	s1,a1
	.loc 1 213 5
	beq	a2,a5,.L46
	li	a4,2
	beq	a2,a4,.L47
.L54:
.LBB58:
.LBB59:
	.loc 1 161 16
	li	s0,-1
.LVL40:
.LBE59:
.LBE58:
	.loc 1 227 5 is_stmt 1
	.loc 1 227 12 is_stmt 0
	j	.L45
.LVL41:
.L46:
	.loc 1 215 13 is_stmt 1
.LBB64:
.LBB60:
	.loc 1 156 5
	.loc 1 158 5
	.loc 1 158 19 is_stmt 0
	lui	s2,%hi(.LANCHOR2)
	.loc 1 158 8
	lw	a5,%lo(.LANCHOR2)(s2)
	bne	a5,a2,.L54
	.loc 1 164 5 is_stmt 1
	.loc 1 164 8 is_stmt 0
	li	a5,76
	bne	a3,a5,.L49
	.loc 1 165 9 is_stmt 1
	.loc 1 165 13 is_stmt 0
	lui	a5,%hi(.LANCHOR3)
	lw	a0,%lo(.LANCHOR3)(a5)
	addi	s2,a5,%lo(.LANCHOR3)
	.loc 1 165 12
	beq	a0,zero,.L50
	.loc 1 166 13 is_stmt 1
	call	wpabuf_free
.LVL42:
.L50:
	.loc 1 167 9
	.loc 1 167 23 is_stmt 0
	addi	a0,s0,2
	addi	a1,s1,-2
	call	wpabuf_alloc_copy
.LVL43:
	.loc 1 167 21
	sw	a0,0(s2)
	.loc 1 168 9 is_stmt 1
	.loc 1 168 16 is_stmt 0
	li	s0,0
.LVL44:
.L45:
.LBE60:
.LBE64:
	.loc 1 228 1
	lw	ra,12(sp)
	.cfi_remember_state
	.cfi_restore 1
	mv	a0,s0
	lw	s0,8(sp)
	.cfi_restore 8
	lw	s1,4(sp)
	.cfi_restore 9
.LVL45:
	lw	s2,0(sp)
	.cfi_restore 18
	addi	sp,sp,16
	.cfi_def_cfa_offset 0
	jr	ra
.LVL46:
.L49:
	.cfi_restore_state
.LBB65:
.LBB61:
	.loc 1 171 5 is_stmt 1
	.loc 1 171 11 is_stmt 0
	lui	a5,%hi(.LANCHOR4)
	mv	a2,a1
.LVL47:
	addi	a5,a5,%lo(.LANCHOR4)
	mv	a1,a0
	li	a4,0
	li	a3,0
.LVL48:
	addi	a0,s2,%lo(.LANCHOR2)
	call	sae_parse_commit
.LVL49:
	mv	s0,a0
.LVL50:
	.loc 1 172 5 is_stmt 1
	.loc 1 172 8 is_stmt 0
	bne	a0,zero,.L45
	.loc 1 177 5 is_stmt 1
.LBE61:
.LBE65:
	.loc 1 228 1 is_stmt 0
	lw	s0,8(sp)
	.cfi_remember_state
	.cfi_restore 8
.LVL51:
	lw	ra,12(sp)
	.cfi_restore 1
	lw	s1,4(sp)
	.cfi_restore 9
.LVL52:
.LBB66:
.LBB62:
	.loc 1 177 11
	addi	a0,s2,%lo(.LANCHOR2)
.LVL53:
.LBE62:
.LBE66:
	.loc 1 228 1
	lw	s2,0(sp)
	.cfi_restore 18
	addi	sp,sp,16
	.cfi_def_cfa_offset 0
.LBB67:
.LBB63:
	.loc 1 177 11
	tail	sae_process_commit
.LVL54:
.L47:
	.cfi_restore_state
.LBE63:
.LBE67:
	.loc 1 218 13 is_stmt 1
.LBB68:
.LBB69:
	.loc 1 188 5
	.loc 1 188 19 is_stmt 0
	lui	a0,%hi(.LANCHOR2)
	addi	s2,a0,%lo(.LANCHOR2)
	lw	a4,0(s2)
	.loc 1 188 8
	beq	a4,a2,.L51
	.loc 1 189 9 is_stmt 1
	.loc 1 189 13
	.loc 1 189 20
	.loc 1 191 9
	.loc 1 192 20 is_stmt 0
	li	s0,-8
.LVL55:
	.loc 1 191 12
	beq	a4,a5,.L52
.LVL56:
.L53:
	.loc 1 194 13 is_stmt 1
	.loc 1 194 20 is_stmt 0
	li	s0,-1
.L52:
.LVL57:
.LBE69:
.LBE68:
	.loc 1 219 13 is_stmt 1
	call	bl_wpa3_free_sae_data
.LVL58:
	.loc 1 220 13
	j	.L45
.LVL59:
.L51:
.LBB71:
.LBB70:
	.loc 1 198 5
	.loc 1 198 9 is_stmt 0
	mv	a2,a1
.LVL60:
	addi	a0,a0,%lo(.LANCHOR2)
	mv	a1,s0
	call	sae_check_confirm
.LVL61:
	mv	s0,a0
.LVL62:
	.loc 1 198 8
	bne	a0,zero,.L53
	.loc 1 202 5 is_stmt 1
	.loc 1 202 22 is_stmt 0
	li	a5,3
	.loc 1 204 5
	li	a2,1
	addi	a1,s2,38
	addi	a0,s2,6
	.loc 1 202 22
	sw	a5,0(s2)
	.loc 1 204 5 is_stmt 1
	call	wpa_set_pmk
.LVL63:
	.loc 1 206 5
	.loc 1 206 12 is_stmt 0
	j	.L52
.LBE70:
.LBE71:
	.cfi_endproc
.LFE85:
	.size	wpa3_parse_sae_msg, .-wpa3_parse_sae_msg
	.section	.bss.g_sae_data,"aw",@nobits
	.align	2
	.set	.LANCHOR2,. + 0
	.type	g_sae_data, @object
	.size	g_sae_data, 76
g_sae_data:
	.zero	76
	.section	.sbss.g_sae_commit,"aw",@nobits
	.align	2
	.set	.LANCHOR0,. + 0
	.type	g_sae_commit, @object
	.size	g_sae_commit, 4
g_sae_commit:
	.zero	4
	.section	.sbss.g_sae_confirm,"aw",@nobits
	.align	2
	.set	.LANCHOR1,. + 0
	.type	g_sae_confirm, @object
	.size	g_sae_confirm, 4
g_sae_confirm:
	.zero	4
	.section	.sbss.g_sae_token,"aw",@nobits
	.align	2
	.set	.LANCHOR3,. + 0
	.type	g_sae_token, @object
	.size	g_sae_token, 4
g_sae_token:
	.zero	4
	.section	.srodata.g_allowed_groups,"a"
	.align	2
	.set	.LANCHOR4,. + 0
	.type	g_allowed_groups, @object
	.size	g_allowed_groups, 8
g_allowed_groups:
	.word	19
	.word	0
	.text
.Letext0:
	.file 3 "/mnt/d/GitHub/bl_iot_sdk_for_aithinker/toolchain/riscv/Linux/lib/gcc/riscv64-unknown-elf/10.2.0/include/stddef.h"
	.file 4 "/mnt/d/GitHub/bl_iot_sdk_for_aithinker/toolchain/riscv/Linux/riscv64-unknown-elf/include/machine/_default_types.h"
	.file 5 "/mnt/d/GitHub/bl_iot_sdk_for_aithinker/toolchain/riscv/Linux/riscv64-unknown-elf/include/sys/_stdint.h"
	.file 6 "/mnt/d/GitHub/bl_iot_sdk_for_aithinker/components/security/wpa_supplicant/src/utils/common.h"
	.file 7 "/mnt/d/GitHub/bl_iot_sdk_for_aithinker/components/security/wpa_supplicant/src/common/sae.h"
	.file 8 "/mnt/d/GitHub/bl_iot_sdk_for_aithinker/components/network/wifi/include/supplicant_api.h"
	.file 9 "/mnt/d/GitHub/bl_iot_sdk_for_aithinker/components/security/wpa_supplicant/src/bl_supplicant/bl_wifi_driver.h"
	.file 10 "/mnt/d/GitHub/bl_iot_sdk_for_aithinker/components/security/wpa_supplicant/src/rsn_supp/wpa.h"
	.file 11 "/mnt/d/GitHub/bl_iot_sdk_for_aithinker/toolchain/riscv/Linux/riscv64-unknown-elf/include/string.h"