	.file	"bl_wpa_main.c"
	.option nopic
	.attribute arch, "rv32i2p0_m2p0_f2p0_c2p0"
	.attribute unaligned_access, 0
	.attribute stack_align, 16
	.text
.Ltext0:
	.cfi_sections	.debug_frame
	.section	.text.wpa_attach,"ax",@progbits
	.align	1
	.globl	wpa_attach
	.type	wpa_attach, @function
wpa_attach:
.LFB87:
	.file 1 "/mnt/d/GitHub/bl_iot_sdk_for_aithinker/components/security/wpa_supplicant/src/bl_supplicant/bl_wpa_main.c"
	.loc 1 144 1
	.cfi_startproc
	.loc 1 145 4
.LVL0:
	.loc 1 146 5
	.loc 1 146 11 is_stmt 0
	tail	wpa_sm_init
.LVL1:
	.cfi_endproc
.LFE87:
	.size	wpa_attach, .-wpa_attach
	.section	.text.wpa_ap_rx_eapol,"ax",@progbits
	.align	1
	.globl	wpa_ap_rx_eapol
	.type	wpa_ap_rx_eapol, @function
wpa_ap_rx_eapol:
.LFB88:
	.loc 1 151 1 is_stmt 1
	.cfi_startproc
.LVL2:
	.loc 1 152 5
	.loc 1 153 5
	.loc 1 155 5
	.loc 1 155 8 is_stmt 0
	beq	a0,zero,.L4
	mv	a5,a0
	.loc 1 156 15 discriminator 1
	li	a0,0
.LVL3:
	.loc 1 155 15 discriminator 1
	beq	a1,zero,.L7
	.loc 1 159 5 is_stmt 1
	.loc 1 151 1 is_stmt 0
	addi	sp,sp,-16
	.cfi_def_cfa_offset 16
	sw	ra,12(sp)
	.cfi_offset 1, -4
	.loc 1 159 5
	lw	a0,16(a5)
	call	wpa_receive
.LVL4:
	.loc 1 161 5 is_stmt 1
	.loc 1 162 1 is_stmt 0
	lw	ra,12(sp)
	.cfi_restore 1
	.loc 1 161 11
	li	a0,1
	.loc 1 162 1
	addi	sp,sp,16
	.cfi_def_cfa_offset 0
	jr	ra
.LVL5:
.L4:
	.loc 1 156 15
	li	a0,0
.LVL6:
	ret
.LVL7:
.L7:
	.loc 1 162 1
	ret
	.cfi_endproc
.LFE88:
	.size	wpa_ap_rx_eapol, .-wpa_ap_rx_eapol
	.section	.text.wpa_deattach,"ax",@progbits
	.align	1
	.globl	wpa_deattach
	.type	wpa_deattach, @function
wpa_deattach:
.LFB89:
	.loc 1 165 1 is_stmt 1
	.cfi_startproc
	.loc 1 167 5
	.loc 1 165 1 is_stmt 0
	addi	sp,sp,-16
	.cfi_def_cfa_offset 16
	sw	ra,12(sp)
	.cfi_offset 1, -4
	.loc 1 167 5
	call	wpa_sm_deinit
.LVL8:
	.loc 1 168 5 is_stmt 1
	.loc 1 169 1 is_stmt 0
	lw	ra,12(sp)
	.cfi_restore 1
	li	a0,1
	addi	sp,sp,16
	.cfi_def_cfa_offset 0
	jr	ra
	.cfi_endproc
.LFE89:
	.size	wpa_deattach, .-wpa_deattach
	.section	.text.wpa_sta_connect,"ax",@progbits
	.align	1
	.globl	wpa_sta_connect
	.type	wpa_sta_connect, @function
wpa_sta_connect:
.LFB91:
	.loc 1 205 1 is_stmt 1
	.cfi_startproc
.LVL9:
	.loc 1 209 5
	.loc 1 205 1 is_stmt 0
	addi	sp,sp,-16
	.cfi_def_cfa_offset 16
	sw	ra,12(sp)
	.cfi_offset 1, -4
	.loc 1 209 5
	call	wpa_set_parm_at_connect
.LVL10:
	.loc 1 210 5 is_stmt 1
	.loc 1 211 1 is_stmt 0
	lw	ra,12(sp)
	.cfi_restore 1
	addi	sp,sp,16
	.cfi_def_cfa_offset 0
	.loc 1 210 5
	tail	wpa_set_4way_handshake_timer
.LVL11:
	.cfi_endproc
.LFE91:
	.size	wpa_sta_connect, .-wpa_sta_connect
	.section	.text.wpa_parse_wpa_ie_wrapper,"ax",@progbits
	.align	1
	.globl	wpa_parse_wpa_ie_wrapper
	.type	wpa_parse_wpa_ie_wrapper, @function
wpa_parse_wpa_ie_wrapper:
.LFB92:
	.loc 1 214 1 is_stmt 1
	.cfi_startproc
.LVL12:
	.loc 1 215 5
	.loc 1 216 5
	.loc 1 218 5
	.loc 1 214 1 is_stmt 0
	addi	sp,sp,-48
	.cfi_def_cfa_offset 48
	sw	s0,40(sp)
	.cfi_offset 8, -8
	mv	s0,a2
	.loc 1 218 11
	mv	a2,sp
.LVL13:
	.loc 1 214 1
	sw	ra,44(sp)
	sw	s1,36(sp)
	.cfi_offset 1, -4
	.cfi_offset 9, -12
	.loc 1 218 11
	call	wpa_parse_wpa_ie
.LVL14:
	.loc 1 219 17
	lw	a5,0(sp)
	.loc 1 218 11
	mv	s1,a0
.LVL15:
	.loc 1 219 5 is_stmt 1
	.loc 1 220 29 is_stmt 0
	lw	a0,4(sp)
	.loc 1 219 17
	sw	a5,0(s0)
	.loc 1 220 5 is_stmt 1
	.loc 1 220 29 is_stmt 0
	call	cipher_type_map_supp_to_public
.LVL16:
	.loc 1 220 27
	sw	a0,4(s0)
	.loc 1 221 5 is_stmt 1
	.loc 1 221 26 is_stmt 0
	lw	a0,8(sp)
	call	cipher_type_map_supp_to_public
.LVL17:
	.loc 1 222 20
	lw	a5,12(sp)
	.loc 1 221 24
	sw	a0,8(s0)
	.loc 1 222 5 is_stmt 1
	.loc 1 225 31 is_stmt 0
	lw	a0,28(sp)
	.loc 1 222 20
	sw	a5,12(s0)
	.loc 1 223 5 is_stmt 1
	.loc 1 223 24 is_stmt 0
	lw	a5,16(sp)
	sw	a5,16(s0)
	.loc 1 224 5 is_stmt 1
	.loc 1 224 17 is_stmt 0
	lw	a5,24(sp)
	sw	a5,24(s0)
	.loc 1 225 5 is_stmt 1
	.loc 1 225 31 is_stmt 0
	call	cipher_type_map_supp_to_public
.LVL18:
	.loc 1 225 29
	sw	a0,28(s0)
	.loc 1 227 5 is_stmt 1
	.loc 1 228 1 is_stmt 0
	lw	ra,44(sp)
	.cfi_restore 1
	lw	s0,40(sp)
	.cfi_restore 8
.LVL19:
	mv	a0,s1
	lw	s1,36(sp)
	.cfi_restore 9
.LVL20:
	addi	sp,sp,48
	.cfi_def_cfa_offset 0
	jr	ra
	.cfi_endproc
.LFE92:
	.size	wpa_parse_wpa_ie_wrapper, .-wpa_parse_wpa_ie_wrapper
	.section	.text.wpa_sta_disconnected_cb,"ax",@progbits
	.align	1
	.type	wpa_sta_disconnected_cb, @function
wpa_sta_disconnected_cb:
.LFB93:
	.loc 1 231 1 is_stmt 1
	.cfi_startproc
.LVL21:
	.loc 1 232 5
	.loc 1 249 13
	.loc 1 231 1 is_stmt 0
	addi	sp,sp,-16
	.cfi_def_cfa_offset 16
	sw	ra,12(sp)
	.cfi_offset 1, -4
	.loc 1 249 13
	call	wpa_clear_4way_handshake_timer
.LVL22:
	.loc 1 250 13 is_stmt 1
	.loc 1 256 1 is_stmt 0
	lw	ra,12(sp)
	.cfi_restore 1
	addi	sp,sp,16
	.cfi_def_cfa_offset 0
	.loc 1 250 13
	tail	bl_wpa3_free_sae_data
.LVL23:
	.cfi_endproc
.LFE93:
	.size	wpa_sta_disconnected_cb, .-wpa_sta_disconnected_cb
	.section	.text.wpa_install_key,"ax",@progbits
	.align	1
	.globl	wpa_install_key
	.type	wpa_install_key, @function
wpa_install_key:
.LFB79:
	.loc 1 38 1 is_stmt 1
	.cfi_startproc
.LVL24:
	.loc 1 39 5
	.loc 1 38 1 is_stmt 0
	lbu	t1,4(sp)
	.loc 1 39 5
	sw	t1,4(sp)
.LVL25:
	tail	bl_wifi_set_sta_key_internal
.LVL26:
	.cfi_endproc
.LFE79:
	.size	wpa_install_key, .-wpa_install_key
	.section	.text.wpa_get_key,"ax",@progbits
	.align	1
	.globl	wpa_get_key
	.type	wpa_get_key, @function
wpa_get_key:
.LFB80:
	.loc 1 44 1 is_stmt 1
	.cfi_startproc
.LVL27:
	.loc 1 46 5
	.loc 1 47 1 is_stmt 0
	li	a0,0
.LVL28:
	ret
	.cfi_endproc
.LFE80:
	.size	wpa_get_key, .-wpa_get_key
	.section	.text.wpa_sendto_wrapper,"ax",@progbits
	.align	1
	.globl	wpa_sendto_wrapper
	.type	wpa_sendto_wrapper, @function
wpa_sendto_wrapper:
.LFB81:
	.loc 1 65 1 is_stmt 1
	.cfi_startproc
.LVL29:
	.loc 1 66 5
	.loc 1 68 5
	.loc 1 65 1 is_stmt 0
	addi	sp,sp,-32
	.cfi_def_cfa_offset 32
	sw	s1,20(sp)
	.cfi_offset 9, -12
	mv	s1,a2
	sw	s2,16(sp)
	sw	s4,8(sp)
	.cfi_offset 18, -16
	.cfi_offset 20, -24
	mv	s2,a0
	mv	s4,a1
	.loc 1 68 9
	li	a2,640
.LVL30:
	mv	a1,s1
.LVL31:
	li	a0,128
.LVL32:
	.loc 1 65 1
	sw	s3,12(sp)
	sw	ra,28(sp)
	sw	s0,24(sp)
	.cfi_offset 19, -20
	.cfi_offset 1, -4
	.cfi_offset 8, -8
	.loc 1 65 1
	mv	s3,a3
	.loc 1 68 9
	call	pbuf_alloc
.LVL33:
	.loc 1 69 5 is_stmt 1
	.loc 1 69 8 is_stmt 0
	beq	a0,zero,.L20
	.loc 1 73 19
	mv	a2,s1
	mv	a1,s4
	mv	s0,a0
	.loc 1 73 5 is_stmt 1
	.loc 1 73 19 is_stmt 0
	call	pbuf_take
.LVL34:
	.loc 1 73 8
	beq	a0,zero,.L22
.L24:
	.loc 1 78 5 is_stmt 1
	mv	a0,s0
	.loc 1 79 1 is_stmt 0
	lw	s0,24(sp)
	.cfi_remember_state
	.cfi_restore 8
.LVL35:
	lw	ra,28(sp)
	.cfi_restore 1
	lw	s1,20(sp)
	.cfi_restore 9
	lw	s2,16(sp)
	.cfi_restore 18
	lw	s3,12(sp)
	.cfi_restore 19
.LVL36:
	lw	s4,8(sp)
	.cfi_restore 20
.LVL37:
	addi	sp,sp,32
	.cfi_def_cfa_offset 0
	.loc 1 78 5
	tail	pbuf_free
.LVL38:
.L22:
	.cfi_restore_state
	.loc 1 77 5 is_stmt 1
	mv	a2,s3
	mv	a1,s2
	mv	a0,s0
	call	bl_wifi_eth_tx
.LVL39:
	j	.L24
.LVL40:
.L20:
	.loc 1 79 1 is_stmt 0
	lw	ra,28(sp)
	.cfi_restore 1
	lw	s0,24(sp)
	.cfi_restore 8
	lw	s1,20(sp)
	.cfi_restore 9
	lw	s2,16(sp)
	.cfi_restore 18
	lw	s3,12(sp)
	.cfi_restore 19
.LVL41:
	lw	s4,8(sp)
	.cfi_restore 20
.LVL42:
	addi	sp,sp,32
	.cfi_def_cfa_offset 0
	jr	ra
	.cfi_endproc
.LFE81:
	.size	wpa_sendto_wrapper, .-wpa_sendto_wrapper
	.section	.text.wpa_deauthenticate,"ax",@progbits
	.align	1
	.globl	wpa_deauthenticate
	.type	wpa_deauthenticate, @function
wpa_deauthenticate:
.LFB82:
	.loc 1 82 1 is_stmt 1
	.cfi_startproc
.LVL43:
	.loc 1 83 5
	.loc 1 82 1 is_stmt 0
	addi	sp,sp,-32
	.cfi_def_cfa_offset 32
	sw	ra,28(sp)
	.cfi_offset 1, -4
	.loc 1 82 1
	sw	a0,12(sp)
	sw	a1,8(sp)
	.loc 1 83 5
	call	wpa_clear_4way_handshake_timer
.LVL44:
	.loc 1 84 5 is_stmt 1
	lw	a1,8(sp)
	lw	a0,12(sp)
	.loc 1 85 1 is_stmt 0
	lw	ra,28(sp)
	.cfi_restore 1
	addi	sp,sp,32
	.cfi_def_cfa_offset 0
	.loc 1 84 5
	tail	bl_wifi_auth_done_internal
.LVL45:
	.cfi_endproc
.LFE82:
	.size	wpa_deauthenticate, .-wpa_deauthenticate
	.section	.rodata.wpa_config_profile.str1.4,"aMS",@progbits,1
	.align	2
.LC0:
	.string	"0"
	.align	2
.LC1:
	.string	"/mnt/d/GitHub/bl_iot_sdk_for_aithinker/components/security/wpa_supplicant/src/bl_supplicant/bl_wpa_main.c"
	.section	.text.wpa_config_profile,"ax",@progbits
	.align	1
	.globl	wpa_config_profile
	.type	wpa_config_profile, @function
wpa_config_profile:
.LFB83:
	.loc 1 110 1 is_stmt 1
	.cfi_startproc
.LVL46:
	.loc 1 111 5
	.loc 1 112 13 is_stmt 0
	lw	a5,52(a0)
	.loc 1 112 8
	li	a4,2
	.loc 1 111 9
	lhu	a1,56(a0)
.LVL47:
	.loc 1 112 5 is_stmt 1
	.loc 1 113 9 is_stmt 0
	li	a0,1
.LVL48:
	.loc 1 112 8
	beq	a5,a4,.L33
	.loc 1 114 12 is_stmt 1
	.loc 1 114 46 is_stmt 0
	addi	a4,a5,-3
	.loc 1 114 15
	li	a3,1
	.loc 1 115 9
	li	a0,2
	.loc 1 114 15
	bleu	a4,a3,.L33
	.loc 1 116 12 is_stmt 1
	.loc 1 116 15 is_stmt 0
	li	a4,5
	bne	a5,a4,.L30
	.loc 1 117 9 is_stmt 1
	li	a0,4
.L33:
	tail	wpa_set_profile
.LVL49:
.L30:
.LBB4:
.LBB5:
	.loc 1 119 8
	.loc 1 119 20 is_stmt 0
	lui	a3,%hi(.LC0)
	lui	a2,%hi(.LANCHOR0)
	lui	a0,%hi(.LC1)
.LBE5:
.LBE4:
	.loc 1 110 1
	addi	sp,sp,-16
	.cfi_def_cfa_offset 16
.LBB8:
.LBB6:
	.loc 1 119 20
	addi	a3,a3,%lo(.LC0)
	addi	a2,a2,%lo(.LANCHOR0)
	li	a1,119
.LVL50:
	addi	a0,a0,%lo(.LC1)
.LBE6:
.LBE8:
	.loc 1 110 1
	sw	ra,12(sp)
.LVL51:
	.cfi_offset 1, -4
.LBB9:
.LBB7:
	.loc 1 119 20
	call	__assert_func
.LVL52:
.LBE7:
.LBE9:
	.cfi_endproc
.LFE83:
	.size	wpa_config_profile, .-wpa_config_profile
	.section	.text.wpa_config_bss,"ax",@progbits
	.align	1
	.globl	wpa_config_bss
	.type	wpa_config_bss, @function
wpa_config_bss:
.LFB84:
	.loc 1 124 1 is_stmt 1
	.cfi_startproc
.LVL53:
	.loc 1 125 5
	.loc 1 127 5
	.loc 1 127 11 is_stmt 0
	lbu	a7,126(a0)
	lbu	a6,125(a0)
	lbu	a5,59(a0)
	lbu	a4,58(a0)
	lbu	a1,1(a0)
	addi	a3,a0,8
	addi	a2,a0,2
	lbu	a0,0(a0)
.LVL54:
	tail	wpa_set_bss
.LVL55:
	.cfi_endproc
.LFE84:
	.size	wpa_config_bss, .-wpa_config_bss
	.section	.rodata.wpa_sta_config.str1.4,"aMS",@progbits,1
	.align	2
.LC2:
	.string	"ret == 0"
	.section	.text.wpa_sta_config,"ax",@progbits
	.align	1
	.globl	wpa_sta_config
	.type	wpa_sta_config, @function
wpa_sta_config:
.LFB90:
	.loc 1 194 1 is_stmt 1
	.cfi_startproc
.LVL56:
	.loc 1 198 5
	.loc 1 199 5
	.loc 1 194 1 is_stmt 0
	addi	sp,sp,-16
	.cfi_def_cfa_offset 16
	sw	s0,8(sp)
	sw	ra,12(sp)
	.cfi_offset 8, -8
	.cfi_offset 1, -4
	.loc 1 194 1
	mv	s0,a0
	.loc 1 199 5
	call	wpa_config_profile
.LVL57:
	.loc 1 200 5 is_stmt 1
	.loc 1 200 11 is_stmt 0
	mv	a0,s0
	call	wpa_config_bss
.LVL58:
	.loc 1 201 4 is_stmt 1
	.loc 1 201 16 is_stmt 0
	beq	a0,zero,.L35
.LVL59:
.LBB12:
.LBB13:
	.loc 1 201 18
	lui	a3,%hi(.LC2)
	lui	a2,%hi(.LANCHOR1)
	lui	a0,%hi(.LC1)
.LVL60:
	addi	a3,a3,%lo(.LC2)
	addi	a2,a2,%lo(.LANCHOR1)
	li	a1,201
	addi	a0,a0,%lo(.LC1)
	call	__assert_func
.LVL61:
.L35:
.LBE13:
.LBE12:
	.loc 1 202 1
	lw	ra,12(sp)
	.cfi_restore 1
	lw	s0,8(sp)
	.cfi_restore 8
.LVL62:
	addi	sp,sp,16
	.cfi_def_cfa_offset 0
	jr	ra
	.cfi_endproc
.LFE90:
	.size	wpa_sta_config, .-wpa_sta_config
	.section	.text.wpa_config_assoc_ie,"ax",@progbits
	.align	1
	.globl	wpa_config_assoc_ie
	.type	wpa_config_assoc_ie, @function
wpa_config_assoc_ie:
.LFB85:
	.loc 1 132 1 is_stmt 1
	.cfi_startproc
.LVL63:
	.loc 1 133 5
	slli	a3,a3,16
.LVL64:
	li	a4,1
	srli	a3,a3,16
	li	a1,0
.LVL65:
	tail	bl_wifi_set_appie_internal
.LVL66:
	.cfi_endproc
.LFE85:
	.size	wpa_config_assoc_ie, .-wpa_config_assoc_ie
	.section	.text.wpa_neg_complete,"ax",@progbits
	.align	1
	.globl	wpa_neg_complete
	.type	wpa_neg_complete, @function
wpa_neg_complete:
.LFB86:
	.loc 1 138 1
	.cfi_startproc
.LVL67:
	.loc 1 139 5
	.loc 1 138 1 is_stmt 0
	addi	sp,sp,-32
	.cfi_def_cfa_offset 32
	sw	ra,28(sp)
	.cfi_offset 1, -4
	.loc 1 138 1
	sw	a0,12(sp)
	.loc 1 139 5
	call	wpa_clear_4way_handshake_timer
.LVL68:
	.loc 1 140 5 is_stmt 1
	lw	a0,12(sp)
	.loc 1 141 1 is_stmt 0
	lw	ra,28(sp)
	.cfi_restore 1
	.loc 1 140 5
	li	a1,0
	.loc 1 141 1
	addi	sp,sp,32
	.cfi_def_cfa_offset 0
	.loc 1 140 5
	tail	bl_wifi_auth_done_internal
.LVL69:
	.cfi_endproc
.LFE86:
	.size	wpa_neg_complete, .-wpa_neg_complete
	.section	.text.bl_supplicant_init,"ax",@progbits
	.align	1
	.globl	bl_supplicant_init
	.type	bl_supplicant_init, @function
bl_supplicant_init:
.LFB94:
	.loc 1 288 1 is_stmt 1
	.cfi_startproc
	.loc 1 289 5
.LVL70:
	.loc 1 291 5
	lui	a0,%hi(.LANCHOR2)
	.loc 1 288 1 is_stmt 0
	addi	sp,sp,-16
	.cfi_def_cfa_offset 16
	.loc 1 291 5
	addi	a0,a0,%lo(.LANCHOR2)
	.loc 1 288 1
	sw	ra,12(sp)
	.cfi_offset 1, -4
	.loc 1 291 5
	call	bl_wifi_register_wpa_cb_internal
.LVL71:
	.loc 1 297 5 is_stmt 1
	.loc 1 298 1 is_stmt 0
	lw	ra,12(sp)
	.cfi_restore 1
	li	a0,0
	addi	sp,sp,16
	.cfi_def_cfa_offset 0
	jr	ra
	.cfi_endproc
.LFE94:
	.size	bl_supplicant_init, .-bl_supplicant_init
	.section	.text.bl_supplicant_deinit,"ax",@progbits
	.align	1
	.globl	bl_supplicant_deinit
	.type	bl_supplicant_deinit, @function
bl_supplicant_deinit:
.LFB95:
	.loc 1 301 1 is_stmt 1
	.cfi_startproc
	.loc 1 302 5
	.loc 1 302 12 is_stmt 0
	tail	bl_wifi_unregister_wpa_cb_internal
.LVL72:
	.cfi_endproc
.LFE95:
	.size	bl_supplicant_deinit, .-bl_supplicant_deinit
	.section	.rodata.__func__.0,"a"
	.align	2
	.set	.LANCHOR1,. + 0
	.type	__func__.0, @object
	.size	__func__.0, 15
__func__.0:
	.string	"wpa_sta_config"
	.section	.rodata.__func__.1,"a"
	.align	2
	.set	.LANCHOR0,. + 0
	.type	__func__.1, @object
	.size	__func__.1, 19
__func__.1:
	.string	"wpa_config_profile"
	.section	.rodata.wpa_cb,"a"
	.align	2
	.set	.LANCHOR2,. + 0
	.type	wpa_cb, @object
	.size	wpa_cb, 60
wpa_cb:
	.word	wpa_attach
	.word	wpa_deattach
	.word	wpa_sta_config
	.word	wpa_sta_connect
	.word	wpa_sta_disconnected_cb
	.word	wpa_sm_rx_eapol
	.word	hostap_init
	.word	hostap_deinit
	.word	wpa_ap_join
	.word	wpa_ap_sta_associated
	.word	wpa_ap_remove
	.word	wpa_ap_rx_eapol
	.word	wpa_parse_wpa_ie_wrapper
	.word	wpa3_build_sae_msg
	.word	wpa3_parse_sae_msg
	.text
.Letext0:
	.file 2 "/mnt/d/GitHub/bl_iot_sdk_for_aithinker/toolchain/riscv/Linux/riscv64-unknown-elf/include/machine/_default_types.h"
	.file 3 "/mnt/d/GitHub/bl_iot_sdk_for_aithinker/toolchain/riscv/Linux/lib/gcc/riscv64-unknown-elf/10.2.0/include/stddef.h"
	.file 4 "/mnt/d/GitHub/bl_iot_sdk_for_aithinker/toolchain/riscv/Linux/riscv64-unknown-elf/include/sys/_stdint.h"
	.file 5 "/mnt/d/GitHub/bl_iot_sdk_for_aithinker/components/network/lwip/src/include/lwip/arch.h"
	.file 6 "/mnt/d/GitHub/bl_iot_sdk_for_aithinker/components/network/lwip/src/include/lwip/err.h"
	.file 7 "/mnt/d/GitHub/bl_iot_sdk_for_aithinker/components/network/lwip/src/include/lwip/pbuf.h"
	.file 8 "/mnt/d/GitHub/bl_iot_sdk_for_aithinker/components/network/wifi/include/supplicant_api.h"
	.file 9 "/mnt/d/GitHub/bl_iot_sdk_for_aithinker/components/security/wpa_supplicant/src/bl_supplicant/bl_wifi_driver.h"
	.file 10 "/mnt/d/GitHub/bl_iot_sdk_for_aithinker/components/security/wpa_supplicant/src/utils/common.h"
	.file 11 "/mnt/d/GitHub/bl_iot_sdk_for_aithinker/components/security/wpa_supplicant/src/common/defs.h"
	.file 12 "/mnt/d/GitHub/bl_iot_sdk_for_aithinker/components/security/wpa_supplicant/src/common/wpa_common.h"
	.file 13 "/mnt/d/GitHub/bl_iot_sdk_for_aithinker/components/security/wpa_supplicant/src/ap/wpa_auth.h"
	.file 14 "/mnt/d/GitHub/bl_iot_sdk_for_aithinker/components/security/wpa_supplicant/src/ap/wpa_auth_i.h"
	.file 15 "/mnt/d/GitHub/bl_iot_sdk_for_aithinker/components/security/wpa_supplicant/src/ap/ap_config.h"
	.file 16 "/mnt/d/GitHub/bl_iot_sdk_for_aithinker/components/security/wpa_supplicant/src/ap/hostapd.h"
	.file 17 "/mnt/d/GitHub/bl_iot_sdk_for_aithinker/components/security/wpa_supplicant/src/rsn_supp/wpa_i.h"
	.file 18 "/mnt/d/GitHub/bl_iot_sdk_for_aithinker/components/security/wpa_supplicant/src/bl_supplicant/bl_wpa3_i.h"
	.file 19 "/mnt/d/GitHub/bl_iot_sdk_for_aithinker/components/security/wpa_supplicant/src/rsn_supp/wpa_ie.h"
	.file 20 "/mnt/d/GitHub/bl_iot_sdk_for_aithinker/components/security/wpa_supplicant/src/rsn_supp/wpa.h"
	.file 21 "/mnt/d/GitHub/bl_iot_sdk_for_aithinker/toolchain/riscv/Linux/riscv64-unknown-elf/include/assert.h"