	.file	"blcrypto_suite_porting.c"
	.option nopic
	.attribute arch, "rv32i2p0_m2p0_f2p0_c2p0"
	.attribute unaligned_access, 0
	.attribute stack_align, 16
	.text
.Ltext0:
	.cfi_sections	.debug_frame
	.section	.text.blcrypto_suite_calloc,"ax",@progbits
	.align	1
	.globl	blcrypto_suite_calloc
	.type	blcrypto_suite_calloc, @function
blcrypto_suite_calloc:
.LFB1:
	.file 1 "/mnt/d/GitHub/bl_iot_sdk_for_aithinker/components/security/blcrypto_suite/src/blcrypto_suite_porting.c"
	.loc 1 5 1
	.cfi_startproc
.LVL0:
	.loc 1 6 5
	.loc 1 6 12 is_stmt 0
	mul	a2,a0,a1
.LVL1:
	.loc 1 7 5 is_stmt 1
	.loc 1 5 1 is_stmt 0
	addi	sp,sp,-32
	.cfi_def_cfa_offset 32
	sw	s0,24(sp)
	sw	ra,28(sp)
	.cfi_offset 8, -8
	.cfi_offset 1, -4
	.loc 1 7 17
	mv	a0,a2
.LVL2:
	sw	a2,12(sp)
	call	pvPortMalloc
.LVL3:
	mv	s0,a0
.LVL4:
	.loc 1 8 5 is_stmt 1
	.loc 1 8 8 is_stmt 0
	beq	a0,zero,.L1
	.loc 1 9 9 is_stmt 1
	lw	a2,12(sp)
	li	a1,0
	call	memset
.LVL5:
	.loc 1 11 5
.L1:
	.loc 1 12 1 is_stmt 0
	lw	ra,28(sp)
	.cfi_restore 1
	mv	a0,s0
	lw	s0,24(sp)
	.cfi_restore 8
.LVL6:
	addi	sp,sp,32
	.cfi_def_cfa_offset 0
.LVL7:
	jr	ra
	.cfi_endproc
.LFE1:
	.size	blcrypto_suite_calloc, .-blcrypto_suite_calloc
	.section	.text.blcrypto_suite_free,"ax",@progbits
	.align	1
	.globl	blcrypto_suite_free
	.type	blcrypto_suite_free, @function
blcrypto_suite_free:
.LFB2:
	.loc 1 15 1 is_stmt 1
	.cfi_startproc
.LVL8:
	.loc 1 16 5
	tail	vPortFree
.LVL9:
	.cfi_endproc
.LFE2:
	.size	blcrypto_suite_free, .-blcrypto_suite_free
	.text
.Letext0:
	.file 2 "/mnt/d/GitHub/bl_iot_sdk_for_aithinker/components/platform/soc/bl602/freertos_riscv_ram/config/portable.h"
	.file 3 "/mnt/d/GitHub/bl_iot_sdk_for_aithinker/toolchain/riscv/Linux/riscv64-unknown-elf/include/string.h"
	.file 4 "/mnt/d/GitHub/bl_iot_sdk_for_aithinker/toolchain/riscv/Linux/lib/gcc/riscv64-unknown-elf/10.2.0/include/stddef.h"