	.file	"blcrypto_suite_hacc_secp256r1_mul.c"
	.option nopic
	.attribute arch, "rv32i2p0_m2p0_f2p0_c2p0"
	.attribute unaligned_access, 0
	.attribute stack_align, 16
	.text
.Ltext0:
	.cfi_sections	.debug_frame
	.section	.rodata.blcrypto_suite_hacc_secp256r1_mul_bin.str1.4,"aMS",@progbits,1
	.align	2
.LC0:
	.string	"sum = X1\r\n"
	.align	2
.LC1:
	.string	"Error! infinite point + infinite point\r\n"
	.section	.text.blcrypto_suite_hacc_secp256r1_mul_bin,"ax",@progbits
	.align	1
	.globl	blcrypto_suite_hacc_secp256r1_mul_bin
	.type	blcrypto_suite_hacc_secp256r1_mul_bin, @function
blcrypto_suite_hacc_secp256r1_mul_bin:
.LFB15:
	.file 1 "/mnt/d/GitHub/bl_iot_sdk_for_aithinker/components/security/blcrypto_suite/src/blcrypto_suite_hacc_secp256r1_mul.c"
	.loc 1 424 1
	.cfi_startproc
.LVL0:
	.loc 1 425 5
.LBB16:
.LBB17:
	.loc 1 93 5
.LBE17:
.LBE16:
	.loc 1 424 1 is_stmt 0
	addi	sp,sp,-96
	.cfi_def_cfa_offset 96
	sw	s1,84(sp)
	.cfi_offset 9, -12
.LBB22:
.LBB18:
	.loc 1 93 5
	lui	s1,%hi(.LANCHOR0)
.LBE18:
.LBE22:
	.loc 1 424 1
	sw	s2,80(sp)
	sw	s3,76(sp)
	sw	s4,72(sp)
	.cfi_offset 18, -16
	.cfi_offset 19, -20
	.cfi_offset 20, -24
	mv	s3,a3
	sw	s7,60(sp)
	mv	s4,a2
.LBB23:
.LBB19:
	.loc 1 93 5
	li	a3,8
.LVL1:
	addi	a2,s1,%lo(.LANCHOR0)
.LVL2:
	li	a0,3
.LVL3:
	.cfi_offset 23, -36
.LBE19:
.LBE23:
	.loc 1 424 1
	mv	s7,a1
	mv	s2,a4
.LBB24:
.LBB20:
	.loc 1 93 5
	li	a1,0
.LVL4:
	li	a4,0
.LVL5:
.LBE20:
.LBE24:
	.loc 1 424 1
	sw	ra,92(sp)
	sw	s0,88(sp)
	sw	s6,64(sp)
	.cfi_offset 1, -4
	.cfi_offset 8, -8
	.cfi_offset 22, -32
	mv	s0,a5
	sw	s5,68(sp)
	sw	s8,56(sp)
	sw	s9,52(sp)
	sw	s10,48(sp)
	sw	s11,44(sp)
	.cfi_offset 21, -28
	.cfi_offset 24, -40
	.cfi_offset 25, -44
	.cfi_offset 26, -48
	.cfi_offset 27, -52
.LBB25:
.LBB21:
	.loc 1 93 5
	call	Sec_Eng_PKA_Write_Data
.LVL6:
	.loc 1 94 5 is_stmt 1
	lui	a2,%hi(.LANCHOR1)
	li	a4,0
	li	a3,8
	addi	a2,a2,%lo(.LANCHOR1)
	li	a1,1
	li	a0,3
	call	Sec_Eng_PKA_Write_Data
.LVL7:
	.loc 1 95 5
	lui	a2,%hi(.LANCHOR2)
	li	a4,0
	li	a3,8
	addi	a2,a2,%lo(.LANCHOR2)
	li	a1,2
	li	a0,3
	call	Sec_Eng_PKA_Write_Data
.LVL8:
	.loc 1 97 5
.LBE21:
.LBE25:
	.loc 1 429 5
	li	a3,1
	li	a2,8
	li	a1,7
	li	a0,4
	call	Sec_Eng_PKA_CREG
.LVL9:
	.loc 1 431 5
.LBB26:
.LBB27:
	.loc 1 102 5
	lui	s6,%hi(.LANCHOR3)
	li	a4,0
	li	a3,8
	addi	a2,s6,%lo(.LANCHOR3)
	li	a1,0
	li	a0,3
	call	Sec_Eng_PKA_Write_Data
.LVL10:
	.loc 1 103 5
	lui	a2,%hi(.LANCHOR4)
	li	a4,0
	li	a3,8
	addi	a2,a2,%lo(.LANCHOR4)
	li	a1,1
	li	a0,3
	call	Sec_Eng_PKA_Write_Data
.LVL11:
	.loc 1 104 5
	lui	a2,%hi(.LANCHOR5)
	li	a4,0
	li	a3,8
	addi	a2,a2,%lo(.LANCHOR5)
	li	a1,8
	li	a0,3
	call	Sec_Eng_PKA_Write_Data
.LVL12:
	.loc 1 105 5
	lui	a2,%hi(.LANCHOR6)
	li	a4,0
	li	a3,8
	addi	a2,a2,%lo(.LANCHOR6)
	li	a1,9
	li	a0,3
	call	Sec_Eng_PKA_Write_Data
.LVL13:
	.loc 1 106 5
	lui	a2,%hi(.LANCHOR7)
	li	a4,0
	li	a3,8
	addi	a2,a2,%lo(.LANCHOR7)
	li	a1,10
	li	a0,3
	call	Sec_Eng_PKA_Write_Data
.LVL14:
	.loc 1 107 5
	lui	a2,%hi(.LANCHOR8)
	li	a4,0
	li	a3,8
	addi	a2,a2,%lo(.LANCHOR8)
	li	a1,11
	li	a0,3
	call	Sec_Eng_PKA_Write_Data
.LVL15:
	.loc 1 108 5
	lui	a2,%hi(.LANCHOR9)
	li	a4,0
	li	a3,8
	addi	a2,a2,%lo(.LANCHOR9)
	li	a1,12
	li	a0,3
	call	Sec_Eng_PKA_Write_Data
.LVL16:
	.loc 1 109 5
	lui	a2,%hi(.LANCHOR10)
	li	a4,0
	li	a3,8
	addi	a2,a2,%lo(.LANCHOR10)
	li	a1,19
	li	a0,3
	call	Sec_Eng_PKA_Write_Data
.LVL17:
	.loc 1 110 5
	lui	a2,%hi(.LANCHOR11)
	li	a4,0
	li	a3,8
	addi	a2,a2,%lo(.LANCHOR11)
	li	a1,20
	li	a0,3
	call	Sec_Eng_PKA_Write_Data
.LVL18:
	.loc 1 112 5
.LBE27:
.LBE26:
	.loc 1 435 5
	lui	a2,%hi(.LANCHOR12)
	li	a4,0
	li	a3,8
	addi	a2,a2,%lo(.LANCHOR12)
	li	a1,2
	li	a0,3
	call	Sec_Eng_PKA_Write_Data
.LVL19:
	.loc 1 438 5
	lui	a2,%hi(.LANCHOR13)
	li	a4,0
	li	a3,8
	addi	a2,a2,%lo(.LANCHOR13)
	li	a1,3
	li	a0,3
	call	Sec_Eng_PKA_Write_Data
.LVL20:
	.loc 1 442 5
	li	a4,1
	li	a3,2
	li	a2,3
	li	a1,4
	li	a0,3
	call	Sec_Eng_PKA_Move_Data
.LVL21:
	.loc 1 446 5
	li	a4,0
	li	a3,8
	mv	a2,s4
	li	a1,5
	li	a0,3
	call	Sec_Eng_PKA_Write_Data
.LVL22:
	.loc 1 449 5
	mv	a2,s3
	li	a4,0
	li	a3,8
	li	a1,6
	li	a0,3
	call	Sec_Eng_PKA_Write_Data
.LVL23:
	.loc 1 453 5
	li	a4,1
	li	a3,3
	li	a2,3
	li	a1,7
	li	a0,3
	call	Sec_Eng_PKA_Move_Data
.LVL24:
	.loc 1 455 5
	li	a3,1
	li	a2,8
	li	a1,7
	li	a0,4
	call	Sec_Eng_PKA_CREG
.LVL25:
	.loc 1 457 5
.LBB28:
.LBB29:
	.loc 1 385 6 is_stmt 0
	li	s3,0
.LVL26:
	.loc 1 386 18
	li	a5,31
.L2:
.LVL27:
	.loc 1 386 10 is_stmt 1
	.loc 1 386 12 is_stmt 0
	add	a4,s7,s3
	.loc 1 386 10
	lbu	a4,0(a4)
	beq	a4,zero,.L3
.L6:
.LVL28:
	.loc 1 390 10 is_stmt 1
	.loc 1 385 6 is_stmt 0
	li	s4,31
.LVL29:
	.loc 1 402 21
	lui	s9,%hi(.LC0)
.LVL30:
.L4:
	.loc 1 391 9 is_stmt 1
	.loc 1 391 14 is_stmt 0
	add	a5,s7,s4
	.loc 1 391 12
	lbu	s10,0(a5)
.LVL31:
	.loc 1 392 9 is_stmt 1
	.loc 1 393 9
	.loc 1 393 17
	.loc 1 393 14 is_stmt 0
	li	s8,0
	.loc 1 394 25
	li	s5,1
.LVL32:
.L12:
	.loc 1 394 13 is_stmt 1
	.loc 1 395 13
	.loc 1 394 25 is_stmt 0
	sll	a5,s5,s8
	.loc 1 394 18
	and	a5,a5,s10
	.loc 1 395 15
	beq	a5,zero,.L7
	.loc 1 396 17 is_stmt 1
.LVL33:
.LBB30:
.LBB31:
	.loc 1 117 5
	.loc 1 134 5
	li	a4,8
	li	a3,3
	li	a2,2
	li	a1,3
	addi	a0,sp,28
	call	Sec_Eng_PKA_LCMP
.LVL34:
	.loc 1 136 5
	li	a4,19
	li	a3,3
	li	a2,3
	li	a1,3
	addi	a0,sp,29
	call	Sec_Eng_PKA_LCMP
.LVL35:
	.loc 1 138 5
	li	a4,3
	li	a3,3
	li	a2,20
	li	a1,3
	addi	a0,sp,30
	call	Sec_Eng_PKA_LCMP
.LVL36:
	.loc 1 140 5
	li	a4,8
	li	a3,3
	li	a2,4
	li	a1,3
	addi	a0,sp,31
	call	Sec_Eng_PKA_LCMP
.LVL37:
	.loc 1 141 5
	.loc 1 141 20 is_stmt 0
	lbu	a5,29(sp)
	lbu	s11,28(sp)
	.loc 1 144 5
	li	a4,8
	li	a3,3
	.loc 1 141 20
	and	s11,s11,a5
	lbu	a5,30(sp)
	.loc 1 144 5
	li	a2,5
	li	a1,3
	.loc 1 141 20
	and	s11,s11,a5
	lbu	a5,31(sp)
	.loc 1 144 5
	addi	a0,sp,28
	.loc 1 141 20
	and	s11,s11,a5
.LVL38:
	.loc 1 144 5 is_stmt 1
	call	Sec_Eng_PKA_LCMP
.LVL39:
	.loc 1 146 5
	li	a4,19
	li	a3,3
	li	a2,6
	li	a1,3
	addi	a0,sp,29
	call	Sec_Eng_PKA_LCMP
.LVL40:
	.loc 1 148 5
	li	a4,6
	li	a3,3
	li	a2,20
	li	a1,3
	addi	a0,sp,30
	call	Sec_Eng_PKA_LCMP
.LVL41:
	.loc 1 150 5
	li	a3,3
	li	a4,8
	li	a2,7
	li	a1,3
	addi	a0,sp,31
	call	Sec_Eng_PKA_LCMP
.LVL42:
	.loc 1 151 5
	.loc 1 151 20 is_stmt 0
	lbu	a5,29(sp)
	lbu	a3,28(sp)
	and	a3,a3,a5
	lbu	a5,30(sp)
	and	a3,a3,a5
	lbu	a5,31(sp)
	and	a3,a3,a5
.LVL43:
.LBE31:
.LBE30:
	.loc 1 397 17 is_stmt 1
	.loc 1 397 19 is_stmt 0
	bne	s11,s5,.L8
	.loc 1 397 37
	bne	a3,zero,.L9
	.loc 1 399 21 is_stmt 1
.LVL44:
.LBB32:
.LBB33:
	.loc 1 157 5
	li	a4,0
	li	a3,5
.LVL45:
	li	a2,3
	li	a1,2
	li	a0,3
	call	Sec_Eng_PKA_Move_Data
.LVL46:
	.loc 1 159 5
	li	a4,0
	li	a3,6
	li	a2,3
	li	a1,3
	li	a0,3
	call	Sec_Eng_PKA_Move_Data
.LVL47:
	.loc 1 161 5
	li	a4,1
	li	a3,7
	li	a2,3
	li	a1,4
	li	a0,3
	call	Sec_Eng_PKA_Move_Data
.LVL48:
.L7:
.LBE33:
.LBE32:
	.loc 1 411 13
.LBB34:
.LBB35:
	.loc 1 288 5
	li	a7,0
	li	a6,3
	li	a5,5
	li	a4,3
	li	a3,5
	li	a2,3
	li	a1,13
	li	a0,3
	sw	zero,0(sp)
	call	Sec_Eng_PKA_MMUL
.LVL49:
	.loc 1 292 5
	li	a7,0
	li	a6,3
	li	a5,7
	li	a4,3
	li	a3,7
	li	a2,3
	li	a1,14
	li	a0,3
	sw	zero,0(sp)
	call	Sec_Eng_PKA_MMUL
.LVL50:
	.loc 1 296 5
	li	a7,0
	li	a6,3
	li	a5,14
	li	a4,3
	li	a3,13
	li	a2,3
	li	a1,13
	li	a0,3
	sw	zero,0(sp)
	call	Sec_Eng_PKA_MSUB
.LVL51:
	.loc 1 300 5
	li	a7,0
	li	a6,3
	li	a5,13
	li	a4,3
	li	a3,10
	li	a2,3
	li	a1,13
	li	a0,3
	sw	zero,0(sp)
	call	Sec_Eng_PKA_MMUL
.LVL52:
	.loc 1 304 5
	li	a7,0
	li	a6,3
	li	a5,7
	li	a4,3
	li	a3,6
	li	a2,3
	li	a1,14
	li	a0,3
	sw	zero,0(sp)
	call	Sec_Eng_PKA_MMUL
.LVL53:
	.loc 1 308 5
	li	a7,0
	li	a6,3
	li	a5,6
	li	a4,3
	li	a3,5
	li	a2,3
	li	a1,15
	li	a0,3
	sw	zero,0(sp)
	call	Sec_Eng_PKA_MMUL
.LVL54:
	.loc 1 312 5
	li	a7,0
	li	a6,3
	li	a5,13
	li	a4,3
	li	a3,13
	li	a2,3
	li	a1,7
	li	a0,3
	sw	zero,0(sp)
	call	Sec_Eng_PKA_MMUL
.LVL55:
	.loc 1 316 5
	li	a7,0
	li	a6,3
	li	a5,14
	li	a4,3
	li	a3,15
	li	a2,3
	li	a1,15
	li	a0,3
	sw	zero,0(sp)
	call	Sec_Eng_PKA_MMUL
.LVL56:
	.loc 1 320 5
	li	a7,0
	li	a6,3
	li	a5,15
	li	a4,3
	li	a3,12
	li	a2,3
	li	a1,5
	li	a0,3
	sw	zero,0(sp)
	call	Sec_Eng_PKA_MMUL
.LVL57:
	.loc 1 324 5
	li	a7,0
	li	a6,3
	li	a5,5
	li	a4,3
	li	a3,7
	li	a2,3
	li	a1,7
	li	a0,3
	sw	zero,0(sp)
	call	Sec_Eng_PKA_MSUB
.LVL58:
	.loc 1 328 5
	li	a7,0
	li	a6,3
	li	a5,7
	li	a4,3
	li	a3,9
	li	a2,3
	li	a1,5
	li	a0,3
	sw	zero,0(sp)
	call	Sec_Eng_PKA_MMUL
.LVL59:
	.loc 1 332 5
	li	a7,0
	li	a6,3
	li	a5,14
	li	a4,3
	li	a3,5
	li	a2,3
	li	a1,5
	li	a0,3
	sw	zero,0(sp)
	call	Sec_Eng_PKA_MMUL
.LVL60:
	.loc 1 336 5
	li	a7,0
	li	a6,3
	li	a5,15
	li	a4,3
	li	a3,11
	li	a2,3
	li	a1,15
	li	a0,3
	sw	zero,0(sp)
	call	Sec_Eng_PKA_MMUL
.LVL61:
	.loc 1 340 5
	li	a7,0
	li	a6,3
	li	a5,14
	li	a4,3
	li	a3,14
	li	a2,3
	li	a1,16
	li	a0,3
	sw	zero,0(sp)
	call	Sec_Eng_PKA_MMUL
.LVL62:
	.loc 1 344 5
	li	a7,0
	li	a6,3
	li	a5,7
	li	a4,3
	li	a3,15
	li	a2,3
	li	a1,15
	li	a0,3
	sw	zero,0(sp)
	call	Sec_Eng_PKA_MSUB
.LVL63:
	.loc 1 348 5
	li	a7,0
	li	a6,3
	li	a5,6
	li	a4,3
	li	a3,6
	li	a2,3
	li	a1,6
	li	a0,3
	sw	zero,0(sp)
	call	Sec_Eng_PKA_MMUL
.LVL64:
	.loc 1 352 5
	li	a7,0
	li	a6,3
	li	a5,13
	li	a4,3
	li	a3,15
	li	a2,3
	li	a1,15
	li	a0,3
	sw	zero,0(sp)
	call	Sec_Eng_PKA_MMUL
.LVL65:
	.loc 1 356 5
	li	a7,0
	li	a6,3
	li	a5,6
	li	a4,3
	li	a3,12
	li	a2,3
	li	a1,6
	li	a0,3
	sw	zero,0(sp)
	call	Sec_Eng_PKA_MMUL
.LVL66:
	.loc 1 360 5
	li	a7,0
	li	a6,3
	li	a5,16
	li	a4,3
	li	a3,6
	li	a2,3
	li	a1,6
	li	a0,3
	sw	zero,0(sp)
	call	Sec_Eng_PKA_MMUL
.LVL67:
	.loc 1 364 5
	li	a7,0
	li	a6,3
	li	a5,6
	li	a4,3
	li	a3,15
	li	a2,3
	li	a1,6
	li	a0,3
	sw	zero,0(sp)
	call	Sec_Eng_PKA_MSUB
.LVL68:
	.loc 1 368 5
	li	a7,0
	li	a6,3
	li	a5,16
	li	a4,3
	li	a3,14
	li	a2,3
	li	a1,7
	li	a0,3
	sw	zero,0(sp)
	call	Sec_Eng_PKA_MMUL
.LVL69:
	.loc 1 372 5
	li	a5,7
	sw	s5,0(sp)
	li	a7,0
	li	a6,3
	li	a4,3
	li	a3,12
	li	a2,3
	li	a1,7
	li	a0,3
	call	Sec_Eng_PKA_MMUL
.LVL70:
.LBE35:
.LBE34:
	.loc 1 393 21
	.loc 1 393 22 is_stmt 0
	addi	s8,s8,1
.LVL71:
	.loc 1 393 17 is_stmt 1
	.loc 1 393 9 is_stmt 0
	li	a5,8
	bne	s8,a5,.L12
	.loc 1 413 9 is_stmt 1
	.loc 1 413 11 is_stmt 0
	beq	s4,zero,.L11
	.loc 1 390 15 is_stmt 1
	.loc 1 390 16 is_stmt 0
	addi	s4,s4,-1
.LVL72:
	.loc 1 390 10 is_stmt 1
	.loc 1 390 5 is_stmt 0
	bgeu	s4,s3,.L4
	j	.L11
.LVL73:
.L3:
	.loc 1 386 18
	beq	s3,a5,.L6
	.loc 1 387 9 is_stmt 1
	.loc 1 387 10 is_stmt 0
	addi	s3,s3,1
.LVL74:
	j	.L2
.LVL75:
.L8:
	.loc 1 400 23 is_stmt 1
	.loc 1 400 25 is_stmt 0
	bne	s11,zero,.L9
	.loc 1 400 43
	bne	a3,s5,.L10
	.loc 1 402 21 is_stmt 1
	addi	a0,s9,%lo(.LC0)
	call	bflb_platform_printf
.LVL76:
	j	.L7
.LVL77:
.L10:
	.loc 1 403 23
	.loc 1 403 43 is_stmt 0
	bne	a3,zero,.L9
	.loc 1 405 21 is_stmt 1
.LVL78:
.LBB36:
.LBB37:
	.loc 1 182 5
	sw	zero,0(sp)
	li	a7,0
	li	a6,3
	li	a5,4
	li	a4,3
	li	a3,6
.LVL79:
	li	a2,3
	li	a1,13
	li	a0,3
	call	Sec_Eng_PKA_MMUL
.LVL80:
	.loc 1 186 5
	li	a7,0
	sw	zero,0(sp)
	li	a6,3
	li	a5,7
	li	a4,3
	li	a3,3
	li	a2,3
	li	a1,14
	li	a0,3
	call	Sec_Eng_PKA_MMUL
.LVL81:
	.loc 1 190 5
	li	a7,0
	sw	zero,0(sp)
	li	a6,3
	li	a5,4
	li	a4,3
	li	a3,5
	li	a2,3
	li	a1,15
	li	a0,3
	call	Sec_Eng_PKA_MMUL
.LVL82:
	.loc 1 194 5
	li	a7,0
	sw	zero,0(sp)
	li	a6,3
	li	a5,7
	li	a4,3
	li	a3,2
	li	a2,3
	li	a1,16
	li	a0,3
	call	Sec_Eng_PKA_MMUL
.LVL83:
	.loc 1 198 5
	li	a7,0
	sw	zero,0(sp)
	li	a6,3
	li	a5,14
	li	a4,3
	li	a3,13
	li	a2,3
	li	a1,13
	li	a0,3
	call	Sec_Eng_PKA_MSUB
.LVL84:
	.loc 1 202 5
	li	a7,0
	sw	zero,0(sp)
	li	a6,3
	li	a5,16
	li	a4,3
	li	a3,15
	li	a2,3
	li	a1,15
	li	a0,3
	call	Sec_Eng_PKA_MSUB
.LVL85:
	.loc 1 206 5
	li	a7,0
	sw	zero,0(sp)
	li	a6,3
	li	a5,7
	li	a4,3
	li	a3,4
	li	a2,3
	li	a1,2
	li	a0,3
	call	Sec_Eng_PKA_MMUL
.LVL86:
	.loc 1 210 5
	li	a7,0
	sw	zero,0(sp)
	li	a6,3
	li	a5,15
	li	a4,3
	li	a3,15
	li	a2,3
	li	a1,3
	li	a0,3
	call	Sec_Eng_PKA_MMUL
.LVL87:
	.loc 1 214 5
	li	a7,0
	sw	zero,0(sp)
	li	a6,3
	li	a5,15
	li	a4,3
	li	a3,3
	li	a2,3
	li	a1,4
	li	a0,3
	call	Sec_Eng_PKA_MMUL
.LVL88:
	.loc 1 218 5
	li	a7,0
	sw	zero,0(sp)
	li	a6,3
	li	a5,13
	li	a4,3
	li	a3,13
	li	a2,3
	li	a1,17
	li	a0,3
	call	Sec_Eng_PKA_MMUL
.LVL89:
	.loc 1 222 5
	li	a7,0
	sw	zero,0(sp)
	li	a6,3
	li	a5,2
	li	a4,3
	li	a3,17
	li	a2,3
	li	a1,17
	li	a0,3
	call	Sec_Eng_PKA_MMUL
.LVL90:
	.loc 1 226 5
	li	a7,0
	sw	zero,0(sp)
	li	a6,3
	li	a5,4
	li	a4,3
	li	a3,17
	li	a2,3
	li	a1,17
	li	a0,3
	call	Sec_Eng_PKA_MSUB
.LVL91:
	.loc 1 230 5
	li	a7,0
	sw	zero,0(sp)
	li	a6,3
	li	a5,3
	li	a4,3
	li	a3,9
	li	a2,3
	li	a1,18
	li	a0,3
	call	Sec_Eng_PKA_MMUL
.LVL92:
	.loc 1 234 5
	li	a7,0
	sw	zero,0(sp)
	li	a6,3
	li	a5,16
	li	a4,3
	li	a3,18
	li	a2,3
	li	a1,18
	li	a0,3
	call	Sec_Eng_PKA_MMUL
.LVL93:
	.loc 1 238 5
	li	a7,0
	sw	zero,0(sp)
	li	a6,3
	li	a5,18
	li	a4,3
	li	a3,17
	li	a2,3
	li	a1,18
	li	a0,3
	call	Sec_Eng_PKA_MSUB
.LVL94:
	.loc 1 242 5
	li	a7,0
	sw	zero,0(sp)
	li	a6,3
	li	a5,16
	li	a4,3
	li	a3,3
	li	a2,3
	li	a1,3
	li	a0,3
	call	Sec_Eng_PKA_MMUL
.LVL95:
	.loc 1 246 5
	li	a7,0
	sw	zero,0(sp)
	li	a6,3
	li	a5,14
	li	a4,3
	li	a3,4
	li	a2,3
	li	a1,14
	li	a0,3
	call	Sec_Eng_PKA_MMUL
.LVL96:
	.loc 1 250 5
	li	a7,0
	sw	zero,0(sp)
	li	a6,3
	li	a5,2
	li	a4,3
	li	a3,4
	li	a2,3
	li	a1,4
	li	a0,3
	call	Sec_Eng_PKA_MMUL
.LVL97:
	.loc 1 254 5
	li	a7,0
	sw	zero,0(sp)
	li	a6,3
	li	a5,18
	li	a4,3
	li	a3,15
	li	a2,3
	li	a1,2
	li	a0,3
	call	Sec_Eng_PKA_MMUL
.LVL98:
	.loc 1 258 5
	li	a7,0
	sw	zero,0(sp)
	li	a6,3
	li	a5,18
	li	a4,3
	li	a3,3
	li	a2,3
	li	a1,3
	li	a0,3
	call	Sec_Eng_PKA_MSUB
.LVL99:
	.loc 1 262 5
	li	a7,0
	sw	zero,0(sp)
	li	a6,3
	li	a5,3
	li	a4,3
	li	a3,13
	li	a2,3
	li	a1,3
	li	a0,3
	call	Sec_Eng_PKA_MMUL
.LVL100:
	.loc 1 266 5
	li	a7,0
	sw	s5,0(sp)
	li	a6,3
	li	a5,14
	li	a4,3
	li	a3,3
	li	a2,3
	li	a1,3
	li	a0,3
	call	Sec_Eng_PKA_MSUB
.LVL101:
	.loc 1 268 1 is_stmt 0
	j	.L7
.LVL102:
.L9:
.LBE37:
.LBE36:
	.loc 1 407 21 is_stmt 1
	lui	a0,%hi(.LC1)
	addi	a0,a0,%lo(.LC1)
	call	bflb_platform_printf
.LVL103:
	.loc 1 408 21
.L11:
.LBE29:
.LBE28:
	.loc 1 459 5
	mv	a2,s2
	li	a3,8
	li	a1,2
	li	a0,3
	call	Sec_Eng_PKA_Read_Data
.LVL104:
	.loc 1 460 5
	mv	a2,s0
	li	a3,8
	li	a1,3
	li	a0,3
	call	Sec_Eng_PKA_Read_Data
.LVL105:
	.loc 1 464 5
	li	a6,1
	li	a5,0
	li	a4,3
	li	a3,4
	li	a2,3
	li	a1,5
	li	a0,3
	call	Sec_Eng_PKA_MINV
.LVL106:
	.loc 1 467 5
	lui	s4,%hi(.LANCHOR14)
	li	a4,0
	addi	a2,s4,%lo(.LANCHOR14)
	li	a3,8
	li	a1,6
	li	a0,3
	call	Sec_Eng_PKA_Write_Data
.LVL107:
	.loc 1 469 5
	li	a3,1
	li	a2,8
	li	a1,13
	li	a0,3
	call	Sec_Eng_PKA_CREG
.LVL108:
	.loc 1 470 5
	li	a3,1
	li	a2,8
	li	a1,14
	li	a0,3
	call	Sec_Eng_PKA_CREG
.LVL109:
	.loc 1 472 5
	li	s3,3
	sw	s3,0(sp)
	sw	zero,4(sp)
	li	a7,7
	li	a6,4
	li	a5,6
	li	a4,3
	li	a3,5
	li	a2,3
	li	a1,5
	li	a0,3
	call	Sec_Eng_PKA_Mont2GF
.LVL110:
	.loc 1 477 5
	li	a7,7
	sw	s3,0(sp)
	sw	zero,4(sp)
	li	a6,4
	li	a5,6
	li	a4,3
	li	a3,2
	li	a2,3
	li	a1,6
	li	a0,3
	call	Sec_Eng_PKA_Mont2GF
.LVL111:
	.loc 1 482 5
	li	a7,7
	li	a6,4
	li	a5,6
	sw	s3,0(sp)
	li	a4,3
	sw	zero,4(sp)
	li	a3,5
	li	a2,3
	li	a1,2
	li	a0,3
	call	Sec_Eng_PKA_Mont2GF
.LVL112:
	.loc 1 484 5
	mv	a2,s2
	li	a3,8
	li	a1,2
	li	a0,3
	call	Sec_Eng_PKA_Read_Data
.LVL113:
	.loc 1 485 5
	addi	a2,s1,%lo(.LANCHOR0)
	li	a4,0
	li	a3,8
	li	a1,0
	li	a0,3
	call	Sec_Eng_PKA_Write_Data
.LVL114:
	.loc 1 486 5
	li	a6,1
	li	a5,0
	li	a4,3
	li	a3,2
	li	a2,3
	li	a1,2
	li	a0,3
	call	Sec_Eng_PKA_MREM
.LVL115:
	.loc 1 488 5
	mv	a2,s2
	li	a3,8
	li	a1,2
	li	a0,3
	call	Sec_Eng_PKA_Read_Data
.LVL116:
	.loc 1 491 5
	addi	a2,s6,%lo(.LANCHOR3)
	li	a4,0
	li	a3,8
	li	a1,0
	li	a0,3
	call	Sec_Eng_PKA_Write_Data
.LVL117:
	.loc 1 494 5
	li	a6,1
	li	a5,0
	li	a4,3
	li	a3,4
	li	a2,3
	li	a1,5
	li	a0,3
	call	Sec_Eng_PKA_MINV
.LVL118:
	.loc 1 497 5
	li	a4,0
	addi	a2,s4,%lo(.LANCHOR14)
	li	a3,8
	li	a1,6
	li	a0,3
	call	Sec_Eng_PKA_Write_Data
.LVL119:
	.loc 1 499 5
	li	a3,1
	li	a2,8
	li	a1,13
	li	a0,3
	call	Sec_Eng_PKA_CREG
.LVL120:
	.loc 1 500 5
	li	a3,1
	li	a2,8
	li	a1,14
	li	a0,3
	call	Sec_Eng_PKA_CREG
.LVL121:
	.loc 1 502 5
	li	a7,7
	sw	s3,0(sp)
	sw	zero,4(sp)
	li	a6,4
	li	a5,6
	li	a4,3
	li	a3,5
	li	a2,3
	li	a1,5
	li	a0,3
	call	Sec_Eng_PKA_Mont2GF
.LVL122:
	.loc 1 506 5
	li	a7,7
	sw	s3,0(sp)
	sw	zero,4(sp)
	li	a6,4
	li	a5,6
	li	a4,3
	li	a3,3
	li	a2,3
	li	a1,6
	li	a0,3
	call	Sec_Eng_PKA_Mont2GF
.LVL123:
	.loc 1 511 5
	li	a7,7
	li	a6,4
	li	a5,6
	sw	s3,0(sp)
	li	a4,3
	sw	zero,4(sp)
	li	a3,5
	li	a2,3
	li	a1,3
	li	a0,3
	call	Sec_Eng_PKA_Mont2GF
.LVL124:
	.loc 1 513 5
	mv	a2,s0
	li	a3,8
	li	a1,3
	li	a0,3
	call	Sec_Eng_PKA_Read_Data
.LVL125:
	.loc 1 514 5
	addi	a2,s1,%lo(.LANCHOR0)
	li	a4,0
	li	a3,8
	li	a1,0
	li	a0,3
	call	Sec_Eng_PKA_Write_Data
.LVL126:
	.loc 1 515 5
	li	a6,1
	li	a5,0
	li	a4,3
	li	a3,3
	li	a2,3
	li	a1,3
	li	a0,3
	call	Sec_Eng_PKA_MREM
.LVL127:
	.loc 1 517 5
	mv	a2,s0
	li	a0,3
	li	a3,8
	li	a1,3
	call	Sec_Eng_PKA_Read_Data
.LVL128:
	.loc 1 518 5
	.loc 1 519 1 is_stmt 0
	lw	ra,92(sp)
	.cfi_restore 1
	lw	s0,88(sp)
	.cfi_restore 8
.LVL129:
	lw	s1,84(sp)
	.cfi_restore 9
	lw	s2,80(sp)
	.cfi_restore 18
.LVL130:
	lw	s3,76(sp)
	.cfi_restore 19
	lw	s4,72(sp)
	.cfi_restore 20
	lw	s5,68(sp)
	.cfi_restore 21
	lw	s6,64(sp)
	.cfi_restore 22
	lw	s7,60(sp)
	.cfi_restore 23
.LVL131:
	lw	s8,56(sp)
	.cfi_restore 24
	lw	s9,52(sp)
	.cfi_restore 25
	lw	s10,48(sp)
	.cfi_restore 26
	lw	s11,44(sp)
	.cfi_restore 27
	li	a0,0
	addi	sp,sp,96
	.cfi_def_cfa_offset 0
	jr	ra
	.cfi_endproc
.LFE15:
	.size	blcrypto_suite_hacc_secp256r1_mul_bin, .-blcrypto_suite_hacc_secp256r1_mul_bin
	.section	.text.blcrypto_suite_hacc_secp256r1_exp_mod,"ax",@progbits
	.align	1
	.globl	blcrypto_suite_hacc_secp256r1_exp_mod
	.type	blcrypto_suite_hacc_secp256r1_exp_mod, @function
blcrypto_suite_hacc_secp256r1_exp_mod:
.LFB16:
	.loc 1 525 1 is_stmt 1
	.cfi_startproc
.LVL132:
	.loc 1 526 5
	.loc 1 527 5
	.loc 1 528 5
	.loc 1 538 5
	.loc 1 525 1 is_stmt 0
	addi	sp,sp,-32
	.cfi_def_cfa_offset 32
	sw	s1,20(sp)
	.cfi_offset 9, -12
	mv	s1,a2
	.loc 1 538 5
	lui	a2,%hi(.LANCHOR3)
.LVL133:
	.loc 1 525 1
	sw	s0,24(sp)
	sw	s2,16(sp)
	.cfi_offset 8, -8
	.cfi_offset 18, -16
	mv	s0,a0
	mv	s2,a1
	.loc 1 538 5
	li	a4,1
	li	a3,8
	addi	a2,a2,%lo(.LANCHOR3)
	li	a1,0
.LVL134:
	li	a0,3
.LVL135:
	.loc 1 525 1
	sw	ra,28(sp)
	.cfi_offset 1, -4
	.loc 1 538 5
	call	Sec_Eng_PKA_Write_Data
.LVL136:
	.loc 1 539 5 is_stmt 1
	lui	a2,%hi(.LANCHOR4)
	li	a4,1
	li	a3,8
	addi	a2,a2,%lo(.LANCHOR4)
	li	a1,1
	li	a0,3
	call	Sec_Eng_PKA_Write_Data
.LVL137:
	.loc 1 540 5
	lui	a2,%hi(.LANCHOR14)
	li	a4,1
	li	a3,8
	addi	a2,a2,%lo(.LANCHOR14)
	li	a1,2
	li	a0,3
	call	Sec_Eng_PKA_Write_Data
.LVL138:
	.loc 1 543 5
	li	a4,1
	mv	a2,s2
	li	a3,8
	li	a1,4
	li	a0,3
	call	Sec_Eng_PKA_Write_Data
.LVL139:
	.loc 1 544 5
	li	a3,1
	li	a2,8
	li	a1,10
	li	a0,3
	call	Sec_Eng_PKA_CREG
.LVL140:
	.loc 1 545 5
	li	a3,1
	li	a2,8
	li	a1,11
	li	a0,3
	call	Sec_Eng_PKA_CREG
.LVL141:
	.loc 1 546 5
	li	a7,3
	li	a6,5
	li	a5,4
	sw	zero,0(sp)
	li	a4,256
	li	a3,4
	li	a2,3
	li	a1,4
	li	a0,3
	call	Sec_Eng_PKA_GF2Mont
.LVL142:
	.loc 1 548 5
	li	a4,1
	mv	a2,s1
	li	a3,8
	li	a1,5
	li	a0,3
	call	Sec_Eng_PKA_Write_Data
.LVL143:
	.loc 1 550 5
	li	a3,1
	li	a2,8
	li	a1,6
	li	a0,3
	call	Sec_Eng_PKA_CREG
.LVL144:
	.loc 1 551 5
	li	a5,1
	li	a7,0
	li	a6,3
	li	a4,3
	sw	a5,0(sp)
	li	a3,4
	li	a5,5
	li	a2,3
	li	a1,6
	li	a0,3
	call	Sec_Eng_PKA_MEXP
.LVL145:
	.loc 1 554 5
	li	a3,1
	li	a2,8
	li	a1,10
	li	a0,3
	call	Sec_Eng_PKA_CREG
.LVL146:
	.loc 1 555 5
	li	a3,1
	li	a2,8
	li	a1,11
	li	a0,3
	call	Sec_Eng_PKA_CREG
.LVL147:
	.loc 1 557 5
	li	a5,3
	sw	a5,0(sp)
	sw	zero,4(sp)
	li	a7,5
	li	a6,4
	li	a5,2
	li	a4,3
	li	a3,6
	li	a2,3
	li	a1,7
	li	a0,3
	call	Sec_Eng_PKA_Mont2GF
.LVL148:
	.loc 1 559 5
	mv	a2,s0
	li	a0,3
	li	a3,8
	li	a1,7
	call	Sec_Eng_PKA_Read_Data
.LVL149:
	.loc 1 560 5
	.loc 1 561 1 is_stmt 0
	lw	ra,28(sp)
	.cfi_restore 1
	lw	s0,24(sp)
	.cfi_restore 8
.LVL150:
	lw	s1,20(sp)
	.cfi_restore 9
.LVL151:
	lw	s2,16(sp)
	.cfi_restore 18
.LVL152:
	li	a0,0
	addi	sp,sp,32
	.cfi_def_cfa_offset 0
	jr	ra
	.cfi_endproc
.LFE16:
	.size	blcrypto_suite_hacc_secp256r1_exp_mod, .-blcrypto_suite_hacc_secp256r1_exp_mod
	.section	.rodata.secp256r1InvR_N,"a"
	.align	2
	.set	.LANCHOR2,. + 0
	.type	secp256r1InvR_N, @object
	.size	secp256r1InvR_N, 32
secp256r1InvR_N:
	.ascii	"`\320f3I\005\301\351\007\370\266\004\036`w%\272\336\363\342C"
	.ascii	"Vo\257\316\033\310\367\234\031|y"
	.section	.rodata.secp256r1InvR_P,"a"
	.align	2
	.set	.LANCHOR14,. + 0
	.type	secp256r1InvR_P, @object
	.size	secp256r1InvR_P, 32
secp256r1InvR_P:
	.string	"\377\377\377\376"
	.string	""
	.string	""
	.string	"\003\377\377\377\375"
	.string	""
	.string	""
	.string	"\002"
	.string	""
	.string	""
	.string	"\001\377\377\377\376"
	.string	""
	.string	""
	.string	"\003"
	.string	""
	.string	""
	.string	""
	.section	.rodata.secp256r1N,"a"
	.align	2
	.set	.LANCHOR0,. + 0
	.type	secp256r1N, @object
	.size	secp256r1N, 32
secp256r1N:
	.string	"\377\377\377\377"
	.string	""
	.string	""
	.string	""
	.ascii	"\377\377\377\377\377\377\377\377\274\346\372\255\247\027\236"
	.ascii	"\204\363\271\312\302\374c%Q"
	.section	.rodata.secp256r1P,"a"
	.align	2
	.set	.LANCHOR3,. + 0
	.type	secp256r1P, @object
	.size	secp256r1P, 32
secp256r1P:
	.string	"\377\377\377\377"
	.string	""
	.string	""
	.string	"\001"
	.string	""
	.string	""
	.string	""
	.string	""
	.string	""
	.string	""
	.string	""
	.string	""
	.string	""
	.string	""
	.string	""
	.ascii	"\377\377\377\377\377\377\377\377\377\377\377\377"
	.section	.rodata.secp256r1PrimeN_N,"a"
	.align	2
	.set	.LANCHOR1,. + 0
	.type	secp256r1PrimeN_N, @object
	.size	secp256r1PrimeN_N, 32
secp256r1PrimeN_N:
	.string	"`\320f3\251\326(\034P\376w\354\305\210\306\366H\311D\b}t\322\344\314\321\310\252\356"
	.ascii	"\274O"
	.section	.rodata.secp256r1PrimeN_P,"a"
	.align	2
	.set	.LANCHOR4,. + 0
	.type	secp256r1PrimeN_P, @object
	.size	secp256r1PrimeN_P, 32
secp256r1PrimeN_P:
	.string	"\377\377\377\377"
	.string	""
	.string	""
	.string	"\002"
	.string	""
	.string	""
	.string	""
	.string	""
	.string	""
	.string	""
	.string	""
	.string	""
	.string	""
	.string	""
	.string	"\001"
	.string	""
	.string	""
	.string	""
	.string	""
	.string	""
	.string	""
	.string	""
	.string	""
	.string	""
	.string	""
	.ascii	"\001"
	.section	.rodata.secp256r1_1,"a"
	.align	2
	.set	.LANCHOR5,. + 0
	.type	secp256r1_1, @object
	.size	secp256r1_1, 32
secp256r1_1:
	.string	""
	.string	""
	.string	""
	.string	""
	.string	""
	.string	""
	.string	""
	.string	""
	.string	""
	.string	""
	.string	""
	.string	""
	.string	""
	.string	""
	.string	""
	.string	""
	.string	""
	.string	""
	.string	""
	.string	""
	.string	""
	.string	""
	.string	""
	.string	""
	.string	""
	.string	""
	.string	""
	.string	""
	.string	""
	.string	""
	.string	""
	.ascii	"\001"
	.section	.rodata.secp256r1_1M1,"a"
	.align	2
	.set	.LANCHOR11,. + 0
	.type	secp256r1_1M1, @object
	.size	secp256r1_1M1, 32
secp256r1_1M1:
	.string	""
	.string	""
	.string	""
	.string	""
	.string	"\377\377\377\376\377\377\377\377\377\377\377\377\377\377\377\377"
	.string	""
	.string	""
	.string	""
	.string	""
	.string	""
	.string	""
	.string	""
	.string	""
	.string	""
	.string	""
	.string	""
	.section	.rodata.secp256r1_1P1,"a"
	.align	2
	.set	.LANCHOR10,. + 0
	.type	secp256r1_1P1, @object
	.size	secp256r1_1P1, 32
secp256r1_1P1:
	.string	""
	.string	""
	.string	""
	.string	""
	.string	"\377\377\377\376\377\377\377\377\377\377\377\377\377\377\377\377"
	.string	""
	.string	""
	.string	""
	.string	""
	.string	""
	.string	""
	.string	""
	.string	""
	.string	""
	.string	""
	.ascii	"\002"
	.section	.rodata.secp256r1_BAR2,"a"
	.align	2
	.set	.LANCHOR6,. + 0
	.type	secp256r1_BAR2, @object
	.size	secp256r1_BAR2, 32
secp256r1_BAR2:
	.string	""
	.string	""
	.string	""
	.string	"\001\377\377\377\375\377\377\377\377\377\377\377\377\377\377\377\376"
	.string	""
	.string	""
	.string	""
	.string	""
	.string	""
	.string	""
	.string	""
	.string	""
	.string	""
	.string	""
	.ascii	"\002"
	.section	.rodata.secp256r1_BAR3,"a"
	.align	2
	.set	.LANCHOR7,. + 0
	.type	secp256r1_BAR3, @object
	.size	secp256r1_BAR3, 32
secp256r1_BAR3:
	.string	""
	.string	""
	.string	""
	.string	"\002\377\377\377\374\377\377\377\377\377\377\377\377\377\377\377\375"
	.string	""
	.string	""
	.string	""
	.string	""
	.string	""
	.string	""
	.string	""
	.string	""
	.string	""
	.string	""
	.ascii	"\003"
	.section	.rodata.secp256r1_BAR4,"a"
	.align	2
	.set	.LANCHOR8,. + 0
	.type	secp256r1_BAR4, @object
	.size	secp256r1_BAR4, 32
secp256r1_BAR4:
	.string	""
	.string	""
	.string	""
	.string	"\003\377\377\377\373\377\377\377\377\377\377\377\377\377\377\377\374"
	.string	""
	.string	""
	.string	""
	.string	""
	.string	""
	.string	""
	.string	""
	.string	""
	.string	""
	.string	""
	.ascii	"\004"
	.section	.rodata.secp256r1_BAR8,"a"
	.align	2
	.set	.LANCHOR9,. + 0
	.type	secp256r1_BAR8, @object
	.size	secp256r1_BAR8, 32
secp256r1_BAR8:
	.string	""
	.string	""
	.string	""
	.string	"\007\377\377\377\367\377\377\377\377\377\377\377\377\377\377\377\370"
	.string	""
	.string	""
	.string	""
	.string	""
	.string	""
	.string	""
	.string	""
	.string	""
	.string	""
	.string	""
	.ascii	"\b"
	.section	.rodata.secp256r1_Zerox,"a"
	.align	2
	.set	.LANCHOR12,. + 0
	.type	secp256r1_Zerox, @object
	.size	secp256r1_Zerox, 32
secp256r1_Zerox:
	.zero	32
	.section	.rodata.secp256r1_Zeroy,"a"
	.align	2
	.set	.LANCHOR13,. + 0
	.type	secp256r1_Zeroy, @object
	.size	secp256r1_Zeroy, 32
secp256r1_Zeroy:
	.string	""
	.string	""
	.string	""
	.string	""
	.string	"\377\377\377\376\377\377\377\377\377\377\377\377\377\377\377\377"
	.string	""
	.string	""
	.string	""
	.string	""
	.string	""
	.string	""
	.string	""
	.string	""
	.string	""
	.string	""
	.ascii	"\001"
	.text
.Letext0:
	.file 2 "/mnt/d/GitHub/bl_iot_sdk_for_aithinker/toolchain/riscv/Linux/lib/gcc/riscv64-unknown-elf/10.2.0/include/stdint-gcc.h"
	.file 3 "/mnt/d/GitHub/bl_iot_sdk_for_aithinker/components/platform/soc/bl602/bl602_std/bl602_std/StdDriver/Inc/bl602_sec_eng.h"
	.file 4 "/mnt/d/GitHub/bl_iot_sdk_for_aithinker/components/platform/soc/bl602/bl602_std/bl602_std/Common/platform_print/bflb_platform.h"