	.file	"blcrypto_suite_ecp.c"
	.option nopic
	.attribute arch, "rv32i2p0_m2p0_f2p0_c2p0"
	.attribute unaligned_access, 0
	.attribute stack_align, 16
	.text
.Ltext0:
	.cfi_sections	.debug_frame
	.section	.text.ecp_get_type,"ax",@progbits
	.align	1
	.type	ecp_get_type, @function
ecp_get_type:
.LFB9:
	.file 1 "/mnt/d/GitHub/bl_iot_sdk_for_aithinker/components/security/blcrypto_suite/src/blcrypto_suite_ecp.c"
	.loc 1 805 1
	.cfi_startproc
.LVL0:
	.loc 1 806 5
	.loc 1 806 7 is_stmt 0
	lw	a5,48(a0)
	beq	a5,zero,.L3
	.loc 1 809 5 is_stmt 1
	.loc 1 809 7 is_stmt 0
	lw	a0,60(a0)
.LVL1:
	.loc 1 812 15
	seqz	a0,a0
	addi	a0,a0,1
	ret
.LVL2:
.L3:
	.loc 1 807 15
	li	a0,0
.LVL3:
	.loc 1 813 1
	ret
	.cfi_endproc
.LFE9:
	.size	ecp_get_type, .-ecp_get_type
	.section	.text.ecp_modp,"ax",@progbits
	.align	1
	.type	ecp_modp, @function
ecp_modp:
.LFB29:
	.loc 1 1282 1 is_stmt 1
	.cfi_startproc
.LVL4:
	.loc 1 1283 5
	.loc 1 1285 5
	.loc 1 1282 1 is_stmt 0
	addi	sp,sp,-16
	.cfi_def_cfa_offset 16
	sw	s0,8(sp)
	sw	s1,4(sp)
	sw	ra,12(sp)
	sw	s2,0(sp)
	.cfi_offset 8, -8
	.cfi_offset 9, -12
	.cfi_offset 1, -4
	.cfi_offset 18, -16
	.loc 1 1285 7
	lw	a5,100(a1)
	.loc 1 1282 1
	mv	s0,a0
	mv	s1,a1
	.loc 1 1285 7
	bne	a5,zero,.L6
	.loc 1 1286 9 is_stmt 1
	.loc 1 1307 1 is_stmt 0
	lw	s0,8(sp)
	.cfi_remember_state
	.cfi_restore 8
	lw	ra,12(sp)
	.cfi_restore 1
	lw	s1,4(sp)
	.cfi_restore 9
	lw	s2,0(sp)
	.cfi_restore 18
	.loc 1 1286 17
	addi	a2,a1,4
	.loc 1 1307 1
	.loc 1 1286 17
	mv	a1,a0
.LVL5:
	.loc 1 1307 1
	addi	sp,sp,16
	.cfi_def_cfa_offset 0
	.loc 1 1286 17
	tail	blcrypto_suite_mpi_mod_mpi
.LVL6:
.L6:
	.cfi_restore_state
	.loc 1 1289 5 is_stmt 1
	.loc 1 1289 7 is_stmt 0
	lw	a5,0(a0)
	blt	a5,zero,.L7
.L10:
	.loc 1 1290 9
	mv	a0,s0
	call	blcrypto_suite_mpi_bitlen
.LVL7:
	.loc 1 1290 44
	lw	a5,88(s1)
	slli	a5,a5,1
	.loc 1 1289 65
	bleu	a0,a5,.L23
.L8:
	.loc 1 1292 15
	li	s2,-20480
	addi	s2,s2,128
.LVL8:
.L5:
	.loc 1 1307 1
	lw	ra,12(sp)
	.cfi_remember_state
	.cfi_restore 1
	lw	s0,8(sp)
	.cfi_restore 8
.LVL9:
	lw	s1,4(sp)
	.cfi_restore 9
	mv	a0,s2
	lw	s2,0(sp)
	.cfi_restore 18
	addi	sp,sp,16
	.cfi_def_cfa_offset 0
	jr	ra
.LVL10:
.L7:
	.cfi_restore_state
	.loc 1 1289 23 discriminator 1
	li	a1,0
	call	blcrypto_suite_mpi_cmp_int
.LVL11:
	.loc 1 1289 20 discriminator 1
	beq	a0,zero,.L10
	j	.L8
.L23:
	.loc 1 1295 5 is_stmt 1
	.loc 1 1295 10
	.loc 1 1295 23 is_stmt 0
	lw	a5,100(s1)
	mv	a0,s0
	.loc 1 1286 17
	addi	s1,s1,4
.LVL12:
	.loc 1 1295 23
	jalr	a5
.LVL13:
	mv	s2,a0
.LVL14:
	.loc 1 1295 12
	bne	a0,zero,.L5
.L12:
.LVL15:
	.loc 1 1299 102 is_stmt 1 discriminator 2
	.loc 1 1298 10 discriminator 2
	lw	a5,0(s0)
	bge	a5,zero,.L14
	.loc 1 1298 24 is_stmt 0 discriminator 1
	li	a1,0
	mv	a0,s0
	call	blcrypto_suite_mpi_cmp_int
.LVL16:
	.loc 1 1298 21 discriminator 1
	bne	a0,zero,.L15
.LVL17:
.L14:
	.loc 1 1303 102 is_stmt 1 discriminator 2
	.loc 1 1301 10 discriminator 2
	.loc 1 1301 12 is_stmt 0 discriminator 2
	mv	a1,s1
	mv	a0,s0
	call	blcrypto_suite_mpi_cmp_mpi
.LVL18:
	.loc 1 1301 10 discriminator 2
	blt	a0,zero,.L5
	.loc 1 1303 9 is_stmt 1
	.loc 1 1303 14
	.loc 1 1303 27 is_stmt 0
	mv	a2,s1
	mv	a1,s0
	mv	a0,s0
	call	blcrypto_suite_mpi_sub_abs
.LVL19:
	.loc 1 1303 16
	beq	a0,zero,.L14
	j	.L19
.LVL20:
.L15:
	.loc 1 1299 9 is_stmt 1
	.loc 1 1299 14
	.loc 1 1299 27 is_stmt 0
	mv	a2,s1
	mv	a1,s0
	mv	a0,s0
	call	blcrypto_suite_mpi_add_mpi
.LVL21:
	.loc 1 1299 16
	beq	a0,zero,.L12
.L19:
	mv	s2,a0
.LVL22:
	j	.L5
	.cfi_endproc
.LFE29:
	.size	ecp_modp, .-ecp_modp
	.section	.text.ecp_double_jac,"ax",@progbits
	.align	1
	.type	ecp_double_jac, @function
ecp_double_jac:
.LFB33:
	.loc 1 1542 1 is_stmt 1
	.cfi_startproc
.LVL23:
	.loc 1 1543 5
	.loc 1 1544 5
	.loc 1 1555 5
	.loc 1 1542 1 is_stmt 0
	addi	sp,sp,-96
	.cfi_def_cfa_offset 96
	sw	s4,72(sp)
	.cfi_offset 20, -24
	mv	s4,a0
	.loc 1 1555 5
	mv	a0,sp
.LVL24:
	.loc 1 1542 1
	sw	ra,92(sp)
	sw	s1,84(sp)
	sw	s2,80(sp)
	sw	s5,68(sp)
	.cfi_offset 1, -4
	.cfi_offset 9, -12
	.cfi_offset 18, -16
	.cfi_offset 21, -28
	mv	s2,a1
	mv	s5,a2
	sw	s0,88(sp)
	sw	s3,76(sp)
	sw	s6,64(sp)
	sw	s7,60(sp)
	.cfi_offset 8, -8
	.cfi_offset 19, -20
	.cfi_offset 22, -32
	.cfi_offset 23, -36
	.loc 1 1555 36
	addi	s1,sp,12
	.loc 1 1555 5
	call	blcrypto_suite_mpi_init
.LVL25:
	.loc 1 1555 36 is_stmt 1
	mv	a0,s1
	call	blcrypto_suite_mpi_init
.LVL26:
	.loc 1 1555 67
	addi	a0,sp,24
	call	blcrypto_suite_mpi_init
.LVL27:
	.loc 1 1555 98
	addi	a0,sp,36
	call	blcrypto_suite_mpi_init
.LVL28:
	.loc 1 1558 5
	.loc 1 1558 7 is_stmt 0
	lw	a5,24(s4)
	bne	a5,zero,.L26
	.loc 1 1561 9 is_stmt 1
	.loc 1 1561 14
	.loc 1 1561 27 is_stmt 0
	addi	a2,s5,24
	mv	a1,a2
	mv	a0,s1
	call	blcrypto_suite_mpi_mul_mpi
.LVL29:
	mv	s0,a0
.LVL30:
	.loc 1 1561 16
	bne	a0,zero,.L27
	.loc 1 1561 105 is_stmt 1 discriminator 2
	.loc 1 1561 112 discriminator 2
	.loc 1 1561 117 discriminator 2
	.loc 1 1561 122 discriminator 2
	.loc 1 1561 135 is_stmt 0 discriminator 2
	mv	a1,s4
	mv	a0,s1
	call	ecp_modp
.LVL31:
	mv	s0,a0
.LVL32:
	.loc 1 1561 124 discriminator 2
	bne	a0,zero,.L27
	.loc 1 1561 188 is_stmt 1 discriminator 4
	.loc 1 1561 202 discriminator 4
	.loc 1 1562 9 discriminator 4
	.loc 1 1562 14 discriminator 4
	.loc 1 1562 27 is_stmt 0 discriminator 4
	mv	a2,s1
	mv	a1,s5
	addi	a0,sp,24
	call	blcrypto_suite_mpi_add_mpi
.LVL33:
	mv	s0,a0
.LVL34:
	.loc 1 1562 116 discriminator 4
	addi	s3,s4,4
	.loc 1 1562 16 discriminator 4
	beq	a0,zero,.L28
.L27:
	.loc 1 1610 91 is_stmt 1 discriminator 3
	.loc 1 1613 5 discriminator 3
	mv	a0,sp
	call	blcrypto_suite_mpi_free
.LVL35:
	.loc 1 1613 36 discriminator 3
	mv	a0,s1
	call	blcrypto_suite_mpi_free
.LVL36:
	.loc 1 1613 67 discriminator 3
	addi	a0,sp,24
	call	blcrypto_suite_mpi_free
.LVL37:
	.loc 1 1613 98 discriminator 3
	addi	a0,sp,36
	call	blcrypto_suite_mpi_free
.LVL38:
	.loc 1 1615 5 discriminator 3
	.loc 1 1616 1 is_stmt 0 discriminator 3
	lw	ra,92(sp)
	.cfi_remember_state
	.cfi_restore 1
	mv	a0,s0
	lw	s0,88(sp)
	.cfi_restore 8
.LVL39:
	lw	s1,84(sp)
	.cfi_restore 9
	lw	s2,80(sp)
	.cfi_restore 18
.LVL40:
	lw	s3,76(sp)
	.cfi_restore 19
	lw	s4,72(sp)
	.cfi_restore 20
.LVL41:
	lw	s5,68(sp)
	.cfi_restore 21
.LVL42:
	lw	s6,64(sp)
	.cfi_restore 22
	lw	s7,60(sp)
	.cfi_restore 23
	addi	sp,sp,96
	.cfi_def_cfa_offset 0
	jr	ra
.LVL43:
.L29:
	.cfi_restore_state
	.loc 1 1562 167 is_stmt 1 discriminator 5
	.loc 1 1562 172 discriminator 5
	.loc 1 1562 185 is_stmt 0 discriminator 5
	addi	a1,sp,24
	mv	a2,s3
	mv	a0,a1
	call	blcrypto_suite_mpi_sub_abs
.LVL44:
	mv	s0,a0
.LVL45:
	.loc 1 1562 174 discriminator 5
	bne	a0,zero,.L27
.L28:
	.loc 1 1562 266 is_stmt 1 discriminator 4
	.loc 1 1562 114 discriminator 4
	.loc 1 1562 116 is_stmt 0 discriminator 4
	mv	a1,s3
	addi	a0,sp,24
	call	blcrypto_suite_mpi_cmp_mpi
.LVL46:
	.loc 1 1562 114 discriminator 4
	bge	a0,zero,.L29
	.loc 1 1563 9 is_stmt 1
	.loc 1 1563 14
	.loc 1 1563 27 is_stmt 0
	mv	a2,s1
	mv	a1,s5
	addi	a0,sp,36
	call	blcrypto_suite_mpi_sub_mpi
.LVL47:
.L77:
	.loc 1 1563 192 discriminator 6
	mv	s0,a0
.LVL48:
	.loc 1 1563 181 discriminator 6
	bne	a0,zero,.L27
	.loc 1 1563 273 is_stmt 1 discriminator 4
	.loc 1 1563 114 discriminator 4
	lw	a5,36(sp)
	blt	a5,zero,.L31
.L34:
	.loc 1 1564 9
	.loc 1 1564 14
	.loc 1 1564 27 is_stmt 0
	addi	a2,sp,36
	addi	a1,sp,24
	mv	a0,s1
	call	blcrypto_suite_mpi_mul_mpi
.LVL49:
	mv	s0,a0
.LVL50:
	.loc 1 1564 16
	bne	a0,zero,.L27
	.loc 1 1564 99 is_stmt 1 discriminator 2
	.loc 1 1564 106 discriminator 2
	.loc 1 1564 111 discriminator 2
	.loc 1 1564 116 discriminator 2
	.loc 1 1564 129 is_stmt 0 discriminator 2
	mv	a1,s4
	mv	a0,s1
	call	ecp_modp
.LVL51:
	mv	s0,a0
.LVL52:
	.loc 1 1564 118 discriminator 2
	bne	a0,zero,.L27
	.loc 1 1564 182 is_stmt 1 discriminator 4
	.loc 1 1564 196 discriminator 4
	.loc 1 1565 9 discriminator 4
	.loc 1 1565 14 discriminator 4
	.loc 1 1565 27 is_stmt 0 discriminator 4
	li	a2,3
	mv	a1,s1
	mv	a0,sp
	call	blcrypto_suite_mpi_mul_int
.LVL53:
.L78:
	.loc 1 1565 181 discriminator 5
	mv	s0,a0
.LVL54:
	.loc 1 1565 170 discriminator 5
	bne	a0,zero,.L27
	.loc 1 1565 262 is_stmt 1 discriminator 4
	.loc 1 1565 110 discriminator 4
	.loc 1 1565 112 is_stmt 0 discriminator 4
	mv	a1,s3
	mv	a0,sp
	call	blcrypto_suite_mpi_cmp_mpi
.LVL55:
	.loc 1 1565 110 discriminator 4
	bge	a0,zero,.L36
.L40:
	.loc 1 1585 5 is_stmt 1
	.loc 1 1585 10
	.loc 1 1585 23 is_stmt 0
	addi	s6,s5,12
	mv	a2,s6
	mv	a1,s6
	addi	a0,sp,24
	call	blcrypto_suite_mpi_mul_mpi
.LVL56:
	mv	s0,a0
.LVL57:
	.loc 1 1585 12
	bne	a0,zero,.L27
	.loc 1 1585 101 is_stmt 1 discriminator 2
	.loc 1 1585 108 discriminator 2
	.loc 1 1585 113 discriminator 2
	.loc 1 1585 118 discriminator 2
	.loc 1 1585 131 is_stmt 0 discriminator 2
	mv	a1,s4
	addi	a0,sp,24
	call	ecp_modp
.LVL58:
	mv	s0,a0
.LVL59:
	.loc 1 1585 120 discriminator 2
	bne	a0,zero,.L27
	.loc 1 1585 184 is_stmt 1 discriminator 4
	.loc 1 1585 198 discriminator 4
	.loc 1 1586 5 discriminator 4
	.loc 1 1586 10 discriminator 4
	.loc 1 1586 23 is_stmt 0 discriminator 4
	li	a1,1
	addi	a0,sp,24
	call	blcrypto_suite_mpi_shift_l
.LVL60:
	mv	s0,a0
.LVL61:
	.loc 1 1586 104 discriminator 4
	addi	s3,s4,4
	.loc 1 1586 12 discriminator 4
	bne	a0,zero,.L27
.L43:
	.loc 1 1586 254 is_stmt 1 discriminator 4
	.loc 1 1586 102 discriminator 4
	.loc 1 1586 104 is_stmt 0 discriminator 4
	mv	a1,s3
	addi	a0,sp,24
	call	blcrypto_suite_mpi_cmp_mpi
.LVL62:
	.loc 1 1586 102 discriminator 4
	bge	a0,zero,.L44
	.loc 1 1587 5 is_stmt 1
	.loc 1 1587 10
	.loc 1 1587 23 is_stmt 0
	addi	a2,sp,24
	mv	a1,s5
	mv	a0,s1
	call	blcrypto_suite_mpi_mul_mpi
.LVL63:
	mv	s0,a0
.LVL64:
	.loc 1 1587 12
	bne	a0,zero,.L27
	.loc 1 1587 98 is_stmt 1 discriminator 2
	.loc 1 1587 105 discriminator 2
	.loc 1 1587 110 discriminator 2
	.loc 1 1587 115 discriminator 2
	.loc 1 1587 128 is_stmt 0 discriminator 2
	mv	a1,s4
	mv	a0,s1
	call	ecp_modp
.LVL65:
	mv	s0,a0
.LVL66:
	.loc 1 1587 117 discriminator 2
	bne	a0,zero,.L27
	.loc 1 1587 181 is_stmt 1 discriminator 4
	.loc 1 1587 195 discriminator 4
	.loc 1 1588 5 discriminator 4
	.loc 1 1588 10 discriminator 4
	.loc 1 1588 23 is_stmt 0 discriminator 4
	li	a1,1
	mv	a0,s1
	call	blcrypto_suite_mpi_shift_l
.LVL67:
.L80:
	.loc 1 1588 173 discriminator 5
	mv	s0,a0
.LVL68:
	.loc 1 1588 162 discriminator 5
	bne	a0,zero,.L27
	.loc 1 1588 254 is_stmt 1 discriminator 4
	.loc 1 1588 102 discriminator 4
	.loc 1 1588 104 is_stmt 0 discriminator 4
	mv	a1,s3
	mv	a0,s1
	call	blcrypto_suite_mpi_cmp_mpi
.LVL69:
	.loc 1 1588 102 discriminator 4
	bge	a0,zero,.L46
	.loc 1 1591 5 is_stmt 1
	.loc 1 1591 10
	.loc 1 1591 23 is_stmt 0
	addi	a2,sp,24
	mv	a1,a2
	addi	a0,sp,36
	call	blcrypto_suite_mpi_mul_mpi
.LVL70:
	mv	s0,a0
.LVL71:
	.loc 1 1591 12
	bne	a0,zero,.L27
	.loc 1 1591 95 is_stmt 1 discriminator 2
	.loc 1 1591 102 discriminator 2
	.loc 1 1591 107 discriminator 2
	.loc 1 1591 112 discriminator 2
	.loc 1 1591 125 is_stmt 0 discriminator 2
	mv	a1,s4
	addi	a0,sp,36
	call	ecp_modp
.LVL72:
	mv	s0,a0
.LVL73:
	.loc 1 1591 114 discriminator 2
	bne	a0,zero,.L27
	.loc 1 1591 178 is_stmt 1 discriminator 4
	.loc 1 1591 192 discriminator 4
	.loc 1 1592 5 discriminator 4
	.loc 1 1592 10 discriminator 4
	.loc 1 1592 23 is_stmt 0 discriminator 4
	li	a1,1
	addi	a0,sp,36
	call	blcrypto_suite_mpi_shift_l
.LVL74:
.L81:
	.loc 1 1592 173 discriminator 5
	mv	s0,a0
.LVL75:
	.loc 1 1592 162 discriminator 5
	bne	a0,zero,.L27
	.loc 1 1592 254 is_stmt 1 discriminator 4
	.loc 1 1592 102 discriminator 4
	.loc 1 1592 104 is_stmt 0 discriminator 4
	mv	a1,s3
	addi	a0,sp,36
	call	blcrypto_suite_mpi_cmp_mpi
.LVL76:
	.loc 1 1592 102 discriminator 4
	bge	a0,zero,.L48
	.loc 1 1595 5 is_stmt 1
	.loc 1 1595 10
	.loc 1 1595 23 is_stmt 0
	mv	a2,sp
	mv	a1,sp
	addi	a0,sp,24
	call	blcrypto_suite_mpi_mul_mpi
.LVL77:
	mv	s0,a0
.LVL78:
	.loc 1 1595 12
	bne	a0,zero,.L27
	.loc 1 1595 95 is_stmt 1 discriminator 2
	.loc 1 1595 102 discriminator 2
	.loc 1 1595 107 discriminator 2
	.loc 1 1595 112 discriminator 2
	.loc 1 1595 125 is_stmt 0 discriminator 2
	mv	a1,s4
	addi	a0,sp,24
	call	ecp_modp
.LVL79:
	mv	s0,a0
.LVL80:
	.loc 1 1595 114 discriminator 2
	bne	a0,zero,.L27
	.loc 1 1595 178 is_stmt 1 discriminator 4
	.loc 1 1595 192 discriminator 4
	.loc 1 1596 5 discriminator 4
	.loc 1 1596 10 discriminator 4
	.loc 1 1596 23 is_stmt 0 discriminator 4
	addi	a1,sp,24
	mv	a2,s1
	mv	a0,a1
	call	blcrypto_suite_mpi_sub_mpi
.LVL81:
.L82:
	.loc 1 1596 185 discriminator 6
	mv	s0,a0
.LVL82:
	.loc 1 1596 174 discriminator 6
	bne	a0,zero,.L27
	.loc 1 1596 266 is_stmt 1 discriminator 4
	.loc 1 1596 107 discriminator 4
	lw	a5,24(sp)
	blt	a5,zero,.L50
.L53:
	.loc 1 1597 5
	.loc 1 1597 10
	.loc 1 1597 23 is_stmt 0
	addi	a1,sp,24
	mv	a2,s1
	mv	a0,a1
	call	blcrypto_suite_mpi_sub_mpi
.LVL83:
.L83:
	.loc 1 1597 185 discriminator 6
	mv	s0,a0
.LVL84:
	.loc 1 1597 174 discriminator 6
	bne	a0,zero,.L27
	.loc 1 1597 266 is_stmt 1 discriminator 4
	.loc 1 1597 107 discriminator 4
	lw	a5,24(sp)
	blt	a5,zero,.L54
.L57:
	.loc 1 1600 5
	.loc 1 1600 10
	.loc 1 1600 23 is_stmt 0
	addi	a2,sp,24
	mv	a1,s1
	mv	a0,s1
	call	blcrypto_suite_mpi_sub_mpi
.LVL85:
.L84:
	.loc 1 1600 185 discriminator 6
	mv	s0,a0
.LVL86:
	.loc 1 1600 174 discriminator 6
	bne	a0,zero,.L27
	.loc 1 1600 266 is_stmt 1 discriminator 4
	.loc 1 1600 107 discriminator 4
	lw	a5,12(sp)
	blt	a5,zero,.L58
.L61:
	.loc 1 1601 5
	.loc 1 1601 10
	.loc 1 1601 23 is_stmt 0
	mv	a2,sp
	mv	a1,s1
	mv	a0,s1
	call	blcrypto_suite_mpi_mul_mpi
.LVL87:
	mv	s0,a0
.LVL88:
	.loc 1 1601 12
	bne	a0,zero,.L27
	.loc 1 1601 95 is_stmt 1 discriminator 2
	.loc 1 1601 102 discriminator 2
	.loc 1 1601 107 discriminator 2
	.loc 1 1601 112 discriminator 2
	.loc 1 1601 125 is_stmt 0 discriminator 2
	mv	a1,s4
	mv	a0,s1
	call	ecp_modp
.LVL89:
	mv	s0,a0
.LVL90:
	.loc 1 1601 114 discriminator 2
	bne	a0,zero,.L27
	.loc 1 1601 178 is_stmt 1 discriminator 4
	.loc 1 1601 192 discriminator 4
	.loc 1 1602 5 discriminator 4
	.loc 1 1602 10 discriminator 4
	.loc 1 1602 23 is_stmt 0 discriminator 4
	addi	a2,sp,36
	mv	a1,s1
	mv	a0,s1
	call	blcrypto_suite_mpi_sub_mpi
.LVL91:
	mv	s0,a0
.LVL92:
	.loc 1 1602 122 discriminator 4
	mv	s7,s1
	.loc 1 1602 12 discriminator 4
	bne	a0,zero,.L27
.L62:
	.loc 1 1602 266 is_stmt 1 discriminator 4
	.loc 1 1602 107 discriminator 4
	lw	a5,12(sp)
	blt	a5,zero,.L63
.L66:
	.loc 1 1605 5
	.loc 1 1605 10
	.loc 1 1605 23 is_stmt 0
	addi	a2,s5,24
	mv	a1,s6
	addi	a0,sp,36
	call	blcrypto_suite_mpi_mul_mpi
.LVL93:
	mv	s0,a0
.LVL94:
	.loc 1 1605 12
	bne	a0,zero,.L27
	.loc 1 1605 101 is_stmt 1 discriminator 2
	.loc 1 1605 108 discriminator 2
	.loc 1 1605 113 discriminator 2
	.loc 1 1605 118 discriminator 2
	.loc 1 1605 131 is_stmt 0 discriminator 2
	mv	a1,s4
	addi	a0,sp,36
	call	ecp_modp
.LVL95:
	mv	s0,a0
.LVL96:
	.loc 1 1605 120 discriminator 2
	bne	a0,zero,.L27
	.loc 1 1605 184 is_stmt 1 discriminator 4
	.loc 1 1605 198 discriminator 4
	.loc 1 1606 5 discriminator 4
	.loc 1 1606 10 discriminator 4
	.loc 1 1606 23 is_stmt 0 discriminator 4
	li	a1,1
	addi	a0,sp,36
	call	blcrypto_suite_mpi_shift_l
.LVL97:
.L85:
	.loc 1 1606 173 discriminator 5
	mv	s0,a0
.LVL98:
	.loc 1 1606 162 discriminator 5
	bne	a0,zero,.L27
	.loc 1 1606 254 is_stmt 1 discriminator 4
	.loc 1 1606 102 discriminator 4
	.loc 1 1606 104 is_stmt 0 discriminator 4
	mv	a1,s3
	addi	a0,sp,36
	call	blcrypto_suite_mpi_cmp_mpi
.LVL99:
	.loc 1 1606 102 discriminator 4
	bge	a0,zero,.L68
	.loc 1 1608 5 is_stmt 1
	.loc 1 1608 10
	.loc 1 1608 23 is_stmt 0
	addi	a1,sp,24
	mv	a0,s2
	call	blcrypto_suite_mpi_copy
.LVL100:
	mv	s0,a0
.LVL101:
	.loc 1 1608 12
	bne	a0,zero,.L27
	.loc 1 1608 91 is_stmt 1 discriminator 2
	.loc 1 1609 5 discriminator 2
	.loc 1 1609 10 discriminator 2
	.loc 1 1609 23 is_stmt 0 discriminator 2
	addi	a1,sp,12
	addi	a0,s2,12
	call	blcrypto_suite_mpi_copy
.LVL102:
	mv	s0,a0
.LVL103:
	.loc 1 1609 12 discriminator 2
	bne	a0,zero,.L27
	.loc 1 1609 91 is_stmt 1 discriminator 2
	.loc 1 1610 5 discriminator 2
	.loc 1 1610 10 discriminator 2
	.loc 1 1610 23 is_stmt 0 discriminator 2
	addi	a1,sp,36
	addi	a0,s2,24
	call	blcrypto_suite_mpi_copy
.LVL104:
	mv	s0,a0
.LVL105:
	.loc 1 1612 1 discriminator 2
	j	.L27
.L31:
	.loc 1 1563 129 discriminator 5
	li	a1,0
	addi	a0,sp,36
	call	blcrypto_suite_mpi_cmp_int
.LVL106:
	.loc 1 1563 126 discriminator 5
	beq	a0,zero,.L34
	.loc 1 1563 174 is_stmt 1 discriminator 6
	.loc 1 1563 179 discriminator 6
	.loc 1 1563 192 is_stmt 0 discriminator 6
	addi	a1,sp,36
	mv	a2,s3
	mv	a0,a1
	call	blcrypto_suite_mpi_add_mpi
.LVL107:
	j	.L77
.L36:
	.loc 1 1565 163 is_stmt 1 discriminator 5
	.loc 1 1565 168 discriminator 5
	.loc 1 1565 181 is_stmt 0 discriminator 5
	mv	a2,s3
	mv	a1,sp
	mv	a0,sp
	call	blcrypto_suite_mpi_sub_abs
.LVL108:
	j	.L78
.LVL109:
.L26:
	.loc 1 1570 9 is_stmt 1
	.loc 1 1570 14
	.loc 1 1570 27 is_stmt 0
	mv	a2,s5
	mv	a1,s5
	mv	a0,s1
	call	blcrypto_suite_mpi_mul_mpi
.LVL110:
	mv	s0,a0
.LVL111:
	.loc 1 1570 16
	bne	a0,zero,.L27
	.loc 1 1570 105 is_stmt 1 discriminator 2
	.loc 1 1570 112 discriminator 2
	.loc 1 1570 117 discriminator 2
	.loc 1 1570 122 discriminator 2
	.loc 1 1570 135 is_stmt 0 discriminator 2
	mv	a1,s4
	mv	a0,s1
	call	ecp_modp
.LVL112:
	mv	s0,a0
.LVL113:
	.loc 1 1570 124 discriminator 2
	bne	a0,zero,.L27
	.loc 1 1570 188 is_stmt 1 discriminator 4
	.loc 1 1570 202 discriminator 4
	.loc 1 1571 9 discriminator 4
	.loc 1 1571 14 discriminator 4
	.loc 1 1571 27 is_stmt 0 discriminator 4
	li	a2,3
	mv	a1,s1
	mv	a0,sp
	call	blcrypto_suite_mpi_mul_int
.LVL114:
	mv	s0,a0
.LVL115:
	.loc 1 1571 112 discriminator 4
	addi	s3,s4,4
	.loc 1 1571 16 discriminator 4
	bne	a0,zero,.L27
.L38:
	.loc 1 1571 262 is_stmt 1 discriminator 4
	.loc 1 1571 110 discriminator 4
	.loc 1 1571 112 is_stmt 0 discriminator 4
	mv	a1,s3
	mv	a0,sp
	call	blcrypto_suite_mpi_cmp_mpi
.LVL116:
	.loc 1 1571 110 discriminator 4
	bge	a0,zero,.L39
	.loc 1 1574 9 is_stmt 1
	.loc 1 1574 13 is_stmt 0
	addi	s6,s4,16
	li	a1,0
	mv	a0,s6
	call	blcrypto_suite_mpi_cmp_int
.LVL117:
	.loc 1 1574 11
	beq	a0,zero,.L40
	.loc 1 1577 13 is_stmt 1
	.loc 1 1577 18
	.loc 1 1577 31 is_stmt 0
	addi	a2,s5,24
	mv	a1,a2
	mv	a0,s1
	call	blcrypto_suite_mpi_mul_mpi
.LVL118:
	mv	s0,a0
.LVL119:
	.loc 1 1577 20
	bne	a0,zero,.L27
	.loc 1 1577 109 is_stmt 1 discriminator 2
	.loc 1 1577 116 discriminator 2
	.loc 1 1577 121 discriminator 2
	.loc 1 1577 126 discriminator 2
	.loc 1 1577 139 is_stmt 0 discriminator 2
	mv	a1,s4
	mv	a0,s1
	call	ecp_modp
.LVL120:
	mv	s0,a0
.LVL121:
	.loc 1 1577 128 discriminator 2
	bne	a0,zero,.L27
	.loc 1 1577 192 is_stmt 1 discriminator 4
	.loc 1 1577 206 discriminator 4
	.loc 1 1578 13 discriminator 4
	.loc 1 1578 18 discriminator 4
	.loc 1 1578 31 is_stmt 0 discriminator 4
	mv	a2,s1
	mv	a1,s1
	addi	a0,sp,24
	call	blcrypto_suite_mpi_mul_mpi
.LVL122:
	mv	s0,a0
.LVL123:
	.loc 1 1578 20 discriminator 4
	bne	a0,zero,.L27
	.loc 1 1578 103 is_stmt 1 discriminator 2
	.loc 1 1578 110 discriminator 2
	.loc 1 1578 115 discriminator 2
	.loc 1 1578 120 discriminator 2
	.loc 1 1578 133 is_stmt 0 discriminator 2
	mv	a1,s4
	addi	a0,sp,24
	call	ecp_modp
.LVL124:
	mv	s0,a0
.LVL125:
	.loc 1 1578 122 discriminator 2
	bne	a0,zero,.L27
	.loc 1 1578 186 is_stmt 1 discriminator 4
	.loc 1 1578 200 discriminator 4
	.loc 1 1579 13 discriminator 4
	.loc 1 1579 18 discriminator 4
	.loc 1 1579 31 is_stmt 0 discriminator 4
	mv	a2,s6
	addi	a1,sp,24
	mv	a0,s1
	call	blcrypto_suite_mpi_mul_mpi
.LVL126:
	mv	s0,a0
.LVL127:
	.loc 1 1579 20 discriminator 4
	bne	a0,zero,.L27
	.loc 1 1579 108 is_stmt 1 discriminator 2
	.loc 1 1579 115 discriminator 2
	.loc 1 1579 120 discriminator 2
	.loc 1 1579 125 discriminator 2
	.loc 1 1579 138 is_stmt 0 discriminator 2
	mv	a1,s4
	mv	a0,s1
	call	ecp_modp
.LVL128:
	mv	s0,a0
.LVL129:
	.loc 1 1579 127 discriminator 2
	bne	a0,zero,.L27
	.loc 1 1579 191 is_stmt 1 discriminator 4
	.loc 1 1579 205 discriminator 4
	.loc 1 1580 13 discriminator 4
	.loc 1 1580 18 discriminator 4
	.loc 1 1580 31 is_stmt 0 discriminator 4
	mv	a2,s1
	mv	a1,sp
	mv	a0,sp
	call	blcrypto_suite_mpi_add_mpi
.LVL130:
.L79:
	.loc 1 1580 186 discriminator 5
	mv	s0,a0
.LVL131:
	.loc 1 1580 175 discriminator 5
	bne	a0,zero,.L27
	.loc 1 1580 267 is_stmt 1 discriminator 4
	.loc 1 1580 115 discriminator 4
	.loc 1 1580 117 is_stmt 0 discriminator 4
	mv	a1,s3
	mv	a0,sp
	call	blcrypto_suite_mpi_cmp_mpi
.LVL132:
	.loc 1 1580 115 discriminator 4
	blt	a0,zero,.L40
	.loc 1 1580 168 is_stmt 1 discriminator 5
	.loc 1 1580 173 discriminator 5
	.loc 1 1580 186 is_stmt 0 discriminator 5
	mv	a2,s3
	mv	a1,sp
	mv	a0,sp
	call	blcrypto_suite_mpi_sub_abs
.LVL133:
	j	.L79
.L39:
	.loc 1 1571 163 is_stmt 1 discriminator 5
	.loc 1 1571 168 discriminator 5
	.loc 1 1571 181 is_stmt 0 discriminator 5
	mv	a2,s3
	mv	a1,sp
	mv	a0,sp
	call	blcrypto_suite_mpi_sub_abs
.LVL134:
	mv	s0,a0
.LVL135:
	.loc 1 1571 170 discriminator 5
	beq	a0,zero,.L38
	j	.L27
.L44:
	.loc 1 1586 155 is_stmt 1 discriminator 5
	.loc 1 1586 160 discriminator 5
	.loc 1 1586 173 is_stmt 0 discriminator 5
	addi	a1,sp,24
	mv	a2,s3
	mv	a0,a1
	call	blcrypto_suite_mpi_sub_abs
.LVL136:
	mv	s0,a0
.LVL137:
	.loc 1 1586 162 discriminator 5
	beq	a0,zero,.L43
	j	.L27
.L46:
	.loc 1 1588 155 is_stmt 1 discriminator 5
	.loc 1 1588 160 discriminator 5
	.loc 1 1588 173 is_stmt 0 discriminator 5
	mv	a2,s3
	mv	a1,s1
	mv	a0,s1
	call	blcrypto_suite_mpi_sub_abs
.LVL138:
	j	.L80
.L48:
	.loc 1 1592 155 is_stmt 1 discriminator 5
	.loc 1 1592 160 discriminator 5
	.loc 1 1592 173 is_stmt 0 discriminator 5
	addi	a1,sp,36
	mv	a2,s3
	mv	a0,a1
	call	blcrypto_suite_mpi_sub_abs
.LVL139:
	j	.L81
.L50:
	.loc 1 1596 122 discriminator 5
	li	a1,0
	addi	a0,sp,24
	call	blcrypto_suite_mpi_cmp_int
.LVL140:
	.loc 1 1596 119 discriminator 5
	beq	a0,zero,.L53
	.loc 1 1596 167 is_stmt 1 discriminator 6
	.loc 1 1596 172 discriminator 6
	.loc 1 1596 185 is_stmt 0 discriminator 6
	addi	a1,sp,24
	mv	a2,s3
	mv	a0,a1
	call	blcrypto_suite_mpi_add_mpi
.LVL141:
	j	.L82
.L54:
	.loc 1 1597 122 discriminator 5
	li	a1,0
	addi	a0,sp,24
	call	blcrypto_suite_mpi_cmp_int
.LVL142:
	.loc 1 1597 119 discriminator 5
	beq	a0,zero,.L57
	.loc 1 1597 167 is_stmt 1 discriminator 6
	.loc 1 1597 172 discriminator 6
	.loc 1 1597 185 is_stmt 0 discriminator 6
	addi	a1,sp,24
	mv	a2,s3
	mv	a0,a1
	call	blcrypto_suite_mpi_add_mpi
.LVL143:
	j	.L83
.L58:
	.loc 1 1600 122 discriminator 5
	li	a1,0
	mv	a0,s1
	call	blcrypto_suite_mpi_cmp_int
.LVL144:
	.loc 1 1600 119 discriminator 5
	beq	a0,zero,.L61
	.loc 1 1600 167 is_stmt 1 discriminator 6
	.loc 1 1600 172 discriminator 6
	.loc 1 1600 185 is_stmt 0 discriminator 6
	mv	a2,s3
	mv	a1,s1
	mv	a0,s1
	call	blcrypto_suite_mpi_add_mpi
.LVL145:
	j	.L84
.L63:
	.loc 1 1602 122 discriminator 5
	li	a1,0
	mv	a0,s7
	call	blcrypto_suite_mpi_cmp_int
.LVL146:
	.loc 1 1602 119 discriminator 5
	beq	a0,zero,.L66
	.loc 1 1602 167 is_stmt 1 discriminator 6
	.loc 1 1602 172 discriminator 6
	.loc 1 1602 185 is_stmt 0 discriminator 6
	mv	a2,s3
	mv	a1,s7
	mv	a0,s7
	call	blcrypto_suite_mpi_add_mpi
.LVL147:
	mv	s0,a0
.LVL148:
	.loc 1 1602 174 discriminator 6
	beq	a0,zero,.L62
	j	.L27
.L68:
	.loc 1 1606 155 is_stmt 1 discriminator 5
	.loc 1 1606 160 discriminator 5
	.loc 1 1606 173 is_stmt 0 discriminator 5
	addi	a1,sp,36
	mv	a2,s3
	mv	a0,a1
	call	blcrypto_suite_mpi_sub_abs
.LVL149:
	j	.L85
	.cfi_endproc
.LFE33:
	.size	ecp_double_jac, .-ecp_double_jac
	.section	.text.ecp_normalize_jac,"ax",@progbits
	.align	1
	.type	ecp_normalize_jac, @function
ecp_normalize_jac:
.LFB30:
	.loc 1 1366 1 is_stmt 1
	.cfi_startproc
.LVL150:
	.loc 1 1367 5
	.loc 1 1368 5
	.loc 1 1370 5
	.loc 1 1366 1 is_stmt 0
	addi	sp,sp,-64
	.cfi_def_cfa_offset 64
	sw	s1,52(sp)
	.cfi_offset 9, -12
	.loc 1 1370 37
	addi	s1,a1,24
	.loc 1 1366 1
	sw	s2,48(sp)
	sw	s3,44(sp)
	.cfi_offset 18, -16
	.cfi_offset 19, -20
	mv	s2,a0
	mv	s3,a1
	.loc 1 1370 9
	mv	a0,s1
.LVL151:
	li	a1,0
.LVL152:
	.loc 1 1366 1
	sw	s0,56(sp)
	sw	ra,60(sp)
	.cfi_offset 8, -8
	.cfi_offset 1, -4
	.loc 1 1370 9
	call	blcrypto_suite_mpi_cmp_int
.LVL153:
	mv	s0,a0
	.loc 1 1370 7
	beq	a0,zero,.L86
	.loc 1 1378 5 is_stmt 1
	addi	a0,sp,8
	call	blcrypto_suite_mpi_init
.LVL154:
	.loc 1 1378 37
	addi	a0,sp,20
	call	blcrypto_suite_mpi_init
.LVL155:
	.loc 1 1383 5
	.loc 1 1383 10
	.loc 1 1383 23 is_stmt 0
	addi	a2,s2,4
	mv	a1,s1
	addi	a0,sp,8
	call	blcrypto_suite_mpi_inv_mod
.LVL156:
	mv	s0,a0
.LVL157:
	.loc 1 1383 12
	bne	a0,zero,.L88
	.loc 1 1383 105 is_stmt 1 discriminator 2
	.loc 1 1384 5 discriminator 2
	.loc 1 1384 10 discriminator 2
	.loc 1 1384 23 is_stmt 0 discriminator 2
	addi	a2,sp,8
	mv	a1,a2
	addi	a0,sp,20
	call	blcrypto_suite_mpi_mul_mpi
.LVL158:
	mv	s0,a0
.LVL159:
	.loc 1 1384 12 discriminator 2
	bne	a0,zero,.L88
	.loc 1 1384 99 is_stmt 1 discriminator 2
	.loc 1 1384 106 discriminator 2
	.loc 1 1384 111 discriminator 2
	.loc 1 1384 116 discriminator 2
	.loc 1 1384 129 is_stmt 0 discriminator 2
	mv	a1,s2
	addi	a0,sp,20
	call	ecp_modp
.LVL160:
	mv	s0,a0
.LVL161:
	.loc 1 1384 118 discriminator 2
	bne	a0,zero,.L88
	.loc 1 1384 184 is_stmt 1 discriminator 4
	.loc 1 1384 198 discriminator 4
	.loc 1 1385 5 discriminator 4
	.loc 1 1385 10 discriminator 4
	.loc 1 1385 23 is_stmt 0 discriminator 4
	addi	a2,sp,20
	mv	a1,s3
	mv	a0,s3
	call	blcrypto_suite_mpi_mul_mpi
.LVL162:
	mv	s0,a0
.LVL163:
	.loc 1 1385 12 discriminator 4
	bne	a0,zero,.L88
	.loc 1 1385 105 is_stmt 1 discriminator 2
	.loc 1 1385 112 discriminator 2
	.loc 1 1385 117 discriminator 2
	.loc 1 1385 122 discriminator 2
	.loc 1 1385 135 is_stmt 0 discriminator 2
	mv	a1,s2
	mv	a0,s3
	call	ecp_modp
.LVL164:
	mv	s0,a0
.LVL165:
	.loc 1 1385 124 discriminator 2
	bne	a0,zero,.L88
	.loc 1 1385 192 is_stmt 1 discriminator 4
	.loc 1 1385 206 discriminator 4
	.loc 1 1390 5 discriminator 4
	.loc 1 1390 10 discriminator 4
	.loc 1 1390 23 is_stmt 0 discriminator 4
	addi	s3,s3,12
.LVL166:
	addi	a2,sp,20
	mv	a1,s3
	mv	a0,s3
	call	blcrypto_suite_mpi_mul_mpi
.LVL167:
	mv	s0,a0
.LVL168:
	.loc 1 1390 12 discriminator 4
	bne	a0,zero,.L88
	.loc 1 1390 105 is_stmt 1 discriminator 2
	.loc 1 1390 112 discriminator 2
	.loc 1 1390 117 discriminator 2
	.loc 1 1390 122 discriminator 2
	.loc 1 1390 135 is_stmt 0 discriminator 2
	mv	a1,s2
	mv	a0,s3
	call	ecp_modp
.LVL169:
	mv	s0,a0
.LVL170:
	.loc 1 1390 124 discriminator 2
	bne	a0,zero,.L88
	.loc 1 1390 192 is_stmt 1 discriminator 4
	.loc 1 1390 206 discriminator 4
	.loc 1 1391 5 discriminator 4
	.loc 1 1391 10 discriminator 4
	.loc 1 1391 23 is_stmt 0 discriminator 4
	addi	a2,sp,8
	mv	a1,s3
	mv	a0,s3
	call	blcrypto_suite_mpi_mul_mpi
.LVL171:
	mv	s0,a0
.LVL172:
	.loc 1 1391 12 discriminator 4
	bne	a0,zero,.L88
	.loc 1 1391 104 is_stmt 1 discriminator 2
	.loc 1 1391 111 discriminator 2
	.loc 1 1391 116 discriminator 2
	.loc 1 1391 121 discriminator 2
	.loc 1 1391 134 is_stmt 0 discriminator 2
	mv	a1,s2
	mv	a0,s3
	call	ecp_modp
.LVL173:
	mv	s0,a0
.LVL174:
	.loc 1 1391 123 discriminator 2
	bne	a0,zero,.L88
	.loc 1 1391 191 is_stmt 1 discriminator 4
	.loc 1 1391 205 discriminator 4
	.loc 1 1396 5 discriminator 4
	.loc 1 1396 10 discriminator 4
	.loc 1 1396 23 is_stmt 0 discriminator 4
	li	a1,1
	mv	a0,s1
	call	blcrypto_suite_mpi_lset
.LVL175:
	mv	s0,a0
.LVL176:
.L88:
	.loc 1 1396 91 is_stmt 1 discriminator 3
	.loc 1 1400 5 discriminator 3
	addi	a0,sp,8
	call	blcrypto_suite_mpi_free
.LVL177:
	.loc 1 1400 37 discriminator 3
	addi	a0,sp,20
	call	blcrypto_suite_mpi_free
.LVL178:
	.loc 1 1402 5 discriminator 3
.L86:
	.loc 1 1403 1 is_stmt 0
	lw	ra,60(sp)
	.cfi_restore 1
	mv	a0,s0
	lw	s0,56(sp)
	.cfi_restore 8
	lw	s1,52(sp)
	.cfi_restore 9
.LVL179:
	lw	s2,48(sp)
	.cfi_restore 18
.LVL180:
	lw	s3,44(sp)
	.cfi_restore 19
	addi	sp,sp,64
	.cfi_def_cfa_offset 0
	jr	ra
	.cfi_endproc
.LFE30:
	.size	ecp_normalize_jac, .-ecp_normalize_jac
	.section	.text.ecp_normalize_jac_many,"ax",@progbits
	.align	1
	.type	ecp_normalize_jac_many, @function
ecp_normalize_jac_many:
.LFB31:
	.loc 1 1418 1 is_stmt 1
	.cfi_startproc
.LVL181:
	.loc 1 1419 5
	.loc 1 1420 5
	.loc 1 1421 5
	.loc 1 1423 5
	.loc 1 1418 1 is_stmt 0
	addi	sp,sp,-96
	.cfi_def_cfa_offset 96
	sw	s8,56(sp)
	sw	ra,92(sp)
	sw	s0,88(sp)
	sw	s1,84(sp)
	sw	s2,80(sp)
	sw	s3,76(sp)
	sw	s4,72(sp)
	sw	s5,68(sp)
	sw	s6,64(sp)
	sw	s7,60(sp)
	sw	s9,52(sp)
	.cfi_offset 24, -40
	.cfi_offset 1, -4
	.cfi_offset 8, -8
	.cfi_offset 9, -12
	.cfi_offset 18, -16
	.cfi_offset 19, -20
	.cfi_offset 20, -24
	.cfi_offset 21, -28
	.cfi_offset 22, -32
	.cfi_offset 23, -36
	.cfi_offset 25, -44
	.loc 1 1423 7
	li	a5,1
	.loc 1 1418 1
	mv	s8,a1
	.loc 1 1423 7
	bgtu	a2,a5,.L95
	.loc 1 1424 9 is_stmt 1
	.loc 1 1499 1 is_stmt 0
	lw	s0,88(sp)
	.cfi_remember_state
	.cfi_restore 8
	lw	ra,92(sp)
	.cfi_restore 1
	lw	s1,84(sp)
	.cfi_restore 9
	lw	s2,80(sp)
	.cfi_restore 18
	lw	s3,76(sp)
	.cfi_restore 19
	lw	s4,72(sp)
	.cfi_restore 20
	lw	s5,68(sp)
	.cfi_restore 21
	lw	s6,64(sp)
	.cfi_restore 22
	lw	s7,60(sp)
	.cfi_restore 23
	lw	s8,56(sp)
	.cfi_restore 24
	lw	s9,52(sp)
	.cfi_restore 25
	.loc 1 1424 17
	lw	a1,0(a1)
.LVL182:
	.loc 1 1499 1
	addi	sp,sp,96
	.cfi_def_cfa_offset 0
	.loc 1 1424 17
	tail	ecp_normalize_jac
.LVL183:
.L95:
	.cfi_restore_state
	mv	s2,a0
	.loc 1 1431 15
	li	a1,12
.LVL184:
	mv	a0,a2
.LVL185:
	mv	s7,a2
	.loc 1 1431 5 is_stmt 1
	.loc 1 1431 15 is_stmt 0
	call	blcrypto_suite_calloc
.LVL186:
	mv	s3,a0
.LVL187:
	.loc 1 1431 7
	beq	a0,zero,.L105
	li	s1,12
	mul	s1,s7,s1
	mv	s5,a0
	mv	s0,a0
	add	s6,s1,a0
.LVL188:
.L97:
	.loc 1 1435 9 is_stmt 1 discriminator 3
	mv	a0,s0
	.loc 1 1434 5 is_stmt 0 discriminator 3
	addi	s0,s0,12
	.loc 1 1435 9 discriminator 3
	call	blcrypto_suite_mpi_init
.LVL189:
	.loc 1 1434 29 is_stmt 1 discriminator 3
	.loc 1 1434 17 discriminator 3
	.loc 1 1434 5 is_stmt 0 discriminator 3
	bne	s6,s0,.L97
	.loc 1 1437 5 is_stmt 1
	addi	a0,sp,12
	call	blcrypto_suite_mpi_init
.LVL190:
	.loc 1 1437 36
	addi	a0,sp,24
	call	blcrypto_suite_mpi_init
.LVL191:
	.loc 1 1437 68
	addi	a0,sp,36
	call	blcrypto_suite_mpi_init
.LVL192:
	.loc 1 1442 5
	.loc 1 1442 10
	.loc 1 1442 55 is_stmt 0
	lw	a1,0(s8)
	.loc 1 1442 23
	mv	a0,s3
	addi	a1,a1,24
	call	blcrypto_suite_mpi_copy
.LVL193:
	mv	s0,a0
.LVL194:
	.loc 1 1442 12
	bne	a0,zero,.L98
	addi	s9,s8,4
	addi	s4,s3,12
.L99:
	.loc 1 1445 9 is_stmt 1
	.loc 1 1445 14
	.loc 1 1445 71 is_stmt 0
	lw	a2,0(s9)
	.loc 1 1445 27
	addi	a1,s4,-12
	mv	a0,s4
	addi	a2,a2,24
	call	blcrypto_suite_mpi_mul_mpi
.LVL195:
	mv	s0,a0
.LVL196:
	.loc 1 1445 16
	bne	a0,zero,.L98
	.loc 1 1445 113 is_stmt 1 discriminator 2
	.loc 1 1446 9 discriminator 2
	.loc 1 1446 14 discriminator 2
	.loc 1 1446 19 discriminator 2
	.loc 1 1446 32 is_stmt 0 discriminator 2
	mv	a1,s2
	mv	a0,s4
	call	ecp_modp
.LVL197:
	mv	s0,a0
.LVL198:
	.loc 1 1446 21 discriminator 2
	bne	a0,zero,.L98
	.loc 1 1446 88 is_stmt 1 discriminator 2
	.loc 1 1446 102 discriminator 2
	.loc 1 1443 29 discriminator 2
	.loc 1 1443 17 discriminator 2
	.loc 1 1443 5 is_stmt 0 discriminator 2
	addi	s4,s4,12
	addi	s9,s9,4
	bne	s6,s4,.L99
	.loc 1 1452 5 is_stmt 1
	.loc 1 1452 10
	.loc 1 1452 57 is_stmt 0
	addi	a1,s1,-12
	.loc 1 1452 23
	addi	a2,s2,4
	add	a1,s3,a1
	addi	a0,sp,12
	call	blcrypto_suite_mpi_inv_mod
.LVL199:
	mv	s0,a0
.LVL200:
	.loc 1 1452 12
	bne	a0,zero,.L98
	.loc 1 1452 110 is_stmt 1 discriminator 2
	.loc 1 1454 5 discriminator 2
	slli	s1,s7,2
	.loc 1 1454 12 is_stmt 0 discriminator 2
	addi	s4,s7,-1
.LVL201:
	add	s1,s8,s1
	.loc 1 1465 31 discriminator 2
	li	s7,12
.LVL202:
	addi	s8,s3,-12
.LVL203:
.L103:
	.loc 1 1460 9 is_stmt 1
	.loc 1 1460 11 is_stmt 0
	bne	s4,zero,.L100
	.loc 1 1461 13 is_stmt 1
	.loc 1 1461 18
	.loc 1 1461 31 is_stmt 0
	addi	a1,sp,12
	addi	a0,sp,24
	call	blcrypto_suite_mpi_copy
.LVL204:
.L114:
	mv	s0,a0
.LVL205:
	.loc 1 1461 20
	bne	a0,zero,.L98
	.loc 1 1466 192 is_stmt 1
	.loc 1 1466 206
	.loc 1 1472 9
	.loc 1 1472 14
	.loc 1 1472 27 is_stmt 0
	addi	a2,sp,24
	mv	a1,a2
	addi	a0,sp,36
	call	blcrypto_suite_mpi_mul_mpi
.LVL206:
	mv	s0,a0
.LVL207:
	.loc 1 1472 16
	beq	a0,zero,.L112
.LVL208:
.L98:
	.loc 1 1493 5 is_stmt 1
	addi	a0,sp,12
	call	blcrypto_suite_mpi_free
.LVL209:
	.loc 1 1493 36
	addi	a0,sp,24
	call	blcrypto_suite_mpi_free
.LVL210:
	.loc 1 1493 68
	addi	a0,sp,36
	call	blcrypto_suite_mpi_free
.LVL211:
	.loc 1 1494 5
	.loc 1 1494 17
.L104:
	.loc 1 1495 9 discriminator 3
	mv	a0,s5
	.loc 1 1494 5 is_stmt 0 discriminator 3
	addi	s5,s5,12
	.loc 1 1495 9 discriminator 3
	call	blcrypto_suite_mpi_free
.LVL212:
	.loc 1 1494 29 is_stmt 1 discriminator 3
	.loc 1 1494 17 discriminator 3
	.loc 1 1494 5 is_stmt 0 discriminator 3
	bne	s6,s5,.L104
	.loc 1 1496 5 is_stmt 1
	mv	a0,s3
	call	blcrypto_suite_free
.LVL213:
	.loc 1 1498 5
.L94:
	.loc 1 1499 1 is_stmt 0
	lw	ra,92(sp)
	.cfi_remember_state
	.cfi_restore 1
	mv	a0,s0
	lw	s0,88(sp)
	.cfi_restore 8
	lw	s1,84(sp)
	.cfi_restore 9
	lw	s2,80(sp)
	.cfi_restore 18
.LVL214:
	lw	s3,76(sp)
	.cfi_restore 19
.LVL215:
	lw	s4,72(sp)
	.cfi_restore 20
	lw	s5,68(sp)
	.cfi_restore 21
	lw	s6,64(sp)
	.cfi_restore 22
	lw	s7,60(sp)
	.cfi_restore 23
	lw	s8,56(sp)
	.cfi_restore 24
	lw	s9,52(sp)
	.cfi_restore 25
	addi	sp,sp,96
	.cfi_def_cfa_offset 0
	jr	ra
.LVL216:
.L100:
	.cfi_restore_state
	.loc 1 1465 13 is_stmt 1
	.loc 1 1465 18
	.loc 1 1465 31 is_stmt 0
	mul	a2,s4,s7
	addi	a1,sp,12
	addi	a0,sp,24
	add	a2,s8,a2
	call	blcrypto_suite_mpi_mul_mpi
.LVL217:
	mv	s0,a0
.LVL218:
	.loc 1 1465 20
	bne	a0,zero,.L98
	.loc 1 1465 109 is_stmt 1 discriminator 2
	.loc 1 1465 116 discriminator 2
	.loc 1 1465 121 discriminator 2
	.loc 1 1465 126 discriminator 2
	.loc 1 1465 139 is_stmt 0 discriminator 2
	mv	a1,s2
	addi	a0,sp,24
	call	ecp_modp
.LVL219:
	mv	s0,a0
.LVL220:
	.loc 1 1465 128 discriminator 2
	bne	a0,zero,.L98
	.loc 1 1465 193 is_stmt 1 discriminator 4
	.loc 1 1465 207 discriminator 4
	.loc 1 1466 13 discriminator 4
	.loc 1 1466 18 discriminator 4
	.loc 1 1466 67 is_stmt 0 discriminator 4
	lw	a2,-4(s1)
	.loc 1 1466 31 discriminator 4
	addi	a1,sp,12
	mv	a0,a1
	addi	a2,a2,24
	call	blcrypto_suite_mpi_mul_mpi
.LVL221:
	mv	s0,a0
.LVL222:
	.loc 1 1466 20 discriminator 4
	bne	a0,zero,.L98
	.loc 1 1466 109 is_stmt 1 discriminator 2
	.loc 1 1466 116 discriminator 2
	.loc 1 1466 121 discriminator 2
	.loc 1 1466 126 discriminator 2
	.loc 1 1466 139 is_stmt 0 discriminator 2
	mv	a1,s2
	addi	a0,sp,12
	call	ecp_modp
.LVL223:
	j	.L114
.L112:
	.loc 1 1472 103 is_stmt 1 discriminator 2
	.loc 1 1472 110 discriminator 2
	.loc 1 1472 115 discriminator 2
	.loc 1 1472 120 discriminator 2
	.loc 1 1472 133 is_stmt 0 discriminator 2
	mv	a1,s2
	addi	a0,sp,36
	call	ecp_modp
.LVL224:
	mv	s0,a0
.LVL225:
	.loc 1 1472 122 discriminator 2
	bne	a0,zero,.L98
	.loc 1 1472 188 is_stmt 1 discriminator 4
	.loc 1 1472 202 discriminator 4
	.loc 1 1473 9 discriminator 4
	.loc 1 1473 14 discriminator 4
	.loc 1 1473 27 is_stmt 0 discriminator 4
	lw	a1,-4(s1)
	addi	a2,sp,36
	mv	a0,a1
	call	blcrypto_suite_mpi_mul_mpi
.LVL226:
	mv	s0,a0
.LVL227:
	.loc 1 1473 16 discriminator 4
	bne	a0,zero,.L98
	.loc 1 1473 113 is_stmt 1 discriminator 2
	.loc 1 1473 120 discriminator 2
	.loc 1 1473 125 discriminator 2
	.loc 1 1473 130 discriminator 2
	.loc 1 1473 143 is_stmt 0 discriminator 2
	lw	a0,-4(s1)
	mv	a1,s2
	call	ecp_modp
.LVL228:
	mv	s0,a0
.LVL229:
	.loc 1 1473 132 discriminator 2
	bne	a0,zero,.L98
	.loc 1 1473 202 is_stmt 1 discriminator 4
	.loc 1 1473 216 discriminator 4
	.loc 1 1474 9 discriminator 4
	.loc 1 1474 14 discriminator 4
	.loc 1 1474 27 is_stmt 0 discriminator 4
	lw	a1,-4(s1)
	addi	a2,sp,36
	addi	a1,a1,12
	mv	a0,a1
	call	blcrypto_suite_mpi_mul_mpi
.LVL230:
	mv	s0,a0
.LVL231:
	.loc 1 1474 16 discriminator 4
	bne	a0,zero,.L98
	.loc 1 1474 113 is_stmt 1 discriminator 2
	.loc 1 1474 120 discriminator 2
	.loc 1 1474 125 discriminator 2
	.loc 1 1474 130 discriminator 2
	.loc 1 1474 143 is_stmt 0 discriminator 2
	lw	a0,-4(s1)
	mv	a1,s2
	addi	a0,a0,12
	call	ecp_modp
.LVL232:
	mv	s0,a0
.LVL233:
	.loc 1 1474 132 discriminator 2
	bne	a0,zero,.L98
	.loc 1 1474 202 is_stmt 1 discriminator 4
	.loc 1 1474 216 discriminator 4
	.loc 1 1475 9 discriminator 4
	.loc 1 1475 14 discriminator 4
	.loc 1 1475 27 is_stmt 0 discriminator 4
	lw	a1,-4(s1)
	addi	a2,sp,24
	addi	a1,a1,12
	mv	a0,a1
	call	blcrypto_suite_mpi_mul_mpi
.LVL234:
	mv	s0,a0
.LVL235:
	.loc 1 1475 16 discriminator 4
	bne	a0,zero,.L98
	.loc 1 1475 112 is_stmt 1 discriminator 2
	.loc 1 1475 119 discriminator 2
	.loc 1 1475 124 discriminator 2
	.loc 1 1475 129 discriminator 2
	.loc 1 1475 142 is_stmt 0 discriminator 2
	lw	a0,-4(s1)
	mv	a1,s2
	addi	a0,a0,12
	call	ecp_modp
.LVL236:
	mv	s0,a0
.LVL237:
	.loc 1 1475 131 discriminator 2
	bne	a0,zero,.L98
	.loc 1 1475 201 is_stmt 1 discriminator 4
	.loc 1 1475 215 discriminator 4
	.loc 1 1483 9 discriminator 4
	.loc 1 1483 14 discriminator 4
	.loc 1 1483 27 is_stmt 0 discriminator 4
	lw	a1,8(s2)
	lw	a0,-4(s1)
	call	blcrypto_suite_mpi_shrink
.LVL238:
	mv	s0,a0
.LVL239:
	.loc 1 1483 16 discriminator 4
	bne	a0,zero,.L98
	.loc 1 1483 106 is_stmt 1 discriminator 2
	.loc 1 1484 9 discriminator 2
	.loc 1 1484 14 discriminator 2
	.loc 1 1484 27 is_stmt 0 discriminator 2
	lw	a0,-4(s1)
	lw	a1,8(s2)
	addi	a0,a0,12
	call	blcrypto_suite_mpi_shrink
.LVL240:
	mv	s0,a0
.LVL241:
	.loc 1 1484 16 discriminator 2
	bne	a0,zero,.L98
	.loc 1 1484 106 is_stmt 1 discriminator 2
	.loc 1 1485 9 discriminator 2
	lw	a0,-4(s1)
	.loc 1 1487 11 is_stmt 0 discriminator 2
	addi	s1,s1,-4
	.loc 1 1485 9 discriminator 2
	addi	a0,a0,24
	call	blcrypto_suite_mpi_free
.LVL242:
	.loc 1 1487 9 is_stmt 1 discriminator 2
	.loc 1 1487 11 is_stmt 0 discriminator 2
	beq	s4,zero,.L98
	.loc 1 1454 28 is_stmt 1
	.loc 1 1454 29 is_stmt 0
	addi	s4,s4,-1
.LVL243:
	.loc 1 1454 26 is_stmt 1
	.loc 1 1460 11 is_stmt 0
	j	.L103
.LVL244:
.L105:
	.loc 1 1432 15
	li	a0,-20480
.LVL245:
	addi	s0,a0,640
	j	.L94
	.cfi_endproc
.LFE31:
	.size	ecp_normalize_jac_many, .-ecp_normalize_jac_many
	.section	.text.ecp_safe_invert_jac,"ax",@progbits
	.align	1
	.type	ecp_safe_invert_jac, @function
ecp_safe_invert_jac:
.LFB32:
	.loc 1 1508 1 is_stmt 1
	.cfi_startproc
.LVL246:
	.loc 1 1509 5
	.loc 1 1510 5
	.loc 1 1511 5
	.loc 1 1513 5
	.loc 1 1508 1 is_stmt 0
	addi	sp,sp,-32
	.cfi_def_cfa_offset 32
	sw	s0,24(sp)
	sw	s1,20(sp)
	.cfi_offset 8, -8
	.cfi_offset 9, -12
	mv	s0,a0
	mv	s1,a1
	.loc 1 1513 5
	addi	a0,sp,4
.LVL247:
	.loc 1 1508 1
	sw	s2,16(sp)
	sw	ra,28(sp)
	.cfi_offset 18, -16
	.cfi_offset 1, -4
	.loc 1 1508 1
	mv	s2,a2
	.loc 1 1516 66
	addi	s1,s1,12
	.loc 1 1513 5
	call	blcrypto_suite_mpi_init
.LVL248:
	.loc 1 1516 5 is_stmt 1
	.loc 1 1516 10
	.loc 1 1516 23 is_stmt 0
	mv	a2,s1
	addi	a1,s0,4
	addi	a0,sp,4
	call	blcrypto_suite_mpi_sub_mpi
.LVL249:
	.loc 1 1516 12
	bne	a0,zero,.L117
	.loc 1 1516 105 is_stmt 1 discriminator 2
	.loc 1 1517 5 discriminator 2
	.loc 1 1517 15 is_stmt 0 discriminator 2
	li	a1,0
	mv	a0,s1
.LVL250:
	call	blcrypto_suite_mpi_cmp_int
.LVL251:
	.loc 1 1518 5 is_stmt 1 discriminator 2
	.loc 1 1518 10 discriminator 2
	.loc 1 1517 54 is_stmt 0 discriminator 2
	snez	a0,a0
.LVL252:
	.loc 1 1518 23 discriminator 2
	and	a2,s2,a0
	addi	a1,sp,4
	mv	a0,s1
	call	blcrypto_suite_mpi_safe_cond_assign
.LVL253:
.L117:
.L116:
	mv	s0,a0
.LVL254:
	.loc 1 1518 120 is_stmt 1
	.loc 1 1521 5
	addi	a0,sp,4
	call	blcrypto_suite_mpi_free
.LVL255:
	.loc 1 1523 5
	.loc 1 1524 1 is_stmt 0
	lw	ra,28(sp)
	.cfi_restore 1
	mv	a0,s0
	lw	s0,24(sp)
	.cfi_restore 8
.LVL256:
	lw	s1,20(sp)
	.cfi_restore 9
.LVL257:
	lw	s2,16(sp)
	.cfi_restore 18
	addi	sp,sp,32
	.cfi_def_cfa_offset 0
	jr	ra
	.cfi_endproc
.LFE32:
	.size	ecp_safe_invert_jac, .-ecp_safe_invert_jac
	.section	.text.ecp_select_comb,"ax",@progbits
	.align	1
	.type	ecp_select_comb, @function
ecp_select_comb:
.LFB38:
	.loc 1 2035 1 is_stmt 1
	.cfi_startproc
.LVL258:
	.loc 1 2036 5
	.loc 1 2037 5
	.loc 1 2040 5
	.loc 1 2035 1 is_stmt 0
	addi	sp,sp,-64
	.cfi_def_cfa_offset 64
	sw	s6,32(sp)
	.cfi_offset 22, -32
	.loc 1 2040 24
	srli	s6,a4,1
	.loc 1 2035 1
	sw	s0,56(sp)
	sw	s1,52(sp)
	sw	s2,48(sp)
	sw	s3,44(sp)
	sw	s4,40(sp)
	sw	s5,36(sp)
	sw	s7,28(sp)
	sw	ra,60(sp)
	.cfi_offset 8, -8
	.cfi_offset 9, -12
	.cfi_offset 18, -16
	.cfi_offset 19, -20
	.cfi_offset 20, -24
	.cfi_offset 21, -28
	.cfi_offset 23, -36
	.cfi_offset 1, -4
	.loc 1 2035 1
	mv	s4,a0
	mv	s2,a1
	mv	s5,a3
	mv	s3,a4
	.loc 1 2040 8
	andi	s6,s6,63
.LVL259:
	.loc 1 2043 5 is_stmt 1
	addi	s1,a2,12
	.loc 1 2043 12 is_stmt 0
	li	s0,0
	.loc 1 2046 27
	addi	s7,a1,12
.LVL260:
.L120:
	.loc 1 2043 17 is_stmt 1 discriminator 2
	.loc 1 2043 5 is_stmt 0 discriminator 2
	bne	s0,s5,.L122
	.loc 1 2050 5 is_stmt 1
	.loc 1 2050 10
	.loc 1 2054 1 is_stmt 0
	lw	s0,56(sp)
	.cfi_remember_state
	.cfi_restore 8
.LVL261:
	lw	ra,60(sp)
	.cfi_restore 1
	lw	s1,52(sp)
	.cfi_restore 9
	lw	s5,36(sp)
	.cfi_restore 21
	lw	s6,32(sp)
	.cfi_restore 22
.LVL262:
	lw	s7,28(sp)
	.cfi_restore 23
	.loc 1 2050 23
	srli	a2,s3,7
	mv	a1,s2
	.loc 1 2054 1
	lw	s3,44(sp)
	.cfi_restore 19
.LVL263:
	lw	s2,48(sp)
	.cfi_restore 18
.LVL264:
	.loc 1 2050 23
	mv	a0,s4
	.loc 1 2054 1
	lw	s4,40(sp)
	.cfi_restore 20
.LVL265:
	addi	sp,sp,64
	.cfi_def_cfa_offset 0
	.loc 1 2050 23
	tail	ecp_safe_invert_jac
.LVL266:
.L122:
	.cfi_restore_state
	.loc 1 2045 9 is_stmt 1
	.loc 1 2045 14
	.loc 1 2045 27 is_stmt 0
	sub	a2,s0,s6
	seqz	a2,a2
	addi	a1,s1,-12
	mv	a0,s2
	sw	a2,12(sp)
	call	blcrypto_suite_mpi_safe_cond_assign
.LVL267:
	.loc 1 2045 16
	bne	a0,zero,.L119
	.loc 1 2045 121 is_stmt 1 discriminator 2
	.loc 1 2046 9 discriminator 2
	.loc 1 2046 14 discriminator 2
	.loc 1 2046 27 is_stmt 0 discriminator 2
	lw	a2,12(sp)
	mv	a1,s1
	mv	a0,s7
.LVL268:
	call	blcrypto_suite_mpi_safe_cond_assign
.LVL269:
	.loc 1 2046 16 discriminator 2
	addi	s1,s1,36
	bne	a0,zero,.L119
	.loc 1 2046 121 is_stmt 1 discriminator 2
	.loc 1 2043 29 discriminator 2
	.loc 1 2043 30 is_stmt 0 discriminator 2
	addi	s0,s0,1
.LVL270:
	andi	s0,s0,0xff
.LVL271:
	j	.L120
.L121:
.L119:
	.loc 1 2054 1
	lw	ra,60(sp)
	.cfi_restore 1
	lw	s0,56(sp)
	.cfi_restore 8
.LVL272:
	lw	s1,52(sp)
	.cfi_restore 9
	lw	s2,48(sp)
	.cfi_restore 18
.LVL273:
	lw	s3,44(sp)
	.cfi_restore 19
	lw	s4,40(sp)
	.cfi_restore 20
.LVL274:
	lw	s5,36(sp)
	.cfi_restore 21
	lw	s6,32(sp)
	.cfi_restore 22
.LVL275:
	lw	s7,28(sp)
	.cfi_restore 23
.LVL276:
	addi	sp,sp,64
	.cfi_def_cfa_offset 0
	jr	ra
	.cfi_endproc
.LFE38:
	.size	ecp_select_comb, .-ecp_select_comb
	.section	.text.ecp_randomize_jac,"ax",@progbits
	.align	1
	.type	ecp_randomize_jac, @function
ecp_randomize_jac:
.LFB35:
	.loc 1 1725 1 is_stmt 1
	.cfi_startproc
.LVL277:
	.loc 1 1726 5
	.loc 1 1727 5
	.loc 1 1728 5
	.loc 1 1729 5
	.loc 1 1736 5
	.loc 1 1725 1 is_stmt 0
	addi	sp,sp,-80
	.cfi_def_cfa_offset 80
	sw	ra,76(sp)
	sw	s1,68(sp)
	sw	s2,64(sp)
	sw	s3,60(sp)
	sw	s4,56(sp)
	sw	s5,52(sp)
	sw	s6,48(sp)
	sw	s7,44(sp)
	sw	s8,40(sp)
	sw	s0,72(sp)
	.cfi_offset 1, -4
	.cfi_offset 9, -12
	.cfi_offset 18, -16
	.cfi_offset 19, -20
	.cfi_offset 20, -24
	.cfi_offset 21, -28
	.cfi_offset 22, -32
	.cfi_offset 23, -36
	.cfi_offset 24, -40
	.cfi_offset 8, -8
	.loc 1 1736 27
	lw	s0,88(a0)
	.loc 1 1725 1
	mv	s1,a0
	.loc 1 1737 5
	addi	a0,sp,8
.LVL278:
	.loc 1 1725 1
	mv	s2,a1
	mv	s5,a2
	mv	s6,a3
	.loc 1 1737 5
	call	blcrypto_suite_mpi_init
.LVL279:
	.loc 1 1736 27
	addi	s0,s0,7
	.loc 1 1737 36
	addi	a0,sp,20
	.loc 1 1736 12
	srli	s7,s0,3
.LVL280:
	.loc 1 1737 5 is_stmt 1
	.loc 1 1737 36
	call	blcrypto_suite_mpi_init
.LVL281:
	li	s4,32
	.loc 1 1749 68 is_stmt 0
	andi	s3,s0,-8
	.loc 1 1752 14
	addi	s8,s1,4
.LVL282:
.L125:
	.loc 1 1740 5 is_stmt 1
	.loc 1 1742 9
	.loc 1 1742 11 is_stmt 0
	addi	s4,s4,-1
.LVL283:
	beq	s4,zero,.L128
.LVL284:
	.loc 1 1748 9 is_stmt 1
	.loc 1 1748 14
	.loc 1 1748 27 is_stmt 0
	mv	a3,s6
	mv	a2,s5
	mv	a1,s7
	addi	a0,sp,8
	call	blcrypto_suite_mpi_fill_random
.LVL285:
	mv	s0,a0
.LVL286:
	.loc 1 1748 16
	bne	a0,zero,.L126
	.loc 1 1748 117 is_stmt 1 discriminator 2
	.loc 1 1749 9 discriminator 2
	.loc 1 1749 14 discriminator 2
	.loc 1 1749 27 is_stmt 0 discriminator 2
	lw	a1,88(s1)
	addi	a0,sp,8
	sub	a1,s3,a1
	call	blcrypto_suite_mpi_shift_r
.LVL287:
	mv	s0,a0
.LVL288:
	.loc 1 1749 16 discriminator 2
	bne	a0,zero,.L126
	.loc 1 1749 120 is_stmt 1 discriminator 2
	.loc 1 1751 10 discriminator 2
	.loc 1 1751 14 is_stmt 0 discriminator 2
	li	a1,1
	addi	a0,sp,8
	call	blcrypto_suite_mpi_cmp_int
.LVL289:
	.loc 1 1752 12 discriminator 2
	ble	a0,zero,.L125
	.loc 1 1752 14 discriminator 1
	mv	a1,s8
	addi	a0,sp,8
	call	blcrypto_suite_mpi_cmp_mpi
.LVL290:
	.loc 1 1751 57 discriminator 1
	bge	a0,zero,.L125
	.loc 1 1755 5 is_stmt 1
	.loc 1 1755 10
	.loc 1 1755 23 is_stmt 0
	addi	s3,s2,24
	addi	a2,sp,8
	mv	a1,s3
	mv	a0,s3
	call	blcrypto_suite_mpi_mul_mpi
.LVL291:
	mv	s0,a0
.LVL292:
	.loc 1 1755 12
	bne	a0,zero,.L126
	.loc 1 1755 103 is_stmt 1 discriminator 2
	.loc 1 1755 110 discriminator 2
	.loc 1 1755 115 discriminator 2
	.loc 1 1755 120 discriminator 2
	.loc 1 1755 133 is_stmt 0 discriminator 2
	mv	a1,s1
	mv	a0,s3
	call	ecp_modp
.LVL293:
	mv	s0,a0
.LVL294:
	.loc 1 1755 122 discriminator 2
	bne	a0,zero,.L126
	.loc 1 1755 190 is_stmt 1 discriminator 4
	.loc 1 1755 204 discriminator 4
	.loc 1 1758 5 discriminator 4
	.loc 1 1758 10 discriminator 4
	.loc 1 1758 23 is_stmt 0 discriminator 4
	addi	a2,sp,8
	mv	a1,a2
	addi	a0,sp,20
	call	blcrypto_suite_mpi_mul_mpi
.LVL295:
	mv	s0,a0
.LVL296:
	.loc 1 1758 12 discriminator 4
	bne	a0,zero,.L126
	.loc 1 1758 96 is_stmt 1 discriminator 2
	.loc 1 1758 103 discriminator 2
	.loc 1 1758 108 discriminator 2
	.loc 1 1758 113 discriminator 2
	.loc 1 1758 126 is_stmt 0 discriminator 2
	mv	a1,s1
	addi	a0,sp,20
	call	ecp_modp
.LVL297:
	mv	s0,a0
.LVL298:
	.loc 1 1758 115 discriminator 2
	bne	a0,zero,.L126
	.loc 1 1758 180 is_stmt 1 discriminator 4
	.loc 1 1758 194 discriminator 4
	.loc 1 1759 5 discriminator 4
	.loc 1 1759 10 discriminator 4
	.loc 1 1759 23 is_stmt 0 discriminator 4
	addi	a2,sp,20
	mv	a1,s2
	mv	a0,s2
	call	blcrypto_suite_mpi_mul_mpi
.LVL299:
	mv	s0,a0
.LVL300:
	.loc 1 1759 12 discriminator 4
	bne	a0,zero,.L126
	.loc 1 1759 104 is_stmt 1 discriminator 2
	.loc 1 1759 111 discriminator 2
	.loc 1 1759 116 discriminator 2
	.loc 1 1759 121 discriminator 2
	.loc 1 1759 134 is_stmt 0 discriminator 2
	mv	a1,s1
	mv	a0,s2
	call	ecp_modp
.LVL301:
	mv	s0,a0
.LVL302:
	.loc 1 1759 123 discriminator 2
	bne	a0,zero,.L126
	.loc 1 1759 191 is_stmt 1 discriminator 4
	.loc 1 1759 205 discriminator 4
	.loc 1 1762 5 discriminator 4
	.loc 1 1762 10 discriminator 4
	.loc 1 1762 23 is_stmt 0 discriminator 4
	addi	a1,sp,20
	addi	a2,sp,8
	mv	a0,a1
	call	blcrypto_suite_mpi_mul_mpi
.LVL303:
	mv	s0,a0
.LVL304:
	.loc 1 1762 12 discriminator 4
	bne	a0,zero,.L126
	.loc 1 1762 97 is_stmt 1 discriminator 2
	.loc 1 1762 104 discriminator 2
	.loc 1 1762 109 discriminator 2
	.loc 1 1762 114 discriminator 2
	.loc 1 1762 127 is_stmt 0 discriminator 2
	mv	a1,s1
	addi	a0,sp,20
	call	ecp_modp
.LVL305:
	mv	s0,a0
.LVL306:
	.loc 1 1762 116 discriminator 2
	bne	a0,zero,.L126
	.loc 1 1762 181 is_stmt 1 discriminator 4
	.loc 1 1762 195 discriminator 4
	.loc 1 1763 5 discriminator 4
	.loc 1 1763 10 discriminator 4
	.loc 1 1763 23 is_stmt 0 discriminator 4
	addi	s2,s2,12
.LVL307:
	addi	a2,sp,20
	mv	a1,s2
	mv	a0,s2
	call	blcrypto_suite_mpi_mul_mpi
.LVL308:
	mv	s0,a0
.LVL309:
	.loc 1 1763 12 discriminator 4
	bne	a0,zero,.L126
	.loc 1 1763 104 is_stmt 1 discriminator 2
	.loc 1 1763 111 discriminator 2
	.loc 1 1763 116 discriminator 2
	.loc 1 1763 121 discriminator 2
	.loc 1 1763 134 is_stmt 0 discriminator 2
	mv	a1,s1
	mv	a0,s2
	call	ecp_modp
.LVL310:
	mv	s0,a0
.LVL311:
.L126:
	.loc 1 1763 191 is_stmt 1 discriminator 6
	.loc 1 1763 205 discriminator 6
	.loc 1 1766 5 discriminator 6
	addi	a0,sp,8
	call	blcrypto_suite_mpi_free
.LVL312:
	.loc 1 1766 36 discriminator 6
	addi	a0,sp,20
	call	blcrypto_suite_mpi_free
.LVL313:
	.loc 1 1768 5 discriminator 6
	.loc 1 1769 1 is_stmt 0 discriminator 6
	lw	ra,76(sp)
	.cfi_remember_state
	.cfi_restore 1
	mv	a0,s0
	lw	s0,72(sp)
	.cfi_restore 8
.LVL314:
	lw	s1,68(sp)
	.cfi_restore 9
.LVL315:
	lw	s2,64(sp)
	.cfi_restore 18
	lw	s3,60(sp)
	.cfi_restore 19
	lw	s4,56(sp)
	.cfi_restore 20
	lw	s5,52(sp)
	.cfi_restore 21
.LVL316:
	lw	s6,48(sp)
	.cfi_restore 22
.LVL317:
	lw	s7,44(sp)
	.cfi_restore 23
.LVL318:
	lw	s8,40(sp)
	.cfi_restore 24
.LVL319:
	addi	sp,sp,80
	.cfi_def_cfa_offset 0
	jr	ra
.LVL320:
.L128:
	.cfi_restore_state
	.loc 1 1744 17
	li	a0,-20480
	addi	s0,a0,768
	j	.L126
	.cfi_endproc
.LFE35:
	.size	ecp_randomize_jac, .-ecp_randomize_jac
	.section	.text.blcrypto_suite_ecp_point_free.part.0,"ax",@progbits
	.align	1
	.type	blcrypto_suite_ecp_point_free.part.0, @function
blcrypto_suite_ecp_point_free.part.0:
.LFB57:
	.loc 1 866 6 is_stmt 1
	.cfi_startproc
.LVL321:
	.loc 1 871 5
	.loc 1 866 6 is_stmt 0
	addi	sp,sp,-16
	.cfi_def_cfa_offset 16
	sw	ra,12(sp)
	sw	s0,8(sp)
	.cfi_offset 1, -4
	.cfi_offset 8, -8
	.loc 1 866 6
	mv	s0,a0
	.loc 1 871 5
	call	blcrypto_suite_mpi_free
.LVL322:
	.loc 1 872 5 is_stmt 1
	addi	a0,s0,12
	call	blcrypto_suite_mpi_free
.LVL323:
	.loc 1 873 5
	addi	a0,s0,24
	.loc 1 874 1 is_stmt 0
	lw	s0,8(sp)
	.cfi_restore 8
.LVL324:
	lw	ra,12(sp)
	.cfi_restore 1
	addi	sp,sp,16
	.cfi_def_cfa_offset 0
	.loc 1 873 5
	tail	blcrypto_suite_mpi_free
.LVL325:
	.cfi_endproc
.LFE57:
	.size	blcrypto_suite_ecp_point_free.part.0, .-blcrypto_suite_ecp_point_free.part.0
	.section	.text.blcrypto_suite_ecp_curve_list,"ax",@progbits
	.align	1
	.globl	blcrypto_suite_ecp_curve_list
	.type	blcrypto_suite_ecp_curve_list, @function
blcrypto_suite_ecp_curve_list:
.LFB4:
	.loc 1 714 1 is_stmt 1
	.cfi_startproc
	.loc 1 715 5
	.loc 1 715 11 is_stmt 0
	lui	a0,%hi(.LANCHOR0)
	.loc 1 716 1
	addi	a0,a0,%lo(.LANCHOR0)
	ret
	.cfi_endproc
.LFE4:
	.size	blcrypto_suite_ecp_curve_list, .-blcrypto_suite_ecp_curve_list
	.section	.text.blcrypto_suite_ecp_grp_id_list,"ax",@progbits
	.align	1
	.globl	blcrypto_suite_ecp_grp_id_list
	.type	blcrypto_suite_ecp_grp_id_list, @function
blcrypto_suite_ecp_grp_id_list:
.LFB5:
	.loc 1 722 1 is_stmt 1
	.cfi_startproc
	.loc 1 723 5
	.loc 1 725 5
	.loc 1 725 9 is_stmt 0
	lui	a5,%hi(.LANCHOR1)
	.loc 1 725 7
	lw	a4,%lo(.LANCHOR1)(a5)
	addi	a3,a5,%lo(.LANCHOR1)
	lui	a0,%hi(.LANCHOR2)
	bne	a4,zero,.L134
.LBB19:
	.loc 1 730 27
	lui	a4,%hi(.LANCHOR0)
	addi	a1,a0,%lo(.LANCHOR2)
	addi	a4,a4,%lo(.LANCHOR0)
	.loc 1 727 16
	li	a5,0
	addi	a2,a0,%lo(.LANCHOR2)
.L135:
.LVL326:
	.loc 1 731 14 is_stmt 1 discriminator 1
	.loc 1 731 24 is_stmt 0 discriminator 1
	lw	a6,0(a4)
	.loc 1 730 9 discriminator 1
	bne	a6,zero,.L136
	.loc 1 736 9 is_stmt 1
	.loc 1 736 33 is_stmt 0
	slli	a5,a5,2
.LVL327:
	add	a5,a2,a5
	sw	zero,0(a5)
	.loc 1 738 9 is_stmt 1
	.loc 1 738 19 is_stmt 0
	li	a5,1
	sw	a5,0(a3)
.LVL328:
.L134:
.LBE19:
	.loc 1 741 5 is_stmt 1
	.loc 1 742 1 is_stmt 0
	addi	a0,a0,%lo(.LANCHOR2)
	ret
.LVL329:
.L136:
.LBB20:
	.loc 1 734 13 is_stmt 1
	.loc 1 734 39 is_stmt 0
	sw	a6,0(a1)
	.loc 1 734 35
	addi	a5,a5,1
.LVL330:
	.loc 1 732 14 is_stmt 1
	.loc 1 732 24 is_stmt 0
	addi	a4,a4,12
.LVL331:
	addi	a1,a1,4
	j	.L135
.LBE20:
	.cfi_endproc
.LFE5:
	.size	blcrypto_suite_ecp_grp_id_list, .-blcrypto_suite_ecp_grp_id_list
	.section	.text.blcrypto_suite_ecp_curve_info_from_grp_id,"ax",@progbits
	.align	1
	.globl	blcrypto_suite_ecp_curve_info_from_grp_id
	.type	blcrypto_suite_ecp_curve_info_from_grp_id, @function
blcrypto_suite_ecp_curve_info_from_grp_id:
.LFB6:
	.loc 1 748 1 is_stmt 1
	.cfi_startproc
.LVL332:
	.loc 1 749 5
	.loc 1 751 5
	.loc 1 715 5
	.loc 1 751 23 is_stmt 0
	lui	a5,%hi(.LANCHOR0)
	.loc 1 748 1
	mv	a4,a0
	.loc 1 751 23
	addi	a0,a5,%lo(.LANCHOR0)
.LVL333:
.L138:
	.loc 1 752 10 is_stmt 1 discriminator 1
	.loc 1 752 20 is_stmt 0 discriminator 1
	lw	a5,0(a0)
	.loc 1 751 5 discriminator 1
	bne	a5,zero,.L140
	.loc 1 759 11
	li	a0,0
.LVL334:
.L137:
	.loc 1 760 1
	ret
.LVL335:
.L140:
	.loc 1 755 9 is_stmt 1
	.loc 1 755 11 is_stmt 0
	beq	a5,a4,.L137
	.loc 1 753 10 is_stmt 1
	.loc 1 753 20 is_stmt 0
	addi	a0,a0,12
.LVL336:
	j	.L138
	.cfi_endproc
.LFE6:
	.size	blcrypto_suite_ecp_curve_info_from_grp_id, .-blcrypto_suite_ecp_curve_info_from_grp_id
	.section	.text.blcrypto_suite_ecp_curve_info_from_tls_id,"ax",@progbits
	.align	1
	.globl	blcrypto_suite_ecp_curve_info_from_tls_id
	.type	blcrypto_suite_ecp_curve_info_from_tls_id, @function
blcrypto_suite_ecp_curve_info_from_tls_id:
.LFB7:
	.loc 1 766 1 is_stmt 1
	.cfi_startproc
.LVL337:
	.loc 1 767 5
	.loc 1 769 5
	.loc 1 715 5
	.loc 1 770 10
	.loc 1 773 9
	.loc 1 773 11 is_stmt 0
	li	a5,23
	bne	a0,a5,.L143
	lui	a0,%hi(.LANCHOR0)
.LVL338:
	addi	a0,a0,%lo(.LANCHOR0)
	ret
.LVL339:
.L143:
	.loc 1 777 11
	li	a0,0
.LVL340:
	.loc 1 778 1
	ret
	.cfi_endproc
.LFE7:
	.size	blcrypto_suite_ecp_curve_info_from_tls_id, .-blcrypto_suite_ecp_curve_info_from_tls_id
	.section	.rodata.blcrypto_suite_ecp_curve_info_from_name.str1.4,"aMS",@progbits,1
	.align	2
.LC0:
	.string	"secp256r1"
	.section	.text.blcrypto_suite_ecp_curve_info_from_name,"ax",@progbits
	.align	1
	.globl	blcrypto_suite_ecp_curve_info_from_name
	.type	blcrypto_suite_ecp_curve_info_from_name, @function
blcrypto_suite_ecp_curve_info_from_name:
.LFB8:
	.loc 1 784 1 is_stmt 1
	.cfi_startproc
.LVL341:
	.loc 1 785 5
	.loc 1 787 5
	.loc 1 787 7 is_stmt 0
	beq	a0,zero,.L152
	mv	a1,a0
.LVL342:
	.loc 1 794 9 is_stmt 1
	.loc 1 794 13 is_stmt 0
	lui	a0,%hi(.LC0)
.LVL343:
	.loc 1 784 1
	addi	sp,sp,-16
	.cfi_def_cfa_offset 16
	.loc 1 794 13
	addi	a0,a0,%lo(.LC0)
	.loc 1 784 1
	sw	ra,12(sp)
	.cfi_offset 1, -4
	.loc 1 794 13
	call	strcmp
.LVL344:
	.loc 1 794 11
	beq	a0,zero,.L147
	.loc 1 792 10 is_stmt 1
.LVL345:
	.loc 1 791 10
	.loc 1 798 11 is_stmt 0
	li	a0,0
.LVL346:
.L144:
	.loc 1 799 1
	lw	ra,12(sp)
	.cfi_remember_state
	.cfi_restore 1
	addi	sp,sp,16
	.cfi_def_cfa_offset 0
	jr	ra
.LVL347:
.L147:
	.cfi_restore_state
	lui	a0,%hi(.LANCHOR0)
	addi	a0,a0,%lo(.LANCHOR0)
	j	.L144
.LVL348:
.L152:
	.cfi_def_cfa_offset 0
	.cfi_restore 1
	.loc 1 792 10 is_stmt 1
	.loc 1 791 10
	.loc 1 798 11 is_stmt 0
	li	a0,0
.LVL349:
	.loc 1 799 1
	ret
	.cfi_endproc
.LFE8:
	.size	blcrypto_suite_ecp_curve_info_from_name, .-blcrypto_suite_ecp_curve_info_from_name
	.section	.text.blcrypto_suite_ecp_point_init,"ax",@progbits
	.align	1
	.globl	blcrypto_suite_ecp_point_init
	.type	blcrypto_suite_ecp_point_init, @function
blcrypto_suite_ecp_point_init:
.LFB10:
	.loc 1 819 1 is_stmt 1
	.cfi_startproc
.LVL350:
	.loc 1 820 5
	.loc 1 820 10
	.loc 1 820 17
	.loc 1 822 5
	.loc 1 819 1 is_stmt 0
	addi	sp,sp,-16
	.cfi_def_cfa_offset 16
	sw	ra,12(sp)
	sw	s0,8(sp)
	.cfi_offset 1, -4
	.cfi_offset 8, -8
	.loc 1 819 1
	mv	s0,a0
	.loc 1 822 5
	call	blcrypto_suite_mpi_init
.LVL351:
	.loc 1 823 5 is_stmt 1
	addi	a0,s0,12
	call	blcrypto_suite_mpi_init
.LVL352:
	.loc 1 824 5
	addi	a0,s0,24
	.loc 1 825 1 is_stmt 0
	lw	s0,8(sp)
	.cfi_restore 8
.LVL353:
	lw	ra,12(sp)
	.cfi_restore 1
	addi	sp,sp,16
	.cfi_def_cfa_offset 0
	.loc 1 824 5
	tail	blcrypto_suite_mpi_init
.LVL354:
	.cfi_endproc
.LFE10:
	.size	blcrypto_suite_ecp_point_init, .-blcrypto_suite_ecp_point_init
	.section	.text.blcrypto_suite_ecp_group_init,"ax",@progbits
	.align	1
	.globl	blcrypto_suite_ecp_group_init
	.type	blcrypto_suite_ecp_group_init, @function
blcrypto_suite_ecp_group_init:
.LFB11:
	.loc 1 831 1 is_stmt 1
	.cfi_startproc
.LVL355:
	.loc 1 832 5
	.loc 1 832 10
	.loc 1 832 17
	.loc 1 834 5
	.loc 1 831 1 is_stmt 0
	addi	sp,sp,-16
	.cfi_def_cfa_offset 16
	sw	ra,12(sp)
	sw	s0,8(sp)
	.cfi_offset 1, -4
	.cfi_offset 8, -8
	.loc 1 834 13
	sw	zero,0(a0)
	.loc 1 835 5 is_stmt 1
	.loc 1 831 1 is_stmt 0
	mv	s0,a0
	.loc 1 835 5
	addi	a0,a0,4
.LVL356:
	call	blcrypto_suite_mpi_init
.LVL357:
	.loc 1 836 5 is_stmt 1
	addi	a0,s0,16
	call	blcrypto_suite_mpi_init
.LVL358:
	.loc 1 837 5
	addi	a0,s0,28
	call	blcrypto_suite_mpi_init
.LVL359:
	.loc 1 838 5
	addi	a0,s0,40
	call	blcrypto_suite_ecp_point_init
.LVL360:
	.loc 1 839 5
	addi	a0,s0,76
	call	blcrypto_suite_mpi_init
.LVL361:
	.loc 1 840 5
	.loc 1 849 1 is_stmt 0
	lw	ra,12(sp)
	.cfi_restore 1
	.loc 1 840 16
	sw	zero,88(s0)
	.loc 1 841 5 is_stmt 1
	.loc 1 841 16 is_stmt 0
	sw	zero,92(s0)
	.loc 1 842 5 is_stmt 1
	.loc 1 842 12 is_stmt 0
	sw	zero,96(s0)
	.loc 1 843 5 is_stmt 1
	.loc 1 843 15 is_stmt 0
	sw	zero,100(s0)
	.loc 1 844 5 is_stmt 1
	.loc 1 844 16 is_stmt 0
	sw	zero,104(s0)
	.loc 1 845 5 is_stmt 1
	.loc 1 845 17 is_stmt 0
	sw	zero,108(s0)
	.loc 1 846 5 is_stmt 1
	.loc 1 846 17 is_stmt 0
	sw	zero,112(s0)
	.loc 1 847 5 is_stmt 1
	.loc 1 847 12 is_stmt 0
	sw	zero,116(s0)
	.loc 1 848 5 is_stmt 1
	.loc 1 848 17 is_stmt 0
	sw	zero,120(s0)
	.loc 1 849 1
	lw	s0,8(sp)
	.cfi_restore 8
.LVL362:
	addi	sp,sp,16
	.cfi_def_cfa_offset 0
	jr	ra
	.cfi_endproc
.LFE11:
	.size	blcrypto_suite_ecp_group_init, .-blcrypto_suite_ecp_group_init
	.section	.text.blcrypto_suite_ecp_keypair_init,"ax",@progbits
	.align	1
	.globl	blcrypto_suite_ecp_keypair_init
	.type	blcrypto_suite_ecp_keypair_init, @function
blcrypto_suite_ecp_keypair_init:
.LFB12:
	.loc 1 855 1 is_stmt 1
	.cfi_startproc
.LVL363:
	.loc 1 856 5
	.loc 1 856 10
	.loc 1 856 17
	.loc 1 858 5
	.loc 1 855 1 is_stmt 0
	addi	sp,sp,-16
	.cfi_def_cfa_offset 16
	sw	ra,12(sp)
	sw	s0,8(sp)
	.cfi_offset 1, -4
	.cfi_offset 8, -8
	.loc 1 855 1
	mv	s0,a0
	.loc 1 858 5
	call	blcrypto_suite_ecp_group_init
.LVL364:
	.loc 1 859 5 is_stmt 1
	addi	a0,s0,124
	call	blcrypto_suite_mpi_init
.LVL365:
	.loc 1 860 5
	addi	a0,s0,136
	.loc 1 861 1 is_stmt 0
	lw	s0,8(sp)
	.cfi_restore 8
.LVL366:
	lw	ra,12(sp)
	.cfi_restore 1
	addi	sp,sp,16
	.cfi_def_cfa_offset 0
	.loc 1 860 5
	tail	blcrypto_suite_ecp_point_init
.LVL367:
	.cfi_endproc
.LFE12:
	.size	blcrypto_suite_ecp_keypair_init, .-blcrypto_suite_ecp_keypair_init
	.section	.text.blcrypto_suite_ecp_point_free,"ax",@progbits
	.align	1
	.globl	blcrypto_suite_ecp_point_free
	.type	blcrypto_suite_ecp_point_free, @function
blcrypto_suite_ecp_point_free:
.LFB13:
	.loc 1 867 1 is_stmt 1
	.cfi_startproc
.LVL368:
	.loc 1 868 5
	.loc 1 868 7 is_stmt 0
	beq	a0,zero,.L161
	tail	blcrypto_suite_ecp_point_free.part.0
.LVL369:
.L161:
	.loc 1 874 1
	ret
	.cfi_endproc
.LFE13:
	.size	blcrypto_suite_ecp_point_free, .-blcrypto_suite_ecp_point_free
	.section	.text.blcrypto_suite_ecp_group_free,"ax",@progbits
	.align	1
	.globl	blcrypto_suite_ecp_group_free
	.type	blcrypto_suite_ecp_group_free, @function
blcrypto_suite_ecp_group_free:
.LFB14:
	.loc 1 880 1 is_stmt 1
	.cfi_startproc
.LVL370:
	.loc 1 881 5
	.loc 1 883 5
	.loc 1 883 7 is_stmt 0
	beq	a0,zero,.L163
	.loc 1 880 1
	addi	sp,sp,-16
	.cfi_def_cfa_offset 16
	sw	s0,8(sp)
	sw	ra,12(sp)
	sw	s1,4(sp)
	sw	s2,0(sp)
	.cfi_offset 8, -8
	.cfi_offset 1, -4
	.cfi_offset 9, -12
	.cfi_offset 18, -16
	.loc 1 886 7
	lw	a4,96(a0)
	li	a5,1
	mv	s0,a0
	.loc 1 886 5 is_stmt 1
	.loc 1 886 7 is_stmt 0
	beq	a4,a5,.L165
	.loc 1 888 9 is_stmt 1
	addi	a0,a0,4
.LVL371:
	call	blcrypto_suite_mpi_free
.LVL372:
	.loc 1 889 9
	addi	a0,s0,16
	call	blcrypto_suite_mpi_free
.LVL373:
	.loc 1 890 9
	addi	a0,s0,28
	call	blcrypto_suite_mpi_free
.LVL374:
	.loc 1 891 9
	addi	a0,s0,40
	call	blcrypto_suite_ecp_point_free
.LVL375:
	.loc 1 892 9
	addi	a0,s0,76
	call	blcrypto_suite_mpi_free
.LVL376:
.L165:
	.loc 1 895 5
	.loc 1 895 7 is_stmt 0
	lw	a5,116(s0)
	.loc 1 897 16
	li	s1,0
	.loc 1 898 13
	li	s2,36
	.loc 1 895 7
	bne	a5,zero,.L166
.L167:
	.loc 1 902 5 is_stmt 1
	mv	a0,s0
	.loc 1 903 1 is_stmt 0
	lw	s0,8(sp)
	.cfi_remember_state
	.cfi_restore 8
.LVL377:
	lw	ra,12(sp)
	.cfi_restore 1
	lw	s1,4(sp)
	.cfi_restore 9
	lw	s2,0(sp)
	.cfi_restore 18
	.loc 1 902 5
	li	a1,124
	.loc 1 903 1
	addi	sp,sp,16
	.cfi_def_cfa_offset 0
	.loc 1 902 5
	tail	blcrypto_suite_platform_zeroize
.LVL378:
.L168:
	.cfi_restore_state
	.loc 1 898 13 is_stmt 1 discriminator 3
	mul	a5,s1,s2
	.loc 1 897 39 is_stmt 0 discriminator 3
	addi	s1,s1,1
.LVL379:
	.loc 1 898 13 discriminator 3
	add	a0,a0,a5
	call	blcrypto_suite_ecp_point_free
.LVL380:
	.loc 1 897 38 is_stmt 1 discriminator 3
.L166:
	.loc 1 897 21 discriminator 1
	.loc 1 897 9 is_stmt 0 discriminator 1
	lw	a5,120(s0)
	.loc 1 898 48 discriminator 1
	lw	a0,116(s0)
	.loc 1 897 9 discriminator 1
	bgtu	a5,s1,.L168
	.loc 1 899 9 is_stmt 1
	call	blcrypto_suite_free
.LVL381:
	j	.L167
.LVL382:
.L163:
	.cfi_def_cfa_offset 0
	.cfi_restore 1
	.cfi_restore 8
	.cfi_restore 9
	.cfi_restore 18
	ret
	.cfi_endproc
.LFE14:
	.size	blcrypto_suite_ecp_group_free, .-blcrypto_suite_ecp_group_free
	.section	.text.blcrypto_suite_ecp_keypair_free,"ax",@progbits
	.align	1
	.globl	blcrypto_suite_ecp_keypair_free
	.type	blcrypto_suite_ecp_keypair_free, @function
blcrypto_suite_ecp_keypair_free:
.LFB15:
	.loc 1 909 1
	.cfi_startproc
.LVL383:
	.loc 1 910 5
	.loc 1 910 7 is_stmt 0
	beq	a0,zero,.L174
	.loc 1 909 1
	addi	sp,sp,-16
	.cfi_def_cfa_offset 16
	sw	ra,12(sp)
	sw	s0,8(sp)
	.cfi_offset 1, -4
	.cfi_offset 8, -8
	mv	s0,a0
	.loc 1 913 5 is_stmt 1
	call	blcrypto_suite_ecp_group_free
.LVL384:
	.loc 1 914 5
	addi	a0,s0,124
	call	blcrypto_suite_mpi_free
.LVL385:
	.loc 1 915 5
	addi	a0,s0,136
	.loc 1 916 1 is_stmt 0
	lw	s0,8(sp)
	.cfi_restore 8
.LVL386:
	lw	ra,12(sp)
	.cfi_restore 1
	addi	sp,sp,16
	.cfi_def_cfa_offset 0
	.loc 1 915 5
	tail	blcrypto_suite_ecp_point_free
.LVL387:
.L174:
	ret
	.cfi_endproc
.LFE15:
	.size	blcrypto_suite_ecp_keypair_free, .-blcrypto_suite_ecp_keypair_free
	.section	.text.blcrypto_suite_ecp_copy,"ax",@progbits
	.align	1
	.globl	blcrypto_suite_ecp_copy
	.type	blcrypto_suite_ecp_copy, @function
blcrypto_suite_ecp_copy:
.LFB16:
	.loc 1 922 1 is_stmt 1
	.cfi_startproc
.LVL388:
	.loc 1 923 5
	.loc 1 924 5
	.loc 1 924 10
	.loc 1 924 17
	.loc 1 925 5
	.loc 1 925 10
	.loc 1 925 17
	.loc 1 927 5
	.loc 1 927 10
	.loc 1 922 1 is_stmt 0
	addi	sp,sp,-16
	.cfi_def_cfa_offset 16
	sw	s0,8(sp)
	sw	s1,4(sp)
	sw	ra,12(sp)
	.cfi_offset 8, -8
	.cfi_offset 9, -12
	.cfi_offset 1, -4
	.loc 1 922 1
	mv	s0,a0
	mv	s1,a1
	.loc 1 927 23
	call	blcrypto_suite_mpi_copy
.LVL389:
	.loc 1 927 12
	bne	a0,zero,.L179
	.loc 1 927 94 is_stmt 1 discriminator 2
	.loc 1 928 5 discriminator 2
	.loc 1 928 10 discriminator 2
	.loc 1 928 23 is_stmt 0 discriminator 2
	addi	a1,s1,12
	addi	a0,s0,12
.LVL390:
	call	blcrypto_suite_mpi_copy
.LVL391:
	.loc 1 928 12 discriminator 2
	bne	a0,zero,.L179
.LVL392:
.LBB23:
.LBB24:
	.loc 1 928 94 is_stmt 1
	.loc 1 929 5
	.loc 1 929 10
	.loc 1 929 23 is_stmt 0
	addi	a0,s0,24
.LVL393:
.LBE24:
.LBE23:
	.loc 1 933 1
	lw	s0,8(sp)
	.cfi_remember_state
	.cfi_restore 8
.LVL394:
	lw	ra,12(sp)
	.cfi_restore 1
.LBB27:
.LBB25:
	.loc 1 929 23
	addi	a1,s1,24
.LBE25:
.LBE27:
	.loc 1 933 1
	lw	s1,4(sp)
	.cfi_restore 9
.LVL395:
	addi	sp,sp,16
	.cfi_def_cfa_offset 0
.LBB28:
.LBB26:
	.loc 1 929 23
	tail	blcrypto_suite_mpi_copy
.LVL396:
.L180:
.L179:
	.cfi_restore_state
.LBE26:
.LBE28:
	.loc 1 933 1
	lw	ra,12(sp)
	.cfi_restore 1
	lw	s0,8(sp)
	.cfi_restore 8
.LVL397:
	lw	s1,4(sp)
	.cfi_restore 9
.LVL398:
	addi	sp,sp,16
	.cfi_def_cfa_offset 0
	jr	ra
	.cfi_endproc
.LFE16:
	.size	blcrypto_suite_ecp_copy, .-blcrypto_suite_ecp_copy
	.section	.text.blcrypto_suite_ecp_group_copy,"ax",@progbits
	.align	1
	.globl	blcrypto_suite_ecp_group_copy
	.type	blcrypto_suite_ecp_group_copy, @function
blcrypto_suite_ecp_group_copy:
.LFB17:
	.loc 1 939 1 is_stmt 1
	.cfi_startproc
.LVL399:
	.loc 1 940 5
	.loc 1 940 10
	.loc 1 940 17
	.loc 1 941 5
	.loc 1 941 10
	.loc 1 941 17
	.loc 1 943 5
	.loc 1 943 13 is_stmt 0
	lw	a1,0(a1)
.LVL400:
	tail	blcrypto_suite_ecp_group_load
.LVL401:
	.cfi_endproc
.LFE17:
	.size	blcrypto_suite_ecp_group_copy, .-blcrypto_suite_ecp_group_copy
	.section	.text.blcrypto_suite_ecp_set_zero,"ax",@progbits
	.align	1
	.globl	blcrypto_suite_ecp_set_zero
	.type	blcrypto_suite_ecp_set_zero, @function
blcrypto_suite_ecp_set_zero:
.LFB18:
	.loc 1 950 1 is_stmt 1
	.cfi_startproc
.LVL402:
	.loc 1 951 5
	.loc 1 952 5
	.loc 1 952 10
	.loc 1 952 17
	.loc 1 954 5
	.loc 1 954 10
	.loc 1 950 1 is_stmt 0
	addi	sp,sp,-16
	.cfi_def_cfa_offset 16
	.loc 1 954 23
	li	a1,1
	.loc 1 950 1
	sw	s0,8(sp)
	sw	ra,12(sp)
	.cfi_offset 8, -8
	.cfi_offset 1, -4
	.loc 1 950 1
	mv	s0,a0
	.loc 1 954 23
	call	blcrypto_suite_mpi_lset
.LVL403:
	.loc 1 954 12
	bne	a0,zero,.L183
	.loc 1 954 92 is_stmt 1 discriminator 2
	.loc 1 955 5 discriminator 2
	.loc 1 955 10 discriminator 2
	.loc 1 955 23 is_stmt 0 discriminator 2
	li	a1,1
	addi	a0,s0,12
.LVL404:
	call	blcrypto_suite_mpi_lset
.LVL405:
	.loc 1 955 12 discriminator 2
	bne	a0,zero,.L183
.LVL406:
.LBB31:
.LBB32:
	.loc 1 955 92 is_stmt 1
	.loc 1 956 5
	.loc 1 956 10
	.loc 1 956 23 is_stmt 0
	addi	a0,s0,24
.LVL407:
.LBE32:
.LBE31:
	.loc 1 960 1
	lw	s0,8(sp)
	.cfi_remember_state
	.cfi_restore 8
.LVL408:
	lw	ra,12(sp)
	.cfi_restore 1
.LBB35:
.LBB33:
	.loc 1 956 23
	li	a1,0
.LBE33:
.LBE35:
	.loc 1 960 1
	addi	sp,sp,16
	.cfi_def_cfa_offset 0
.LBB36:
.LBB34:
	.loc 1 956 23
	tail	blcrypto_suite_mpi_lset
.LVL409:
.L184:
.L183:
	.cfi_restore_state
.LBE34:
.LBE36:
	.loc 1 960 1
	lw	ra,12(sp)
	.cfi_restore 1
	lw	s0,8(sp)
	.cfi_restore 8
.LVL410:
	addi	sp,sp,16
	.cfi_def_cfa_offset 0
	jr	ra
	.cfi_endproc
.LFE18:
	.size	blcrypto_suite_ecp_set_zero, .-blcrypto_suite_ecp_set_zero
	.section	.text.ecp_add_mixed,"ax",@progbits
	.align	1
	.type	ecp_add_mixed, @function
ecp_add_mixed:
.LFB34:
	.loc 1 1638 1 is_stmt 1
	.cfi_startproc
.LVL411:
	.loc 1 1639 5
	.loc 1 1640 5
	.loc 1 1654 5
	.loc 1 1638 1 is_stmt 0
	addi	sp,sp,-144
	.cfi_def_cfa_offset 144
	sw	s4,120(sp)
	.cfi_offset 20, -24
	.loc 1 1654 9
	addi	s4,a2,24
	.loc 1 1638 1
	sw	s2,128(sp)
	sw	s5,116(sp)
	.cfi_offset 18, -16
	.cfi_offset 21, -28
	mv	s2,a1
	mv	s5,a0
	.loc 1 1654 9
	li	a1,0
.LVL412:
	mv	a0,s4
.LVL413:
	.loc 1 1638 1
	sw	s3,124(sp)
	sw	s6,112(sp)
	sw	ra,140(sp)
	.cfi_offset 19, -20
	.cfi_offset 22, -32
	.cfi_offset 1, -4
	mv	s6,a3
	sw	s0,136(sp)
	sw	s1,132(sp)
	sw	s7,108(sp)
	.cfi_offset 8, -8
	.cfi_offset 9, -12
	.cfi_offset 23, -36
	.loc 1 1638 1
	mv	s3,a2
	.loc 1 1654 9
	call	blcrypto_suite_mpi_cmp_int
.LVL414:
	.loc 1 1655 17
	mv	a1,s6
	.loc 1 1654 7
	beq	a0,zero,.L238
	.loc 1 1657 5 is_stmt 1
	.loc 1 1657 7 is_stmt 0
	lw	a5,32(s6)
	bne	a5,zero,.L188
.L192:
	.loc 1 1666 5 is_stmt 1
	addi	a0,sp,12
	call	blcrypto_suite_mpi_init
.LVL415:
	.loc 1 1666 37
	addi	a0,sp,24
	call	blcrypto_suite_mpi_init
.LVL416:
	.loc 1 1666 69
	addi	a0,sp,36
	call	blcrypto_suite_mpi_init
.LVL417:
	.loc 1 1666 101
	addi	a0,sp,48
	call	blcrypto_suite_mpi_init
.LVL418:
	.loc 1 1667 5
	addi	s1,sp,60
	mv	a0,s1
	call	blcrypto_suite_mpi_init
.LVL419:
	.loc 1 1667 36
	addi	a0,sp,72
	call	blcrypto_suite_mpi_init
.LVL420:
	.loc 1 1667 67
	addi	a0,sp,84
	call	blcrypto_suite_mpi_init
.LVL421:
	.loc 1 1669 5
	.loc 1 1669 10
	.loc 1 1669 23 is_stmt 0
	mv	a2,s4
	mv	a1,s4
	addi	a0,sp,12
	call	blcrypto_suite_mpi_mul_mpi
.LVL422:
	mv	s0,a0
.LVL423:
	.loc 1 1669 12
	bne	a0,zero,.L189
	.loc 1 1669 102 is_stmt 1 discriminator 2
	.loc 1 1669 109 discriminator 2
	.loc 1 1669 114 discriminator 2
	.loc 1 1669 119 discriminator 2
	.loc 1 1669 132 is_stmt 0 discriminator 2
	mv	a1,s5
	addi	a0,sp,12
	call	ecp_modp
.LVL424:
	mv	s0,a0
.LVL425:
	.loc 1 1669 121 discriminator 2
	bne	a0,zero,.L189
	.loc 1 1669 186 is_stmt 1 discriminator 4
	.loc 1 1669 200 discriminator 4
	.loc 1 1670 5 discriminator 4
	.loc 1 1670 10 discriminator 4
	.loc 1 1670 23 is_stmt 0 discriminator 4
	mv	a2,s4
	addi	a1,sp,12
	addi	a0,sp,24
	call	blcrypto_suite_mpi_mul_mpi
.LVL426:
	mv	s0,a0
.LVL427:
	.loc 1 1670 12 discriminator 4
	bne	a0,zero,.L189
	.loc 1 1670 100 is_stmt 1 discriminator 2
	.loc 1 1670 107 discriminator 2
	.loc 1 1670 112 discriminator 2
	.loc 1 1670 117 discriminator 2
	.loc 1 1670 130 is_stmt 0 discriminator 2
	mv	a1,s5
	addi	a0,sp,24
	call	ecp_modp
.LVL428:
	mv	s0,a0
.LVL429:
	.loc 1 1670 119 discriminator 2
	bne	a0,zero,.L189
	.loc 1 1670 184 is_stmt 1 discriminator 4
	.loc 1 1670 198 discriminator 4
	.loc 1 1671 5 discriminator 4
	.loc 1 1671 10 discriminator 4
	.loc 1 1671 23 is_stmt 0 discriminator 4
	addi	a1,sp,12
	mv	a2,s6
	mv	a0,a1
	call	blcrypto_suite_mpi_mul_mpi
.LVL430:
	mv	s0,a0
.LVL431:
	.loc 1 1671 12 discriminator 4
	bne	a0,zero,.L189
	.loc 1 1671 100 is_stmt 1 discriminator 2
	.loc 1 1671 107 discriminator 2
	.loc 1 1671 112 discriminator 2
	.loc 1 1671 117 discriminator 2
	.loc 1 1671 130 is_stmt 0 discriminator 2
	mv	a1,s5
	addi	a0,sp,12
	call	ecp_modp
.LVL432:
	mv	s0,a0
.LVL433:
	.loc 1 1671 119 discriminator 2
	bne	a0,zero,.L189
	.loc 1 1671 184 is_stmt 1 discriminator 4
	.loc 1 1671 198 discriminator 4
	.loc 1 1672 5 discriminator 4
	.loc 1 1672 10 discriminator 4
	.loc 1 1672 23 is_stmt 0 discriminator 4
	addi	a1,sp,24
	addi	a2,s6,12
	mv	a0,a1
	call	blcrypto_suite_mpi_mul_mpi
.LVL434:
	mv	s0,a0
.LVL435:
	.loc 1 1672 12 discriminator 4
	bne	a0,zero,.L189
	.loc 1 1672 100 is_stmt 1 discriminator 2
	.loc 1 1672 107 discriminator 2
	.loc 1 1672 112 discriminator 2
	.loc 1 1672 117 discriminator 2
	.loc 1 1672 130 is_stmt 0 discriminator 2
	mv	a1,s5
	addi	a0,sp,24
	call	ecp_modp
.LVL436:
	mv	s0,a0
.LVL437:
	.loc 1 1672 119 discriminator 2
	bne	a0,zero,.L189
	.loc 1 1672 184 is_stmt 1 discriminator 4
	.loc 1 1672 198 discriminator 4
	.loc 1 1673 5 discriminator 4
	.loc 1 1673 10 discriminator 4
	.loc 1 1673 23 is_stmt 0 discriminator 4
	addi	a1,sp,12
	mv	a2,s3
	mv	a0,a1
	call	blcrypto_suite_mpi_sub_mpi
.LVL438:
	mv	s0,a0
.LVL439:
	.loc 1 1673 192 discriminator 4
	addi	s6,s5,4
.LVL440:
	.loc 1 1673 12 discriminator 4
	beq	a0,zero,.L194
.LVL441:
.L189:
	.loc 1 1706 91 is_stmt 1 discriminator 3
	.loc 1 1710 5 discriminator 3
	addi	a0,sp,12
	call	blcrypto_suite_mpi_free
.LVL442:
	.loc 1 1710 37 discriminator 3
	addi	a0,sp,24
	call	blcrypto_suite_mpi_free
.LVL443:
	.loc 1 1710 69 discriminator 3
	addi	a0,sp,36
	call	blcrypto_suite_mpi_free
.LVL444:
	.loc 1 1710 101 discriminator 3
	addi	a0,sp,48
	call	blcrypto_suite_mpi_free
.LVL445:
	.loc 1 1711 5 discriminator 3
	mv	a0,s1
	call	blcrypto_suite_mpi_free
.LVL446:
	.loc 1 1711 36 discriminator 3
	addi	a0,sp,72
	call	blcrypto_suite_mpi_free
.LVL447:
	.loc 1 1711 67 discriminator 3
	addi	a0,sp,84
	call	blcrypto_suite_mpi_free
.LVL448:
	.loc 1 1713 5 discriminator 3
.L186:
	.loc 1 1714 1 is_stmt 0
	lw	ra,140(sp)
	.cfi_remember_state
	.cfi_restore 1
	mv	a0,s0
	lw	s0,136(sp)
	.cfi_restore 8
	lw	s1,132(sp)
	.cfi_restore 9
	lw	s2,128(sp)
	.cfi_restore 18
.LVL449:
	lw	s3,124(sp)
	.cfi_restore 19
	lw	s4,120(sp)
	.cfi_restore 20
	lw	s5,116(sp)
	.cfi_restore 21
.LVL450:
	lw	s6,112(sp)
	.cfi_restore 22
	lw	s7,108(sp)
	.cfi_restore 23
	addi	sp,sp,144
	.cfi_def_cfa_offset 0
	jr	ra
.LVL451:
.L188:
	.cfi_restore_state
	.loc 1 1657 26 discriminator 1
	addi	s0,s6,24
	li	a1,0
.LVL452:
	mv	a0,s0
	call	blcrypto_suite_mpi_cmp_int
.LVL453:
	.loc 1 1657 23 discriminator 1
	bne	a0,zero,.L191
	.loc 1 1658 9 is_stmt 1
	.loc 1 1658 17 is_stmt 0
	mv	a1,s3
.L238:
	.loc 1 1714 1
	lw	s0,136(sp)
	.cfi_remember_state
	.cfi_restore 8
	lw	ra,140(sp)
	.cfi_restore 1
	lw	s1,132(sp)
	.cfi_restore 9
	lw	s3,124(sp)
	.cfi_restore 19
.LVL454:
	lw	s4,120(sp)
	.cfi_restore 20
.LVL455:
	lw	s5,116(sp)
	.cfi_restore 21
.LVL456:
	lw	s6,112(sp)
	.cfi_restore 22
.LVL457:
	lw	s7,108(sp)
	.cfi_restore 23
	.loc 1 1658 17
	mv	a0,s2
	.loc 1 1714 1
	lw	s2,128(sp)
	.cfi_restore 18
.LVL458:
	addi	sp,sp,144
	.cfi_def_cfa_offset 0
	.loc 1 1658 17
	tail	blcrypto_suite_ecp_copy
.LVL459:
.L191:
	.cfi_restore_state
	.loc 1 1663 5 is_stmt 1
	.loc 1 1663 7 is_stmt 0
	lw	a5,32(s6)
	beq	a5,zero,.L192
	.loc 1 1663 26 discriminator 1
	li	a1,1
	mv	a0,s0
	call	blcrypto_suite_mpi_cmp_int
.LVL460:
	.loc 1 1663 23 discriminator 1
	beq	a0,zero,.L192
	.loc 1 1664 15
	li	a0,-20480
	addi	s0,a0,128
	j	.L186
.LVL461:
.L195:
	.loc 1 1673 128 discriminator 5
	li	a1,0
	addi	a0,sp,12
	call	blcrypto_suite_mpi_cmp_int
.LVL462:
	.loc 1 1673 125 discriminator 5
	beq	a0,zero,.L198
	.loc 1 1673 174 is_stmt 1 discriminator 6
	.loc 1 1673 179 discriminator 6
	.loc 1 1673 192 is_stmt 0 discriminator 6
	addi	a1,sp,12
	mv	a2,s6
	mv	a0,a1
	call	blcrypto_suite_mpi_add_mpi
.LVL463:
	mv	s0,a0
.LVL464:
	.loc 1 1673 181 discriminator 6
	bne	a0,zero,.L189
.L194:
	.loc 1 1673 275 is_stmt 1 discriminator 4
	.loc 1 1673 112 discriminator 4
	lw	a5,12(sp)
	blt	a5,zero,.L195
.L198:
	.loc 1 1674 5
	.loc 1 1674 10
	.loc 1 1674 23 is_stmt 0
	addi	a1,sp,24
	addi	s6,s3,12
	mv	a2,s6
	mv	a0,a1
	call	blcrypto_suite_mpi_sub_mpi
.LVL465:
	mv	s0,a0
.LVL466:
	.loc 1 1674 192
	addi	s7,s5,4
	.loc 1 1674 12
	bne	a0,zero,.L189
.L196:
	.loc 1 1674 275 is_stmt 1 discriminator 4
	.loc 1 1674 112 discriminator 4
	lw	a5,24(sp)
	blt	a5,zero,.L199
.L203:
	.loc 1 1677 5
	.loc 1 1677 9 is_stmt 0
	li	a1,0
	addi	a0,sp,12
	call	blcrypto_suite_mpi_cmp_int
.LVL467:
	.loc 1 1677 7
	beq	a0,zero,.L200
	.loc 1 1691 5 is_stmt 1
	.loc 1 1691 10
	.loc 1 1691 23 is_stmt 0
	addi	a2,sp,12
	mv	a1,s4
	addi	a0,sp,84
	call	blcrypto_suite_mpi_mul_mpi
.LVL468:
	mv	s0,a0
.LVL469:
	.loc 1 1691 12
	bne	a0,zero,.L189
	.loc 1 1691 99 is_stmt 1 discriminator 2
	.loc 1 1691 106 discriminator 2
	.loc 1 1691 111 discriminator 2
	.loc 1 1691 116 discriminator 2
	.loc 1 1691 129 is_stmt 0 discriminator 2
	mv	a1,s5
	addi	a0,sp,84
	call	ecp_modp
.LVL470:
	mv	s0,a0
.LVL471:
	.loc 1 1691 118 discriminator 2
	bne	a0,zero,.L189
	.loc 1 1691 182 is_stmt 1 discriminator 4
	.loc 1 1691 196 discriminator 4
	.loc 1 1692 5 discriminator 4
	.loc 1 1692 10 discriminator 4
	.loc 1 1692 23 is_stmt 0 discriminator 4
	addi	a2,sp,12
	mv	a1,a2
	addi	a0,sp,36
	call	blcrypto_suite_mpi_mul_mpi
.LVL472:
	mv	s0,a0
.LVL473:
	.loc 1 1692 12 discriminator 4
	bne	a0,zero,.L189
	.loc 1 1692 98 is_stmt 1 discriminator 2
	.loc 1 1692 105 discriminator 2
	.loc 1 1692 110 discriminator 2
	.loc 1 1692 115 discriminator 2
	.loc 1 1692 128 is_stmt 0 discriminator 2
	mv	a1,s5
	addi	a0,sp,36
	call	ecp_modp
.LVL474:
	mv	s0,a0
.LVL475:
	.loc 1 1692 117 discriminator 2
	bne	a0,zero,.L189
	.loc 1 1692 182 is_stmt 1 discriminator 4
	.loc 1 1692 196 discriminator 4
	.loc 1 1693 5 discriminator 4
	.loc 1 1693 10 discriminator 4
	.loc 1 1693 23 is_stmt 0 discriminator 4
	addi	a2,sp,12
	addi	a1,sp,36
	addi	a0,sp,48
	call	blcrypto_suite_mpi_mul_mpi
.LVL476:
	mv	s0,a0
.LVL477:
	.loc 1 1693 12 discriminator 4
	bne	a0,zero,.L189
	.loc 1 1693 98 is_stmt 1 discriminator 2
	.loc 1 1693 105 discriminator 2
	.loc 1 1693 110 discriminator 2
	.loc 1 1693 115 discriminator 2
	.loc 1 1693 128 is_stmt 0 discriminator 2
	mv	a1,s5
	addi	a0,sp,48
	call	ecp_modp
.LVL478:
	mv	s0,a0
.LVL479:
	.loc 1 1693 117 discriminator 2
	bne	a0,zero,.L189
	.loc 1 1693 182 is_stmt 1 discriminator 4
	.loc 1 1693 196 discriminator 4
	.loc 1 1694 5 discriminator 4
	.loc 1 1694 10 discriminator 4
	.loc 1 1694 23 is_stmt 0 discriminator 4
	addi	a1,sp,36
	mv	a2,s3
	mv	a0,a1
	call	blcrypto_suite_mpi_mul_mpi
.LVL480:
	mv	s0,a0
.LVL481:
	.loc 1 1694 12 discriminator 4
	bne	a0,zero,.L189
	.loc 1 1694 100 is_stmt 1 discriminator 2
	.loc 1 1694 107 discriminator 2
	.loc 1 1694 112 discriminator 2
	.loc 1 1694 117 discriminator 2
	.loc 1 1694 130 is_stmt 0 discriminator 2
	mv	a1,s5
	addi	a0,sp,36
	call	ecp_modp
.LVL482:
	mv	s0,a0
.LVL483:
	.loc 1 1694 119 discriminator 2
	bne	a0,zero,.L189
	.loc 1 1694 184 is_stmt 1 discriminator 4
	.loc 1 1694 198 discriminator 4
	.loc 1 1695 5 discriminator 4
	.loc 1 1695 10 discriminator 4
	.loc 1 1695 23 is_stmt 0 discriminator 4
	li	a2,2
	addi	a1,sp,36
	addi	a0,sp,12
	call	blcrypto_suite_mpi_mul_int
.LVL484:
	mv	s0,a0
.LVL485:
	.loc 1 1695 110 discriminator 4
	addi	s4,s5,4
	.loc 1 1695 12 discriminator 4
	bne	a0,zero,.L189
.L205:
	.loc 1 1695 263 is_stmt 1 discriminator 4
	.loc 1 1695 108 discriminator 4
	.loc 1 1695 110 is_stmt 0 discriminator 4
	mv	a1,s4
	addi	a0,sp,12
	call	blcrypto_suite_mpi_cmp_mpi
.LVL486:
	.loc 1 1695 108 discriminator 4
	bge	a0,zero,.L206
	.loc 1 1696 5 is_stmt 1
	.loc 1 1696 10
	.loc 1 1696 23 is_stmt 0
	addi	a2,sp,24
	mv	a1,a2
	mv	a0,s1
	call	blcrypto_suite_mpi_mul_mpi
.LVL487:
	mv	s0,a0
.LVL488:
	.loc 1 1696 12
	bne	a0,zero,.L189
	.loc 1 1696 97 is_stmt 1 discriminator 2
	.loc 1 1696 104 discriminator 2
	.loc 1 1696 109 discriminator 2
	.loc 1 1696 114 discriminator 2
	.loc 1 1696 127 is_stmt 0 discriminator 2
	mv	a1,s5
	mv	a0,s1
	call	ecp_modp
.LVL489:
	mv	s0,a0
.LVL490:
	.loc 1 1696 116 discriminator 2
	bne	a0,zero,.L189
	.loc 1 1696 180 is_stmt 1 discriminator 4
	.loc 1 1696 194 discriminator 4
	.loc 1 1697 5 discriminator 4
	.loc 1 1697 10 discriminator 4
	.loc 1 1697 23 is_stmt 0 discriminator 4
	addi	a2,sp,12
	mv	a1,s1
	mv	a0,s1
	call	blcrypto_suite_mpi_sub_mpi
.LVL491:
	mv	s0,a0
.LVL492:
	mv	s3,s1
.LVL493:
	.loc 1 1697 12 discriminator 4
	bne	a0,zero,.L189
.L207:
	.loc 1 1697 267 is_stmt 1 discriminator 4
	.loc 1 1697 108 discriminator 4
	lw	a5,60(sp)
	blt	a5,zero,.L208
.L211:
	.loc 1 1698 5
	.loc 1 1698 10
	.loc 1 1698 23 is_stmt 0
	addi	a2,sp,48
	mv	a1,s3
	mv	a0,s3
	call	blcrypto_suite_mpi_sub_mpi
.LVL494:
.L234:
	.loc 1 1698 186 discriminator 6
	mv	s0,a0
.LVL495:
	.loc 1 1698 175 discriminator 6
	bne	a0,zero,.L189
	.loc 1 1698 267 is_stmt 1 discriminator 4
	.loc 1 1698 108 discriminator 4
	lw	a5,60(sp)
	blt	a5,zero,.L212
.L215:
	.loc 1 1699 5
	.loc 1 1699 10
	.loc 1 1699 23 is_stmt 0
	addi	a1,sp,36
	mv	a2,s3
	mv	a0,a1
	call	blcrypto_suite_mpi_sub_mpi
.LVL496:
.L235:
	.loc 1 1699 189 discriminator 6
	mv	s0,a0
.LVL497:
	.loc 1 1699 178 discriminator 6
	bne	a0,zero,.L189
	.loc 1 1699 272 is_stmt 1 discriminator 4
	.loc 1 1699 109 discriminator 4
	lw	a5,36(sp)
	blt	a5,zero,.L216
.L219:
	.loc 1 1700 5
	.loc 1 1700 10
	.loc 1 1700 23 is_stmt 0
	addi	a1,sp,36
	addi	a2,sp,24
	mv	a0,a1
	call	blcrypto_suite_mpi_mul_mpi
.LVL498:
	mv	s0,a0
.LVL499:
	.loc 1 1700 12
	bne	a0,zero,.L189
	.loc 1 1700 98 is_stmt 1 discriminator 2
	.loc 1 1700 105 discriminator 2
	.loc 1 1700 110 discriminator 2
	.loc 1 1700 115 discriminator 2
	.loc 1 1700 128 is_stmt 0 discriminator 2
	mv	a1,s5
	addi	a0,sp,36
	call	ecp_modp
.LVL500:
	mv	s0,a0
.LVL501:
	.loc 1 1700 117 discriminator 2
	bne	a0,zero,.L189
	.loc 1 1700 182 is_stmt 1 discriminator 4
	.loc 1 1700 196 discriminator 4
	.loc 1 1701 5 discriminator 4
	.loc 1 1701 10 discriminator 4
	.loc 1 1701 23 is_stmt 0 discriminator 4
	addi	a1,sp,48
	mv	a2,s6
	mv	a0,a1
	call	blcrypto_suite_mpi_mul_mpi
.LVL502:
	mv	s0,a0
.LVL503:
	.loc 1 1701 12 discriminator 4
	bne	a0,zero,.L189
	.loc 1 1701 100 is_stmt 1 discriminator 2
	.loc 1 1701 107 discriminator 2
	.loc 1 1701 112 discriminator 2
	.loc 1 1701 117 discriminator 2
	.loc 1 1701 130 is_stmt 0 discriminator 2
	mv	a1,s5
	addi	a0,sp,48
	call	ecp_modp
.LVL504:
	mv	s0,a0
.LVL505:
	.loc 1 1701 119 discriminator 2
	bne	a0,zero,.L189
	.loc 1 1701 184 is_stmt 1 discriminator 4
	.loc 1 1701 198 discriminator 4
	.loc 1 1702 5 discriminator 4
	.loc 1 1702 10 discriminator 4
	.loc 1 1702 23 is_stmt 0 discriminator 4
	addi	a2,sp,48
	addi	a1,sp,36
	addi	a0,sp,72
	call	blcrypto_suite_mpi_sub_mpi
.LVL506:
.L236:
	.loc 1 1702 187 discriminator 6
	mv	s0,a0
.LVL507:
	.loc 1 1702 176 discriminator 6
	bne	a0,zero,.L189
	.loc 1 1702 268 is_stmt 1 discriminator 4
	.loc 1 1702 109 discriminator 4
	lw	a5,72(sp)
	blt	a5,zero,.L221
.L224:
	.loc 1 1704 5
	.loc 1 1704 10
	.loc 1 1704 23 is_stmt 0
	mv	a1,s3
	mv	a0,s2
	call	blcrypto_suite_mpi_copy
.LVL508:
	mv	s0,a0
.LVL509:
	.loc 1 1704 12
	bne	a0,zero,.L189
	.loc 1 1704 91 is_stmt 1 discriminator 2
	.loc 1 1705 5 discriminator 2
	.loc 1 1705 10 discriminator 2
	.loc 1 1705 23 is_stmt 0 discriminator 2
	addi	a1,sp,72
	addi	a0,s2,12
	call	blcrypto_suite_mpi_copy
.LVL510:
	mv	s0,a0
.LVL511:
	.loc 1 1705 12 discriminator 2
	bne	a0,zero,.L189
	.loc 1 1705 91 is_stmt 1 discriminator 2
	.loc 1 1706 5 discriminator 2
	.loc 1 1706 10 discriminator 2
	.loc 1 1706 23 is_stmt 0 discriminator 2
	addi	a1,sp,84
	addi	a0,s2,24
	call	blcrypto_suite_mpi_copy
.LVL512:
	j	.L237
.LVL513:
.L199:
	.loc 1 1674 128 discriminator 5
	li	a1,0
	addi	a0,sp,24
	call	blcrypto_suite_mpi_cmp_int
.LVL514:
	.loc 1 1674 125 discriminator 5
	beq	a0,zero,.L203
	.loc 1 1674 174 is_stmt 1 discriminator 6
	.loc 1 1674 179 discriminator 6
	.loc 1 1674 192 is_stmt 0 discriminator 6
	addi	a1,sp,24
	mv	a2,s7
	mv	a0,a1
	call	blcrypto_suite_mpi_add_mpi
.LVL515:
	mv	s0,a0
.LVL516:
	.loc 1 1674 181 discriminator 6
	beq	a0,zero,.L196
	j	.L189
.L200:
	.loc 1 1679 9 is_stmt 1
	.loc 1 1679 13 is_stmt 0
	li	a1,0
	addi	a0,sp,24
	call	blcrypto_suite_mpi_cmp_int
.LVL517:
	.loc 1 1679 11
	bne	a0,zero,.L204
	.loc 1 1681 13 is_stmt 1
	.loc 1 1681 19 is_stmt 0
	mv	a2,s3
	mv	a1,s2
	mv	a0,s5
	call	ecp_double_jac
.LVL518:
.L237:
	.loc 1 1706 23 discriminator 2
	mv	s0,a0
.LVL519:
	.loc 1 1708 1 discriminator 2
	j	.L189
.LVL520:
.L204:
	.loc 1 1686 13 is_stmt 1
	.loc 1 1686 19 is_stmt 0
	mv	a0,s2
	call	blcrypto_suite_ecp_set_zero
.LVL521:
	j	.L237
.L206:
	.loc 1 1695 162 is_stmt 1 discriminator 5
	.loc 1 1695 167 discriminator 5
	.loc 1 1695 180 is_stmt 0 discriminator 5
	addi	a1,sp,12
	mv	a2,s4
	mv	a0,a1
	call	blcrypto_suite_mpi_sub_abs
.LVL522:
	mv	s0,a0
.LVL523:
	.loc 1 1695 169 discriminator 5
	beq	a0,zero,.L205
	j	.L189
.LVL524:
.L208:
	.loc 1 1697 123 discriminator 5
	li	a1,0
	mv	a0,s3
	call	blcrypto_suite_mpi_cmp_int
.LVL525:
	.loc 1 1697 120 discriminator 5
	beq	a0,zero,.L211
	.loc 1 1697 168 is_stmt 1 discriminator 6
	.loc 1 1697 173 discriminator 6
	.loc 1 1697 186 is_stmt 0 discriminator 6
	mv	a2,s4
	mv	a1,s3
	mv	a0,s3
	call	blcrypto_suite_mpi_add_mpi
.LVL526:
	mv	s0,a0
.LVL527:
	.loc 1 1697 175 discriminator 6
	beq	a0,zero,.L207
	j	.L189
.L212:
	.loc 1 1698 123 discriminator 5
	li	a1,0
	mv	a0,s3
	call	blcrypto_suite_mpi_cmp_int
.LVL528:
	.loc 1 1698 120 discriminator 5
	beq	a0,zero,.L215
	.loc 1 1698 168 is_stmt 1 discriminator 6
	.loc 1 1698 173 discriminator 6
	.loc 1 1698 186 is_stmt 0 discriminator 6
	mv	a2,s4
	mv	a1,s3
	mv	a0,s3
	call	blcrypto_suite_mpi_add_mpi
.LVL529:
	j	.L234
.L216:
	.loc 1 1699 125 discriminator 5
	li	a1,0
	addi	a0,sp,36
	call	blcrypto_suite_mpi_cmp_int
.LVL530:
	.loc 1 1699 122 discriminator 5
	beq	a0,zero,.L219
	.loc 1 1699 171 is_stmt 1 discriminator 6
	.loc 1 1699 176 discriminator 6
	.loc 1 1699 189 is_stmt 0 discriminator 6
	addi	a1,sp,36
	mv	a2,s4
	mv	a0,a1
	call	blcrypto_suite_mpi_add_mpi
.LVL531:
	j	.L235
.L221:
	.loc 1 1702 124 discriminator 5
	li	a1,0
	addi	a0,sp,72
	call	blcrypto_suite_mpi_cmp_int
.LVL532:
	.loc 1 1702 121 discriminator 5
	beq	a0,zero,.L224
	.loc 1 1702 169 is_stmt 1 discriminator 6
	.loc 1 1702 174 discriminator 6
	.loc 1 1702 187 is_stmt 0 discriminator 6
	addi	a1,sp,72
	mv	a2,s4
	mv	a0,a1
	call	blcrypto_suite_mpi_add_mpi
.LVL533:
	j	.L236
	.cfi_endproc
.LFE34:
	.size	ecp_add_mixed, .-ecp_add_mixed
	.section	.text.ecp_mul_comb_after_precomp.isra.0,"ax",@progbits
	.align	1
	.type	ecp_mul_comb_after_precomp.isra.0, @function
ecp_mul_comb_after_precomp.isra.0:
.LFB65:
	.loc 1 2186 12 is_stmt 1
	.cfi_startproc
.LVL534:
	.loc 1 2197 5
	.loc 1 2198 5
	.loc 1 2199 5
	.loc 1 2200 5
	.loc 1 2186 12 is_stmt 0
	addi	sp,sp,-400
	.cfi_def_cfa_offset 400
	sw	s2,384(sp)
	.cfi_offset 18, -16
	mv	s2,a0
.LBB45:
.LBB46:
	.loc 1 2154 5
	addi	a0,sp,24
.LVL535:
.LBE46:
.LBE45:
	.loc 1 2186 12
	sw	ra,396(sp)
	sw	s1,388(sp)
	sw	s3,380(sp)
	.cfi_offset 1, -4
	.cfi_offset 9, -12
	.cfi_offset 19, -20
	mv	s1,a1
.LVL536:
	.loc 1 2212 5 is_stmt 1
	.loc 1 2212 10
	.loc 1 2186 12 is_stmt 0
	mv	s3,a6
	sw	s4,376(sp)
	sw	s5,372(sp)
	.cfi_offset 20, -24
	.cfi_offset 21, -28
	mv	s4,a2
.LVL537:
	mv	s5,a7
	sw	s7,364(sp)
	sw	s8,360(sp)
	.cfi_offset 23, -36
	.cfi_offset 24, -40
	mv	s7,a3
	mv	s8,a4
	sw	s9,356(sp)
	sw	s10,352(sp)
	.cfi_offset 25, -44
	.cfi_offset 26, -48
	mv	s9,a5
.LVL538:
.LBB55:
.LBB51:
	.loc 1 2151 5 is_stmt 1
	.loc 1 2152 5
	.loc 1 2154 5
.LBE51:
.LBE55:
	.loc 1 2186 12 is_stmt 0
	sw	s0,392(sp)
	sw	s6,368(sp)
	sw	s11,348(sp)
	.cfi_offset 8, -8
	.cfi_offset 22, -32
	.cfi_offset 27, -52
.LBB56:
.LBB52:
	.loc 1 2154 5
	call	blcrypto_suite_mpi_init
.LVL539:
	.loc 1 2155 5 is_stmt 1
	addi	a0,sp,36
	call	blcrypto_suite_mpi_init
.LVL540:
	.loc 1 2158 5
	.loc 1 2158 9 is_stmt 0
	addi	s10,s2,76
	li	a1,0
	mv	a0,s10
	call	blcrypto_suite_mpi_get_bit
.LVL541:
	.loc 1 2158 7
	li	a5,1
	beq	a0,a5,.L240
.LVL542:
	.loc 1 2159 15
	li	a0,-20480
	addi	s0,a0,128
.L241:
.LVL543:
.L239:
.LBE52:
.LBE56:
	.loc 1 2250 1
	lw	ra,396(sp)
	.cfi_remember_state
	.cfi_restore 1
	mv	a0,s0
	lw	s0,392(sp)
	.cfi_restore 8
	lw	s1,388(sp)
	.cfi_restore 9
.LVL544:
	lw	s2,384(sp)
	.cfi_restore 18
.LVL545:
	lw	s3,380(sp)
	.cfi_restore 19
	lw	s4,376(sp)
	.cfi_restore 20
	lw	s5,372(sp)
	.cfi_restore 21
.LVL546:
	lw	s6,368(sp)
	.cfi_restore 22
	lw	s7,364(sp)
	.cfi_restore 23
.LVL547:
	lw	s8,360(sp)
	.cfi_restore 24
	lw	s9,356(sp)
	.cfi_restore 25
	lw	s10,352(sp)
	.cfi_restore 26
	lw	s11,348(sp)
	.cfi_restore 27
	addi	sp,sp,400
	.cfi_def_cfa_offset 0
.LVL548:
	jr	ra
.LVL549:
.L240:
	.cfi_restore_state
.LBB57:
.LBB53:
	.loc 1 2162 5 is_stmt 1
	.loc 1 2162 23 is_stmt 0
	li	a1,0
	mv	a0,s4
	call	blcrypto_suite_mpi_get_bit
.LVL550:
	.loc 1 2162 58
	seqz	s6,a0
.LVL551:
	.loc 1 2165 5 is_stmt 1
	.loc 1 2165 10
	.loc 1 2165 23 is_stmt 0
	mv	a1,s4
	addi	a0,sp,24
	call	blcrypto_suite_mpi_copy
.LVL552:
	mv	s0,a0
.LVL553:
	.loc 1 2165 12
	bne	a0,zero,.L242
	.loc 1 2165 87 is_stmt 1
	.loc 1 2166 5
	.loc 1 2166 10
	.loc 1 2166 23 is_stmt 0
	mv	a2,s4
	mv	a1,s10
	addi	a0,sp,36
	call	blcrypto_suite_mpi_sub_mpi
.LVL554:
	mv	s0,a0
.LVL555:
	.loc 1 2166 12
	bne	a0,zero,.L242
	.loc 1 2166 100 is_stmt 1
	.loc 1 2167 5
	.loc 1 2167 10
	.loc 1 2167 23 is_stmt 0
	mv	a2,s6
	addi	a1,sp,36
	addi	a0,sp,24
	call	blcrypto_suite_mpi_safe_cond_assign
.LVL556:
	mv	s0,a0
.LVL557:
	.loc 1 2167 12
	bne	a0,zero,.L242
	.loc 1 2167 116 is_stmt 1
	.loc 1 2170 5
.LVL558:
.LBB47:
.LBB48:
	.loc 1 1834 5
	.loc 1 1835 5
	.loc 1 1837 5
	addi	a2,s3,1
	li	a1,0
	addi	a0,sp,72
.LVL559:
	addi	s4,sp,72
.LVL560:
	call	memset
.LVL561:
	.loc 1 1840 5
	mv	s11,s4
	.loc 1 1840 12 is_stmt 0
	li	s10,0
.LVL562:
.L243:
	.loc 1 1840 17 is_stmt 1
	.loc 1 1840 5 is_stmt 0
	bne	s3,s10,.L254
	.loc 1 1845 7
	li	a0,0
	.loc 1 1846 12
	li	a1,1
.LVL563:
.L246:
	.loc 1 1846 17 is_stmt 1
	.loc 1 1846 5 is_stmt 0
	addi	s4,s4,1
	bgeu	s3,a1,.L247
.LVL564:
.L242:
.LBE48:
.LBE47:
	.loc 1 2173 5 is_stmt 1
	addi	a0,sp,36
	call	blcrypto_suite_mpi_free
.LVL565:
	.loc 1 2174 5
	addi	a0,sp,24
	call	blcrypto_suite_mpi_free
.LVL566:
	.loc 1 2176 5
.LBE53:
.LBE57:
	.loc 1 2212 12 is_stmt 0
	bne	s0,zero,.L239
.LVL567:
	.loc 1 2212 111 is_stmt 1
	.loc 1 2214 5
	.loc 1 2214 10
.LBB58:
.LBB59:
	.loc 1 2069 5
	.loc 1 2070 5
	.loc 1 2071 5
	.loc 1 2073 5
	addi	a0,sp,36
	call	blcrypto_suite_ecp_point_init
.LVL568:
	.loc 1 2076 5
	.loc 1 2097 9
	.loc 1 2098 9
	.loc 1 2098 14
	.loc 1 2098 27 is_stmt 0
	addi	a5,sp,336
	add	a5,a5,s3
	lbu	a4,-264(a5)
	mv	a3,s8
	mv	a2,s7
	mv	a1,s1
	mv	a0,s2
	call	ecp_select_comb
.LVL569:
	mv	s0,a0
.LVL570:
	.loc 1 2098 16
	bne	a0,zero,.L248
	.loc 1 2098 101 is_stmt 1
	.loc 1 2099 9
	.loc 1 2099 14
	.loc 1 2099 27 is_stmt 0
	li	a1,1
	addi	a0,s1,24
	call	blcrypto_suite_mpi_lset
.LVL571:
	mv	s0,a0
.LVL572:
	.loc 1 2099 16
	bne	a0,zero,.L248
	.loc 1 2099 94 is_stmt 1
	.loc 1 2101 9
	.loc 1 2101 11 is_stmt 0
	beq	s5,zero,.L250
	.loc 1 2103 13 is_stmt 1
	.loc 1 2103 18
	.loc 1 2103 31 is_stmt 0
	lw	a3,400(sp)
	mv	a2,s5
	mv	a1,s1
	mv	a0,s2
	call	ecp_randomize_jac
.LVL573:
.L267:
	.loc 1 2113 16
	bne	a0,zero,.L258
.L250:
.LVL574:
	.loc 1 2113 91 is_stmt 1
	.loc 1 2106 10
	bne	s3,zero,.L251
.LVL575:
.L248:
	.loc 1 2118 5
.LBB60:
.LBB61:
	.loc 1 868 5
	addi	a0,sp,36
.LVL576:
	call	blcrypto_suite_ecp_point_free.part.0
.LVL577:
.LBE61:
.LBE60:
	.loc 1 2129 5
.LBE59:
.LBE58:
	.loc 1 2214 12 is_stmt 0
	bne	s0,zero,.L239
.LVL578:
	.loc 1 2214 122 is_stmt 1
	.loc 1 2216 5
	.loc 1 2216 10
	.loc 1 2216 23 is_stmt 0
	mv	a2,s6
	mv	a1,s1
	mv	a0,s2
	call	ecp_safe_invert_jac
.LVL579:
	mv	s0,a0
.LVL580:
	.loc 1 2216 12
	bne	a0,zero,.L239
	.loc 1 2216 99 is_stmt 1
	.loc 1 2237 5
	.loc 1 2237 7 is_stmt 0
	bne	s5,zero,.L252
.L253:
	.loc 1 2239 101 is_stmt 1
	.loc 1 2241 5
	.loc 1 2241 10
	.loc 1 2241 23 is_stmt 0
	mv	a1,s1
	mv	a0,s2
	call	ecp_normalize_jac
.LVL581:
	mv	s0,a0
.LVL582:
	.loc 1 2248 1
	j	.L239
.LVL583:
.L244:
.LBB63:
.LBB54:
.LBB50:
.LBB49:
	.loc 1 1842 21
	addi	a0,sp,24
.LVL584:
	sw	a5,12(sp)
	.loc 1 1842 13 is_stmt 1
	.loc 1 1842 21 is_stmt 0
	sw	a1,8(sp)
	call	blcrypto_suite_mpi_get_bit
.LVL585:
	.loc 1 1842 64
	lw	a5,12(sp)
	.loc 1 1842 18
	lbu	a4,0(s11)
	lw	a1,8(sp)
	.loc 1 1842 64
	sll	a0,a0,a5
	.loc 1 1842 18
	or	a0,a0,a4
	sb	a0,0(s11)
	.loc 1 1841 28 is_stmt 1
	.loc 1 1841 29 is_stmt 0
	addi	a5,a5,1
.LVL586:
	add	a1,a1,s3
.LVL587:
.L245:
	.loc 1 1841 21 is_stmt 1
	.loc 1 1841 9 is_stmt 0
	bltu	a5,s9,.L244
	.loc 1 1840 24 is_stmt 1
	.loc 1 1840 25 is_stmt 0
	addi	s10,s10,1
.LVL588:
	addi	s11,s11,1
	j	.L243
.LVL589:
.L254:
	mv	a1,s10
	.loc 1 1841 16
	li	a5,0
	j	.L245
.LVL590:
.L247:
	.loc 1 1849 9 is_stmt 1
	.loc 1 1849 15 is_stmt 0
	lbu	a2,0(s4)
.LVL591:
	.loc 1 1850 9 is_stmt 1
	.loc 1 1855 24 is_stmt 0
	lbu	a7,-1(s4)
	.loc 1 1846 26
	addi	a1,a1,1
.LVL592:
	.loc 1 1850 14
	xor	a4,a2,a0
	.loc 1 1851 9 is_stmt 1
.LVL593:
	.loc 1 1854 9
	not	a5,a4
	andi	a5,a5,1
.LVL594:
	.loc 1 1855 9
	.loc 1 1855 30 is_stmt 0
	mul	a3,a5,a7
	.loc 1 1855 15
	slli	a4,a4,24
	srai	a4,a4,24
	.loc 1 1849 12
	and	a2,a2,a0
.LVL595:
	.loc 1 1857 26
	slli	a5,a5,7
.LVL596:
	.loc 1 1857 16
	or	a5,a5,a7
	sb	a5,-1(s4)
	.loc 1 1855 30
	slli	a3,a3,24
	srai	a3,a3,24
	.loc 1 1855 19
	and	a6,a4,a3
	.loc 1 1855 11
	or	a2,a6,a2
	.loc 1 1856 21
	xor	a4,a4,a3
	.loc 1 1855 11
	andi	a0,a2,0xff
.LVL597:
	.loc 1 1856 9 is_stmt 1
	.loc 1 1856 14 is_stmt 0
	sb	a4,0(s4)
	.loc 1 1857 9 is_stmt 1
	.loc 1 1846 25
.LVL598:
	j	.L246
.LVL599:
.L251:
.LBE49:
.LBE50:
.LBE54:
.LBE63:
.LBB64:
.LBB62:
	.loc 1 2108 9
	.loc 1 2109 9
	.loc 1 2111 27 is_stmt 0
	mv	a2,s1
	mv	a1,s1
	mv	a0,s2
	.loc 1 2109 9
	addi	s3,s3,-1
.LVL600:
	.loc 1 2111 9 is_stmt 1
	.loc 1 2111 14
	.loc 1 2111 27 is_stmt 0
	call	ecp_double_jac
.LVL601:
	.loc 1 2111 16
	bne	a0,zero,.L258
	.loc 1 2111 86 is_stmt 1
	.loc 1 2112 9
	.loc 1 2112 14
	.loc 1 2112 27 is_stmt 0
	addi	a5,sp,72
.LVL602:
	add	a5,a5,s3
.LVL603:
	lbu	a4,0(a5)
	mv	a3,s8
	mv	a2,s7
	addi	a1,sp,36
	mv	a0,s2
.LVL604:
	call	ecp_select_comb
.LVL605:
	.loc 1 2112 16
	bne	a0,zero,.L258
	.loc 1 2112 104 is_stmt 1
	.loc 1 2113 9
	.loc 1 2113 14
	.loc 1 2113 27 is_stmt 0
	addi	a3,sp,36
	mv	a2,s1
	mv	a1,s1
	mv	a0,s2
.LVL606:
	call	ecp_add_mixed
.LVL607:
	j	.L267
.LVL608:
.L258:
	mv	s0,a0
	j	.L248
.LVL609:
.L252:
.LBE62:
.LBE64:
	.loc 1 2239 9 is_stmt 1
	.loc 1 2239 14
	.loc 1 2239 27 is_stmt 0
	lw	a3,400(sp)
	mv	a2,s5
	mv	a1,s1
	mv	a0,s2
	call	ecp_randomize_jac
.LVL610:
	mv	s0,a0
.LVL611:
	.loc 1 2239 16
	beq	a0,zero,.L253
	j	.L239
	.cfi_endproc
.LFE65:
	.size	ecp_mul_comb_after_precomp.isra.0, .-ecp_mul_comb_after_precomp.isra.0
	.section	.text.blcrypto_suite_ecp_is_zero,"ax",@progbits
	.align	1
	.globl	blcrypto_suite_ecp_is_zero
	.type	blcrypto_suite_ecp_is_zero, @function
blcrypto_suite_ecp_is_zero:
.LFB19:
	.loc 1 966 1 is_stmt 1
	.cfi_startproc
.LVL612:
	.loc 1 967 5
	.loc 1 967 10
	.loc 1 967 17
	.loc 1 969 5
	.loc 1 966 1 is_stmt 0
	addi	sp,sp,-16
	.cfi_def_cfa_offset 16
	.loc 1 969 13
	li	a1,0
	addi	a0,a0,24
.LVL613:
	.loc 1 966 1
	sw	ra,12(sp)
	.cfi_offset 1, -4
	.loc 1 969 13
	call	blcrypto_suite_mpi_cmp_int
.LVL614:
	.loc 1 970 1
	lw	ra,12(sp)
	.cfi_restore 1
	seqz	a0,a0
	addi	sp,sp,16
	.cfi_def_cfa_offset 0
	jr	ra
	.cfi_endproc
.LFE19:
	.size	blcrypto_suite_ecp_is_zero, .-blcrypto_suite_ecp_is_zero
	.section	.text.blcrypto_suite_ecp_point_cmp,"ax",@progbits
	.align	1
	.globl	blcrypto_suite_ecp_point_cmp
	.type	blcrypto_suite_ecp_point_cmp, @function
blcrypto_suite_ecp_point_cmp:
.LFB20:
	.loc 1 977 1 is_stmt 1
	.cfi_startproc
.LVL615:
	.loc 1 978 5
	.loc 1 978 10
	.loc 1 978 17
	.loc 1 979 5
	.loc 1 979 10
	.loc 1 979 17
	.loc 1 981 5
	.loc 1 977 1 is_stmt 0
	addi	sp,sp,-16
	.cfi_def_cfa_offset 16
	sw	s0,8(sp)
	sw	s1,4(sp)
	sw	ra,12(sp)
	.cfi_offset 8, -8
	.cfi_offset 9, -12
	.cfi_offset 1, -4
	.loc 1 977 1
	mv	s0,a0
	mv	s1,a1
	.loc 1 981 9
	call	blcrypto_suite_mpi_cmp_mpi
.LVL616:
	.loc 1 981 7
	beq	a0,zero,.L271
.L273:
	.loc 1 988 11
	li	a0,-20480
	addi	a0,a0,128
.L270:
	.loc 1 989 1
	lw	ra,12(sp)
	.cfi_remember_state
	.cfi_restore 1
	lw	s0,8(sp)
	.cfi_restore 8
.LVL617:
	lw	s1,4(sp)
	.cfi_restore 9
.LVL618:
	addi	sp,sp,16
	.cfi_def_cfa_offset 0
	jr	ra
.LVL619:
.L271:
	.cfi_restore_state
	.loc 1 982 9 discriminator 1
	addi	a1,s1,12
	addi	a0,s0,12
	call	blcrypto_suite_mpi_cmp_mpi
.LVL620:
	.loc 1 981 57 discriminator 1
	bne	a0,zero,.L273
	.loc 1 983 9
	addi	a1,s1,24
	addi	a0,s0,24
	call	blcrypto_suite_mpi_cmp_mpi
.LVL621:
	.loc 1 982 57
	beq	a0,zero,.L270
	j	.L273
	.cfi_endproc
.LFE20:
	.size	blcrypto_suite_ecp_point_cmp, .-blcrypto_suite_ecp_point_cmp
	.section	.text.blcrypto_suite_ecp_point_read_string,"ax",@progbits
	.align	1
	.globl	blcrypto_suite_ecp_point_read_string
	.type	blcrypto_suite_ecp_point_read_string, @function
blcrypto_suite_ecp_point_read_string:
.LFB21:
	.loc 1 996 1 is_stmt 1
	.cfi_startproc
.LVL622:
	.loc 1 997 5
	.loc 1 998 5
	.loc 1 998 10
	.loc 1 998 17
	.loc 1 999 5
	.loc 1 999 10
	.loc 1 999 17
	.loc 1 1000 5
	.loc 1 1000 10
	.loc 1 1000 17
	.loc 1 1002 5
	.loc 1 1002 10
	.loc 1 996 1 is_stmt 0
	addi	sp,sp,-16
	.cfi_def_cfa_offset 16
	sw	s0,8(sp)
	sw	s1,4(sp)
	sw	s2,0(sp)
	sw	ra,12(sp)
	.cfi_offset 8, -8
	.cfi_offset 9, -12
	.cfi_offset 18, -16
	.cfi_offset 1, -4
	.loc 1 996 1
	mv	s0,a0
	mv	s1,a1
	mv	s2,a3
	.loc 1 1002 23
	call	blcrypto_suite_mpi_read_string
.LVL623:
	.loc 1 1002 12
	bne	a0,zero,.L275
	.loc 1 1002 104 is_stmt 1 discriminator 2
	.loc 1 1003 5 discriminator 2
	.loc 1 1003 10 discriminator 2
	.loc 1 1003 23 is_stmt 0 discriminator 2
	mv	a2,s2
	mv	a1,s1
	addi	a0,s0,12
.LVL624:
	call	blcrypto_suite_mpi_read_string
.LVL625:
	.loc 1 1003 12 discriminator 2
	bne	a0,zero,.L275
	.loc 1 1003 104 is_stmt 1 discriminator 2
	.loc 1 1004 5 discriminator 2
	.loc 1 1004 10 discriminator 2
	.loc 1 1004 23 is_stmt 0 discriminator 2
	addi	a0,s0,24
.LVL626:
	.loc 1 1008 1 discriminator 2
	lw	s0,8(sp)
	.cfi_remember_state
	.cfi_restore 8
.LVL627:
	lw	ra,12(sp)
	.cfi_restore 1
	lw	s1,4(sp)
	.cfi_restore 9
.LVL628:
	lw	s2,0(sp)
	.cfi_restore 18
.LVL629:
	.loc 1 1004 23 discriminator 2
	li	a1,1
	.loc 1 1008 1 discriminator 2
	addi	sp,sp,16
	.cfi_def_cfa_offset 0
	.loc 1 1004 23 discriminator 2
	tail	blcrypto_suite_mpi_lset
.LVL630:
.L276:
.L275:
	.cfi_restore_state
	.loc 1 1008 1
	lw	ra,12(sp)
	.cfi_restore 1
	lw	s0,8(sp)
	.cfi_restore 8
.LVL631:
	lw	s1,4(sp)
	.cfi_restore 9
.LVL632:
	lw	s2,0(sp)
	.cfi_restore 18
.LVL633:
	addi	sp,sp,16
	.cfi_def_cfa_offset 0
	jr	ra
	.cfi_endproc
.LFE21:
	.size	blcrypto_suite_ecp_point_read_string, .-blcrypto_suite_ecp_point_read_string
	.section	.text.blcrypto_suite_ecp_point_write_binary,"ax",@progbits
	.align	1
	.globl	blcrypto_suite_ecp_point_write_binary
	.type	blcrypto_suite_ecp_point_write_binary, @function
blcrypto_suite_ecp_point_write_binary:
.LFB22:
	.loc 1 1017 1 is_stmt 1
	.cfi_startproc
.LVL634:
	.loc 1 1018 5
	.loc 1 1019 5
	.loc 1 1020 5
	.loc 1 1020 10
	.loc 1 1020 17
	.loc 1 1021 5
	.loc 1 1021 10
	.loc 1 1021 17
	.loc 1 1022 5
	.loc 1 1022 10
	.loc 1 1022 17
	.loc 1 1023 5
	.loc 1 1023 10
	.loc 1 1023 17
	.loc 1 1024 5
	.loc 1 1024 10
	.loc 1 1024 17
	.loc 1 1030 5
	.loc 1 1017 1 is_stmt 0
	addi	sp,sp,-48
	.cfi_def_cfa_offset 48
	sw	s1,36(sp)
	.cfi_offset 9, -12
	mv	s1,a1
	sw	s5,20(sp)
	.loc 1 1030 9
	li	a1,0
.LVL635:
	.cfi_offset 21, -28
	.loc 1 1017 1
	mv	s5,a0
	.loc 1 1030 9
	addi	a0,s1,24
.LVL636:
	.loc 1 1017 1
	sw	s0,40(sp)
	sw	s2,32(sp)
	sw	s3,28(sp)
	sw	s4,24(sp)
	sw	ra,44(sp)
	.cfi_offset 8, -8
	.cfi_offset 18, -16
	.cfi_offset 19, -20
	.cfi_offset 20, -24
	.cfi_offset 1, -4
	.loc 1 1017 1
	mv	s4,a2
	mv	s3,a3
	mv	s0,a4
	mv	s2,a5
	.loc 1 1030 9
	call	blcrypto_suite_mpi_cmp_int
.LVL637:
	.loc 1 1030 7
	bne	a0,zero,.L279
	.loc 1 1032 9 is_stmt 1
	.loc 1 1032 11 is_stmt 0
	bne	s2,zero,.L280
.L283:
	.loc 1 1033 19
	li	a0,-20480
	addi	a0,a0,256
.L278:
	.loc 1 1067 1
	lw	ra,44(sp)
	.cfi_remember_state
	.cfi_restore 1
	lw	s0,40(sp)
	.cfi_restore 8
.LVL638:
	lw	s1,36(sp)
	.cfi_restore 9
.LVL639:
	lw	s2,32(sp)
	.cfi_restore 18
.LVL640:
	lw	s3,28(sp)
	.cfi_restore 19
.LVL641:
	lw	s4,24(sp)
	.cfi_restore 20
.LVL642:
	lw	s5,20(sp)
	.cfi_restore 21
.LVL643:
	addi	sp,sp,48
	.cfi_def_cfa_offset 0
	jr	ra
.LVL644:
.L280:
	.cfi_restore_state
	.loc 1 1035 9 is_stmt 1
	.loc 1 1035 16 is_stmt 0
	sb	zero,0(s0)
	.loc 1 1036 9 is_stmt 1
	.loc 1 1036 15 is_stmt 0
	li	a5,1
	sw	a5,0(s3)
	.loc 1 1038 9 is_stmt 1
	.loc 1 1038 15 is_stmt 0
	j	.L278
.L279:
.LVL645:
.LBB67:
.LBB68:
	.loc 1 1041 5 is_stmt 1
	.loc 1 1041 12 is_stmt 0
	addi	a0,s5,4
	call	blcrypto_suite_mpi_size
.LVL646:
	mv	a2,a0
.LVL647:
	.loc 1 1043 5 is_stmt 1
	.loc 1 1043 7 is_stmt 0
	bne	s4,zero,.L282
	.loc 1 1045 9 is_stmt 1
	.loc 1 1045 19 is_stmt 0
	slli	a5,a0,1
	.loc 1 1045 26
	addi	a5,a5,1
	.loc 1 1045 15
	sw	a5,0(s3)
	.loc 1 1047 9 is_stmt 1
	.loc 1 1047 11 is_stmt 0
	bltu	s2,a5,.L283
	.loc 1 1050 9 is_stmt 1
	.loc 1 1050 16 is_stmt 0
	li	a5,4
	.loc 1 1051 27
	sw	a0,12(sp)
	.loc 1 1050 16
	sb	a5,0(s0)
	.loc 1 1051 9 is_stmt 1
	.loc 1 1051 14
	.loc 1 1051 27 is_stmt 0
	addi	a1,s0,1
	mv	a0,s1
.LVL648:
	call	blcrypto_suite_mpi_write_binary
.LVL649:
	.loc 1 1051 16
	bne	a0,zero,.L278
	.loc 1 1051 114 is_stmt 1
	.loc 1 1052 9
	.loc 1 1052 14
	.loc 1 1052 75 is_stmt 0
	lw	a2,12(sp)
	.loc 1 1052 27
	addi	a0,s1,12
.LVL650:
	.loc 1 1052 75
	addi	a1,a2,1
	.loc 1 1052 27
	add	a1,s0,a1
.L286:
.LBE68:
.LBE67:
	.loc 1 1067 1
	lw	s0,40(sp)
	.cfi_remember_state
	.cfi_restore 8
.LVL651:
	lw	ra,44(sp)
	.cfi_restore 1
	lw	s1,36(sp)
	.cfi_restore 9
.LVL652:
	lw	s2,32(sp)
	.cfi_restore 18
.LVL653:
	lw	s3,28(sp)
	.cfi_restore 19
.LVL654:
	lw	s4,24(sp)
	.cfi_restore 20
.LVL655:
	lw	s5,20(sp)
	.cfi_restore 21
.LVL656:
	addi	sp,sp,48
	.cfi_def_cfa_offset 0
.LVL657:
.LBB70:
.LBB69:
	.loc 1 1062 27
	tail	blcrypto_suite_mpi_write_binary
.LVL658:
.L282:
	.cfi_restore_state
	.loc 1 1054 10 is_stmt 1
	.loc 1 1054 12 is_stmt 0
	li	a5,1
	.loc 1 1018 9
	li	a0,0
.LVL659:
	.loc 1 1054 12
	bne	s4,a5,.L278
	.loc 1 1056 9 is_stmt 1
	.loc 1 1056 22 is_stmt 0
	addi	a5,a2,1
	sw	a2,12(sp)
	.loc 1 1056 15
	sw	a5,0(s3)
	.loc 1 1058 9 is_stmt 1
	.loc 1 1058 11 is_stmt 0
	bltu	s2,a5,.L283
	.loc 1 1061 9 is_stmt 1
	.loc 1 1061 25 is_stmt 0
	li	a1,0
	addi	a0,s1,12
	call	blcrypto_suite_mpi_get_bit
.LVL660:
	.loc 1 1061 23
	addi	a0,a0,2
	.loc 1 1061 16
	sb	a0,0(s0)
	.loc 1 1062 9 is_stmt 1
	.loc 1 1062 14
	.loc 1 1062 27 is_stmt 0
	lw	a2,12(sp)
	addi	a1,s0,1
	mv	a0,s1
	j	.L286
.LBE69:
.LBE70:
	.cfi_endproc
.LFE22:
	.size	blcrypto_suite_ecp_point_write_binary, .-blcrypto_suite_ecp_point_write_binary
	.section	.text.blcrypto_suite_ecp_point_read_binary,"ax",@progbits
	.align	1
	.globl	blcrypto_suite_ecp_point_read_binary
	.type	blcrypto_suite_ecp_point_read_binary, @function
blcrypto_suite_ecp_point_read_binary:
.LFB23:
	.loc 1 1075 1 is_stmt 1
	.cfi_startproc
.LVL661:
	.loc 1 1076 5
	.loc 1 1077 5
	.loc 1 1078 5
	.loc 1 1078 10
	.loc 1 1078 17
	.loc 1 1079 5
	.loc 1 1079 10
	.loc 1 1079 17
	.loc 1 1080 5
	.loc 1 1080 10
	.loc 1 1080 17
	.loc 1 1082 5
	.loc 1 1082 7 is_stmt 0
	bne	a3,zero,.L288
	.loc 1 1083 15
	li	a0,-20480
.LVL662:
	addi	a0,a0,128
	.loc 1 1107 1
	ret
.LVL663:
.L291:
	.cfi_def_cfa_offset 32
	.cfi_offset 1, -4
	.cfi_offset 8, -8
	.cfi_offset 9, -12
	.cfi_offset 18, -16
	.loc 1 1083 15
	li	a0,-20480
	addi	a0,a0,128
.L287:
	.loc 1 1107 1
	lw	ra,28(sp)
	.cfi_restore 1
	lw	s0,24(sp)
	.cfi_restore 8
.LVL664:
	lw	s1,20(sp)
	.cfi_restore 9
.LVL665:
	lw	s2,16(sp)
	.cfi_restore 18
.LVL666:
	addi	sp,sp,32
	.cfi_def_cfa_offset 0
	jr	ra
.LVL667:
.L288:
	.loc 1 1075 1
	addi	sp,sp,-32
	.cfi_def_cfa_offset 32
	sw	s0,24(sp)
	sw	s1,20(sp)
	sw	s2,16(sp)
	sw	ra,28(sp)
	.cfi_offset 8, -8
	.cfi_offset 9, -12
	.cfi_offset 18, -16
	.cfi_offset 1, -4
	.loc 1 1085 7
	lbu	a5,0(a2)
	mv	s0,a1
	mv	s1,a2
	mv	s2,a3
	.loc 1 1085 5 is_stmt 1
	.loc 1 1085 7 is_stmt 0
	bne	a5,zero,.L290
.LVL668:
	.loc 1 1087 9 is_stmt 1
	.loc 1 1087 11 is_stmt 0
	li	a5,1
	bne	a3,a5,.L291
	.loc 1 1088 13 is_stmt 1
	.loc 1 1107 1 is_stmt 0
	lw	s0,24(sp)
	.cfi_remember_state
	.cfi_restore 8
.LVL669:
	lw	ra,28(sp)
	.cfi_restore 1
	lw	s1,20(sp)
	.cfi_restore 9
.LVL670:
	lw	s2,16(sp)
	.cfi_restore 18
	.loc 1 1088 21
	mv	a0,a1
.LVL671:
	.loc 1 1107 1
	addi	sp,sp,32
	.cfi_def_cfa_offset 0
	.loc 1 1088 21
	tail	blcrypto_suite_ecp_set_zero
.LVL672:
.L290:
	.cfi_restore_state
.LBB73:
.LBB74:
	.loc 1 1093 5 is_stmt 1
	.loc 1 1093 12 is_stmt 0
	addi	a0,a0,4
.LVL673:
	call	blcrypto_suite_mpi_size
.LVL674:
	.loc 1 1095 7
	lbu	a4,0(s1)
	li	a5,4
	.loc 1 1093 12
	mv	a2,a0
.LVL675:
	.loc 1 1095 5 is_stmt 1
	.loc 1 1095 7 is_stmt 0
	bne	a4,a5,.L292
	.loc 1 1098 5 is_stmt 1
	.loc 1 1098 19 is_stmt 0
	slli	a5,a0,1
	.loc 1 1098 26
	addi	a5,a5,1
	.loc 1 1098 7
	bne	s2,a5,.L291
	.loc 1 1101 5 is_stmt 1
	.loc 1 1101 10
	.loc 1 1101 23 is_stmt 0
	sw	a0,12(sp)
	addi	a1,s1,1
	mv	a0,s0
.LVL676:
	call	blcrypto_suite_mpi_read_binary
.LVL677:
	.loc 1 1101 12
	bne	a0,zero,.L287
	.loc 1 1101 110 is_stmt 1
	.loc 1 1102 5
	.loc 1 1102 10
	.loc 1 1102 71 is_stmt 0
	lw	a2,12(sp)
	.loc 1 1102 23
	addi	a0,s0,12
.LVL678:
	.loc 1 1102 71
	addi	a1,a2,1
	.loc 1 1102 23
	add	a1,s1,a1
	call	blcrypto_suite_mpi_read_binary
.LVL679:
	.loc 1 1102 12
	bne	a0,zero,.L287
	.loc 1 1102 117 is_stmt 1
	.loc 1 1103 5
	.loc 1 1103 10
	.loc 1 1103 23 is_stmt 0
	addi	a0,s0,24
.LVL680:
.LBE74:
.LBE73:
	.loc 1 1107 1
	lw	s0,24(sp)
	.cfi_remember_state
	.cfi_restore 8
.LVL681:
	lw	ra,28(sp)
	.cfi_restore 1
	lw	s1,20(sp)
	.cfi_restore 9
.LVL682:
	lw	s2,16(sp)
	.cfi_restore 18
.LVL683:
.LBB77:
.LBB75:
	.loc 1 1103 23
	li	a1,1
.LBE75:
.LBE77:
	.loc 1 1107 1
	addi	sp,sp,32
	.cfi_def_cfa_offset 0
.LVL684:
.LBB78:
.LBB76:
	.loc 1 1103 23
	tail	blcrypto_suite_mpi_lset
.LVL685:
.L292:
	.cfi_restore_state
	.loc 1 1096 15
	li	a0,-20480
.LVL686:
	addi	a0,a0,384
.LVL687:
	j	.L287
.LBE76:
.LBE78:
	.cfi_endproc
.LFE23:
	.size	blcrypto_suite_ecp_point_read_binary, .-blcrypto_suite_ecp_point_read_binary
	.section	.text.blcrypto_suite_ecp_tls_read_point,"ax",@progbits
	.align	1
	.globl	blcrypto_suite_ecp_tls_read_point
	.type	blcrypto_suite_ecp_tls_read_point, @function
blcrypto_suite_ecp_tls_read_point:
.LFB24:
	.loc 1 1118 1 is_stmt 1
	.cfi_startproc
.LVL688:
	.loc 1 1119 5
	.loc 1 1120 5
	.loc 1 1121 5
	.loc 1 1121 10
	.loc 1 1121 17
	.loc 1 1122 5
	.loc 1 1122 10
	.loc 1 1122 17
	.loc 1 1123 5
	.loc 1 1123 10
	.loc 1 1123 17
	.loc 1 1124 5
	.loc 1 1124 10
	.loc 1 1124 17
	.loc 1 1129 5
	.loc 1 1118 1 is_stmt 0
	mv	a5,a3
	.loc 1 1129 7
	li	a3,1
.LVL689:
	.loc 1 1118 1
	mv	a4,a2
	.loc 1 1129 7
	bleu	a5,a3,.L298
	.loc 1 1132 5 is_stmt 1
	.loc 1 1132 18 is_stmt 0
	lw	a3,0(a2)
	.loc 1 1132 23
	addi	a2,a3,1
.LVL690:
	sw	a2,0(a4)
	.loc 1 1132 14
	lbu	a3,0(a3)
.LVL691:
	.loc 1 1133 5 is_stmt 1
	.loc 1 1133 7 is_stmt 0
	beq	a3,zero,.L298
	.loc 1 1133 44 discriminator 1
	addi	a5,a5,-1
.LVL692:
	.loc 1 1133 22 discriminator 1
	bgtu	a3,a5,.L298
	.loc 1 1139 5 is_stmt 1
.LVL693:
	.loc 1 1140 5
	.loc 1 1140 10 is_stmt 0
	add	a5,a2,a3
.LVL694:
	sw	a5,0(a4)
	.loc 1 1142 5 is_stmt 1
	.loc 1 1142 13 is_stmt 0
	tail	blcrypto_suite_ecp_point_read_binary
.LVL695:
.L298:
	.loc 1 1143 1
	li	a0,-20480
.LVL696:
	addi	a0,a0,128
	ret
	.cfi_endproc
.LFE24:
	.size	blcrypto_suite_ecp_tls_read_point, .-blcrypto_suite_ecp_tls_read_point
	.section	.text.blcrypto_suite_ecp_tls_write_point,"ax",@progbits
	.align	1
	.globl	blcrypto_suite_ecp_tls_write_point
	.type	blcrypto_suite_ecp_tls_write_point, @function
blcrypto_suite_ecp_tls_write_point:
.LFB25:
	.loc 1 1154 1 is_stmt 1
	.cfi_startproc
.LVL697:
	.loc 1 1155 5
	.loc 1 1156 5
	.loc 1 1156 10
	.loc 1 1156 17
	.loc 1 1157 5
	.loc 1 1157 10
	.loc 1 1157 17
	.loc 1 1158 5
	.loc 1 1158 10
	.loc 1 1158 17
	.loc 1 1159 5
	.loc 1 1159 10
	.loc 1 1159 17
	.loc 1 1160 5
	.loc 1 1160 10
	.loc 1 1160 17
	.loc 1 1166 5
	.loc 1 1166 7 is_stmt 0
	beq	a5,zero,.L305
	.loc 1 1154 1
	addi	sp,sp,-16
	.cfi_def_cfa_offset 16
	sw	s1,4(sp)
	.loc 1 1169 17
	addi	a5,a5,-1
.LVL698:
	.cfi_offset 9, -12
	mv	s1,a4
	.loc 1 1169 5 is_stmt 1
	.loc 1 1169 17 is_stmt 0
	addi	a4,a4,1
.LVL699:
	.loc 1 1154 1
	sw	s0,8(sp)
	sw	ra,12(sp)
	.cfi_offset 8, -8
	.cfi_offset 1, -4
	mv	s0,a3
	.loc 1 1169 17
	call	blcrypto_suite_ecp_point_write_binary
.LVL700:
	.loc 1 1169 7
	bne	a0,zero,.L303
	.loc 1 1176 5 is_stmt 1
	.loc 1 1176 14 is_stmt 0
	lw	a5,0(s0)
	sb	a5,0(s1)
	.loc 1 1177 5 is_stmt 1
	lw	a5,0(s0)
	addi	a5,a5,1
	sw	a5,0(s0)
	.loc 1 1179 5
.L303:
	.loc 1 1180 1 is_stmt 0
	lw	ra,12(sp)
	.cfi_restore 1
	lw	s0,8(sp)
	.cfi_restore 8
.LVL701:
	lw	s1,4(sp)
	.cfi_restore 9
.LVL702:
	addi	sp,sp,16
	.cfi_def_cfa_offset 0
	jr	ra
.LVL703:
.L305:
	.loc 1 1167 15
	li	a0,-20480
.LVL704:
	addi	a0,a0,128
	.loc 1 1180 1
	ret
	.cfi_endproc
.LFE25:
	.size	blcrypto_suite_ecp_tls_write_point, .-blcrypto_suite_ecp_tls_write_point
	.section	.text.blcrypto_suite_ecp_tls_read_group_id,"ax",@progbits
	.align	1
	.globl	blcrypto_suite_ecp_tls_read_group_id
	.type	blcrypto_suite_ecp_tls_read_group_id, @function
blcrypto_suite_ecp_tls_read_group_id:
.LFB27:
	.loc 1 1206 1 is_stmt 1
	.cfi_startproc
.LVL705:
	.loc 1 1207 5
	.loc 1 1208 5
	.loc 1 1209 5
	.loc 1 1209 10
	.loc 1 1209 17
	.loc 1 1210 5
	.loc 1 1210 10
	.loc 1 1210 17
	.loc 1 1211 5
	.loc 1 1211 10
	.loc 1 1211 17
	.loc 1 1216 5
	.loc 1 1216 7 is_stmt 0
	li	a5,2
	bgtu	a2,a5,.L311
.L313:
	.loc 1 1217 15
	li	a0,-20480
.LVL706:
	addi	a0,a0,128
	.loc 1 1238 1
	ret
.LVL707:
.L311:
	.loc 1 1222 5 is_stmt 1
	.loc 1 1222 11 is_stmt 0
	lw	a5,0(a1)
	.loc 1 1222 16
	addi	a4,a5,1
	sw	a4,0(a1)
	.loc 1 1222 7
	lbu	a3,0(a5)
	li	a4,3
	bne	a3,a4,.L313
	.loc 1 1206 1
	addi	sp,sp,-16
	.cfi_def_cfa_offset 16
	.loc 1 1228 21
	addi	a4,a5,2
	.loc 1 1206 1
	sw	s0,8(sp)
	sw	ra,12(sp)
	.cfi_offset 8, -8
	.cfi_offset 1, -4
	.loc 1 1228 21
	sw	a4,0(a1)
	.loc 1 1230 22
	addi	a3,a5,3
	.loc 1 1228 12
	lbu	a4,1(a5)
	.loc 1 1230 22
	sw	a3,0(a1)
	mv	s0,a0
	.loc 1 1228 5 is_stmt 1
.LVL708:
	.loc 1 1229 5
	.loc 1 1230 12 is_stmt 0
	lbu	a0,2(a5)
.LVL709:
	.loc 1 1229 12
	slli	a4,a4,8
.LVL710:
	.loc 1 1230 5 is_stmt 1
	.loc 1 1232 5
	.loc 1 1232 24 is_stmt 0
	or	a0,a4,a0
	call	blcrypto_suite_ecp_curve_info_from_tls_id
.LVL711:
	.loc 1 1232 7
	beq	a0,zero,.L314
	.loc 1 1235 5 is_stmt 1
	.loc 1 1235 22 is_stmt 0
	lw	a5,0(a0)
	.loc 1 1237 11
	li	a0,0
.LVL712:
	.loc 1 1235 10
	sw	a5,0(s0)
	.loc 1 1237 5 is_stmt 1
.L310:
	.loc 1 1238 1 is_stmt 0
	lw	ra,12(sp)
	.cfi_remember_state
	.cfi_restore 1
	lw	s0,8(sp)
	.cfi_restore 8
.LVL713:
	addi	sp,sp,16
	.cfi_def_cfa_offset 0
	jr	ra
.LVL714:
.L314:
	.cfi_restore_state
	.loc 1 1233 15
	li	a0,-20480
.LVL715:
	addi	a0,a0,384
	j	.L310
	.cfi_endproc
.LFE27:
	.size	blcrypto_suite_ecp_tls_read_group_id, .-blcrypto_suite_ecp_tls_read_group_id
	.section	.text.blcrypto_suite_ecp_tls_read_group,"ax",@progbits
	.align	1
	.globl	blcrypto_suite_ecp_tls_read_group
	.type	blcrypto_suite_ecp_tls_read_group, @function
blcrypto_suite_ecp_tls_read_group:
.LFB26:
	.loc 1 1187 1 is_stmt 1
	.cfi_startproc
.LVL716:
	.loc 1 1188 5
	.loc 1 1189 5
	.loc 1 1190 5
	.loc 1 1190 10
	.loc 1 1190 17
	.loc 1 1191 5
	.loc 1 1191 10
	.loc 1 1191 17
	.loc 1 1192 5
	.loc 1 1192 10
	.loc 1 1192 17
	.loc 1 1194 5
	.loc 1 1187 1 is_stmt 0
	addi	sp,sp,-32
	.cfi_def_cfa_offset 32
	sw	s0,24(sp)
	.cfi_offset 8, -8
	mv	s0,a0
	.loc 1 1194 17
	addi	a0,sp,12
.LVL717:
	.loc 1 1187 1
	sw	ra,28(sp)
	.cfi_offset 1, -4
	.loc 1 1194 17
	call	blcrypto_suite_ecp_tls_read_group_id
.LVL718:
	.loc 1 1194 7
	bne	a0,zero,.L319
	.loc 1 1197 5 is_stmt 1
	.loc 1 1197 13 is_stmt 0
	lw	a1,12(sp)
	mv	a0,s0
.LVL719:
	call	blcrypto_suite_ecp_group_load
.LVL720:
.L319:
	.loc 1 1198 1
	lw	ra,28(sp)
	.cfi_restore 1
	lw	s0,24(sp)
	.cfi_restore 8
.LVL721:
	addi	sp,sp,32
	.cfi_def_cfa_offset 0
	jr	ra
	.cfi_endproc
.LFE26:
	.size	blcrypto_suite_ecp_tls_read_group, .-blcrypto_suite_ecp_tls_read_group
	.section	.text.blcrypto_suite_ecp_tls_write_group,"ax",@progbits
	.align	1
	.globl	blcrypto_suite_ecp_tls_write_group
	.type	blcrypto_suite_ecp_tls_write_group, @function
blcrypto_suite_ecp_tls_write_group:
.LFB28:
	.loc 1 1245 1 is_stmt 1
	.cfi_startproc
.LVL722:
	.loc 1 1246 5
	.loc 1 1247 5
	.loc 1 1247 10
	.loc 1 1247 17
	.loc 1 1248 5
	.loc 1 1248 10
	.loc 1 1248 17
	.loc 1 1249 5
	.loc 1 1249 10
	.loc 1 1249 17
	.loc 1 1251 5
	.loc 1 1245 1 is_stmt 0
	addi	sp,sp,-16
	.cfi_def_cfa_offset 16
	sw	s0,8(sp)
	sw	s1,4(sp)
	sw	s2,0(sp)
	sw	ra,12(sp)
	.cfi_offset 8, -8
	.cfi_offset 9, -12
	.cfi_offset 18, -16
	.cfi_offset 1, -4
	.loc 1 1251 24
	lw	a0,0(a0)
.LVL723:
	.loc 1 1245 1
	mv	s2,a1
	mv	s0,a2
	mv	s1,a3
	.loc 1 1251 24
	call	blcrypto_suite_ecp_curve_info_from_grp_id
.LVL724:
	.loc 1 1251 7
	beq	a0,zero,.L324
	.loc 1 1257 5 is_stmt 1
	.loc 1 1257 11 is_stmt 0
	li	a5,3
	sw	a5,0(s2)
	.loc 1 1258 5 is_stmt 1
	.loc 1 1258 7 is_stmt 0
	li	a4,2
	bleu	s1,a4,.L325
	.loc 1 1264 5 is_stmt 1
.LVL725:
	.loc 1 1264 12 is_stmt 0
	sb	a5,0(s0)
	.loc 1 1269 5 is_stmt 1
	.loc 1 1269 12 is_stmt 0
	lhu	a5,4(a0)
	srli	a5,a5,8
	sb	a5,1(s0)
	.loc 1 1270 5 is_stmt 1
	.loc 1 1270 12 is_stmt 0
	lhu	a5,4(a0)
	.loc 1 1272 11
	li	a0,0
.LVL726:
	.loc 1 1270 12
	sb	a5,2(s0)
	.loc 1 1272 5 is_stmt 1
.LVL727:
.L322:
	.loc 1 1273 1 is_stmt 0
	lw	ra,12(sp)
	.cfi_remember_state
	.cfi_restore 1
	lw	s0,8(sp)
	.cfi_restore 8
	lw	s1,4(sp)
	.cfi_restore 9
.LVL728:
	lw	s2,0(sp)
	.cfi_restore 18
.LVL729:
	addi	sp,sp,16
	.cfi_def_cfa_offset 0
	jr	ra
.LVL730:
.L324:
	.cfi_restore_state
	.loc 1 1252 15
	li	a0,-20480
.LVL731:
	addi	a0,a0,128
	j	.L322
.LVL732:
.L325:
	.loc 1 1259 15
	li	a0,-20480
.LVL733:
	addi	a0,a0,256
	j	.L322
	.cfi_endproc
.LFE28:
	.size	blcrypto_suite_ecp_tls_write_group, .-blcrypto_suite_ecp_tls_write_group
	.section	.text.blcrypto_suite_ecp_check_pubkey,"ax",@progbits
	.align	1
	.globl	blcrypto_suite_ecp_check_pubkey
	.type	blcrypto_suite_ecp_check_pubkey, @function
blcrypto_suite_ecp_check_pubkey:
.LFB50:
	.loc 1 3089 1 is_stmt 1
	.cfi_startproc
.LVL734:
	.loc 1 3090 5
	.loc 1 3090 10
	.loc 1 3090 17
	.loc 1 3091 5
	.loc 1 3091 10
	.loc 1 3091 17
	.loc 1 3094 5
	.loc 1 3089 1 is_stmt 0
	addi	sp,sp,-64
	.cfi_def_cfa_offset 64
	sw	s3,44(sp)
	.cfi_offset 19, -20
	mv	s3,a1
	sw	s2,48(sp)
	.loc 1 3094 9
	li	a1,1
.LVL735:
	.cfi_offset 18, -16
	.loc 1 3089 1
	mv	s2,a0
	.loc 1 3094 9
	addi	a0,s3,24
.LVL736:
	.loc 1 3089 1
	sw	ra,60(sp)
	sw	s0,56(sp)
	sw	s1,52(sp)
	.cfi_offset 1, -4
	.cfi_offset 8, -8
	.cfi_offset 9, -12
	.loc 1 3094 9
	call	blcrypto_suite_mpi_cmp_int
.LVL737:
	.loc 1 3094 7
	bne	a0,zero,.L343
	.loc 1 3102 5 is_stmt 1
	.loc 1 3102 9 is_stmt 0
	mv	a0,s2
	call	ecp_get_type
.LVL738:
	.loc 1 3102 7
	li	a5,1
	bne	a0,a5,.L344
	.loc 1 3103 9 is_stmt 1
.LVL739:
.LBB81:
.LBB82:
	.loc 1 2782 5
	.loc 1 2783 5
	.loc 1 2786 5
	.loc 1 2786 9 is_stmt 0
	li	a1,0
	mv	a0,s3
	call	blcrypto_suite_mpi_cmp_int
.LVL740:
	.loc 1 2786 7
	bge	a0,zero,.L329
.LVL741:
.L343:
.LBE82:
.LBE81:
	.loc 1 3095 15
	li	a0,-20480
	addi	s0,a0,896
	j	.L327
.LVL742:
.L329:
.LBB85:
.LBB83:
	.loc 1 2787 9
	addi	s0,s3,12
	li	a1,0
	mv	a0,s0
	call	blcrypto_suite_mpi_cmp_int
.LVL743:
	.loc 1 2786 53
	blt	a0,zero,.L343
	.loc 1 2788 9
	addi	s1,s2,4
	mv	a1,s1
	mv	a0,s3
	call	blcrypto_suite_mpi_cmp_mpi
.LVL744:
	.loc 1 2787 53
	bge	a0,zero,.L343
	.loc 1 2789 9
	mv	a1,s1
	mv	a0,s0
	call	blcrypto_suite_mpi_cmp_mpi
.LVL745:
	.loc 1 2788 60
	bge	a0,zero,.L343
	.loc 1 2792 5 is_stmt 1
	addi	a0,sp,8
	call	blcrypto_suite_mpi_init
.LVL746:
	.loc 1 2792 37
	addi	a0,sp,20
	call	blcrypto_suite_mpi_init
.LVL747:
	.loc 1 2798 5
	.loc 1 2798 10
	.loc 1 2798 23 is_stmt 0
	mv	a2,s0
	mv	a1,s0
	addi	a0,sp,8
	call	blcrypto_suite_mpi_mul_mpi
.LVL748:
	mv	s0,a0
.LVL749:
	.loc 1 2798 12
	bne	a0,zero,.L332
	.loc 1 2798 104 is_stmt 1
	.loc 1 2798 111
	.loc 1 2798 116
	.loc 1 2798 121
	.loc 1 2798 134 is_stmt 0
	mv	a1,s2
	addi	a0,sp,8
	call	ecp_modp
.LVL750:
	mv	s0,a0
.LVL751:
	.loc 1 2798 123
	bne	a0,zero,.L332
	.loc 1 2798 188 is_stmt 1
	.loc 1 2798 202
	.loc 1 2799 5
	.loc 1 2799 10
	.loc 1 2799 23 is_stmt 0
	mv	a2,s3
	mv	a1,s3
	addi	a0,sp,20
	call	blcrypto_suite_mpi_mul_mpi
.LVL752:
	mv	s0,a0
.LVL753:
	.loc 1 2799 12
	bne	a0,zero,.L332
	.loc 1 2799 105 is_stmt 1
	.loc 1 2799 112
	.loc 1 2799 117
	.loc 1 2799 122
	.loc 1 2799 135 is_stmt 0
	mv	a1,s2
	addi	a0,sp,20
	call	ecp_modp
.LVL754:
	mv	s0,a0
.LVL755:
	.loc 1 2799 124
	bne	a0,zero,.L332
	.loc 1 2799 190 is_stmt 1
	.loc 1 2799 204
	.loc 1 2802 5
	.loc 1 2802 7 is_stmt 0
	lw	a5,24(s2)
	bne	a5,zero,.L333
	.loc 1 2804 9 is_stmt 1
	.loc 1 2804 14
	.loc 1 2804 27 is_stmt 0
	addi	a1,sp,20
	li	a2,3
	mv	a0,a1
	call	blcrypto_suite_mpi_sub_int
.LVL756:
.L350:
	.loc 1 2804 196
	mv	s0,a0
.LVL757:
	.loc 1 2804 185
	bne	a0,zero,.L332
	.loc 1 2804 281 is_stmt 1
	.loc 1 2804 114
	lw	a5,20(sp)
	blt	a5,zero,.L335
.L338:
	.loc 1 2811 5
	.loc 1 2811 10
	.loc 1 2811 23 is_stmt 0
	addi	a1,sp,20
	mv	a2,s3
	mv	a0,a1
	call	blcrypto_suite_mpi_mul_mpi
.LVL758:
	mv	s0,a0
.LVL759:
	.loc 1 2811 12
	bne	a0,zero,.L332
	.loc 1 2811 103 is_stmt 1
	.loc 1 2811 110
	.loc 1 2811 115
	.loc 1 2811 120
	.loc 1 2811 133 is_stmt 0
	mv	a1,s2
	addi	a0,sp,20
	call	ecp_modp
.LVL760:
	mv	s0,a0
.LVL761:
	.loc 1 2811 122
	bne	a0,zero,.L332
	.loc 1 2811 188 is_stmt 1
	.loc 1 2811 202
	.loc 1 2812 5
	.loc 1 2812 10
	.loc 1 2812 23 is_stmt 0
	addi	a1,sp,20
	addi	a2,s2,28
	mv	a0,a1
	call	blcrypto_suite_mpi_add_mpi
.LVL762:
.L352:
	.loc 1 2812 189
	mv	s0,a0
.LVL763:
	.loc 1 2812 178
	bne	a0,zero,.L332
.LVL764:
	.loc 1 2812 274 is_stmt 1
	.loc 1 2812 116
	.loc 1 2812 118 is_stmt 0
	mv	a1,s1
	addi	a0,sp,20
	call	blcrypto_suite_mpi_cmp_mpi
.LVL765:
	.loc 1 2812 116
	bge	a0,zero,.L342
	.loc 1 2814 5 is_stmt 1
	.loc 1 2814 9 is_stmt 0
	addi	a1,sp,20
	addi	a0,sp,8
	call	blcrypto_suite_mpi_cmp_mpi
.LVL766:
	mv	s0,a0
	.loc 1 2814 7
	beq	a0,zero,.L332
	.loc 1 2815 13
	li	a0,-20480
	addi	s0,a0,896
.LVL767:
.L332:
	.loc 1 2819 5 is_stmt 1
	addi	a0,sp,8
	call	blcrypto_suite_mpi_free
.LVL768:
	.loc 1 2819 37
	addi	a0,sp,20
	call	blcrypto_suite_mpi_free
.LVL769:
	.loc 1 2821 5
.L327:
.LBE83:
.LBE85:
	.loc 1 3106 1 is_stmt 0
	lw	ra,60(sp)
	.cfi_remember_state
	.cfi_restore 1
	mv	a0,s0
	lw	s0,56(sp)
	.cfi_restore 8
	lw	s1,52(sp)
	.cfi_restore 9
	lw	s2,48(sp)
	.cfi_restore 18
.LVL770:
	lw	s3,44(sp)
	.cfi_restore 19
.LVL771:
	addi	sp,sp,64
	.cfi_def_cfa_offset 0
	jr	ra
.LVL772:
.L335:
	.cfi_restore_state
.LBB86:
.LBB84:
	.loc 1 2804 131
	li	a1,0
	addi	a0,sp,20
	call	blcrypto_suite_mpi_cmp_int
.LVL773:
	.loc 1 2804 128
	beq	a0,zero,.L338
	.loc 1 2804 178 is_stmt 1
	.loc 1 2804 183
	.loc 1 2804 196 is_stmt 0
	addi	a1,sp,20
	mv	a2,s1
	mv	a0,a1
	call	blcrypto_suite_mpi_add_mpi
.LVL774:
	j	.L350
.L333:
	.loc 1 2808 9 is_stmt 1
	.loc 1 2808 14
	.loc 1 2808 27 is_stmt 0
	addi	a1,sp,20
	addi	a2,s2,16
	mv	a0,a1
	call	blcrypto_suite_mpi_add_mpi
.LVL775:
.L351:
	.loc 1 2808 193
	mv	s0,a0
.LVL776:
	.loc 1 2808 182
	bne	a0,zero,.L332
	.loc 1 2808 278 is_stmt 1
	.loc 1 2808 120
	.loc 1 2808 122 is_stmt 0
	mv	a1,s1
	addi	a0,sp,20
	call	blcrypto_suite_mpi_cmp_mpi
.LVL777:
	.loc 1 2808 120
	blt	a0,zero,.L338
	.loc 1 2808 175 is_stmt 1
	.loc 1 2808 180
	.loc 1 2808 193 is_stmt 0
	addi	a1,sp,20
	mv	a2,s1
	mv	a0,a1
	call	blcrypto_suite_mpi_sub_abs
.LVL778:
	j	.L351
.LVL779:
.L342:
	.loc 1 2812 171 is_stmt 1
	.loc 1 2812 176
	.loc 1 2812 189 is_stmt 0
	addi	a1,sp,20
	mv	a2,s1
	mv	a0,a1
	call	blcrypto_suite_mpi_sub_abs
.LVL780:
	j	.L352
.LVL781:
.L344:
.LBE84:
.LBE86:
	.loc 1 3105 11
	li	a0,-20480
	addi	s0,a0,128
	j	.L327
	.cfi_endproc
.LFE50:
	.size	blcrypto_suite_ecp_check_pubkey, .-blcrypto_suite_ecp_check_pubkey
	.section	.text.blcrypto_suite_ecp_check_privkey,"ax",@progbits
	.align	1
	.globl	blcrypto_suite_ecp_check_privkey
	.type	blcrypto_suite_ecp_check_privkey, @function
blcrypto_suite_ecp_check_privkey:
.LFB51:
	.loc 1 3113 1 is_stmt 1
	.cfi_startproc
.LVL782:
	.loc 1 3114 5
	.loc 1 3114 10
	.loc 1 3114 17
	.loc 1 3115 5
	.loc 1 3115 10
	.loc 1 3115 17
	.loc 1 3134 5
	.loc 1 3113 1 is_stmt 0
	addi	sp,sp,-16
	.cfi_def_cfa_offset 16
	sw	s0,8(sp)
	sw	s1,4(sp)
	sw	ra,12(sp)
	.cfi_offset 8, -8
	.cfi_offset 9, -12
	.cfi_offset 1, -4
	.loc 1 3113 1
	mv	s1,a0
	mv	s0,a1
	.loc 1 3134 9
	call	ecp_get_type
.LVL783:
	.loc 1 3134 7
	li	a5,1
	bne	a0,a5,.L356
	.loc 1 3137 9 is_stmt 1
	.loc 1 3137 13 is_stmt 0
	li	a1,1
	mv	a0,s0
	call	blcrypto_suite_mpi_cmp_int
.LVL784:
	.loc 1 3137 11
	blt	a0,zero,.L355
	.loc 1 3138 13 discriminator 1
	addi	a1,s1,76
	mv	a0,s0
	call	blcrypto_suite_mpi_cmp_mpi
.LVL785:
	.loc 1 3141 19 discriminator 1
	li	a5,0
	.loc 1 3137 52 discriminator 1
	blt	a0,zero,.L353
.L355:
	.loc 1 3139 19
	li	a5,-20480
	addi	a5,a5,896
.L353:
	.loc 1 3146 1
	lw	ra,12(sp)
	.cfi_remember_state
	.cfi_restore 1
	lw	s0,8(sp)
	.cfi_restore 8
.LVL786:
	lw	s1,4(sp)
	.cfi_restore 9
.LVL787:
	mv	a0,a5
	addi	sp,sp,16
	.cfi_def_cfa_offset 0
	jr	ra
.LVL788:
.L356:
	.cfi_restore_state
	.loc 1 3145 11
	li	a5,-20480
	addi	a5,a5,128
	j	.L353
	.cfi_endproc
.LFE51:
	.size	blcrypto_suite_ecp_check_privkey, .-blcrypto_suite_ecp_check_privkey
	.section	.text.blcrypto_suite_ecp_mul_restartable,"ax",@progbits
	.align	1
	.globl	blcrypto_suite_ecp_mul_restartable
	.type	blcrypto_suite_ecp_mul_restartable, @function
blcrypto_suite_ecp_mul_restartable:
.LFB44:
	.loc 1 2702 1 is_stmt 1
	.cfi_startproc
.LVL789:
	.loc 1 2703 5
	.loc 1 2707 5
	.loc 1 2707 10
	.loc 1 2707 17
	.loc 1 2708 5
	.loc 1 2708 10
	.loc 1 2708 17
	.loc 1 2709 5
	.loc 1 2709 10
	.loc 1 2709 17
	.loc 1 2710 5
	.loc 1 2710 10
	.loc 1 2710 17
	.loc 1 2729 9
	.loc 1 2732 9
	.loc 1 2732 14
	.loc 1 2702 1 is_stmt 0
	addi	sp,sp,-240
	.cfi_def_cfa_offset 240
	sw	a1,28(sp)
	.loc 1 2732 27
	mv	a1,a2
.LVL790:
	.loc 1 2702 1
	sw	s0,232(sp)
	sw	s7,204(sp)
	sw	s9,196(sp)
	sw	s10,192(sp)
	sw	ra,236(sp)
	sw	s1,228(sp)
	sw	s2,224(sp)
	sw	s3,220(sp)
	sw	s4,216(sp)
	sw	s5,212(sp)
	sw	s6,208(sp)
	sw	s8,200(sp)
	sw	s11,188(sp)
	.cfi_offset 8, -8
	.cfi_offset 23, -36
	.cfi_offset 25, -44
	.cfi_offset 26, -48
	.cfi_offset 1, -4
	.cfi_offset 9, -12
	.cfi_offset 18, -16
	.cfi_offset 19, -20
	.cfi_offset 20, -24
	.cfi_offset 21, -28
	.cfi_offset 22, -32
	.cfi_offset 24, -40
	.cfi_offset 27, -52
	.loc 1 2702 1
	mv	s0,a0
	mv	s7,a2
	mv	s10,a3
	sw	a4,32(sp)
	sw	a5,36(sp)
	.loc 1 2732 27
	call	blcrypto_suite_ecp_check_privkey
.LVL791:
	mv	s9,a0
.LVL792:
	.loc 1 2732 16
	bne	a0,zero,.L359
	.loc 1 2732 101 is_stmt 1 discriminator 2
	.loc 1 2733 9 discriminator 2
	.loc 1 2733 14 discriminator 2
	.loc 1 2733 27 is_stmt 0 discriminator 2
	mv	a1,s10
	mv	a0,s0
.LVL793:
	call	blcrypto_suite_ecp_check_pubkey
.LVL794:
	mv	s9,a0
.LVL795:
	.loc 1 2733 16 discriminator 2
	bne	a0,zero,.L359
.LVL796:
.LBB95:
.LBB96:
	.loc 1 2733 100 is_stmt 1
	.loc 1 2736 5
	.loc 1 2742 5
	.loc 1 2742 9 is_stmt 0
	mv	a0,s0
.LVL797:
	call	ecp_get_type
.LVL798:
	.loc 1 2742 7
	li	a5,1
	bne	a0,a5,.L383
	.loc 1 2743 9 is_stmt 1
	.loc 1 2743 14
.LVL799:
.LBB97:
.LBB98:
	.loc 1 2306 5
	.loc 1 2307 5
	.loc 1 2308 5
	.loc 1 2309 5
	.loc 1 2310 5
	.loc 1 2317 5
	.loc 1 2317 19
	.loc 1 2349 5
	.loc 1 2349 16 is_stmt 0
	addi	a1,s0,52
	addi	a0,s10,12
	call	blcrypto_suite_mpi_cmp_mpi
.LVL800:
	.loc 1 2349 68
	li	s4,0
	bne	a0,zero,.L361
	.loc 1 2350 16
	addi	a1,s0,40
	mv	a0,s10
	call	blcrypto_suite_mpi_cmp_mpi
.LVL801:
	.loc 1 2349 68
	seqz	s4,a0
.L361:
.LVL802:
	.loc 1 2356 5 is_stmt 1
	lw	s2,92(s0)
.LVL803:
.LBB99:
.LBB100:
	.loc 1 2258 5
	.loc 1 2265 5
	.loc 1 2265 7 is_stmt 0
	li	s1,383
	sgtu	s1,s2,s1
	addi	s1,s1,4
.LVL804:
	.loc 1 2272 5 is_stmt 1
	.loc 1 2272 7 is_stmt 0
	beq	s4,zero,.L363
	.loc 1 2273 9 is_stmt 1
	.loc 1 2273 10 is_stmt 0
	addi	s1,s1,1
.LVL805:
.L363:
	.loc 1 2279 5 is_stmt 1
	.loc 1 2281 5
	.loc 1 2281 7 is_stmt 0
	bgtu	s2,s1,.L364
	.loc 1 2282 11
	li	s1,2
.LVL806:
.L364:
	.loc 1 2284 5 is_stmt 1
.LBE100:
.LBE99:
	.loc 1 2357 5
	.loc 1 2357 24 is_stmt 0
	addi	s8,s1,-1
	.loc 1 2357 17
	li	s3,1
	.loc 1 2358 26
	addi	s2,s2,-1
	.loc 1 2357 17
	sll	s3,s3,s8
	.loc 1 2358 26
	add	s2,s2,s1
	.loc 1 2358 7
	divu	s2,s2,s1
	.loc 1 2357 12
	andi	s5,s3,0xff
.LVL807:
	.loc 1 2358 5 is_stmt 1
	.loc 1 2361 5
	.loc 1 2361 7 is_stmt 0
	beq	s4,zero,.L365
	.loc 1 2361 22
	lw	s6,116(s0)
	.loc 1 2361 16
	bne	s6,zero,.L366
.L365:
	.loc 1 2384 9 is_stmt 1
	.loc 1 2384 13 is_stmt 0
	li	a1,36
	mv	a0,s3
	call	blcrypto_suite_calloc
.LVL808:
	mv	s6,a0
.LVL809:
	.loc 1 2385 9 is_stmt 1
	.loc 1 2385 11 is_stmt 0
	beq	a0,zero,.L386
	li	s11,0
	.loc 1 2392 13
	li	s9,36
.LVL810:
.L368:
	.loc 1 2392 13 is_stmt 1
	mul	a0,s11,s9
	.loc 1 2391 9 is_stmt 0
	addi	s11,s11,1
.LVL811:
	.loc 1 2392 13
	add	a0,s6,a0
	call	blcrypto_suite_ecp_point_init
.LVL812:
	.loc 1 2391 33 is_stmt 1
	.loc 1 2391 21
	.loc 1 2391 9 is_stmt 0
	andi	a5,s11,0xff
	bgtu	s5,a5,.L368
	.loc 1 2398 5 is_stmt 1
	.loc 1 2400 9
	.loc 1 2400 14
.LVL813:
.LBB101:
.LBB102:
	.loc 1 1900 5
	.loc 1 1901 5
	.loc 1 1902 5
	.loc 1 1903 5
	.loc 1 1904 5
	.loc 1 1919 5
	.loc 1 1937 5
	.loc 1 1937 10
	.loc 1 1937 23 is_stmt 0
	mv	a1,s10
	mv	a0,s6
	call	blcrypto_suite_ecp_copy
.LVL814:
	mv	s9,a0
.LVL815:
	.loc 1 1937 12
	bne	a0,zero,.L367
	.loc 1 1946 18
	mul	s8,s8,s2
	.loc 1 1944 11
	li	s11,0
	.loc 1 1951 17
	li	s10,36
.LVL816:
.L370:
	.loc 1 1946 12 is_stmt 1
	.loc 1 1946 5 is_stmt 0
	bne	s11,s8,.L374
	addi	s11,sp,52
.LVL817:
	mv	a4,s11
	.loc 1 1969 7
	li	a2,0
	.loc 1 1970 12
	li	a5,1
	mv	s8,s11
	.loc 1 1971 21
	li	a1,36
.L375:
.LVL818:
	.loc 1 1971 9 is_stmt 1
	.loc 1 1971 21 is_stmt 0
	mul	a3,a5,a1
	.loc 1 1970 31
	slli	a5,a5,1
.LVL819:
	andi	a5,a5,0xff
	.loc 1 1971 13
	addi	a2,a2,1
.LVL820:
	.loc 1 1971 21
	add	a3,s6,a3
	.loc 1 1971 17
	sw	a3,0(a4)
	.loc 1 1970 29 is_stmt 1
.LVL821:
	.loc 1 1970 17
	.loc 1 1970 5 is_stmt 0
	addi	a4,a4,4
	bgtu	s5,a5,.L375
	.loc 1 1973 5 is_stmt 1
	.loc 1 1975 5
	.loc 1 1975 10
	.loc 1 1975 23 is_stmt 0
	mv	a1,s11
	mv	a0,s0
.LVL822:
	call	ecp_normalize_jac_many
.LVL823:
	mv	s9,a0
.LVL824:
	.loc 1 1975 12
	bne	a0,zero,.L367
	.loc 1 1989 12
	li	s10,1
	.loc 1 1993 71
	li	a4,36
.L378:
.LVL825:
	.loc 1 1991 9 is_stmt 1
	.loc 1 1993 71 is_stmt 0
	mul	a3,s10,a4
	.loc 1 1991 11
	mv	a6,s10
.LVL826:
	.loc 1 1992 9 is_stmt 1
	.loc 1 1993 69 is_stmt 0
	add	a3,s6,a3
.LVL827:
.L376:
	.loc 1 1993 108 is_stmt 1
	.loc 1 1992 14
	mv	a5,a6
	.loc 1 1992 17 is_stmt 0
	addi	a6,a6,-1
.LVL828:
	.loc 1 1992 14
	bne	a5,zero,.L377
	.loc 1 1989 29 is_stmt 1
	.loc 1 1989 31 is_stmt 0
	slli	s10,s10,1
.LVL829:
	andi	s10,s10,0xff
.LVL830:
	.loc 1 1989 17 is_stmt 1
	.loc 1 1989 5 is_stmt 0
	bgtu	s5,s10,.L378
	.loc 1 2008 15
	li	a3,36
.LVL831:
.L379:
	.loc 1 2007 17 is_stmt 1
	.loc 1 2007 19 is_stmt 0
	addi	a5,a5,1
.LVL832:
	.loc 1 2007 5
	bne	s3,a5,.L380
	.loc 1 2010 5 is_stmt 1
	.loc 1 2012 5
	.loc 1 2012 10
	.loc 1 2012 23 is_stmt 0
	addi	a2,s3,-1
	mv	a1,s8
	mv	a0,s0
.LVL833:
	call	ecp_normalize_jac_many
.LVL834:
	mv	s9,a0
.LVL835:
.LDL1:
	.loc 1 2012 91 is_stmt 1
	.loc 1 2024 5
.LBE102:
.LBE101:
	.loc 1 2400 16 is_stmt 0
	bne	a0,zero,.L367
	.loc 1 2400 105 is_stmt 1
	.loc 1 2402 9
	.loc 1 2402 11 is_stmt 0
	beq	s4,zero,.L366
	.loc 1 2406 13 is_stmt 1
	.loc 1 2406 20 is_stmt 0
	sw	s6,116(s0)
	.loc 1 2407 13 is_stmt 1
	.loc 1 2407 25 is_stmt 0
	sw	s3,120(s0)
.LVL836:
.L366:
	.loc 1 2412 5 is_stmt 1
	.loc 1 2412 10
	.loc 1 2412 23 is_stmt 0
	lw	a5,36(sp)
	lw	a7,32(sp)
	lw	a1,28(sp)
	sw	a5,0(sp)
	mv	a6,s2
	mv	a5,s1
	mv	a4,s5
	mv	a3,s6
	mv	a2,s7
	mv	a0,s0
	call	ecp_mul_comb_after_precomp.isra.0
.LVL837:
	mv	s9,a0
.LVL838:
	.loc 1 2416 1
	j	.L367
.LVL839:
.L374:
.LBB105:
.LBB103:
	.loc 1 1948 9 is_stmt 1
	.loc 1 1950 9
	.loc 1 1950 23 is_stmt 0
	divu	a1,s11,s2
	.loc 1 1950 16
	li	a5,1
	sll	a1,a5,a1
.LVL840:
	.loc 1 1951 9 is_stmt 1
	.loc 1 1953 15 is_stmt 0
	remu	a5,s11,s2
	.loc 1 1951 17
	andi	a2,a1,255
	mul	a2,a2,s10
	.loc 1 1951 13
	add	a2,s6,a2
.LVL841:
	.loc 1 1953 9 is_stmt 1
	.loc 1 1953 11 is_stmt 0
	beq	a5,zero,.L371
.LVL842:
.L373:
	.loc 1 1954 109 is_stmt 1
	.loc 1 1956 9
	.loc 1 1956 14
	.loc 1 1956 27 is_stmt 0
	mv	a1,a2
	mv	a0,s0
.LVL843:
	call	ecp_double_jac
.LVL844:
	mv	s9,a0
.LVL845:
	.loc 1 1956 16
	beq	a0,zero,.L406
.LVL846:
.L367:
.LBE103:
.LBE105:
	.loc 1 2412 133 is_stmt 1
	.loc 1 2423 5
	.loc 1 2423 7 is_stmt 0
	lw	a4,116(s0)
	beq	a4,s6,.L381
	.loc 1 2438 5 is_stmt 1
	.loc 1 2438 7 is_stmt 0
	beq	s6,zero,.L381
	li	s0,0
.LVL847:
	.loc 1 2441 13
	li	s1,36
.LVL848:
.L382:
	.loc 1 2441 13 is_stmt 1
	mul	a0,s0,s1
	.loc 1 2440 9 is_stmt 0
	addi	s0,s0,1
.LVL849:
	.loc 1 2441 13
	add	a0,s6,a0
	call	blcrypto_suite_ecp_point_free
.LVL850:
	.loc 1 2440 33 is_stmt 1
	.loc 1 2440 21
	.loc 1 2440 9 is_stmt 0
	andi	a4,s0,0xff
	bgtu	s5,a4,.L382
	.loc 1 2442 9 is_stmt 1
	mv	a0,s6
	call	blcrypto_suite_free
.LVL851:
.L381:
	.loc 1 2450 5
	.loc 1 2450 7 is_stmt 0
	beq	s9,zero,.L359
	.loc 1 2451 9 is_stmt 1
	lw	a0,28(sp)
	call	blcrypto_suite_ecp_point_free
.LVL852:
.L359:
.LBE98:
.LBE97:
.LBE96:
.LBE95:
	.loc 1 2759 1 is_stmt 0
	lw	ra,236(sp)
	.cfi_remember_state
	.cfi_restore 1
	lw	s0,232(sp)
	.cfi_restore 8
	lw	s1,228(sp)
	.cfi_restore 9
	lw	s2,224(sp)
	.cfi_restore 18
	lw	s3,220(sp)
	.cfi_restore 19
	lw	s4,216(sp)
	.cfi_restore 20
	lw	s5,212(sp)
	.cfi_restore 21
	lw	s6,208(sp)
	.cfi_restore 22
	lw	s7,204(sp)
	.cfi_restore 23
.LVL853:
	lw	s8,200(sp)
	.cfi_restore 24
	lw	s10,192(sp)
	.cfi_restore 26
	lw	s11,188(sp)
	.cfi_restore 27
	mv	a0,s9
	lw	s9,196(sp)
	.cfi_restore 25
	addi	sp,sp,240
	.cfi_def_cfa_offset 0
.LVL854:
	jr	ra
.LVL855:
.L371:
	.cfi_restore_state
.LBB110:
.LBB109:
.LBB108:
.LBB107:
.LBB106:
.LBB104:
	.loc 1 1954 13 is_stmt 1
	.loc 1 1954 18
	.loc 1 1954 69 is_stmt 0
	andi	a1,a1,0xff
.LVL856:
	srli	a1,a1,1
	.loc 1 1954 63
	mul	a1,a1,s10
	.loc 1 1954 31
	mv	a0,a2
.LVL857:
	sw	a2,40(sp)
	add	a1,s6,a1
	call	blcrypto_suite_ecp_copy
.LVL858:
	.loc 1 1954 20
	lw	a2,40(sp)
	.loc 1 1954 31
	mv	s9,a0
.LVL859:
	.loc 1 1954 20
	beq	a0,zero,.L373
	j	.L367
.LVL860:
.L406:
	.loc 1 1956 90 is_stmt 1
	.loc 1 1946 31
	.loc 1 1946 32 is_stmt 0
	addi	s11,s11,1
.LVL861:
	j	.L370
.LVL862:
.L377:
	.loc 1 1993 13 is_stmt 1
	.loc 1 1993 18
	mul	a1,a6,a4
	.loc 1 1993 31 is_stmt 0
	mv	a0,s0
.LVL863:
	sw	a6,44(sp)
	sw	a3,40(sp)
	add	a2,s6,a1
	add	a1,a3,a1
	call	ecp_add_mixed
.LVL864:
	.loc 1 1993 20
	lw	a3,40(sp)
	lw	a6,44(sp)
	.loc 1 1993 31
	mv	s9,a0
.LVL865:
	.loc 1 1993 20
	li	a4,36
	beq	a0,zero,.L376
	j	.L367
.LVL866:
.L380:
	.loc 1 2008 9 is_stmt 1
	.loc 1 2008 15 is_stmt 0
	mul	a4,a5,a3
	addi	s11,s11,4
	add	a4,s6,a4
	sw	a4,-4(s11)
	.loc 1 2007 33 is_stmt 1
	j	.L379
.LVL867:
.L386:
.LBE104:
.LBE106:
	.loc 1 2387 17 is_stmt 0
	li	a5,-20480
	addi	s9,a5,640
.LVL868:
	j	.L367
.LVL869:
.L383:
.L360:
.LBE107:
.LBE108:
	.loc 1 2736 9
	li	a0,-20480
	addi	s9,a0,128
.LVL870:
.LBE109:
.LBE110:
	.loc 1 2743 109 is_stmt 1
	.loc 1 2758 5
	.loc 1 2758 11 is_stmt 0
	j	.L359
	.cfi_endproc
.LFE44:
	.size	blcrypto_suite_ecp_mul_restartable, .-blcrypto_suite_ecp_mul_restartable
	.section	.text.blcrypto_suite_ecp_mul,"ax",@progbits
	.align	1
	.globl	blcrypto_suite_ecp_mul
	.type	blcrypto_suite_ecp_mul, @function
blcrypto_suite_ecp_mul:
.LFB45:
	.loc 1 2767 1 is_stmt 1
	.cfi_startproc
.LVL871:
	.loc 1 2768 5
	.loc 1 2768 10
	.loc 1 2768 17
	.loc 1 2769 5
	.loc 1 2769 10
	.loc 1 2769 17
	.loc 1 2770 5
	.loc 1 2770 10
	.loc 1 2770 17
	.loc 1 2771 5
	.loc 1 2771 10
	.loc 1 2771 17
	.loc 1 2772 5
	.loc 1 2772 13 is_stmt 0
	li	a6,0
	tail	blcrypto_suite_ecp_mul_restartable
.LVL872:
	.cfi_endproc
.LFE45:
	.size	blcrypto_suite_ecp_mul, .-blcrypto_suite_ecp_mul
	.section	.text.blcrypto_suite_ecp_mul_shortcuts,"ax",@progbits
	.align	1
	.type	blcrypto_suite_ecp_mul_shortcuts, @function
blcrypto_suite_ecp_mul_shortcuts:
.LFB47:
	.loc 1 2834 1 is_stmt 1
	.cfi_startproc
.LVL873:
	.loc 1 2835 5
	.loc 1 2837 5
	.loc 1 2834 1 is_stmt 0
	addi	sp,sp,-32
	.cfi_def_cfa_offset 32
	sw	s0,24(sp)
	sw	s3,12(sp)
	.cfi_offset 8, -8
	.cfi_offset 19, -20
	mv	s0,a1
	mv	s3,a0
	.loc 1 2837 9
	li	a1,1
.LVL874:
	mv	a0,a2
.LVL875:
	.loc 1 2834 1
	sw	s1,20(sp)
	sw	s2,16(sp)
	sw	s4,8(sp)
	sw	ra,28(sp)
	.cfi_offset 9, -12
	.cfi_offset 18, -16
	.cfi_offset 20, -24
	.cfi_offset 1, -4
	.loc 1 2834 1
	mv	s1,a2
	mv	s2,a3
	mv	s4,a4
	.loc 1 2837 9
	call	blcrypto_suite_mpi_cmp_int
.LVL876:
	.loc 1 2837 7
	bne	a0,zero,.L410
	.loc 1 2839 9 is_stmt 1
	.loc 1 2839 14
	.loc 1 2839 27 is_stmt 0
	mv	a0,s0
	.loc 1 2855 1
	lw	s0,24(sp)
	.cfi_remember_state
	.cfi_restore 8
.LVL877:
	lw	ra,28(sp)
	.cfi_restore 1
	lw	s1,20(sp)
	.cfi_restore 9
.LVL878:
	lw	s3,12(sp)
	.cfi_restore 19
.LVL879:
	lw	s4,8(sp)
	.cfi_restore 20
.LVL880:
	.loc 1 2839 27
	mv	a1,s2
	.loc 1 2855 1
	lw	s2,16(sp)
	.cfi_restore 18
.LVL881:
	addi	sp,sp,32
	.cfi_def_cfa_offset 0
	.loc 1 2839 27
	tail	blcrypto_suite_ecp_copy
.LVL882:
.L410:
	.cfi_restore_state
.LBB113:
.LBB114:
	.loc 1 2841 10 is_stmt 1
	.loc 1 2841 14 is_stmt 0
	li	a1,-1
	mv	a0,s1
	call	blcrypto_suite_mpi_cmp_int
.LVL883:
	.loc 1 2841 12
	bne	a0,zero,.L411
	.loc 1 2843 9 is_stmt 1
	.loc 1 2843 14
	.loc 1 2843 27 is_stmt 0
	mv	a1,s2
	mv	a0,s0
	call	blcrypto_suite_ecp_copy
.LVL884:
	.loc 1 2843 16
	bne	a0,zero,.L409
	.loc 1 2843 90 is_stmt 1
	.loc 1 2844 9
	.loc 1 2844 41 is_stmt 0
	addi	s0,s0,12
.LVL885:
	.loc 1 2844 13
	li	a1,0
	mv	a0,s0
.LVL886:
	call	blcrypto_suite_mpi_cmp_int
.LVL887:
	.loc 1 2844 11
	beq	a0,zero,.L409
	.loc 1 2845 13 is_stmt 1
	.loc 1 2845 18
	.loc 1 2845 31 is_stmt 0
	mv	a2,s0
	mv	a0,s0
.LBE114:
.LBE113:
	.loc 1 2855 1
	lw	s0,24(sp)
	.cfi_remember_state
	.cfi_restore 8
.LVL888:
	lw	ra,28(sp)
	.cfi_restore 1
	lw	s1,20(sp)
	.cfi_restore 9
.LVL889:
	lw	s2,16(sp)
	.cfi_restore 18
.LVL890:
	lw	s4,8(sp)
	.cfi_restore 20
.LVL891:
.LBB122:
.LBB115:
	.loc 1 2845 31
	addi	a1,s3,4
.LBE115:
.LBE122:
	.loc 1 2855 1
	lw	s3,12(sp)
	.cfi_restore 19
.LVL892:
	addi	sp,sp,32
	.cfi_def_cfa_offset 0
.LBB123:
.LBB116:
	.loc 1 2845 31
	tail	blcrypto_suite_mpi_sub_mpi
.LVL893:
.L411:
	.cfi_restore_state
	.loc 1 2849 9 is_stmt 1
	.loc 1 2849 14
	.loc 1 2849 27 is_stmt 0
	mv	a1,s0
.LBE116:
.LBE123:
	.loc 1 2855 1
	lw	s0,24(sp)
	.cfi_remember_state
	.cfi_restore 8
.LVL894:
	lw	ra,28(sp)
	.cfi_restore 1
.LBB124:
.LBB117:
	.loc 1 2849 27
	mv	a6,s4
	mv	a3,s2
.LBE117:
.LBE124:
	.loc 1 2855 1
	lw	s4,8(sp)
	.cfi_restore 20
.LVL895:
	lw	s2,16(sp)
	.cfi_restore 18
.LVL896:
.LBB125:
.LBB118:
	.loc 1 2849 27
	mv	a2,s1
	mv	a0,s3
.LBE118:
.LBE125:
	.loc 1 2855 1
	lw	s1,20(sp)
	.cfi_restore 9
.LVL897:
	lw	s3,12(sp)
	.cfi_restore 19
.LVL898:
.LBB126:
.LBB119:
	.loc 1 2849 27
	li	a5,0
.LBE119:
.LBE126:
	.loc 1 2855 1
.LBB127:
.LBB120:
	.loc 1 2849 27
	li	a4,0
.LBE120:
.LBE127:
	.loc 1 2855 1
	addi	sp,sp,32
	.cfi_def_cfa_offset 0
.LBB128:
.LBB121:
	.loc 1 2849 27
	tail	blcrypto_suite_ecp_mul_restartable
.LVL899:
.L412:
.L409:
	.cfi_restore_state
.LBE121:
.LBE128:
	.loc 1 2855 1
	lw	ra,28(sp)
	.cfi_restore 1
	lw	s0,24(sp)
	.cfi_restore 8
	lw	s1,20(sp)
	.cfi_restore 9
.LVL900:
	lw	s2,16(sp)
	.cfi_restore 18
.LVL901:
	lw	s3,12(sp)
	.cfi_restore 19
.LVL902:
	lw	s4,8(sp)
	.cfi_restore 20
.LVL903:
	addi	sp,sp,32
	.cfi_def_cfa_offset 0
	jr	ra
	.cfi_endproc
.LFE47:
	.size	blcrypto_suite_ecp_mul_shortcuts, .-blcrypto_suite_ecp_mul_shortcuts
	.section	.text.blcrypto_suite_ecp_muladd_restartable,"ax",@progbits
	.align	1
	.globl	blcrypto_suite_ecp_muladd_restartable
	.type	blcrypto_suite_ecp_muladd_restartable, @function
blcrypto_suite_ecp_muladd_restartable:
.LFB48:
	.loc 1 2866 1 is_stmt 1
	.cfi_startproc
.LVL904:
	.loc 1 2867 5
	.loc 1 2868 5
	.loc 1 2869 5
	.loc 1 2866 1 is_stmt 0
	addi	sp,sp,-80
	.cfi_def_cfa_offset 80
.LVL905:
	.loc 1 2870 5 is_stmt 1
	.loc 1 2866 1 is_stmt 0
	sw	s0,72(sp)
	sw	s1,68(sp)
	sw	s2,64(sp)
	sw	s3,60(sp)
	sw	s4,56(sp)
	sw	s5,52(sp)
	sw	s6,48(sp)
	.cfi_offset 8, -8
	.cfi_offset 9, -12
	.cfi_offset 18, -16
	.cfi_offset 19, -20
	.cfi_offset 20, -24
	.cfi_offset 21, -28
	.cfi_offset 22, -32
	mv	s5,a5
	sw	ra,76(sp)
	.cfi_offset 1, -4
	.loc 1 2866 1
	mv	s1,a0
	mv	s2,a1
.LVL906:
	.loc 1 2874 5 is_stmt 1
	.loc 1 2874 10
	.loc 1 2874 17
	.loc 1 2875 5
	.loc 1 2875 10
	.loc 1 2875 17
	.loc 1 2876 5
	.loc 1 2876 10
	.loc 1 2876 17
	.loc 1 2877 5
	.loc 1 2877 10
	.loc 1 2877 17
	.loc 1 2878 5
	.loc 1 2878 10
	.loc 1 2878 17
	.loc 1 2879 5
	.loc 1 2879 10
	.loc 1 2879 17
	.loc 1 2881 5
	.loc 1 2866 1 is_stmt 0
	mv	s0,a2
	mv	s6,a3
	mv	s4,a4
	mv	s3,a6
	.loc 1 2881 9
	call	ecp_get_type
.LVL907:
	.loc 1 2881 7
	li	a5,1
	bne	a0,a5,.L420
	.loc 1 2884 5 is_stmt 1
	addi	a0,sp,12
.LVL908:
	call	blcrypto_suite_ecp_point_init
.LVL909:
	.loc 1 2886 5
	.loc 1 2886 19
	.loc 1 2905 5
	.loc 1 2905 10
	.loc 1 2905 23 is_stmt 0
	mv	a2,s0
	mv	a4,s3
	mv	a3,s6
	addi	a1,sp,12
.LVL910:
	mv	a0,s1
	call	blcrypto_suite_ecp_mul_shortcuts
.LVL911:
	mv	s0,a0
.LVL912:
	.loc 1 2905 12
	bne	a0,zero,.L419
	.loc 1 2905 113 is_stmt 1 discriminator 2
	.loc 1 2912 5 discriminator 2
	.loc 1 2912 10 discriminator 2
	.loc 1 2912 23 is_stmt 0 discriminator 2
	mv	a4,s3
	mv	a3,s5
	mv	a2,s4
	mv	a1,s2
	mv	a0,s1
	call	blcrypto_suite_ecp_mul_shortcuts
.LVL913:
	mv	s0,a0
.LVL914:
	.loc 1 2912 12 discriminator 2
	bne	a0,zero,.L419
	.loc 1 2912 112 is_stmt 1 discriminator 2
	.loc 1 2925 5 discriminator 2
	.loc 1 2926 5 discriminator 2
	.loc 1 2926 10 discriminator 2
	.loc 1 2926 23 is_stmt 0 discriminator 2
	mv	a3,s2
	addi	a2,sp,12
.LVL915:
	mv	a1,s2
	mv	a0,s1
	call	ecp_add_mixed
.LVL916:
	mv	s0,a0
.LVL917:
	.loc 1 2926 12 discriminator 2
	bne	a0,zero,.L419
	.loc 1 2926 88 is_stmt 1 discriminator 2
	.loc 1 2933 5 discriminator 2
	.loc 1 2934 5 discriminator 2
	.loc 1 2934 10 discriminator 2
	.loc 1 2934 23 is_stmt 0 discriminator 2
	mv	a1,s2
	mv	a0,s1
	call	ecp_normalize_jac
.LVL918:
	mv	s0,a0
.LVL919:
.L419:
	.loc 1 2934 83 is_stmt 1 discriminator 3
	.loc 1 2947 5 discriminator 3
.LBB129:
.LBB130:
	.loc 1 868 5 discriminator 3
	addi	a0,sp,12
.LVL920:
	call	blcrypto_suite_ecp_point_free.part.0
.LVL921:
.LBE130:
.LBE129:
	.loc 1 2949 5 discriminator 3
	.loc 1 2949 19 discriminator 3
	.loc 1 2951 5 discriminator 3
.L417:
	.loc 1 2952 1 is_stmt 0
	lw	ra,76(sp)
	.cfi_remember_state
	.cfi_restore 1
	mv	a0,s0
	lw	s0,72(sp)
	.cfi_restore 8
	lw	s1,68(sp)
	.cfi_restore 9
.LVL922:
	lw	s2,64(sp)
	.cfi_restore 18
.LVL923:
	lw	s3,60(sp)
	.cfi_restore 19
.LVL924:
	lw	s4,56(sp)
	.cfi_restore 20
.LVL925:
	lw	s5,52(sp)
	.cfi_restore 21
.LVL926:
	lw	s6,48(sp)
	.cfi_restore 22
.LVL927:
	addi	sp,sp,80
	.cfi_def_cfa_offset 0
.LVL928:
	jr	ra
.LVL929:
.L420:
	.cfi_restore_state
	.loc 1 2882 15
	li	a0,-20480
	addi	s0,a0,384
.LVL930:
	j	.L417
	.cfi_endproc
.LFE48:
	.size	blcrypto_suite_ecp_muladd_restartable, .-blcrypto_suite_ecp_muladd_restartable
	.section	.text.blcrypto_suite_ecp_muladd,"ax",@progbits
	.align	1
	.globl	blcrypto_suite_ecp_muladd
	.type	blcrypto_suite_ecp_muladd, @function
blcrypto_suite_ecp_muladd:
.LFB49:
	.loc 1 2961 1 is_stmt 1
	.cfi_startproc
.LVL931:
	.loc 1 2962 5
	.loc 1 2962 10
	.loc 1 2962 17
	.loc 1 2963 5
	.loc 1 2963 10
	.loc 1 2963 17
	.loc 1 2964 5
	.loc 1 2964 10
	.loc 1 2964 17
	.loc 1 2965 5
	.loc 1 2965 10
	.loc 1 2965 17
	.loc 1 2966 5
	.loc 1 2966 10
	.loc 1 2966 17
	.loc 1 2967 5
	.loc 1 2967 10
	.loc 1 2967 17
	.loc 1 2968 5
	.loc 1 2968 13 is_stmt 0
	li	a6,0
	tail	blcrypto_suite_ecp_muladd_restartable
.LVL932:
	.cfi_endproc
.LFE49:
	.size	blcrypto_suite_ecp_muladd, .-blcrypto_suite_ecp_muladd
	.section	.text.blcrypto_suite_ecp_gen_privkey,"ax",@progbits
	.align	1
	.globl	blcrypto_suite_ecp_gen_privkey
	.type	blcrypto_suite_ecp_gen_privkey, @function
blcrypto_suite_ecp_gen_privkey:
.LFB52:
	.loc 1 3155 1 is_stmt 1
	.cfi_startproc
.LVL933:
	.loc 1 3156 5
	.loc 1 3157 5
	.loc 1 3159 5
	.loc 1 3161 5
	.loc 1 3155 1 is_stmt 0
	addi	sp,sp,-80
	.cfi_def_cfa_offset 80
	sw	s1,68(sp)
	.cfi_offset 9, -12
	mv	s1,a0
	.loc 1 3161 5
	addi	a0,sp,20
.LVL934:
	.loc 1 3155 1
	sw	ra,76(sp)
	sw	s2,64(sp)
	sw	s3,60(sp)
	sw	s5,52(sp)
	sw	s6,48(sp)
	.cfi_offset 1, -4
	.cfi_offset 18, -16
	.cfi_offset 19, -20
	.cfi_offset 21, -28
	.cfi_offset 22, -32
	mv	s2,a1
	mv	s5,a2
	mv	s6,a3
	sw	s0,72(sp)
	sw	s4,56(sp)
	sw	s7,44(sp)
	sw	s8,40(sp)
	.cfi_offset 8, -8
	.cfi_offset 20, -24
	.cfi_offset 23, -36
	.cfi_offset 24, -40
	.loc 1 3161 5
	call	blcrypto_suite_mpi_init
.LVL935:
	.loc 1 3164 5 is_stmt 1
	.loc 1 3164 10
	.loc 1 3164 17
	.loc 1 3165 5
	.loc 1 3165 10
	.loc 1 3165 17
	.loc 1 3166 5
	.loc 1 3166 10
	.loc 1 3166 17
	.loc 1 3168 5
	.loc 1 3199 9 is_stmt 0
	mv	a0,s1
	call	ecp_get_type
.LVL936:
	.loc 1 3199 7
	li	a5,1
	.loc 1 3168 19
	lw	s3,92(s1)
.LVL937:
	.loc 1 3199 5 is_stmt 1
	.loc 1 3199 7 is_stmt 0
	bne	a0,a5,.L427
.LBB131:
	.loc 1 3202 9 is_stmt 1
.LVL938:
	.loc 1 3203 9
	.loc 1 3205 27 is_stmt 0
	lw	a1,80(s1)
	.loc 1 3203 18
	sw	a0,12(sp)
	.loc 1 3205 27
	addi	a0,sp,20
	.loc 1 3203 32
	sw	zero,16(sp)
	.loc 1 3205 9 is_stmt 1
	.loc 1 3205 14
	.loc 1 3205 27 is_stmt 0
	call	blcrypto_suite_mpi_grow
.LVL939:
	mv	s0,a0
.LVL940:
	.loc 1 3205 16
	bne	a0,zero,.L424
	.loc 1 3205 100 is_stmt 1 discriminator 2
	.loc 1 3206 9 discriminator 2
	.loc 1 3206 14 discriminator 2
	.loc 1 3206 27 is_stmt 0 discriminator 2
	li	a1,1
	addi	a0,sp,20
	call	blcrypto_suite_mpi_lset
.LVL941:
	mv	s0,a0
.LVL942:
	.loc 1 3206 16 discriminator 2
	bne	a0,zero,.L424
.LBE131:
	.loc 1 3168 27
	addi	s3,s3,7
.LVL943:
	.loc 1 3168 12
	srli	s7,s3,3
	li	s4,31
.LBB132:
	.loc 1 3218 64
	andi	s3,s3,-8
.LVL944:
	.loc 1 3235 31
	addi	s8,s1,76
.LVL945:
.L430:
	.loc 1 3206 93 is_stmt 1 discriminator 2
	.loc 1 3215 9 discriminator 2
	.loc 1 3217 13 discriminator 2
	.loc 1 3217 18 discriminator 2
	.loc 1 3217 31 is_stmt 0 discriminator 2
	mv	a3,s6
	mv	a2,s5
	mv	a1,s7
	mv	a0,s2
	call	blcrypto_suite_mpi_fill_random
.LVL946:
	mv	s0,a0
.LVL947:
	.loc 1 3217 20 discriminator 2
	bne	a0,zero,.L424
	.loc 1 3217 120 is_stmt 1 discriminator 2
	.loc 1 3218 13 discriminator 2
	.loc 1 3218 18 discriminator 2
	.loc 1 3218 31 is_stmt 0 discriminator 2
	lw	a1,92(s1)
	mv	a0,s2
	sub	a1,s3,a1
	call	blcrypto_suite_mpi_shift_r
.LVL948:
	mv	s0,a0
.LVL949:
	.loc 1 3218 20 discriminator 2
	bne	a0,zero,.L424
	.loc 1 3218 119 is_stmt 1 discriminator 2
	.loc 1 3229 13 discriminator 2
.LVL950:
	.loc 1 3229 15 is_stmt 0 discriminator 2
	addi	s4,s4,-1
.LVL951:
	beq	s4,zero,.L428
	.loc 1 3235 13 is_stmt 1
	.loc 1 3235 18
	.loc 1 3235 31 is_stmt 0
	addi	a2,sp,16
	mv	a1,s8
	mv	a0,s2
	call	blcrypto_suite_mpi_lt_mpi_ct
.LVL952:
	mv	s0,a0
.LVL953:
	.loc 1 3235 20
	bne	a0,zero,.L424
	.loc 1 3235 116 is_stmt 1 discriminator 2
	.loc 1 3236 13 discriminator 2
	.loc 1 3236 18 discriminator 2
	.loc 1 3236 31 is_stmt 0 discriminator 2
	addi	a2,sp,12
	addi	a1,sp,20
	mv	a0,s2
	call	blcrypto_suite_mpi_lt_mpi_ct
.LVL954:
	mv	s0,a0
.LVL955:
	.loc 1 3236 20 discriminator 2
	bne	a0,zero,.L424
	.loc 1 3236 113 is_stmt 1 discriminator 2
	.loc 1 3238 14 discriminator 2
	.loc 1 3238 9 is_stmt 0 discriminator 2
	lw	a5,12(sp)
	bne	a5,zero,.L430
	.loc 1 3238 30 discriminator 1
	lw	a5,16(sp)
	beq	a5,zero,.L430
.LVL956:
.L424:
.LBE132:
	.loc 1 3244 5 is_stmt 1
	addi	a0,sp,20
	call	blcrypto_suite_mpi_free
.LVL957:
	.loc 1 3246 5
	.loc 1 3247 1 is_stmt 0
	lw	ra,76(sp)
	.cfi_remember_state
	.cfi_restore 1
	mv	a0,s0
	lw	s0,72(sp)
	.cfi_restore 8
.LVL958:
	lw	s1,68(sp)
	.cfi_restore 9
.LVL959:
	lw	s2,64(sp)
	.cfi_restore 18
.LVL960:
	lw	s3,60(sp)
	.cfi_restore 19
	lw	s4,56(sp)
	.cfi_restore 20
	lw	s5,52(sp)
	.cfi_restore 21
.LVL961:
	lw	s6,48(sp)
	.cfi_restore 22
.LVL962:
	lw	s7,44(sp)
	.cfi_restore 23
	lw	s8,40(sp)
	.cfi_restore 24
	addi	sp,sp,80
	.cfi_def_cfa_offset 0
	jr	ra
.LVL963:
.L428:
	.cfi_restore_state
.LBB133:
	.loc 1 3231 21
	li	a0,-20480
	addi	s0,a0,768
.LVL964:
	j	.L424
.LVL965:
.L427:
.LBE133:
	.loc 1 3156 9
	li	a0,-20480
	addi	s0,a0,128
	j	.L424
	.cfi_endproc
.LFE52:
	.size	blcrypto_suite_ecp_gen_privkey, .-blcrypto_suite_ecp_gen_privkey
	.section	.text.blcrypto_suite_ecp_gen_keypair_base,"ax",@progbits
	.align	1
	.globl	blcrypto_suite_ecp_gen_keypair_base
	.type	blcrypto_suite_ecp_gen_keypair_base, @function
blcrypto_suite_ecp_gen_keypair_base:
.LFB53:
	.loc 1 3257 1 is_stmt 1
	.cfi_startproc
.LVL966:
	.loc 1 3258 5
	.loc 1 3259 5
	.loc 1 3259 10
	.loc 1 3259 17
	.loc 1 3260 5
	.loc 1 3260 10
	.loc 1 3260 17
	.loc 1 3261 5
	.loc 1 3261 10
	.loc 1 3261 17
	.loc 1 3262 5
	.loc 1 3262 10
	.loc 1 3262 17
	.loc 1 3263 5
	.loc 1 3263 10
	.loc 1 3263 17
	.loc 1 3265 5
	.loc 1 3265 10
	.loc 1 3257 1 is_stmt 0
	addi	sp,sp,-48
	.cfi_def_cfa_offset 48
	sw	s0,40(sp)
	.cfi_offset 8, -8
	mv	s0,a2
	sw	s2,32(sp)
	sw	s3,28(sp)
	.cfi_offset 18, -16
	.cfi_offset 19, -20
	mv	s2,a3
	mv	s3,a1
	.loc 1 3265 23
	mv	a3,a5
.LVL967:
	mv	a2,a4
.LVL968:
	mv	a1,s0
.LVL969:
	.loc 1 3257 1
	sw	s1,36(sp)
	sw	ra,44(sp)
	.cfi_offset 9, -12
	.cfi_offset 1, -4
	.loc 1 3257 1
	mv	s1,a0
	.loc 1 3265 23
	sw	a5,12(sp)
	sw	a4,8(sp)
	call	blcrypto_suite_ecp_gen_privkey
.LVL970:
	.loc 1 3265 12
	bne	a0,zero,.L433
.LVL971:
.LBB136:
.LBB137:
	.loc 1 3265 109 is_stmt 1
	.loc 1 3266 5
	.loc 1 3266 10
	.loc 1 3266 23 is_stmt 0
	mv	a2,s0
.LBE137:
.LBE136:
	.loc 1 3270 1
	lw	s0,40(sp)
	.cfi_remember_state
	.cfi_restore 8
.LVL972:
.LBB142:
.LBB138:
	.loc 1 3266 23
	lw	a5,12(sp)
	lw	a4,8(sp)
.LBE138:
.LBE142:
	.loc 1 3270 1
	lw	ra,44(sp)
	.cfi_restore 1
.LBB143:
.LBB139:
	.loc 1 3266 23
	mv	a3,s3
	mv	a1,s2
.LBE139:
.LBE143:
	.loc 1 3270 1
	lw	s3,28(sp)
	.cfi_restore 19
.LVL973:
	lw	s2,32(sp)
	.cfi_restore 18
.LVL974:
.LBB144:
.LBB140:
	.loc 1 3266 23
	mv	a0,s1
.LVL975:
.LBE140:
.LBE144:
	.loc 1 3270 1
	lw	s1,36(sp)
	.cfi_restore 9
.LVL976:
	addi	sp,sp,48
	.cfi_def_cfa_offset 0
.LVL977:
.LBB145:
.LBB141:
	.loc 1 3266 23
	tail	blcrypto_suite_ecp_mul
.LVL978:
.L434:
.L433:
	.cfi_restore_state
.LBE141:
.LBE145:
	.loc 1 3270 1
	lw	ra,44(sp)
	.cfi_restore 1
	lw	s0,40(sp)
	.cfi_restore 8
.LVL979:
	lw	s1,36(sp)
	.cfi_restore 9
.LVL980:
	lw	s2,32(sp)
	.cfi_restore 18
.LVL981:
	lw	s3,28(sp)
	.cfi_restore 19
.LVL982:
	addi	sp,sp,48
	.cfi_def_cfa_offset 0
.LVL983:
	jr	ra
	.cfi_endproc
.LFE53:
	.size	blcrypto_suite_ecp_gen_keypair_base, .-blcrypto_suite_ecp_gen_keypair_base
	.section	.text.blcrypto_suite_ecp_gen_keypair,"ax",@progbits
	.align	1
	.globl	blcrypto_suite_ecp_gen_keypair
	.type	blcrypto_suite_ecp_gen_keypair, @function
blcrypto_suite_ecp_gen_keypair:
.LFB54:
	.loc 1 3279 1 is_stmt 1
	.cfi_startproc
.LVL984:
	.loc 1 3280 5
	.loc 1 3280 10
	.loc 1 3280 17
	.loc 1 3281 5
	.loc 1 3281 10
	.loc 1 3281 17
	.loc 1 3282 5
	.loc 1 3282 10
	.loc 1 3282 17
	.loc 1 3283 5
	.loc 1 3283 10
	.loc 1 3283 17
	.loc 1 3285 5
	.loc 1 3279 1 is_stmt 0
	mv	a5,a4
	.loc 1 3285 13
	mv	a4,a3
.LVL985:
	mv	a3,a2
.LVL986:
	mv	a2,a1
.LVL987:
	addi	a1,a0,40
.LVL988:
	tail	blcrypto_suite_ecp_gen_keypair_base
.LVL989:
	.cfi_endproc
.LFE54:
	.size	blcrypto_suite_ecp_gen_keypair, .-blcrypto_suite_ecp_gen_keypair
	.section	.text.blcrypto_suite_ecp_gen_key,"ax",@progbits
	.align	1
	.globl	blcrypto_suite_ecp_gen_key
	.type	blcrypto_suite_ecp_gen_key, @function
blcrypto_suite_ecp_gen_key:
.LFB55:
	.loc 1 3293 1 is_stmt 1
	.cfi_startproc
.LVL990:
	.loc 1 3294 5
	.loc 1 3295 5
	.loc 1 3295 10
	.loc 1 3295 17
	.loc 1 3296 5
	.loc 1 3296 10
	.loc 1 3296 17
	.loc 1 3298 5
	.loc 1 3293 1 is_stmt 0
	addi	sp,sp,-32
	.cfi_def_cfa_offset 32
	sw	s0,24(sp)
	.cfi_offset 8, -8
	mv	s0,a1
	.loc 1 3298 17
	mv	a1,a0
.LVL991:
	mv	a0,s0
.LVL992:
	.loc 1 3293 1
	sw	s1,20(sp)
	sw	ra,28(sp)
	.cfi_offset 9, -12
	.cfi_offset 1, -4
	.loc 1 3293 1
	mv	s1,a2
	sw	a3,12(sp)
	.loc 1 3298 17
	call	blcrypto_suite_ecp_group_load
.LVL993:
	.loc 1 3298 7
	bne	a0,zero,.L437
	.loc 1 3301 5 is_stmt 1
	.loc 1 3301 13 is_stmt 0
	addi	a2,s0,136
	addi	a1,s0,124
	mv	a0,s0
.LVL994:
	.loc 1 3302 1
	lw	s0,24(sp)
	.cfi_remember_state
	.cfi_restore 8
.LVL995:
	.loc 1 3301 13
	lw	a4,12(sp)
	.loc 1 3302 1
	lw	ra,28(sp)
	.cfi_restore 1
	.loc 1 3301 13
	mv	a3,s1
	.loc 1 3302 1
	lw	s1,20(sp)
	.cfi_restore 9
.LVL996:
	addi	sp,sp,32
	.cfi_def_cfa_offset 0
.LVL997:
	.loc 1 3301 13
	tail	blcrypto_suite_ecp_gen_keypair
.LVL998:
.L437:
	.cfi_restore_state
	.loc 1 3302 1
	lw	ra,28(sp)
	.cfi_restore 1
	lw	s0,24(sp)
	.cfi_restore 8
.LVL999:
	lw	s1,20(sp)
	.cfi_restore 9
.LVL1000:
	addi	sp,sp,32
	.cfi_def_cfa_offset 0
.LVL1001:
	jr	ra
	.cfi_endproc
.LFE55:
	.size	blcrypto_suite_ecp_gen_key, .-blcrypto_suite_ecp_gen_key
	.section	.text.blcrypto_suite_ecp_check_pub_priv,"ax",@progbits
	.align	1
	.globl	blcrypto_suite_ecp_check_pub_priv
	.type	blcrypto_suite_ecp_check_pub_priv, @function
blcrypto_suite_ecp_check_pub_priv:
.LFB56:
	.loc 1 3308 1 is_stmt 1
	.cfi_startproc
.LVL1002:
	.loc 1 3309 5
	.loc 1 3310 5
	.loc 1 3311 5
	.loc 1 3312 5
	.loc 1 3312 10
	.loc 1 3312 17
	.loc 1 3313 5
	.loc 1 3313 10
	.loc 1 3313 17
	.loc 1 3315 5
	.loc 1 3308 1 is_stmt 0
	addi	sp,sp,-192
	.cfi_def_cfa_offset 192
	sw	ra,188(sp)
	sw	s0,184(sp)
	sw	s1,180(sp)
	sw	s2,176(sp)
	sw	s3,172(sp)
	sw	s4,168(sp)
	.cfi_offset 1, -4
	.cfi_offset 8, -8
	.cfi_offset 9, -12
	.cfi_offset 18, -16
	.cfi_offset 19, -20
	.cfi_offset 20, -24
	.loc 1 3315 17
	lw	a5,0(a0)
	.loc 1 3315 7
	bne	a5,zero,.L441
.LVL1003:
.L443:
	.loc 1 3321 15
	li	s0,-20480
	addi	s0,s0,128
.L440:
	.loc 1 3346 1
	lw	ra,188(sp)
	.cfi_remember_state
	.cfi_restore 1
	mv	a0,s0
	lw	s0,184(sp)
	.cfi_restore 8
	lw	s1,180(sp)
	.cfi_restore 9
	lw	s2,176(sp)
	.cfi_restore 18
	lw	s3,172(sp)
	.cfi_restore 19
	lw	s4,168(sp)
	.cfi_restore 20
	addi	sp,sp,192
	.cfi_def_cfa_offset 0
	jr	ra
.LVL1004:
.L441:
	.cfi_restore_state
	.loc 1 3315 51 discriminator 1
	lw	a4,0(a1)
	mv	s0,a1
	bne	a5,a4,.L443
.LVL1005:
	.loc 1 3317 9
	addi	s4,a1,136
	mv	s1,a0
	mv	a1,s4
	addi	a0,a0,136
.LVL1006:
	call	blcrypto_suite_mpi_cmp_mpi
.LVL1007:
	.loc 1 3316 36
	bne	a0,zero,.L443
	.loc 1 3318 9
	addi	s3,s0,148
	mv	a1,s3
	addi	a0,s1,148
	call	blcrypto_suite_mpi_cmp_mpi
.LVL1008:
	.loc 1 3317 60
	bne	a0,zero,.L443
	.loc 1 3319 9
	addi	s2,s0,160
	mv	a1,s2
	addi	a0,s1,160
	call	blcrypto_suite_mpi_cmp_mpi
.LVL1009:
	.loc 1 3318 60
	bne	a0,zero,.L443
	.loc 1 3324 5 is_stmt 1
	mv	a0,sp
	call	blcrypto_suite_ecp_point_init
.LVL1010:
	.loc 1 3325 5
	addi	a0,sp,36
	call	blcrypto_suite_ecp_group_init
.LVL1011:
	.loc 1 3328 5
	mv	a1,s0
	addi	a0,sp,36
	call	blcrypto_suite_ecp_group_copy
.LVL1012:
	.loc 1 3331 5
	.loc 1 3331 10
	.loc 1 3331 23 is_stmt 0
	addi	a3,s0,40
	addi	a2,s0,124
	li	a5,0
	li	a4,0
	mv	a1,sp
	addi	a0,sp,36
	call	blcrypto_suite_ecp_mul
.LVL1013:
	mv	s0,a0
.LVL1014:
	.loc 1 3331 12
	bne	a0,zero,.L444
	.loc 1 3331 37 is_stmt 1 discriminator 2
	.loc 1 3333 5 discriminator 2
	.loc 1 3333 9 is_stmt 0 discriminator 2
	mv	a1,s4
	mv	a0,sp
	call	blcrypto_suite_mpi_cmp_mpi
.LVL1015:
	.loc 1 3333 7 discriminator 2
	bne	a0,zero,.L445
	.loc 1 3334 9 discriminator 1
	mv	a1,s3
	addi	a0,sp,12
	call	blcrypto_suite_mpi_cmp_mpi
.LVL1016:
	.loc 1 3333 55 discriminator 1
	bne	a0,zero,.L445
	.loc 1 3335 9
	mv	a1,s2
	addi	a0,sp,24
	call	blcrypto_suite_mpi_cmp_mpi
.LVL1017:
	mv	s0,a0
.LVL1018:
	.loc 1 3334 55
	beq	a0,zero,.L444
.L445:
	.loc 1 3337 13
	li	s0,-20480
	addi	s0,s0,128
.L444:
.LVL1019:
	.loc 1 3342 5 is_stmt 1
.LBB146:
.LBB147:
	.loc 1 868 5
	mv	a0,sp
	call	blcrypto_suite_ecp_point_free.part.0
.LVL1020:
.LBE147:
.LBE146:
	.loc 1 3343 5
	addi	a0,sp,36
	call	blcrypto_suite_ecp_group_free
.LVL1021:
	.loc 1 3345 5
	.loc 1 3345 11 is_stmt 0
	j	.L440
	.cfi_endproc
.LFE56:
	.size	blcrypto_suite_ecp_check_pub_priv, .-blcrypto_suite_ecp_check_pub_priv
	.section	.rodata.ecp_supported_curves,"a"
	.align	2
	.set	.LANCHOR0,. + 0
	.type	ecp_supported_curves, @object
	.size	ecp_supported_curves, 24
ecp_supported_curves:
	.word	3
	.half	23
	.half	256
	.word	.LC0
	.word	0
	.half	0
	.half	0
	.word	0
	.section	.sbss.ecp_supported_grp_id,"aw",@nobits
	.align	2
	.set	.LANCHOR2,. + 0
	.type	ecp_supported_grp_id, @object
	.size	ecp_supported_grp_id, 8
ecp_supported_grp_id:
	.zero	8
	.section	.sbss.init_done.0,"aw",@nobits
	.align	2
	.set	.LANCHOR1,. + 0
	.type	init_done.0, @object
	.size	init_done.0, 4
init_done.0:
	.zero	4
	.text
.Letext0:
	.file 2 "/mnt/d/GitHub/bl_iot_sdk_for_aithinker/toolchain/riscv/Linux/lib/gcc/riscv64-unknown-elf/10.2.0/include/stddef.h"
	.file 3 "/mnt/d/GitHub/bl_iot_sdk_for_aithinker/toolchain/riscv/Linux/lib/gcc/riscv64-unknown-elf/10.2.0/include/stdint-gcc.h"
	.file 4 "/mnt/d/GitHub/bl_iot_sdk_for_aithinker/components/security/blcrypto_suite/inc/blcrypto_suite/blcrypto_suite_bignum.h"
	.file 5 "/mnt/d/GitHub/bl_iot_sdk_for_aithinker/components/security/blcrypto_suite/inc/blcrypto_suite/blcrypto_suite_ecp.h"
	.file 6 "/mnt/d/GitHub/bl_iot_sdk_for_aithinker/components/security/blcrypto_suite/inc/blcrypto_suite/blcrypto_suite_platform.h"
	.file 7 "/mnt/d/GitHub/bl_iot_sdk_for_aithinker/components/security/blcrypto_suite/inc/blcrypto_suite/blcrypto_suite_platform_util.h"
	.file 8 "/mnt/d/GitHub/bl_iot_sdk_for_aithinker/toolchain/riscv/Linux/riscv64-unknown-elf/include/string.h"