	.file	"blcrypto_suite_hacc.c"
	.option nopic
	.attribute arch, "rv32i2p0_m2p0_f2p0_c2p0"
	.attribute unaligned_access, 0
	.attribute stack_align, 16
	.text
.Ltext0:
	.cfi_sections	.debug_frame
	.section	.text.blcrypto_suite_hacc_reset,"ax",@progbits
	.align	1
	.globl	blcrypto_suite_hacc_reset
	.type	blcrypto_suite_hacc_reset, @function
blcrypto_suite_hacc_reset:
.LFB8:
	.file 1 "/mnt/d/GitHub/bl_iot_sdk_for_aithinker/components/security/blcrypto_suite/src/blcrypto_suite_hacc.c"
	.loc 1 14 1
	.cfi_startproc
	.loc 1 15 5
	.loc 1 14 1 is_stmt 0
	addi	sp,sp,-16
	.cfi_def_cfa_offset 16
	sw	ra,12(sp)
	.cfi_offset 1, -4
	.loc 1 15 5
	call	Sec_Eng_PKA_Reset
.LVL0:
	.loc 1 16 5 is_stmt 1
	call	Sec_Eng_PKA_BigEndian_Enable
.LVL1:
	.loc 1 18 5
	.loc 1 19 1 is_stmt 0
	lw	ra,12(sp)
	.cfi_restore 1
	li	a0,0
	addi	sp,sp,16
	.cfi_def_cfa_offset 0
	jr	ra
	.cfi_endproc
.LFE8:
	.size	blcrypto_suite_hacc_reset, .-blcrypto_suite_hacc_reset
	.section	.text.blcrypto_suite_hacc_gf2mont_256_bin,"ax",@progbits
	.align	1
	.globl	blcrypto_suite_hacc_gf2mont_256_bin
	.type	blcrypto_suite_hacc_gf2mont_256_bin, @function
blcrypto_suite_hacc_gf2mont_256_bin:
.LFB9:
	.loc 1 22 1 is_stmt 1
	.cfi_startproc
.LVL2:
	.loc 1 29 5
	.loc 1 22 1 is_stmt 0
	addi	sp,sp,-32
	.cfi_def_cfa_offset 32
	sw	s0,24(sp)
	sw	s1,20(sp)
	sw	s2,16(sp)
	.cfi_offset 8, -8
	.cfi_offset 9, -12
	.cfi_offset 18, -16
	mv	s0,a0
	mv	s2,a1
	mv	s1,a2
	.loc 1 29 5
	li	a3,1
	li	a2,16
.LVL3:
	li	a1,2
.LVL4:
	li	a0,4
.LVL5:
	.loc 1 22 1
	sw	ra,28(sp)
	.cfi_offset 1, -4
	.loc 1 29 5
	call	Sec_Eng_PKA_CREG
.LVL6:
	.loc 1 30 5 is_stmt 1
	mv	a2,s2
	li	a4,1
	li	a3,8
	li	a1,1
	li	a0,3
	call	Sec_Eng_PKA_Write_Data
.LVL7:
	.loc 1 31 5
	mv	a2,s1
	li	a4,1
	li	a3,8
	li	a1,2
	li	a0,3
	call	Sec_Eng_PKA_Write_Data
.LVL8:
	.loc 1 32 5
	li	a5,2
	sw	a5,0(sp)
	li	a7,3
	li	a6,2
	li	a5,4
	li	a4,256
	li	a3,1
	li	a2,3
	li	a1,0
	li	a0,3
	call	Sec_Eng_PKA_GF2Mont
.LVL9:
	.loc 1 33 5
	mv	a2,s0
	li	a0,3
	li	a3,8
	li	a1,0
	call	Sec_Eng_PKA_Read_Data
.LVL10:
	.loc 1 35 5
	.loc 1 36 1 is_stmt 0
	lw	ra,28(sp)
	.cfi_restore 1
	lw	s0,24(sp)
	.cfi_restore 8
.LVL11:
	lw	s1,20(sp)
	.cfi_restore 9
.LVL12:
	lw	s2,16(sp)
	.cfi_restore 18
.LVL13:
	li	a0,0
	addi	sp,sp,32
	.cfi_def_cfa_offset 0
	jr	ra
	.cfi_endproc
.LFE9:
	.size	blcrypto_suite_hacc_gf2mont_256_bin, .-blcrypto_suite_hacc_gf2mont_256_bin
	.text
.Letext0:
	.file 2 "/mnt/d/GitHub/bl_iot_sdk_for_aithinker/components/platform/soc/bl602/bl602_std/bl602_std/StdDriver/Inc/bl602_sec_eng.h"
	.file 3 "/mnt/d/GitHub/bl_iot_sdk_for_aithinker/toolchain/riscv/Linux/lib/gcc/riscv64-unknown-elf/10.2.0/include/stdint-gcc.h"