	.file	"aes.c"
	.option nopic
	.attribute arch, "rv32i2p0_m2p0_f2p0_c2p0"
	.attribute unaligned_access, 0
	.attribute stack_align, 16
	.text
.Ltext0:
	.cfi_sections	.debug_frame
	.section	.text.aes_gen_tables,"ax",@progbits
	.align	1
	.type	aes_gen_tables, @function
aes_gen_tables:
.LFB4:
	.file 1 "/mnt/d/GitHub/bl_iot_sdk_for_aithinker/components/security/mbedtls_lts/mbedtls/library/aes.c"
	.loc 1 430 1
	.cfi_startproc
	.loc 1 431 5
	.loc 1 432 5
	.loc 1 433 5
	.loc 1 438 5
.LVL0:
	.loc 1 438 24
	.loc 1 430 1 is_stmt 0
	addi	sp,sp,-48
	.cfi_def_cfa_offset 48
	sw	s0,44(sp)
	sw	s1,40(sp)
	sw	s2,36(sp)
	sw	s3,32(sp)
	sw	s4,28(sp)
	sw	s5,24(sp)
	sw	s6,20(sp)
	addi	sp,sp,-2032
	.cfi_def_cfa_offset 2080
	.cfi_offset 8, -4
	.cfi_offset 9, -8
	.cfi_offset 18, -12
	.cfi_offset 19, -16
	.cfi_offset 20, -20
	.cfi_offset 21, -24
	.cfi_offset 22, -28
	mv	a2,sp
	.loc 1 438 19
	li	a5,1
	.loc 1 438 12
	li	a3,0
	.loc 1 438 5
	li	a0,256
.LVL1:
.L3:
	.loc 1 440 9 is_stmt 1
	.loc 1 441 16 is_stmt 0
	li	a1,4096
	addi	a1,a1,-2048
	add	a1,a1,sp
	slli	a4,a5,2
	add	a4,a1,a4
	sw	a3,-1024(a4)
	.loc 1 440 16
	sw	a5,0(a2)
	.loc 1 441 9 is_stmt 1
	.loc 1 442 9
	.loc 1 442 44 is_stmt 0
	andi	a1,a5,128
	.loc 1 442 27
	slli	a4,a5,1
	.loc 1 442 60
	beq	a1,zero,.L2
	li	a1,27
.L2:
.LVL2:
	.loc 1 442 17 discriminator 4
	xor	a5,a4,a5
	xor	a5,a5,a1
	.loc 1 438 34 discriminator 4
	addi	a3,a3,1
	.loc 1 442 11 discriminator 4
	andi	a5,a5,255
.LVL3:
	.loc 1 438 33 is_stmt 1 discriminator 4
	.loc 1 438 24 discriminator 4
	.loc 1 438 5 is_stmt 0 discriminator 4
	addi	a2,a2,4
	bne	a3,a0,.L3
	lui	a4,%hi(.LANCHOR0)
	addi	a4,a4,%lo(.LANCHOR0)
	addi	a2,a4,40
	.loc 1 448 19
	li	a5,1
.LVL4:
.L5:
	.loc 1 450 9 is_stmt 1
	.loc 1 450 17 is_stmt 0
	sw	a5,0(a4)
	.loc 1 451 9 is_stmt 1
	.loc 1 451 21 is_stmt 0
	slli	a3,a5,1
	.loc 1 451 38
	andi	a5,a5,128
.LVL5:
	.loc 1 451 54
	beq	a5,zero,.L4
	li	a5,27
.L4:
	.loc 1 451 28 discriminator 4
	xor	a5,a3,a5
	.loc 1 448 5 discriminator 4
	addi	a4,a4,4
.LVL6:
	.loc 1 451 11 discriminator 4
	andi	a5,a5,255
.LVL7:
	.loc 1 448 32 is_stmt 1 discriminator 4
	.loc 1 448 24 discriminator 4
	.loc 1 448 5 is_stmt 0 discriminator 4
	bne	a2,a4,.L5
	.loc 1 457 5 is_stmt 1
	.loc 1 457 15 is_stmt 0
	lui	a1,%hi(.LANCHOR1)
	li	a5,99
.LVL8:
	.loc 1 458 15
	lui	a2,%hi(.LANCHOR2)
	.loc 1 457 15
	sb	a5,%lo(.LANCHOR1)(a1)
	.loc 1 458 5 is_stmt 1
	.loc 1 458 15 is_stmt 0
	addi	a5,a2,%lo(.LANCHOR2)
	sb	zero,99(a5)
	.loc 1 460 5 is_stmt 1
.LVL9:
	.loc 1 460 17
	addi	t1,sp,1024
	.loc 1 460 12 is_stmt 0
	li	a7,1
	addi	a1,a1,%lo(.LANCHOR1)
	addi	a2,a2,%lo(.LANCHOR2)
	.loc 1 462 21
	li	t4,255
	.loc 1 460 5
	li	t3,256
.LVL10:
.L6:
	.loc 1 462 9 is_stmt 1 discriminator 3
	.loc 1 462 21 is_stmt 0 discriminator 3
	lw	a5,4(t1)
	.loc 1 462 11 discriminator 3
	li	a4,4096
	addi	a4,a4,-2048
	.loc 1 462 21 discriminator 3
	sub	a5,t4,a5
	.loc 1 462 11 discriminator 3
	add	a4,a4,sp
	slli	a5,a5,2
	add	a5,a4,a5
	lw	t5,-2048(a5)
.LVL11:
	.loc 1 464 9 is_stmt 1 discriminator 3
	.loc 1 464 16 discriminator 3
	.loc 1 460 5 is_stmt 0 discriminator 3
	addi	t1,t1,4
	.loc 1 464 26 discriminator 3
	slli	a6,t5,1
	.loc 1 464 39 discriminator 3
	srai	a5,t5,7
	.loc 1 464 33 discriminator 3
	or	a5,a6,a5
	.loc 1 464 18 discriminator 3
	andi	a6,a5,255
.LVL12:
	.loc 1 465 9 is_stmt 1 discriminator 3
	.loc 1 465 17 discriminator 3
	.loc 1 465 40 is_stmt 0 discriminator 3
	srai	a5,a6,7
	.loc 1 465 27 discriminator 3
	slli	a0,a6,1
	.loc 1 465 34 discriminator 3
	or	a0,a0,a5
	.loc 1 465 19 discriminator 3
	andi	a0,a0,255
.LVL13:
	.loc 1 466 9 is_stmt 1 discriminator 3
	.loc 1 466 17 discriminator 3
	.loc 1 466 40 is_stmt 0 discriminator 3
	srai	a5,a0,7
	.loc 1 466 27 discriminator 3
	slli	a3,a0,1
	.loc 1 466 34 discriminator 3
	or	a3,a3,a5
	.loc 1 466 19 discriminator 3
	andi	a3,a3,255
.LVL14:
	.loc 1 467 9 is_stmt 1 discriminator 3
	.loc 1 467 17 discriminator 3
	.loc 1 467 27 is_stmt 0 discriminator 3
	slli	a4,a3,1
	.loc 1 467 40 discriminator 3
	srai	a5,a3,7
	.loc 1 467 34 discriminator 3
	or	a5,a4,a5
.LVL15:
	.loc 1 468 9 is_stmt 1 discriminator 3
	.loc 1 467 19 is_stmt 0 discriminator 3
	andi	a5,a5,255
.LVL16:
	xor	a5,a5,t5
.LVL17:
	xor	a5,a5,a6
	xor	a5,a5,a0
	xor	a5,a5,a3
	.loc 1 468 11 discriminator 3
	xori	a5,a5,99
.LVL18:
	.loc 1 470 9 is_stmt 1 discriminator 3
	.loc 1 470 16 is_stmt 0 discriminator 3
	add	a4,a1,a7
.LVL19:
	.loc 1 470 18 discriminator 3
	sb	a5,0(a4)
	.loc 1 471 9 is_stmt 1 discriminator 3
	.loc 1 471 16 is_stmt 0 discriminator 3
	add	a5,a2,a5
.LVL20:
	sb	a7,0(a5)
	.loc 1 460 26 is_stmt 1 discriminator 3
	.loc 1 460 27 is_stmt 0 discriminator 3
	addi	a7,a7,1
.LVL21:
	.loc 1 460 17 is_stmt 1 discriminator 3
	.loc 1 460 5 is_stmt 0 discriminator 3
	bne	a7,t3,.L6
	.loc 1 496 61
	lw	s0,1080(sp)
	.loc 1 497 61
	lw	s1,1060(sp)
	.loc 1 498 61
	lw	s2,1076(sp)
	.loc 1 499 61
	lw	s3,1068(sp)
	.loc 1 483 16
	lui	t4,%hi(.LANCHOR3)
	.loc 1 489 16
	lui	t5,%hi(.LANCHOR4)
.LVL22:
	.loc 1 490 16
	lui	t6,%hi(.LANCHOR5)
	.loc 1 491 16
	lui	t0,%hi(.LANCHOR6)
	.loc 1 496 16
	lui	t3,%hi(.LANCHOR7)
	.loc 1 502 16
	lui	t1,%hi(.LANCHOR8)
.LVL23:
	.loc 1 503 16
	lui	a7,%hi(.LANCHOR9)
.LVL24:
	.loc 1 504 16
	lui	a6,%hi(.LANCHOR10)
	.loc 1 499 61
	li	a3,0
.LVL25:
	.loc 1 483 16
	addi	t4,t4,%lo(.LANCHOR3)
	.loc 1 489 16
	addi	t5,t5,%lo(.LANCHOR4)
	.loc 1 490 16
	addi	t6,t6,%lo(.LANCHOR5)
	.loc 1 491 16
	addi	t0,t0,%lo(.LANCHOR6)
	.loc 1 496 80
	li	a0,255
.LVL26:
	.loc 1 496 16
	addi	t3,t3,%lo(.LANCHOR7)
	.loc 1 502 16
	addi	t1,t1,%lo(.LANCHOR8)
	.loc 1 503 16
	addi	a7,a7,%lo(.LANCHOR9)
	.loc 1 504 16
	addi	a6,a6,%lo(.LANCHOR10)
	.loc 1 477 5
	li	t2,1024
.L11:
.LVL27:
	.loc 1 479 9 is_stmt 1
	.loc 1 479 16 is_stmt 0
	lbu	a4,0(a1)
.LVL28:
	.loc 1 480 9 is_stmt 1
	.loc 1 480 54 is_stmt 0
	slli	a5,a4,24
	srai	a5,a5,24
	srai	a5,a5,31
	.loc 1 480 21
	slli	s4,a4,1
	.loc 1 480 54
	andi	a5,a5,27
	.loc 1 480 28
	xor	s4,s4,a5
	.loc 1 480 11
	andi	s4,s4,255
.LVL29:
	.loc 1 481 9 is_stmt 1
	.loc 1 483 9
	.loc 1 485 33 is_stmt 0
	slli	s5,a4,16
	.loc 1 484 33
	slli	a5,a4,8
	.loc 1 484 40
	xor	a5,a5,s5
	.loc 1 481 17
	xor	a4,a4,s4
.LVL30:
	.loc 1 484 40
	xor	a5,a5,s4
	.loc 1 486 33
	slli	a4,a4,24
.LVL31:
	.loc 1 485 41
	xor	a5,a5,a4
	.loc 1 483 16
	add	a4,t4,a3
	.loc 1 489 53
	srli	s5,a5,24
	.loc 1 483 16
	sw	a5,0(a4)
	.loc 1 489 9 is_stmt 1
	.loc 1 489 53 is_stmt 0
	slli	a4,a5,8
	or	a4,a4,s5
	.loc 1 489 16
	add	s4,t5,a3
.LVL32:
	sw	a4,0(s4)
	.loc 1 490 9 is_stmt 1
	.loc 1 490 53 is_stmt 0
	srli	s5,a5,16
	slli	a4,a5,16
	.loc 1 490 16
	add	s4,t6,a3
	.loc 1 490 53
	or	a4,a4,s5
	.loc 1 490 16
	sw	a4,0(s4)
	.loc 1 491 9 is_stmt 1
	.loc 1 491 53 is_stmt 0
	srli	a4,a5,8
	slli	a5,a5,24
	or	a5,a4,a5
	.loc 1 491 16
	add	s4,t0,a3
	sw	a5,0(s4)
	.loc 1 494 9 is_stmt 1
	.loc 1 494 11 is_stmt 0
	lbu	a5,0(a2)
.LVL33:
	.loc 1 496 9 is_stmt 1
	.loc 1 496 20 is_stmt 0
	beq	a5,zero,.L15
	.loc 1 496 73 discriminator 1
	li	s6,4096
	addi	s4,s6,-2048
	add	s4,s4,sp
	slli	a4,a5,2
	add	a4,s4,a4
	lw	a4,-1024(a4)
	.loc 1 496 56 discriminator 1
	addi	s5,s6,-2048
	add	s5,s5,sp
	.loc 1 496 69 discriminator 1
	add	s4,s0,a4
	.loc 1 496 80 discriminator 1
	rem	s4,s4,a0
	.loc 1 497 69 discriminator 1
	add	a4,a4,s1
	.loc 1 497 80 discriminator 1
	rem	a4,a4,a0
	.loc 1 496 56 discriminator 1
	slli	s4,s4,2
	add	s4,s5,s4
	.loc 1 496 20 discriminator 1
	lw	s5,-2048(s4)
	.loc 1 497 56 discriminator 1
	addi	s4,s6,-2048
	add	s4,s4,sp
	slli	a4,a4,2
	add	a4,s4,a4
	.loc 1 497 93 discriminator 1
	lw	s4,-2048(a4)
	slli	s4,s4,8
.L8:
	.loc 1 496 95
	xor	s4,s4,s5
	.loc 1 498 93
	li	a4,0
	beq	a5,zero,.L9
	.loc 1 498 73 discriminator 1
	li	s6,4096
	addi	s5,s6,-2048
	add	s5,s5,sp
	slli	a4,a5,2
	add	a4,s5,a4
	.loc 1 498 69 discriminator 1
	lw	a4,-1024(a4)
	.loc 1 498 56 discriminator 1
	addi	s5,s6,-2048
	add	s5,s5,sp
	.loc 1 498 69 discriminator 1
	add	a4,s2,a4
	.loc 1 498 80 discriminator 1
	rem	a4,a4,a0
	.loc 1 498 56 discriminator 1
	slli	a4,a4,2
	add	a4,s5,a4
	.loc 1 498 93 discriminator 1
	lw	a4,-2048(a4)
	slli	a4,a4,16
.L9:
	.loc 1 497 100
	xor	s4,s4,a4
	.loc 1 499 93
	li	a4,0
	beq	a5,zero,.L10
	.loc 1 499 73 discriminator 1
	li	s5,4096
	addi	a4,s5,-2048
	add	a4,a4,sp
	slli	a5,a5,2
.LVL34:
	add	a5,a4,a5
	.loc 1 499 69 discriminator 1
	lw	a4,-1024(a5)
	.loc 1 499 56 discriminator 1
	addi	a5,s5,-2048
	add	a5,a5,sp
	.loc 1 499 69 discriminator 1
	add	a4,s3,a4
	.loc 1 499 80 discriminator 1
	rem	a4,a4,a0
	.loc 1 499 56 discriminator 1
	slli	a4,a4,2
	add	a4,a5,a4
	.loc 1 499 93 discriminator 1
	lw	a5,-2048(a4)
	slli	a4,a5,24
.L10:
	.loc 1 498 101 discriminator 2
	xor	a5,s4,a4
	.loc 1 496 16 discriminator 2
	add	a4,t3,a3
	.loc 1 502 53 discriminator 2
	srli	s5,a5,24
	.loc 1 496 16 discriminator 2
	sw	a5,0(a4)
	.loc 1 502 9 is_stmt 1 discriminator 2
	.loc 1 502 53 is_stmt 0 discriminator 2
	slli	a4,a5,8
	.loc 1 502 16 discriminator 2
	add	s4,t1,a3
	.loc 1 502 53 discriminator 2
	or	a4,a4,s5
	.loc 1 502 16 discriminator 2
	sw	a4,0(s4)
	.loc 1 503 9 is_stmt 1 discriminator 2
	.loc 1 503 53 is_stmt 0 discriminator 2
	srli	s5,a5,16
	slli	a4,a5,16
	.loc 1 503 16 discriminator 2
	add	s4,a7,a3
	.loc 1 503 53 discriminator 2
	or	a4,a4,s5
	.loc 1 503 16 discriminator 2
	sw	a4,0(s4)
	.loc 1 504 9 is_stmt 1 discriminator 2
	.loc 1 504 53 is_stmt 0 discriminator 2
	srli	a4,a5,8
	slli	a5,a5,24
	.loc 1 504 16 discriminator 2
	add	s4,a6,a3
	.loc 1 504 53 discriminator 2
	or	a5,a4,a5
	.loc 1 504 16 discriminator 2
	sw	a5,0(s4)
	.loc 1 477 26 is_stmt 1 discriminator 2
.LVL35:
	.loc 1 477 17 discriminator 2
	.loc 1 477 5 is_stmt 0 discriminator 2
	addi	a3,a3,4
	addi	a1,a1,1
.LVL36:
	addi	a2,a2,1
.LVL37:
	bne	a3,t2,.L11
	.loc 1 507 1
	addi	sp,sp,2032
	.cfi_remember_state
	.cfi_def_cfa_offset 48
	lw	s0,44(sp)
	.cfi_restore 8
	lw	s1,40(sp)
	.cfi_restore 9
	lw	s2,36(sp)
	.cfi_restore 18
	lw	s3,32(sp)
	.cfi_restore 19
	lw	s4,28(sp)
	.cfi_restore 20
	lw	s5,24(sp)
	.cfi_restore 21
	lw	s6,20(sp)
	.cfi_restore 22
	addi	sp,sp,48
	.cfi_def_cfa_offset 0
	jr	ra
.LVL38:
.L15:
	.cfi_restore_state
	.loc 1 496 20
	li	s5,0
	.loc 1 497 93
	li	s4,0
	j	.L8
	.cfi_endproc
.LFE4:
	.size	aes_gen_tables, .-aes_gen_tables
	.section	.text.mbedtls_aes_init,"ax",@progbits
	.align	1
	.globl	mbedtls_aes_init
	.type	mbedtls_aes_init, @function
mbedtls_aes_init:
.LFB5:
	.loc 1 544 1 is_stmt 1
	.cfi_startproc
.LVL39:
	.loc 1 545 5
	.loc 1 545 10
	.loc 1 545 17
	.loc 1 547 5
	li	a2,280
	li	a1,0
	tail	memset
.LVL40:
	.cfi_endproc
.LFE5:
	.size	mbedtls_aes_init, .-mbedtls_aes_init
	.section	.text.mbedtls_aes_free,"ax",@progbits
	.align	1
	.globl	mbedtls_aes_free
	.type	mbedtls_aes_free, @function
mbedtls_aes_free:
.LFB6:
	.loc 1 551 1
	.cfi_startproc
.LVL41:
	.loc 1 552 5
	.loc 1 552 7 is_stmt 0
	beq	a0,zero,.L26
	.loc 1 555 5 is_stmt 1
	li	a1,280
	tail	mbedtls_platform_zeroize
.LVL42:
.L26:
	.loc 1 556 1 is_stmt 0
	ret
	.cfi_endproc
.LFE6:
	.size	mbedtls_aes_free, .-mbedtls_aes_free
	.section	.text.mbedtls_aes_setkey_enc,"ax",@progbits
	.align	1
	.globl	mbedtls_aes_setkey_enc
	.type	mbedtls_aes_setkey_enc, @function
mbedtls_aes_setkey_enc:
.LFB7:
	.loc 1 583 1 is_stmt 1
	.cfi_startproc
.LVL43:
	.loc 1 584 5
	.loc 1 585 5
	.loc 1 587 5
	.loc 1 587 10
	.loc 1 587 17
	.loc 1 588 5
	.loc 1 588 10
	.loc 1 588 17
	.loc 1 590 5
	.loc 1 583 1 is_stmt 0
	addi	sp,sp,-32
	.cfi_def_cfa_offset 32
	sw	s0,24(sp)
	sw	s1,20(sp)
	sw	s2,16(sp)
	sw	ra,28(sp)
	sw	s3,12(sp)
	.cfi_offset 8, -8
	.cfi_offset 9, -12
	.cfi_offset 18, -16
	.cfi_offset 1, -4
	.cfi_offset 19, -20
	.loc 1 590 5
	li	a5,192
	.loc 1 583 1
	mv	s2,a0
	mv	s0,a1
	mv	s1,a2
	.loc 1 590 5
	beq	a2,a5,.L29
	li	a5,256
	beq	a2,a5,.L30
	li	a5,128
	li	a0,-32
.LVL44:
	bne	a2,a5,.L28
	.loc 1 592 19 is_stmt 1
	.loc 1 592 27 is_stmt 0
	li	a5,10
.L48:
	.loc 1 599 23
	lui	s3,%hi(.LANCHOR11)
	addi	s3,s3,%lo(.LANCHOR11)
	.loc 1 594 27
	sw	a5,0(s2)
	.loc 1 594 33 is_stmt 1
	.loc 1 599 5
	.loc 1 599 7 is_stmt 0
	lw	a5,0(s3)
	bne	a5,zero,.L33
	.loc 1 601 9 is_stmt 1
	call	aes_gen_tables
.LVL45:
	.loc 1 602 9
	.loc 1 602 23 is_stmt 0
	li	a5,1
	sw	a5,0(s3)
.L33:
	.loc 1 614 5 is_stmt 1
	.loc 1 621 31 is_stmt 0
	srli	s1,s1,5
.LVL46:
	.loc 1 614 18
	addi	a5,s2,8
.LVL47:
	slli	s1,s1,2
	.loc 1 614 13
	sw	a5,4(s2)
	.loc 1 621 5 is_stmt 1
.LVL48:
	mv	a1,s0
	mv	a3,a5
	add	s1,s0,s1
.LVL49:
.L34:
	.loc 1 621 17 discriminator 1
	.loc 1 621 5 is_stmt 0 discriminator 1
	bne	s1,a1,.L35
	.loc 1 626 5 is_stmt 1
	.loc 1 626 16 is_stmt 0
	lw	a4,0(s2)
	.loc 1 626 5
	li	a3,12
	beq	a4,a3,.L36
	li	a3,14
	beq	a4,a3,.L37
	li	a3,10
	li	a0,0
	bne	a4,a3,.L28
	lui	a1,%hi(.LANCHOR0)
	.loc 1 633 33
	lui	a2,%hi(.LANCHOR1)
	addi	a1,a1,%lo(.LANCHOR0)
	addi	s2,s2,168
.LVL50:
	addi	a2,a2,%lo(.LANCHOR1)
.LVL51:
.L38:
	.loc 1 632 17 is_stmt 1 discriminator 3
	.loc 1 633 39 is_stmt 0 discriminator 3
	lw	a3,12(a5)
	.loc 1 635 68 discriminator 3
	lw	a6,0(a1)
	lw	a0,0(a5)
	.loc 1 633 43 discriminator 3
	srli	a4,a3,8
	.loc 1 633 50 discriminator 3
	andi	a4,a4,255
	.loc 1 633 33 discriminator 3
	add	a4,a2,a4
	.loc 1 633 19 discriminator 3
	lbu	a4,0(a4)
	.loc 1 635 68 discriminator 3
	xor	a0,a0,a6
	.loc 1 630 13 discriminator 3
	addi	a1,a1,4
	.loc 1 635 68 discriminator 3
	xor	a4,a4,a0
	.loc 1 635 43 discriminator 3
	srli	a0,a3,24
	.loc 1 635 33 discriminator 3
	add	a0,a2,a0
	.loc 1 635 19 discriminator 3
	lbu	a0,0(a0)
	.loc 1 635 60 discriminator 3
	slli	a0,a0,16
	.loc 1 635 68 discriminator 3
	xor	a4,a4,a0
	.loc 1 636 45 discriminator 3
	andi	a0,a3,255
	.loc 1 636 33 discriminator 3
	add	a0,a2,a0
	.loc 1 636 19 discriminator 3
	lbu	a0,0(a0)
	.loc 1 636 54 discriminator 3
	slli	a0,a0,24
	.loc 1 635 68 discriminator 3
	xor	a4,a4,a0
	.loc 1 634 43 discriminator 3
	srli	a0,a3,16
	.loc 1 634 51 discriminator 3
	andi	a0,a0,255
	.loc 1 634 33 discriminator 3
	add	a0,a2,a0
	.loc 1 634 19 discriminator 3
	lbu	a0,0(a0)
	.loc 1 634 60 discriminator 3
	slli	a0,a0,8
	.loc 1 635 68 discriminator 3
	xor	a4,a4,a0
	.loc 1 638 31 discriminator 3
	lw	a0,4(a5)
	.loc 1 632 23 discriminator 3
	sw	a4,16(a5)
	.loc 1 638 17 is_stmt 1 discriminator 3
	.loc 1 638 31 is_stmt 0 discriminator 3
	xor	a4,a4,a0
	.loc 1 639 31 discriminator 3
	lw	a0,8(a5)
	.loc 1 638 23 discriminator 3
	sw	a4,20(a5)
	.loc 1 639 17 is_stmt 1 discriminator 3
	.loc 1 630 41 is_stmt 0 discriminator 3
	addi	a5,a5,16
.LVL52:
	.loc 1 639 31 discriminator 3
	xor	a4,a4,a0
	.loc 1 639 23 discriminator 3
	sw	a4,8(a5)
	.loc 1 640 17 is_stmt 1 discriminator 3
	.loc 1 640 31 is_stmt 0 discriminator 3
	xor	a4,a3,a4
	.loc 1 640 23 discriminator 3
	sw	a4,12(a5)
	.loc 1 630 33 is_stmt 1 discriminator 3
.LVL53:
	.loc 1 630 25 discriminator 3
	.loc 1 630 13 is_stmt 0 discriminator 3
	bne	a5,s2,.L38
.LVL54:
.L40:
	.loc 1 689 11
	li	a0,0
.LVL55:
.L28:
	.loc 1 690 1
	lw	ra,28(sp)
	.cfi_remember_state
	.cfi_restore 1
	lw	s0,24(sp)
	.cfi_restore 8
.LVL56:
	lw	s1,20(sp)
	.cfi_restore 9
	lw	s2,16(sp)
	.cfi_restore 18
	lw	s3,12(sp)
	.cfi_restore 19
	addi	sp,sp,32
	.cfi_def_cfa_offset 0
	jr	ra
.LVL57:
.L29:
	.cfi_restore_state
	.loc 1 593 19 is_stmt 1
	.loc 1 593 27 is_stmt 0
	li	a5,12
	j	.L48
.L30:
	.loc 1 594 19 is_stmt 1
	.loc 1 594 27 is_stmt 0
	li	a5,14
	j	.L48
.LVL58:
.L35:
	.loc 1 623 11 is_stmt 1 discriminator 3
	.loc 1 623 57 is_stmt 0 discriminator 3
	lbu	a4,1(a1)
	.loc 1 623 99 discriminator 3
	lbu	a2,2(a1)
	addi	a1,a1,4
	.loc 1 623 88 discriminator 3
	slli	a4,a4,8
	.loc 1 623 130 discriminator 3
	slli	a2,a2,16
	.loc 1 623 95 discriminator 3
	or	a4,a4,a2
	.loc 1 623 23 discriminator 3
	lbu	a2,-4(a1)
	.loc 1 623 95 discriminator 3
	or	a4,a4,a2
	.loc 1 623 142 discriminator 3
	lbu	a2,-1(a1)
	.loc 1 623 173 discriminator 3
	slli	a2,a2,24
	.loc 1 623 138 discriminator 3
	or	a4,a4,a2
	.loc 1 623 19 discriminator 3
	sw	a4,0(a3)
	.loc 1 623 183 is_stmt 1 discriminator 3
	.loc 1 621 39 discriminator 3
	addi	a3,a3,4
	j	.L34
.L36:
	lui	a1,%hi(.LANCHOR0)
	.loc 1 649 33 is_stmt 0
	lui	a2,%hi(.LANCHOR1)
	addi	a1,a1,%lo(.LANCHOR0)
	addi	s2,s2,200
.LVL59:
	addi	a2,a2,%lo(.LANCHOR1)
.LVL60:
.L39:
	.loc 1 648 17 is_stmt 1 discriminator 3
	.loc 1 649 39 is_stmt 0 discriminator 3
	lw	a3,20(a5)
	.loc 1 651 68 discriminator 3
	lw	a6,0(a1)
	lw	a0,0(a5)
	.loc 1 649 43 discriminator 3
	srli	a4,a3,8
	.loc 1 649 50 discriminator 3
	andi	a4,a4,255
	.loc 1 649 33 discriminator 3
	add	a4,a2,a4
	.loc 1 649 19 discriminator 3
	lbu	a4,0(a4)
	.loc 1 651 68 discriminator 3
	xor	a0,a0,a6
	.loc 1 646 13 discriminator 3
	addi	a1,a1,4
	.loc 1 651 68 discriminator 3
	xor	a4,a4,a0
	.loc 1 651 43 discriminator 3
	srli	a0,a3,24
	.loc 1 651 33 discriminator 3
	add	a0,a2,a0
	.loc 1 651 19 discriminator 3
	lbu	a0,0(a0)
	.loc 1 651 60 discriminator 3
	slli	a0,a0,16
	.loc 1 651 68 discriminator 3
	xor	a4,a4,a0
	.loc 1 652 45 discriminator 3
	andi	a0,a3,255
	.loc 1 652 33 discriminator 3
	add	a0,a2,a0
	.loc 1 652 19 discriminator 3
	lbu	a0,0(a0)
	.loc 1 652 54 discriminator 3
	slli	a0,a0,24
	.loc 1 651 68 discriminator 3
	xor	a4,a4,a0
	.loc 1 650 43 discriminator 3
	srli	a0,a3,16
	.loc 1 650 51 discriminator 3
	andi	a0,a0,255
	.loc 1 650 33 discriminator 3
	add	a0,a2,a0
	.loc 1 650 19 discriminator 3
	lbu	a0,0(a0)
	.loc 1 650 60 discriminator 3
	slli	a0,a0,8
	.loc 1 651 68 discriminator 3
	xor	a4,a4,a0
	.loc 1 654 31 discriminator 3
	lw	a0,4(a5)
	.loc 1 648 23 discriminator 3
	sw	a4,24(a5)
	.loc 1 654 17 is_stmt 1 discriminator 3
	.loc 1 654 31 is_stmt 0 discriminator 3
	xor	a4,a4,a0
	.loc 1 655 31 discriminator 3
	lw	a0,8(a5)
	.loc 1 654 23 discriminator 3
	sw	a4,28(a5)
	.loc 1 655 17 is_stmt 1 discriminator 3
	.loc 1 655 31 is_stmt 0 discriminator 3
	xor	a4,a4,a0
	.loc 1 656 31 discriminator 3
	lw	a0,12(a5)
	.loc 1 655 23 discriminator 3
	sw	a4,32(a5)
	.loc 1 656 17 is_stmt 1 discriminator 3
	.loc 1 656 31 is_stmt 0 discriminator 3
	xor	a4,a4,a0
	.loc 1 657 32 discriminator 3
	lw	a0,16(a5)
	.loc 1 656 23 discriminator 3
	sw	a4,36(a5)
	.loc 1 657 17 is_stmt 1 discriminator 3
	.loc 1 646 40 is_stmt 0 discriminator 3
	addi	a5,a5,24
.LVL61:
	.loc 1 657 32 discriminator 3
	xor	a4,a4,a0
	.loc 1 657 24 discriminator 3
	sw	a4,16(a5)
	.loc 1 658 17 is_stmt 1 discriminator 3
	.loc 1 658 32 is_stmt 0 discriminator 3
	xor	a4,a3,a4
	.loc 1 658 24 discriminator 3
	sw	a4,20(a5)
	.loc 1 646 32 is_stmt 1 discriminator 3
.LVL62:
	.loc 1 646 25 discriminator 3
	.loc 1 646 13 is_stmt 0 discriminator 3
	bne	a5,s2,.L39
	j	.L40
.LVL63:
.L37:
	lui	a0,%hi(.LANCHOR0)
	.loc 1 667 33
	lui	a2,%hi(.LANCHOR1)
	addi	a0,a0,%lo(.LANCHOR0)
	addi	s2,s2,232
.LVL64:
	addi	a2,a2,%lo(.LANCHOR1)
.LVL65:
.L41:
	.loc 1 666 17 is_stmt 1 discriminator 3
	.loc 1 667 39 is_stmt 0 discriminator 3
	lw	a1,28(a5)
	.loc 1 669 68 discriminator 3
	lw	a6,0(a0)
	lw	a3,0(a5)
	.loc 1 667 43 discriminator 3
	srli	a4,a1,8
	.loc 1 667 50 discriminator 3
	andi	a4,a4,255
	.loc 1 667 33 discriminator 3
	add	a4,a2,a4
	.loc 1 667 19 discriminator 3
	lbu	a4,0(a4)
	.loc 1 669 68 discriminator 3
	xor	a3,a3,a6
	.loc 1 679 69 discriminator 3
	lw	a6,16(a5)
	.loc 1 669 68 discriminator 3
	xor	a4,a4,a3
	.loc 1 669 43 discriminator 3
	srli	a3,a1,24
	.loc 1 669 33 discriminator 3
	add	a3,a2,a3
	.loc 1 669 19 discriminator 3
	lbu	a3,0(a3)
	.loc 1 664 13 discriminator 3
	addi	a0,a0,4
	.loc 1 669 60 discriminator 3
	slli	a3,a3,16
	.loc 1 669 68 discriminator 3
	xor	a4,a4,a3
	.loc 1 670 45 discriminator 3
	andi	a3,a1,255
	.loc 1 670 33 discriminator 3
	add	a3,a2,a3
	.loc 1 670 19 discriminator 3
	lbu	a3,0(a3)
	.loc 1 670 54 discriminator 3
	slli	a3,a3,24
	.loc 1 669 68 discriminator 3
	xor	a4,a4,a3
	.loc 1 668 43 discriminator 3
	srli	a3,a1,16
	.loc 1 668 51 discriminator 3
	andi	a3,a3,255
	.loc 1 668 33 discriminator 3
	add	a3,a2,a3
	.loc 1 668 19 discriminator 3
	lbu	a3,0(a3)
	.loc 1 668 60 discriminator 3
	slli	a3,a3,8
	.loc 1 669 68 discriminator 3
	xor	a4,a4,a3
	.loc 1 672 31 discriminator 3
	lw	a3,4(a5)
	.loc 1 666 23 discriminator 3
	sw	a4,32(a5)
	.loc 1 672 17 is_stmt 1 discriminator 3
	.loc 1 672 31 is_stmt 0 discriminator 3
	xor	a4,a4,a3
	.loc 1 673 32 discriminator 3
	lw	a3,8(a5)
	.loc 1 672 23 discriminator 3
	sw	a4,36(a5)
	.loc 1 673 17 is_stmt 1 discriminator 3
	.loc 1 673 32 is_stmt 0 discriminator 3
	xor	a4,a4,a3
	.loc 1 674 32 discriminator 3
	lw	a3,12(a5)
	.loc 1 673 24 discriminator 3
	sw	a4,40(a5)
	.loc 1 674 17 is_stmt 1 discriminator 3
	.loc 1 674 32 is_stmt 0 discriminator 3
	xor	a4,a4,a3
	.loc 1 677 46 discriminator 3
	andi	a3,a4,255
	.loc 1 674 24 discriminator 3
	sw	a4,44(a5)
	.loc 1 676 17 is_stmt 1 discriminator 3
	.loc 1 677 33 is_stmt 0 discriminator 3
	add	a3,a2,a3
	.loc 1 677 19 discriminator 3
	lbu	a3,0(a3)
	.loc 1 679 69 discriminator 3
	xor	a3,a3,a6
	.loc 1 680 44 discriminator 3
	srli	a6,a4,24
	.loc 1 680 33 discriminator 3
	add	a6,a2,a6
	.loc 1 680 19 discriminator 3
	lbu	a6,0(a6)
	.loc 1 680 61 discriminator 3
	slli	a6,a6,24
	.loc 1 679 69 discriminator 3
	xor	a3,a3,a6
	.loc 1 678 44 discriminator 3
	srli	a6,a4,8
	.loc 1 678 51 discriminator 3
	andi	a6,a6,255
	.loc 1 679 44 discriminator 3
	srli	a4,a4,16
	.loc 1 678 33 discriminator 3
	add	a6,a2,a6
	.loc 1 679 52 discriminator 3
	andi	a4,a4,255
	.loc 1 678 19 discriminator 3
	lbu	a6,0(a6)
	.loc 1 679 33 discriminator 3
	add	a4,a2,a4
	.loc 1 679 19 discriminator 3
	lbu	a4,0(a4)
	.loc 1 678 60 discriminator 3
	slli	a6,a6,8
	.loc 1 679 69 discriminator 3
	xor	a3,a3,a6
	.loc 1 679 61 discriminator 3
	slli	a4,a4,16
	.loc 1 679 69 discriminator 3
	xor	a4,a3,a4
	.loc 1 682 32 discriminator 3
	lw	a3,20(a5)
	.loc 1 676 24 discriminator 3
	sw	a4,48(a5)
	.loc 1 682 17 is_stmt 1 discriminator 3
	.loc 1 682 32 is_stmt 0 discriminator 3
	xor	a4,a4,a3
	.loc 1 683 32 discriminator 3
	lw	a3,24(a5)
	.loc 1 682 24 discriminator 3
	sw	a4,52(a5)
	.loc 1 683 17 is_stmt 1 discriminator 3
	.loc 1 664 40 is_stmt 0 discriminator 3
	addi	a5,a5,32
.LVL66:
	.loc 1 683 32 discriminator 3
	xor	a4,a4,a3
	.loc 1 683 24 discriminator 3
	sw	a4,24(a5)
	.loc 1 684 17 is_stmt 1 discriminator 3
	.loc 1 684 32 is_stmt 0 discriminator 3
	xor	a4,a1,a4
	.loc 1 684 24 discriminator 3
	sw	a4,28(a5)
	.loc 1 664 32 is_stmt 1 discriminator 3
.LVL67:
	.loc 1 664 25 discriminator 3
	.loc 1 664 13 is_stmt 0 discriminator 3
	bne	a5,s2,.L41
	j	.L40
	.cfi_endproc
.LFE7:
	.size	mbedtls_aes_setkey_enc, .-mbedtls_aes_setkey_enc
	.section	.text.mbedtls_aes_setkey_dec,"ax",@progbits
	.align	1
	.globl	mbedtls_aes_setkey_dec
	.type	mbedtls_aes_setkey_dec, @function
mbedtls_aes_setkey_dec:
.LFB8:
	.loc 1 699 1 is_stmt 1
	.cfi_startproc
.LVL68:
	.loc 1 700 5
	.loc 1 701 5
	.loc 1 702 5
	.loc 1 703 5
	.loc 1 705 5
	.loc 1 705 10
	.loc 1 705 17
	.loc 1 706 5
	.loc 1 706 10
	.loc 1 706 17
	.loc 1 708 5
	.loc 1 699 1 is_stmt 0
	addi	sp,sp,-336
	.cfi_def_cfa_offset 336
	sw	s0,328(sp)
	.cfi_offset 8, -8
	mv	s0,a0
	.loc 1 708 5
	addi	a0,sp,24
.LVL69:
	.loc 1 699 1
	sw	ra,332(sp)
	sw	s1,324(sp)
	sw	a1,12(sp)
	sw	a2,8(sp)
	sw	s2,320(sp)
	sw	s3,316(sp)
	.cfi_offset 1, -4
	.cfi_offset 9, -12
	.cfi_offset 18, -16
	.cfi_offset 19, -20
	.loc 1 708 5
	call	mbedtls_aes_init
.LVL70:
	.loc 1 718 5 is_stmt 1
	.loc 1 721 17 is_stmt 0
	lw	a2,8(sp)
	lw	a1,12(sp)
	.loc 1 718 18
	addi	a5,s0,8
.LVL71:
	.loc 1 718 13
	sw	a5,4(s0)
	.loc 1 721 5 is_stmt 1
	.loc 1 721 17 is_stmt 0
	addi	a0,sp,24
	call	mbedtls_aes_setkey_enc
.LVL72:
	mv	s1,a0
.LVL73:
	.loc 1 721 7
	bne	a0,zero,.L50
	.loc 1 724 5 is_stmt 1
	.loc 1 724 18 is_stmt 0
	lw	a6,24(sp)
	.loc 1 735 8
	lw	a4,28(sp)
	.loc 1 740 8
	addi	a2,s0,24
	.loc 1 735 17
	slli	t2,a6,4
	.loc 1 724 13
	sw	a6,0(s0)
	.loc 1 735 5 is_stmt 1
	.loc 1 735 8 is_stmt 0
	add	a4,a4,t2
.LVL74:
	.loc 1 737 5 is_stmt 1
	.loc 1 737 13 is_stmt 0
	lw	a5,0(a4)
	.loc 1 746 24
	lui	t4,%hi(.LANCHOR7)
	.loc 1 742 30
	addi	a4,a4,-16
.LVL75:
	.loc 1 737 11
	sw	a5,8(s0)
	.loc 1 738 5 is_stmt 1
.LVL76:
	.loc 1 738 13 is_stmt 0
	lw	a5,20(a4)
	.loc 1 746 28
	lui	a1,%hi(.LANCHOR1)
	.loc 1 749 24
	lui	t5,%hi(.LANCHOR10)
	.loc 1 738 11
	sw	a5,12(s0)
	.loc 1 739 5 is_stmt 1
.LVL77:
	.loc 1 739 13 is_stmt 0
	lw	a5,24(a4)
	.loc 1 747 24
	lui	t6,%hi(.LANCHOR8)
	.loc 1 748 24
	lui	t0,%hi(.LANCHOR9)
	.loc 1 739 11
	sw	a5,16(s0)
	.loc 1 740 5 is_stmt 1
.LVL78:
	.loc 1 740 13 is_stmt 0
	lw	a5,28(a4)
	.loc 1 740 8
	mv	t1,a2
	.loc 1 742 30
	mv	t3,a4
	.loc 1 740 11
	sw	a5,20(s0)
	.loc 1 742 5 is_stmt 1
	.loc 1 742 12 is_stmt 0
	addi	s0,a6,-1
.LVL79:
	mv	a0,s0
	.loc 1 746 24
	addi	t4,t4,%lo(.LANCHOR7)
	.loc 1 746 28
	addi	a1,a1,%lo(.LANCHOR1)
	.loc 1 749 24
	addi	t5,t5,%lo(.LANCHOR10)
	.loc 1 747 24
	addi	t6,t6,%lo(.LANCHOR8)
	.loc 1 748 24
	addi	t0,t0,%lo(.LANCHOR9)
	.loc 1 744 9
	li	ra,16
.LVL80:
.L51:
	.loc 1 742 36 is_stmt 1 discriminator 1
	.loc 1 742 5 is_stmt 0 discriminator 1
	bgt	a0,zero,.L57
	li	a5,0
	ble	a6,zero,.L54
	addi	a5,t2,-16
.L54:
	add	a5,a2,a5
	li	a3,0
	ble	a6,zero,.L56
	li	a3,-16
	mul	a3,s0,a3
.L56:
	add	a4,a4,a3
	.loc 1 753 5 is_stmt 1
.LVL81:
	.loc 1 753 13 is_stmt 0
	lw	a3,0(a4)
	.loc 1 753 11
	sw	a3,0(a5)
	.loc 1 754 5 is_stmt 1
.LVL82:
	.loc 1 754 13 is_stmt 0
	lw	a3,4(a4)
	.loc 1 754 11
	sw	a3,4(a5)
	.loc 1 755 5 is_stmt 1
.LVL83:
	.loc 1 755 13 is_stmt 0
	lw	a3,8(a4)
	.loc 1 755 11
	sw	a3,8(a5)
	.loc 1 756 5 is_stmt 1
.LVL84:
	.loc 1 756 13 is_stmt 0
	lw	a4,12(a4)
.LVL85:
	.loc 1 756 11
	sw	a4,12(a5)
.LVL86:
.L50:
	.loc 1 759 5 is_stmt 1
	addi	a0,sp,24
	call	mbedtls_aes_free
.LVL87:
	.loc 1 761 5
	.loc 1 762 1 is_stmt 0
	lw	ra,332(sp)
	.cfi_remember_state
	.cfi_restore 1
	lw	s0,328(sp)
	.cfi_restore 8
	lw	s2,320(sp)
	.cfi_restore 18
	lw	s3,316(sp)
	.cfi_restore 19
	mv	a0,s1
	lw	s1,324(sp)
	.cfi_restore 9
.LVL88:
	addi	sp,sp,336
	.cfi_def_cfa_offset 0
.LVL89:
	jr	ra
.LVL90:
.L57:
	.cfi_restore_state
	li	a7,0
.LVL91:
.L52:
	.loc 1 746 13 is_stmt 1 discriminator 3
	.loc 1 746 32 is_stmt 0 discriminator 3
	add	a5,t3,a7
.LVL92:
	lw	a5,0(a5)
.LVL93:
	.loc 1 746 19 discriminator 3
	add	s2,t1,a7
	.loc 1 744 9 discriminator 3
	addi	a7,a7,4
.LVL94:
	.loc 1 746 38 discriminator 3
	andi	a3,a5,255
	.loc 1 749 36 discriminator 3
	srli	s3,a5,24
	.loc 1 746 28 discriminator 3
	add	a3,a1,a3
	.loc 1 749 28 discriminator 3
	add	s3,a1,s3
	.loc 1 746 28 discriminator 3
	lbu	a3,0(a3)
	.loc 1 749 28 discriminator 3
	lbu	s3,0(s3)
	.loc 1 746 24 discriminator 3
	slli	a3,a3,2
	.loc 1 749 24 discriminator 3
	slli	s3,s3,2
	.loc 1 746 24 discriminator 3
	add	a3,t4,a3
	.loc 1 749 24 discriminator 3
	add	s3,t5,s3
	.loc 1 748 54 discriminator 3
	lw	s3,0(s3)
	lw	a3,0(a3)
	xor	a3,a3,s3
	.loc 1 747 36 discriminator 3
	srli	s3,a5,8
	.loc 1 747 43 discriminator 3
	andi	s3,s3,255
	.loc 1 748 36 discriminator 3
	srli	a5,a5,16
	.loc 1 747 28 discriminator 3
	add	s3,a1,s3
	.loc 1 748 44 discriminator 3
	andi	a5,a5,255
	.loc 1 747 28 discriminator 3
	lbu	s3,0(s3)
	.loc 1 748 28 discriminator 3
	add	a5,a1,a5
	lbu	a5,0(a5)
	.loc 1 747 24 discriminator 3
	slli	s3,s3,2
	add	s3,t6,s3
	.loc 1 748 24 discriminator 3
	slli	a5,a5,2
	.loc 1 748 54 discriminator 3
	lw	s3,0(s3)
	.loc 1 748 24 discriminator 3
	add	a5,t0,a5
	.loc 1 748 54 discriminator 3
	lw	a5,0(a5)
	xor	a3,a3,s3
	xor	a3,a3,a5
	.loc 1 746 19 discriminator 3
	sw	a3,0(s2)
	.loc 1 744 28 is_stmt 1 discriminator 3
.LVL95:
	.loc 1 744 21 discriminator 3
	.loc 1 744 9 is_stmt 0 discriminator 3
	bne	a7,ra,.L52
	.loc 1 746 16 discriminator 2
	addi	t1,t1,16
.LVL96:
	.loc 1 742 43 is_stmt 1 discriminator 2
	.loc 1 742 44 is_stmt 0 discriminator 2
	addi	a0,a0,-1
.LVL97:
	addi	t3,t3,-16
.LVL98:
	j	.L51
	.cfi_endproc
.LFE8:
	.size	mbedtls_aes_setkey_dec, .-mbedtls_aes_setkey_dec
	.section	.text.mbedtls_internal_aes_encrypt,"ax",@progbits
	.align	1
	.globl	mbedtls_internal_aes_encrypt
	.type	mbedtls_internal_aes_encrypt, @function
mbedtls_internal_aes_encrypt:
.LFB9:
	.loc 1 897 1 is_stmt 1
	.cfi_startproc
.LVL99:
	.loc 1 898 5
	.loc 1 899 5
	.loc 1 897 1 is_stmt 0
	addi	sp,sp,-64
	.cfi_def_cfa_offset 64
	sw	ra,60(sp)
	sw	s0,56(sp)
	sw	s1,52(sp)
	sw	s2,48(sp)
	sw	s3,44(sp)
	sw	s4,40(sp)
	sw	s5,36(sp)
	.cfi_offset 1, -4
	.cfi_offset 8, -8
	.cfi_offset 9, -12
	.cfi_offset 18, -16
	.cfi_offset 19, -20
	.cfi_offset 20, -24
	.cfi_offset 21, -28
	.loc 1 906 126
	lbu	a3,1(a1)
	lbu	a5,0(a1)
	.loc 1 899 15
	lw	a4,4(a0)
.LVL100:
	.loc 1 900 5 is_stmt 1
	.loc 1 906 7
	.loc 1 906 126 is_stmt 0
	slli	a3,a3,8
	or	a3,a3,a5
	lbu	a5,2(a1)
	.loc 1 909 187
	addi	t2,a4,16
	.loc 1 913 36
	lui	t4,%hi(.LANCHOR3)
	.loc 1 906 126
	slli	a5,a5,16
	or	a3,a5,a3
	lbu	a5,3(a1)
	.loc 1 913 128
	lui	t3,%hi(.LANCHOR6)
	.loc 1 913 63
	lui	t1,%hi(.LANCHOR4)
	.loc 1 906 126
	slli	a5,a5,24
	or	a5,a5,a3
	.loc 1 906 16
	sw	a5,0(sp)
	.loc 1 906 168 is_stmt 1
	.loc 1 906 170
.LVL101:
	.loc 1 906 177 is_stmt 0
	lw	a3,0(a4)
	.loc 1 913 95
	lui	a7,%hi(.LANCHOR5)
	.loc 1 909 187
	mv	t5,t2
	.loc 1 906 177
	xor	a5,a3,a5
	.loc 1 907 126
	lbu	a3,5(a1)
	.loc 1 906 177
	sw	a5,0(sp)
	.loc 1 907 7 is_stmt 1
	.loc 1 907 126 is_stmt 0
	lbu	a5,4(a1)
	slli	a3,a3,8
	.loc 1 913 36
	addi	t4,t4,%lo(.LANCHOR3)
	.loc 1 907 126
	or	a3,a3,a5
	lbu	a5,6(a1)
	.loc 1 913 128
	addi	t3,t3,%lo(.LANCHOR6)
	.loc 1 913 63
	addi	t1,t1,%lo(.LANCHOR4)
	.loc 1 907 126
	slli	a5,a5,16
	or	a3,a5,a3
	lbu	a5,7(a1)
	.loc 1 913 95
	addi	a7,a7,%lo(.LANCHOR5)
	.loc 1 907 126
	slli	a5,a5,24
	or	a5,a5,a3
	.loc 1 907 16
	sw	a5,4(sp)
	.loc 1 907 168 is_stmt 1
	.loc 1 907 170
.LVL102:
	.loc 1 907 177 is_stmt 0
	lw	a3,4(a4)
	xor	a5,a3,a5
	.loc 1 908 126
	lbu	a3,9(a1)
	.loc 1 907 177
	sw	a5,4(sp)
	.loc 1 908 7 is_stmt 1
	.loc 1 908 126 is_stmt 0
	lbu	a5,8(a1)
	slli	a3,a3,8
	or	a3,a3,a5
	lbu	a5,10(a1)
	slli	a5,a5,16
	or	a3,a5,a3
	lbu	a5,11(a1)
	slli	a5,a5,24
	or	a5,a5,a3
	.loc 1 908 16
	sw	a5,8(sp)
	.loc 1 908 168 is_stmt 1
	.loc 1 908 170
.LVL103:
	.loc 1 908 177 is_stmt 0
	lw	a3,8(a4)
	xor	a5,a3,a5
	.loc 1 909 129
	lbu	a3,13(a1)
	.loc 1 908 177
	sw	a5,8(sp)
	.loc 1 909 7 is_stmt 1
	.loc 1 909 129 is_stmt 0
	lbu	a5,12(a1)
	slli	a3,a3,8
	or	a3,a3,a5
	lbu	a5,14(a1)
	slli	a5,a5,16
	or	a3,a5,a3
	lbu	a5,15(a1)
	.loc 1 911 24
	lw	t6,0(a0)
	.loc 1 909 129
	slli	a5,a5,24
	or	a5,a5,a3
	.loc 1 909 16
	sw	a5,12(sp)
	.loc 1 909 172 is_stmt 1
	.loc 1 909 174
.LVL104:
	.loc 1 909 181 is_stmt 0
	lw	a4,12(a4)
	.loc 1 911 24
	srai	t6,t6,1
	.loc 1 911 12
	addi	ra,t6,-1
	.loc 1 909 181
	xor	a5,a4,a5
	sw	a5,12(sp)
	.loc 1 911 5 is_stmt 1
.LVL105:
	.loc 1 911 12 is_stmt 0
	mv	t0,ra
.LVL106:
.L61:
	.loc 1 911 36 is_stmt 1 discriminator 1
	.loc 1 913 43 is_stmt 0 discriminator 1
	lw	s4,0(sp)
	.loc 1 913 135 discriminator 1
	lw	a6,12(sp)
	.loc 1 913 70 discriminator 1
	lw	a5,4(sp)
	.loc 1 913 50 discriminator 1
	andi	a4,s4,255
	.loc 1 913 140 discriminator 1
	srli	a3,a6,24
	.loc 1 913 36 discriminator 1
	slli	a4,a4,2
	.loc 1 913 128 discriminator 1
	slli	a3,a3,2
	.loc 1 913 36 discriminator 1
	add	a4,t4,a4
	.loc 1 913 128 discriminator 1
	add	a3,t3,a3
	.loc 1 913 123 discriminator 1
	lw	a3,0(a3)
	lw	a4,0(a4)
	.loc 1 913 102 discriminator 1
	lw	s0,8(sp)
	.loc 1 913 479 discriminator 1
	andi	s3,a6,255
	.loc 1 913 123 discriminator 1
	xor	a4,a4,a3
	.loc 1 913 82 discriminator 1
	srli	a3,a5,6
	.loc 1 913 63 discriminator 1
	andi	a3,a3,1020
	add	a3,t1,a3
	.loc 1 913 123 discriminator 1
	lw	a3,0(a3)
	.loc 1 913 465 discriminator 1
	slli	s3,s3,2
	add	s3,t4,s3
	.loc 1 913 123 discriminator 1
	xor	a4,a4,a3
	.loc 1 913 115 discriminator 1
	srli	a3,s0,14
	.loc 1 913 95 discriminator 1
	andi	a3,a3,1020
	add	a3,a7,a3
	.loc 1 913 123 discriminator 1
	lw	a3,0(a3)
	lw	s3,0(s3)
	.loc 1 913 426 discriminator 1
	srli	s5,a5,24
	.loc 1 913 123 discriminator 1
	xor	a4,a4,a3
	lw	a3,0(t5)
	.loc 1 913 414 discriminator 1
	slli	s5,s5,2
	add	s5,t3,s5
	.loc 1 913 123 discriminator 1
	xor	a4,a4,a3
	.loc 1 913 569 discriminator 1
	srli	a3,s0,24
	.loc 1 913 557 discriminator 1
	slli	a3,a3,2
	add	a3,t3,a3
	lw	a3,0(a3)
	lw	s5,0(s5)
	.loc 1 914 393 discriminator 1
	srli	a1,a4,16
	xor	s3,s3,a3
	.loc 1 913 511 discriminator 1
	srli	a3,s4,6
	.loc 1 913 492 discriminator 1
	andi	a3,a3,1020
	add	a3,t1,a3
	lw	a3,0(a3)
	.loc 1 914 504 discriminator 1
	srli	a0,a4,8
	.loc 1 914 50 discriminator 1
	andi	s2,a4,255
	xor	s3,s3,a3
	.loc 1 913 544 discriminator 1
	srli	a3,a5,14
	.loc 1 913 524 discriminator 1
	andi	a3,a3,1020
	add	a3,a7,a3
	lw	a3,0(a3)
	.loc 1 913 193 discriminator 1
	andi	a5,a5,255
	.loc 1 913 179 discriminator 1
	slli	a5,a5,2
	xor	s3,s3,a3
	.loc 1 913 336 discriminator 1
	andi	a3,s0,255
	.loc 1 913 322 discriminator 1
	slli	a3,a3,2
	add	a3,t4,a3
	lw	a3,0(a3)
	.loc 1 913 225 discriminator 1
	srli	s0,s0,6
	.loc 1 913 179 discriminator 1
	add	a5,t4,a5
	xor	a3,a3,s5
	.loc 1 913 368 discriminator 1
	srli	s5,a6,6
	.loc 1 913 349 discriminator 1
	andi	s5,s5,1020
	add	s5,t1,s5
	lw	s5,0(s5)
	.loc 1 913 206 discriminator 1
	andi	s0,s0,1020
	.loc 1 913 258 discriminator 1
	srli	a6,a6,14
	xor	a3,a3,s5
	.loc 1 913 401 discriminator 1
	srli	s5,s4,14
	.loc 1 913 283 discriminator 1
	srli	s4,s4,24
	.loc 1 913 271 discriminator 1
	slli	s4,s4,2
	add	s4,t3,s4
	lw	a5,0(a5)
	lw	s4,0(s4)
	.loc 1 913 381 discriminator 1
	andi	s5,s5,1020
	.loc 1 913 206 discriminator 1
	add	s0,t1,s0
	.loc 1 913 238 discriminator 1
	andi	a6,a6,1020
	lw	s0,0(s0)
	.loc 1 913 381 discriminator 1
	add	s5,a7,s5
	.loc 1 913 238 discriminator 1
	add	a6,a7,a6
	lw	s5,0(s5)
	lw	a6,0(a6)
	xor	a5,a5,s4
	xor	a5,a5,s0
	.loc 1 914 283 discriminator 1
	srli	s1,a4,24
	.loc 1 914 401 discriminator 1
	andi	a1,a1,255
	.loc 1 914 511 discriminator 1
	andi	a0,a0,255
	xor	a3,a3,s5
	xor	a5,a5,a6
	.loc 1 911 5 discriminator 1
	bgt	t0,zero,.L62
	li	a6,0
	ble	t6,zero,.L64
	slli	a6,ra,5
.L64:
	add	t2,t2,a6
	.loc 1 917 5 is_stmt 1
	.loc 1 917 10
.LVL107:
	.loc 1 917 19 is_stmt 0
	sw	a4,16(sp)
	.loc 1 917 153 is_stmt 1
.LVL108:
	.loc 1 917 262 is_stmt 0
	lw	a4,4(t2)
	xor	a5,a5,a4
	.loc 1 917 162
	sw	a5,20(sp)
	.loc 1 917 296 is_stmt 1
.LVL109:
	.loc 1 917 405 is_stmt 0
	lw	t1,8(t2)
	.loc 1 923 29
	lui	a4,%hi(.LANCHOR1)
	addi	a4,a4,%lo(.LANCHOR1)
	.loc 1 917 405
	xor	t1,a3,t1
	.loc 1 917 305
	sw	t1,24(sp)
	.loc 1 917 439 is_stmt 1
.LVL110:
	.loc 1 917 548 is_stmt 0
	lw	a3,12(t2)
	.loc 1 920 29
	add	s2,a4,s2
	.loc 1 929 29
	add	s1,a4,s1
	.loc 1 917 548
	xor	s3,s3,a3
	.loc 1 923 40
	srli	a3,s3,24
	.loc 1 917 448
	sw	s3,28(sp)
	.loc 1 917 589 is_stmt 1
	.loc 1 919 5
.LVL111:
	.loc 1 923 29 is_stmt 0
	add	a3,a4,a3
	.loc 1 922 65
	lw	a6,16(t2)
	.loc 1 923 15
	lbu	a7,0(a3)
	.loc 1 920 15
	lbu	a3,0(s2)
	.loc 1 934 29
	add	a1,a4,a1
	.loc 1 923 57
	slli	a7,a7,24
	.loc 1 922 65
	xor	a3,a3,a6
	xor	a7,a7,a3
	.loc 1 921 40
	srli	a3,a5,8
	.loc 1 921 47
	andi	a3,a3,255
	.loc 1 921 29
	add	a3,a4,a3
	.loc 1 921 15
	lbu	a3,0(a3)
	.loc 1 929 15
	lbu	a6,0(s1)
	.loc 1 934 15
	lbu	a1,0(a1)
	.loc 1 921 56
	slli	a3,a3,8
	.loc 1 922 65
	xor	a7,a7,a3
	.loc 1 922 40
	srli	a3,t1,16
	.loc 1 922 48
	andi	a3,a3,255
	.loc 1 922 29
	add	a3,a4,a3
	.loc 1 922 15
	lbu	a3,0(a3)
	.loc 1 929 57
	slli	a6,a6,24
	.loc 1 934 57
	slli	a1,a1,16
	.loc 1 922 57
	slli	a3,a3,16
	.loc 1 922 65
	xor	a7,a7,a3
	.loc 1 928 65
	lw	a3,20(t2)
	.loc 1 939 29
	add	a0,a4,a0
	.loc 1 919 12
	sw	a7,0(sp)
	.loc 1 925 5 is_stmt 1
.LVL112:
	.loc 1 928 65 is_stmt 0
	xor	a6,a6,a3
	.loc 1 926 42
	andi	a3,a5,255
	.loc 1 926 29
	add	a3,a4,a3
	.loc 1 926 15
	lbu	a3,0(a3)
	.loc 1 928 65
	xor	a6,a6,a3
	.loc 1 927 40
	srli	a3,t1,8
	.loc 1 927 47
	andi	a3,a3,255
	.loc 1 927 29
	add	a3,a4,a3
	.loc 1 927 15
	lbu	a3,0(a3)
	.loc 1 927 56
	slli	a3,a3,8
	.loc 1 928 65
	xor	a6,a6,a3
	.loc 1 928 40
	srli	a3,s3,16
	.loc 1 928 48
	andi	a3,a3,255
	.loc 1 928 29
	add	a3,a4,a3
	.loc 1 928 15
	lbu	a3,0(a3)
	.loc 1 928 57
	slli	a3,a3,16
	.loc 1 928 65
	xor	a6,a6,a3
	.loc 1 934 65
	lw	a3,24(t2)
	.loc 1 925 12
	sw	a6,4(sp)
	.loc 1 931 5 is_stmt 1
.LVL113:
	.loc 1 934 65 is_stmt 0
	xor	a1,a1,a3
	.loc 1 932 42
	andi	a3,t1,255
	.loc 1 932 29
	add	a3,a4,a3
	.loc 1 932 15
	lbu	a3,0(a3)
	.loc 1 934 65
	xor	a1,a1,a3
	.loc 1 935 40
	srli	a3,a5,24
	.loc 1 935 29
	add	a3,a4,a3
	.loc 1 935 15
	lbu	a3,0(a3)
	.loc 1 940 40
	srli	a5,a5,16
	.loc 1 940 48
	andi	a5,a5,255
	.loc 1 935 57
	slli	a3,a3,24
	.loc 1 934 65
	xor	a1,a1,a3
	.loc 1 933 40
	srli	a3,s3,8
	.loc 1 933 47
	andi	a3,a3,255
	.loc 1 933 29
	add	a3,a4,a3
	.loc 1 933 15
	lbu	a3,0(a3)
	.loc 1 938 42
	andi	s3,s3,255
	.loc 1 938 29
	add	s3,a4,s3
	.loc 1 933 56
	slli	a3,a3,8
	.loc 1 934 65
	xor	a1,a1,a3
	.loc 1 939 15
	lbu	a3,0(a0)
	.loc 1 940 65
	lw	a0,28(t2)
	.loc 1 931 12
	sw	a1,8(sp)
	.loc 1 937 5 is_stmt 1
.LVL114:
	.loc 1 939 56 is_stmt 0
	slli	a3,a3,8
	.loc 1 940 65
	xor	a3,a3,a0
	.loc 1 938 15
	lbu	a0,0(s3)
	.loc 1 940 65
	xor	a3,a3,a0
	.loc 1 941 40
	srli	a0,t1,24
	.loc 1 941 29
	add	a0,a4,a0
	.loc 1 941 15
	lbu	a0,0(a0)
	.loc 1 940 29
	add	a4,a4,a5
	.loc 1 940 15
	lbu	a5,0(a4)
	.loc 1 941 57
	slli	a0,a0,24
	.loc 1 940 65
	xor	a3,a3,a0
	.loc 1 940 57
	slli	a5,a5,16
	.loc 1 940 65
	xor	a5,a3,a5
	.loc 1 937 12
	sw	a5,12(sp)
	.loc 1 943 7 is_stmt 1
	.loc 1 943 24 is_stmt 0
	sb	a7,0(a2)
	.loc 1 943 65 is_stmt 1
	.loc 1 943 114 is_stmt 0
	srli	a4,a7,8
	.loc 1 943 85
	sb	a4,1(a2)
	.loc 1 943 131 is_stmt 1
	.loc 1 943 180 is_stmt 0
	srli	a4,a7,16
	.loc 1 943 151
	sb	a4,2(a2)
	.loc 1 943 198 is_stmt 1
	.loc 1 944 114 is_stmt 0
	srli	a4,a6,8
	.loc 1 944 85
	sb	a4,5(a2)
	.loc 1 944 180
	srli	a4,a6,16
	.loc 1 944 151
	sb	a4,6(a2)
	.loc 1 945 114
	srli	a4,a1,8
	.loc 1 945 85
	sb	a4,9(a2)
	.loc 1 945 180
	srli	a4,a1,16
	.loc 1 945 151
	sb	a4,10(a2)
	.loc 1 946 116
	srli	a4,a5,8
	.loc 1 943 247
	srli	a7,a7,24
	.loc 1 944 24
	sb	a6,4(a2)
	.loc 1 945 24
	sb	a1,8(a2)
	.loc 1 944 247
	srli	a6,a6,24
	.loc 1 945 247
	srli	a1,a1,24
	.loc 1 946 25
	sb	a5,12(a2)
	.loc 1 946 87
	sb	a4,13(a2)
	.loc 1 946 183
	srli	a4,a5,16
	.loc 1 946 251
	srli	a5,a5,24
	.loc 1 948 5
	mv	a0,sp
	.loc 1 945 218
	sb	a1,11(a2)
	.loc 1 943 218
	sb	a7,3(a2)
	.loc 1 943 266 is_stmt 1
	.loc 1 944 7
	.loc 1 944 65
	.loc 1 944 131
	.loc 1 944 198
	.loc 1 944 218 is_stmt 0
	sb	a6,7(a2)
	.loc 1 944 266 is_stmt 1
	.loc 1 945 7
	.loc 1 945 65
	.loc 1 945 131
	.loc 1 945 198
	.loc 1 945 266
	.loc 1 946 7
	.loc 1 946 66
	.loc 1 946 133
	.loc 1 946 154 is_stmt 0
	sb	a4,14(a2)
	.loc 1 946 201 is_stmt 1
	.loc 1 946 222 is_stmt 0
	sb	a5,15(a2)
	.loc 1 946 270 is_stmt 1
	.loc 1 948 5
	li	a1,32
	call	mbedtls_platform_zeroize
.LVL115:
	.loc 1 950 5
	.loc 1 951 1 is_stmt 0
	lw	ra,60(sp)
	.cfi_remember_state
	.cfi_restore 1
	lw	s0,56(sp)
	.cfi_restore 8
	lw	s1,52(sp)
	.cfi_restore 9
	lw	s2,48(sp)
	.cfi_restore 18
	lw	s3,44(sp)
	.cfi_restore 19
	lw	s4,40(sp)
	.cfi_restore 20
	lw	s5,36(sp)
	.cfi_restore 21
	li	a0,0
	addi	sp,sp,64
	.cfi_def_cfa_offset 0
	jr	ra
.LVL116:
.L62:
	.cfi_restore_state
	.loc 1 913 9 is_stmt 1 discriminator 3
	.loc 1 913 14 discriminator 3
	.loc 1 913 23 is_stmt 0 discriminator 3
	sw	a4,16(sp)
	.loc 1 913 157 is_stmt 1 discriminator 3
.LVL117:
	.loc 1 913 266 is_stmt 0 discriminator 3
	lw	a4,4(t5)
	.loc 1 914 36 discriminator 3
	slli	s2,s2,2
	add	s2,t4,s2
	.loc 1 913 266 discriminator 3
	xor	a5,a5,a4
	.loc 1 913 166 discriminator 3
	sw	a5,20(sp)
	.loc 1 913 300 is_stmt 1 discriminator 3
.LVL118:
	.loc 1 913 409 is_stmt 0 discriminator 3
	lw	a4,8(t5)
	.loc 1 914 123 discriminator 3
	lw	s0,0(s2)
	.loc 1 914 271 discriminator 3
	slli	s1,s1,2
	.loc 1 913 409 discriminator 3
	xor	a4,a3,a4
	.loc 1 913 309 discriminator 3
	sw	a4,24(sp)
	.loc 1 913 443 is_stmt 1 discriminator 3
.LVL119:
	.loc 1 913 552 is_stmt 0 discriminator 3
	lw	a3,12(t5)
	.loc 1 914 271 discriminator 3
	add	s1,t3,s1
	.loc 1 914 381 discriminator 3
	slli	a1,a1,2
	.loc 1 913 552 discriminator 3
	xor	a3,s3,a3
	.loc 1 914 140 discriminator 3
	srli	a6,a3,24
	.loc 1 914 128 discriminator 3
	slli	a6,a6,2
	add	a6,t3,a6
	.loc 1 914 123 discriminator 3
	lw	a6,0(a6)
	.loc 1 913 452 discriminator 3
	sw	a3,28(sp)
	.loc 1 913 593 is_stmt 1 discriminator 3
	.loc 1 914 9 discriminator 3
	.loc 1 914 14 discriminator 3
.LVL120:
	.loc 1 914 381 is_stmt 0 discriminator 3
	add	a1,a7,a1
	.loc 1 914 123 discriminator 3
	xor	a6,a6,s0
	lw	s0,16(t5)
	.loc 1 914 409 discriminator 3
	lw	a1,0(a1)
	addi	t5,t5,32
.LVL121:
	.loc 1 914 123 discriminator 3
	xor	a6,a6,s0
	.loc 1 914 82 discriminator 3
	srli	s0,a5,6
	.loc 1 914 63 discriminator 3
	andi	s0,s0,1020
	add	s0,t1,s0
	.loc 1 914 123 discriminator 3
	lw	s0,0(s0)
	.loc 1 914 492 discriminator 3
	slli	a0,a0,2
	add	a0,t1,a0
	.loc 1 914 123 discriminator 3
	xor	a6,a6,s0
	.loc 1 914 115 discriminator 3
	srli	s0,a4,14
	.loc 1 914 95 discriminator 3
	andi	s0,s0,1020
	add	s0,a7,s0
	.loc 1 914 123 discriminator 3
	lw	s0,0(s0)
	.loc 1 911 44 discriminator 3
	addi	t0,t0,-1
.LVL122:
	.loc 1 914 123 discriminator 3
	xor	a6,a6,s0
	.loc 1 914 23 discriminator 3
	sw	a6,0(sp)
	.loc 1 914 157 is_stmt 1 discriminator 3
.LVL123:
	.loc 1 914 193 is_stmt 0 discriminator 3
	andi	a6,a5,255
	.loc 1 914 179 discriminator 3
	slli	a6,a6,2
	add	a6,t4,a6
	.loc 1 914 266 discriminator 3
	lw	s0,0(s1)
	lw	a6,0(a6)
	xor	a6,a6,s0
	lw	s0,-12(t5)
	xor	a6,a6,s0
	.loc 1 914 225 discriminator 3
	srli	s0,a4,6
	.loc 1 914 206 discriminator 3
	andi	s0,s0,1020
	add	s0,t1,s0
	.loc 1 914 266 discriminator 3
	lw	s0,0(s0)
	xor	a6,a6,s0
	.loc 1 914 258 discriminator 3
	srli	s0,a3,14
	.loc 1 914 238 discriminator 3
	andi	s0,s0,1020
	add	s0,a7,s0
	.loc 1 914 266 discriminator 3
	lw	s0,0(s0)
	xor	a6,a6,s0
	.loc 1 914 166 discriminator 3
	sw	a6,4(sp)
	.loc 1 914 300 is_stmt 1 discriminator 3
.LVL124:
	.loc 1 914 426 is_stmt 0 discriminator 3
	srli	s0,a5,24
	.loc 1 914 336 discriminator 3
	andi	a6,a4,255
	.loc 1 914 322 discriminator 3
	slli	a6,a6,2
	.loc 1 914 414 discriminator 3
	slli	s0,s0,2
	.loc 1 914 322 discriminator 3
	add	a6,t4,a6
	.loc 1 914 414 discriminator 3
	add	s0,t3,s0
	.loc 1 914 409 discriminator 3
	lw	s0,0(s0)
	lw	a6,0(a6)
	.loc 1 914 569 discriminator 3
	srli	a4,a4,24
	.loc 1 914 557 discriminator 3
	slli	a4,a4,2
	.loc 1 914 409 discriminator 3
	xor	a6,a6,s0
	lw	s0,-8(t5)
	.loc 1 914 557 discriminator 3
	add	a4,t3,a4
	.loc 1 914 552 discriminator 3
	lw	a4,0(a4)
	.loc 1 914 409 discriminator 3
	xor	a6,a6,s0
	.loc 1 914 368 discriminator 3
	srli	s0,a3,6
	.loc 1 914 349 discriminator 3
	andi	s0,s0,1020
	add	s0,t1,s0
	.loc 1 914 409 discriminator 3
	lw	s0,0(s0)
	.loc 1 914 479 discriminator 3
	andi	a3,a3,255
	.loc 1 914 465 discriminator 3
	slli	a3,a3,2
	add	a3,t4,a3
	.loc 1 914 552 discriminator 3
	lw	a3,0(a3)
	.loc 1 914 409 discriminator 3
	xor	a6,a6,s0
	xor	a1,a6,a1
	.loc 1 914 309 discriminator 3
	sw	a1,8(sp)
	.loc 1 914 443 is_stmt 1 discriminator 3
.LVL125:
	.loc 1 914 552 is_stmt 0 discriminator 3
	xor	a4,a3,a4
	lw	a3,-4(t5)
	.loc 1 914 544 discriminator 3
	srli	a5,a5,14
	.loc 1 914 524 discriminator 3
	andi	a5,a5,1020
	.loc 1 914 552 discriminator 3
	xor	a4,a4,a3
	.loc 1 914 524 discriminator 3
	add	a5,a7,a5
	.loc 1 914 552 discriminator 3
	lw	a3,0(a0)
	lw	a5,0(a5)
	xor	a4,a4,a3
	xor	a5,a4,a5
	.loc 1 914 452 discriminator 3
	sw	a5,12(sp)
	.loc 1 914 593 is_stmt 1 discriminator 3
	.loc 1 911 43 discriminator 3
.LVL126:
	j	.L61
	.cfi_endproc
.LFE9:
	.size	mbedtls_internal_aes_encrypt, .-mbedtls_internal_aes_encrypt
	.section	.text.mbedtls_aes_encrypt,"ax",@progbits
	.align	1
	.globl	mbedtls_aes_encrypt
	.type	mbedtls_aes_encrypt, @function
mbedtls_aes_encrypt:
.LFB10:
	.loc 1 958 1
	.cfi_startproc
.LVL127:
	.loc 1 959 5
	tail	mbedtls_internal_aes_encrypt
.LVL128:
	.cfi_endproc
.LFE10:
	.size	mbedtls_aes_encrypt, .-mbedtls_aes_encrypt
	.section	.text.mbedtls_internal_aes_decrypt,"ax",@progbits
	.align	1
	.globl	mbedtls_internal_aes_decrypt
	.type	mbedtls_internal_aes_decrypt, @function
mbedtls_internal_aes_decrypt:
.LFB11:
	.loc 1 970 1
	.cfi_startproc
.LVL129:
	.loc 1 971 5
	.loc 1 972 5
	.loc 1 970 1 is_stmt 0
	addi	sp,sp,-64
	.cfi_def_cfa_offset 64
	sw	ra,60(sp)
	sw	s0,56(sp)
	sw	s1,52(sp)
	sw	s2,48(sp)
	sw	s3,44(sp)
	sw	s4,40(sp)
	sw	s5,36(sp)
	.cfi_offset 1, -4
	.cfi_offset 8, -8
	.cfi_offset 9, -12
	.cfi_offset 18, -16
	.cfi_offset 19, -20
	.cfi_offset 20, -24
	.cfi_offset 21, -28
	.loc 1 979 126
	lbu	a3,1(a1)
	lbu	a5,0(a1)
	.loc 1 972 15
	lw	a4,4(a0)
.LVL130:
	.loc 1 973 5 is_stmt 1
	.loc 1 979 7
	.loc 1 979 126 is_stmt 0
	slli	a3,a3,8
	or	a3,a3,a5
	lbu	a5,2(a1)
	.loc 1 982 187
	addi	ra,a4,16
	.loc 1 986 36
	lui	t5,%hi(.LANCHOR7)
	.loc 1 979 126
	slli	a5,a5,16
	or	a3,a5,a3
	lbu	a5,3(a1)
	.loc 1 986 128
	lui	t4,%hi(.LANCHOR10)
	.loc 1 986 63
	lui	t3,%hi(.LANCHOR8)
	.loc 1 979 126
	slli	a5,a5,24
	or	a5,a5,a3
	.loc 1 979 16
	sw	a5,0(sp)
	.loc 1 979 168 is_stmt 1
	.loc 1 979 170
.LVL131:
	.loc 1 979 177 is_stmt 0
	lw	a3,0(a4)
	.loc 1 986 95
	lui	t1,%hi(.LANCHOR9)
	.loc 1 982 187
	mv	t6,ra
	.loc 1 979 177
	xor	a5,a3,a5
	.loc 1 980 126
	lbu	a3,5(a1)
	.loc 1 979 177
	sw	a5,0(sp)
	.loc 1 980 7 is_stmt 1
	.loc 1 980 126 is_stmt 0
	lbu	a5,4(a1)
	slli	a3,a3,8
	.loc 1 986 36
	addi	t5,t5,%lo(.LANCHOR7)
	.loc 1 980 126
	or	a3,a3,a5
	lbu	a5,6(a1)
	.loc 1 986 128
	addi	t4,t4,%lo(.LANCHOR10)
	.loc 1 986 63
	addi	t3,t3,%lo(.LANCHOR8)
	.loc 1 980 126
	slli	a5,a5,16
	or	a3,a5,a3
	lbu	a5,7(a1)
	.loc 1 986 95
	addi	t1,t1,%lo(.LANCHOR9)
	.loc 1 980 126
	slli	a5,a5,24
	or	a5,a5,a3
	.loc 1 980 16
	sw	a5,4(sp)
	.loc 1 980 168 is_stmt 1
	.loc 1 980 170
.LVL132:
	.loc 1 980 177 is_stmt 0
	lw	a3,4(a4)
	xor	a5,a3,a5
	.loc 1 981 126
	lbu	a3,9(a1)
	.loc 1 980 177
	sw	a5,4(sp)
	.loc 1 981 7 is_stmt 1
	.loc 1 981 126 is_stmt 0
	lbu	a5,8(a1)
	slli	a3,a3,8
	or	a3,a3,a5
	lbu	a5,10(a1)
	slli	a5,a5,16
	or	a3,a5,a3
	lbu	a5,11(a1)
	slli	a5,a5,24
	or	a5,a5,a3
	.loc 1 981 16
	sw	a5,8(sp)
	.loc 1 981 168 is_stmt 1
	.loc 1 981 170
.LVL133:
	.loc 1 981 177 is_stmt 0
	lw	a3,8(a4)
	xor	a5,a3,a5
	.loc 1 982 129
	lbu	a3,13(a1)
	.loc 1 981 177
	sw	a5,8(sp)
	.loc 1 982 7 is_stmt 1
	.loc 1 982 129 is_stmt 0
	lbu	a5,12(a1)
	slli	a3,a3,8
	or	a3,a3,a5
	lbu	a5,14(a1)
	slli	a5,a5,16
	or	a3,a5,a3
	lbu	a5,15(a1)
	.loc 1 984 24
	lw	t0,0(a0)
	.loc 1 982 129
	slli	a5,a5,24
	or	a5,a5,a3
	.loc 1 982 16
	sw	a5,12(sp)
	.loc 1 982 172 is_stmt 1
	.loc 1 982 174
.LVL134:
	.loc 1 982 181 is_stmt 0
	lw	a4,12(a4)
	.loc 1 984 24
	srai	t0,t0,1
	.loc 1 984 12
	addi	s0,t0,-1
	.loc 1 982 181
	xor	a5,a4,a5
	sw	a5,12(sp)
	.loc 1 984 5 is_stmt 1
.LVL135:
	.loc 1 984 12 is_stmt 0
	mv	t2,s0
.LVL136:
.L68:
	.loc 1 984 36 is_stmt 1 discriminator 1
	.loc 1 986 43 is_stmt 0 discriminator 1
	lw	s2,0(sp)
	.loc 1 986 135 discriminator 1
	lw	a5,4(sp)
	.loc 1 986 70 discriminator 1
	lw	a7,12(sp)
	.loc 1 986 50 discriminator 1
	andi	a4,s2,255
	.loc 1 986 140 discriminator 1
	srli	a3,a5,24
	.loc 1 986 36 discriminator 1
	slli	a4,a4,2
	.loc 1 986 128 discriminator 1
	slli	a3,a3,2
	.loc 1 986 36 discriminator 1
	add	a4,t5,a4
	.loc 1 986 128 discriminator 1
	add	a3,t4,a3
	.loc 1 986 123 discriminator 1
	lw	a3,0(a3)
	lw	a4,0(a4)
	.loc 1 986 102 discriminator 1
	lw	a0,8(sp)
	.loc 1 986 479 discriminator 1
	andi	s4,a7,255
	.loc 1 986 123 discriminator 1
	xor	a4,a4,a3
	.loc 1 986 82 discriminator 1
	srli	a3,a7,6
	.loc 1 986 63 discriminator 1
	andi	a3,a3,1020
	add	a3,t3,a3
	.loc 1 986 123 discriminator 1
	lw	a3,0(a3)
	.loc 1 986 465 discriminator 1
	slli	s4,s4,2
	add	s4,t5,s4
	.loc 1 986 123 discriminator 1
	xor	a4,a4,a3
	.loc 1 986 115 discriminator 1
	srli	a3,a0,14
	.loc 1 986 95 discriminator 1
	andi	a3,a3,1020
	add	a3,t1,a3
	.loc 1 986 123 discriminator 1
	lw	a3,0(a3)
	lw	s4,0(s4)
	.loc 1 986 426 discriminator 1
	srli	s5,a7,24
	.loc 1 986 123 discriminator 1
	xor	a4,a4,a3
	lw	a3,0(t6)
	.loc 1 986 414 discriminator 1
	slli	s5,s5,2
	add	s5,t4,s5
	.loc 1 986 123 discriminator 1
	xor	a4,a4,a3
	.loc 1 986 569 discriminator 1
	srli	a3,s2,24
	.loc 1 986 557 discriminator 1
	slli	a3,a3,2
	add	a3,t4,a3
	lw	a3,0(a3)
	lw	s5,0(s5)
	.loc 1 986 258 discriminator 1
	srli	a7,a7,14
	xor	s4,s4,a3
	.loc 1 986 511 discriminator 1
	srli	a3,a0,6
	.loc 1 986 492 discriminator 1
	andi	a3,a3,1020
	add	a3,t3,a3
	lw	a3,0(a3)
	.loc 1 986 238 discriminator 1
	andi	a7,a7,1020
	add	a7,t1,a7
	xor	s4,s4,a3
	.loc 1 986 544 discriminator 1
	srli	a3,a5,14
	.loc 1 986 524 discriminator 1
	andi	a3,a3,1020
	add	a3,t1,a3
	lw	a3,0(a3)
	.loc 1 987 218 discriminator 1
	srli	a6,a4,8
	.loc 1 987 393 discriminator 1
	srli	a1,a4,16
	xor	s4,s4,a3
	.loc 1 986 336 discriminator 1
	andi	a3,a0,255
	.loc 1 986 322 discriminator 1
	slli	a3,a3,2
	add	a3,t5,a3
	lw	a3,0(a3)
	.loc 1 986 283 discriminator 1
	srli	a0,a0,24
	.loc 1 986 271 discriminator 1
	slli	a0,a0,2
	xor	a3,a3,s5
	.loc 1 986 368 discriminator 1
	srli	s5,a5,6
	.loc 1 986 349 discriminator 1
	andi	s5,s5,1020
	add	s5,t3,s5
	lw	s5,0(s5)
	.loc 1 986 193 discriminator 1
	andi	a5,a5,255
	.loc 1 986 179 discriminator 1
	slli	a5,a5,2
	add	a5,t5,a5
	.loc 1 986 271 discriminator 1
	add	a0,t4,a0
	lw	a0,0(a0)
	xor	a3,a3,s5
	lw	a5,0(a5)
	.loc 1 986 401 discriminator 1
	srli	s5,s2,14
	.loc 1 986 225 discriminator 1
	srli	s2,s2,6
	.loc 1 986 206 discriminator 1
	andi	s2,s2,1020
	add	s2,t3,s2
	xor	a5,a5,a0
	lw	a0,0(s2)
	.loc 1 986 381 discriminator 1
	andi	s5,s5,1020
	add	s5,t1,s5
	xor	a5,a5,a0
	lw	s5,0(s5)
	lw	a0,0(a7)
	.loc 1 987 50 discriminator 1
	andi	s3,a4,255
	.loc 1 987 225 discriminator 1
	andi	a6,a6,255
	.loc 1 987 401 discriminator 1
	andi	a1,a1,255
	.loc 1 987 569 discriminator 1
	srli	s1,a4,24
	xor	a3,a3,s5
	xor	a5,a5,a0
	.loc 1 984 5 discriminator 1
	bgt	t2,zero,.L69
	li	a0,0
	ble	t0,zero,.L71
	slli	a0,s0,5
.L71:
	add	ra,ra,a0
	.loc 1 990 5 is_stmt 1
	.loc 1 990 10
.LVL137:
	.loc 1 990 19 is_stmt 0
	sw	a4,16(sp)
	.loc 1 990 153 is_stmt 1
.LVL138:
	.loc 1 990 262 is_stmt 0
	lw	a4,4(ra)
	xor	a5,a5,a4
	.loc 1 990 162
	sw	a5,20(sp)
	.loc 1 990 296 is_stmt 1
.LVL139:
	.loc 1 990 405 is_stmt 0
	lw	a0,8(ra)
	.loc 1 996 29
	lui	a4,%hi(.LANCHOR2)
	addi	a4,a4,%lo(.LANCHOR2)
	.loc 1 990 405
	xor	a0,a3,a0
	.loc 1 990 305
	sw	a0,24(sp)
	.loc 1 990 439 is_stmt 1
.LVL140:
	.loc 1 990 548 is_stmt 0
	lw	a3,12(ra)
	.loc 1 993 29
	add	s3,a4,s3
	.loc 1 1000 29
	add	a6,a4,a6
	.loc 1 990 548
	xor	s4,s4,a3
	.loc 1 996 40
	srli	a3,a5,24
	.loc 1 990 448
	sw	s4,28(sp)
	.loc 1 990 589 is_stmt 1
	.loc 1 992 5
.LVL141:
	.loc 1 996 29 is_stmt 0
	add	a3,a4,a3
	.loc 1 995 65
	lw	t1,16(ra)
	.loc 1 996 15
	lbu	a7,0(a3)
	.loc 1 993 15
	lbu	a3,0(s3)
	.loc 1 1000 15
	lbu	a6,0(a6)
	.loc 1 996 57
	slli	a7,a7,24
	.loc 1 995 65
	xor	a3,a3,t1
	xor	a7,a7,a3
	.loc 1 994 40
	srli	a3,s4,8
	.loc 1 994 47
	andi	a3,a3,255
	.loc 1 994 29
	add	a3,a4,a3
	.loc 1 994 15
	lbu	a3,0(a3)
	.loc 1 1000 56
	slli	a6,a6,8
	.loc 1 1007 29
	add	a1,a4,a1
	.loc 1 994 56
	slli	a3,a3,8
	.loc 1 995 65
	xor	a7,a7,a3
	.loc 1 995 40
	srli	a3,a0,16
	.loc 1 995 48
	andi	a3,a3,255
	.loc 1 995 29
	add	a3,a4,a3
	.loc 1 995 15
	lbu	a3,0(a3)
	.loc 1 1007 15
	lbu	a1,0(a1)
	.loc 1 1014 29
	add	s1,a4,s1
	.loc 1 995 57
	slli	a3,a3,16
	.loc 1 995 65
	xor	a7,a7,a3
	.loc 1 1001 65
	lw	a3,20(ra)
	.loc 1 1007 57
	slli	a1,a1,16
	.loc 1 1013 65
	lw	t1,28(ra)
	.loc 1 1001 65
	xor	a6,a6,a3
	.loc 1 999 42
	andi	a3,a5,255
	.loc 1 999 29
	add	a3,a4,a3
	.loc 1 999 15
	lbu	a3,0(a3)
	.loc 1 992 12
	sw	a7,0(sp)
	.loc 1 998 5 is_stmt 1
.LVL142:
	.loc 1 1001 65 is_stmt 0
	xor	a6,a6,a3
	.loc 1 1002 40
	srli	a3,a0,24
	.loc 1 1002 29
	add	a3,a4,a3
	.loc 1 1002 15
	lbu	a3,0(a3)
	.loc 1 1002 57
	slli	a3,a3,24
	.loc 1 1001 65
	xor	a6,a6,a3
	.loc 1 1001 40
	srli	a3,s4,16
	.loc 1 1001 48
	andi	a3,a3,255
	.loc 1 1001 29
	add	a3,a4,a3
	.loc 1 1001 15
	lbu	a3,0(a3)
	.loc 1 1001 57
	slli	a3,a3,16
	.loc 1 1001 65
	xor	a6,a6,a3
	.loc 1 1007 65
	lw	a3,24(ra)
	.loc 1 998 12
	sw	a6,4(sp)
	.loc 1 1004 5 is_stmt 1
.LVL143:
	.loc 1 1007 65 is_stmt 0
	xor	a1,a1,a3
	.loc 1 1005 42
	andi	a3,a0,255
	.loc 1 1005 29
	add	a3,a4,a3
	.loc 1 1005 15
	lbu	a3,0(a3)
	.loc 1 1012 40
	srli	a0,a0,8
	.loc 1 1012 47
	andi	a0,a0,255
	.loc 1 1007 65
	xor	a1,a1,a3
	.loc 1 1008 40
	srli	a3,s4,24
	.loc 1 1008 29
	add	a3,a4,a3
	.loc 1 1008 15
	lbu	a3,0(a3)
	.loc 1 1011 42
	andi	s4,s4,255
	.loc 1 1011 29
	add	s4,a4,s4
	.loc 1 1008 57
	slli	a3,a3,24
	.loc 1 1007 65
	xor	a1,a1,a3
	.loc 1 1006 40
	srli	a3,a5,8
	.loc 1 1006 47
	andi	a3,a3,255
	.loc 1 1006 29
	add	a3,a4,a3
	.loc 1 1006 15
	lbu	a3,0(a3)
	.loc 1 1013 40
	srli	a5,a5,16
	.loc 1 1012 29
	add	a0,a4,a0
	.loc 1 1006 56
	slli	a3,a3,8
	.loc 1 1007 65
	xor	a1,a1,a3
	.loc 1 1014 15
	lbu	a3,0(s1)
	.loc 1 1013 48
	andi	a5,a5,255
	.loc 1 1012 15
	lbu	a0,0(a0)
	.loc 1 1014 57
	slli	a3,a3,24
	.loc 1 1013 65
	xor	a3,a3,t1
	.loc 1 1013 29
	add	a4,a4,a5
	.loc 1 1011 15
	lbu	t1,0(s4)
	.loc 1 1013 15
	lbu	a5,0(a4)
	.loc 1 1012 56
	slli	a0,a0,8
	.loc 1 1013 65
	xor	a3,a3,t1
	xor	a3,a3,a0
	.loc 1 1013 57
	slli	a5,a5,16
	.loc 1 1013 65
	xor	a5,a3,a5
	.loc 1 1004 12
	sw	a1,8(sp)
	.loc 1 1010 5 is_stmt 1
.LVL144:
	.loc 1 1010 12 is_stmt 0
	sw	a5,12(sp)
	.loc 1 1016 7 is_stmt 1
	.loc 1 1016 24 is_stmt 0
	sb	a7,0(a2)
	.loc 1 1016 65 is_stmt 1
	.loc 1 1016 114 is_stmt 0
	srli	a4,a7,8
	.loc 1 1016 85
	sb	a4,1(a2)
	.loc 1 1016 131 is_stmt 1
	.loc 1 1016 180 is_stmt 0
	srli	a4,a7,16
	.loc 1 1016 151
	sb	a4,2(a2)
	.loc 1 1016 198 is_stmt 1
	.loc 1 1017 114 is_stmt 0
	srli	a4,a6,8
	.loc 1 1017 85
	sb	a4,5(a2)
	.loc 1 1017 180
	srli	a4,a6,16
	.loc 1 1017 151
	sb	a4,6(a2)
	.loc 1 1018 114
	srli	a4,a1,8
	.loc 1 1018 85
	sb	a4,9(a2)
	.loc 1 1018 180
	srli	a4,a1,16
	.loc 1 1018 151
	sb	a4,10(a2)
	.loc 1 1019 116
	srli	a4,a5,8
	.loc 1 1016 247
	srli	a7,a7,24
	.loc 1 1017 24
	sb	a6,4(a2)
	.loc 1 1018 24
	sb	a1,8(a2)
	.loc 1 1017 247
	srli	a6,a6,24
	.loc 1 1018 247
	srli	a1,a1,24
	.loc 1 1019 25
	sb	a5,12(a2)
	.loc 1 1019 87
	sb	a4,13(a2)
	.loc 1 1019 183
	srli	a4,a5,16
	.loc 1 1019 251
	srli	a5,a5,24
	.loc 1 1021 5
	mv	a0,sp
	.loc 1 1018 218
	sb	a1,11(a2)
	.loc 1 1016 218
	sb	a7,3(a2)
	.loc 1 1016 266 is_stmt 1
	.loc 1 1017 7
	.loc 1 1017 65
	.loc 1 1017 131
	.loc 1 1017 198
	.loc 1 1017 218 is_stmt 0
	sb	a6,7(a2)
	.loc 1 1017 266 is_stmt 1
	.loc 1 1018 7
	.loc 1 1018 65
	.loc 1 1018 131
	.loc 1 1018 198
	.loc 1 1018 266
	.loc 1 1019 7
	.loc 1 1019 66
	.loc 1 1019 133
	.loc 1 1019 154 is_stmt 0
	sb	a4,14(a2)
	.loc 1 1019 201 is_stmt 1
	.loc 1 1019 222 is_stmt 0
	sb	a5,15(a2)
	.loc 1 1019 270 is_stmt 1
	.loc 1 1021 5
	li	a1,32
	call	mbedtls_platform_zeroize
.LVL145:
	.loc 1 1023 5
	.loc 1 1024 1 is_stmt 0
	lw	ra,60(sp)
	.cfi_remember_state
	.cfi_restore 1
	lw	s0,56(sp)
	.cfi_restore 8
	lw	s1,52(sp)
	.cfi_restore 9
	lw	s2,48(sp)
	.cfi_restore 18
	lw	s3,44(sp)
	.cfi_restore 19
	lw	s4,40(sp)
	.cfi_restore 20
	lw	s5,36(sp)
	.cfi_restore 21
	li	a0,0
	addi	sp,sp,64
	.cfi_def_cfa_offset 0
	jr	ra
.LVL146:
.L69:
	.cfi_restore_state
	.loc 1 986 9 is_stmt 1 discriminator 3
	.loc 1 986 14 discriminator 3
	.loc 1 986 23 is_stmt 0 discriminator 3
	sw	a4,16(sp)
	.loc 1 986 157 is_stmt 1 discriminator 3
.LVL147:
	.loc 1 986 266 is_stmt 0 discriminator 3
	lw	a4,4(t6)
	.loc 1 987 36 discriminator 3
	slli	s3,s3,2
	add	s3,t5,s3
	.loc 1 986 266 discriminator 3
	xor	a5,a5,a4
	.loc 1 986 166 discriminator 3
	sw	a5,20(sp)
	.loc 1 986 300 is_stmt 1 discriminator 3
.LVL148:
	.loc 1 986 409 is_stmt 0 discriminator 3
	lw	a4,8(t6)
	.loc 1 987 140 discriminator 3
	srli	a0,a5,24
	.loc 1 987 128 discriminator 3
	slli	a0,a0,2
	.loc 1 986 409 discriminator 3
	xor	a4,a3,a4
	.loc 1 986 309 discriminator 3
	sw	a4,24(sp)
	.loc 1 986 443 is_stmt 1 discriminator 3
.LVL149:
	.loc 1 986 552 is_stmt 0 discriminator 3
	lw	a3,12(t6)
	.loc 1 987 128 discriminator 3
	add	a0,t4,a0
	.loc 1 987 123 discriminator 3
	lw	a7,0(s3)
	lw	a0,0(a0)
	.loc 1 986 552 discriminator 3
	xor	a3,s4,a3
	.loc 1 986 452 discriminator 3
	sw	a3,28(sp)
	.loc 1 986 593 is_stmt 1 discriminator 3
	.loc 1 987 9 discriminator 3
	.loc 1 987 14 discriminator 3
.LVL150:
	.loc 1 987 123 is_stmt 0 discriminator 3
	xor	a0,a0,a7
	lw	a7,16(t6)
	.loc 1 987 206 discriminator 3
	slli	a6,a6,2
	add	a6,t3,a6
	.loc 1 987 123 discriminator 3
	xor	a0,a0,a7
	.loc 1 987 82 discriminator 3
	srli	a7,a3,6
	.loc 1 987 63 discriminator 3
	andi	a7,a7,1020
	add	a7,t3,a7
	.loc 1 987 123 discriminator 3
	lw	a7,0(a7)
	.loc 1 987 266 discriminator 3
	lw	a6,0(a6)
	.loc 1 987 381 discriminator 3
	slli	a1,a1,2
	.loc 1 987 123 discriminator 3
	xor	a0,a0,a7
	.loc 1 987 115 discriminator 3
	srli	a7,a4,14
	.loc 1 987 95 discriminator 3
	andi	a7,a7,1020
	add	a7,t1,a7
	.loc 1 987 123 discriminator 3
	lw	a7,0(a7)
	.loc 1 987 381 discriminator 3
	add	a1,t1,a1
	.loc 1 987 409 discriminator 3
	lw	a1,0(a1)
	.loc 1 987 123 discriminator 3
	xor	a0,a0,a7
	.loc 1 987 23 discriminator 3
	sw	a0,0(sp)
	.loc 1 987 157 is_stmt 1 discriminator 3
.LVL151:
	.loc 1 987 283 is_stmt 0 discriminator 3
	srli	a7,a4,24
	.loc 1 987 193 discriminator 3
	andi	a0,a5,255
	.loc 1 987 179 discriminator 3
	slli	a0,a0,2
	.loc 1 987 271 discriminator 3
	slli	a7,a7,2
	.loc 1 987 179 discriminator 3
	add	a0,t5,a0
	.loc 1 987 271 discriminator 3
	add	a7,t4,a7
	.loc 1 987 266 discriminator 3
	lw	a7,0(a7)
	lw	a0,0(a0)
	.loc 1 987 557 discriminator 3
	slli	s1,s1,2
	add	s1,t4,s1
	.loc 1 987 266 discriminator 3
	xor	a0,a0,a7
	lw	a7,20(t6)
	addi	t6,t6,32
.LVL152:
	.loc 1 984 44 discriminator 3
	addi	t2,t2,-1
.LVL153:
	.loc 1 987 266 discriminator 3
	xor	a0,a0,a7
	xor	a0,a0,a6
	.loc 1 987 258 discriminator 3
	srli	a6,a3,14
	.loc 1 987 238 discriminator 3
	andi	a6,a6,1020
	add	a6,t1,a6
	.loc 1 987 266 discriminator 3
	lw	a6,0(a6)
	xor	a0,a0,a6
	.loc 1 987 166 discriminator 3
	sw	a0,4(sp)
	.loc 1 987 300 is_stmt 1 discriminator 3
.LVL154:
	.loc 1 987 426 is_stmt 0 discriminator 3
	srli	a6,a3,24
	.loc 1 987 336 discriminator 3
	andi	a0,a4,255
	.loc 1 987 322 discriminator 3
	slli	a0,a0,2
	.loc 1 987 414 discriminator 3
	slli	a6,a6,2
	.loc 1 987 322 discriminator 3
	add	a0,t5,a0
	.loc 1 987 414 discriminator 3
	add	a6,t4,a6
	.loc 1 987 409 discriminator 3
	lw	a6,0(a6)
	lw	a0,0(a0)
	.loc 1 987 479 discriminator 3
	andi	a3,a3,255
	.loc 1 987 465 discriminator 3
	slli	a3,a3,2
	.loc 1 987 409 discriminator 3
	xor	a0,a0,a6
	lw	a6,-8(t6)
	.loc 1 987 465 discriminator 3
	add	a3,t5,a3
	.loc 1 987 552 discriminator 3
	lw	a3,0(a3)
	.loc 1 987 409 discriminator 3
	xor	a0,a0,a6
	.loc 1 987 368 discriminator 3
	srli	a6,a5,6
	.loc 1 987 349 discriminator 3
	andi	a6,a6,1020
	add	a6,t3,a6
	.loc 1 987 409 discriminator 3
	lw	a6,0(a6)
	.loc 1 987 511 discriminator 3
	srli	a4,a4,6
	.loc 1 987 492 discriminator 3
	andi	a4,a4,1020
	.loc 1 987 409 discriminator 3
	xor	a0,a0,a6
	xor	a1,a0,a1
	.loc 1 987 309 discriminator 3
	sw	a1,8(sp)
	.loc 1 987 443 is_stmt 1 discriminator 3
.LVL155:
	.loc 1 987 552 is_stmt 0 discriminator 3
	lw	a1,0(s1)
	.loc 1 987 544 discriminator 3
	srli	a5,a5,14
	.loc 1 987 492 discriminator 3
	add	a4,t3,a4
	.loc 1 987 552 discriminator 3
	xor	a3,a3,a1
	.loc 1 987 524 discriminator 3
	andi	a5,a5,1020
	.loc 1 987 552 discriminator 3
	lw	a1,-4(t6)
	lw	a4,0(a4)
	.loc 1 987 524 discriminator 3
	add	a5,t1,a5
	.loc 1 987 552 discriminator 3
	lw	a5,0(a5)
	xor	a3,a3,a1
	xor	a4,a3,a4
	xor	a5,a4,a5
	.loc 1 987 452 discriminator 3
	sw	a5,12(sp)
	.loc 1 987 593 is_stmt 1 discriminator 3
	.loc 1 984 43 discriminator 3
.LVL156:
	j	.L68
	.cfi_endproc
.LFE11:
	.size	mbedtls_internal_aes_decrypt, .-mbedtls_internal_aes_decrypt
	.section	.text.mbedtls_aes_decrypt,"ax",@progbits
	.align	1
	.globl	mbedtls_aes_decrypt
	.type	mbedtls_aes_decrypt, @function
mbedtls_aes_decrypt:
.LFB12:
	.loc 1 1031 1
	.cfi_startproc
.LVL157:
	.loc 1 1032 5
	tail	mbedtls_internal_aes_decrypt
.LVL158:
	.cfi_endproc
.LFE12:
	.size	mbedtls_aes_decrypt, .-mbedtls_aes_decrypt
	.section	.text.mbedtls_aes_crypt_ecb,"ax",@progbits
	.align	1
	.globl	mbedtls_aes_crypt_ecb
	.type	mbedtls_aes_crypt_ecb, @function
mbedtls_aes_crypt_ecb:
.LFB13:
	.loc 1 1043 1
	.cfi_startproc
.LVL159:
	.loc 1 1044 5
	.loc 1 1044 10
	.loc 1 1044 17
	.loc 1 1045 5
	.loc 1 1045 10
	.loc 1 1045 17
	.loc 1 1046 5
	.loc 1 1046 10
	.loc 1 1046 17
	.loc 1 1047 5
	.loc 1 1047 10
	.loc 1 1047 17
	.loc 1 1067 5
	.loc 1 1043 1 is_stmt 0
	mv	a4,a1
	.loc 1 1067 7
	li	a5,1
	.loc 1 1043 1
	mv	a1,a2
.LVL160:
	mv	a2,a3
.LVL161:
	.loc 1 1067 7
	bne	a4,a5,.L75
	.loc 1 1068 9 is_stmt 1
	.loc 1 1068 17 is_stmt 0
	tail	mbedtls_internal_aes_encrypt
.LVL162:
.L75:
	.loc 1 1070 9 is_stmt 1
	.loc 1 1070 17 is_stmt 0
	tail	mbedtls_internal_aes_decrypt
.LVL163:
	.cfi_endproc
.LFE13:
	.size	mbedtls_aes_crypt_ecb, .-mbedtls_aes_crypt_ecb
	.section	.text.mbedtls_aes_crypt_cbc,"ax",@progbits
	.align	1
	.globl	mbedtls_aes_crypt_cbc
	.type	mbedtls_aes_crypt_cbc, @function
mbedtls_aes_crypt_cbc:
.LFB14:
	.loc 1 1083 1 is_stmt 1
	.cfi_startproc
.LVL164:
	.loc 1 1084 5
	.loc 1 1085 5
	.loc 1 1087 5
	.loc 1 1087 10
	.loc 1 1087 17
	.loc 1 1088 5
	.loc 1 1088 10
	.loc 1 1088 17
	.loc 1 1090 5
	.loc 1 1090 10
	.loc 1 1090 17
	.loc 1 1091 5
	.loc 1 1091 10
	.loc 1 1091 17
	.loc 1 1092 5
	.loc 1 1092 10
	.loc 1 1092 17
	.loc 1 1094 5
	.loc 1 1083 1 is_stmt 0
	addi	sp,sp,-80
	.cfi_def_cfa_offset 80
	sw	s0,72(sp)
	sw	ra,76(sp)
	sw	s1,68(sp)
	sw	s2,64(sp)
	sw	s3,60(sp)
	sw	s4,56(sp)
	sw	s5,52(sp)
	sw	s6,48(sp)
	sw	s7,44(sp)
	sw	s8,40(sp)
	.cfi_offset 8, -8
	.cfi_offset 1, -4
	.cfi_offset 9, -12
	.cfi_offset 18, -16
	.cfi_offset 19, -20
	.cfi_offset 20, -24
	.cfi_offset 21, -28
	.cfi_offset 22, -32
	.cfi_offset 23, -36
	.cfi_offset 24, -40
	.loc 1 1094 16
	andi	s0,a2,15
	.loc 1 1094 7
	bne	s0,zero,.L84
	mv	s6,a0
	mv	s7,a1
	mv	s2,a2
	mv	s1,a3
	mv	s5,a4
	mv	s4,a5
	.loc 1 1109 5 is_stmt 1
	.loc 1 1130 13 is_stmt 0
	li	s8,16
	.loc 1 1109 7
	bne	a1,zero,.L79
.LVL165:
.L78:
	.loc 1 1111 14
	add	a5,s0,s2
	sub	a1,s5,s0
	sub	s3,s4,s0
.LVL166:
	.loc 1 1111 14 is_stmt 1
	bne	a5,zero,.L81
.LVL167:
.L83:
	.loc 1 1142 11 is_stmt 0
	li	a0,0
.LVL168:
.L76:
	.loc 1 1143 1
	lw	ra,76(sp)
	.cfi_remember_state
	.cfi_restore 1
	lw	s0,72(sp)
	.cfi_restore 8
	lw	s1,68(sp)
	.cfi_restore 9
	lw	s2,64(sp)
	.cfi_restore 18
	lw	s3,60(sp)
	.cfi_restore 19
	lw	s4,56(sp)
	.cfi_restore 20
	lw	s5,52(sp)
	.cfi_restore 21
	lw	s6,48(sp)
	.cfi_restore 22
	lw	s7,44(sp)
	.cfi_restore 23
	lw	s8,40(sp)
	.cfi_restore 24
	addi	sp,sp,80
	.cfi_def_cfa_offset 0
	jr	ra
.LVL169:
.L81:
	.cfi_restore_state
	.loc 1 1113 13 is_stmt 1
	li	a2,16
	addi	a0,sp,16
	sw	a1,12(sp)
	call	memcpy
.LVL170:
	.loc 1 1114 13
.LBB6:
.LBB7:
	.loc 1 1044 5
	.loc 1 1044 10
	.loc 1 1044 17
	.loc 1 1045 5
	.loc 1 1045 10
	.loc 1 1045 17
	.loc 1 1046 5
	.loc 1 1046 10
	.loc 1 1046 17
	.loc 1 1047 5
	.loc 1 1047 10
	.loc 1 1047 17
	.loc 1 1067 5
	.loc 1 1070 9
	.loc 1 1070 17 is_stmt 0
	lw	a1,12(sp)
	mv	a2,s3
	mv	a0,s6
	call	mbedtls_internal_aes_decrypt
.LVL171:
.LBE7:
.LBE6:
	.loc 1 1116 25 is_stmt 1
	.loc 1 1116 20 is_stmt 0
	li	a3,0
	.loc 1 1116 13
	li	a2,16
.LVL172:
.L80:
	.loc 1 1117 17 is_stmt 1 discriminator 3
	add	a4,s3,a3
	.loc 1 1117 60 is_stmt 0 discriminator 3
	add	a5,s1,a3
	.loc 1 1117 29 discriminator 3
	lbu	a5,0(a5)
	lbu	a1,0(a4)
	.loc 1 1116 34 discriminator 3
	addi	a3,a3,1
.LVL173:
	.loc 1 1117 29 discriminator 3
	xor	a5,a5,a1
	.loc 1 1117 27 discriminator 3
	sb	a5,0(a4)
	.loc 1 1116 33 is_stmt 1 discriminator 3
.LVL174:
	.loc 1 1116 25 discriminator 3
	.loc 1 1116 13 is_stmt 0 discriminator 3
	bne	a3,a2,.L80
	.loc 1 1119 13 is_stmt 1
	li	a2,16
	addi	a1,sp,16
	mv	a0,s1
	call	memcpy
.LVL175:
	.loc 1 1121 13
	.loc 1 1122 13
	.loc 1 1123 13
	addi	s0,s0,-16
.LVL176:
	j	.L78
.LVL177:
.L85:
	.loc 1 1130 20 is_stmt 0
	li	a6,0
.LVL178:
.L82:
	.loc 1 1131 17 is_stmt 1 discriminator 3
	.loc 1 1131 51 is_stmt 0 discriminator 3
	add	a5,a4,a6
	.loc 1 1131 59 discriminator 3
	add	a2,s1,a6
	.loc 1 1131 29 discriminator 3
	lbu	a5,0(a5)
	lbu	a2,0(a2)
	.loc 1 1131 27 discriminator 3
	add	a3,s3,a6
	.loc 1 1130 34 discriminator 3
	addi	a6,a6,1
.LVL179:
	.loc 1 1131 29 discriminator 3
	xor	a5,a5,a2
	.loc 1 1131 27 discriminator 3
	sb	a5,0(a3)
	.loc 1 1130 33 is_stmt 1 discriminator 3
.LVL180:
	.loc 1 1130 25 discriminator 3
	.loc 1 1130 13 is_stmt 0 discriminator 3
	bne	a6,s8,.L82
	.loc 1 1133 13 is_stmt 1
	mv	a3,s3
	mv	a2,s3
	mv	a1,s7
	mv	a0,s6
	call	mbedtls_aes_crypt_ecb
.LVL181:
	.loc 1 1134 13
	li	a2,16
	mv	a1,s3
	mv	a0,s1
	call	memcpy
.LVL182:
	.loc 1 1136 13
	.loc 1 1137 13
	.loc 1 1138 13
	addi	s0,s0,-16
.LVL183:
.L79:
	.loc 1 1128 14 is_stmt 0
	add	a5,s2,s0
	sub	a4,s5,s0
	sub	s3,s4,s0
.LVL184:
	.loc 1 1128 14 is_stmt 1
	bne	a5,zero,.L85
	j	.L83
.LVL185:
.L84:
	.loc 1 1095 15 is_stmt 0
	li	a0,-34
.LVL186:
	j	.L76
	.cfi_endproc
.LFE14:
	.size	mbedtls_aes_crypt_cbc, .-mbedtls_aes_crypt_cbc
	.section	.text.mbedtls_aes_crypt_ctr,"ax",@progbits
	.align	1
	.globl	mbedtls_aes_crypt_ctr
	.type	mbedtls_aes_crypt_ctr, @function
mbedtls_aes_crypt_ctr:
.LFB15:
	.loc 1 1467 1 is_stmt 1
	.cfi_startproc
.LVL187:
	.loc 1 1468 5
	.loc 1 1469 5
	.loc 1 1471 5
	.loc 1 1471 10
	.loc 1 1471 17
	.loc 1 1472 5
	.loc 1 1472 10
	.loc 1 1472 17
	.loc 1 1473 5
	.loc 1 1473 10
	.loc 1 1473 17
	.loc 1 1474 5
	.loc 1 1474 10
	.loc 1 1474 17
	.loc 1 1475 5
	.loc 1 1475 10
	.loc 1 1475 17
	.loc 1 1476 5
	.loc 1 1476 10
	.loc 1 1476 17
	.loc 1 1478 5
	.loc 1 1467 1 is_stmt 0
	addi	sp,sp,-48
	.cfi_def_cfa_offset 48
	sw	s4,24(sp)
	sw	ra,44(sp)
	sw	s0,40(sp)
	sw	s1,36(sp)
	sw	s2,32(sp)
	sw	s3,28(sp)
	sw	s5,20(sp)
	sw	s6,16(sp)
	sw	s7,12(sp)
	sw	s8,8(sp)
	.cfi_offset 20, -24
	.cfi_offset 1, -4
	.cfi_offset 8, -8
	.cfi_offset 9, -12
	.cfi_offset 18, -16
	.cfi_offset 19, -20
	.cfi_offset 21, -28
	.cfi_offset 22, -32
	.cfi_offset 23, -36
	.cfi_offset 24, -40
	.loc 1 1478 7
	lw	s0,0(a2)
.LVL188:
	.loc 1 1480 5 is_stmt 1
	.loc 1 1467 1 is_stmt 0
	mv	s4,a5
	.loc 1 1480 8
	li	a5,15
.LVL189:
	bgtu	s0,a5,.L97
	mv	s7,a0
	mv	s5,a2
	mv	s3,a3
	mv	s6,a4
	mv	s1,a6
	add	s2,a6,a1
	addi	s8,a3,15
.LVL190:
.L93:
	.loc 1 1483 10 is_stmt 1
	bne	s1,s2,.L96
	.loc 1 1498 5
	.loc 1 1498 13 is_stmt 0
	sw	s0,0(s5)
	.loc 1 1500 5 is_stmt 1
	.loc 1 1500 11 is_stmt 0
	li	a0,0
.LVL191:
.L91:
	.loc 1 1501 1
	lw	ra,44(sp)
	.cfi_remember_state
	.cfi_restore 1
	lw	s0,40(sp)
	.cfi_restore 8
.LVL192:
	lw	s1,36(sp)
	.cfi_restore 9
	lw	s2,32(sp)
	.cfi_restore 18
	lw	s3,28(sp)
	.cfi_restore 19
	lw	s4,24(sp)
	.cfi_restore 20
.LVL193:
	lw	s5,20(sp)
	.cfi_restore 21
	lw	s6,16(sp)
	.cfi_restore 22
	lw	s7,12(sp)
	.cfi_restore 23
	lw	s8,8(sp)
	.cfi_restore 24
	addi	sp,sp,48
	.cfi_def_cfa_offset 0
	jr	ra
.LVL194:
.L96:
	.cfi_restore_state
	.loc 1 1485 9 is_stmt 1
	.loc 1 1485 11 is_stmt 0
	bne	s0,zero,.L94
	.loc 1 1486 13 is_stmt 1
.LVL195:
.LBB8:
.LBB9:
	.loc 1 1044 5
	.loc 1 1044 10
	.loc 1 1044 17
	.loc 1 1045 5
	.loc 1 1045 10
	.loc 1 1045 17
	.loc 1 1046 5
	.loc 1 1046 10
	.loc 1 1046 17
	.loc 1 1047 5
	.loc 1 1047 10
	.loc 1 1047 17
	.loc 1 1067 5
	.loc 1 1068 9
	.loc 1 1068 17 is_stmt 0
	mv	a2,s6
	mv	a1,s3
	mv	a0,s7
	call	mbedtls_internal_aes_encrypt
.LVL196:
.LBE9:
.LBE8:
	.loc 1 1488 13 is_stmt 1
	.loc 1 1488 26
	mv	a5,s8
.LVL197:
.L95:
	.loc 1 1489 17
	.loc 1 1489 21 is_stmt 0
	lbu	a6,0(a5)
	addi	a6,a6,1
	andi	a6,a6,0xff
	.loc 1 1489 19
	sb	a6,0(a5)
	bne	a6,zero,.L94
	.loc 1 1488 33 is_stmt 1 discriminator 2
.LVL198:
	.loc 1 1488 26 discriminator 2
	.loc 1 1488 13 is_stmt 0 discriminator 2
	addi	a4,a5,-1
	bne	s3,a5,.L98
.LVL199:
.L94:
	.loc 1 1492 9 is_stmt 1
	.loc 1 1493 54 is_stmt 0
	add	a5,s6,s0
	.loc 1 1493 40
	lbu	a5,0(a5)
	lbu	a4,0(s4)
	.loc 1 1493 16
	addi	s1,s1,1
.LVL200:
	.loc 1 1495 17
	addi	s0,s0,1
.LVL201:
	.loc 1 1493 40
	xor	a5,a5,a4
	.loc 1 1492 19
	addi	s4,s4,1
.LVL202:
	.loc 1 1493 9 is_stmt 1
	.loc 1 1493 19 is_stmt 0
	sb	a5,-1(s1)
	.loc 1 1495 9 is_stmt 1
	.loc 1 1495 11 is_stmt 0
	andi	s0,s0,15
.LVL203:
	j	.L93
.LVL204:
.L98:
	mv	a5,a4
.LVL205:
	j	.L95
.LVL206:
.L97:
	.loc 1 1481 15
	li	a0,-33
.LVL207:
	j	.L91
	.cfi_endproc
.LFE15:
	.size	mbedtls_aes_crypt_ctr, .-mbedtls_aes_crypt_ctr
	.section	.bss.FSb,"aw",@nobits
	.align	2
	.set	.LANCHOR1,. + 0
	.type	FSb, @object
	.size	FSb, 256
FSb:
	.zero	256
	.section	.bss.FT0,"aw",@nobits
	.align	2
	.set	.LANCHOR3,. + 0
	.type	FT0, @object
	.size	FT0, 1024
FT0:
	.zero	1024
	.section	.bss.FT1,"aw",@nobits
	.align	2
	.set	.LANCHOR4,. + 0
	.type	FT1, @object
	.size	FT1, 1024
FT1:
	.zero	1024
	.section	.bss.FT2,"aw",@nobits
	.align	2
	.set	.LANCHOR5,. + 0
	.type	FT2, @object
	.size	FT2, 1024
FT2:
	.zero	1024
	.section	.bss.FT3,"aw",@nobits
	.align	2
	.set	.LANCHOR6,. + 0
	.type	FT3, @object
	.size	FT3, 1024
FT3:
	.zero	1024
	.section	.bss.RCON,"aw",@nobits
	.align	2
	.set	.LANCHOR0,. + 0
	.type	RCON, @object
	.size	RCON, 40
RCON:
	.zero	40
	.section	.bss.RSb,"aw",@nobits
	.align	2
	.set	.LANCHOR2,. + 0
	.type	RSb, @object
	.size	RSb, 256
RSb:
	.zero	256
	.section	.bss.RT0,"aw",@nobits
	.align	2
	.set	.LANCHOR7,. + 0
	.type	RT0, @object
	.size	RT0, 1024
RT0:
	.zero	1024
	.section	.bss.RT1,"aw",@nobits
	.align	2
	.set	.LANCHOR8,. + 0
	.type	RT1, @object
	.size	RT1, 1024
RT1:
	.zero	1024
	.section	.bss.RT2,"aw",@nobits
	.align	2
	.set	.LANCHOR9,. + 0
	.type	RT2, @object
	.size	RT2, 1024
RT2:
	.zero	1024
	.section	.bss.RT3,"aw",@nobits
	.align	2
	.set	.LANCHOR10,. + 0
	.type	RT3, @object
	.size	RT3, 1024
RT3:
	.zero	1024
	.section	.sbss.aes_init_done,"aw",@nobits
	.align	2
	.set	.LANCHOR11,. + 0
	.type	aes_init_done, @object
	.size	aes_init_done, 4
aes_init_done:
	.zero	4
	.text
.Letext0:
	.file 2 "/mnt/d/GitHub/bl_iot_sdk_for_aithinker/toolchain/riscv/Linux/lib/gcc/riscv64-unknown-elf/10.2.0/include/stddef.h"
	.file 3 "/mnt/d/GitHub/bl_iot_sdk_for_aithinker/toolchain/riscv/Linux/lib/gcc/riscv64-unknown-elf/10.2.0/include/stdint-gcc.h"
	.file 4 "/mnt/d/GitHub/bl_iot_sdk_for_aithinker/components/security/mbedtls_lts/mbedtls/include/mbedtls/aes.h"
	.file 5 "/mnt/d/GitHub/bl_iot_sdk_for_aithinker/toolchain/riscv/Linux/riscv64-unknown-elf/include/string.h"
	.file 6 "/mnt/d/GitHub/bl_iot_sdk_for_aithinker/components/security/mbedtls_lts/mbedtls/include/mbedtls/platform_util.h"