	.file	"asn1write.c"
	.option nopic
	.attribute arch, "rv32i2p0_m2p0_f2p0_c2p0"
	.attribute unaligned_access, 0
	.attribute stack_align, 16
	.text
.Ltext0:
	.cfi_sections	.debug_frame
	.section	.text.mbedtls_asn1_write_len,"ax",@progbits
	.align	1
	.globl	mbedtls_asn1_write_len
	.type	mbedtls_asn1_write_len, @function
mbedtls_asn1_write_len:
.LFB4:
	.file 1 "/mnt/d/GitHub/bl_iot_sdk_for_aithinker/components/security/mbedtls_lts/mbedtls/library/asn1write.c"
	.loc 1 68 1
	.cfi_startproc
.LVL0:
	.loc 1 71 13 is_stmt 0
	lw	a4,0(a0)
	.loc 1 69 7
	li	a3,127
	.loc 1 68 1
	mv	a5,a0
	.loc 1 69 5 is_stmt 1
	.loc 1 71 16 is_stmt 0
	sub	a1,a4,a1
.LVL1:
	.loc 1 69 7
	bgtu	a2,a3,.L2
	.loc 1 71 9 is_stmt 1
	.loc 1 72 19 is_stmt 0
	li	a0,-108
.LVL2:
	.loc 1 71 11
	ble	a1,zero,.L1
	.loc 1 74 9 is_stmt 1
	.loc 1 74 10 is_stmt 0
	addi	a3,a4,-1
	.loc 1 74 17
	sw	a3,0(a5)
	.loc 1 74 19
	sb	a2,-1(a4)
	.loc 1 75 9 is_stmt 1
	.loc 1 75 15 is_stmt 0
	li	a0,1
	ret
.LVL3:
.L2:
.LBB4:
.LBB5:
	.loc 1 78 5 is_stmt 1
	.loc 1 78 7 is_stmt 0
	li	a3,255
	bgtu	a2,a3,.L4
	.loc 1 80 9 is_stmt 1
	.loc 1 80 11 is_stmt 0
	li	a3,1
.LBE5:
.LBE4:
	.loc 1 72 19
	li	a0,-108
.LVL4:
.LBB10:
.LBB6:
	.loc 1 80 11
	ble	a1,a3,.L1
	.loc 1 83 9 is_stmt 1
	.loc 1 83 10 is_stmt 0
	addi	a3,a4,-1
	.loc 1 83 17
	sw	a3,0(a5)
	.loc 1 83 19
	sb	a2,-1(a4)
	.loc 1 84 9 is_stmt 1
	.loc 1 84 13 is_stmt 0
	lw	a4,0(a5)
	.loc 1 85 15
	li	a0,2
	.loc 1 84 10
	addi	a3,a4,-1
	.loc 1 84 17
	sw	a3,0(a5)
	li	a5,-127
.LVL5:
	sb	a5,-1(a4)
	.loc 1 85 9 is_stmt 1
	.loc 1 85 15 is_stmt 0
	ret
.LVL6:
.L4:
	.loc 1 88 5 is_stmt 1
	.loc 1 88 7 is_stmt 0
	li	a3,65536
	bgeu	a2,a3,.L5
	.loc 1 90 9 is_stmt 1
	.loc 1 90 11 is_stmt 0
	li	a3,2
.LBE6:
.LBE10:
	.loc 1 72 19
	li	a0,-108
.LVL7:
.LBB11:
.LBB7:
	.loc 1 90 11
	ble	a1,a3,.L1
	.loc 1 93 9 is_stmt 1
	.loc 1 93 10 is_stmt 0
	addi	a3,a4,-1
	.loc 1 93 17
	sw	a3,0(a5)
	sb	a2,-1(a4)
	.loc 1 94 9 is_stmt 1
	.loc 1 94 13 is_stmt 0
	lw	a4,0(a5)
	.loc 1 94 25
	srli	a2,a2,8
.LVL8:
	.loc 1 96 15
	li	a0,3
	.loc 1 94 10
	addi	a3,a4,-1
	.loc 1 94 17
	sw	a3,0(a5)
	sb	a2,-1(a4)
	.loc 1 95 9 is_stmt 1
	.loc 1 95 13 is_stmt 0
	lw	a4,0(a5)
	.loc 1 95 10
	addi	a3,a4,-1
	.loc 1 95 17
	sw	a3,0(a5)
	li	a5,-126
.LVL9:
	sb	a5,-1(a4)
	.loc 1 96 9 is_stmt 1
	.loc 1 96 15 is_stmt 0
	ret
.LVL10:
.L5:
	.loc 1 99 5 is_stmt 1
	.loc 1 99 7 is_stmt 0
	li	a3,16777216
	bgeu	a2,a3,.L6
	.loc 1 101 9 is_stmt 1
	.loc 1 101 11 is_stmt 0
	li	a3,3
.LBE7:
.LBE11:
	.loc 1 72 19
	li	a0,-108
.LVL11:
.LBB12:
.LBB8:
	.loc 1 101 11
	ble	a1,a3,.L1
	.loc 1 104 9 is_stmt 1
	.loc 1 104 10 is_stmt 0
	addi	a3,a4,-1
	.loc 1 104 17
	sw	a3,0(a5)
	sb	a2,-1(a4)
	.loc 1 105 9 is_stmt 1
	.loc 1 105 13 is_stmt 0
	lw	a4,0(a5)
	.loc 1 108 15
	li	a0,4
	.loc 1 105 10
	addi	a3,a4,-1
	.loc 1 105 17
	sw	a3,0(a5)
	.loc 1 105 25
	srli	a3,a2,8
	.loc 1 105 17
	sb	a3,-1(a4)
	.loc 1 106 9 is_stmt 1
	.loc 1 106 13 is_stmt 0
	lw	a4,0(a5)
	.loc 1 106 25
	srli	a2,a2,16
.LVL12:
	.loc 1 106 10
	addi	a3,a4,-1
	.loc 1 106 17
	sw	a3,0(a5)
	sb	a2,-1(a4)
	.loc 1 107 9 is_stmt 1
	.loc 1 107 13 is_stmt 0
	lw	a4,0(a5)
	.loc 1 107 10
	addi	a3,a4,-1
	.loc 1 107 17
	sw	a3,0(a5)
	li	a5,-125
.LVL13:
	sb	a5,-1(a4)
	.loc 1 108 9 is_stmt 1
	.loc 1 108 15 is_stmt 0
	ret
.LVL14:
.L6:
	.loc 1 115 9 is_stmt 1
	.loc 1 115 11 is_stmt 0
	li	a3,4
.LBE8:
.LBE12:
	.loc 1 72 19
	li	a0,-108
.LVL15:
.LBB13:
.LBB9:
	.loc 1 115 11
	ble	a1,a3,.L1
	.loc 1 118 9 is_stmt 1
	.loc 1 118 10 is_stmt 0
	addi	a3,a4,-1
	.loc 1 118 17
	sw	a3,0(a5)
	sb	a2,-1(a4)
	.loc 1 119 9 is_stmt 1
	.loc 1 119 13 is_stmt 0
	lw	a4,0(a5)
	.loc 1 123 15
	li	a0,5
	.loc 1 119 10
	addi	a3,a4,-1
	.loc 1 119 17
	sw	a3,0(a5)
	.loc 1 119 25
	srli	a3,a2,8
	.loc 1 119 17
	sb	a3,-1(a4)
	.loc 1 120 9 is_stmt 1
	.loc 1 120 13 is_stmt 0
	lw	a4,0(a5)
	.loc 1 120 10
	addi	a3,a4,-1
	.loc 1 120 17
	sw	a3,0(a5)
	.loc 1 120 25
	srli	a3,a2,16
	.loc 1 120 17
	sb	a3,-1(a4)
	.loc 1 121 9 is_stmt 1
	.loc 1 121 13 is_stmt 0
	lw	a4,0(a5)
	.loc 1 121 33
	srli	a2,a2,24
.LVL16:
	.loc 1 121 10
	addi	a3,a4,-1
	.loc 1 121 17
	sw	a3,0(a5)
	sb	a2,-1(a4)
	.loc 1 122 9 is_stmt 1
	.loc 1 122 13 is_stmt 0
	lw	a4,0(a5)
	.loc 1 122 10
	addi	a3,a4,-1
	.loc 1 122 17
	sw	a3,0(a5)
	li	a5,-124
.LVL17:
	sb	a5,-1(a4)
	.loc 1 123 9 is_stmt 1
.LVL18:
.L1:
.LBE9:
.LBE13:
	.loc 1 129 1 is_stmt 0
	ret
	.cfi_endproc
.LFE4:
	.size	mbedtls_asn1_write_len, .-mbedtls_asn1_write_len
	.section	.text.mbedtls_asn1_write_tag,"ax",@progbits
	.align	1
	.globl	mbedtls_asn1_write_tag
	.type	mbedtls_asn1_write_tag, @function
mbedtls_asn1_write_tag:
.LFB5:
	.loc 1 132 1 is_stmt 1
	.cfi_startproc
.LVL19:
	.loc 1 133 5
	.loc 1 133 9 is_stmt 0
	lw	a5,0(a0)
	.loc 1 133 12
	sub	a1,a5,a1
.LVL20:
	.loc 1 133 7
	ble	a1,zero,.L14
	.loc 1 136 5 is_stmt 1
	.loc 1 136 6 is_stmt 0
	addi	a4,a5,-1
	.loc 1 136 13
	sw	a4,0(a0)
	sb	a2,-1(a5)
	.loc 1 138 5 is_stmt 1
	.loc 1 138 11 is_stmt 0
	li	a0,1
.LVL21:
	ret
.LVL22:
.L14:
	.loc 1 134 15
	li	a0,-108
.LVL23:
	.loc 1 139 1
	ret
	.cfi_endproc
.LFE5:
	.size	mbedtls_asn1_write_tag, .-mbedtls_asn1_write_tag
	.section	.text.mbedtls_asn1_write_raw_buffer,"ax",@progbits
	.align	1
	.globl	mbedtls_asn1_write_raw_buffer
	.type	mbedtls_asn1_write_raw_buffer, @function
mbedtls_asn1_write_raw_buffer:
.LFB6:
	.loc 1 143 1 is_stmt 1
	.cfi_startproc
.LVL24:
	.loc 1 144 5
	.loc 1 146 5
	.loc 1 146 9 is_stmt 0
	lw	a5,0(a0)
	.loc 1 146 7
	bltu	a5,a1,.L17
	.loc 1 143 1 discriminator 1
	addi	sp,sp,-16
	.cfi_def_cfa_offset 16
	sw	s0,8(sp)
	sw	ra,12(sp)
	.cfi_offset 8, -8
	.cfi_offset 1, -4
	.loc 1 146 36 discriminator 1
	sub	a4,a5,a1
	mv	a6,a0
	mv	s0,a3
	.loc 1 147 15 discriminator 1
	li	a0,-108
.LVL25:
	.loc 1 146 20 discriminator 1
	bltu	a4,a3,.L15
	.loc 1 150 10
	sub	a0,a5,a3
	mv	a1,a2
.LVL26:
	.loc 1 149 5 is_stmt 1
	.loc 1 150 5
	.loc 1 150 10 is_stmt 0
	sw	a0,0(a6)
	.loc 1 151 5 is_stmt 1
	mv	a2,a3
.LVL27:
	call	memcpy
.LVL28:
	.loc 1 153 5
	.loc 1 153 13 is_stmt 0
	mv	a0,s0
.LVL29:
.L15:
	.loc 1 154 1
	lw	ra,12(sp)
	.cfi_restore 1
	lw	s0,8(sp)
	.cfi_restore 8
.LVL30:
	addi	sp,sp,16
	.cfi_def_cfa_offset 0
	jr	ra
.LVL31:
.L17:
	.loc 1 147 15
	li	a0,-108
.LVL32:
	.loc 1 154 1
	ret
	.cfi_endproc
.LFE6:
	.size	mbedtls_asn1_write_raw_buffer, .-mbedtls_asn1_write_raw_buffer
	.section	.text.mbedtls_asn1_write_mpi,"ax",@progbits
	.align	1
	.globl	mbedtls_asn1_write_mpi
	.type	mbedtls_asn1_write_mpi, @function
mbedtls_asn1_write_mpi:
.LFB7:
	.loc 1 158 1 is_stmt 1
	.cfi_startproc
.LVL33:
	.loc 1 159 5
	.loc 1 160 5
	.loc 1 164 5
	.loc 1 158 1 is_stmt 0
	addi	sp,sp,-32
	.cfi_def_cfa_offset 32
	sw	s2,16(sp)
	.cfi_offset 18, -16
	mv	s2,a0
	.loc 1 164 11
	mv	a0,a2
.LVL34:
	.loc 1 158 1
	sw	s3,12(sp)
	sw	s4,8(sp)
	.cfi_offset 19, -20
	.cfi_offset 20, -24
	mv	s3,a1
	sw	ra,28(sp)
	sw	s0,24(sp)
	sw	s1,20(sp)
	.cfi_offset 1, -4
	.cfi_offset 8, -8
	.cfi_offset 9, -12
	.loc 1 158 1
	mv	s4,a2
	.loc 1 164 11
	call	mbedtls_mpi_size
.LVL35:
	.loc 1 166 5 is_stmt 1
	.loc 1 166 9 is_stmt 0
	lw	a1,0(s2)
	.loc 1 166 7
	bgeu	a1,s3,.L24
.LVL36:
.L26:
	.loc 1 167 15
	li	s0,-108
.L23:
	.loc 1 191 1
	lw	ra,28(sp)
	.cfi_remember_state
	.cfi_restore 1
	mv	a0,s0
	lw	s0,24(sp)
	.cfi_restore 8
	lw	s1,20(sp)
	.cfi_restore 9
	lw	s2,16(sp)
	.cfi_restore 18
.LVL37:
	lw	s3,12(sp)
	.cfi_restore 19
.LVL38:
	lw	s4,8(sp)
	.cfi_restore 20
.LVL39:
	addi	sp,sp,32
	.cfi_def_cfa_offset 0
	jr	ra
.LVL40:
.L24:
	.cfi_restore_state
	.loc 1 166 36 discriminator 1
	sub	a5,a1,s3
	mv	s1,a0
	.loc 1 166 20 discriminator 1
	bltu	a5,a0,.L26
.LVL41:
	.loc 1 169 5 is_stmt 1
	.loc 1 169 10 is_stmt 0
	sub	a1,a1,a0
	.loc 1 170 23
	mv	a2,a0
	.loc 1 169 10
	sw	a1,0(s2)
	.loc 1 170 5 is_stmt 1
	.loc 1 170 10
	.loc 1 170 23 is_stmt 0
	mv	a0,s4
	call	mbedtls_mpi_write_binary
.LVL42:
	mv	s0,a0
.LVL43:
	.loc 1 170 12
	bne	a0,zero,.L23
	.loc 1 170 93 is_stmt 1 discriminator 2
	.loc 1 175 5 discriminator 2
	.loc 1 175 7 is_stmt 0 discriminator 2
	lw	a4,0(s4)
	li	a5,1
	bne	a4,a5,.L27
	.loc 1 175 22 discriminator 1
	lw	a5,0(s2)
	.loc 1 175 18 discriminator 1
	lb	a4,0(a5)
	bge	a4,zero,.L27
	.loc 1 177 9 is_stmt 1
	.loc 1 177 16 is_stmt 0
	sub	a4,a5,s3
	.loc 1 177 11
	ble	a4,zero,.L26
	.loc 1 180 9 is_stmt 1
	.loc 1 180 10 is_stmt 0
	addi	a4,a5,-1
	.loc 1 180 17
	sw	a4,0(s2)
	sb	zero,-1(a5)
	.loc 1 181 9 is_stmt 1
	.loc 1 181 13 is_stmt 0
	addi	s1,s1,1
.LVL44:
.L27:
	.loc 1 184 5 is_stmt 1
	.loc 1 184 10
	.loc 1 184 23 is_stmt 0
	mv	a2,s1
	mv	a1,s3
	mv	a0,s2
	call	mbedtls_asn1_write_len
.LVL45:
	mv	s0,a0
.LVL46:
	.loc 1 184 12
	blt	a0,zero,.L23
	.loc 1 184 92 is_stmt 1 discriminator 2
.LVL47:
	.loc 1 184 113 discriminator 2
	.loc 1 185 5 discriminator 2
	.loc 1 185 10 discriminator 2
	.loc 1 185 23 is_stmt 0 discriminator 2
	li	a2,2
	mv	a1,s3
	mv	a0,s2
	call	mbedtls_asn1_write_tag
.LVL48:
	.loc 1 185 12 discriminator 2
	blt	a0,zero,.L28
	.loc 1 185 93 is_stmt 1 discriminator 2
	.loc 1 184 98 is_stmt 0 discriminator 2
	add	s0,s0,s1
.LVL49:
	.loc 1 185 99 discriminator 2
	add	s0,a0,s0
	.loc 1 185 114 is_stmt 1 discriminator 2
	.loc 1 187 5 discriminator 2
.LVL50:
	j	.L23
.LVL51:
.L28:
	mv	s0,a0
.LVL52:
	j	.L23
	.cfi_endproc
.LFE7:
	.size	mbedtls_asn1_write_mpi, .-mbedtls_asn1_write_mpi
	.section	.text.mbedtls_asn1_write_null,"ax",@progbits
	.align	1
	.globl	mbedtls_asn1_write_null
	.type	mbedtls_asn1_write_null, @function
mbedtls_asn1_write_null:
.LFB8:
	.loc 1 195 1
	.cfi_startproc
.LVL53:
	.loc 1 196 5
	.loc 1 197 5
	.loc 1 201 5
	.loc 1 201 10
	.loc 1 195 1 is_stmt 0
	addi	sp,sp,-16
	.cfi_def_cfa_offset 16
	.loc 1 201 23
	li	a2,0
	.loc 1 195 1
	sw	s0,8(sp)
	sw	s1,4(sp)
	sw	s2,0(sp)
	sw	ra,12(sp)
	.cfi_offset 8, -8
	.cfi_offset 9, -12
	.cfi_offset 18, -16
	.cfi_offset 1, -4
	.loc 1 195 1
	mv	s1,a0
	mv	s2,a1
	.loc 1 201 23
	call	mbedtls_asn1_write_len
.LVL54:
	mv	s0,a0
.LVL55:
	.loc 1 201 12
	blt	a0,zero,.L30
	.loc 1 201 89 is_stmt 1 discriminator 2
.LVL56:
	.loc 1 201 110 discriminator 2
	.loc 1 202 5 discriminator 2
	.loc 1 202 10 discriminator 2
	.loc 1 202 23 is_stmt 0 discriminator 2
	li	a2,5
	mv	a1,s2
	mv	a0,s1
	call	mbedtls_asn1_write_tag
.LVL57:
	.loc 1 202 99 discriminator 2
	add	s0,s0,a0
.LVL58:
	.loc 1 202 12 discriminator 2
	bge	a0,zero,.L30
	mv	s0,a0
.L30:
	.loc 1 205 1
	lw	ra,12(sp)
	.cfi_restore 1
	mv	a0,s0
.LVL59:
	lw	s0,8(sp)
	.cfi_restore 8
	lw	s1,4(sp)
	.cfi_restore 9
.LVL60:
	lw	s2,0(sp)
	.cfi_restore 18
.LVL61:
	addi	sp,sp,16
	.cfi_def_cfa_offset 0
	jr	ra
	.cfi_endproc
.LFE8:
	.size	mbedtls_asn1_write_null, .-mbedtls_asn1_write_null
	.section	.text.mbedtls_asn1_write_oid,"ax",@progbits
	.align	1
	.globl	mbedtls_asn1_write_oid
	.type	mbedtls_asn1_write_oid, @function
mbedtls_asn1_write_oid:
.LFB9:
	.loc 1 209 1 is_stmt 1
	.cfi_startproc
.LVL62:
	.loc 1 210 5
	.loc 1 211 5
	.loc 1 213 5
	.loc 1 213 10
	.loc 1 209 1 is_stmt 0
	addi	sp,sp,-32
	.cfi_def_cfa_offset 32
	sw	s0,24(sp)
	sw	s1,20(sp)
	sw	s2,16(sp)
	sw	ra,28(sp)
	sw	s3,12(sp)
	.cfi_offset 8, -8
	.cfi_offset 9, -12
	.cfi_offset 18, -16
	.cfi_offset 1, -4
	.cfi_offset 19, -20
	.loc 1 209 1
	mv	s1,a0
	mv	s2,a1
	.loc 1 213 23
	call	mbedtls_asn1_write_raw_buffer
.LVL63:
	mv	s0,a0
.LVL64:
	.loc 1 213 12
	blt	a0,zero,.L34
	.loc 1 213 132 is_stmt 1 discriminator 2
	.loc 1 215 23 is_stmt 0 discriminator 2
	mv	a2,a0
	.loc 1 213 138 discriminator 2
	mv	s3,a0
.LVL65:
	.loc 1 213 153 is_stmt 1 discriminator 2
	.loc 1 215 5 discriminator 2
	.loc 1 215 10 discriminator 2
	.loc 1 215 23 is_stmt 0 discriminator 2
	mv	a1,s2
	mv	a0,s1
	call	mbedtls_asn1_write_len
.LVL66:
	mv	s0,a0
.LVL67:
	.loc 1 215 12 discriminator 2
	blt	a0,zero,.L34
	.loc 1 215 92 is_stmt 1 discriminator 2
.LVL68:
	.loc 1 215 113 discriminator 2
	.loc 1 216 5 discriminator 2
	.loc 1 216 10 discriminator 2
	.loc 1 216 23 is_stmt 0 discriminator 2
	li	a2,6
	mv	a1,s2
	mv	a0,s1
	call	mbedtls_asn1_write_tag
.LVL69:
	.loc 1 216 12 discriminator 2
	blt	a0,zero,.L36
	.loc 1 216 93 is_stmt 1 discriminator 2
	.loc 1 215 98 is_stmt 0 discriminator 2
	add	s0,s0,s3
.LVL70:
	.loc 1 216 114 is_stmt 1 discriminator 2
	.loc 1 218 5 discriminator 2
	.loc 1 216 99 is_stmt 0 discriminator 2
	add	s0,a0,s0
.LVL71:
.L34:
	.loc 1 219 1
	lw	ra,28(sp)
	.cfi_remember_state
	.cfi_restore 1
	mv	a0,s0
.LVL72:
	lw	s0,24(sp)
	.cfi_restore 8
	lw	s1,20(sp)
	.cfi_restore 9
.LVL73:
	lw	s2,16(sp)
	.cfi_restore 18
.LVL74:
	lw	s3,12(sp)
	.cfi_restore 19
	addi	sp,sp,32
	.cfi_def_cfa_offset 0
	jr	ra
.LVL75:
.L36:
	.cfi_restore_state
	mv	s0,a0
.LVL76:
	j	.L34
	.cfi_endproc
.LFE9:
	.size	mbedtls_asn1_write_oid, .-mbedtls_asn1_write_oid
	.section	.text.mbedtls_asn1_write_algorithm_identifier,"ax",@progbits
	.align	1
	.globl	mbedtls_asn1_write_algorithm_identifier
	.type	mbedtls_asn1_write_algorithm_identifier, @function
mbedtls_asn1_write_algorithm_identifier:
.LFB10:
	.loc 1 224 1 is_stmt 1
	.cfi_startproc
.LVL77:
	.loc 1 225 5
	.loc 1 226 5
	.loc 1 228 5
	.loc 1 224 1 is_stmt 0
	addi	sp,sp,-48
	.cfi_def_cfa_offset 48
	sw	s2,32(sp)
	sw	s3,28(sp)
	sw	ra,44(sp)
	sw	s0,40(sp)
	sw	s1,36(sp)
	.cfi_offset 18, -16
	.cfi_offset 19, -20
	.cfi_offset 1, -4
	.cfi_offset 8, -8
	.cfi_offset 9, -12
	.loc 1 224 1
	mv	s2,a0
	mv	s3,a1
	.loc 1 228 7
	bne	a4,zero,.L42
	sw	a3,12(sp)
	sw	a2,8(sp)
	.loc 1 229 9 is_stmt 1
	.loc 1 229 14
	.loc 1 229 27 is_stmt 0
	call	mbedtls_asn1_write_null
.LVL78:
	mv	s0,a0
.LVL79:
	.loc 1 229 16
	blt	a0,zero,.L38
	.loc 1 229 92 is_stmt 1 discriminator 2
	.loc 1 229 98 is_stmt 0 discriminator 2
	lw	a3,12(sp)
	lw	a2,8(sp)
.LVL80:
	.loc 1 229 113 is_stmt 1 discriminator 2
	.loc 1 229 98 is_stmt 0 discriminator 2
	mv	s1,a0
.LVL81:
.L39:
	.loc 1 233 5 is_stmt 1
	.loc 1 233 10
	.loc 1 233 23 is_stmt 0
	mv	a1,s3
	mv	a0,s2
	call	mbedtls_asn1_write_oid
.LVL82:
	mv	s0,a0
.LVL83:
	.loc 1 233 12
	blt	a0,zero,.L38
	.loc 1 233 101 is_stmt 1 discriminator 2
	.loc 1 233 107 is_stmt 0 discriminator 2
	add	s1,a0,s1
.LVL84:
	.loc 1 233 122 is_stmt 1 discriminator 2
	.loc 1 235 5 discriminator 2
	.loc 1 235 10 discriminator 2
	.loc 1 235 23 is_stmt 0 discriminator 2
	mv	a2,s1
	mv	a1,s3
	mv	a0,s2
	call	mbedtls_asn1_write_len
.LVL85:
	mv	s0,a0
.LVL86:
	.loc 1 235 12 discriminator 2
	blt	a0,zero,.L38
	.loc 1 235 92 is_stmt 1 discriminator 2
.LVL87:
	.loc 1 235 113 discriminator 2
	.loc 1 236 5 discriminator 2
	.loc 1 236 10 discriminator 2
	.loc 1 236 23 is_stmt 0 discriminator 2
	li	a2,48
	mv	a1,s3
	mv	a0,s2
	call	mbedtls_asn1_write_tag
.LVL88:
	.loc 1 236 12 discriminator 2
	blt	a0,zero,.L41
	.loc 1 236 100 is_stmt 1 discriminator 2
	.loc 1 235 98 is_stmt 0 discriminator 2
	add	s0,s0,s1
.LVL89:
	.loc 1 236 121 is_stmt 1 discriminator 2
	.loc 1 239 5 discriminator 2
	.loc 1 236 106 is_stmt 0 discriminator 2
	add	s0,a0,s0
.LVL90:
.L38:
	.loc 1 240 1
	lw	ra,44(sp)
	.cfi_remember_state
	.cfi_restore 1
	mv	a0,s0
.LVL91:
	lw	s0,40(sp)
	.cfi_restore 8
	lw	s1,36(sp)
	.cfi_restore 9
	lw	s2,32(sp)
	.cfi_restore 18
.LVL92:
	lw	s3,28(sp)
	.cfi_restore 19
.LVL93:
	addi	sp,sp,48
	.cfi_def_cfa_offset 0
	jr	ra
.LVL94:
.L42:
	.cfi_restore_state
	mv	s1,a4
	j	.L39
.LVL95:
.L41:
	mv	s0,a0
.LVL96:
	j	.L38
	.cfi_endproc
.LFE10:
	.size	mbedtls_asn1_write_algorithm_identifier, .-mbedtls_asn1_write_algorithm_identifier
	.section	.text.mbedtls_asn1_write_bool,"ax",@progbits
	.align	1
	.globl	mbedtls_asn1_write_bool
	.type	mbedtls_asn1_write_bool, @function
mbedtls_asn1_write_bool:
.LFB11:
	.loc 1 243 1 is_stmt 1
	.cfi_startproc
.LVL97:
	.loc 1 244 5
	.loc 1 245 5
	.loc 1 247 5
	.loc 1 243 1 is_stmt 0
	addi	sp,sp,-16
	.cfi_def_cfa_offset 16
	sw	s0,8(sp)
	sw	ra,12(sp)
	sw	s1,4(sp)
	sw	s2,0(sp)
	.cfi_offset 8, -8
	.cfi_offset 1, -4
	.cfi_offset 9, -12
	.cfi_offset 18, -16
	.loc 1 247 9
	lw	a5,0(a0)
	.loc 1 248 15
	li	s0,-108
	.loc 1 247 12
	sub	a4,a5,a1
	.loc 1 247 7
	ble	a4,zero,.L44
	.loc 1 250 6
	addi	a4,a5,-1
	.loc 1 250 13
	snez	a2,a2
.LVL98:
	sw	a4,0(a0)
	neg	a2,a2
	sb	a2,-1(a5)
	.loc 1 253 23
	li	a2,1
	mv	s1,a0
	mv	s2,a1
	.loc 1 250 5 is_stmt 1
	.loc 1 251 5
.LVL99:
	.loc 1 253 5
	.loc 1 253 10
	.loc 1 253 23 is_stmt 0
	call	mbedtls_asn1_write_len
.LVL100:
	mv	s0,a0
.LVL101:
	.loc 1 253 12
	blt	a0,zero,.L44
	.loc 1 253 92 is_stmt 1 discriminator 2
.LVL102:
	.loc 1 253 113 discriminator 2
	.loc 1 254 5 discriminator 2
	.loc 1 254 10 discriminator 2
	.loc 1 254 23 is_stmt 0 discriminator 2
	li	a2,1
	mv	a1,s2
	mv	a0,s1
	call	mbedtls_asn1_write_tag
.LVL103:
	.loc 1 254 12 discriminator 2
	blt	a0,zero,.L47
	.loc 1 254 93 is_stmt 1 discriminator 2
	.loc 1 253 98 is_stmt 0 discriminator 2
	addi	s0,s0,1
.LVL104:
	.loc 1 254 114 is_stmt 1 discriminator 2
	.loc 1 256 5 discriminator 2
	.loc 1 254 99 is_stmt 0 discriminator 2
	add	s0,a0,s0
.LVL105:
.L44:
	.loc 1 257 1
	lw	ra,12(sp)
	.cfi_remember_state
	.cfi_restore 1
	mv	a0,s0
	lw	s0,8(sp)
	.cfi_restore 8
	lw	s1,4(sp)
	.cfi_restore 9
	lw	s2,0(sp)
	.cfi_restore 18
	addi	sp,sp,16
	.cfi_def_cfa_offset 0
	jr	ra
.LVL106:
.L47:
	.cfi_restore_state
	mv	s0,a0
.LVL107:
	j	.L44
	.cfi_endproc
.LFE11:
	.size	mbedtls_asn1_write_bool, .-mbedtls_asn1_write_bool
	.section	.text.mbedtls_asn1_write_int,"ax",@progbits
	.align	1
	.globl	mbedtls_asn1_write_int
	.type	mbedtls_asn1_write_int, @function
mbedtls_asn1_write_int:
.LFB12:
	.loc 1 260 1 is_stmt 1
	.cfi_startproc
.LVL108:
	.loc 1 261 5
	.loc 1 262 5
	.loc 1 264 5
	.loc 1 260 1 is_stmt 0
	addi	sp,sp,-32
	.cfi_def_cfa_offset 32
	sw	ra,28(sp)
	sw	s0,24(sp)
	sw	s1,20(sp)
	sw	s2,16(sp)
	.cfi_offset 1, -4
	.cfi_offset 8, -8
	.cfi_offset 9, -12
	.cfi_offset 18, -16
	.loc 1 264 9
	lw	a5,0(a0)
	.loc 1 264 12
	sub	a4,a5,a1
	.loc 1 264 7
	bgt	a4,zero,.L50
.LVL109:
.L53:
	.loc 1 265 15
	li	s0,-108
.LVL110:
.L49:
	.loc 1 283 1
	lw	ra,28(sp)
	.cfi_remember_state
	.cfi_restore 1
	mv	a0,s0
	lw	s0,24(sp)
	.cfi_restore 8
	lw	s1,20(sp)
	.cfi_restore 9
	lw	s2,16(sp)
	.cfi_restore 18
	addi	sp,sp,32
	.cfi_def_cfa_offset 0
	jr	ra
.LVL111:
.L50:
	.cfi_restore_state
	.loc 1 268 6
	addi	a4,a5,-1
	.loc 1 268 13
	sw	a4,0(a0)
	sb	a2,-1(a5)
	mv	s1,a0
	.loc 1 267 5 is_stmt 1
.LVL112:
	.loc 1 268 5
	.loc 1 270 5
	.loc 1 270 7 is_stmt 0
	ble	a2,zero,.L54
.LVL113:
	.loc 1 270 21 discriminator 1
	lw	a5,0(a0)
	.loc 1 267 9 discriminator 1
	li	s2,1
	.loc 1 270 17 discriminator 1
	lb	a4,0(a5)
	bge	a4,zero,.L52
	.loc 1 272 9 is_stmt 1
	.loc 1 272 16 is_stmt 0
	sub	a4,a5,a1
	.loc 1 272 11
	ble	a4,zero,.L53
	.loc 1 275 9 is_stmt 1
	.loc 1 275 10 is_stmt 0
	addi	a4,a5,-1
	.loc 1 275 17
	sw	a4,0(a0)
	sb	zero,-1(a5)
	.loc 1 276 9 is_stmt 1
.LVL114:
	.loc 1 276 13 is_stmt 0
	li	s2,2
.LVL115:
.L52:
	.loc 1 279 5 is_stmt 1
	.loc 1 279 10
	.loc 1 279 23 is_stmt 0
	mv	a2,s2
.LVL116:
	mv	a0,s1
	sw	a1,12(sp)
	call	mbedtls_asn1_write_len
.LVL117:
	mv	s0,a0
.LVL118:
	.loc 1 279 12
	blt	a0,zero,.L49
	.loc 1 279 92 is_stmt 1 discriminator 2
.LVL119:
	.loc 1 279 113 discriminator 2
	.loc 1 280 5 discriminator 2
	.loc 1 280 10 discriminator 2
	.loc 1 280 23 is_stmt 0 discriminator 2
	lw	a1,12(sp)
	li	a2,2
	mv	a0,s1
	call	mbedtls_asn1_write_tag
.LVL120:
	.loc 1 280 12 discriminator 2
	blt	a0,zero,.L56
	.loc 1 280 93 is_stmt 1 discriminator 2
	.loc 1 279 98 is_stmt 0 discriminator 2
	add	s0,s0,s2
.LVL121:
	.loc 1 280 114 is_stmt 1 discriminator 2
	.loc 1 282 5 discriminator 2
	.loc 1 280 99 is_stmt 0 discriminator 2
	add	s0,a0,s0
.LVL122:
	.loc 1 282 13 discriminator 2
	j	.L49
.LVL123:
.L54:
	.loc 1 267 9
	li	s2,1
	j	.L52
.LVL124:
.L56:
	mv	s0,a0
.LVL125:
	j	.L49
	.cfi_endproc
.LFE12:
	.size	mbedtls_asn1_write_int, .-mbedtls_asn1_write_int
	.section	.text.mbedtls_asn1_write_tagged_string,"ax",@progbits
	.align	1
	.globl	mbedtls_asn1_write_tagged_string
	.type	mbedtls_asn1_write_tagged_string, @function
mbedtls_asn1_write_tagged_string:
.LFB13:
	.loc 1 287 1 is_stmt 1
	.cfi_startproc
.LVL126:
	.loc 1 288 5
	.loc 1 289 5
	.loc 1 291 5
	.loc 1 291 10
	.loc 1 287 1 is_stmt 0
	addi	sp,sp,-32
	.cfi_def_cfa_offset 32
	sw	s3,12(sp)
	.cfi_offset 19, -20
	mv	s3,a2
	mv	a2,a3
.LVL127:
	.loc 1 291 23
	mv	a3,a4
.LVL128:
	.loc 1 287 1
	sw	s0,24(sp)
	sw	s1,20(sp)
	sw	s2,16(sp)
	sw	ra,28(sp)
	sw	s4,8(sp)
	.cfi_offset 8, -8
	.cfi_offset 9, -12
	.cfi_offset 18, -16
	.cfi_offset 1, -4
	.cfi_offset 20, -24
	.loc 1 287 1
	mv	s1,a0
	mv	s2,a1
	.loc 1 291 23
	call	mbedtls_asn1_write_raw_buffer
.LVL129:
	mv	s0,a0
.LVL130:
	.loc 1 291 12
	blt	a0,zero,.L58
	.loc 1 291 134 is_stmt 1 discriminator 2
	.loc 1 294 23 is_stmt 0 discriminator 2
	mv	a2,a0
	.loc 1 291 140 discriminator 2
	mv	s4,a0
.LVL131:
	.loc 1 291 155 is_stmt 1 discriminator 2
	.loc 1 294 5 discriminator 2
	.loc 1 294 10 discriminator 2
	.loc 1 294 23 is_stmt 0 discriminator 2
	mv	a1,s2
	mv	a0,s1
	call	mbedtls_asn1_write_len
.LVL132:
	mv	s0,a0
.LVL133:
	.loc 1 294 12 discriminator 2
	blt	a0,zero,.L58
	.loc 1 294 92 is_stmt 1 discriminator 2
.LVL134:
	.loc 1 294 113 discriminator 2
	.loc 1 295 5 discriminator 2
	.loc 1 295 10 discriminator 2
	.loc 1 295 23 is_stmt 0 discriminator 2
	andi	a2,s3,0xff
	mv	a1,s2
	mv	a0,s1
	call	mbedtls_asn1_write_tag
.LVL135:
	.loc 1 295 12 discriminator 2
	blt	a0,zero,.L60
	.loc 1 295 92 is_stmt 1 discriminator 2
	.loc 1 294 98 is_stmt 0 discriminator 2
	add	s0,s0,s4
.LVL136:
	.loc 1 295 113 is_stmt 1 discriminator 2
	.loc 1 297 5 discriminator 2
	.loc 1 295 98 is_stmt 0 discriminator 2
	add	s0,a0,s0
.LVL137:
.L58:
	.loc 1 298 1
	lw	ra,28(sp)
	.cfi_remember_state
	.cfi_restore 1
	mv	a0,s0
.LVL138:
	lw	s0,24(sp)
	.cfi_restore 8
	lw	s1,20(sp)
	.cfi_restore 9
.LVL139:
	lw	s2,16(sp)
	.cfi_restore 18
.LVL140:
	lw	s3,12(sp)
	.cfi_restore 19
.LVL141:
	lw	s4,8(sp)
	.cfi_restore 20
	addi	sp,sp,32
	.cfi_def_cfa_offset 0
	jr	ra
.LVL142:
.L60:
	.cfi_restore_state
	mv	s0,a0
.LVL143:
	j	.L58
	.cfi_endproc
.LFE13:
	.size	mbedtls_asn1_write_tagged_string, .-mbedtls_asn1_write_tagged_string
	.section	.text.mbedtls_asn1_write_utf8_string,"ax",@progbits
	.align	1
	.globl	mbedtls_asn1_write_utf8_string
	.type	mbedtls_asn1_write_utf8_string, @function
mbedtls_asn1_write_utf8_string:
.LFB14:
	.loc 1 302 1 is_stmt 1
	.cfi_startproc
.LVL144:
	.loc 1 303 5
	.loc 1 302 1 is_stmt 0
	mv	a4,a3
	.loc 1 303 13
	mv	a3,a2
.LVL145:
	li	a2,12
.LVL146:
	tail	mbedtls_asn1_write_tagged_string
.LVL147:
	.cfi_endproc
.LFE14:
	.size	mbedtls_asn1_write_utf8_string, .-mbedtls_asn1_write_utf8_string
	.section	.text.mbedtls_asn1_write_printable_string,"ax",@progbits
	.align	1
	.globl	mbedtls_asn1_write_printable_string
	.type	mbedtls_asn1_write_printable_string, @function
mbedtls_asn1_write_printable_string:
.LFB15:
	.loc 1 308 1 is_stmt 1
	.cfi_startproc
.LVL148:
	.loc 1 309 5
	.loc 1 308 1 is_stmt 0
	mv	a4,a3
	.loc 1 309 13
	mv	a3,a2
.LVL149:
	li	a2,19
.LVL150:
	tail	mbedtls_asn1_write_tagged_string
.LVL151:
	.cfi_endproc
.LFE15:
	.size	mbedtls_asn1_write_printable_string, .-mbedtls_asn1_write_printable_string
	.section	.text.mbedtls_asn1_write_ia5_string,"ax",@progbits
	.align	1
	.globl	mbedtls_asn1_write_ia5_string
	.type	mbedtls_asn1_write_ia5_string, @function
mbedtls_asn1_write_ia5_string:
.LFB16:
	.loc 1 314 1 is_stmt 1
	.cfi_startproc
.LVL152:
	.loc 1 315 5
	.loc 1 314 1 is_stmt 0
	mv	a4,a3
	.loc 1 315 13
	mv	a3,a2
.LVL153:
	li	a2,22
.LVL154:
	tail	mbedtls_asn1_write_tagged_string
.LVL155:
	.cfi_endproc
.LFE16:
	.size	mbedtls_asn1_write_ia5_string, .-mbedtls_asn1_write_ia5_string
	.section	.text.mbedtls_asn1_write_bitstring,"ax",@progbits
	.align	1
	.globl	mbedtls_asn1_write_bitstring
	.type	mbedtls_asn1_write_bitstring, @function
mbedtls_asn1_write_bitstring:
.LFB17:
	.loc 1 320 1 is_stmt 1
	.cfi_startproc
.LVL156:
	.loc 1 321 5
	.loc 1 322 5
	.loc 1 323 5
	.loc 1 325 5
	.loc 1 320 1 is_stmt 0
	addi	sp,sp,-32
	.cfi_def_cfa_offset 32
	sw	s0,24(sp)
	sw	s2,16(sp)
	sw	s3,12(sp)
	sw	ra,28(sp)
	sw	s1,20(sp)
	sw	s4,8(sp)
	.cfi_offset 8, -8
	.cfi_offset 18, -16
	.cfi_offset 19, -20
	.cfi_offset 1, -4
	.cfi_offset 9, -12
	.cfi_offset 20, -24
	.loc 1 328 9
	lw	a4,0(a0)
	.loc 1 325 23
	addi	a5,a3,7
.LVL157:
	.loc 1 326 5 is_stmt 1
	.loc 1 326 30 is_stmt 0
	andi	s3,a5,-8
	.loc 1 320 1
	mv	s2,a1
	.loc 1 326 17
	sub	s3,s3,a3
.LVL158:
	.loc 1 328 5 is_stmt 1
	.loc 1 329 15 is_stmt 0
	li	s0,-108
	.loc 1 328 7
	bltu	a4,a1,.L65
	srli	a6,a5,3
.LVL159:
	.loc 1 328 57 discriminator 1
	addi	s4,a6,1
	.loc 1 328 36 discriminator 1
	sub	a3,a4,a1
.LVL160:
	.loc 1 329 15 discriminator 1
	li	s0,-108
	.loc 1 328 20 discriminator 1
	bltu	a3,s4,.L65
	.loc 1 334 7
	li	a3,7
	mv	s1,a0
	.loc 1 331 5 is_stmt 1
.LVL161:
	.loc 1 334 5
	.loc 1 334 7 is_stmt 0
	bleu	a5,a3,.L67
	mv	a1,a2
.LVL162:
	.loc 1 336 9 is_stmt 1
	.loc 1 336 17 is_stmt 0
	addi	a2,a6,-1
.LVL163:
	.loc 1 337 9 is_stmt 1
	.loc 1 337 24 is_stmt 0
	add	a3,a1,a2
	.loc 1 337 35
	lbu	a3,0(a3)
	.loc 1 337 46
	li	a0,1
.LVL164:
	sll	a5,a0,s3
.LVL165:
	.loc 1 337 35
	neg	a5,a5
	and	a5,a5,a3
	.loc 1 337 10
	addi	a3,a4,-1
	.loc 1 337 19
	sw	a3,0(s1)
	sb	a5,-1(a4)
	.loc 1 338 9 is_stmt 1
	.loc 1 338 16 is_stmt 0
	sub	a5,a0,a6
	lw	a0,0(s1)
	add	a0,a0,a5
	sw	a0,0(s1)
	.loc 1 339 9 is_stmt 1
	call	memcpy
.LVL166:
.L67:
	.loc 1 343 5
	.loc 1 343 10 is_stmt 0
	lw	a5,0(s1)
	.loc 1 345 23
	mv	a2,s4
	mv	a1,s2
	.loc 1 343 6
	addi	a4,a5,-1
	.loc 1 343 15
	sw	a4,0(s1)
	.loc 1 343 17
	sb	s3,-1(a5)
	.loc 1 345 5 is_stmt 1
	.loc 1 345 10
	.loc 1 345 23 is_stmt 0
	mv	a0,s1
	call	mbedtls_asn1_write_len
.LVL167:
	mv	s0,a0
.LVL168:
	.loc 1 345 12
	blt	a0,zero,.L65
	.loc 1 345 92 is_stmt 1 discriminator 2
.LVL169:
	.loc 1 345 113 discriminator 2
	.loc 1 346 5 discriminator 2
	.loc 1 346 10 discriminator 2
	.loc 1 346 23 is_stmt 0 discriminator 2
	li	a2,3
	mv	a1,s2
	mv	a0,s1
	call	mbedtls_asn1_write_tag
.LVL170:
	.loc 1 346 12 discriminator 2
	blt	a0,zero,.L70
	.loc 1 346 93 is_stmt 1 discriminator 2
	.loc 1 345 98 is_stmt 0 discriminator 2
	add	s0,s0,s4
.LVL171:
	.loc 1 346 114 is_stmt 1 discriminator 2
	.loc 1 348 5 discriminator 2
	.loc 1 346 99 is_stmt 0 discriminator 2
	add	s0,a0,s0
.LVL172:
.L65:
	.loc 1 349 1
	lw	ra,28(sp)
	.cfi_remember_state
	.cfi_restore 1
	mv	a0,s0
	lw	s0,24(sp)
	.cfi_restore 8
	lw	s1,20(sp)
	.cfi_restore 9
	lw	s2,16(sp)
	.cfi_restore 18
.LVL173:
	lw	s3,12(sp)
	.cfi_restore 19
.LVL174:
	lw	s4,8(sp)
	.cfi_restore 20
	addi	sp,sp,32
	.cfi_def_cfa_offset 0
	jr	ra
.LVL175:
.L70:
	.cfi_restore_state
	mv	s0,a0
.LVL176:
	j	.L65
	.cfi_endproc
.LFE17:
	.size	mbedtls_asn1_write_bitstring, .-mbedtls_asn1_write_bitstring
	.section	.text.mbedtls_asn1_write_octet_string,"ax",@progbits
	.align	1
	.globl	mbedtls_asn1_write_octet_string
	.type	mbedtls_asn1_write_octet_string, @function
mbedtls_asn1_write_octet_string:
.LFB18:
	.loc 1 353 1 is_stmt 1
	.cfi_startproc
.LVL177:
	.loc 1 354 5
	.loc 1 355 5
	.loc 1 357 5
	.loc 1 357 10
	.loc 1 353 1 is_stmt 0
	addi	sp,sp,-32
	.cfi_def_cfa_offset 32
	sw	s0,24(sp)
	sw	s1,20(sp)
	sw	s2,16(sp)
	sw	ra,28(sp)
	sw	s3,12(sp)
	.cfi_offset 8, -8
	.cfi_offset 9, -12
	.cfi_offset 18, -16
	.cfi_offset 1, -4
	.cfi_offset 19, -20
	.loc 1 353 1
	mv	s1,a0
	mv	s2,a1
	.loc 1 357 23
	call	mbedtls_asn1_write_raw_buffer
.LVL178:
	mv	s0,a0
.LVL179:
	.loc 1 357 12
	blt	a0,zero,.L72
	.loc 1 357 105 is_stmt 1 discriminator 2
	.loc 1 359 23 is_stmt 0 discriminator 2
	mv	a2,a0
	.loc 1 357 111 discriminator 2
	mv	s3,a0
.LVL180:
	.loc 1 357 126 is_stmt 1 discriminator 2
	.loc 1 359 5 discriminator 2
	.loc 1 359 10 discriminator 2
	.loc 1 359 23 is_stmt 0 discriminator 2
	mv	a1,s2
	mv	a0,s1
	call	mbedtls_asn1_write_len
.LVL181:
	mv	s0,a0
.LVL182:
	.loc 1 359 12 discriminator 2
	blt	a0,zero,.L72
	.loc 1 359 92 is_stmt 1 discriminator 2
.LVL183:
	.loc 1 359 113 discriminator 2
	.loc 1 360 5 discriminator 2
	.loc 1 360 10 discriminator 2
	.loc 1 360 23 is_stmt 0 discriminator 2
	li	a2,4
	mv	a1,s2
	mv	a0,s1
	call	mbedtls_asn1_write_tag
.LVL184:
	.loc 1 360 12 discriminator 2
	blt	a0,zero,.L74
	.loc 1 360 93 is_stmt 1 discriminator 2
	.loc 1 359 98 is_stmt 0 discriminator 2
	add	s0,s0,s3
.LVL185:
	.loc 1 360 114 is_stmt 1 discriminator 2
	.loc 1 362 5 discriminator 2
	.loc 1 360 99 is_stmt 0 discriminator 2
	add	s0,a0,s0
.LVL186:
.L72:
	.loc 1 363 1
	lw	ra,28(sp)
	.cfi_remember_state
	.cfi_restore 1
	mv	a0,s0
.LVL187:
	lw	s0,24(sp)
	.cfi_restore 8
	lw	s1,20(sp)
	.cfi_restore 9
.LVL188:
	lw	s2,16(sp)
	.cfi_restore 18
.LVL189:
	lw	s3,12(sp)
	.cfi_restore 19
	addi	sp,sp,32
	.cfi_def_cfa_offset 0
	jr	ra
.LVL190:
.L74:
	.cfi_restore_state
	mv	s0,a0
.LVL191:
	j	.L72
	.cfi_endproc
.LFE18:
	.size	mbedtls_asn1_write_octet_string, .-mbedtls_asn1_write_octet_string
	.section	.text.mbedtls_asn1_store_named_data,"ax",@progbits
	.align	1
	.globl	mbedtls_asn1_store_named_data
	.type	mbedtls_asn1_store_named_data, @function
mbedtls_asn1_store_named_data:
.LFB20:
	.loc 1 391 1 is_stmt 1
	.cfi_startproc
.LVL192:
	.loc 1 392 5
	.loc 1 394 5
	.loc 1 391 1 is_stmt 0
	addi	sp,sp,-32
	.cfi_def_cfa_offset 32
	sw	s2,16(sp)
	sw	s3,12(sp)
	sw	s4,8(sp)
	sw	s5,4(sp)
	sw	s6,0(sp)
	sw	ra,28(sp)
	sw	s0,24(sp)
	sw	s1,20(sp)
	.cfi_offset 18, -16
	.cfi_offset 19, -20
	.cfi_offset 20, -24
	.cfi_offset 21, -28
	.cfi_offset 22, -32
	.cfi_offset 1, -4
	.cfi_offset 8, -8
	.cfi_offset 9, -12
	.loc 1 394 17
	lw	s0,0(a0)
.LVL193:
	.loc 1 391 1
	mv	s4,a0
	mv	s5,a1
.LVL194:
	mv	s3,a2
.LVL195:
.LBB17:
.LBB18:
	.loc 1 372 5 is_stmt 1
.LBE18:
.LBE17:
	.loc 1 391 1 is_stmt 0
	mv	s6,a3
	mv	s2,a4
.LVL196:
.L77:
.LBB21:
.LBB19:
	.loc 1 372 10 is_stmt 1
	bne	s0,zero,.L81
	.loc 1 383 5
.LVL197:
.LBE19:
.LBE21:
	.loc 1 398 9
	.loc 1 398 41 is_stmt 0
	li	a1,32
	li	a0,1
	call	mbedtls_calloc
.LVL198:
	mv	s1,a0
.LVL199:
	.loc 1 400 9 is_stmt 1
	.loc 1 400 11 is_stmt 0
	beq	a0,zero,.L89
	.loc 1 403 9 is_stmt 1
	.loc 1 403 22 is_stmt 0
	sw	s3,4(s1)
	.loc 1 404 9 is_stmt 1
	.loc 1 404 22 is_stmt 0
	mv	a1,s3
	li	a0,1
	call	mbedtls_calloc
.LVL200:
	.loc 1 404 20
	sw	a0,8(s1)
	.loc 1 405 9 is_stmt 1
	.loc 1 404 22 is_stmt 0
	mv	s0,a0
	.loc 1 405 11
	bne	a0,zero,.L83
.L100:
	.loc 1 418 13 is_stmt 1
	mv	a0,s1
	call	mbedtls_free
.LVL201:
	.loc 1 419 13
.L76:
	.loc 1 445 1 is_stmt 0
	lw	ra,28(sp)
	.cfi_remember_state
	.cfi_restore 1
	mv	a0,s0
	lw	s0,24(sp)
	.cfi_restore 8
	lw	s1,20(sp)
	.cfi_restore 9
	lw	s2,16(sp)
	.cfi_restore 18
.LVL202:
	lw	s3,12(sp)
	.cfi_restore 19
.LVL203:
	lw	s4,8(sp)
	.cfi_restore 20
.LVL204:
	lw	s5,4(sp)
	.cfi_restore 21
.LVL205:
	lw	s6,0(sp)
	.cfi_restore 22
.LVL206:
	addi	sp,sp,32
	.cfi_def_cfa_offset 0
	jr	ra
.LVL207:
.L81:
	.cfi_restore_state
.LBB22:
.LBB20:
	.loc 1 374 9 is_stmt 1
	.loc 1 374 11 is_stmt 0
	lw	a5,4(s0)
	beq	s3,a5,.L78
.L80:
	.loc 1 380 9 is_stmt 1
	.loc 1 380 14 is_stmt 0
	lw	s0,24(s0)
.LVL208:
	j	.L77
.L78:
	.loc 1 375 13
	lw	a0,8(s0)
	mv	a2,s3
	mv	a1,s5
	call	memcmp
.LVL209:
	.loc 1 374 34
	bne	a0,zero,.L80
	.loc 1 383 5 is_stmt 1
.LVL210:
.LBE20:
.LBE22:
	.loc 1 425 10
	.loc 1 425 12 is_stmt 0
	lw	a5,16(s0)
	bgeu	a5,s2,.L86
.LBB23:
	.loc 1 432 9 is_stmt 1
	.loc 1 432 19 is_stmt 0
	mv	a1,s2
	li	a0,1
	call	mbedtls_calloc
.LVL211:
	mv	s1,a0
.LVL212:
	.loc 1 433 9 is_stmt 1
	.loc 1 433 11 is_stmt 0
	bne	a0,zero,.L87
.LVL213:
.L89:
	.loc 1 434 19
	li	s0,0
	j	.L76
.LVL214:
.L83:
.LBE23:
	.loc 1 411 9 is_stmt 1
	mv	a2,s3
	mv	a1,s5
	call	memcpy
.LVL215:
	.loc 1 413 9
	.loc 1 414 22 is_stmt 0
	mv	a1,s2
	.loc 1 413 22
	sw	s2,16(s1)
	.loc 1 414 9 is_stmt 1
	.loc 1 414 22 is_stmt 0
	li	a0,1
	call	mbedtls_calloc
.LVL216:
	.loc 1 414 20
	sw	a0,20(s1)
	.loc 1 415 9 is_stmt 1
	.loc 1 414 22 is_stmt 0
	mv	s0,a0
	.loc 1 415 11
	bne	a0,zero,.L85
	.loc 1 417 13 is_stmt 1
	lw	a0,8(s1)
	call	mbedtls_free
.LVL217:
	j	.L100
.L85:
	.loc 1 422 9
	.loc 1 422 21 is_stmt 0
	lw	a5,0(s4)
	mv	s0,s1
	.loc 1 422 19
	sw	a5,24(s1)
	.loc 1 423 9 is_stmt 1
	.loc 1 423 15 is_stmt 0
	sw	s1,0(s4)
.LVL218:
.L86:
	.loc 1 441 5 is_stmt 1
	.loc 1 441 7 is_stmt 0
	beq	s6,zero,.L76
	.loc 1 442 9 is_stmt 1
	lw	a0,20(s0)
	mv	a2,s2
	mv	a1,s6
	call	memcpy
.LVL219:
	j	.L76
.LVL220:
.L87:
.LBB24:
	.loc 1 436 9
	lw	a0,20(s0)
	call	mbedtls_free
.LVL221:
	.loc 1 437 9
	.loc 1 437 20 is_stmt 0
	sw	s1,20(s0)
	.loc 1 438 9 is_stmt 1
	.loc 1 438 22 is_stmt 0
	sw	s2,16(s0)
	j	.L86
.LBE24:
	.cfi_endproc
.LFE20:
	.size	mbedtls_asn1_store_named_data, .-mbedtls_asn1_store_named_data
	.text
.Letext0:
	.file 2 "/mnt/d/GitHub/bl_iot_sdk_for_aithinker/toolchain/riscv/Linux/lib/gcc/riscv64-unknown-elf/10.2.0/include/stddef.h"
	.file 3 "/mnt/d/GitHub/bl_iot_sdk_for_aithinker/toolchain/riscv/Linux/lib/gcc/riscv64-unknown-elf/10.2.0/include/stdint-gcc.h"
	.file 4 "/mnt/d/GitHub/bl_iot_sdk_for_aithinker/components/security/mbedtls_lts/mbedtls/include/mbedtls/bignum.h"
	.file 5 "/mnt/d/GitHub/bl_iot_sdk_for_aithinker/components/security/mbedtls_lts/mbedtls/include/mbedtls/asn1.h"
	.file 6 "/mnt/d/GitHub/bl_iot_sdk_for_aithinker/components/security/mbedtls_lts/mbedtls/include/mbedtls/platform.h"
	.file 7 "/mnt/d/GitHub/bl_iot_sdk_for_aithinker/toolchain/riscv/Linux/riscv64-unknown-elf/include/string.h"