	.file	"base64.c"
	.option nopic
	.attribute arch, "rv32i2p0_m2p0_f2p0_c2p0"
	.attribute unaligned_access, 0
	.attribute stack_align, 16
	.text
.Ltext0:
	.cfi_sections	.debug_frame
	.section	.text.mbedtls_base64_table_lookup,"ax",@progbits
	.align	1
	.type	mbedtls_base64_table_lookup, @function
mbedtls_base64_table_lookup:
.LFB3:
	.file 1 "/mnt/d/GitHub/bl_iot_sdk_for_aithinker/components/security/mbedtls_lts/mbedtls/library/base64.c"
	.loc 1 180 1
	.cfi_startproc
.LVL0:
	.loc 1 181 5
	.loc 1 182 5
	.loc 1 184 5
	.loc 1 184 17
	.loc 1 180 1 is_stmt 0
	mv	a6,a0
	.loc 1 184 12
	li	a4,0
	.loc 1 182 19
	li	a0,0
.LVL1:
.L2:
	.loc 1 186 9 is_stmt 1 discriminator 3
.LBB6:
.LBB7:
	.loc 1 154 5 discriminator 3
	.loc 1 154 12 is_stmt 0 discriminator 3
	xor	a5,a4,a2
.LVL2:
	.loc 1 163 5 is_stmt 1 discriminator 3
	.loc 1 163 19 is_stmt 0 discriminator 3
	neg	a3,a5
	.loc 1 163 16 discriminator 3
	or	a5,a5,a3
.LVL3:
	.loc 1 170 5 is_stmt 1 discriminator 3
	.loc 1 172 5 discriminator 3
.LBE7:
.LBE6:
.LBB9:
.LBB10:
	.loc 1 121 33 is_stmt 0 discriminator 3
	add	a3,a6,a4
	lbu	a3,0(a3)
.LBE10:
.LBE9:
.LBB13:
.LBB8:
	.loc 1 170 16 discriminator 3
	srli	a5,a5,31
.LVL4:
.LBE8:
.LBE13:
.LBB14:
.LBB11:
	.loc 1 113 5 is_stmt 1 discriminator 3
	.loc 1 113 38 is_stmt 0 discriminator 3
	addi	a5,a5,-1
.LVL5:
	.loc 1 114 5 is_stmt 1 discriminator 3
	.loc 1 115 5 discriminator 3
	.loc 1 121 5 discriminator 3
	.loc 1 121 33 is_stmt 0 discriminator 3
	and	a3,a5,a3
	.loc 1 121 47 discriminator 3
	not	a5,a5
.LVL6:
	and	a5,a5,a0
.LVL7:
	.loc 1 121 33 discriminator 3
	or	a5,a3,a5
.LBE11:
.LBE14:
	.loc 1 184 33 discriminator 3
	addi	a4,a4,1
.LVL8:
.LBB15:
.LBB12:
	.loc 1 121 33 discriminator 3
	andi	a0,a5,0xff
.LVL9:
.LBE12:
.LBE15:
	.loc 1 184 33 is_stmt 1 discriminator 3
	.loc 1 184 17 discriminator 3
	.loc 1 184 5 is_stmt 0 discriminator 3
	bne	a1,a4,.L2
	.loc 1 189 5 is_stmt 1
.LVL10:
	.loc 1 190 1 is_stmt 0
	ret
	.cfi_endproc
.LFE3:
	.size	mbedtls_base64_table_lookup, .-mbedtls_base64_table_lookup
	.section	.text.mbedtls_base64_encode,"ax",@progbits
	.align	1
	.globl	mbedtls_base64_encode
	.type	mbedtls_base64_encode, @function
mbedtls_base64_encode:
.LFB4:
	.loc 1 197 1 is_stmt 1
	.cfi_startproc
.LVL11:
	.loc 1 198 5
	.loc 1 199 5
	.loc 1 200 5
	.loc 1 202 5
	.loc 1 197 1 is_stmt 0
	addi	sp,sp,-48
	.cfi_def_cfa_offset 48
	sw	s5,20(sp)
	sw	ra,44(sp)
	sw	s0,40(sp)
	sw	s1,36(sp)
	sw	s2,32(sp)
	sw	s3,28(sp)
	sw	s4,24(sp)
	sw	s6,16(sp)
	sw	s7,12(sp)
	sw	s8,8(sp)
	sw	s9,4(sp)
	sw	s10,0(sp)
	.cfi_offset 21, -28
	.cfi_offset 1, -4
	.cfi_offset 8, -8
	.cfi_offset 9, -12
	.cfi_offset 18, -16
	.cfi_offset 19, -20
	.cfi_offset 20, -24
	.cfi_offset 22, -32
	.cfi_offset 23, -36
	.cfi_offset 24, -40
	.cfi_offset 25, -44
	.cfi_offset 26, -48
	.loc 1 197 1
	mv	s5,a2
	.loc 1 202 7
	bne	a4,zero,.L5
	.loc 1 204 9 is_stmt 1
	.loc 1 204 15 is_stmt 0
	sw	zero,0(a2)
	.loc 1 205 9 is_stmt 1
.LVL12:
.L18:
	.loc 1 267 5
	.loc 1 267 11 is_stmt 0
	li	a0,0
	j	.L4
.LVL13:
.L5:
	mv	s2,a4
	.loc 1 208 5 is_stmt 1
	.loc 1 208 14 is_stmt 0
	li	s10,3
	.loc 1 208 27
	remu	a5,s2,s10
	mv	s1,a3
	.loc 1 210 7
	li	a3,1073741824
.LVL14:
	.loc 1 208 14
	divu	a4,a4,s10
.LVL15:
	.loc 1 208 31
	snez	a5,a5
	.loc 1 208 7
	add	a5,a5,a4
.LVL16:
	.loc 1 210 5 is_stmt 1
	.loc 1 210 7 is_stmt 0
	bltu	a5,a3,.L7
	.loc 1 212 9 is_stmt 1
	.loc 1 212 15 is_stmt 0
	li	a5,-1
.LVL17:
.L8:
	.loc 1 220 9 is_stmt 1
	.loc 1 220 15 is_stmt 0
	sw	a5,0(s5)
	.loc 1 221 9 is_stmt 1
	.loc 1 221 15 is_stmt 0
	li	a0,-42
.LVL18:
.L4:
	.loc 1 268 1
	lw	ra,44(sp)
	.cfi_remember_state
	.cfi_restore 1
	lw	s0,40(sp)
	.cfi_restore 8
	lw	s1,36(sp)
	.cfi_restore 9
	lw	s2,32(sp)
	.cfi_restore 18
	lw	s3,28(sp)
	.cfi_restore 19
	lw	s4,24(sp)
	.cfi_restore 20
	lw	s5,20(sp)
	.cfi_restore 21
.LVL19:
	lw	s6,16(sp)
	.cfi_restore 22
	lw	s7,12(sp)
	.cfi_restore 23
	lw	s8,8(sp)
	.cfi_restore 24
	lw	s9,4(sp)
	.cfi_restore 25
	lw	s10,0(sp)
	.cfi_restore 26
	addi	sp,sp,48
	.cfi_def_cfa_offset 0
	jr	ra
.LVL20:
.L7:
	.cfi_restore_state
	.loc 1 216 5 is_stmt 1
	.loc 1 218 5
	.loc 1 216 7 is_stmt 0
	slli	a5,a5,2
.LVL21:
	.loc 1 218 20
	addi	a5,a5,1
.LVL22:
	.loc 1 218 7
	bgtu	a5,a1,.L8
	mv	s4,a0
	.loc 1 218 26 discriminator 1
	beq	a0,zero,.L8
	.loc 1 224 5 is_stmt 1
	.loc 1 224 7 is_stmt 0
	mul	s10,a4,s10
.LVL23:
	.loc 1 226 5 is_stmt 1
	mv	s0,a0
	.loc 1 226 12 is_stmt 0
	li	s3,0
	.loc 1 232 16
	lui	s8,%hi(.LANCHOR0)
.LVL24:
.L10:
	.loc 1 226 26 is_stmt 1 discriminator 1
	.loc 1 226 5 is_stmt 0 discriminator 1
	bltu	s3,s10,.L11
	.loc 1 245 5 is_stmt 1
	.loc 1 245 7 is_stmt 0
	bgeu	s3,s2,.L12
	.loc 1 247 9 is_stmt 1
.LVL25:
	.loc 1 248 20 is_stmt 0
	addi	s3,s3,1
.LVL26:
	.loc 1 247 12
	lbu	s6,0(s1)
.LVL27:
	.loc 1 248 9 is_stmt 1
	.loc 1 248 44 is_stmt 0
	li	s7,0
	bgeu	s3,s2,.L13
.LVL28:
	.loc 1 248 44 discriminator 1
	lbu	s7,1(s1)
.LVL29:
.L13:
	.loc 1 250 9 is_stmt 1 discriminator 4
	.loc 1 250 16 is_stmt 0 discriminator 4
	lui	s1,%hi(.LANCHOR0)
	srli	a2,s6,2
	li	a1,64
	addi	a0,s1,%lo(.LANCHOR0)
	call	mbedtls_base64_table_lookup
.LVL30:
	.loc 1 254 62 discriminator 4
	slli	s6,s6,4
.LVL31:
	andi	s6,s6,48
	.loc 1 254 76 discriminator 4
	srai	a2,s7,4
	.loc 1 250 14 discriminator 4
	sb	a0,0(s0)
	.loc 1 253 9 is_stmt 1 discriminator 4
.LVL32:
	.loc 1 253 16 is_stmt 0 discriminator 4
	add	a2,s6,a2
	li	a1,64
	addi	a0,s1,%lo(.LANCHOR0)
	call	mbedtls_base64_table_lookup
.LVL33:
	.loc 1 253 14 discriminator 4
	sb	a0,1(s0)
	.loc 1 256 9 is_stmt 1 discriminator 4
	.loc 1 259 19 is_stmt 0 discriminator 4
	li	a0,61
	.loc 1 256 11 discriminator 4
	bgeu	s3,s2,.L14
	.loc 1 257 14 is_stmt 1
.LVL34:
	.loc 1 258 66 is_stmt 0
	slli	a2,s7,2
	.loc 1 257 21
	andi	a2,a2,60
	li	a1,64
	addi	a0,s1,%lo(.LANCHOR0)
	call	mbedtls_base64_table_lookup
.LVL35:
.L14:
	.loc 1 261 14
	li	a5,61
	sb	a0,2(s0)
.LVL36:
	.loc 1 261 9 is_stmt 1
	.loc 1 261 14 is_stmt 0
	sb	a5,3(s0)
	.loc 1 261 11
	addi	s0,s0,4
.LVL37:
.L12:
	.loc 1 264 5 is_stmt 1
	.loc 1 264 15 is_stmt 0
	sub	s4,s0,s4
.LVL38:
	.loc 1 264 11
	sw	s4,0(s5)
	.loc 1 265 5 is_stmt 1
	.loc 1 265 8 is_stmt 0
	sb	zero,0(s0)
	j	.L18
.LVL39:
.L11:
	.loc 1 228 9 is_stmt 1 discriminator 3
	.loc 1 228 12 is_stmt 0 discriminator 3
	lbu	s7,0(s1)
.LVL40:
	.loc 1 229 9 is_stmt 1 discriminator 3
	.loc 1 229 12 is_stmt 0 discriminator 3
	lbu	s6,1(s1)
.LVL41:
	.loc 1 230 9 is_stmt 1 discriminator 3
	.loc 1 232 16 is_stmt 0 discriminator 3
	li	a1,64
	srli	a2,s7,2
	addi	a0,s8,%lo(.LANCHOR0)
	call	mbedtls_base64_table_lookup
.LVL42:
	.loc 1 236 62 discriminator 3
	slli	s7,s7,4
.LVL43:
	.loc 1 230 14 discriminator 3
	lbu	s9,2(s1)
	.loc 1 236 76 discriminator 3
	srai	a2,s6,4
	.loc 1 236 62 discriminator 3
	andi	s7,s7,48
	.loc 1 232 14 discriminator 3
	sb	a0,0(s0)
	.loc 1 235 16 discriminator 3
	add	a2,s7,a2
	li	a1,64
	addi	a0,s8,%lo(.LANCHOR0)
	call	mbedtls_base64_table_lookup
.LVL44:
	.loc 1 239 63 discriminator 3
	slli	s6,s6,2
.LVL45:
	andi	s6,s6,60
	.loc 1 239 77 discriminator 3
	srai	a2,s9,6
	.loc 1 235 14 discriminator 3
	sb	a0,1(s0)
	.loc 1 238 16 discriminator 3
	add	a2,s6,a2
	li	a1,64
	addi	a0,s8,%lo(.LANCHOR0)
	call	mbedtls_base64_table_lookup
.LVL46:
	.loc 1 238 14 discriminator 3
	sb	a0,2(s0)
	.loc 1 241 16 discriminator 3
	andi	a2,s9,63
	li	a1,64
	addi	a0,s8,%lo(.LANCHOR0)
	addi	s0,s0,4
.LVL47:
	call	mbedtls_base64_table_lookup
.LVL48:
	addi	s1,s1,3
.LVL49:
	.loc 1 232 9 is_stmt 1 discriminator 3
	.loc 1 235 9 discriminator 3
	.loc 1 238 9 discriminator 3
	.loc 1 241 9 discriminator 3
	.loc 1 241 14 is_stmt 0 discriminator 3
	sb	a0,-1(s0)
	.loc 1 226 33 is_stmt 1 discriminator 3
	.loc 1 226 35 is_stmt 0 discriminator 3
	addi	s3,s3,3
.LVL50:
	j	.L10
	.cfi_endproc
.LFE4:
	.size	mbedtls_base64_encode, .-mbedtls_base64_encode
	.section	.text.mbedtls_base64_decode,"ax",@progbits
	.align	1
	.globl	mbedtls_base64_decode
	.type	mbedtls_base64_decode, @function
mbedtls_base64_decode:
.LFB5:
	.loc 1 275 1 is_stmt 1
	.cfi_startproc
.LVL51:
	addi	sp,sp,-64
	.cfi_def_cfa_offset 64
	sw	s0,56(sp)
	sw	s1,52(sp)
	sw	s2,48(sp)
	sw	s3,44(sp)
	sw	s4,40(sp)
	sw	s5,36(sp)
	sw	s7,28(sp)
	sw	s8,24(sp)
	sw	s9,20(sp)
	sw	s10,16(sp)
	sw	s11,12(sp)
	.cfi_offset 8, -8
	.cfi_offset 9, -12
	.cfi_offset 18, -16
	.cfi_offset 19, -20
	.cfi_offset 20, -24
	.cfi_offset 21, -28
	.cfi_offset 23, -36
	.cfi_offset 24, -40
	.cfi_offset 25, -44
	.cfi_offset 26, -48
	.cfi_offset 27, -52
	mv	s3,a3
	.loc 1 276 5
	.loc 1 277 5
	.loc 1 278 5
	.loc 1 279 5
	.loc 1 282 5
.LVL52:
	.loc 1 275 1 is_stmt 0
	sw	ra,60(sp)
	sw	s6,32(sp)
	.cfi_offset 1, -4
	.cfi_offset 22, -32
	.loc 1 275 1
	mv	s5,a0
	mv	s8,a1
	mv	s4,a2
	mv	s0,a4
	.loc 1 282 20
	li	s7,0
	.loc 1 282 16
	li	s1,0
	.loc 1 282 12
	li	s2,0
	.loc 1 286 25
	li	s10,32
	.loc 1 296 11
	li	s11,1
	.loc 1 307 11
	li	a3,61
.LVL53:
	.loc 1 310 26
	lui	a6,%hi(.LANCHOR1)
	.loc 1 307 27
	li	t3,2
	.loc 1 300 11
	li	s9,10
	.loc 1 296 31
	li	t4,13
.LVL54:
.L20:
	.loc 1 282 25 is_stmt 1 discriminator 1
	.loc 1 282 5 is_stmt 0 discriminator 1
	bltu	s2,s0,.L43
	mv	s0,s2
.LVL55:
	j	.L21
.LVL56:
.L22:
	.loc 1 288 13 is_stmt 1
	addi	s2,s2,1
.LVL57:
	.loc 1 289 13
	addi	a5,a5,1
.LVL58:
	.loc 1 286 14
	bne	s0,s2,.L29
.LVL59:
.L21:
	.loc 1 321 5
	.loc 1 321 7 is_stmt 0
	bne	s1,zero,.L30
	.loc 1 323 9 is_stmt 1
	.loc 1 323 15 is_stmt 0
	sw	zero,0(s4)
	.loc 1 324 9 is_stmt 1
.LVL60:
.L53:
	.loc 1 361 5
	.loc 1 361 11 is_stmt 0
	li	a0,0
	j	.L19
.LVL61:
.L43:
	.loc 1 285 11
	li	a5,0
.L29:
.LVL62:
	.loc 1 286 31 discriminator 1
	add	a4,s3,s2
	.loc 1 286 25 discriminator 1
	lbu	s6,0(a4)
	beq	s6,s10,.L22
	.loc 1 293 9 is_stmt 1
	.loc 1 293 11 is_stmt 0
	beq	s0,s2,.L21
	.loc 1 296 9 is_stmt 1
	.loc 1 296 20 is_stmt 0
	sub	a2,s0,s2
	.loc 1 296 11
	beq	a2,s11,.L23
	.loc 1 296 31 discriminator 1
	bne	s6,t4,.L23
	.loc 1 297 28
	lbu	a4,1(a4)
	bne	a4,s9,.L25
.LVL63:
.L24:
	.loc 1 282 35 is_stmt 1 discriminator 2
	.loc 1 282 36 is_stmt 0 discriminator 2
	addi	s2,s2,1
.LVL64:
	j	.L20
.LVL65:
.L23:
	.loc 1 300 9 is_stmt 1
	.loc 1 300 11 is_stmt 0
	beq	s6,s9,.L24
.L25:
	.loc 1 304 9 is_stmt 1
	.loc 1 304 11 is_stmt 0
	bne	a5,zero,.L42
	.loc 1 307 9 is_stmt 1
	.loc 1 307 11 is_stmt 0
	bne	s6,a3,.L27
	.loc 1 307 30 discriminator 1
	addi	s7,s7,1
.LVL66:
	.loc 1 307 27 discriminator 1
	bgtu	s7,t3,.L42
.L27:
	.loc 1 310 9 is_stmt 1
	.loc 1 310 26 is_stmt 0
	mv	a2,s6
	.loc 1 312 11
	slli	s6,s6,24
	.loc 1 310 26
	li	a1,128
	addi	a0,a6,%lo(.LANCHOR1)
	.loc 1 312 11
	srai	s6,s6,24
	.loc 1 310 26
	call	mbedtls_base64_table_lookup
.LVL67:
	.loc 1 312 9 is_stmt 1
	.loc 1 312 11 is_stmt 0
	blt	s6,zero,.L42
	.loc 1 312 26 discriminator 1
	li	a7,127
	beq	a0,a7,.L42
	.loc 1 315 9 is_stmt 1
	.loc 1 315 11 is_stmt 0
	li	t1,63
	lui	a6,%hi(.LANCHOR1)
	li	a3,61
	li	t3,2
	li	t4,13
	bgtu	a0,t1,.L28
	.loc 1 315 33 discriminator 1
	bne	s7,zero,.L42
.L28:
	.loc 1 318 9 is_stmt 1
	.loc 1 318 10 is_stmt 0
	addi	s1,s1,1
.LVL68:
	j	.L24
.LVL69:
.L30:
	.loc 1 331 5 is_stmt 1
	.loc 1 331 42 is_stmt 0
	andi	a5,s1,7
	.loc 1 331 36
	li	a4,6
	mul	a5,a5,a4
	.loc 1 331 19
	srli	s1,s1,3
.LVL70:
	.loc 1 331 13
	mul	s1,s1,a4
	.loc 1 331 50
	addi	a5,a5,7
	.loc 1 331 56
	srli	a5,a5,3
	.loc 1 332 5 is_stmt 1
	sub	s1,s1,s7
	.loc 1 332 7 is_stmt 0
	add	s1,a5,s1
.LVL71:
	.loc 1 334 5 is_stmt 1
	.loc 1 334 7 is_stmt 0
	beq	s5,zero,.L31
	.loc 1 334 20 discriminator 1
	bgtu	s1,s8,.L31
	.loc 1 342 26
	li	s8,4194304
.LVL72:
	add	s1,s3,s0
.LVL73:
	.loc 1 340 11
	li	s6,3
	.loc 1 334 20
	mv	s0,s5
.LVL74:
	.loc 1 340 22
	li	s2,0
	.loc 1 340 18
	li	s7,0
.LVL75:
	.loc 1 342 26
	li	s9,22
	.loc 1 345 26
	lui	s10,%hi(.LANCHOR1)
	.loc 1 350 11
	li	s11,4
	.loc 1 342 26
	addi	s8,s8,9
.L32:
.LVL76:
	.loc 1 340 36 is_stmt 1 discriminator 1
	.loc 1 340 4 is_stmt 0 discriminator 1
	bne	s3,s1,.L37
	.loc 1 359 5 is_stmt 1
	.loc 1 359 15 is_stmt 0
	sub	s0,s0,s5
.LVL77:
	.loc 1 359 11
	sw	s0,0(s4)
	j	.L53
.LVL78:
.L31:
	.loc 1 336 9 is_stmt 1
	.loc 1 336 15 is_stmt 0
	sw	s1,0(s4)
	.loc 1 337 9 is_stmt 1
	.loc 1 337 15 is_stmt 0
	li	a0,-42
.LVL79:
.L19:
	.loc 1 362 1
	lw	ra,60(sp)
	.cfi_remember_state
	.cfi_restore 1
	lw	s0,56(sp)
	.cfi_restore 8
	lw	s1,52(sp)
	.cfi_restore 9
	lw	s2,48(sp)
	.cfi_restore 18
	lw	s3,44(sp)
	.cfi_restore 19
.LVL80:
	lw	s4,40(sp)
	.cfi_restore 20
.LVL81:
	lw	s5,36(sp)
	.cfi_restore 21
.LVL82:
	lw	s6,32(sp)
	.cfi_restore 22
	lw	s7,28(sp)
	.cfi_restore 23
	lw	s8,24(sp)
	.cfi_restore 24
	lw	s9,20(sp)
	.cfi_restore 25
	lw	s10,16(sp)
	.cfi_restore 26
	lw	s11,12(sp)
	.cfi_restore 27
	addi	sp,sp,64
	.cfi_def_cfa_offset 0
	jr	ra
.LVL83:
.L37:
	.cfi_restore_state
	.loc 1 342 9 is_stmt 1
	.loc 1 342 13 is_stmt 0
	lbu	a2,0(s3)
	.loc 1 342 26
	addi	a4,a2,-10
	andi	a4,a4,0xff
	bgtu	a4,s9,.L33
	.loc 1 342 26 discriminator 1
	srl	a4,s8,a4
	andi	a4,a4,1
	bne	a4,zero,.L34
.L33:
	.loc 1 345 9 is_stmt 1
	.loc 1 345 26 is_stmt 0
	li	a1,128
	addi	a0,s10,%lo(.LANCHOR1)
	call	mbedtls_base64_table_lookup
.LVL84:
	.loc 1 347 9 is_stmt 1
.LBB20:
.LBB21:
	.loc 1 154 5
	.loc 1 154 12 is_stmt 0
	xori	a5,a0,64
	andi	a5,a5,0xff
.LVL85:
	.loc 1 163 5 is_stmt 1
	.loc 1 170 5
	.loc 1 172 5
.LBE21:
.LBE20:
.LBB22:
.LBB23:
	.loc 1 138 5
	.loc 1 139 5
	.loc 1 139 10 is_stmt 0
	seqz	a5,a5
.LVL86:
	.loc 1 140 5 is_stmt 1
	.loc 1 146 5
.LBE23:
.LBE22:
	.loc 1 347 9 is_stmt 0
	addi	a4,s6,-1
.LVL87:
.LBB26:
.LBB24:
	.loc 1 140 10
	neg	a2,a5
.LVL88:
	.loc 1 146 42
	addi	a5,a5,-1
.LVL89:
	.loc 1 146 19
	and	a4,a4,a2
.LVL90:
	.loc 1 146 42
	and	a5,a5,s6
.LVL91:
.LBE24:
.LBE26:
	.loc 1 348 17
	slli	s2,s2,6
.LVL92:
	.loc 1 348 43
	andi	a0,a0,63
.LVL93:
	.loc 1 350 11
	addi	s7,s7,1
.LVL94:
.LBB27:
.LBB25:
	.loc 1 146 28
	or	s6,a4,a5
.LVL95:
.LBE25:
.LBE27:
	.loc 1 348 9 is_stmt 1
	.loc 1 348 11 is_stmt 0
	or	s2,a0,s2
.LVL96:
	.loc 1 350 9 is_stmt 1
	.loc 1 350 11 is_stmt 0
	li	a3,1
	li	a6,2
	bne	s7,s11,.L34
	.loc 1 352 13 is_stmt 1
.LVL97:
	.loc 1 353 13
	.loc 1 352 15 is_stmt 0
	li	s7,0
	.loc 1 353 15
	beq	s6,zero,.L34
	.loc 1 353 25 is_stmt 1 discriminator 1
.LVL98:
	.loc 1 353 51 is_stmt 0 discriminator 1
	srli	a5,s2,16
	.loc 1 353 32 discriminator 1
	sb	a5,0(s0)
	.loc 1 354 13 is_stmt 1 discriminator 1
	.loc 1 354 15 is_stmt 0 discriminator 1
	bne	s6,a3,.L35
	.loc 1 353 27
	addi	s0,s0,1
.LVL99:
.L34:
	.loc 1 340 43 is_stmt 1 discriminator 2
	.loc 1 340 51 is_stmt 0 discriminator 2
	addi	s3,s3,1
.LVL100:
	j	.L32
.LVL101:
.L35:
	.loc 1 354 25 is_stmt 1 discriminator 1
	.loc 1 354 51 is_stmt 0 discriminator 1
	srli	a5,s2,8
	.loc 1 354 32 discriminator 1
	sb	a5,1(s0)
	.loc 1 355 13 is_stmt 1 discriminator 1
	.loc 1 355 15 is_stmt 0 discriminator 1
	bne	s6,a6,.L36
	.loc 1 354 27
	addi	s0,s0,2
.LVL102:
	j	.L34
.LVL103:
.L36:
	.loc 1 355 25 is_stmt 1 discriminator 1
	.loc 1 355 32 is_stmt 0 discriminator 1
	sb	s2,2(s0)
	.loc 1 355 27 discriminator 1
	addi	s0,s0,3
.LVL104:
	j	.L34
.LVL105:
.L42:
	.loc 1 305 19
	li	a0,-44
.LVL106:
	j	.L19
	.cfi_endproc
.LFE5:
	.size	mbedtls_base64_decode, .-mbedtls_base64_decode
	.section	.rodata.base64_dec_map,"a"
	.align	2
	.set	.LANCHOR1,. + 0
	.type	base64_dec_map, @object
	.size	base64_dec_map, 128
base64_dec_map:
	.string	"\177\177\177\177\177\177\177\177\177\177\177\177\177\177\177\177\177\177\177\177\177\177\177\177\177\177\177\177\177\177\177\177\177\177\177\177\177\177\177\177\177\177\177>\177\177\177?456789:;<=\177\177\177@\177\177\177"
	.ascii	"\001\002\003\004\005\006\007\b\t\n\013\f\r\016\017\020\021\022"
	.ascii	"\023\024\025\026\027\030\031\177\177\177\177\177\177\032\033"
	.ascii	"\034\035\036\037 !\"#$%&'()*+,-./0123\177\177\177\177\177"
	.section	.rodata.base64_enc_map,"a"
	.align	2
	.set	.LANCHOR0,. + 0
	.type	base64_enc_map, @object
	.size	base64_enc_map, 64
base64_enc_map:
	.ascii	"ABCDEFGHIJKLMNOPQRSTUVWXYZabcdefghijklmnopqrstuvwxyz01234567"
	.ascii	"89+/"
	.text
.Letext0:
	.file 2 "/mnt/d/GitHub/bl_iot_sdk_for_aithinker/toolchain/riscv/Linux/lib/gcc/riscv64-unknown-elf/10.2.0/include/stddef.h"
	.file 3 "/mnt/d/GitHub/bl_iot_sdk_for_aithinker/toolchain/riscv/Linux/lib/gcc/riscv64-unknown-elf/10.2.0/include/stdint-gcc.h"