	.file	"bignum.c"
	.option nopic
	.attribute arch, "rv32i2p0_m2p0_f2p0_c2p0"
	.attribute unaligned_access, 0
	.attribute stack_align, 16
	.text
.Ltext0:
	.cfi_sections	.debug_frame
	.section	.text.mpi_get_digit,"ax",@progbits
	.align	1
	.type	mpi_get_digit, @function
mpi_get_digit:
.LFB21:
	.file 1 "/mnt/d/GitHub/bl_iot_sdk_for_aithinker/components/security/mbedtls_lts/mbedtls/library/bignum.c"
	.loc 1 483 1
	.cfi_startproc
.LVL0:
	.loc 1 484 5
	.loc 1 486 5
	.loc 1 486 19 is_stmt 0
	addi	a5,a2,-48
	.loc 1 486 7
	andi	a3,a5,0xff
	li	a4,9
	bgtu	a3,a4,.L2
	.loc 1 486 34 is_stmt 1 discriminator 1
	.loc 1 486 37 is_stmt 0 discriminator 1
	sw	a5,0(a0)
	.loc 1 487 5 is_stmt 1 discriminator 1
	.loc 1 488 5 discriminator 1
.LVL1:
.L3:
	.loc 1 490 5
	.loc 1 490 7 is_stmt 0
	lw	a5,0(a0)
	.loc 1 493 11
	li	a0,0
.LVL2:
	.loc 1 490 7
	bltu	a5,a1,.L1
	.loc 1 491 15
	li	a0,-6
.L1:
	.loc 1 494 1
	ret
.LVL3:
.L2:
	.loc 1 487 5 is_stmt 1
	.loc 1 487 19 is_stmt 0
	addi	a5,a2,-65
	.loc 1 487 7
	andi	a5,a5,0xff
	li	a4,5
	bgtu	a5,a4,.L4
	.loc 1 487 34 is_stmt 1 discriminator 1
	.loc 1 487 41 is_stmt 0 discriminator 1
	addi	a2,a2,-55
.LVL4:
.L7:
	.loc 1 488 37 discriminator 1
	sw	a2,0(a0)
	j	.L3
.LVL5:
.L4:
	.loc 1 484 8
	li	a5,255
	sw	a5,0(a0)
	.loc 1 488 5 is_stmt 1
	.loc 1 488 19 is_stmt 0
	addi	a5,a2,-97
	.loc 1 488 7
	andi	a5,a5,0xff
	bgtu	a5,a4,.L3
	.loc 1 488 34 is_stmt 1 discriminator 1
	.loc 1 488 41 is_stmt 0 discriminator 1
	addi	a2,a2,-87
.LVL6:
	j	.L7
	.cfi_endproc
.LFE21:
	.size	mpi_get_digit, .-mpi_get_digit
	.section	.text.mpi_sub_hlp,"ax",@progbits
	.align	1
	.type	mpi_sub_hlp, @function
mpi_sub_hlp:
.LFB40:
	.loc 1 1310 1 is_stmt 1
	.cfi_startproc
.LVL7:
	.loc 1 1311 5
	.loc 1 1312 5
	.loc 1 1314 5
	.loc 1 1310 1 is_stmt 0
	mv	a6,a0
	.loc 1 1314 12
	li	a3,0
	.loc 1 1314 16
	li	a0,0
.LVL8:
.L9:
	.loc 1 1314 21 is_stmt 1 discriminator 1
	.loc 1 1314 5 is_stmt 0 discriminator 1
	bne	a3,a6,.L10
	.loc 1 1320 5 is_stmt 1
	.loc 1 1321 1 is_stmt 0
	ret
.L10:
	.loc 1 1316 9 is_stmt 1 discriminator 3
	.loc 1 1316 15 is_stmt 0 discriminator 3
	lw	a5,0(a1)
	.loc 1 1317 18 discriminator 3
	slli	a4,a3,2
	add	a4,a2,a4
	.loc 1 1316 18 discriminator 3
	sltu	t1,a5,a0
.LVL9:
	.loc 1 1316 25 is_stmt 1 discriminator 3
	.loc 1 1316 28 is_stmt 0 discriminator 3
	sub	a5,a5,a0
	sw	a5,0(a1)
	.loc 1 1317 9 is_stmt 1 discriminator 3
	.loc 1 1317 18 is_stmt 0 discriminator 3
	lw	a7,0(a4)
	.loc 1 1314 29 discriminator 3
	addi	a3,a3,1
.LVL10:
	.loc 1 1317 18 discriminator 3
	sltu	a4,a5,a7
	.loc 1 1317 33 discriminator 3
	sub	a5,a5,a7
	sw	a5,0(a1)
	.loc 1 1317 11 discriminator 3
	add	a0,a4,t1
.LVL11:
	.loc 1 1317 30 is_stmt 1 discriminator 3
	.loc 1 1314 28 discriminator 3
	.loc 1 1314 39 is_stmt 0 discriminator 3
	addi	a1,a1,4
.LVL12:
	j	.L9
	.cfi_endproc
.LFE40:
	.size	mpi_sub_hlp, .-mpi_sub_hlp
	.section	.text.mpi_mul_hlp,"ax",@progbits
	.align	1
	.type	mpi_mul_hlp, @function
mpi_mul_hlp:
.LFB46:
	.loc 1 1505 1 is_stmt 1
	.cfi_startproc
.LVL13:
	.loc 1 1506 5
	.loc 1 1523 5
	mv	a4,a2
	mv	a7,a1
	mv	t1,a0
	.loc 1 1506 22 is_stmt 0
	li	a5,0
	.loc 1 1523 5
	li	t3,15
.LVL14:
.L12:
	.loc 1 1523 12 is_stmt 1 discriminator 1
.LBB81:
	.loc 1 1526 167 is_stmt 0 discriminator 1
	lw	a6,0(a4)
.LBE81:
	.loc 1 1523 5 discriminator 1
	bgtu	t1,t3,.L13
	srli	a4,a0,4
.LVL15:
	li	a7,-16
.LVL16:
	mul	a7,a4,a7
	slli	a4,a4,6
	add	a1,a1,a4
	add	a2,a2,a4
.LVL17:
	.loc 1 1538 5
	li	a4,7
	add	a0,a7,a0
.LVL18:
	.loc 1 1538 12 is_stmt 1
	.loc 1 1538 5 is_stmt 0
	bleu	a0,a4,.L14
.LBB82:
	.loc 1 1540 11 is_stmt 1
	.loc 1 1540 29
	.loc 1 1541 9
.LVL19:
	.loc 1 1541 11 is_stmt 0
	lw	a7,0(a1)
.LBE82:
	.loc 1 1538 22
	addi	a0,a0,-8
.LVL20:
.LBB83:
	.loc 1 1541 11
	mul	a4,a3,a7
	mulhu	a7,a3,a7
.LVL21:
	.loc 1 1541 42 is_stmt 1
	.loc 1 1541 69
	.loc 1 1541 136
	.loc 1 1541 139 is_stmt 0
	add	a4,a5,a4
.LVL22:
	.loc 1 1541 145 is_stmt 1
	.loc 1 1541 155 is_stmt 0
	sgtu	a5,a5,a4
.LVL23:
	.loc 1 1541 164
	add	a4,a6,a4
.LVL24:
	.loc 1 1541 203
	sw	a4,0(a2)
.LVL25:
	.loc 1 1541 181
	sgtu	a6,a6,a4
	.loc 1 1541 148
	add	a7,a5,a7
.LVL26:
	.loc 1 1541 161 is_stmt 1
	.loc 1 1541 171
	.loc 1 1541 211 is_stmt 0
	lw	a5,4(a1)
	.loc 1 1541 174
	add	a6,a6,a7
.LVL27:
	.loc 1 1541 188 is_stmt 1
	.loc 1 1541 196
	.loc 1 1541 209
	.loc 1 1541 211 is_stmt 0
	mul	a4,a3,a5
.LVL28:
	mulhu	a5,a3,a5
.LVL29:
	.loc 1 1541 242 is_stmt 1
	.loc 1 1541 269
	.loc 1 1541 336
	.loc 1 1541 339 is_stmt 0
	add	a4,a6,a4
.LVL30:
	.loc 1 1541 345 is_stmt 1
	.loc 1 1541 355 is_stmt 0
	sgtu	a6,a6,a4
.LVL31:
	.loc 1 1541 348
	add	a6,a5,a6
.LVL32:
	.loc 1 1541 361 is_stmt 1
	.loc 1 1541 367 is_stmt 0
	lw	a5,4(a2)
.LVL33:
	.loc 1 1541 364
	add	a4,a4,a5
.LVL34:
	.loc 1 1541 371 is_stmt 1
	.loc 1 1541 403 is_stmt 0
	sw	a4,4(a2)
.LVL35:
	.loc 1 1541 381
	sgtu	a5,a5,a4
	.loc 1 1542 11
	lw	a4,8(a1)
.LVL36:
	.loc 1 1541 374
	add	a6,a5,a6
.LVL37:
	.loc 1 1541 388 is_stmt 1
	.loc 1 1541 396
	.loc 1 1542 9
	.loc 1 1542 11 is_stmt 0
	mul	a5,a3,a4
	mulhu	a4,a3,a4
.LVL38:
	.loc 1 1542 42 is_stmt 1
	.loc 1 1542 69
	.loc 1 1542 136
	.loc 1 1542 139 is_stmt 0
	add	a5,a6,a5
.LVL39:
	.loc 1 1542 145 is_stmt 1
	.loc 1 1542 155 is_stmt 0
	sgtu	a6,a6,a5
.LVL40:
	.loc 1 1542 148
	add	a4,a4,a6
.LVL41:
	.loc 1 1542 161 is_stmt 1
	.loc 1 1542 167 is_stmt 0
	lw	a6,8(a2)
	.loc 1 1542 164
	add	a5,a5,a6
.LVL42:
	.loc 1 1542 171 is_stmt 1
	.loc 1 1542 203 is_stmt 0
	sw	a5,8(a2)
.LVL43:
	.loc 1 1542 181
	sgtu	a6,a6,a5
	.loc 1 1542 174
	add	a6,a6,a4
.LVL44:
	.loc 1 1542 188 is_stmt 1
	.loc 1 1542 196
	.loc 1 1542 209
	.loc 1 1542 211 is_stmt 0
	lw	a4,12(a1)
	mul	a7,a3,a4
	mulhu	a4,a3,a4
.LVL45:
	.loc 1 1542 242 is_stmt 1
	.loc 1 1542 269
	.loc 1 1542 336
	.loc 1 1542 339 is_stmt 0
	add	a7,a6,a7
.LVL46:
	.loc 1 1542 345 is_stmt 1
	.loc 1 1542 355 is_stmt 0
	sgtu	a6,a6,a7
.LVL47:
	.loc 1 1542 348
	add	a6,a4,a6
.LVL48:
	.loc 1 1542 361 is_stmt 1
	.loc 1 1542 367 is_stmt 0
	lw	a4,12(a2)
.LVL49:
	.loc 1 1542 364
	add	a7,a7,a4
.LVL50:
	.loc 1 1542 371 is_stmt 1
	.loc 1 1542 403 is_stmt 0
	sw	a7,12(a2)
.LVL51:
	.loc 1 1544 11
	lw	a5,16(a1)
	.loc 1 1542 381
	sgtu	a4,a4,a7
	.loc 1 1542 374
	add	a4,a4,a6
.LVL52:
	.loc 1 1542 388 is_stmt 1
	.loc 1 1542 396
	.loc 1 1544 9
	.loc 1 1544 11 is_stmt 0
	mul	a7,a3,a5
.LVL53:
	mulhu	a5,a3,a5
.LVL54:
	.loc 1 1544 42 is_stmt 1
	.loc 1 1544 69
	.loc 1 1544 136
	.loc 1 1544 139 is_stmt 0
	add	a7,a4,a7
.LVL55:
	.loc 1 1544 145 is_stmt 1
	.loc 1 1544 155 is_stmt 0
	sgtu	a4,a4,a7
.LVL56:
	.loc 1 1544 148
	add	a4,a5,a4
.LVL57:
	.loc 1 1544 161 is_stmt 1
	.loc 1 1544 167 is_stmt 0
	lw	a5,16(a2)
.LVL58:
	.loc 1 1544 164
	add	a7,a7,a5
.LVL59:
	.loc 1 1544 171 is_stmt 1
	.loc 1 1544 203 is_stmt 0
	sw	a7,16(a2)
.LVL60:
	.loc 1 1544 211
	lw	a6,20(a1)
	.loc 1 1544 181
	sgtu	a5,a5,a7
	.loc 1 1544 174
	add	a5,a5,a4
.LVL61:
	.loc 1 1544 188 is_stmt 1
	.loc 1 1544 196
	.loc 1 1544 209
	.loc 1 1544 211 is_stmt 0
	mul	a7,a3,a6
.LVL62:
	mulhu	a6,a3,a6
.LVL63:
	.loc 1 1544 242 is_stmt 1
	.loc 1 1544 269
	.loc 1 1544 336
	.loc 1 1544 339 is_stmt 0
	add	a7,a5,a7
.LVL64:
	.loc 1 1544 345 is_stmt 1
	.loc 1 1544 355 is_stmt 0
	sgtu	a5,a5,a7
.LVL65:
	.loc 1 1544 348
	add	a5,a6,a5
.LVL66:
	.loc 1 1544 361 is_stmt 1
	.loc 1 1544 367 is_stmt 0
	lw	a6,20(a2)
.LVL67:
	.loc 1 1544 364
	add	a7,a7,a6
.LVL68:
	.loc 1 1544 371 is_stmt 1
	.loc 1 1544 403 is_stmt 0
	sw	a7,20(a2)
.LVL69:
	.loc 1 1545 11
	lw	a4,24(a1)
	.loc 1 1544 381
	sgtu	a6,a6,a7
	.loc 1 1544 374
	add	a6,a6,a5
.LVL70:
	.loc 1 1544 388 is_stmt 1
	.loc 1 1544 396
	.loc 1 1545 9
	.loc 1 1545 11 is_stmt 0
	mul	a7,a3,a4
.LVL71:
	mulhu	a4,a3,a4
.LVL72:
	.loc 1 1545 42 is_stmt 1
	.loc 1 1545 69
	.loc 1 1545 136
	.loc 1 1545 139 is_stmt 0
	add	a7,a6,a7
.LVL73:
	.loc 1 1545 145 is_stmt 1
	.loc 1 1545 155 is_stmt 0
	sgtu	a6,a6,a7
.LVL74:
	.loc 1 1545 148
	add	a6,a4,a6
.LVL75:
	.loc 1 1545 161 is_stmt 1
	.loc 1 1545 167 is_stmt 0
	lw	a4,24(a2)
.LVL76:
	.loc 1 1545 164
	add	a7,a7,a4
.LVL77:
	.loc 1 1545 171 is_stmt 1
	.loc 1 1545 203 is_stmt 0
	sw	a7,24(a2)
.LVL78:
	.loc 1 1545 211
	lw	a5,28(a1)
	.loc 1 1545 181
	sgtu	a4,a4,a7
	.loc 1 1545 174
	add	a4,a4,a6
.LVL79:
	.loc 1 1545 188 is_stmt 1
	.loc 1 1545 196
	.loc 1 1545 209
	.loc 1 1545 211 is_stmt 0
	mul	a6,a3,a5
	.loc 1 1545 216
	addi	a1,a1,32
.LVL80:
	.loc 1 1545 211
	mulhu	a5,a3,a5
.LVL81:
	.loc 1 1545 242 is_stmt 1
	.loc 1 1545 269
	.loc 1 1545 336
	.loc 1 1545 339 is_stmt 0
	add	a6,a4,a6
.LVL82:
	.loc 1 1545 345 is_stmt 1
	.loc 1 1545 355 is_stmt 0
	sgtu	a4,a4,a6
.LVL83:
	.loc 1 1545 348
	add	a4,a5,a4
.LVL84:
	.loc 1 1545 361 is_stmt 1
	.loc 1 1545 367 is_stmt 0
	lw	a5,28(a2)
.LVL85:
	.loc 1 1545 364
	add	a6,a6,a5
.LVL86:
	.loc 1 1545 371 is_stmt 1
	.loc 1 1545 381 is_stmt 0
	sgtu	a5,a5,a6
	.loc 1 1545 403
	sw	a6,28(a2)
.LVL87:
	.loc 1 1545 374
	add	a5,a5,a4
.LVL88:
	.loc 1 1545 388 is_stmt 1
	.loc 1 1545 396
.LBE83:
	.loc 1 1538 20
	.loc 1 1538 12
.LBB84:
	.loc 1 1545 399 is_stmt 0
	addi	a2,a2,32
.LVL89:
.L14:
	slli	a0,a0,2
.LVL90:
	add	t3,a1,a0
	.loc 1 1545 216 discriminator 1
	mv	a6,a2
.LVL91:
.L15:
.LBE84:
	.loc 1 1549 12 is_stmt 1 discriminator 1
.LBB85:
	.loc 1 1552 167 is_stmt 0 discriminator 1
	lw	a7,0(a6)
	.loc 1 1552 199 discriminator 1
	addi	a6,a6,4
.LVL92:
.LBE85:
	.loc 1 1549 5 discriminator 1
	bne	t3,a1,.L16
	add	a2,a2,a0
.LVL93:
.L17:
	.loc 1 1559 5 is_stmt 1 discriminator 1
	.loc 1 1560 9 discriminator 1
	.loc 1 1560 12 is_stmt 0 discriminator 1
	lw	a4,0(a2)
	add	a4,a5,a4
	sw	a4,0(a2)
	.loc 1 1560 18 is_stmt 1 discriminator 1
.LVL94:
	.loc 1 1560 34 discriminator 1
	.loc 1 1560 35 is_stmt 0 discriminator 1
	addi	a2,a2,4
.LVL95:
	.loc 1 1562 10 is_stmt 1 discriminator 1
	.loc 1 1562 5 is_stmt 0 discriminator 1
	bltu	a4,a5,.L18
	.loc 1 1563 1
	ret
.LVL96:
.L13:
.LBB86:
	.loc 1 1525 11 is_stmt 1 discriminator 2
	.loc 1 1525 29 discriminator 2
	.loc 1 1526 9 discriminator 2
	.loc 1 1526 11 is_stmt 0 discriminator 2
	lw	t5,0(a7)
	addi	a7,a7,64
.LVL97:
.LBE86:
	.loc 1 1523 23 discriminator 2
	addi	t1,t1,-16
.LVL98:
.LBB87:
	.loc 1 1526 11 discriminator 2
	mul	t4,a3,t5
	mulhu	t5,a3,t5
.LVL99:
	.loc 1 1526 42 is_stmt 1 discriminator 2
	.loc 1 1526 69 discriminator 2
	.loc 1 1526 136 discriminator 2
	.loc 1 1526 139 is_stmt 0 discriminator 2
	add	t4,a5,t4
.LVL100:
	.loc 1 1526 145 is_stmt 1 discriminator 2
	.loc 1 1526 155 is_stmt 0 discriminator 2
	sgtu	a5,a5,t4
.LVL101:
	.loc 1 1526 164 discriminator 2
	add	t4,t4,a6
.LVL102:
	.loc 1 1526 203 discriminator 2
	sw	t4,0(a4)
.LVL103:
	.loc 1 1526 181 discriminator 2
	sltu	a6,t4,a6
	.loc 1 1526 148 discriminator 2
	add	t5,a5,t5
.LVL104:
	.loc 1 1526 161 is_stmt 1 discriminator 2
	.loc 1 1526 171 discriminator 2
	.loc 1 1526 211 is_stmt 0 discriminator 2
	lw	a5,-60(a7)
	.loc 1 1526 174 discriminator 2
	add	a6,a6,t5
.LVL105:
	.loc 1 1526 188 is_stmt 1 discriminator 2
	.loc 1 1526 196 discriminator 2
	.loc 1 1526 209 discriminator 2
	.loc 1 1526 211 is_stmt 0 discriminator 2
	mul	t4,a3,a5
.LVL106:
	mulhu	a5,a3,a5
.LVL107:
	.loc 1 1526 242 is_stmt 1 discriminator 2
	.loc 1 1526 269 discriminator 2
	.loc 1 1526 336 discriminator 2
	.loc 1 1526 339 is_stmt 0 discriminator 2
	add	t4,a6,t4
.LVL108:
	.loc 1 1526 345 is_stmt 1 discriminator 2
	.loc 1 1526 355 is_stmt 0 discriminator 2
	sgtu	a6,a6,t4
.LVL109:
	.loc 1 1526 348 discriminator 2
	add	a6,a6,a5
.LVL110:
	.loc 1 1526 361 is_stmt 1 discriminator 2
	.loc 1 1526 367 is_stmt 0 discriminator 2
	lw	a5,4(a4)
.LVL111:
	.loc 1 1526 364 discriminator 2
	add	t4,a5,t4
.LVL112:
	.loc 1 1526 371 is_stmt 1 discriminator 2
	.loc 1 1526 403 is_stmt 0 discriminator 2
	sw	t4,4(a4)
.LVL113:
	.loc 1 1526 381 discriminator 2
	sgtu	a5,a5,t4
	.loc 1 1526 374 discriminator 2
	add	a5,a5,a6
.LVL114:
	.loc 1 1526 388 is_stmt 1 discriminator 2
	.loc 1 1526 396 discriminator 2
	.loc 1 1527 9 discriminator 2
	.loc 1 1527 11 is_stmt 0 discriminator 2
	lw	a6,-56(a7)
	mul	t4,a3,a6
.LVL115:
	mulhu	a6,a3,a6
.LVL116:
	.loc 1 1527 42 is_stmt 1 discriminator 2
	.loc 1 1527 69 discriminator 2
	.loc 1 1527 136 discriminator 2
	.loc 1 1527 139 is_stmt 0 discriminator 2
	add	t4,a5,t4
.LVL117:
	.loc 1 1527 145 is_stmt 1 discriminator 2
	.loc 1 1527 155 is_stmt 0 discriminator 2
	sgtu	a5,a5,t4
.LVL118:
	.loc 1 1527 148 discriminator 2
	add	a5,a5,a6
.LVL119:
	.loc 1 1527 161 is_stmt 1 discriminator 2
	.loc 1 1527 167 is_stmt 0 discriminator 2
	lw	a6,8(a4)
.LVL120:
	.loc 1 1527 164 discriminator 2
	add	t4,a6,t4
.LVL121:
	.loc 1 1527 171 is_stmt 1 discriminator 2
	.loc 1 1527 203 is_stmt 0 discriminator 2
	sw	t4,8(a4)
.LVL122:
	.loc 1 1527 181 discriminator 2
	sgtu	a6,a6,t4
	.loc 1 1527 174 discriminator 2
	add	a6,a6,a5
.LVL123:
	.loc 1 1527 188 is_stmt 1 discriminator 2
	.loc 1 1527 196 discriminator 2
	.loc 1 1527 209 discriminator 2
	.loc 1 1527 211 is_stmt 0 discriminator 2
	lw	a5,-52(a7)
	mul	t4,a3,a5
.LVL124:
	mulhu	a5,a3,a5
.LVL125:
	.loc 1 1527 242 is_stmt 1 discriminator 2
	.loc 1 1527 269 discriminator 2
	.loc 1 1527 336 discriminator 2
	.loc 1 1527 339 is_stmt 0 discriminator 2
	add	t4,a6,t4
.LVL126:
	.loc 1 1527 345 is_stmt 1 discriminator 2
	.loc 1 1527 355 is_stmt 0 discriminator 2
	sgtu	a6,a6,t4
.LVL127:
	.loc 1 1527 348 discriminator 2
	add	a6,a6,a5
.LVL128:
	.loc 1 1527 361 is_stmt 1 discriminator 2
	.loc 1 1527 367 is_stmt 0 discriminator 2
	lw	a5,12(a4)
.LVL129:
	.loc 1 1527 364 discriminator 2
	add	t4,a5,t4
.LVL130:
	.loc 1 1527 371 is_stmt 1 discriminator 2
	.loc 1 1527 403 is_stmt 0 discriminator 2
	sw	t4,12(a4)
.LVL131:
	.loc 1 1527 381 discriminator 2
	sgtu	a5,a5,t4
	.loc 1 1527 374 discriminator 2
	add	a5,a5,a6
.LVL132:
	.loc 1 1527 388 is_stmt 1 discriminator 2
	.loc 1 1527 396 discriminator 2
	.loc 1 1528 9 discriminator 2
	.loc 1 1528 11 is_stmt 0 discriminator 2
	lw	a6,-48(a7)
	mul	t4,a3,a6
.LVL133:
	mulhu	a6,a3,a6
.LVL134:
	.loc 1 1528 42 is_stmt 1 discriminator 2
	.loc 1 1528 69 discriminator 2
	.loc 1 1528 136 discriminator 2
	.loc 1 1528 139 is_stmt 0 discriminator 2
	add	t4,a5,t4
.LVL135:
	.loc 1 1528 145 is_stmt 1 discriminator 2
	.loc 1 1528 155 is_stmt 0 discriminator 2
	sgtu	a5,a5,t4
.LVL136:
	.loc 1 1528 148 discriminator 2
	add	a5,a5,a6
.LVL137:
	.loc 1 1528 161 is_stmt 1 discriminator 2
	.loc 1 1528 167 is_stmt 0 discriminator 2
	lw	a6,16(a4)
.LVL138:
	.loc 1 1528 164 discriminator 2
	add	t4,a6,t4
.LVL139:
	.loc 1 1528 171 is_stmt 1 discriminator 2
	.loc 1 1528 203 is_stmt 0 discriminator 2
	sw	t4,16(a4)
.LVL140:
	.loc 1 1528 181 discriminator 2
	sgtu	a6,a6,t4
	.loc 1 1528 174 discriminator 2
	add	a6,a6,a5
.LVL141:
	.loc 1 1528 188 is_stmt 1 discriminator 2
	.loc 1 1528 196 discriminator 2
	.loc 1 1528 209 discriminator 2
	.loc 1 1528 211 is_stmt 0 discriminator 2
	lw	a5,-44(a7)
	mul	t4,a3,a5
.LVL142:
	mulhu	a5,a3,a5
.LVL143:
	.loc 1 1528 242 is_stmt 1 discriminator 2
	.loc 1 1528 269 discriminator 2
	.loc 1 1528 336 discriminator 2
	.loc 1 1528 339 is_stmt 0 discriminator 2
	add	t4,a6,t4
.LVL144:
	.loc 1 1528 345 is_stmt 1 discriminator 2
	.loc 1 1528 355 is_stmt 0 discriminator 2
	sgtu	a6,a6,t4
.LVL145:
	.loc 1 1528 348 discriminator 2
	add	a6,a6,a5
.LVL146:
	.loc 1 1528 361 is_stmt 1 discriminator 2
	.loc 1 1528 367 is_stmt 0 discriminator 2
	lw	a5,20(a4)
.LVL147:
	.loc 1 1528 364 discriminator 2
	add	t4,a5,t4
.LVL148:
	.loc 1 1528 371 is_stmt 1 discriminator 2
	.loc 1 1528 403 is_stmt 0 discriminator 2
	sw	t4,20(a4)
.LVL149:
	.loc 1 1528 381 discriminator 2
	sgtu	a5,a5,t4
	.loc 1 1528 374 discriminator 2
	add	a5,a5,a6
.LVL150:
	.loc 1 1528 388 is_stmt 1 discriminator 2
	.loc 1 1528 396 discriminator 2
	.loc 1 1529 9 discriminator 2
	.loc 1 1529 11 is_stmt 0 discriminator 2
	lw	a6,-40(a7)
	mul	t4,a3,a6
.LVL151:
	mulhu	a6,a3,a6
.LVL152:
	.loc 1 1529 42 is_stmt 1 discriminator 2
	.loc 1 1529 69 discriminator 2
	.loc 1 1529 136 discriminator 2
	.loc 1 1529 139 is_stmt 0 discriminator 2
	add	t4,a5,t4
.LVL153:
	.loc 1 1529 145 is_stmt 1 discriminator 2
	.loc 1 1529 155 is_stmt 0 discriminator 2
	sgtu	a5,a5,t4
.LVL154:
	.loc 1 1529 148 discriminator 2
	add	a5,a5,a6
.LVL155:
	.loc 1 1529 161 is_stmt 1 discriminator 2
	.loc 1 1529 167 is_stmt 0 discriminator 2
	lw	a6,24(a4)
.LVL156:
	.loc 1 1529 164 discriminator 2
	add	t4,a6,t4
.LVL157:
	.loc 1 1529 171 is_stmt 1 discriminator 2
	.loc 1 1529 203 is_stmt 0 discriminator 2
	sw	t4,24(a4)
.LVL158:
	.loc 1 1529 181 discriminator 2
	sgtu	a6,a6,t4
	.loc 1 1529 174 discriminator 2
	add	a6,a6,a5
.LVL159:
	.loc 1 1529 188 is_stmt 1 discriminator 2
	.loc 1 1529 196 discriminator 2
	.loc 1 1529 209 discriminator 2
	.loc 1 1529 211 is_stmt 0 discriminator 2
	lw	a5,-36(a7)
	mul	t4,a3,a5
.LVL160:
	mulhu	a5,a3,a5
.LVL161:
	.loc 1 1529 242 is_stmt 1 discriminator 2
	.loc 1 1529 269 discriminator 2
	.loc 1 1529 336 discriminator 2
	.loc 1 1529 339 is_stmt 0 discriminator 2
	add	t4,a6,t4
.LVL162:
	.loc 1 1529 345 is_stmt 1 discriminator 2
	.loc 1 1529 355 is_stmt 0 discriminator 2
	sgtu	a6,a6,t4
.LVL163:
	.loc 1 1529 348 discriminator 2
	add	a6,a6,a5
.LVL164:
	.loc 1 1529 361 is_stmt 1 discriminator 2
	.loc 1 1529 367 is_stmt 0 discriminator 2
	lw	a5,28(a4)
.LVL165:
	.loc 1 1529 364 discriminator 2
	add	t4,a5,t4
.LVL166:
	.loc 1 1529 371 is_stmt 1 discriminator 2
	.loc 1 1529 403 is_stmt 0 discriminator 2
	sw	t4,28(a4)
.LVL167:
	.loc 1 1529 381 discriminator 2
	sgtu	a5,a5,t4
	.loc 1 1529 374 discriminator 2
	add	a5,a5,a6
.LVL168:
	.loc 1 1529 388 is_stmt 1 discriminator 2
	.loc 1 1529 396 discriminator 2
	.loc 1 1531 9 discriminator 2
	.loc 1 1531 11 is_stmt 0 discriminator 2
	lw	a6,-32(a7)
	mul	t4,a3,a6
.LVL169:
	mulhu	a6,a3,a6
.LVL170:
	.loc 1 1531 42 is_stmt 1 discriminator 2
	.loc 1 1531 69 discriminator 2
	.loc 1 1531 136 discriminator 2
	.loc 1 1531 139 is_stmt 0 discriminator 2
	add	t4,a5,t4
.LVL171:
	.loc 1 1531 145 is_stmt 1 discriminator 2
	.loc 1 1531 155 is_stmt 0 discriminator 2
	sgtu	a5,a5,t4
.LVL172:
	.loc 1 1531 148 discriminator 2
	add	a5,a5,a6
.LVL173:
	.loc 1 1531 161 is_stmt 1 discriminator 2
	.loc 1 1531 167 is_stmt 0 discriminator 2
	lw	a6,32(a4)
.LVL174:
	.loc 1 1531 164 discriminator 2
	add	t4,a6,t4
.LVL175:
	.loc 1 1531 171 is_stmt 1 discriminator 2
	.loc 1 1531 203 is_stmt 0 discriminator 2
	sw	t4,32(a4)
.LVL176:
	.loc 1 1531 181 discriminator 2
	sgtu	a6,a6,t4
	.loc 1 1531 174 discriminator 2
	add	a6,a6,a5
.LVL177:
	.loc 1 1531 188 is_stmt 1 discriminator 2
	.loc 1 1531 196 discriminator 2
	.loc 1 1531 209 discriminator 2
	.loc 1 1531 211 is_stmt 0 discriminator 2
	lw	a5,-28(a7)
	mul	t4,a3,a5
.LVL178:
	mulhu	a5,a3,a5
.LVL179:
	.loc 1 1531 242 is_stmt 1 discriminator 2
	.loc 1 1531 269 discriminator 2
	.loc 1 1531 336 discriminator 2
	.loc 1 1531 339 is_stmt 0 discriminator 2
	add	t4,a6,t4
.LVL180:
	.loc 1 1531 345 is_stmt 1 discriminator 2
	.loc 1 1531 355 is_stmt 0 discriminator 2
	sgtu	a6,a6,t4
.LVL181:
	.loc 1 1531 348 discriminator 2
	add	a6,a6,a5
.LVL182:
	.loc 1 1531 361 is_stmt 1 discriminator 2
	.loc 1 1531 367 is_stmt 0 discriminator 2
	lw	a5,36(a4)
.LVL183:
	.loc 1 1531 364 discriminator 2
	add	t4,a5,t4
.LVL184:
	.loc 1 1531 371 is_stmt 1 discriminator 2
	.loc 1 1531 403 is_stmt 0 discriminator 2
	sw	t4,36(a4)
.LVL185:
	.loc 1 1531 381 discriminator 2
	sgtu	a5,a5,t4
	.loc 1 1531 374 discriminator 2
	add	a5,a5,a6
.LVL186:
	.loc 1 1531 388 is_stmt 1 discriminator 2
	.loc 1 1531 396 discriminator 2
	.loc 1 1532 9 discriminator 2
	.loc 1 1532 11 is_stmt 0 discriminator 2
	lw	a6,-24(a7)
	mul	t4,a3,a6
.LVL187:
	mulhu	a6,a3,a6
.LVL188:
	.loc 1 1532 42 is_stmt 1 discriminator 2
	.loc 1 1532 69 discriminator 2
	.loc 1 1532 136 discriminator 2
	.loc 1 1532 139 is_stmt 0 discriminator 2
	add	t4,a5,t4
.LVL189:
	.loc 1 1532 145 is_stmt 1 discriminator 2
	.loc 1 1532 155 is_stmt 0 discriminator 2
	sgtu	a5,a5,t4
.LVL190:
	.loc 1 1532 148 discriminator 2
	add	a5,a5,a6
.LVL191:
	.loc 1 1532 161 is_stmt 1 discriminator 2
	.loc 1 1532 167 is_stmt 0 discriminator 2
	lw	a6,40(a4)
.LVL192:
	.loc 1 1532 164 discriminator 2
	add	t4,a6,t4
.LVL193:
	.loc 1 1532 171 is_stmt 1 discriminator 2
	.loc 1 1532 203 is_stmt 0 discriminator 2
	sw	t4,40(a4)
.LVL194:
	.loc 1 1532 181 discriminator 2
	sgtu	a6,a6,t4
	.loc 1 1532 174 discriminator 2
	add	a6,a6,a5
.LVL195:
	.loc 1 1532 188 is_stmt 1 discriminator 2
	.loc 1 1532 196 discriminator 2
	.loc 1 1532 209 discriminator 2
	.loc 1 1532 211 is_stmt 0 discriminator 2
	lw	a5,-20(a7)
	mul	t4,a3,a5
.LVL196:
	mulhu	a5,a3,a5
.LVL197:
	.loc 1 1532 242 is_stmt 1 discriminator 2
	.loc 1 1532 269 discriminator 2
	.loc 1 1532 336 discriminator 2
	.loc 1 1532 339 is_stmt 0 discriminator 2
	add	t4,a6,t4
.LVL198:
	.loc 1 1532 345 is_stmt 1 discriminator 2
	.loc 1 1532 355 is_stmt 0 discriminator 2
	sgtu	a6,a6,t4
.LVL199:
	.loc 1 1532 348 discriminator 2
	add	a6,a6,a5
.LVL200:
	.loc 1 1532 361 is_stmt 1 discriminator 2
	.loc 1 1532 367 is_stmt 0 discriminator 2
	lw	a5,44(a4)
.LVL201:
	.loc 1 1532 364 discriminator 2
	add	t4,a5,t4
.LVL202:
	.loc 1 1532 371 is_stmt 1 discriminator 2
	.loc 1 1532 403 is_stmt 0 discriminator 2
	sw	t4,44(a4)
.LVL203:
	.loc 1 1532 381 discriminator 2
	sgtu	a5,a5,t4
	.loc 1 1532 374 discriminator 2
	add	a5,a5,a6
.LVL204:
	.loc 1 1532 388 is_stmt 1 discriminator 2
	.loc 1 1532 396 discriminator 2
	.loc 1 1533 9 discriminator 2
	.loc 1 1533 11 is_stmt 0 discriminator 2
	lw	a6,-16(a7)
	mul	t4,a3,a6
.LVL205:
	mulhu	a6,a3,a6
.LVL206:
	.loc 1 1533 42 is_stmt 1 discriminator 2
	.loc 1 1533 69 discriminator 2
	.loc 1 1533 136 discriminator 2
	.loc 1 1533 139 is_stmt 0 discriminator 2
	add	t4,a5,t4
.LVL207:
	.loc 1 1533 145 is_stmt 1 discriminator 2
	.loc 1 1533 155 is_stmt 0 discriminator 2
	sgtu	a5,a5,t4
.LVL208:
	.loc 1 1533 148 discriminator 2
	add	a5,a5,a6
.LVL209:
	.loc 1 1533 161 is_stmt 1 discriminator 2
	.loc 1 1533 167 is_stmt 0 discriminator 2
	lw	a6,48(a4)
.LVL210:
	.loc 1 1533 164 discriminator 2
	add	t4,a6,t4
.LVL211:
	.loc 1 1533 171 is_stmt 1 discriminator 2
	.loc 1 1533 203 is_stmt 0 discriminator 2
	sw	t4,48(a4)
.LVL212:
	.loc 1 1533 181 discriminator 2
	sgtu	a6,a6,t4
	.loc 1 1533 174 discriminator 2
	add	a6,a6,a5
.LVL213:
	.loc 1 1533 188 is_stmt 1 discriminator 2
	.loc 1 1533 196 discriminator 2
	.loc 1 1533 209 discriminator 2
	.loc 1 1533 211 is_stmt 0 discriminator 2
	lw	a5,-12(a7)
	mul	t4,a3,a5
.LVL214:
	mulhu	a5,a3,a5
.LVL215:
	.loc 1 1533 242 is_stmt 1 discriminator 2
	.loc 1 1533 269 discriminator 2
	.loc 1 1533 336 discriminator 2
	.loc 1 1533 339 is_stmt 0 discriminator 2
	add	t4,a6,t4
.LVL216:
	.loc 1 1533 345 is_stmt 1 discriminator 2
	.loc 1 1533 355 is_stmt 0 discriminator 2
	sgtu	a6,a6,t4
.LVL217:
	.loc 1 1533 348 discriminator 2
	add	a6,a6,a5
.LVL218:
	.loc 1 1533 361 is_stmt 1 discriminator 2
	.loc 1 1533 367 is_stmt 0 discriminator 2
	lw	a5,52(a4)
.LVL219:
	.loc 1 1533 364 discriminator 2
	add	t4,a5,t4
.LVL220:
	.loc 1 1533 371 is_stmt 1 discriminator 2
	.loc 1 1533 403 is_stmt 0 discriminator 2
	sw	t4,52(a4)
.LVL221:
	.loc 1 1533 381 discriminator 2
	sgtu	a5,a5,t4
	.loc 1 1533 374 discriminator 2
	add	a5,a5,a6
.LVL222:
	.loc 1 1533 388 is_stmt 1 discriminator 2
	.loc 1 1533 396 discriminator 2
	.loc 1 1534 9 discriminator 2
	.loc 1 1534 11 is_stmt 0 discriminator 2
	lw	a6,-8(a7)
	mul	t4,a3,a6
.LVL223:
	mulhu	a6,a3,a6
.LVL224:
	.loc 1 1534 42 is_stmt 1 discriminator 2
	.loc 1 1534 69 discriminator 2
	.loc 1 1534 136 discriminator 2
	.loc 1 1534 139 is_stmt 0 discriminator 2
	add	t4,a5,t4
.LVL225:
	.loc 1 1534 145 is_stmt 1 discriminator 2
	.loc 1 1534 155 is_stmt 0 discriminator 2
	sgtu	a5,a5,t4
.LVL226:
	.loc 1 1534 148 discriminator 2
	add	a5,a5,a6
.LVL227:
	.loc 1 1534 161 is_stmt 1 discriminator 2
	.loc 1 1534 167 is_stmt 0 discriminator 2
	lw	a6,56(a4)
.LVL228:
	.loc 1 1534 164 discriminator 2
	add	t4,a6,t4
.LVL229:
	.loc 1 1534 171 is_stmt 1 discriminator 2
	.loc 1 1534 203 is_stmt 0 discriminator 2
	sw	t4,56(a4)
.LVL230:
	.loc 1 1534 181 discriminator 2
	sgtu	a6,a6,t4
	.loc 1 1534 174 discriminator 2
	add	a6,a6,a5
.LVL231:
	.loc 1 1534 188 is_stmt 1 discriminator 2
	.loc 1 1534 196 discriminator 2
	.loc 1 1534 209 discriminator 2
	.loc 1 1534 211 is_stmt 0 discriminator 2
	lw	a5,-4(a7)
	mul	t4,a3,a5
.LVL232:
	mulhu	a5,a3,a5
.LVL233:
	.loc 1 1534 242 is_stmt 1 discriminator 2
	.loc 1 1534 269 discriminator 2
	.loc 1 1534 336 discriminator 2
	.loc 1 1534 339 is_stmt 0 discriminator 2
	add	t4,a6,t4
.LVL234:
	.loc 1 1534 345 is_stmt 1 discriminator 2
	.loc 1 1534 355 is_stmt 0 discriminator 2
	sgtu	a6,a6,t4
.LVL235:
	.loc 1 1534 348 discriminator 2
	add	a6,a6,a5
.LVL236:
	.loc 1 1534 361 is_stmt 1 discriminator 2
	.loc 1 1534 367 is_stmt 0 discriminator 2
	lw	a5,60(a4)
.LVL237:
	addi	a4,a4,64
.LVL238:
	.loc 1 1534 364 discriminator 2
	add	t4,a5,t4
.LVL239:
	.loc 1 1534 371 is_stmt 1 discriminator 2
	.loc 1 1534 381 is_stmt 0 discriminator 2
	sgtu	a5,a5,t4
	.loc 1 1534 374 discriminator 2
	add	a5,a5,a6
.LVL240:
	.loc 1 1534 388 is_stmt 1 discriminator 2
	.loc 1 1534 396 discriminator 2
	.loc 1 1534 403 is_stmt 0 discriminator 2
	sw	t4,-4(a4)
.LVL241:
.LBE87:
	.loc 1 1523 21 is_stmt 1 discriminator 2
	j	.L12
.LVL242:
.L16:
.LBB88:
	.loc 1 1551 11 discriminator 2
	.loc 1 1551 29 discriminator 2
	.loc 1 1552 9 discriminator 2
	.loc 1 1552 11 is_stmt 0 discriminator 2
	lw	t1,0(a1)
	.loc 1 1552 16 discriminator 2
	addi	a1,a1,4
.LVL243:
	.loc 1 1552 11 discriminator 2
	mul	a4,a3,t1
	mulhu	t1,a3,t1
.LVL244:
	.loc 1 1552 42 is_stmt 1 discriminator 2
	.loc 1 1552 69 discriminator 2
	.loc 1 1552 136 discriminator 2
	.loc 1 1552 139 is_stmt 0 discriminator 2
	add	a4,a5,a4
.LVL245:
	.loc 1 1552 145 is_stmt 1 discriminator 2
	.loc 1 1552 155 is_stmt 0 discriminator 2
	sgtu	a5,a5,a4
.LVL246:
	.loc 1 1552 164 discriminator 2
	add	a4,a7,a4
.LVL247:
	.loc 1 1552 181 discriminator 2
	sgtu	a7,a7,a4
	.loc 1 1552 203 discriminator 2
	sw	a4,-4(a6)
.LVL248:
	.loc 1 1552 148 discriminator 2
	add	t1,a5,t1
.LVL249:
	.loc 1 1552 161 is_stmt 1 discriminator 2
	.loc 1 1552 171 discriminator 2
	.loc 1 1552 174 is_stmt 0 discriminator 2
	add	a5,a7,t1
.LVL250:
	.loc 1 1552 188 is_stmt 1 discriminator 2
	.loc 1 1552 196 discriminator 2
.LBE88:
	.loc 1 1549 19 discriminator 2
	j	.L15
.LVL251:
.L18:
	.loc 1 1560 20 is_stmt 0
	li	a5,1
.LVL252:
	j	.L17
	.cfi_endproc
.LFE46:
	.size	mpi_mul_hlp, .-mpi_mul_hlp
	.section	.text.mpi_montmul,"ax",@progbits
	.align	1
	.type	mpi_montmul, @function
mpi_montmul:
.LFB55:
	.loc 1 1982 1 is_stmt 1
	.cfi_startproc
.LVL253:
	.loc 1 1983 5
	.loc 1 1984 5
	.loc 1 1986 5
	.loc 1 1982 1 is_stmt 0
	addi	sp,sp,-64
	.cfi_def_cfa_offset 64
	sw	s0,56(sp)
	sw	s1,52(sp)
	sw	s5,36(sp)
	sw	s6,32(sp)
	sw	s7,28(sp)
	sw	s8,24(sp)
	sw	s9,20(sp)
	sw	s10,16(sp)
	sw	ra,60(sp)
	sw	s2,48(sp)
	sw	s3,44(sp)
	sw	s4,40(sp)
	sw	s11,12(sp)
	.cfi_offset 8, -8
	.cfi_offset 9, -12
	.cfi_offset 21, -28
	.cfi_offset 22, -32
	.cfi_offset 23, -36
	.cfi_offset 24, -40
	.cfi_offset 25, -44
	.cfi_offset 26, -48
	.cfi_offset 1, -4
	.cfi_offset 18, -16
	.cfi_offset 19, -20
	.cfi_offset 20, -24
	.cfi_offset 27, -52
	.loc 1 1982 1
	mv	s6,a2
	.loc 1 1986 5
	lw	a2,4(a4)
.LVL254:
	.loc 1 1982 1
	mv	s5,a0
	.loc 1 1986 5
	lw	a0,8(a4)
.LVL255:
	.loc 1 1982 1
	mv	s9,a1
	.loc 1 1986 5
	slli	a2,a2,2
	li	a1,0
.LVL256:
	.loc 1 1982 1
	mv	s0,a4
	mv	s8,a3
	.loc 1 1986 5
	call	memset
.LVL257:
	.loc 1 1988 5 is_stmt 1
	.loc 1 1989 7 is_stmt 0
	lw	s7,4(s6)
	.loc 1 1990 7
	lw	s10,4(s9)
	.loc 1 1988 7
	lw	s1,8(s0)
.LVL258:
	.loc 1 1989 5 is_stmt 1
	.loc 1 1990 5
	.loc 1 1990 7 is_stmt 0
	bleu	s10,s7,.L20
	mv	s10,s7
.L20:
.LVL259:
	.loc 1 1992 5 is_stmt 1
	.loc 1 2003 21 is_stmt 0
	addi	s0,s7,1
.LVL260:
	slli	s0,s0,2
	.loc 1 1988 7
	mv	s2,s1
	.loc 1 1992 12
	li	s4,0
.LVL261:
.L21:
	.loc 1 1992 17 is_stmt 1 discriminator 1
	.loc 1 1997 15 is_stmt 0 discriminator 1
	lw	a0,8(s5)
	.loc 1 1992 5 discriminator 1
	bne	s4,s7,.L22
	addi	s0,s0,-4
	add	s1,s1,s0
	.loc 1 2012 5 is_stmt 1
	mv	a2,s0
	mv	a1,s1
	call	memcpy
.LVL262:
	.loc 1 2016 5
	.loc 1 2016 10 is_stmt 0
	add	s2,s1,s0
.LVL263:
	lw	a5,0(s2)
	.loc 1 2017 13
	mv	a1,s1
	mv	a0,s4
	.loc 1 2016 10
	addi	a5,a5,1
	sw	a5,0(s2)
	.loc 1 2017 5 is_stmt 1
	.loc 1 2017 13 is_stmt 0
	lw	a2,8(s6)
	call	mpi_sub_hlp
.LVL264:
	.loc 1 2017 10
	lw	a5,0(s2)
.LBB91:
.LBB92:
	.loc 1 283 33
	li	a3,1
	.loc 1 282 5
	li	a4,0
.LBE92:
.LBE91:
	.loc 1 2017 10
	sub	a5,a5,a0
	sw	a5,0(s2)
	.loc 1 2024 5 is_stmt 1
	lw	a6,8(s5)
.LVL265:
.LBB95:
.LBB93:
	.loc 1 281 5
	.loc 1 282 5
	andi	a0,a5,255
	.loc 1 283 33 is_stmt 0
	sub	a3,a3,a0
.LVL266:
.L23:
	.loc 1 282 17 is_stmt 1
	.loc 1 282 5 is_stmt 0
	bne	s0,a4,.L24
.LBE93:
.LBE95:
	.loc 1 2025 1
	lw	ra,60(sp)
	.cfi_remember_state
	.cfi_restore 1
	lw	s0,56(sp)
	.cfi_restore 8
	lw	s1,52(sp)
	.cfi_restore 9
.LVL267:
	lw	s2,48(sp)
	.cfi_restore 18
	lw	s3,44(sp)
	.cfi_restore 19
	lw	s4,40(sp)
	.cfi_restore 20
.LVL268:
	lw	s5,36(sp)
	.cfi_restore 21
.LVL269:
	lw	s6,32(sp)
	.cfi_restore 22
.LVL270:
	lw	s7,28(sp)
	.cfi_restore 23
.LVL271:
	lw	s8,24(sp)
	.cfi_restore 24
.LVL272:
	lw	s9,20(sp)
	.cfi_restore 25
.LVL273:
	lw	s10,16(sp)
	.cfi_restore 26
.LVL274:
	lw	s11,12(sp)
	.cfi_restore 27
	addi	sp,sp,64
	.cfi_def_cfa_offset 0
	jr	ra
.LVL275:
.L22:
	.cfi_restore_state
	.loc 1 1997 9 is_stmt 1 discriminator 3
	.loc 1 1998 29 is_stmt 0 discriminator 3
	lw	a1,8(s9)
	.loc 1 1997 12 discriminator 3
	slli	a5,s4,2
	add	a0,a0,a5
	lw	s11,0(a0)
.LVL276:
	.loc 1 1998 9 is_stmt 1 discriminator 3
	.loc 1 1998 26 is_stmt 0 discriminator 3
	lw	s3,0(a1)
	.loc 1 1998 21 discriminator 3
	lw	a5,0(s2)
	.loc 1 2000 9 discriminator 3
	mv	a2,s2
	.loc 1 1998 26 discriminator 3
	mul	s3,s11,s3
	.loc 1 2000 9 discriminator 3
	mv	a3,s11
	mv	a0,s10
	.loc 1 1992 25 discriminator 3
	addi	s4,s4,1
.LVL277:
	.loc 1 1998 21 discriminator 3
	add	s3,s3,a5
	.loc 1 1998 12 discriminator 3
	mul	s3,s3,s8
.LVL278:
	.loc 1 2000 9 is_stmt 1 discriminator 3
	call	mpi_mul_hlp
.LVL279:
	.loc 1 2001 9 discriminator 3
	lw	a1,8(s6)
	mv	a2,s2
	mv	a0,s7
	.loc 1 2003 11 is_stmt 0 discriminator 3
	addi	s2,s2,4
.LVL280:
	.loc 1 2001 9 discriminator 3
	mv	a3,s3
	call	mpi_mul_hlp
.LVL281:
	.loc 1 2003 9 is_stmt 1 discriminator 3
	.loc 1 2003 29 is_stmt 0 discriminator 3
	add	a5,s2,s0
	.loc 1 2003 14 discriminator 3
	sw	s11,-4(s2)
	.loc 1 2003 20 is_stmt 1 discriminator 3
	.loc 1 2003 29 is_stmt 0 discriminator 3
	sw	zero,0(a5)
	.loc 1 1992 24 is_stmt 1 discriminator 3
.LVL282:
	j	.L21
.LVL283:
.L24:
.LBB96:
.LBB94:
	.loc 1 283 9
	add	a1,a6,a4
	.loc 1 283 49 is_stmt 0
	add	a2,s1,a4
	.loc 1 283 27
	lw	a5,0(a1)
	.loc 1 283 53
	lw	a2,0(a2)
	addi	a4,a4,4
	.loc 1 283 27
	mul	a5,a3,a5
	.loc 1 283 53
	mul	a2,a0,a2
	.loc 1 283 44
	add	a5,a5,a2
	.loc 1 283 17
	sw	a5,0(a1)
	.loc 1 282 24 is_stmt 1
	j	.L23
.LBE94:
.LBE96:
	.cfi_endproc
.LFE55:
	.size	mpi_montmul, .-mpi_montmul
	.globl	__bswapsi2
	.section	.text.mpi_bigendian_to_host,"ax",@progbits
	.align	1
	.type	mpi_bigendian_to_host, @function
mpi_bigendian_to_host:
.LFB29:
	.loc 1 842 1
	.cfi_startproc
.LVL284:
	.loc 1 843 5
	.loc 1 844 5
	.loc 1 845 5
	.loc 1 845 7 is_stmt 0
	beq	a1,zero,.L32
	.loc 1 842 1
	addi	sp,sp,-16
	.cfi_def_cfa_offset 16
	sw	s0,8(sp)
	.cfi_offset 8, -8
.LBB104:
.LBB105:
	.loc 1 857 48
	slli	s0,a1,2
	addi	s0,s0,-4
.LBE105:
.LBE104:
	.loc 1 842 1
	sw	s1,4(sp)
	sw	ra,12(sp)
	sw	s2,0(sp)
	.cfi_offset 9, -12
	.cfi_offset 1, -4
	.cfi_offset 18, -16
	mv	s1,a0
.LVL285:
.LBB116:
.LBB114:
	.loc 1 857 5 is_stmt 1
	.loc 1 857 44 is_stmt 0
	add	s0,a0,s0
.LVL286:
.L28:
	.loc 1 858 10 is_stmt 1
	.loc 1 857 5 is_stmt 0
	bleu	s1,s0,.L29
.LBE114:
.LBE116:
	.loc 1 868 1
	lw	ra,12(sp)
	.cfi_remember_state
	.cfi_restore 1
	lw	s0,8(sp)
	.cfi_restore 8
.LVL287:
	lw	s1,4(sp)
	.cfi_restore 9
.LVL288:
	lw	s2,0(sp)
	.cfi_restore 18
	addi	sp,sp,16
	.cfi_def_cfa_offset 0
	jr	ra
.LVL289:
.L29:
	.cfi_restore_state
.LBB117:
.LBB115:
.LBB106:
	.loc 1 861 9 is_stmt 1
	.loc 1 864 9
.LBB107:
.LBB108:
	.loc 1 825 5
	.loc 1 828 13
	.loc 1 828 21 is_stmt 0
	lw	a0,0(s1)
.LBE108:
.LBE107:
.LBE106:
	.loc 1 859 41
	addi	s0,s0,-4
.LVL290:
.LBB113:
.LBB110:
.LBB109:
	.loc 1 828 21
	call	__bswapsi2
.LVL291:
	mv	s2,a0
.LVL292:
.LBE109:
.LBE110:
	.loc 1 865 9 is_stmt 1
.LBB111:
.LBB112:
	.loc 1 825 5
	.loc 1 828 13
	.loc 1 828 21 is_stmt 0
	lw	a0,4(s0)
.LVL293:
	call	__bswapsi2
.LVL294:
.LBE112:
.LBE111:
	.loc 1 865 24
	sw	a0,0(s1)
	.loc 1 866 9 is_stmt 1
	.loc 1 866 25 is_stmt 0
	sw	s2,4(s0)
.LBE113:
	.loc 1 859 10 is_stmt 1
	.loc 1 859 23 is_stmt 0
	addi	s1,s1,4
.LVL295:
	j	.L28
.LVL296:
.L32:
	.cfi_def_cfa_offset 0
	.cfi_restore 1
	.cfi_restore 8
	.cfi_restore 9
	.cfi_restore 18
	ret
.LBE115:
.LBE117:
	.cfi_endproc
.LFE29:
	.size	mpi_bigendian_to_host, .-mpi_bigendian_to_host
	.section	.text.mbedtls_mpi_mod_int.part.0,"ax",@progbits
	.align	1
	.type	mbedtls_mpi_mod_int.part.0, @function
mbedtls_mpi_mod_int.part.0:
.LFB70:
	.loc 1 1885 5 is_stmt 1
	.cfi_startproc
.LVL297:
	.loc 1 1916 5
	.loc 1 1916 12 is_stmt 0
	lw	a6,4(a1)
.LVL298:
	.loc 1 1924 62
	li	a7,65536
	.loc 1 1916 22
	li	a5,0
	.loc 1 1916 5
	li	t1,-1
	.loc 1 1924 62
	addi	a7,a7,-1
.LVL299:
.L36:
	.loc 1 1916 27 is_stmt 1
	.loc 1 1916 5 is_stmt 0
	addi	a6,a6,-1
.LVL300:
	bne	a6,t1,.L37
	.loc 1 1933 5 is_stmt 1
	.loc 1 1933 7 is_stmt 0
	lw	a4,0(a1)
	bge	a4,zero,.L38
	.loc 1 1933 18
	beq	a5,zero,.L38
	.loc 1 1934 9 is_stmt 1
	.loc 1 1934 11 is_stmt 0
	sub	a5,a2,a5
.LVL301:
.L38:
	.loc 1 1936 5 is_stmt 1
	.loc 1 1936 8 is_stmt 0
	sw	a5,0(a0)
	.loc 1 1938 5 is_stmt 1
	.loc 1 1939 1 is_stmt 0
	li	a0,0
.LVL302:
	ret
.LVL303:
.L37:
	.loc 1 1918 9 is_stmt 1
	.loc 1 1918 11 is_stmt 0
	lw	a4,8(a1)
	slli	a3,a6,2
	.loc 1 1919 17
	slli	a5,a5,16
.LVL304:
	.loc 1 1918 11
	add	a4,a4,a3
	lw	a3,0(a4)
.LVL305:
	.loc 1 1919 9 is_stmt 1
	.loc 1 1920 9
	.loc 1 1921 9
	.loc 1 1923 9
	.loc 1 1924 9
	.loc 1 1919 62 is_stmt 0
	srli	a4,a3,16
	.loc 1 1919 11
	or	a5,a4,a5
.LVL306:
	.loc 1 1924 17
	remu	a5,a5,a2
.LVL307:
	.loc 1 1924 62
	and	a3,a3,a7
.LVL308:
	.loc 1 1924 17
	slli	a5,a5,16
.LVL309:
	.loc 1 1925 9 is_stmt 1
	.loc 1 1926 9
	.loc 1 1924 11 is_stmt 0
	or	a5,a3,a5
	remu	a5,a5,a2
.LVL310:
	.loc 1 1916 34 is_stmt 1
	j	.L36
	.cfi_endproc
.LFE70:
	.size	mbedtls_mpi_mod_int.part.0, .-mbedtls_mpi_mod_int.part.0
	.section	.text.mbedtls_mpi_init,"ax",@progbits
	.align	1
	.globl	mbedtls_mpi_init
	.type	mbedtls_mpi_init, @function
mbedtls_mpi_init:
.LFB5:
	.loc 1 115 1
	.cfi_startproc
.LVL311:
	.loc 1 116 5
	.loc 1 116 10
	.loc 1 116 17
	.loc 1 118 5
	.loc 1 118 10 is_stmt 0
	li	a5,1
	sw	a5,0(a0)
	.loc 1 119 5 is_stmt 1
	.loc 1 119 10 is_stmt 0
	sw	zero,4(a0)
	.loc 1 120 5 is_stmt 1
	.loc 1 120 10 is_stmt 0
	sw	zero,8(a0)
	.loc 1 121 1
	ret
	.cfi_endproc
.LFE5:
	.size	mbedtls_mpi_init, .-mbedtls_mpi_init
	.section	.text.mbedtls_mpi_free,"ax",@progbits
	.align	1
	.globl	mbedtls_mpi_free
	.type	mbedtls_mpi_free, @function
mbedtls_mpi_free:
.LFB6:
	.loc 1 127 1 is_stmt 1
	.cfi_startproc
.LVL312:
	.loc 1 128 5
	.loc 1 128 7 is_stmt 0
	beq	a0,zero,.L53
	.loc 1 127 1
	addi	sp,sp,-16
	.cfi_def_cfa_offset 16
	sw	s0,8(sp)
	sw	ra,12(sp)
	.cfi_offset 8, -8
	.cfi_offset 1, -4
	mv	s0,a0
	.loc 1 131 5 is_stmt 1
	.loc 1 131 10 is_stmt 0
	lw	a0,8(a0)
.LVL313:
	.loc 1 131 7
	beq	a0,zero,.L45
	.loc 1 133 9 is_stmt 1
.LVL314:
.LBB120:
.LBB121:
	.loc 1 108 5
	lw	a1,4(s0)
	slli	a1,a1,2
	call	mbedtls_platform_zeroize
.LVL315:
.LBE121:
.LBE120:
	.loc 1 134 9
	lw	a0,8(s0)
	call	mbedtls_free
.LVL316:
.L45:
	.loc 1 137 5
	.loc 1 137 10 is_stmt 0
	li	a5,1
	sw	a5,0(s0)
	.loc 1 138 5 is_stmt 1
	.loc 1 138 10 is_stmt 0
	sw	zero,4(s0)
	.loc 1 139 5 is_stmt 1
	.loc 1 139 10 is_stmt 0
	sw	zero,8(s0)
	.loc 1 140 1
	lw	ra,12(sp)
	.cfi_restore 1
	lw	s0,8(sp)
	.cfi_restore 8
.LVL317:
	addi	sp,sp,16
	.cfi_def_cfa_offset 0
	jr	ra
.LVL318:
.L53:
	ret
	.cfi_endproc
.LFE6:
	.size	mbedtls_mpi_free, .-mbedtls_mpi_free
	.section	.text.mbedtls_mpi_grow,"ax",@progbits
	.align	1
	.globl	mbedtls_mpi_grow
	.type	mbedtls_mpi_grow, @function
mbedtls_mpi_grow:
.LFB7:
	.loc 1 146 1 is_stmt 1
	.cfi_startproc
.LVL319:
	.loc 1 147 5
	.loc 1 148 5
	.loc 1 148 10
	.loc 1 148 17
	.loc 1 150 5
	.loc 1 150 7 is_stmt 0
	li	a5,8192
	addi	a5,a5,1808
	bleu	a1,a5,.L57
	.loc 1 151 15
	li	a0,-16
.LVL320:
	.loc 1 170 1
	ret
.LVL321:
.L59:
	.cfi_def_cfa_offset 16
	.cfi_offset 1, -4
	.cfi_offset 8, -8
	.cfi_offset 9, -12
	.cfi_offset 18, -16
	.loc 1 151 15
	li	a0,-16
.LVL322:
.L56:
	.loc 1 170 1
	lw	ra,12(sp)
	.cfi_restore 1
	lw	s0,8(sp)
	.cfi_restore 8
.LVL323:
	lw	s1,4(sp)
	.cfi_restore 9
.LVL324:
	lw	s2,0(sp)
	.cfi_restore 18
	addi	sp,sp,16
	.cfi_def_cfa_offset 0
	jr	ra
.LVL325:
.L57:
	.loc 1 146 1
	addi	sp,sp,-16
	.cfi_def_cfa_offset 16
	sw	s0,8(sp)
	sw	s1,4(sp)
	sw	ra,12(sp)
	sw	s2,0(sp)
	.cfi_offset 8, -8
	.cfi_offset 9, -12
	.cfi_offset 1, -4
	.cfi_offset 18, -16
	.loc 1 153 7
	lw	a5,4(a0)
	mv	s0,a0
	mv	s1,a1
	.loc 1 153 5 is_stmt 1
	.loc 1 169 11 is_stmt 0
	li	a0,0
.LVL326:
	.loc 1 153 7
	bgeu	a5,a1,.L56
.LVL327:
.LBB126:
.LBB127:
	.loc 1 155 9 is_stmt 1
	.loc 1 155 38 is_stmt 0
	li	a1,4
	mv	a0,s1
	call	mbedtls_calloc
.LVL328:
	mv	s2,a0
.LVL329:
	.loc 1 155 11
	beq	a0,zero,.L59
	.loc 1 158 9 is_stmt 1
	.loc 1 158 14 is_stmt 0
	lw	a1,8(s0)
	.loc 1 158 11
	beq	a1,zero,.L60
	.loc 1 160 13 is_stmt 1
	lw	a2,4(s0)
	slli	a2,a2,2
	call	memcpy
.LVL330:
	.loc 1 161 13
.LBB128:
.LBB129:
	.loc 1 108 5
	lw	a1,4(s0)
	lw	a0,8(s0)
	slli	a1,a1,2
	call	mbedtls_platform_zeroize
.LVL331:
.LBE129:
.LBE128:
	.loc 1 162 13
	lw	a0,8(s0)
	call	mbedtls_free
.LVL332:
.L60:
	.loc 1 165 9
	.loc 1 165 14 is_stmt 0
	sw	s1,4(s0)
	.loc 1 166 9 is_stmt 1
	.loc 1 166 14 is_stmt 0
	sw	s2,8(s0)
	.loc 1 169 11
	li	a0,0
	j	.L56
.LBE127:
.LBE126:
	.cfi_endproc
.LFE7:
	.size	mbedtls_mpi_grow, .-mbedtls_mpi_grow
	.section	.text.mbedtls_mpi_shrink,"ax",@progbits
	.align	1
	.globl	mbedtls_mpi_shrink
	.type	mbedtls_mpi_shrink, @function
mbedtls_mpi_shrink:
.LFB8:
	.loc 1 177 1 is_stmt 1
	.cfi_startproc
.LVL333:
	.loc 1 178 5
	.loc 1 179 5
	.loc 1 180 5
	.loc 1 180 10
	.loc 1 180 17
	.loc 1 182 5
	.loc 1 182 7 is_stmt 0
	li	a5,8192
	addi	a5,a5,1808
	bleu	a1,a5,.L72
	.loc 1 183 15
	li	a0,-16
.LVL334:
	.loc 1 212 1
	ret
.LVL335:
.L79:
	.cfi_def_cfa_offset 16
	.cfi_offset 1, -4
	.cfi_offset 8, -8
	.cfi_offset 9, -12
	.cfi_offset 18, -16
	.loc 1 183 15
	li	a0,-16
.LVL336:
.L71:
	.loc 1 212 1
	lw	ra,12(sp)
	.cfi_restore 1
	lw	s0,8(sp)
	.cfi_restore 8
.LVL337:
	lw	s1,4(sp)
	.cfi_restore 9
.LVL338:
	lw	s2,0(sp)
	.cfi_restore 18
.LVL339:
	addi	sp,sp,16
	.cfi_def_cfa_offset 0
	jr	ra
.LVL340:
.L72:
	.loc 1 177 1
	addi	sp,sp,-16
	.cfi_def_cfa_offset 16
	sw	s0,8(sp)
	sw	s1,4(sp)
	sw	ra,12(sp)
	sw	s2,0(sp)
	.cfi_offset 8, -8
	.cfi_offset 9, -12
	.cfi_offset 1, -4
	.cfi_offset 18, -16
	.loc 1 186 10
	lw	a4,4(a0)
	mv	s1,a0
	mv	s0,a1
	.loc 1 186 5 is_stmt 1
	.loc 1 190 12 is_stmt 0
	addi	a5,a4,-1
	.loc 1 186 7
	bgtu	a4,a1,.L75
.LVL341:
	.loc 1 187 9 is_stmt 1
	.loc 1 212 1 is_stmt 0
	lw	s0,8(sp)
	.cfi_remember_state
	.cfi_restore 8
.LVL342:
	lw	ra,12(sp)
	.cfi_restore 1
	lw	s1,4(sp)
	.cfi_restore 9
.LVL343:
	lw	s2,0(sp)
	.cfi_restore 18
	addi	sp,sp,16
	.cfi_def_cfa_offset 0
	.loc 1 187 17
	tail	mbedtls_mpi_grow
.LVL344:
.L77:
	.cfi_restore_state
	.loc 1 191 9 is_stmt 1
	.loc 1 191 17 is_stmt 0
	lw	a4,8(s1)
	slli	a3,a5,2
	add	a4,a4,a3
	.loc 1 191 11
	lw	a4,0(a4)
	bne	a4,zero,.L76
	.loc 1 190 31 is_stmt 1 discriminator 2
	.loc 1 190 32 is_stmt 0 discriminator 2
	addi	a5,a5,-1
.LVL345:
.L75:
	.loc 1 190 24 is_stmt 1 discriminator 1
	.loc 1 190 5 is_stmt 0 discriminator 1
	bne	a5,zero,.L77
.L76:
	.loc 1 193 5 is_stmt 1
	.loc 1 193 6 is_stmt 0
	addi	a5,a5,1
.LVL346:
	.loc 1 195 5 is_stmt 1
	bgeu	s0,a5,.L78
	mv	s0,a5
.LVL347:
.L78:
	.loc 1 198 5
	.loc 1 198 34 is_stmt 0
	li	a1,4
.LVL348:
	mv	a0,s0
	call	mbedtls_calloc
.LVL349:
	mv	s2,a0
.LVL350:
	.loc 1 198 7
	beq	a0,zero,.L79
	.loc 1 201 5 is_stmt 1
	.loc 1 201 10 is_stmt 0
	lw	a1,8(s1)
	.loc 1 201 7
	beq	a1,zero,.L80
	.loc 1 203 9 is_stmt 1
	slli	a2,s0,2
	call	memcpy
.LVL351:
	.loc 1 204 9
.LBB132:
.LBB133:
	.loc 1 108 5
	lw	a1,4(s1)
	lw	a0,8(s1)
	slli	a1,a1,2
	call	mbedtls_platform_zeroize
.LVL352:
.LBE133:
.LBE132:
	.loc 1 205 9
	lw	a0,8(s1)
	call	mbedtls_free
.LVL353:
.L80:
	.loc 1 208 5
	.loc 1 208 10 is_stmt 0
	sw	s0,4(s1)
	.loc 1 209 5 is_stmt 1
	.loc 1 209 10 is_stmt 0
	sw	s2,8(s1)
	.loc 1 211 5 is_stmt 1
	.loc 1 211 11 is_stmt 0
	li	a0,0
	j	.L71
	.cfi_endproc
.LFE8:
	.size	mbedtls_mpi_shrink, .-mbedtls_mpi_shrink
	.section	.text.mbedtls_mpi_copy,"ax",@progbits
	.align	1
	.globl	mbedtls_mpi_copy
	.type	mbedtls_mpi_copy, @function
mbedtls_mpi_copy:
.LFB9:
	.loc 1 218 1 is_stmt 1
	.cfi_startproc
.LVL354:
	.loc 1 219 5
	.loc 1 220 5
	.loc 1 221 5
	.loc 1 221 10
	.loc 1 221 17
	.loc 1 222 5
	.loc 1 222 10
	.loc 1 222 17
	.loc 1 224 5
	.loc 1 224 7 is_stmt 0
	beq	a0,a1,.L99
	.loc 1 218 1
	addi	sp,sp,-16
	.cfi_def_cfa_offset 16
	sw	s0,8(sp)
	sw	s1,4(sp)
	sw	s2,0(sp)
	sw	ra,12(sp)
	.cfi_offset 8, -8
	.cfi_offset 9, -12
	.cfi_offset 18, -16
	.cfi_offset 1, -4
	.loc 1 227 10
	lw	a5,4(a1)
	mv	s1,a0
	mv	s2,a1
	.loc 1 227 5 is_stmt 1
	.loc 1 233 12 is_stmt 0
	addi	s0,a5,-1
	.loc 1 227 7
	bne	a5,zero,.L94
	.loc 1 229 9 is_stmt 1
	call	mbedtls_mpi_free
.LVL355:
	.loc 1 230 9
.L105:
	.loc 1 249 5 is_stmt 0
	li	a0,0
	j	.L91
.LVL356:
.L96:
	.loc 1 234 9 is_stmt 1
	.loc 1 234 17 is_stmt 0
	lw	a5,8(s2)
	slli	a4,s0,2
	add	a5,a5,a4
	.loc 1 234 11
	lw	a5,0(a5)
	bne	a5,zero,.L95
	.loc 1 233 31 is_stmt 1 discriminator 2
	.loc 1 233 32 is_stmt 0 discriminator 2
	addi	s0,s0,-1
.LVL357:
.L94:
	.loc 1 233 24 is_stmt 1 discriminator 1
	.loc 1 233 5 is_stmt 0 discriminator 1
	bne	s0,zero,.L96
.L95:
	.loc 1 236 5 is_stmt 1
	.loc 1 238 13 is_stmt 0
	lw	a5,0(s2)
	.loc 1 240 10
	lw	a2,4(s1)
	.loc 1 236 6
	addi	s0,s0,1
.LVL358:
	.loc 1 238 5 is_stmt 1
	.loc 1 238 10 is_stmt 0
	sw	a5,0(s1)
	.loc 1 240 5 is_stmt 1
	.loc 1 240 7 is_stmt 0
	bgeu	a2,s0,.L97
	.loc 1 242 9 is_stmt 1
	.loc 1 242 14
	.loc 1 242 27 is_stmt 0
	mv	a1,s0
.LVL359:
	mv	a0,s1
	call	mbedtls_mpi_grow
.LVL360:
	.loc 1 242 16
	beq	a0,zero,.L98
.LVL361:
.L91:
	.loc 1 254 1
	lw	ra,12(sp)
	.cfi_remember_state
	.cfi_restore 1
	lw	s0,8(sp)
	.cfi_restore 8
	lw	s1,4(sp)
	.cfi_restore 9
.LVL362:
	lw	s2,0(sp)
	.cfi_restore 18
.LVL363:
	addi	sp,sp,16
	.cfi_def_cfa_offset 0
	jr	ra
.LVL364:
.L97:
	.cfi_restore_state
	.loc 1 246 9 is_stmt 1
	.loc 1 246 22 is_stmt 0
	lw	a5,8(s1)
	.loc 1 246 37
	sub	a2,a2,s0
	.loc 1 246 22
	slli	a0,s0,2
	.loc 1 246 9
	slli	a2,a2,2
	li	a1,0
.LVL365:
	add	a0,a5,a0
	call	memset
.LVL366:
.L98:
	.loc 1 249 5 is_stmt 1
	lw	a1,8(s2)
	lw	a0,8(s1)
	slli	a2,s0,2
	call	memcpy
.LVL367:
	j	.L105
.LVL368:
.L99:
	.cfi_def_cfa_offset 0
	.cfi_restore 1
	.cfi_restore 8
	.cfi_restore 9
	.cfi_restore 18
	.loc 1 225 15 is_stmt 0
	li	a0,0
.LVL369:
	.loc 1 254 1
	ret
	.cfi_endproc
.LFE9:
	.size	mbedtls_mpi_copy, .-mbedtls_mpi_copy
	.section	.text.mbedtls_mpi_swap,"ax",@progbits
	.align	1
	.globl	mbedtls_mpi_swap
	.type	mbedtls_mpi_swap, @function
mbedtls_mpi_swap:
.LFB10:
	.loc 1 260 1 is_stmt 1
	.cfi_startproc
.LVL370:
	.loc 1 261 5
	.loc 1 262 5
	.loc 1 262 10
	.loc 1 262 17
	.loc 1 263 5
	.loc 1 263 10
	.loc 1 263 17
	.loc 1 265 5
	.loc 1 260 1 is_stmt 0
	addi	sp,sp,-32
	.cfi_def_cfa_offset 32
	sw	s0,24(sp)
	sw	s1,20(sp)
	.cfi_offset 8, -8
	.cfi_offset 9, -12
	mv	s0,a1
	mv	s1,a0
	.loc 1 265 5
	mv	a1,a0
.LVL371:
	li	a2,12
	addi	a0,sp,4
.LVL372:
	.loc 1 260 1
	sw	ra,28(sp)
	.cfi_offset 1, -4
	.loc 1 265 5
	call	memcpy
.LVL373:
	.loc 1 266 5 is_stmt 1
	mv	a1,s0
	li	a2,12
	mv	a0,s1
	call	memcpy
.LVL374:
	.loc 1 267 5
	addi	a1,sp,4
	mv	a0,s0
	li	a2,12
	call	memcpy
.LVL375:
	.loc 1 268 1 is_stmt 0
	lw	ra,28(sp)
	.cfi_restore 1
	lw	s0,24(sp)
	.cfi_restore 8
.LVL376:
	lw	s1,20(sp)
	.cfi_restore 9
.LVL377:
	addi	sp,sp,32
	.cfi_def_cfa_offset 0
	jr	ra
	.cfi_endproc
.LFE10:
	.size	mbedtls_mpi_swap, .-mbedtls_mpi_swap
	.section	.text.mbedtls_mpi_safe_cond_assign,"ax",@progbits
	.align	1
	.globl	mbedtls_mpi_safe_cond_assign
	.type	mbedtls_mpi_safe_cond_assign, @function
mbedtls_mpi_safe_cond_assign:
.LFB12:
	.loc 1 292 1 is_stmt 1
	.cfi_startproc
.LVL378:
	.loc 1 293 5
	.loc 1 294 5
	.loc 1 295 5
	.loc 1 295 10
	.loc 1 295 17
	.loc 1 296 5
	.loc 1 296 10
	.loc 1 296 17
	.loc 1 299 5
	.loc 1 292 1 is_stmt 0
	addi	sp,sp,-16
	.cfi_def_cfa_offset 16
	sw	s0,8(sp)
	sw	s1,4(sp)
	sw	s2,0(sp)
	sw	ra,12(sp)
	.cfi_offset 8, -8
	.cfi_offset 9, -12
	.cfi_offset 18, -16
	.cfi_offset 1, -4
	.loc 1 292 1
	mv	s2,a1
	.loc 1 301 23
	lw	a1,4(a1)
.LVL379:
	.loc 1 292 1
	mv	s1,a0
	mv	s0,a2
.LVL380:
	.loc 1 301 5 is_stmt 1
	.loc 1 301 10
	.loc 1 301 23 is_stmt 0
	call	mbedtls_mpi_grow
.LVL381:
	.loc 1 301 12
	bne	a0,zero,.L108
	.loc 1 299 24 discriminator 2
	neg	a5,s0
	.loc 1 299 12 discriminator 2
	or	a5,s0,a5
	.loc 1 303 17 discriminator 2
	lw	a3,0(s1)
	.loc 1 303 41 discriminator 2
	lw	a2,0(s2)
	.loc 1 299 12 discriminator 2
	andi	a5,a5,0xff
	srli	a5,a5,7
	.loc 1 301 82 is_stmt 1 discriminator 2
	.loc 1 303 5 discriminator 2
	.loc 1 303 23 is_stmt 0 discriminator 2
	li	a4,1
	sub	a4,a4,a5
	.loc 1 303 17 discriminator 2
	mul	a3,a4,a3
	.loc 1 305 5 discriminator 2
	lw	t1,8(s1)
	.loc 1 303 41 discriminator 2
	mul	a2,a5,a2
	.loc 1 303 34 discriminator 2
	add	a3,a3,a2
	.loc 1 303 10 discriminator 2
	sw	a3,0(s1)
	.loc 1 305 5 is_stmt 1 discriminator 2
	lw	a1,4(s2)
	.loc 1 305 40 is_stmt 0 discriminator 2
	lw	t3,8(s2)
.LVL382:
.LBB136:
.LBB137:
	.loc 1 281 5 is_stmt 1 discriminator 2
	.loc 1 282 5 discriminator 2
	li	a3,0
	slli	a1,a1,2
.LVL383:
.L110:
	.loc 1 282 17
	.loc 1 282 5 is_stmt 0
	bne	a3,a1,.L111
.LVL384:
.LBE137:
.LBE136:
	.loc 1 307 5 is_stmt 1 discriminator 2
	.loc 1 307 12 is_stmt 0 discriminator 2
	lw	a5,4(s2)
.LVL385:
.L112:
	.loc 1 307 20 is_stmt 1 discriminator 1
	.loc 1 307 5 is_stmt 0 discriminator 1
	lw	a3,4(s1)
	bgtu	a3,a5,.L113
.LVL386:
.L108:
	.loc 1 312 1
	lw	ra,12(sp)
	.cfi_remember_state
	.cfi_restore 1
	lw	s0,8(sp)
	.cfi_restore 8
.LVL387:
	lw	s1,4(sp)
	.cfi_restore 9
.LVL388:
	lw	s2,0(sp)
	.cfi_restore 18
.LVL389:
	addi	sp,sp,16
	.cfi_def_cfa_offset 0
	jr	ra
.LVL390:
.L111:
	.cfi_restore_state
.LBB139:
.LBB138:
	.loc 1 283 9 is_stmt 1
	add	a7,t1,a3
	.loc 1 283 49 is_stmt 0
	add	a2,t3,a3
	.loc 1 283 53
	lw	a2,0(a2)
	.loc 1 283 27
	lw	a6,0(a7)
	addi	a3,a3,4
	.loc 1 283 53
	mul	a2,a5,a2
	.loc 1 283 27
	mul	a6,a4,a6
	.loc 1 283 44
	add	a2,a2,a6
	.loc 1 283 17
	sw	a2,0(a7)
	.loc 1 282 24 is_stmt 1
	j	.L110
.LVL391:
.L113:
.LBE138:
.LBE139:
	.loc 1 308 9 discriminator 3
	.loc 1 308 17 is_stmt 0 discriminator 3
	lw	a3,8(s1)
	slli	a2,a5,2
	.loc 1 307 31 discriminator 3
	addi	a5,a5,1
.LVL392:
	.loc 1 308 17 discriminator 3
	add	a3,a3,a2
	lw	a2,0(a3)
	mul	a2,a2,a4
	sw	a2,0(a3)
	.loc 1 307 30 is_stmt 1 discriminator 3
.LVL393:
	j	.L112
	.cfi_endproc
.LFE12:
	.size	mbedtls_mpi_safe_cond_assign, .-mbedtls_mpi_safe_cond_assign
	.section	.text.mbedtls_mpi_safe_cond_swap,"ax",@progbits
	.align	1
	.globl	mbedtls_mpi_safe_cond_swap
	.type	mbedtls_mpi_safe_cond_swap, @function
mbedtls_mpi_safe_cond_swap:
.LFB13:
	.loc 1 321 1
	.cfi_startproc
.LVL394:
	.loc 1 322 5
	.loc 1 323 5
	.loc 1 324 5
	.loc 1 325 5
	.loc 1 325 10
	.loc 1 325 17
	.loc 1 326 5
	.loc 1 326 10
	.loc 1 326 17
	.loc 1 328 5
	.loc 1 328 7 is_stmt 0
	bne	a0,a1,.L117
	.loc 1 329 15
	li	a0,0
.LVL395:
	.loc 1 351 1
	ret
.LVL396:
.L117:
	.loc 1 321 1
	addi	sp,sp,-16
	.cfi_def_cfa_offset 16
	sw	s0,8(sp)
	sw	s1,4(sp)
	sw	s2,0(sp)
	sw	ra,12(sp)
	.cfi_offset 8, -8
	.cfi_offset 9, -12
	.cfi_offset 18, -16
	.cfi_offset 1, -4
	mv	s1,a1
	.loc 1 334 23
	lw	a1,4(a1)
.LVL397:
	mv	s2,a0
	mv	s0,a2
	.loc 1 332 5 is_stmt 1
.LVL398:
	.loc 1 334 5
	.loc 1 334 10
	.loc 1 334 23 is_stmt 0
	call	mbedtls_mpi_grow
.LVL399:
	.loc 1 334 12
	bne	a0,zero,.L116
	.loc 1 334 82 is_stmt 1 discriminator 2
	.loc 1 335 5 discriminator 2
	.loc 1 335 10 discriminator 2
	.loc 1 335 23 is_stmt 0 discriminator 2
	lw	a1,4(s2)
	mv	a0,s1
.LVL400:
	call	mbedtls_mpi_grow
.LVL401:
	.loc 1 335 12 discriminator 2
	bne	a0,zero,.L116
	.loc 1 332 20 discriminator 2
	neg	a5,s0
	.loc 1 332 10 discriminator 2
	or	a5,s0,a5
	.loc 1 337 7 discriminator 2
	lw	a1,0(s2)
	.loc 1 338 39 discriminator 2
	lw	a2,0(s1)
	.loc 1 332 10 discriminator 2
	andi	a5,a5,0xff
	srli	a5,a5,7
	.loc 1 335 82 is_stmt 1 discriminator 2
	.loc 1 337 5 discriminator 2
.LVL402:
	.loc 1 338 5 discriminator 2
	.loc 1 338 23 is_stmt 0 discriminator 2
	li	a4,1
	sub	a4,a4,a5
	.loc 1 338 17 discriminator 2
	mul	a3,a4,a1
	.loc 1 338 39 discriminator 2
	mul	a2,a5,a2
	.loc 1 338 32 discriminator 2
	add	a2,a2,a3
	.loc 1 338 10 discriminator 2
	sw	a2,0(s2)
	.loc 1 339 5 is_stmt 1 discriminator 2
	.loc 1 339 17 is_stmt 0 discriminator 2
	lw	a3,0(s1)
	.loc 1 339 36 discriminator 2
	mul	a1,a5,a1
.LVL403:
	.loc 1 339 17 discriminator 2
	mul	a3,a4,a3
	.loc 1 339 32 discriminator 2
	add	a3,a3,a1
	.loc 1 339 10 discriminator 2
	sw	a3,0(s1)
	.loc 1 342 5 is_stmt 1 discriminator 2
.LVL404:
	.loc 1 342 12 is_stmt 0 discriminator 2
	li	a1,0
.LVL405:
.L119:
	.loc 1 342 17 is_stmt 1 discriminator 1
	.loc 1 342 5 is_stmt 0 discriminator 1
	lw	a3,4(s2)
	bgtu	a3,a1,.L120
	.loc 1 329 15
	li	a0,0
.LVL406:
.L116:
	.loc 1 351 1
	lw	ra,12(sp)
	.cfi_remember_state
	.cfi_restore 1
	lw	s0,8(sp)
	.cfi_restore 8
.LVL407:
	lw	s1,4(sp)
	.cfi_restore 9
.LVL408:
	lw	s2,0(sp)
	.cfi_restore 18
.LVL409:
	addi	sp,sp,16
	.cfi_def_cfa_offset 0
	jr	ra
.LVL410:
.L120:
	.cfi_restore_state
	.loc 1 344 9 is_stmt 1 discriminator 3
	.loc 1 344 19 is_stmt 0 discriminator 3
	lw	a3,8(s2)
	.loc 1 345 48 discriminator 3
	lw	a2,8(s1)
	slli	a6,a1,2
	.loc 1 344 19 discriminator 3
	add	a3,a3,a6
	.loc 1 345 48 discriminator 3
	add	a2,a2,a6
	.loc 1 344 13 discriminator 3
	lw	a0,0(a3)
.LVL411:
	.loc 1 345 9 is_stmt 1 discriminator 3
	.loc 1 345 52 is_stmt 0 discriminator 3
	lw	a2,0(a2)
	.loc 1 342 28 discriminator 3
	addi	a1,a1,1
.LVL412:
	.loc 1 345 27 discriminator 3
	mul	a7,a4,a0
	.loc 1 345 52 discriminator 3
	mul	a2,a5,a2
	.loc 1 345 42 discriminator 3
	add	a2,a2,a7
	.loc 1 345 17 discriminator 3
	sw	a2,0(a3)
	.loc 1 346 9 is_stmt 1 discriminator 3
	.loc 1 346 23 is_stmt 0 discriminator 3
	lw	a2,8(s1)
	.loc 1 346 48 discriminator 3
	mul	a0,a5,a0
.LVL413:
	.loc 1 346 23 discriminator 3
	add	a2,a2,a6
	.loc 1 346 27 discriminator 3
	lw	a3,0(a2)
	mul	a3,a4,a3
	.loc 1 346 42 discriminator 3
	add	a3,a3,a0
	.loc 1 346 17 discriminator 3
	sw	a3,0(a2)
	.loc 1 342 27 is_stmt 1 discriminator 3
.LVL414:
	j	.L119
	.cfi_endproc
.LFE13:
	.size	mbedtls_mpi_safe_cond_swap, .-mbedtls_mpi_safe_cond_swap
	.section	.text.mbedtls_mpi_lset,"ax",@progbits
	.align	1
	.globl	mbedtls_mpi_lset
	.type	mbedtls_mpi_lset, @function
mbedtls_mpi_lset:
.LFB14:
	.loc 1 357 1
	.cfi_startproc
.LVL415:
	.loc 1 358 5
	.loc 1 359 5
	.loc 1 359 10
	.loc 1 359 17
	.loc 1 361 5
	.loc 1 361 10
	.loc 1 357 1 is_stmt 0
	addi	sp,sp,-16
	.cfi_def_cfa_offset 16
	sw	s1,4(sp)
	.cfi_offset 9, -12
	mv	s1,a1
	.loc 1 361 23
	li	a1,1
.LVL416:
	.loc 1 357 1
	sw	s0,8(sp)
	sw	s2,0(sp)
	sw	ra,12(sp)
	.cfi_offset 8, -8
	.cfi_offset 18, -16
	.cfi_offset 1, -4
	.loc 1 357 1
	mv	s0,a0
	.loc 1 361 23
	call	mbedtls_mpi_grow
.LVL417:
	mv	s2,a0
.LVL418:
	.loc 1 361 12
	bne	a0,zero,.L125
.LVL419:
.LBB142:
.LBB143:
	.loc 1 361 79 is_stmt 1
	.loc 1 362 5
	lw	a2,4(s0)
	lw	a0,8(s0)
.LVL420:
	li	a1,0
	slli	a2,a2,2
	call	memset
.LVL421:
	.loc 1 364 5
	.loc 1 364 30 is_stmt 0
	srai	a4,s1,31
	.loc 1 364 6
	lw	a3,8(s0)
	.loc 1 364 30
	xor	a5,a4,s1
	sub	a5,a5,a4
	.loc 1 364 13
	sw	a5,0(a3)
	.loc 1 365 5 is_stmt 1
	.loc 1 365 27 is_stmt 0
	li	a5,-1
	blt	s1,zero,.L127
	li	a5,1
.L127:
	.loc 1 365 10
	sw	a5,0(s0)
.LVL422:
.LBE143:
.LBE142:
	.loc 1 369 5 is_stmt 1
.L126:
.L125:
	.loc 1 370 1 is_stmt 0
	lw	ra,12(sp)
	.cfi_restore 1
	lw	s0,8(sp)
	.cfi_restore 8
.LVL423:
	lw	s1,4(sp)
	.cfi_restore 9
.LVL424:
	mv	a0,s2
	lw	s2,0(sp)
	.cfi_restore 18
.LVL425:
	addi	sp,sp,16
	.cfi_def_cfa_offset 0
	jr	ra
	.cfi_endproc
.LFE14:
	.size	mbedtls_mpi_lset, .-mbedtls_mpi_lset
	.section	.text.mbedtls_mpi_get_bit,"ax",@progbits
	.align	1
	.globl	mbedtls_mpi_get_bit
	.type	mbedtls_mpi_get_bit, @function
mbedtls_mpi_get_bit:
.LFB15:
	.loc 1 376 1 is_stmt 1
	.cfi_startproc
.LVL426:
	.loc 1 377 5
	.loc 1 377 10
	.loc 1 377 17
	.loc 1 379 5
	.loc 1 379 14 is_stmt 0
	lw	a5,4(a0)
	slli	a5,a5,5
	.loc 1 379 7
	bleu	a5,a1,.L132
	.loc 1 382 5 is_stmt 1
	.loc 1 382 19 is_stmt 0
	lw	a5,8(a0)
	.loc 1 382 24
	srli	a4,a1,5
	.loc 1 382 19
	slli	a4,a4,2
	add	a5,a5,a4
	.loc 1 382 61
	lw	a0,0(a5)
.LVL427:
	srl	a0,a0,a1
	.loc 1 382 110
	andi	a0,a0,1
	ret
.LVL428:
.L132:
	.loc 1 380 15
	li	a0,0
.LVL429:
	.loc 1 383 1
	ret
	.cfi_endproc
.LFE15:
	.size	mbedtls_mpi_get_bit, .-mbedtls_mpi_get_bit
	.section	.text.mbedtls_mpi_set_bit,"ax",@progbits
	.align	1
	.globl	mbedtls_mpi_set_bit
	.type	mbedtls_mpi_set_bit, @function
mbedtls_mpi_set_bit:
.LFB16:
	.loc 1 393 1 is_stmt 1
	.cfi_startproc
.LVL430:
	.loc 1 394 5
	.loc 1 395 5
	.loc 1 396 5
	.loc 1 397 5
	.loc 1 397 10
	.loc 1 397 17
	.loc 1 399 5
	.loc 1 399 7 is_stmt 0
	li	a5,1
	bgtu	a2,a5,.L137
	.loc 1 393 1
	addi	sp,sp,-32
	.cfi_def_cfa_offset 32
	sw	s0,24(sp)
	sw	s1,20(sp)
	sw	s2,16(sp)
	sw	s3,12(sp)
	sw	ra,28(sp)
	.cfi_offset 8, -8
	.cfi_offset 9, -12
	.cfi_offset 18, -16
	.cfi_offset 19, -20
	.cfi_offset 1, -4
	.loc 1 402 14
	lw	a5,4(a0)
	mv	s3,a0
	mv	s0,a1
	slli	a5,a5,5
	mv	s1,a2
	srli	s2,a1,5
.LVL431:
	.loc 1 402 5 is_stmt 1
	.loc 1 402 7 is_stmt 0
	bleu	a5,a1,.L135
.LVL432:
.L136:
	.loc 1 410 15
	lw	a4,8(s3)
	slli	s2,s2,2
.LVL433:
	.loc 1 396 12
	andi	s0,s0,31
.LVL434:
	.loc 1 407 89 is_stmt 1
	.loc 1 410 5
	.loc 1 410 15 is_stmt 0
	add	a4,a4,s2
	lw	a3,0(a4)
	.loc 1 410 45
	li	a5,1
	sll	a5,a5,s0
	.loc 1 410 18
	not	a5,a5
	.loc 1 410 15
	and	a5,a3,a5
	sw	a5,0(a4)
	.loc 1 411 5 is_stmt 1
	.loc 1 411 15 is_stmt 0
	lw	a5,8(s3)
	.loc 1 411 41
	sll	s0,s1,s0
	.loc 1 411 15
	add	s2,a5,s2
	lw	s1,0(s2)
	li	a5,0
	or	s0,s1,s0
	sw	s0,0(s2)
.LVL435:
.L133:
	.loc 1 416 1
	lw	ra,28(sp)
	.cfi_remember_state
	.cfi_restore 1
	lw	s0,24(sp)
	.cfi_restore 8
	lw	s1,20(sp)
	.cfi_restore 9
	lw	s2,16(sp)
	.cfi_restore 18
	lw	s3,12(sp)
	.cfi_restore 19
.LVL436:
	mv	a0,a5
	addi	sp,sp,32
	.cfi_def_cfa_offset 0
	jr	ra
.LVL437:
.L135:
	.cfi_restore_state
	.loc 1 404 9 is_stmt 1
	.loc 1 405 19 is_stmt 0
	li	a5,0
	.loc 1 404 11
	beq	a2,zero,.L133
	.loc 1 407 9 is_stmt 1
	.loc 1 407 14
	.loc 1 407 27 is_stmt 0
	addi	a1,s2,1
	call	mbedtls_mpi_grow
.LVL438:
	mv	a5,a0
.LVL439:
	.loc 1 407 16
	beq	a0,zero,.L136
	j	.L133
.LVL440:
.L137:
	.cfi_def_cfa_offset 0
	.cfi_restore 1
	.cfi_restore 8
	.cfi_restore 9
	.cfi_restore 18
	.cfi_restore 19
	.loc 1 400 15
	li	a5,-4
	.loc 1 416 1
	mv	a0,a5
.LVL441:
	ret
	.cfi_endproc
.LFE16:
	.size	mbedtls_mpi_set_bit, .-mbedtls_mpi_set_bit
	.section	.text.mbedtls_mpi_lsb,"ax",@progbits
	.align	1
	.globl	mbedtls_mpi_lsb
	.type	mbedtls_mpi_lsb, @function
mbedtls_mpi_lsb:
.LFB17:
	.loc 1 422 1 is_stmt 1
	.cfi_startproc
.LVL442:
	.loc 1 423 5
	.loc 1 424 5
	.loc 1 424 10
	.loc 1 424 17
	.loc 1 426 5
	.loc 1 426 22 is_stmt 0
	lw	a6,4(a0)
	.loc 1 422 1
	mv	a3,a0
	.loc 1 423 18
	li	a2,0
	.loc 1 426 12
	li	a4,0
	.loc 1 427 9
	li	a7,32
.LVL443:
.L148:
	.loc 1 426 17 is_stmt 1 discriminator 1
	.loc 1 426 5 is_stmt 0 discriminator 1
	bne	a6,a4,.L151
	.loc 1 431 11
	li	a0,0
.LVL444:
.L147:
	.loc 1 432 1
	ret
.LVL445:
.L151:
	.loc 1 428 25
	lw	a5,8(a3)
	slli	a1,a4,2
	add	a5,a5,a1
	lw	t1,0(a5)
	.loc 1 427 16
	li	a5,0
.LVL446:
.L150:
	.loc 1 428 29
	srl	a1,t1,a5
	.loc 1 428 36
	andi	a1,a1,1
	add	a0,a2,a5
.LVL447:
	.loc 1 428 13 is_stmt 1
	.loc 1 428 15 is_stmt 0
	bne	a1,zero,.L147
	.loc 1 427 60 is_stmt 1 discriminator 2
	.loc 1 427 61 is_stmt 0 discriminator 2
	addi	a5,a5,1
.LVL448:
	.loc 1 427 70 discriminator 2
	add	a1,a2,a5
.LVL449:
	.loc 1 427 21 is_stmt 1 discriminator 2
	.loc 1 427 9 is_stmt 0 discriminator 2
	bne	a5,a7,.L150
	.loc 1 426 27 is_stmt 1 discriminator 2
	.loc 1 426 28 is_stmt 0 discriminator 2
	addi	a4,a4,1
.LVL450:
	.loc 1 427 70 discriminator 2
	mv	a2,a1
	j	.L148
	.cfi_endproc
.LFE17:
	.size	mbedtls_mpi_lsb, .-mbedtls_mpi_lsb
	.section	.text.mbedtls_mpi_bitlen,"ax",@progbits
	.align	1
	.globl	mbedtls_mpi_bitlen
	.type	mbedtls_mpi_bitlen, @function
mbedtls_mpi_bitlen:
.LFB19:
	.loc 1 456 1 is_stmt 1
	.cfi_startproc
.LVL451:
	.loc 1 457 5
	.loc 1 459 5
	.loc 1 456 1 is_stmt 0
	mv	a4,a0
	.loc 1 459 10
	lw	a0,4(a0)
.LVL452:
	.loc 1 459 7
	beq	a0,zero,.L153
	.loc 1 462 5 is_stmt 1
	.loc 1 463 14 is_stmt 0
	lw	a4,8(a4)
.LVL453:
	.loc 1 462 12
	addi	a5,a0,-1
.LVL454:
.L155:
	.loc 1 462 24 is_stmt 1 discriminator 1
	slli	a3,a5,2
	.loc 1 462 5 is_stmt 0 discriminator 1
	bne	a5,zero,.L157
.L156:
	.loc 1 466 5 is_stmt 1
	.loc 1 466 45 is_stmt 0
	add	a4,a4,a3
	lw	a2,0(a4)
.LVL455:
.LBB146:
.LBB147:
	.loc 1 439 5 is_stmt 1
	.loc 1 440 5
	.loc 1 442 5
	.loc 1 442 17
	.loc 1 442 12 is_stmt 0
	li	a0,0
	.loc 1 440 22
	li	a4,-2147483648
	.loc 1 442 5
	li	a3,32
.LVL456:
.L159:
	.loc 1 444 9 is_stmt 1
	.loc 1 444 15 is_stmt 0
	and	a1,a2,a4
	.loc 1 444 11
	bne	a1,zero,.L158
	.loc 1 446 9 is_stmt 1
	.loc 1 442 57 is_stmt 0
	addi	a0,a0,1
.LVL457:
	.loc 1 446 14
	srli	a4,a4,1
.LVL458:
	.loc 1 442 56 is_stmt 1
	.loc 1 442 17
	.loc 1 442 5 is_stmt 0
	bne	a0,a3,.L159
.L158:
	.loc 1 449 5 is_stmt 1
.LVL459:
.LBE147:
.LBE146:
	.loc 1 468 5
	.loc 1 468 55 is_stmt 0
	addi	a5,a5,1
.LVL460:
	slli	a5,a5,5
.LVL461:
	sub	a0,a5,a0
.LVL462:
.L153:
	.loc 1 469 1
	ret
.LVL463:
.L157:
	.loc 1 463 9 is_stmt 1
	.loc 1 463 17 is_stmt 0
	add	a2,a4,a3
	.loc 1 463 11
	lw	a2,0(a2)
	bne	a2,zero,.L156
	.loc 1 462 31 is_stmt 1 discriminator 2
	.loc 1 462 32 is_stmt 0 discriminator 2
	addi	a5,a5,-1
.LVL464:
	j	.L155
	.cfi_endproc
.LFE19:
	.size	mbedtls_mpi_bitlen, .-mbedtls_mpi_bitlen
	.section	.text.mbedtls_mpi_size,"ax",@progbits
	.align	1
	.globl	mbedtls_mpi_size
	.type	mbedtls_mpi_size, @function
mbedtls_mpi_size:
.LFB20:
	.loc 1 475 1 is_stmt 1
	.cfi_startproc
.LVL465:
	.loc 1 476 5
	.loc 1 475 1 is_stmt 0
	addi	sp,sp,-16
	.cfi_def_cfa_offset 16
	sw	ra,12(sp)
	.cfi_offset 1, -4
	.loc 1 476 15
	call	mbedtls_mpi_bitlen
.LVL466:
	.loc 1 477 1
	lw	ra,12(sp)
	.cfi_restore 1
	.loc 1 476 39
	addi	a0,a0,7
	.loc 1 477 1
	srli	a0,a0,3
	addi	sp,sp,16
	.cfi_def_cfa_offset 0
	jr	ra
	.cfi_endproc
.LFE20:
	.size	mbedtls_mpi_size, .-mbedtls_mpi_size
	.section	.text.mbedtls_mpi_read_binary,"ax",@progbits
	.align	1
	.globl	mbedtls_mpi_read_binary
	.type	mbedtls_mpi_read_binary, @function
mbedtls_mpi_read_binary:
.LFB30:
	.loc 1 874 1 is_stmt 1
	.cfi_startproc
.LVL467:
	.loc 1 875 5
	.loc 1 876 5
	.loc 1 874 1 is_stmt 0
	addi	sp,sp,-32
	.cfi_def_cfa_offset 32
	sw	s2,16(sp)
	.cfi_offset 18, -16
	.loc 1 876 79
	andi	s2,a2,3
	.loc 1 874 1
	sw	s0,24(sp)
	sw	s3,12(sp)
	sw	s4,8(sp)
	.loc 1 876 37
	srli	a5,a2,2
	.loc 1 874 1
	sw	ra,28(sp)
	sw	s1,20(sp)
	.cfi_offset 8, -8
	.cfi_offset 19, -20
	.cfi_offset 20, -24
	.cfi_offset 1, -4
	.cfi_offset 9, -12
	.loc 1 876 108
	snez	s2,s2
	.loc 1 876 18
	add	s2,s2,a5
.LVL468:
	.loc 1 877 5 is_stmt 1
	.loc 1 884 7 is_stmt 0
	lw	a5,4(a0)
	.loc 1 874 1
	mv	s0,a0
	mv	s4,a1
	mv	s3,a2
.LVL469:
	.loc 1 878 5 is_stmt 1
	.loc 1 880 5
	.loc 1 880 10
	.loc 1 880 17
	.loc 1 881 5
	.loc 1 881 10
	.loc 1 881 17
	.loc 1 884 5
	.loc 1 884 7 is_stmt 0
	bne	a5,s2,.L167
.LVL470:
.L170:
	.loc 1 888 87 is_stmt 1
	.loc 1 890 5
	.loc 1 890 10
	.loc 1 890 23 is_stmt 0
	li	a1,0
	mv	a0,s0
	call	mbedtls_mpi_lset
.LVL471:
	mv	s1,a0
.LVL472:
	.loc 1 890 12
	beq	a0,zero,.L174
.L166:
	.loc 1 905 1
	lw	ra,28(sp)
	.cfi_remember_state
	.cfi_restore 1
	lw	s0,24(sp)
	.cfi_restore 8
.LVL473:
	lw	s2,16(sp)
	.cfi_restore 18
.LVL474:
	lw	s3,12(sp)
	.cfi_restore 19
.LVL475:
	lw	s4,8(sp)
	.cfi_restore 20
.LVL476:
	mv	a0,s1
	lw	s1,20(sp)
	.cfi_restore 9
.LVL477:
	addi	sp,sp,32
	.cfi_def_cfa_offset 0
	jr	ra
.LVL478:
.L167:
	.cfi_restore_state
	.loc 1 886 9 is_stmt 1
	call	mbedtls_mpi_free
.LVL479:
	.loc 1 887 9
.LBB148:
.LBB149:
	.loc 1 116 5
	.loc 1 116 10
	.loc 1 116 17
	.loc 1 118 5
	.loc 1 118 10 is_stmt 0
	li	a5,1
	sw	a5,0(s0)
	.loc 1 119 5 is_stmt 1
	.loc 1 119 10 is_stmt 0
	sw	zero,4(s0)
	.loc 1 120 5 is_stmt 1
	.loc 1 120 10 is_stmt 0
	sw	zero,8(s0)
.LVL480:
.LBE149:
.LBE148:
	.loc 1 888 9 is_stmt 1
	.loc 1 888 14
	.loc 1 888 27 is_stmt 0
	mv	a1,s2
	mv	a0,s0
	call	mbedtls_mpi_grow
.LVL481:
	mv	s1,a0
.LVL482:
	.loc 1 888 16
	beq	a0,zero,.L170
	j	.L166
.L174:
	.loc 1 890 79 is_stmt 1 discriminator 2
	.loc 1 894 5 discriminator 2
	.loc 1 894 7 is_stmt 0 discriminator 2
	beq	s4,zero,.L166
.L168:
	.loc 1 896 9 is_stmt 1
.LVL483:
	.loc 1 897 9
	.loc 1 897 20 is_stmt 0
	lw	a0,8(s0)
	.loc 1 877 37
	slli	a5,s2,2
	.loc 1 877 18
	sub	a5,a5,s3
	.loc 1 897 9
	mv	a1,s4
	mv	a2,s3
	add	a0,a0,a5
	call	memcpy
.LVL484:
	.loc 1 899 9 is_stmt 1
	lw	a0,8(s0)
	mv	a1,s2
	call	mpi_bigendian_to_host
.LVL485:
	.loc 1 904 5
	.loc 1 904 11 is_stmt 0
	j	.L166
	.cfi_endproc
.LFE30:
	.size	mbedtls_mpi_read_binary, .-mbedtls_mpi_read_binary
	.section	.text.mbedtls_mpi_write_binary,"ax",@progbits
	.align	1
	.globl	mbedtls_mpi_write_binary
	.type	mbedtls_mpi_write_binary, @function
mbedtls_mpi_write_binary:
.LFB31:
	.loc 1 912 1 is_stmt 1
	.cfi_startproc
.LVL486:
	.loc 1 913 5
	.loc 1 914 5
	.loc 1 915 5
	.loc 1 916 5
	.loc 1 918 5
	.loc 1 918 10
	.loc 1 918 17
	.loc 1 919 5
	.loc 1 919 10
	.loc 1 919 17
	.loc 1 921 5
	.loc 1 912 1 is_stmt 0
	addi	sp,sp,-16
	.cfi_def_cfa_offset 16
	sw	s1,4(sp)
	.cfi_offset 9, -12
	mv	s1,a0
	sw	s0,8(sp)
	.cfi_offset 8, -8
	.loc 1 921 18
	lw	s0,4(s1)
	.loc 1 912 1
	sw	ra,12(sp)
	sw	s2,0(sp)
	.cfi_offset 1, -4
	.cfi_offset 18, -16
	.loc 1 921 18
	slli	s0,s0,2
.LVL487:
	.loc 1 923 5 is_stmt 1
	.loc 1 912 1 is_stmt 0
	mv	a0,a1
.LVL488:
	mv	a5,a2
	.loc 1 923 7
	bgeu	s0,a2,.L177
	.loc 1 930 9 is_stmt 1
.LVL489:
	.loc 1 931 9
	.loc 1 931 26 is_stmt 0
	sub	a2,a2,s0
.LVL490:
	.loc 1 931 11
	add	s2,a1,a2
.LVL491:
	.loc 1 932 9 is_stmt 1
	li	a1,0
.LVL492:
	call	memset
.LVL493:
	.loc 1 931 11 is_stmt 0
	mv	a0,s2
	mv	a2,s0
.LVL494:
.L178:
	.loc 1 947 5 is_stmt 1
	add	a1,a0,a2
	.loc 1 947 12 is_stmt 0
	li	a5,0
.LVL495:
.L181:
	.loc 1 947 17 is_stmt 1 discriminator 1
	.loc 1 947 5 is_stmt 0 discriminator 1
	addi	a1,a1,-1
	bne	a2,a5,.L182
	.loc 1 950 11
	li	a0,0
.LVL496:
.L176:
	.loc 1 951 1
	lw	ra,12(sp)
	.cfi_remember_state
	.cfi_restore 1
	lw	s0,8(sp)
	.cfi_restore 8
.LVL497:
	lw	s1,4(sp)
	.cfi_restore 9
.LVL498:
	lw	s2,0(sp)
	.cfi_restore 18
	addi	sp,sp,16
	.cfi_def_cfa_offset 0
	jr	ra
.LVL499:
.L180:
	.cfi_restore_state
	.loc 1 942 13 is_stmt 1
	.loc 1 942 29 is_stmt 0
	lw	a4,8(s1)
	andi	a1,a5,-4
	add	a1,a4,a1
	.loc 1 942 79
	andi	a4,a5,3
	.loc 1 942 110
	slli	a3,a4,3
	.loc 1 942 66
	lw	a4,0(a1)
	srl	a4,a4,a3
	.loc 1 942 118
	andi	a4,a4,255
	.loc 1 942 15
	bne	a4,zero,.L184
	.loc 1 940 51 is_stmt 1 discriminator 2
	.loc 1 940 52 is_stmt 0 discriminator 2
	addi	a5,a5,1
.LVL500:
.L177:
	.loc 1 940 33 is_stmt 1 discriminator 1
	.loc 1 940 9 is_stmt 0 discriminator 1
	bne	a5,s0,.L180
	j	.L178
.LVL501:
.L182:
	.loc 1 948 9 is_stmt 1 discriminator 3
	.loc 1 948 48 is_stmt 0 discriminator 3
	lw	a0,8(s1)
	andi	a4,a5,-4
	add	a0,a0,a4
	.loc 1 948 98 discriminator 3
	andi	a4,a5,3
	.loc 1 948 129 discriminator 3
	slli	a3,a4,3
	.loc 1 948 85 discriminator 3
	lw	a4,0(a0)
	.loc 1 947 37 discriminator 3
	addi	a5,a5,1
.LVL502:
	.loc 1 948 85 discriminator 3
	srl	a4,a4,a3
	.loc 1 948 34 discriminator 3
	sb	a4,0(a1)
	.loc 1 947 36 is_stmt 1 discriminator 3
.LVL503:
	j	.L181
.LVL504:
.L184:
	.loc 1 943 23 is_stmt 0
	li	a0,-8
.LVL505:
	j	.L176
	.cfi_endproc
.LFE31:
	.size	mbedtls_mpi_write_binary, .-mbedtls_mpi_write_binary
	.section	.text.mbedtls_mpi_shift_l,"ax",@progbits
	.align	1
	.globl	mbedtls_mpi_shift_l
	.type	mbedtls_mpi_shift_l, @function
mbedtls_mpi_shift_l:
.LFB32:
	.loc 1 957 1 is_stmt 1
	.cfi_startproc
.LVL506:
	.loc 1 958 5
	.loc 1 959 5
	.loc 1 960 5
	.loc 1 961 5
	.loc 1 961 10
	.loc 1 961 17
	.loc 1 963 5
	.loc 1 957 1 is_stmt 0
	addi	sp,sp,-32
	.cfi_def_cfa_offset 32
	sw	s0,24(sp)
	sw	s1,20(sp)
	sw	s2,16(sp)
	sw	s3,12(sp)
	.cfi_offset 8, -8
	.cfi_offset 9, -12
	.cfi_offset 18, -16
	.cfi_offset 19, -20
	mv	s0,a0
	mv	s2,a1
	sw	ra,28(sp)
	.cfi_offset 1, -4
	.loc 1 963 8
	srli	s1,a1,5
.LVL507:
	.loc 1 964 5 is_stmt 1
	.loc 1 964 8 is_stmt 0
	andi	s3,a1,31
.LVL508:
	.loc 1 966 5 is_stmt 1
	.loc 1 966 9 is_stmt 0
	call	mbedtls_mpi_bitlen
.LVL509:
	.loc 1 968 14
	lw	a5,4(s0)
	.loc 1 966 7
	add	a0,a0,s2
.LVL510:
	.loc 1 968 5 is_stmt 1
	.loc 1 968 14 is_stmt 0
	slli	a5,a5,5
	.loc 1 968 7
	bltu	a5,a0,.L189
.LVL511:
.L193:
	.loc 1 969 176 is_stmt 1
	.loc 1 971 5
	.loc 1 976 5
	.loc 1 976 7 is_stmt 0
	li	a5,31
	bgtu	s2,a5,.L190
.L191:
	.loc 1 988 5 is_stmt 1
	.loc 1 988 7 is_stmt 0
	bne	s3,zero,.L203
.LVL512:
.L195:
	.loc 1 971 9
	li	a0,0
	j	.L188
.LVL513:
.L189:
	.loc 1 969 9 is_stmt 1
	.loc 1 969 14
	.loc 1 969 98 is_stmt 0
	andi	a1,a0,31
	.loc 1 969 134
	snez	a1,a1
	.loc 1 969 54
	srli	a0,a0,5
.LVL514:
	.loc 1 969 27
	add	a1,a1,a0
	mv	a0,s0
	call	mbedtls_mpi_grow
.LVL515:
	.loc 1 969 16
	beq	a0,zero,.L193
.L192:
.LVL516:
.L188:
	.loc 1 1002 1
	lw	ra,28(sp)
	.cfi_remember_state
	.cfi_restore 1
	lw	s0,24(sp)
	.cfi_restore 8
.LVL517:
	lw	s1,20(sp)
	.cfi_restore 9
	lw	s2,16(sp)
	.cfi_restore 18
.LVL518:
	lw	s3,12(sp)
	.cfi_restore 19
.LVL519:
	addi	sp,sp,32
	.cfi_def_cfa_offset 0
	jr	ra
.LVL520:
.L190:
	.cfi_restore_state
	.loc 1 978 9 is_stmt 1
	li	a1,-4
	mul	a1,s1,a1
	.loc 1 978 16 is_stmt 0
	lw	a5,4(s0)
.LVL521:
	slli	a2,a5,2
	mv	a3,a5
.LVL522:
.L196:
	.loc 1 978 24 is_stmt 1 discriminator 1
	.loc 1 978 9 is_stmt 0 discriminator 1
	addi	a2,a2,-4
	bgtu	a3,s1,.L197
	li	a4,0
	bgtu	s1,a5,.L199
	sub	a4,s1,a5
.L199:
	add	a5,a5,a4
	slli	a5,a5,2
	.loc 1 981 9
	li	a3,-4
.LVL523:
.L200:
	.loc 1 981 16 is_stmt 1 discriminator 1
	.loc 1 981 9 is_stmt 0 discriminator 1
	addi	a5,a5,-4
	beq	a5,a3,.L191
	.loc 1 982 13 is_stmt 1 discriminator 2
	.loc 1 982 25 is_stmt 0 discriminator 2
	lw	a4,8(s0)
	add	a4,a4,a5
	sw	zero,0(a4)
	.loc 1 981 23 is_stmt 1 discriminator 2
	j	.L200
.LVL524:
.L197:
	.loc 1 979 13 discriminator 3
	.loc 1 979 28 is_stmt 0 discriminator 3
	lw	a4,8(s0)
	.loc 1 978 33 discriminator 3
	addi	a3,a3,-1
.LVL525:
	.loc 1 979 31 discriminator 3
	add	a4,a4,a2
	add	a0,a4,a1
	lw	a0,0(a0)
	.loc 1 979 25 discriminator 3
	sw	a0,0(a4)
	.loc 1 978 32 is_stmt 1 discriminator 3
.LVL526:
	j	.L196
.LVL527:
.L202:
	.loc 1 992 13 discriminator 3
	.loc 1 992 22 is_stmt 0 discriminator 3
	lw	a4,8(s0)
	slli	a0,s1,2
	.loc 1 990 33 discriminator 3
	addi	s1,s1,1
.LVL528:
	.loc 1 992 22 discriminator 3
	add	a4,a4,a0
	lw	a1,0(a4)
.LVL529:
	.loc 1 993 13 is_stmt 1 discriminator 3
	.loc 1 993 21 is_stmt 0 discriminator 3
	sll	a5,a1,s3
	sw	a5,0(a4)
	.loc 1 994 13 is_stmt 1 discriminator 3
	.loc 1 994 21 is_stmt 0 discriminator 3
	lw	a5,8(s0)
	add	a5,a5,a0
	lw	a4,0(a5)
	or	a4,a4,a2
	sw	a4,0(a5)
	.loc 1 995 13 is_stmt 1 discriminator 3
.LVL530:
	.loc 1 990 32 discriminator 3
	.loc 1 995 16 is_stmt 0 discriminator 3
	srl	a2,a1,a3
.LVL531:
.L194:
	.loc 1 990 22 is_stmt 1 discriminator 1
	.loc 1 990 9 is_stmt 0 discriminator 1
	lw	a5,4(s0)
	bgtu	a5,s1,.L202
	j	.L195
.LVL532:
.L203:
	.loc 1 992 64
	li	a3,32
	.loc 1 960 22
	li	a2,0
	.loc 1 992 64
	sub	a3,a3,s3
	j	.L194
	.cfi_endproc
.LFE32:
	.size	mbedtls_mpi_shift_l, .-mbedtls_mpi_shift_l
	.section	.text.mbedtls_mpi_shift_r,"ax",@progbits
	.align	1
	.globl	mbedtls_mpi_shift_r
	.type	mbedtls_mpi_shift_r, @function
mbedtls_mpi_shift_r:
.LFB33:
	.loc 1 1008 1 is_stmt 1
	.cfi_startproc
.LVL533:
	.loc 1 1009 5
	.loc 1 1010 5
	.loc 1 1011 5
	.loc 1 1011 10
	.loc 1 1011 17
	.loc 1 1013 5
	.loc 1 1016 15 is_stmt 0
	lw	a5,4(a0)
	.loc 1 1013 8
	srli	a4,a1,5
.LVL534:
	.loc 1 1014 5 is_stmt 1
	.loc 1 1014 8 is_stmt 0
	andi	a3,a1,31
.LVL535:
	.loc 1 1016 5 is_stmt 1
	.loc 1 1016 7 is_stmt 0
	bltu	a5,a4,.L206
	.loc 1 1016 19 discriminator 1
	bne	a5,a4,.L207
	.loc 1 1016 35 discriminator 2
	beq	a3,zero,.L208
.L206:
	.loc 1 1017 9 is_stmt 1
	.loc 1 1017 16 is_stmt 0
	li	a1,0
.LVL536:
	tail	mbedtls_mpi_lset
.LVL537:
.L207:
	.loc 1 1022 5 is_stmt 1
	.loc 1 1022 7 is_stmt 0
	li	a5,31
	bgtu	a1,a5,.L209
.LVL538:
.L215:
	.loc 1 1034 5 is_stmt 1
	.loc 1 1034 7 is_stmt 0
	bne	a3,zero,.L210
.LVL539:
.L220:
	.loc 1 1046 1
	li	a0,0
.LVL540:
	ret
.LVL541:
.L212:
	.loc 1 1025 13 is_stmt 1 discriminator 3
	.loc 1 1025 24 is_stmt 0 discriminator 3
	lw	a2,8(a0)
	.loc 1 1025 21 discriminator 3
	slli	a7,a5,2
	.loc 1 1024 37 discriminator 3
	addi	a5,a5,1
.LVL542:
	.loc 1 1025 27 discriminator 3
	add	a6,a2,a1
	lw	a6,0(a6)
	.loc 1 1025 21 discriminator 3
	add	a2,a2,a7
	addi	a1,a1,4
	sw	a6,0(a2)
	.loc 1 1024 36 is_stmt 1 discriminator 3
.LVL543:
.L219:
	.loc 1 1024 21 discriminator 1
	.loc 1 1024 30 is_stmt 0 discriminator 1
	lw	a2,4(a0)
	sub	a2,a2,a4
	.loc 1 1024 9 discriminator 1
	bgtu	a2,a5,.L212
.LVL544:
.L213:
	.loc 1 1027 16 is_stmt 1 discriminator 1
	.loc 1 1027 9 is_stmt 0 discriminator 1
	lw	a4,4(a0)
	bleu	a4,a5,.L215
	.loc 1 1028 13 is_stmt 1 discriminator 2
	.loc 1 1028 21 is_stmt 0 discriminator 2
	lw	a4,8(a0)
	slli	a2,a5,2
	.loc 1 1027 27 discriminator 2
	addi	a5,a5,1
.LVL545:
	.loc 1 1028 21 discriminator 2
	add	a4,a4,a2
	sw	zero,0(a4)
	.loc 1 1027 26 is_stmt 1 discriminator 2
.LVL546:
	j	.L213
.LVL547:
.L210:
	.loc 1 1036 9
	.loc 1 1036 16 is_stmt 0
	lw	a5,4(a0)
.LVL548:
	.loc 1 1038 68
	li	a6,32
	.loc 1 1010 22
	li	a7,0
	.loc 1 1036 9
	li	t1,-1
	.loc 1 1038 68
	sub	a6,a6,a3
.LVL549:
.L217:
	.loc 1 1036 24 is_stmt 1 discriminator 1
	.loc 1 1036 9 is_stmt 0 discriminator 1
	addi	a5,a5,-1
.LVL550:
	beq	a5,t1,.L220
	.loc 1 1038 13 is_stmt 1 discriminator 3
	.loc 1 1038 22 is_stmt 0 discriminator 3
	lw	a1,8(a0)
	slli	a4,a5,2
	mv	a2,a4
	add	a4,a1,a4
	lw	a1,0(a4)
.LVL551:
	.loc 1 1039 13 is_stmt 1 discriminator 3
	.loc 1 1039 25 is_stmt 0 discriminator 3
	srl	t3,a1,a3
	sw	t3,0(a4)
	.loc 1 1040 13 is_stmt 1 discriminator 3
	.loc 1 1040 25 is_stmt 0 discriminator 3
	lw	a4,8(a0)
	add	a4,a4,a2
	lw	a2,0(a4)
	or	a2,a2,a7
	sw	a2,0(a4)
	.loc 1 1041 13 is_stmt 1 discriminator 3
.LVL552:
	.loc 1 1036 31 discriminator 3
	.loc 1 1041 16 is_stmt 0 discriminator 3
	sll	a7,a1,a6
.LVL553:
	j	.L217
.LVL554:
.L208:
	.loc 1 1022 5 is_stmt 1
	.loc 1 1022 7 is_stmt 0
	li	a5,31
	bleu	a1,a5,.L220
.L209:
	slli	a1,a4,2
.LVL555:
	.loc 1 1008 1 discriminator 1
	li	a5,0
	j	.L219
	.cfi_endproc
.LFE33:
	.size	mbedtls_mpi_shift_r, .-mbedtls_mpi_shift_r
	.section	.text.mbedtls_mpi_cmp_abs,"ax",@progbits
	.align	1
	.globl	mbedtls_mpi_cmp_abs
	.type	mbedtls_mpi_cmp_abs, @function
mbedtls_mpi_cmp_abs:
.LFB34:
	.loc 1 1052 1 is_stmt 1
	.cfi_startproc
.LVL556:
	.loc 1 1053 5
	.loc 1 1054 5
	.loc 1 1054 10
	.loc 1 1054 17
	.loc 1 1055 5
	.loc 1 1055 10
	.loc 1 1055 17
	.loc 1 1057 5
	.loc 1 1057 12 is_stmt 0
	lw	a5,4(a0)
.LVL557:
	.loc 1 1052 1
	mv	a3,a0
.L222:
	.loc 1 1057 20 is_stmt 1 discriminator 1
	.loc 1 1057 5 is_stmt 0 discriminator 1
	bne	a5,zero,.L224
.L223:
	.loc 1 1061 5 is_stmt 1
	.loc 1 1061 12 is_stmt 0
	lw	a4,4(a1)
.LVL558:
.L225:
	.loc 1 1061 20 is_stmt 1 discriminator 1
	.loc 1 1061 5 is_stmt 0 discriminator 1
	bne	a4,zero,.L227
	.loc 1 1065 5 is_stmt 1
	.loc 1 1065 7 is_stmt 0
	snez	a0,a5
.LVL559:
.L221:
	.loc 1 1078 1
	ret
.LVL560:
.L224:
	.loc 1 1058 9 is_stmt 1
	.loc 1 1058 17 is_stmt 0
	lw	a4,8(a3)
	slli	a2,a5,2
	add	a4,a4,a2
	.loc 1 1058 11
	lw	a4,-4(a4)
	bne	a4,zero,.L223
	.loc 1 1057 27 is_stmt 1 discriminator 2
	.loc 1 1057 28 is_stmt 0 discriminator 2
	addi	a5,a5,-1
.LVL561:
	j	.L222
.LVL562:
.L227:
	.loc 1 1062 9 is_stmt 1
	.loc 1 1062 14 is_stmt 0
	lw	a6,8(a1)
	.loc 1 1062 17
	slli	a2,a4,2
	add	a2,a6,a2
	.loc 1 1062 11
	lw	a2,-4(a2)
	bne	a2,zero,.L226
	.loc 1 1061 27 is_stmt 1 discriminator 2
	.loc 1 1061 28 is_stmt 0 discriminator 2
	addi	a4,a4,-1
.LVL563:
	j	.L225
.LVL564:
.L234:
	.loc 1 1068 23
	li	a0,1
	ret
.LVL565:
.L235:
	.loc 1 1069 23
	li	a0,-1
	ret
.LVL566:
.L226:
	.loc 1 1065 5 is_stmt 1
	.loc 1 1069 23 is_stmt 0
	li	a0,-1
.LVL567:
	.loc 1 1065 7
	beq	a5,zero,.L221
	.loc 1 1068 5 is_stmt 1
	.loc 1 1068 23 is_stmt 0
	li	a0,1
	.loc 1 1068 7
	bgtu	a5,a4,.L221
	.loc 1 1069 5 is_stmt 1
	.loc 1 1069 23 is_stmt 0
	li	a0,-1
	.loc 1 1069 7
	bltu	a5,a4,.L221
	addi	a5,a5,-1
.LVL568:
	.loc 1 1071 12 is_stmt 1
	.loc 1 1071 5 is_stmt 0
	li	a1,-1
.LVL569:
.L230:
	.loc 1 1073 9 is_stmt 1
	.loc 1 1073 17 is_stmt 0
	lw	a2,8(a3)
	slli	a4,a5,2
	add	a2,a2,a4
	.loc 1 1073 31
	add	a4,a6,a4
	.loc 1 1073 17
	lw	a2,0(a2)
	.loc 1 1073 31
	lw	a4,0(a4)
	.loc 1 1073 11
	bgtu	a2,a4,.L234
	.loc 1 1074 9 is_stmt 1
	.loc 1 1074 11 is_stmt 0
	addi	a5,a5,-1
.LVL570:
	bltu	a2,a4,.L235
.LVL571:
	.loc 1 1071 12 is_stmt 1 discriminator 1
	.loc 1 1071 5 is_stmt 0 discriminator 1
	bne	a5,a1,.L230
	.loc 1 1077 11
	li	a0,0
	ret
	.cfi_endproc
.LFE34:
	.size	mbedtls_mpi_cmp_abs, .-mbedtls_mpi_cmp_abs
	.section	.text.mbedtls_mpi_cmp_mpi,"ax",@progbits
	.align	1
	.globl	mbedtls_mpi_cmp_mpi
	.type	mbedtls_mpi_cmp_mpi, @function
mbedtls_mpi_cmp_mpi:
.LFB35:
	.loc 1 1084 1 is_stmt 1
	.cfi_startproc
.LVL572:
	.loc 1 1085 5
	.loc 1 1086 5
	.loc 1 1086 10
	.loc 1 1086 17
	.loc 1 1087 5
	.loc 1 1087 10
	.loc 1 1087 17
	.loc 1 1089 5
	.loc 1 1089 12 is_stmt 0
	lw	a5,4(a0)
.LVL573:
	.loc 1 1084 1
	mv	a4,a0
.L242:
	.loc 1 1089 20 is_stmt 1 discriminator 1
	.loc 1 1089 5 is_stmt 0 discriminator 1
	bne	a5,zero,.L244
.L243:
	.loc 1 1093 5 is_stmt 1
	.loc 1 1093 12 is_stmt 0
	lw	a3,4(a1)
.LVL574:
.L245:
	.loc 1 1093 20 is_stmt 1 discriminator 1
	.loc 1 1093 5 is_stmt 0 discriminator 1
	bne	a3,zero,.L247
	.loc 1 1097 5 is_stmt 1
	.loc 1 1112 11 is_stmt 0
	li	a0,0
.LVL575:
	.loc 1 1097 7
	bne	a5,zero,.L258
.LVL576:
.L241:
	.loc 1 1113 1
	ret
.LVL577:
.L244:
	.loc 1 1090 9 is_stmt 1
	.loc 1 1090 17 is_stmt 0
	lw	a3,8(a4)
	slli	a2,a5,2
	add	a3,a3,a2
	.loc 1 1090 11
	lw	a3,-4(a3)
	bne	a3,zero,.L243
	.loc 1 1089 27 is_stmt 1 discriminator 2
	.loc 1 1089 28 is_stmt 0 discriminator 2
	addi	a5,a5,-1
.LVL578:
	j	.L242
.LVL579:
.L247:
	.loc 1 1094 9 is_stmt 1
	.loc 1 1094 14 is_stmt 0
	lw	a6,8(a1)
	.loc 1 1094 17
	slli	a2,a3,2
	add	a2,a6,a2
	.loc 1 1094 11
	lw	a2,-4(a2)
	bne	a2,zero,.L246
	.loc 1 1093 27 is_stmt 1 discriminator 2
	.loc 1 1093 28 is_stmt 0 discriminator 2
	addi	a3,a3,-1
.LVL580:
	j	.L245
.L249:
	.loc 1 1101 5 is_stmt 1
	.loc 1 1101 7 is_stmt 0
	bgeu	a5,a3,.L251
.L256:
	.loc 1 1101 17 is_stmt 1 discriminator 1
	.loc 1 1101 25 is_stmt 0 discriminator 1
	lw	a0,0(a1)
.LVL581:
.L268:
	.loc 1 1109 41 is_stmt 1 discriminator 1
	.loc 1 1109 49 is_stmt 0 discriminator 1
	neg	a0,a0
	ret
.LVL582:
.L251:
	.loc 1 1103 5 is_stmt 1
	.loc 1 1103 10 is_stmt 0
	lw	a0,0(a4)
.LVL583:
	.loc 1 1101 27
	lw	a3,0(a1)
.LVL584:
	.loc 1 1103 7
	ble	a0,zero,.L252
	.loc 1 1103 18 discriminator 1
	bge	a3,zero,.L253
	.loc 1 1103 38
	li	a0,1
	ret
.L252:
	.loc 1 1104 5 is_stmt 1
	.loc 1 1104 7 is_stmt 0
	ble	a3,zero,.L253
	.loc 1 1104 18 discriminator 1
	beq	a0,zero,.L253
	.loc 1 1104 38
	li	a0,-1
	ret
.L253:
	addi	a5,a5,-1
.LVL585:
	.loc 1 1106 12 is_stmt 1 discriminator 1
	.loc 1 1106 5 is_stmt 0 discriminator 1
	li	a1,-1
.LVL586:
.L255:
	.loc 1 1108 9 is_stmt 1
	.loc 1 1108 17 is_stmt 0
	lw	a2,8(a4)
	slli	a3,a5,2
	add	a2,a2,a3
	.loc 1 1108 31
	add	a3,a6,a3
	.loc 1 1108 17
	lw	a2,0(a2)
	.loc 1 1108 31
	lw	a3,0(a3)
	.loc 1 1108 11
	bgtu	a2,a3,.L241
	.loc 1 1109 9 is_stmt 1
	.loc 1 1109 11 is_stmt 0
	addi	a5,a5,-1
.LVL587:
	bltu	a2,a3,.L268
.LVL588:
	.loc 1 1106 12 is_stmt 1 discriminator 1
	.loc 1 1106 5 is_stmt 0 discriminator 1
	bne	a5,a1,.L255
	.loc 1 1112 11
	li	a0,0
	ret
.LVL589:
.L246:
	.loc 1 1097 5 is_stmt 1
	.loc 1 1097 7 is_stmt 0
	beq	a5,zero,.L256
	.loc 1 1100 5 is_stmt 1
	.loc 1 1100 7 is_stmt 0
	bleu	a5,a3,.L249
.LVL590:
.L258:
	.loc 1 1100 17 is_stmt 1 discriminator 1
	.loc 1 1100 26 is_stmt 0 discriminator 1
	lw	a0,0(a4)
	ret
	.cfi_endproc
.LFE35:
	.size	mbedtls_mpi_cmp_mpi, .-mbedtls_mpi_cmp_mpi
	.section	.text.mbedtls_mpi_lt_mpi_ct,"ax",@progbits
	.align	1
	.globl	mbedtls_mpi_lt_mpi_ct
	.type	mbedtls_mpi_lt_mpi_ct, @function
mbedtls_mpi_lt_mpi_ct:
.LFB37:
	.loc 1 1155 1 is_stmt 1
	.cfi_startproc
.LVL591:
	.loc 1 1156 5
	.loc 1 1158 5
	.loc 1 1160 5
	.loc 1 1160 10
	.loc 1 1160 17
	.loc 1 1161 5
	.loc 1 1161 10
	.loc 1 1161 17
	.loc 1 1162 5
	.loc 1 1162 10
	.loc 1 1162 17
	.loc 1 1164 5
	.loc 1 1164 7 is_stmt 0
	lw	a4,4(a0)
	lw	a5,4(a1)
	bne	a4,a5,.L273
	.loc 1 1171 5 is_stmt 1
	.loc 1 1171 34 is_stmt 0
	lw	a4,0(a0)
	.loc 1 1198 28
	li	t3,1
	.loc 1 1188 5
	li	t4,-1
	.loc 1 1171 34
	srai	a5,a4,1
	.loc 1 1172 34
	lw	a4,0(a1)
	.loc 1 1171 19
	andi	a7,a5,1
.LVL592:
	.loc 1 1172 5 is_stmt 1
	.loc 1 1179 5
	.loc 1 1209 43 is_stmt 0
	sub	t5,t3,a7
	.loc 1 1172 34
	srai	a4,a4,1
.LVL593:
	.loc 1 1179 10
	xor	a4,a4,a5
	andi	a5,a4,1
.LVL594:
	.loc 1 1180 5 is_stmt 1
	.loc 1 1180 17 is_stmt 0
	and	a4,a4,a7
	.loc 1 1180 10
	sw	a4,0(a2)
.LVL595:
	.loc 1 1186 5 is_stmt 1
	.loc 1 1188 5
	.loc 1 1188 12 is_stmt 0
	lw	t1,4(a0)
.LVL596:
.L271:
	.loc 1 1188 20 is_stmt 1 discriminator 1
	.loc 1 1188 5 is_stmt 0 discriminator 1
	addi	t1,t1,-1
.LVL597:
	bne	t1,t4,.L272
	.loc 1 1213 11
	li	a0,0
.LVL598:
	ret
.LVL599:
.L272:
	.loc 1 1197 9 is_stmt 1 discriminator 3
	.loc 1 1197 16 is_stmt 0 discriminator 3
	lw	a3,8(a1)
	slli	a4,t1,2
	mv	t6,a4
	add	a4,a3,a4
	lw	a3,0(a4)
	lw	a4,8(a0)
	add	a4,a4,t6
	lw	a4,0(a4)
.LVL600:
.LBB154:
.LBB155:
	.loc 1 1125 5 is_stmt 1 discriminator 3
	.loc 1 1126 5 discriminator 3
	.loc 1 1131 5 discriminator 3
	.loc 1 1136 5 discriminator 3
	.loc 1 1136 15 is_stmt 0 discriminator 3
	sub	a6,a3,a4
.LVL601:
	.loc 1 1142 5 is_stmt 1 discriminator 3
	.loc 1 1131 10 is_stmt 0 discriminator 3
	xor	a3,a3,a4
.LVL602:
	.loc 1 1142 9 discriminator 3
	xor	a4,a4,a6
.LVL603:
	and	a4,a3,a4
	xor	a4,a4,a6
.LVL604:
	.loc 1 1145 5 is_stmt 1 discriminator 3
	.loc 1 1145 9 is_stmt 0 discriminator 3
	srli	a4,a4,31
.LVL605:
	.loc 1 1147 5 is_stmt 1 discriminator 3
.LBE155:
.LBE154:
	.loc 1 1198 9 discriminator 3
	.loc 1 1198 37 is_stmt 0 discriminator 3
	and	a3,a7,a4
	.loc 1 1198 28 discriminator 3
	sub	a6,t3,a5
	.loc 1 1198 37 discriminator 3
	and	a6,a6,a3
	.loc 1 1198 14 discriminator 3
	lw	a3,0(a2)
	.loc 1 1199 14 discriminator 3
	or	a5,a5,a4
.LVL606:
	.loc 1 1198 14 discriminator 3
	or	a6,a6,a3
	sw	a6,0(a2)
	.loc 1 1199 9 is_stmt 1 discriminator 3
.LVL607:
	.loc 1 1208 9 discriminator 3
	.loc 1 1208 16 is_stmt 0 discriminator 3
	lw	a3,8(a0)
	lw	a4,8(a1)
.LVL608:
	add	a3,a3,t6
	add	a4,a4,t6
	lw	a4,0(a4)
	lw	a3,0(a3)
.LVL609:
.LBB156:
.LBB157:
	.loc 1 1125 5 is_stmt 1 discriminator 3
	.loc 1 1126 5 discriminator 3
	.loc 1 1131 5 discriminator 3
	.loc 1 1136 5 discriminator 3
	.loc 1 1136 15 is_stmt 0 discriminator 3
	sub	t6,a3,a4
.LVL610:
	.loc 1 1142 5 is_stmt 1 discriminator 3
	.loc 1 1131 10 is_stmt 0 discriminator 3
	xor	a3,a3,a4
.LVL611:
	.loc 1 1142 9 discriminator 3
	xor	a4,a4,t6
.LVL612:
	and	a4,a3,a4
	xor	a4,a4,t6
.LVL613:
	.loc 1 1145 5 is_stmt 1 discriminator 3
	.loc 1 1145 9 is_stmt 0 discriminator 3
	srli	a4,a4,31
.LVL614:
	.loc 1 1147 5 is_stmt 1 discriminator 3
.LBE157:
.LBE156:
	.loc 1 1209 9 discriminator 3
	.loc 1 1209 28 is_stmt 0 discriminator 3
	sub	t6,t3,a5
	.loc 1 1209 37 discriminator 3
	and	a3,t5,a4
	and	a3,a3,t6
	.loc 1 1209 14 discriminator 3
	or	a6,a3,a6
	sw	a6,0(a2)
	.loc 1 1210 9 is_stmt 1 discriminator 3
	.loc 1 1210 14 is_stmt 0 discriminator 3
	or	a5,a5,a4
.LVL615:
	.loc 1 1188 27 is_stmt 1 discriminator 3
	j	.L271
.LVL616:
.L273:
	.loc 1 1165 16 is_stmt 0
	li	a0,-4
.LVL617:
	.loc 1 1214 1
	ret
	.cfi_endproc
.LFE37:
	.size	mbedtls_mpi_lt_mpi_ct, .-mbedtls_mpi_lt_mpi_ct
	.section	.text.mbedtls_mpi_cmp_int,"ax",@progbits
	.align	1
	.globl	mbedtls_mpi_cmp_int
	.type	mbedtls_mpi_cmp_int, @function
mbedtls_mpi_cmp_int:
.LFB38:
	.loc 1 1220 1 is_stmt 1
	.cfi_startproc
.LVL618:
	.loc 1 1221 5
	.loc 1 1222 5
	.loc 1 1223 5
	.loc 1 1223 10
	.loc 1 1223 17
	.loc 1 1225 5
	.loc 1 1225 25 is_stmt 0
	srai	a4,a1,31
	xor	a5,a4,a1
	.loc 1 1220 1
	addi	sp,sp,-32
	.cfi_def_cfa_offset 32
	.loc 1 1225 25
	sub	a5,a5,a4
	.loc 1 1225 8
	sw	a5,0(sp)
	.loc 1 1226 5 is_stmt 1
	.loc 1 1220 1 is_stmt 0
	sw	ra,28(sp)
	.cfi_offset 1, -4
	.loc 1 1226 26
	li	a5,1
	bge	a1,zero,.L275
	li	a5,-1
.L275:
	.loc 1 1226 9 discriminator 4
	sw	a5,4(sp)
	.loc 1 1227 5 is_stmt 1 discriminator 4
	.loc 1 1230 13 is_stmt 0 discriminator 4
	addi	a1,sp,4
.LVL619:
	.loc 1 1227 9 discriminator 4
	li	a5,1
	sw	a5,8(sp)
	.loc 1 1228 5 is_stmt 1 discriminator 4
	.loc 1 1228 9 is_stmt 0 discriminator 4
	sw	sp,12(sp)
	.loc 1 1230 5 is_stmt 1 discriminator 4
	.loc 1 1230 13 is_stmt 0 discriminator 4
	call	mbedtls_mpi_cmp_mpi
.LVL620:
	.loc 1 1231 1 discriminator 4
	lw	ra,28(sp)
	.cfi_restore 1
	addi	sp,sp,32
	.cfi_def_cfa_offset 0
	jr	ra
	.cfi_endproc
.LFE38:
	.size	mbedtls_mpi_cmp_int, .-mbedtls_mpi_cmp_int
	.section	.text.mbedtls_mpi_add_abs,"ax",@progbits
	.align	1
	.globl	mbedtls_mpi_add_abs
	.type	mbedtls_mpi_add_abs, @function
mbedtls_mpi_add_abs:
.LFB39:
	.loc 1 1237 1 is_stmt 1
	.cfi_startproc
.LVL621:
	.loc 1 1238 5
	.loc 1 1239 5
	.loc 1 1240 5
	.loc 1 1241 5
	.loc 1 1241 10
	.loc 1 1241 17
	.loc 1 1242 5
	.loc 1 1242 10
	.loc 1 1242 17
	.loc 1 1243 5
	.loc 1 1243 10
	.loc 1 1243 17
	.loc 1 1245 5
	.loc 1 1237 1 is_stmt 0
	addi	sp,sp,-32
	.cfi_def_cfa_offset 32
	sw	s1,20(sp)
	sw	s2,16(sp)
	sw	ra,28(sp)
	sw	s0,24(sp)
	sw	s3,12(sp)
	sw	s4,8(sp)
	.cfi_offset 9, -12
	.cfi_offset 18, -16
	.cfi_offset 1, -4
	.cfi_offset 8, -8
	.cfi_offset 19, -20
	.cfi_offset 20, -24
	.loc 1 1237 1
	mv	s1,a0
	mv	s2,a1
	.loc 1 1245 7
	beq	a0,a2,.L280
	mv	s0,a2
	.loc 1 1250 5 is_stmt 1
	.loc 1 1250 7 is_stmt 0
	bne	a0,a1,.L281
.LVL622:
.L283:
	.loc 1 1237 1
	mv	s2,s0
.LVL623:
.L280:
	.loc 1 1251 83 is_stmt 1 discriminator 2
	.loc 1 1256 5 discriminator 2
	.loc 1 1256 10 is_stmt 0 discriminator 2
	li	a5,1
	sw	a5,0(s1)
	.loc 1 1258 5 is_stmt 1 discriminator 2
	.loc 1 1258 12 is_stmt 0 discriminator 2
	lw	s0,4(s2)
.LVL624:
.L284:
	.loc 1 1258 20 is_stmt 1 discriminator 1
	.loc 1 1258 5 is_stmt 0 discriminator 1
	bne	s0,zero,.L286
.L285:
	.loc 1 1262 5 is_stmt 1
	.loc 1 1262 10
	.loc 1 1262 23 is_stmt 0
	mv	a1,s0
	mv	a0,s1
	call	mbedtls_mpi_grow
.LVL625:
	mv	s4,a0
.LVL626:
	.loc 1 1262 12
	bne	a0,zero,.L279
	.loc 1 1262 79 is_stmt 1 discriminator 2
	.loc 1 1264 5 discriminator 2
	.loc 1 1264 17 is_stmt 0 discriminator 2
	lw	a5,8(s1)
	.loc 1 1264 7 discriminator 2
	lw	a0,8(s2)
.LVL627:
	.loc 1 1264 15 is_stmt 1 discriminator 2
	.loc 1 1264 25 discriminator 2
	.loc 1 1269 5 discriminator 2
	.loc 1 1269 12 is_stmt 0 discriminator 2
	li	a3,0
	.loc 1 1264 17 discriminator 2
	mv	a2,a5
	.loc 1 1264 27 discriminator 2
	li	s2,0
.LVL628:
.L287:
	.loc 1 1269 17 is_stmt 1 discriminator 1
	.loc 1 1269 5 is_stmt 0 discriminator 1
	bne	s0,a3,.L288
	slli	a4,s0,2
	add	a5,a5,a4
.LVL629:
.L289:
	.loc 1 1276 10 is_stmt 1
	beq	s2,zero,.L279
	.loc 1 1278 9
	.loc 1 1278 11 is_stmt 0
	lw	a4,4(s1)
	addi	s3,s0,1
	bgtu	a4,s0,.L290
	.loc 1 1280 13 is_stmt 1
	.loc 1 1280 18
	.loc 1 1280 31 is_stmt 0
	mv	a1,s3
	mv	a0,s1
	call	mbedtls_mpi_grow
.LVL630:
	.loc 1 1280 20
	bne	a0,zero,.L292
	.loc 1 1280 91 is_stmt 1 discriminator 2
	.loc 1 1281 13 discriminator 2
	.loc 1 1281 15 is_stmt 0 discriminator 2
	lw	a5,8(s1)
	slli	s0,s0,2
.LVL631:
	add	a5,a5,s0
.LVL632:
.L290:
	.loc 1 1284 9 is_stmt 1
	.loc 1 1284 12 is_stmt 0
	lw	a4,0(a5)
	.loc 1 1284 40
	mv	s0,s3
	.loc 1 1284 12
	add	a4,s2,a4
	sw	a4,0(a5)
	.loc 1 1284 18 is_stmt 1
	.loc 1 1284 27 is_stmt 0
	sltu	s2,a4,s2
.LVL633:
	.loc 1 1284 34 is_stmt 1
	.loc 1 1284 39
	.loc 1 1284 40 is_stmt 0
	addi	a5,a5,4
.LVL634:
	j	.L289
.LVL635:
.L281:
	.loc 1 1251 9 is_stmt 1
	.loc 1 1251 14
	.loc 1 1251 27 is_stmt 0
	call	mbedtls_mpi_copy
.LVL636:
	mv	s4,a0
.LVL637:
	.loc 1 1251 16
	beq	a0,zero,.L283
.LVL638:
.L279:
	.loc 1 1290 1
	lw	ra,28(sp)
	.cfi_remember_state
	.cfi_restore 1
	lw	s0,24(sp)
	.cfi_restore 8
	lw	s1,20(sp)
	.cfi_restore 9
.LVL639:
	lw	s2,16(sp)
	.cfi_restore 18
	lw	s3,12(sp)
	.cfi_restore 19
	mv	a0,s4
	lw	s4,8(sp)
	.cfi_restore 20
	addi	sp,sp,32
	.cfi_def_cfa_offset 0
	jr	ra
.LVL640:
.L286:
	.cfi_restore_state
	.loc 1 1259 9 is_stmt 1
	.loc 1 1259 17 is_stmt 0
	lw	a5,8(s2)
	slli	a4,s0,2
	add	a5,a5,a4
	.loc 1 1259 11
	lw	a5,-4(a5)
	bne	a5,zero,.L285
	.loc 1 1258 27 is_stmt 1 discriminator 2
	.loc 1 1258 28 is_stmt 0 discriminator 2
	addi	s0,s0,-1
.LVL641:
	j	.L284
.LVL642:
.L288:
	.loc 1 1271 9 is_stmt 1 discriminator 3
	.loc 1 1271 12 is_stmt 0 discriminator 3
	slli	a4,a3,2
	add	a4,a0,a4
	lw	a1,0(a4)
.LVL643:
	.loc 1 1272 9 is_stmt 1 discriminator 3
	.loc 1 1272 12 is_stmt 0 discriminator 3
	lw	a4,0(a2)
	.loc 1 1269 25 discriminator 3
	addi	a3,a3,1
.LVL644:
	.loc 1 1272 12 discriminator 3
	add	a4,s2,a4
	.loc 1 1272 18 is_stmt 1 discriminator 3
	.loc 1 1272 27 is_stmt 0 discriminator 3
	sltu	s2,a4,s2
.LVL645:
	.loc 1 1273 9 is_stmt 1 discriminator 3
	.loc 1 1273 12 is_stmt 0 discriminator 3
	add	a4,a4,a1
	sw	a4,0(a2)
	.loc 1 1273 20 is_stmt 1 discriminator 3
	.loc 1 1273 30 is_stmt 0 discriminator 3
	sltu	a4,a4,a1
	.loc 1 1273 22 discriminator 3
	add	s2,a4,s2
.LVL646:
	.loc 1 1269 24 is_stmt 1 discriminator 3
	.loc 1 1269 35 is_stmt 0 discriminator 3
	addi	a2,a2,4
.LVL647:
	j	.L287
.LVL648:
.L292:
.L282:
	.loc 1 1289 5 is_stmt 1
	mv	s4,a0
	.loc 1 1289 11 is_stmt 0
	j	.L279
	.cfi_endproc
.LFE39:
	.size	mbedtls_mpi_add_abs, .-mbedtls_mpi_add_abs
	.section	.text.mbedtls_mpi_sub_abs,"ax",@progbits
	.align	1
	.globl	mbedtls_mpi_sub_abs
	.type	mbedtls_mpi_sub_abs, @function
mbedtls_mpi_sub_abs:
.LFB41:
	.loc 1 1327 1 is_stmt 1
	.cfi_startproc
.LVL649:
	.loc 1 1328 5
	.loc 1 1329 5
	.loc 1 1330 5
	.loc 1 1331 5
	.loc 1 1332 5
	.loc 1 1332 10
	.loc 1 1332 17
	.loc 1 1333 5
	.loc 1 1333 10
	.loc 1 1333 17
	.loc 1 1334 5
	.loc 1 1334 10
	.loc 1 1334 17
	.loc 1 1336 5
	.loc 1 1327 1 is_stmt 0
	addi	sp,sp,-48
	.cfi_def_cfa_offset 48
.LVL650:
.LBB158:
.LBB159:
	.loc 1 116 5 is_stmt 1
	.loc 1 116 10
	.loc 1 116 17
	.loc 1 118 5
	.loc 1 118 10 is_stmt 0
	li	a5,1
.LBE159:
.LBE158:
	.loc 1 1327 1
	sw	s1,36(sp)
	sw	s2,32(sp)
	sw	s3,28(sp)
	sw	ra,44(sp)
	sw	s0,40(sp)
	.cfi_offset 9, -12
	.cfi_offset 18, -16
	.cfi_offset 19, -20
	.cfi_offset 1, -4
	.cfi_offset 8, -8
.LBB161:
.LBB160:
	.loc 1 118 10
	sw	a5,4(sp)
	.loc 1 119 5 is_stmt 1
	.loc 1 119 10 is_stmt 0
	sw	zero,8(sp)
	.loc 1 120 5 is_stmt 1
	.loc 1 120 10 is_stmt 0
	sw	zero,12(sp)
.LVL651:
.LBE160:
.LBE161:
	.loc 1 1338 5 is_stmt 1
	.loc 1 1327 1 is_stmt 0
	mv	s1,a0
	mv	s3,a1
	mv	s2,a2
	.loc 1 1338 7
	bne	a0,a2,.L295
	.loc 1 1340 9 is_stmt 1
	.loc 1 1340 14
	.loc 1 1340 27 is_stmt 0
	mv	a1,a0
.LVL652:
	addi	a0,sp,4
.LVL653:
	call	mbedtls_mpi_copy
.LVL654:
	mv	s0,a0
.LVL655:
	.loc 1 1341 11
	addi	s2,sp,4
.LVL656:
	.loc 1 1340 16
	beq	a0,zero,.L295
.LVL657:
.L296:
	.loc 1 1382 5 is_stmt 1
	addi	a0,sp,4
	call	mbedtls_mpi_free
.LVL658:
	.loc 1 1384 5
	.loc 1 1385 1 is_stmt 0
	lw	ra,44(sp)
	.cfi_remember_state
	.cfi_restore 1
	mv	a0,s0
	lw	s0,40(sp)
	.cfi_restore 8
.LVL659:
	lw	s1,36(sp)
	.cfi_restore 9
.LVL660:
	lw	s2,32(sp)
	.cfi_restore 18
	lw	s3,28(sp)
	.cfi_restore 19
.LVL661:
	addi	sp,sp,48
	.cfi_def_cfa_offset 0
	jr	ra
.LVL662:
.L295:
	.cfi_restore_state
	.loc 1 1344 5 is_stmt 1
	.loc 1 1344 7 is_stmt 0
	bne	s1,s3,.L297
.L299:
	.loc 1 1345 83 is_stmt 1
	.loc 1 1350 5
	.loc 1 1350 10 is_stmt 0
	li	a5,1
	sw	a5,0(s1)
	.loc 1 1352 5 is_stmt 1
.LVL663:
	.loc 1 1354 5
	.loc 1 1354 12 is_stmt 0
	lw	s0,4(s2)
.LVL664:
	.loc 1 1355 14
	lw	a2,8(s2)
.L298:
	.loc 1 1354 20 is_stmt 1 discriminator 1
	.loc 1 1354 5 is_stmt 0 discriminator 1
	bne	s0,zero,.L301
.L302:
	.loc 1 1364 5 is_stmt 1
	.loc 1 1364 13 is_stmt 0
	lw	a1,8(s1)
	mv	a0,s0
	call	mpi_sub_hlp
.LVL665:
	.loc 1 1365 5 is_stmt 1
	.loc 1 1369 13 is_stmt 0
	li	a3,-1
	.loc 1 1365 7
	bne	a0,zero,.L303
.LVL666:
.L312:
	.loc 1 1352 9
	li	s0,0
	j	.L296
.LVL667:
.L297:
	.loc 1 1345 9 is_stmt 1
	.loc 1 1345 14
	.loc 1 1345 27 is_stmt 0
	mv	a1,s3
	mv	a0,s1
	call	mbedtls_mpi_copy
.LVL668:
	mv	s0,a0
.LVL669:
	.loc 1 1345 16
	beq	a0,zero,.L299
	j	.L296
.LVL670:
.L301:
	.loc 1 1355 9 is_stmt 1
	.loc 1 1355 17 is_stmt 0
	slli	a5,s0,2
	add	a5,a2,a5
	.loc 1 1355 11
	lw	a5,-4(a5)
	bne	a5,zero,.L300
	.loc 1 1354 27 is_stmt 1 discriminator 2
	.loc 1 1354 28 is_stmt 0 discriminator 2
	addi	s0,s0,-1
.LVL671:
	j	.L298
.L300:
	.loc 1 1357 5 is_stmt 1
	.loc 1 1357 7 is_stmt 0
	lw	a5,4(s3)
	bgeu	a5,s0,.L302
.L307:
	.loc 1 1360 13
	li	s0,-10
.LVL672:
	j	.L296
.LVL673:
.L305:
	.loc 1 1369 13 is_stmt 1 discriminator 3
	sw	a3,0(a5)
	.loc 1 1368 42 discriminator 3
	.loc 1 1368 43 is_stmt 0 discriminator 3
	addi	s0,s0,1
.LVL674:
.L303:
	.loc 1 1368 16 is_stmt 1 discriminator 1
	.loc 1 1368 21 is_stmt 0 discriminator 1
	lw	a5,4(s1)
	.loc 1 1368 9 discriminator 1
	bleu	a5,s0,.L304
	.loc 1 1368 32 discriminator 2
	lw	a4,8(s1)
	slli	a5,s0,2
	add	a5,a4,a5
	.loc 1 1368 25 discriminator 2
	lw	a4,0(a5)
	beq	a4,zero,.L305
.L306:
	.loc 1 1377 9 is_stmt 1
	.loc 1 1377 15 is_stmt 0
	lw	a5,8(s1)
	slli	s0,s0,2
.LVL675:
	add	s0,a5,s0
	.loc 1 1377 9
	lw	a5,0(s0)
	addi	a5,a5,-1
	sw	a5,0(s0)
	j	.L312
.LVL676:
.L304:
	.loc 1 1372 9 is_stmt 1
	.loc 1 1372 11 is_stmt 0
	bne	a5,s0,.L306
	j	.L307
	.cfi_endproc
.LFE41:
	.size	mbedtls_mpi_sub_abs, .-mbedtls_mpi_sub_abs
	.section	.text.mbedtls_mpi_add_mpi,"ax",@progbits
	.align	1
	.globl	mbedtls_mpi_add_mpi
	.type	mbedtls_mpi_add_mpi, @function
mbedtls_mpi_add_mpi:
.LFB42:
	.loc 1 1391 1 is_stmt 1
	.cfi_startproc
.LVL677:
	.loc 1 1392 5
	.loc 1 1393 5
	.loc 1 1393 10
	.loc 1 1393 17
	.loc 1 1394 5
	.loc 1 1394 10
	.loc 1 1394 17
	.loc 1 1395 5
	.loc 1 1395 10
	.loc 1 1395 17
	.loc 1 1397 5
	.loc 1 1391 1 is_stmt 0
	addi	sp,sp,-32
	.cfi_def_cfa_offset 32
	sw	s0,24(sp)
	sw	ra,28(sp)
	sw	s1,20(sp)
	sw	s2,16(sp)
	sw	s3,12(sp)
	.cfi_offset 8, -8
	.cfi_offset 1, -4
	.cfi_offset 9, -12
	.cfi_offset 18, -16
	.cfi_offset 19, -20
	.loc 1 1397 7
	lw	s1,0(a1)
.LVL678:
	.loc 1 1398 5 is_stmt 1
	.loc 1 1398 14 is_stmt 0
	lw	a5,0(a2)
	.loc 1 1391 1
	mv	s0,a0
	.loc 1 1398 14
	mul	a5,s1,a5
	.loc 1 1398 7
	bge	a5,zero,.L314
	mv	s3,a1
	.loc 1 1400 13
	mv	a0,s3
.LVL679:
	mv	a1,a2
.LVL680:
	mv	s2,a2
	.loc 1 1400 9 is_stmt 1
	.loc 1 1400 13 is_stmt 0
	call	mbedtls_mpi_cmp_abs
.LVL681:
	.loc 1 1400 11
	blt	a0,zero,.L315
	.loc 1 1402 13 is_stmt 1
	.loc 1 1402 18
	.loc 1 1402 31 is_stmt 0
	mv	a2,s2
	mv	a1,s3
	mv	a0,s0
	call	mbedtls_mpi_sub_abs
.LVL682:
.L319:
	.loc 1 1413 16
	bne	a0,zero,.L313
.LVL683:
.L318:
.L316:
	.loc 1 1413 89 is_stmt 1 discriminator 2
	.loc 1 1414 9 discriminator 2
	.loc 1 1419 5 discriminator 2
	.loc 1 1414 14 is_stmt 0 discriminator 2
	sw	s1,0(s0)
	.loc 1 1419 11 discriminator 2
	j	.L313
.LVL684:
.L315:
	.loc 1 1407 13 is_stmt 1
	.loc 1 1407 18
	.loc 1 1407 31 is_stmt 0
	mv	a2,s3
	mv	a1,s2
	mv	a0,s0
	call	mbedtls_mpi_sub_abs
.LVL685:
	.loc 1 1408 20
	neg	s1,s1
.LVL686:
	.loc 1 1407 20
	beq	a0,zero,.L318
.LVL687:
.L313:
	.loc 1 1420 1
	lw	ra,28(sp)
	.cfi_remember_state
	.cfi_restore 1
	lw	s0,24(sp)
	.cfi_restore 8
.LVL688:
	lw	s1,20(sp)
	.cfi_restore 9
	lw	s2,16(sp)
	.cfi_restore 18
	lw	s3,12(sp)
	.cfi_restore 19
	addi	sp,sp,32
	.cfi_def_cfa_offset 0
	jr	ra
.LVL689:
.L314:
	.cfi_restore_state
	.loc 1 1413 9 is_stmt 1
	.loc 1 1413 14
	.loc 1 1413 27 is_stmt 0
	call	mbedtls_mpi_add_abs
.LVL690:
	j	.L319
	.cfi_endproc
.LFE42:
	.size	mbedtls_mpi_add_mpi, .-mbedtls_mpi_add_mpi
	.section	.text.mbedtls_mpi_sub_mpi,"ax",@progbits
	.align	1
	.globl	mbedtls_mpi_sub_mpi
	.type	mbedtls_mpi_sub_mpi, @function
mbedtls_mpi_sub_mpi:
.LFB43:
	.loc 1 1426 1 is_stmt 1
	.cfi_startproc
.LVL691:
	.loc 1 1427 5
	.loc 1 1428 5
	.loc 1 1428 10
	.loc 1 1428 17
	.loc 1 1429 5
	.loc 1 1429 10
	.loc 1 1429 17
	.loc 1 1430 5
	.loc 1 1430 10
	.loc 1 1430 17
	.loc 1 1432 5
	.loc 1 1426 1 is_stmt 0
	addi	sp,sp,-32
	.cfi_def_cfa_offset 32
	sw	s0,24(sp)
	sw	ra,28(sp)
	sw	s1,20(sp)
	sw	s2,16(sp)
	sw	s3,12(sp)
	.cfi_offset 8, -8
	.cfi_offset 1, -4
	.cfi_offset 9, -12
	.cfi_offset 18, -16
	.cfi_offset 19, -20
	.loc 1 1432 7
	lw	s1,0(a1)
.LVL692:
	.loc 1 1433 5 is_stmt 1
	.loc 1 1433 14 is_stmt 0
	lw	a5,0(a2)
	.loc 1 1426 1
	mv	s0,a0
	.loc 1 1433 14
	mul	a5,s1,a5
	.loc 1 1433 7
	ble	a5,zero,.L321
	mv	s3,a1
	.loc 1 1435 13
	mv	a0,s3
.LVL693:
	mv	a1,a2
.LVL694:
	mv	s2,a2
	.loc 1 1435 9 is_stmt 1
	.loc 1 1435 13 is_stmt 0
	call	mbedtls_mpi_cmp_abs
.LVL695:
	.loc 1 1435 11
	blt	a0,zero,.L322
	.loc 1 1437 13 is_stmt 1
	.loc 1 1437 18
	.loc 1 1437 31 is_stmt 0
	mv	a2,s2
	mv	a1,s3
	mv	a0,s0
	call	mbedtls_mpi_sub_abs
.LVL696:
.L326:
	.loc 1 1448 16
	bne	a0,zero,.L320
.LVL697:
.L325:
.L323:
	.loc 1 1448 89 is_stmt 1 discriminator 2
	.loc 1 1449 9 discriminator 2
	.loc 1 1454 5 discriminator 2
	.loc 1 1449 14 is_stmt 0 discriminator 2
	sw	s1,0(s0)
	.loc 1 1454 11 discriminator 2
	j	.L320
.LVL698:
.L322:
	.loc 1 1442 13 is_stmt 1
	.loc 1 1442 18
	.loc 1 1442 31 is_stmt 0
	mv	a2,s3
	mv	a1,s2
	mv	a0,s0
	call	mbedtls_mpi_sub_abs
.LVL699:
	.loc 1 1443 20
	neg	s1,s1
.LVL700:
	.loc 1 1442 20
	beq	a0,zero,.L325
.LVL701:
.L320:
	.loc 1 1455 1
	lw	ra,28(sp)
	.cfi_remember_state
	.cfi_restore 1
	lw	s0,24(sp)
	.cfi_restore 8
.LVL702:
	lw	s1,20(sp)
	.cfi_restore 9
	lw	s2,16(sp)
	.cfi_restore 18
	lw	s3,12(sp)
	.cfi_restore 19
	addi	sp,sp,32
	.cfi_def_cfa_offset 0
	jr	ra
.LVL703:
.L321:
	.cfi_restore_state
	.loc 1 1448 9 is_stmt 1
	.loc 1 1448 14
	.loc 1 1448 27 is_stmt 0
	call	mbedtls_mpi_add_abs
.LVL704:
	j	.L326
	.cfi_endproc
.LFE43:
	.size	mbedtls_mpi_sub_mpi, .-mbedtls_mpi_sub_mpi
	.section	.text.mbedtls_mpi_add_int,"ax",@progbits
	.align	1
	.globl	mbedtls_mpi_add_int
	.type	mbedtls_mpi_add_int, @function
mbedtls_mpi_add_int:
.LFB44:
	.loc 1 1461 1 is_stmt 1
	.cfi_startproc
.LVL705:
	.loc 1 1462 5
	.loc 1 1463 5
	.loc 1 1464 5
	.loc 1 1464 10
	.loc 1 1464 17
	.loc 1 1465 5
	.loc 1 1465 10
	.loc 1 1465 17
	.loc 1 1467 5
	.loc 1 1467 27 is_stmt 0
	srai	a4,a2,31
	xor	a5,a4,a2
	.loc 1 1461 1
	addi	sp,sp,-32
	.cfi_def_cfa_offset 32
	.loc 1 1467 27
	sub	a5,a5,a4
	.loc 1 1467 10
	sw	a5,0(sp)
	.loc 1 1468 5 is_stmt 1
	.loc 1 1461 1 is_stmt 0
	sw	ra,28(sp)
	.cfi_offset 1, -4
	.loc 1 1468 27
	li	a5,1
	bge	a2,zero,.L328
	li	a5,-1
.L328:
	.loc 1 1468 10 discriminator 4
	sw	a5,4(sp)
	.loc 1 1469 5 is_stmt 1 discriminator 4
	.loc 1 1472 13 is_stmt 0 discriminator 4
	addi	a2,sp,4
.LVL706:
	.loc 1 1469 10 discriminator 4
	li	a5,1
	sw	a5,8(sp)
	.loc 1 1470 5 is_stmt 1 discriminator 4
	.loc 1 1470 10 is_stmt 0 discriminator 4
	sw	sp,12(sp)
	.loc 1 1472 5 is_stmt 1 discriminator 4
	.loc 1 1472 13 is_stmt 0 discriminator 4
	call	mbedtls_mpi_add_mpi
.LVL707:
	.loc 1 1473 1 discriminator 4
	lw	ra,28(sp)
	.cfi_restore 1
	addi	sp,sp,32
	.cfi_def_cfa_offset 0
	jr	ra
	.cfi_endproc
.LFE44:
	.size	mbedtls_mpi_add_int, .-mbedtls_mpi_add_int
	.section	.text.mbedtls_mpi_sub_int,"ax",@progbits
	.align	1
	.globl	mbedtls_mpi_sub_int
	.type	mbedtls_mpi_sub_int, @function
mbedtls_mpi_sub_int:
.LFB45:
	.loc 1 1479 1 is_stmt 1
	.cfi_startproc
.LVL708:
	.loc 1 1480 5
	.loc 1 1481 5
	.loc 1 1482 5
	.loc 1 1482 10
	.loc 1 1482 17
	.loc 1 1483 5
	.loc 1 1483 10
	.loc 1 1483 17
	.loc 1 1485 5
	.loc 1 1485 27 is_stmt 0
	srai	a4,a2,31
	xor	a5,a4,a2
	.loc 1 1479 1
	addi	sp,sp,-32
	.cfi_def_cfa_offset 32
	.loc 1 1485 27
	sub	a5,a5,a4
	.loc 1 1485 10
	sw	a5,0(sp)
	.loc 1 1486 5 is_stmt 1
	.loc 1 1479 1 is_stmt 0
	sw	ra,28(sp)
	.cfi_offset 1, -4
	.loc 1 1486 27
	li	a5,1
	bge	a2,zero,.L333
	li	a5,-1
.L333:
	.loc 1 1486 10 discriminator 4
	sw	a5,4(sp)
	.loc 1 1487 5 is_stmt 1 discriminator 4
	.loc 1 1490 13 is_stmt 0 discriminator 4
	addi	a2,sp,4
.LVL709:
	.loc 1 1487 10 discriminator 4
	li	a5,1
	sw	a5,8(sp)
	.loc 1 1488 5 is_stmt 1 discriminator 4
	.loc 1 1488 10 is_stmt 0 discriminator 4
	sw	sp,12(sp)
	.loc 1 1490 5 is_stmt 1 discriminator 4
	.loc 1 1490 13 is_stmt 0 discriminator 4
	call	mbedtls_mpi_sub_mpi
.LVL710:
	.loc 1 1491 1 discriminator 4
	lw	ra,28(sp)
	.cfi_restore 1
	addi	sp,sp,32
	.cfi_def_cfa_offset 0
	jr	ra
	.cfi_endproc
.LFE45:
	.size	mbedtls_mpi_sub_int, .-mbedtls_mpi_sub_int
	.section	.text.mbedtls_mpi_mul_mpi,"ax",@progbits
	.align	1
	.globl	mbedtls_mpi_mul_mpi
	.type	mbedtls_mpi_mul_mpi, @function
mbedtls_mpi_mul_mpi:
.LFB47:
	.loc 1 1569 1 is_stmt 1
	.cfi_startproc
.LVL711:
	.loc 1 1570 5
	.loc 1 1571 5
	.loc 1 1572 5
	.loc 1 1573 5
	.loc 1 1573 10
	.loc 1 1573 17
	.loc 1 1574 5
	.loc 1 1574 10
	.loc 1 1574 17
	.loc 1 1575 5
	.loc 1 1575 10
	.loc 1 1575 17
	.loc 1 1577 5
	.loc 1 1569 1 is_stmt 0
	addi	sp,sp,-64
	.cfi_def_cfa_offset 64
.LVL712:
.LBB162:
.LBB163:
	.loc 1 116 5 is_stmt 1
	.loc 1 116 10
	.loc 1 116 17
	.loc 1 118 5
	.loc 1 118 10 is_stmt 0
	li	a5,1
.LBE163:
.LBE162:
	.loc 1 1569 1
	sw	s1,52(sp)
	sw	s2,48(sp)
	sw	s4,40(sp)
	sw	ra,60(sp)
	sw	s0,56(sp)
	sw	s3,44(sp)
	sw	s5,36(sp)
	sw	s6,32(sp)
	.cfi_offset 9, -12
	.cfi_offset 18, -16
	.cfi_offset 20, -24
	.cfi_offset 1, -4
	.cfi_offset 8, -8
	.cfi_offset 19, -20
	.cfi_offset 21, -28
	.cfi_offset 22, -32
.LBB165:
.LBB164:
	.loc 1 118 10
	sw	a5,8(sp)
	.loc 1 119 5 is_stmt 1
	.loc 1 119 10 is_stmt 0
	sw	zero,12(sp)
	.loc 1 120 5 is_stmt 1
	.loc 1 120 10 is_stmt 0
	sw	zero,16(sp)
.LVL713:
.LBE164:
.LBE165:
	.loc 1 1577 30 is_stmt 1
.LBB166:
.LBB167:
	.loc 1 116 5
	.loc 1 116 10
	.loc 1 116 17
	.loc 1 118 5
	.loc 1 118 10 is_stmt 0
	sw	a5,20(sp)
	.loc 1 119 5 is_stmt 1
	.loc 1 119 10 is_stmt 0
	sw	zero,24(sp)
	.loc 1 120 5 is_stmt 1
	.loc 1 120 10 is_stmt 0
	sw	zero,28(sp)
.LVL714:
.LBE167:
.LBE166:
	.loc 1 1579 5 is_stmt 1
	.loc 1 1569 1 is_stmt 0
	mv	s4,a0
	mv	s1,a2
	mv	s2,a1
	.loc 1 1579 7
	bne	a0,a1,.L338
	.loc 1 1579 20 is_stmt 1 discriminator 1
	.loc 1 1579 25 discriminator 1
	.loc 1 1579 38 is_stmt 0 discriminator 1
	addi	a0,sp,8
.LVL715:
	call	mbedtls_mpi_copy
.LVL716:
	mv	s0,a0
.LVL717:
	.loc 1 1579 105 discriminator 1
	addi	s2,sp,8
.LVL718:
	.loc 1 1579 27 discriminator 1
	beq	a0,zero,.L338
.LVL719:
.L339:
	.loc 1 1600 5 is_stmt 1
	addi	a0,sp,20
	call	mbedtls_mpi_free
.LVL720:
	.loc 1 1600 30
	addi	a0,sp,8
	call	mbedtls_mpi_free
.LVL721:
	.loc 1 1602 5
	.loc 1 1603 1 is_stmt 0
	lw	ra,60(sp)
	.cfi_remember_state
	.cfi_restore 1
	mv	a0,s0
	lw	s0,56(sp)
	.cfi_restore 8
.LVL722:
	lw	s1,52(sp)
	.cfi_restore 9
.LVL723:
	lw	s2,48(sp)
	.cfi_restore 18
	lw	s3,44(sp)
	.cfi_restore 19
	lw	s4,40(sp)
	.cfi_restore 20
.LVL724:
	lw	s5,36(sp)
	.cfi_restore 21
	lw	s6,32(sp)
	.cfi_restore 22
	addi	sp,sp,64
	.cfi_def_cfa_offset 0
	jr	ra
.LVL725:
.L338:
	.cfi_restore_state
	.loc 1 1580 5 is_stmt 1
	.loc 1 1580 7 is_stmt 0
	bne	s4,s1,.L340
	.loc 1 1580 20 is_stmt 1 discriminator 1
	.loc 1 1580 25 discriminator 1
	.loc 1 1580 38 is_stmt 0 discriminator 1
	mv	a1,s4
	addi	a0,sp,20
	call	mbedtls_mpi_copy
.LVL726:
	mv	s0,a0
.LVL727:
	.loc 1 1580 27 discriminator 1
	bne	a0,zero,.L339
	.loc 1 1580 105
	addi	s1,sp,20
.LVL728:
.L340:
	.loc 1 1582 5 is_stmt 1
	.loc 1 1582 12 is_stmt 0
	lw	s5,4(s2)
.LVL729:
.L341:
	.loc 1 1582 20 is_stmt 1 discriminator 1
	.loc 1 1582 5 is_stmt 0 discriminator 1
	bne	s5,zero,.L343
.L342:
	.loc 1 1586 5 is_stmt 1
	.loc 1 1586 12 is_stmt 0
	lw	s3,4(s1)
.LVL730:
.L344:
	.loc 1 1586 20 is_stmt 1 discriminator 1
	.loc 1 1586 5 is_stmt 0 discriminator 1
	bne	s3,zero,.L346
.L345:
	.loc 1 1590 5 is_stmt 1
	.loc 1 1590 10
	.loc 1 1590 23 is_stmt 0
	add	a1,s5,s3
	mv	a0,s4
	call	mbedtls_mpi_grow
.LVL731:
	mv	s0,a0
.LVL732:
	.loc 1 1590 12
	bne	a0,zero,.L339
	.loc 1 1590 83 is_stmt 1 discriminator 2
	.loc 1 1591 5 discriminator 2
	.loc 1 1591 10 discriminator 2
	.loc 1 1591 23 is_stmt 0 discriminator 2
	li	a1,0
	mv	a0,s4
	call	mbedtls_mpi_lset
.LVL733:
	mv	s0,a0
.LVL734:
	.loc 1 1591 12 discriminator 2
	bne	a0,zero,.L339
	addi	s3,s3,-1
.LVL735:
	.loc 1 1593 5
	li	s6,-1
.LVL736:
.L347:
	.loc 1 1593 12 is_stmt 1 discriminator 1
	.loc 1 1593 5 is_stmt 0 discriminator 1
	bne	s3,s6,.L348
	.loc 1 1596 5 is_stmt 1
	.loc 1 1596 17 is_stmt 0
	lw	a5,0(s2)
	lw	a4,0(s1)
	mul	a5,a5,a4
	.loc 1 1596 10
	sw	a5,0(s4)
	j	.L339
.LVL737:
.L343:
	.loc 1 1583 9 is_stmt 1
	.loc 1 1583 17 is_stmt 0
	lw	a5,8(s2)
	slli	a4,s5,2
	add	a5,a5,a4
	.loc 1 1583 11
	lw	a5,-4(a5)
	bne	a5,zero,.L342
	.loc 1 1582 27 is_stmt 1 discriminator 2
	.loc 1 1582 28 is_stmt 0 discriminator 2
	addi	s5,s5,-1
.LVL738:
	j	.L341
.LVL739:
.L346:
	.loc 1 1587 9 is_stmt 1
	.loc 1 1587 17 is_stmt 0
	lw	a5,8(s1)
	slli	a4,s3,2
	add	a5,a5,a4
	.loc 1 1587 11
	lw	a5,-4(a5)
	bne	a5,zero,.L345
	.loc 1 1586 27 is_stmt 1 discriminator 2
	.loc 1 1586 28 is_stmt 0 discriminator 2
	addi	s3,s3,-1
.LVL740:
	j	.L344
.LVL741:
.L348:
	.loc 1 1594 9 is_stmt 1 discriminator 2
	lw	a5,8(s1)
	slli	a4,s3,2
	lw	a2,8(s4)
	add	a5,a5,a4
	lw	a3,0(a5)
	lw	a1,8(s2)
	add	a2,a2,a4
	mv	a0,s5
	call	mpi_mul_hlp
.LVL742:
	.loc 1 1593 19 discriminator 2
	addi	s3,s3,-1
.LVL743:
	j	.L347
	.cfi_endproc
.LFE47:
	.size	mbedtls_mpi_mul_mpi, .-mbedtls_mpi_mul_mpi
	.section	.text.mbedtls_mpi_mul_int,"ax",@progbits
	.align	1
	.globl	mbedtls_mpi_mul_int
	.type	mbedtls_mpi_mul_int, @function
mbedtls_mpi_mul_int:
.LFB48:
	.loc 1 1609 1
	.cfi_startproc
.LVL744:
	.loc 1 1610 5
	.loc 1 1611 5
	.loc 1 1612 5
	.loc 1 1612 10
	.loc 1 1612 17
	.loc 1 1613 5
	.loc 1 1613 10
	.loc 1 1613 17
	.loc 1 1615 5
	.loc 1 1609 1 is_stmt 0
	addi	sp,sp,-32
	.cfi_def_cfa_offset 32
	.loc 1 1615 10
	li	a5,1
	.loc 1 1618 10
	sw	a2,0(sp)
	.loc 1 1620 13
	addi	a2,sp,4
.LVL745:
	.loc 1 1609 1
	sw	ra,28(sp)
	.cfi_offset 1, -4
	.loc 1 1615 10
	sw	a5,4(sp)
	.loc 1 1616 5 is_stmt 1
	.loc 1 1616 10 is_stmt 0
	sw	a5,8(sp)
	.loc 1 1617 5 is_stmt 1
	.loc 1 1617 10 is_stmt 0
	sw	sp,12(sp)
	.loc 1 1618 5 is_stmt 1
	.loc 1 1620 5
	.loc 1 1620 13 is_stmt 0
	call	mbedtls_mpi_mul_mpi
.LVL746:
	.loc 1 1621 1
	lw	ra,28(sp)
	.cfi_restore 1
	addi	sp,sp,32
	.cfi_def_cfa_offset 0
	jr	ra
	.cfi_endproc
.LFE48:
	.size	mbedtls_mpi_mul_int, .-mbedtls_mpi_mul_int
	.section	.text.mbedtls_mpi_read_string,"ax",@progbits
	.align	1
	.globl	mbedtls_mpi_read_string
	.type	mbedtls_mpi_read_string, @function
mbedtls_mpi_read_string:
.LFB22:
	.loc 1 500 1 is_stmt 1
	.cfi_startproc
.LVL747:
	.loc 1 501 5
	.loc 1 502 5
	.loc 1 503 5
	.loc 1 504 5
	.loc 1 505 5
	.loc 1 505 10
	.loc 1 505 17
	.loc 1 506 5
	.loc 1 506 10
	.loc 1 506 17
	.loc 1 508 5
	.loc 1 500 1 is_stmt 0
	addi	sp,sp,-64
	.cfi_def_cfa_offset 64
	sw	ra,60(sp)
	sw	s0,56(sp)
	sw	s1,52(sp)
	sw	s2,48(sp)
	sw	s3,44(sp)
	sw	s4,40(sp)
	sw	s5,36(sp)
	sw	s6,32(sp)
	sw	s7,28(sp)
	sw	s8,24(sp)
	.cfi_offset 1, -4
	.cfi_offset 8, -8
	.cfi_offset 9, -12
	.cfi_offset 18, -16
	.cfi_offset 19, -20
	.cfi_offset 20, -24
	.cfi_offset 21, -28
	.cfi_offset 22, -32
	.cfi_offset 23, -36
	.cfi_offset 24, -40
	.loc 1 508 19
	addi	a4,a1,-2
	.loc 1 508 7
	li	a5,14
	bleu	a4,a5,.L354
.LVL748:
.L357:
	.loc 1 509 15
	li	s0,-4
.L353:
	.loc 1 568 1
	lw	ra,60(sp)
	.cfi_remember_state
	.cfi_restore 1
	mv	a0,s0
	lw	s0,56(sp)
	.cfi_restore 8
	lw	s1,52(sp)
	.cfi_restore 9
	lw	s2,48(sp)
	.cfi_restore 18
	lw	s3,44(sp)
	.cfi_restore 19
	lw	s4,40(sp)
	.cfi_restore 20
	lw	s5,36(sp)
	.cfi_restore 21
	lw	s6,32(sp)
	.cfi_restore 22
	lw	s7,28(sp)
	.cfi_restore 23
	lw	s8,24(sp)
	.cfi_restore 24
	addi	sp,sp,64
	.cfi_def_cfa_offset 0
	jr	ra
.LVL749:
.L354:
	.cfi_restore_state
.LBB168:
.LBB169:
	.loc 1 118 10
	li	a5,1
	mv	s1,a0
.LBE169:
.LBE168:
	.loc 1 513 12
	mv	a0,a2
.LVL750:
.LBB172:
.LBB170:
	.loc 1 118 10
	sw	a5,4(sp)
	mv	s4,a1
	mv	s3,a2
.LBE170:
.LBE172:
	.loc 1 511 5 is_stmt 1
.LVL751:
.LBB173:
.LBB171:
	.loc 1 116 5
	.loc 1 116 10
	.loc 1 116 17
	.loc 1 118 5
	.loc 1 119 5
	.loc 1 119 10 is_stmt 0
	sw	zero,8(sp)
	.loc 1 120 5 is_stmt 1
	.loc 1 120 10 is_stmt 0
	sw	zero,12(sp)
.LVL752:
.LBE171:
.LBE173:
	.loc 1 513 5 is_stmt 1
	.loc 1 513 12 is_stmt 0
	call	strlen
.LVL753:
	.loc 1 515 7
	li	a5,16
	.loc 1 513 12
	mv	s2,a0
.LVL754:
	.loc 1 515 5 is_stmt 1
	.loc 1 515 7 is_stmt 0
	bne	s4,a5,.L356
	.loc 1 517 9 is_stmt 1
	.loc 1 517 11 is_stmt 0
	li	a5,1073741824
	bgeu	a0,a5,.L357
	.loc 1 520 9 is_stmt 1
	.loc 1 520 21 is_stmt 0
	slli	a5,a0,2
.LVL755:
	.loc 1 522 9 is_stmt 1
	.loc 1 522 14
	.loc 1 520 79 is_stmt 0
	andi	a1,a5,31
	.loc 1 520 115
	snez	a1,a1
	.loc 1 520 27
	srli	a5,a5,5
.LVL756:
	.loc 1 522 27
	add	a1,a1,a5
	mv	a0,s1
.LVL757:
	call	mbedtls_mpi_grow
.LVL758:
	mv	s0,a0
.LVL759:
	.loc 1 522 16
	bne	a0,zero,.L358
	.loc 1 522 83 is_stmt 1 discriminator 2
	.loc 1 523 9 discriminator 2
	.loc 1 523 14 discriminator 2
	.loc 1 523 27 is_stmt 0 discriminator 2
	li	a1,0
	mv	a0,s1
	call	mbedtls_mpi_lset
.LVL760:
	mv	s0,a0
.LVL761:
	.loc 1 523 16 discriminator 2
	bne	a0,zero,.L358
	.loc 1 525 26
	li	s4,0
.LVL762:
	.loc 1 527 15
	li	s5,1
	.loc 1 527 24
	li	s6,45
.LVL763:
.L359:
	.loc 1 525 31 is_stmt 1 discriminator 2
	.loc 1 525 9 is_stmt 0 discriminator 2
	bne	s2,zero,.L361
.LVL764:
.L368:
	li	s0,0
	j	.L358
.LVL765:
.L361:
	.loc 1 527 13 is_stmt 1
	.loc 1 527 15 is_stmt 0
	bne	s2,s5,.L360
	.loc 1 527 24 discriminator 1
	lbu	a5,0(s3)
	bne	a5,s6,.L360
	.loc 1 529 17 is_stmt 1
	.loc 1 529 22 is_stmt 0
	li	a5,-1
	sw	a5,0(s1)
	.loc 1 530 17 is_stmt 1
.LVL766:
.L358:
	.loc 1 565 5
	addi	a0,sp,4
	call	mbedtls_mpi_free
.LVL767:
	.loc 1 567 5
	.loc 1 567 11 is_stmt 0
	j	.L353
.LVL768:
.L360:
	.loc 1 533 13 is_stmt 1
	.loc 1 533 18
	.loc 1 533 58 is_stmt 0
	addi	s2,s2,-1
.LVL769:
	.loc 1 533 31
	add	a5,s3,s2
	lbu	a2,0(a5)
	li	a1,16
	mv	a0,sp
	call	mpi_get_digit
.LVL770:
	.loc 1 533 20
	bne	a0,zero,.L369
	.loc 1 533 99 is_stmt 1 discriminator 2
	.loc 1 534 13 discriminator 2
	.loc 1 534 20 is_stmt 0 discriminator 2
	srli	a5,s4,3
	.loc 1 534 58 discriminator 2
	slli	a4,a5,2
	lw	a5,8(s1)
	.loc 1 534 111 discriminator 2
	slli	a3,s4,2
	andi	a3,a3,28
	.loc 1 534 58 discriminator 2
	add	a5,a5,a4
	.loc 1 534 63 discriminator 2
	lw	a4,0(sp)
	.loc 1 525 44 discriminator 2
	addi	s4,s4,1
.LVL771:
	.loc 1 534 63 discriminator 2
	sll	a3,a4,a3
	.loc 1 534 58 discriminator 2
	lw	a4,0(a5)
	or	a4,a4,a3
	sw	a4,0(a5)
	.loc 1 525 38 is_stmt 1 discriminator 2
.LVL772:
	j	.L359
.LVL773:
.L356:
	.loc 1 539 9
	.loc 1 539 14
	.loc 1 539 27 is_stmt 0
	li	a1,0
	mv	a0,s1
.LVL774:
	call	mbedtls_mpi_lset
.LVL775:
	mv	s0,a0
.LVL776:
	.loc 1 539 16
	bne	a0,zero,.L358
	.loc 1 541 16
	li	s5,0
	.loc 1 552 15
	li	s6,1
	.loc 1 543 24
	li	s7,45
	.loc 1 545 22
	li	s8,-1
.LVL777:
.L362:
	.loc 1 541 21 is_stmt 1 discriminator 2
	.loc 1 541 9 is_stmt 0 discriminator 2
	beq	s5,s2,.L368
	.loc 1 543 13 is_stmt 1
	.loc 1 543 15 is_stmt 0
	bne	s5,zero,.L363
	.loc 1 543 24 discriminator 1
	lbu	a5,0(s3)
	bne	a5,s7,.L363
	.loc 1 545 17 is_stmt 1
	.loc 1 545 22 is_stmt 0
	sw	s8,0(s1)
	.loc 1 546 17 is_stmt 1
.LVL778:
.L364:
	.loc 1 558 98 discriminator 2
	.loc 1 541 31 discriminator 2
	.loc 1 541 32 is_stmt 0 discriminator 2
	addi	s5,s5,1
.LVL779:
	j	.L362
.L363:
	.loc 1 549 13 is_stmt 1
	.loc 1 549 18
	.loc 1 549 31 is_stmt 0
	add	a5,s3,s5
	lbu	a2,0(a5)
	mv	a1,s4
	mv	a0,sp
	call	mpi_get_digit
.LVL780:
	mv	s0,a0
.LVL781:
	.loc 1 549 20
	bne	a0,zero,.L358
	.loc 1 549 95 is_stmt 1 discriminator 2
	.loc 1 550 13 discriminator 2
	.loc 1 550 18 discriminator 2
	.loc 1 550 31 is_stmt 0 discriminator 2
	mv	a2,s4
	mv	a1,s1
	addi	a0,sp,4
	call	mbedtls_mpi_mul_int
.LVL782:
	mv	s0,a0
.LVL783:
	.loc 1 550 20 discriminator 2
	bne	a0,zero,.L358
	.loc 1 550 98 is_stmt 1 discriminator 2
	.loc 1 552 13 discriminator 2
	.loc 1 552 15 is_stmt 0 discriminator 2
	lw	a5,0(s1)
	.loc 1 554 35 discriminator 2
	lw	a2,0(sp)
	addi	a1,sp,4
	mv	a0,s1
	.loc 1 552 15 discriminator 2
	bne	a5,s6,.L365
	.loc 1 554 17 is_stmt 1
	.loc 1 554 22
	.loc 1 554 35 is_stmt 0
	call	mbedtls_mpi_add_int
.LVL784:
.L371:
	.loc 1 558 35
	mv	s0,a0
.LVL785:
	.loc 1 558 24
	beq	a0,zero,.L364
	j	.L358
.L365:
	.loc 1 558 17 is_stmt 1
	.loc 1 558 22
	.loc 1 558 35 is_stmt 0
	call	mbedtls_mpi_sub_int
.LVL786:
	j	.L371
.LVL787:
.L369:
	mv	s0,a0
	j	.L358
	.cfi_endproc
.LFE22:
	.size	mbedtls_mpi_read_string, .-mbedtls_mpi_read_string
	.section	.text.mbedtls_mpi_read_file,"ax",@progbits
	.align	1
	.globl	mbedtls_mpi_read_file
	.type	mbedtls_mpi_read_file, @function
mbedtls_mpi_read_file:
.LFB25:
	.loc 1 701 1 is_stmt 1
	.cfi_startproc
.LVL788:
	.loc 1 702 5
	.loc 1 703 5
	.loc 1 704 5
	.loc 1 709 5
	.loc 1 711 5
	.loc 1 711 10
	.loc 1 711 17
	.loc 1 712 5
	.loc 1 712 10
	.loc 1 712 17
	.loc 1 714 5
	.loc 1 714 19 is_stmt 0
	addi	a4,a1,-2
	.loc 1 714 7
	li	a5,14
	bgtu	a4,a5,.L381
	.loc 1 701 1
	addi	sp,sp,-2032
	.cfi_def_cfa_offset 2032
	sw	ra,2028(sp)
	sw	s0,2024(sp)
	sw	s1,2020(sp)
	sw	s2,2016(sp)
	sw	s3,2012(sp)
	sw	s4,2008(sp)
	sw	s5,2004(sp)
	.loc 1 717 5
	li	a5,4096
	.loc 1 701 1
	addi	sp,sp,-512
	.cfi_def_cfa_offset 2544
	.cfi_offset 1, -4
	.cfi_offset 8, -8
	.cfi_offset 9, -12
	.cfi_offset 18, -16
	.cfi_offset 19, -20
	.cfi_offset 20, -24
	.cfi_offset 21, -28
	.loc 1 717 5
	addi	a4,sp,16
	li	s0,-4096
	addi	a5,a5,-1600
	add	a5,a5,a4
	addi	s0,s0,1612
	add	s0,a5,s0
	li	s1,4096
	mv	s4,a2
	.loc 1 717 5 is_stmt 1
	mv	s3,a0
	addi	a2,s1,-1612
.LVL789:
	mv	s2,a1
	mv	a0,s0
.LVL790:
	li	a1,0
.LVL791:
	call	memset
.LVL792:
	.loc 1 718 5
	.loc 1 718 9 is_stmt 0
	mv	a2,s4
	addi	a1,s1,-1613
	mv	a0,s0
	call	fgets
.LVL793:
	mv	a5,a0
	.loc 1 719 15
	li	a0,-2
	.loc 1 718 7
	beq	a5,zero,.L372
	.loc 1 721 5 is_stmt 1
	.loc 1 721 12 is_stmt 0
	mv	a0,s0
	call	strlen
.LVL794:
	mv	a5,a0
.LVL795:
	.loc 1 722 5 is_stmt 1
	.loc 1 722 7 is_stmt 0
	addi	a4,s1,-1614
	.loc 1 723 15
	li	a0,-8
.LVL796:
	.loc 1 722 7
	beq	a5,a4,.L372
	.loc 1 725 5 is_stmt 1
	.loc 1 725 7 is_stmt 0
	bne	a5,zero,.L374
.LVL797:
.L377:
	.loc 1 726 49
	li	a5,0
.L375:
.LVL798:
	.loc 1 728 5 is_stmt 1
	.loc 1 729 5
	.loc 1 728 7 is_stmt 0
	li	a2,4096
	li	a0,-4096
	addi	a3,a2,-1600
	addi	a1,sp,16
	addi	a4,a0,1612
	add	a3,a3,a1
	add	a4,a3,a4
	.loc 1 730 13
	addi	a0,a0,1608
	.loc 1 728 7
	add	s0,a4,a5
	.loc 1 729 10
	mv	s1,a4
	.loc 1 730 13
	add	s4,a3,a0
.LVL799:
.L378:
	mv	s5,s0
.LVL800:
	.loc 1 729 10 is_stmt 1
	bleu	s0,s1,.L380
	.loc 1 730 9
	.loc 1 730 13 is_stmt 0
	lbu	a2,-1(s0)
	mv	a1,s2
	mv	a0,s4
	call	mpi_get_digit
.LVL801:
	.loc 1 730 11
	addi	s0,s0,-1
.LVL802:
	beq	a0,zero,.L378
.LVL803:
.L380:
	.loc 1 733 5 is_stmt 1
	.loc 1 733 13 is_stmt 0
	mv	a2,s5
	mv	a1,s2
	mv	a0,s3
	call	mbedtls_mpi_read_string
.LVL804:
.L372:
	.loc 1 734 1
	addi	sp,sp,512
	.cfi_remember_state
	.cfi_def_cfa_offset 2032
	lw	ra,2028(sp)
	.cfi_restore 1
	lw	s0,2024(sp)
	.cfi_restore 8
	lw	s1,2020(sp)
	.cfi_restore 9
	lw	s2,2016(sp)
	.cfi_restore 18
.LVL805:
	lw	s3,2012(sp)
	.cfi_restore 19
.LVL806:
	lw	s4,2008(sp)
	.cfi_restore 20
	lw	s5,2004(sp)
	.cfi_restore 21
	addi	sp,sp,2032
	.cfi_def_cfa_offset 0
	jr	ra
.LVL807:
.L374:
	.cfi_restore_state
	.loc 1 725 22 discriminator 1
	li	a4,4096
	addi	a2,sp,16
	addi	a4,a4,-1600
	add	a4,a4,a2
	sub	a4,a4,s1
	.loc 1 725 28 discriminator 1
	addi	a3,a5,-1
	.loc 1 725 22 discriminator 1
	sw	a4,12(sp)
	add	a4,a4,a3
	.loc 1 725 18 discriminator 1
	lbu	a1,1612(a4)
	li	a2,10
	bne	a1,a2,.L376
	.loc 1 725 45 is_stmt 1 discriminator 2
.LVL808:
	.loc 1 725 53 discriminator 2
	.loc 1 725 61 is_stmt 0 discriminator 2
	sb	zero,1612(a4)
	.loc 1 726 5 is_stmt 1 discriminator 2
	.loc 1 726 7 is_stmt 0 discriminator 2
	beq	a3,zero,.L377
	mv	a5,a3
.LVL809:
.L376:
	.loc 1 726 22 discriminator 1
	li	a2,4096
	addi	a1,sp,16
	addi	a2,a2,-1600
	add	a2,a2,a1
	li	a4,-4096
	add	a4,a2,a4
	.loc 1 726 28 discriminator 1
	addi	a3,a5,-1
	.loc 1 726 22 discriminator 1
	sw	a4,12(sp)
	add	a4,a4,a3
	.loc 1 726 18 discriminator 1
	lbu	a1,1612(a4)
	li	a2,13
	bne	a1,a2,.L375
	.loc 1 726 45 is_stmt 1 discriminator 2
.LVL810:
	.loc 1 726 53 discriminator 2
	.loc 1 726 61 is_stmt 0 discriminator 2
	sb	zero,1612(a4)
	.loc 1 726 49 discriminator 2
	mv	a5,a3
	j	.L375
.LVL811:
.L381:
	.cfi_def_cfa_offset 0
	.cfi_restore 1
	.cfi_restore 8
	.cfi_restore 9
	.cfi_restore 18
	.cfi_restore 19
	.cfi_restore 20
	.cfi_restore 21
	.loc 1 715 15
	li	a0,-4
.LVL812:
	.loc 1 734 1
	ret
	.cfi_endproc
.LFE25:
	.size	mbedtls_mpi_read_file, .-mbedtls_mpi_read_file
	.globl	__udivdi3
	.section	.text.mbedtls_mpi_div_mpi,"ax",@progbits
	.align	1
	.globl	mbedtls_mpi_div_mpi
	.type	mbedtls_mpi_div_mpi, @function
mbedtls_mpi_div_mpi:
.LFB50:
	.loc 1 1724 1 is_stmt 1
	.cfi_startproc
.LVL813:
	.loc 1 1725 5
	.loc 1 1726 5
	.loc 1 1727 5
	.loc 1 1728 5
	.loc 1 1728 10
	.loc 1 1728 17
	.loc 1 1729 5
	.loc 1 1729 10
	.loc 1 1729 17
	.loc 1 1731 5
	.loc 1 1724 1 is_stmt 0
	addi	sp,sp,-144
	.cfi_def_cfa_offset 144
	sw	s1,132(sp)
	sw	s4,120(sp)
	.cfi_offset 9, -12
	.cfi_offset 20, -24
	mv	s1,a1
	mv	s4,a0
	.loc 1 1731 9
	li	a1,0
.LVL814:
	mv	a0,a3
.LVL815:
	.loc 1 1724 1
	sw	s2,128(sp)
	sw	s5,116(sp)
	sw	s9,100(sp)
	sw	ra,140(sp)
	sw	s0,136(sp)
	sw	s3,124(sp)
	sw	s6,112(sp)
	sw	s7,108(sp)
	sw	s8,104(sp)
	sw	s10,96(sp)
	sw	s11,92(sp)
	.cfi_offset 18, -16
	.cfi_offset 21, -28
	.cfi_offset 25, -44
	.cfi_offset 1, -4
	.cfi_offset 8, -8
	.cfi_offset 19, -20
	.cfi_offset 22, -32
	.cfi_offset 23, -36
	.cfi_offset 24, -40
	.cfi_offset 26, -48
	.cfi_offset 27, -52
	.loc 1 1724 1
	mv	s2,a2
	mv	s5,a3
	.loc 1 1731 9
	call	mbedtls_mpi_cmp_int
.LVL816:
	.loc 1 1732 15
	li	s9,-12
	.loc 1 1731 7
	beq	a0,zero,.L393
	.loc 1 1734 5 is_stmt 1
.LVL817:
.LBB186:
.LBB187:
	.loc 1 116 5
	.loc 1 116 10
	.loc 1 116 17
	.loc 1 118 5
	.loc 1 118 10 is_stmt 0
	li	s0,1
.LBE187:
.LBE186:
	.loc 1 1737 9
	mv	a1,s5
	mv	a0,s2
.LBB189:
.LBB188:
	.loc 1 118 10
	sw	s0,20(sp)
	.loc 1 119 5 is_stmt 1
	.loc 1 119 10 is_stmt 0
	sw	zero,24(sp)
	.loc 1 120 5 is_stmt 1
	.loc 1 120 10 is_stmt 0
	sw	zero,28(sp)
.LVL818:
.LBE188:
.LBE189:
	.loc 1 1734 29 is_stmt 1
.LBB190:
.LBB191:
	.loc 1 116 5
	.loc 1 116 10
	.loc 1 116 17
	.loc 1 118 5
	.loc 1 118 10 is_stmt 0
	sw	s0,32(sp)
	.loc 1 119 5 is_stmt 1
	.loc 1 119 10 is_stmt 0
	sw	zero,36(sp)
	.loc 1 120 5 is_stmt 1
	.loc 1 120 10 is_stmt 0
	sw	zero,40(sp)
.LVL819:
.LBE191:
.LBE190:
	.loc 1 1734 53 is_stmt 1
.LBB192:
.LBB193:
	.loc 1 116 5
	.loc 1 116 10
	.loc 1 116 17
	.loc 1 118 5
	.loc 1 118 10 is_stmt 0
	sw	s0,44(sp)
	.loc 1 119 5 is_stmt 1
	.loc 1 119 10 is_stmt 0
	sw	zero,48(sp)
	.loc 1 120 5 is_stmt 1
	.loc 1 120 10 is_stmt 0
	sw	zero,52(sp)
.LVL820:
.LBE193:
.LBE192:
	.loc 1 1735 5 is_stmt 1
.LBB194:
.LBB195:
	.loc 1 116 5
	.loc 1 116 10
	.loc 1 116 17
	.loc 1 118 5
	.loc 1 118 10 is_stmt 0
	sw	s0,56(sp)
	.loc 1 119 5 is_stmt 1
	.loc 1 119 10 is_stmt 0
	sw	zero,60(sp)
	.loc 1 120 5 is_stmt 1
	.loc 1 120 10 is_stmt 0
	sw	zero,64(sp)
.LVL821:
.LBE195:
.LBE194:
	.loc 1 1735 30 is_stmt 1
.LBB196:
.LBB197:
	.loc 1 116 5
	.loc 1 116 10
	.loc 1 116 17
	.loc 1 118 5
	.loc 1 118 10 is_stmt 0
	sw	s0,68(sp)
	.loc 1 119 5 is_stmt 1
	.loc 1 119 10 is_stmt 0
	sw	zero,72(sp)
	.loc 1 120 5 is_stmt 1
	.loc 1 120 10 is_stmt 0
	sw	zero,76(sp)
.LVL822:
.LBE197:
.LBE196:
	.loc 1 1737 5 is_stmt 1
	.loc 1 1737 9 is_stmt 0
	call	mbedtls_mpi_cmp_abs
.LVL823:
	.loc 1 1737 7
	bge	a0,zero,.L395
	.loc 1 1739 9 is_stmt 1
	.loc 1 1739 11 is_stmt 0
	bne	s4,zero,.L396
.L400:
	.loc 1 1739 98 is_stmt 1
	.loc 1 1740 9
	.loc 1 1740 11 is_stmt 0
	bne	s1,zero,.L397
.L398:
	.loc 1 1741 15
	li	s9,0
.L393:
	.loc 1 1835 1
	lw	ra,140(sp)
	.cfi_remember_state
	.cfi_restore 1
	lw	s0,136(sp)
	.cfi_restore 8
	lw	s1,132(sp)
	.cfi_restore 9
.LVL824:
	lw	s2,128(sp)
	.cfi_restore 18
.LVL825:
	lw	s3,124(sp)
	.cfi_restore 19
	lw	s4,120(sp)
	.cfi_restore 20
.LVL826:
	lw	s5,116(sp)
	.cfi_restore 21
.LVL827:
	lw	s6,112(sp)
	.cfi_restore 22
	lw	s7,108(sp)
	.cfi_restore 23
	lw	s8,104(sp)
	.cfi_restore 24
	lw	s10,96(sp)
	.cfi_restore 26
	lw	s11,92(sp)
	.cfi_restore 27
	mv	a0,s9
	lw	s9,100(sp)
	.cfi_restore 25
	addi	sp,sp,144
	.cfi_def_cfa_offset 0
	jr	ra
.LVL828:
.L396:
	.cfi_restore_state
	.loc 1 1739 24 is_stmt 1 discriminator 1
	.loc 1 1739 29 discriminator 1
	.loc 1 1739 42 is_stmt 0 discriminator 1
	li	a1,0
	mv	a0,s4
	call	mbedtls_mpi_lset
.LVL829:
	mv	s9,a0
.LVL830:
	.loc 1 1739 31 discriminator 1
	beq	a0,zero,.L400
.LVL831:
.L399:
	.loc 1 1831 5 is_stmt 1
	addi	a0,sp,20
	call	mbedtls_mpi_free
.LVL832:
	.loc 1 1831 29
	addi	a0,sp,32
	call	mbedtls_mpi_free
.LVL833:
	.loc 1 1831 53
	addi	a0,sp,44
	call	mbedtls_mpi_free
.LVL834:
	.loc 1 1832 5
	addi	a0,sp,56
	call	mbedtls_mpi_free
.LVL835:
	.loc 1 1832 30
	addi	a0,sp,68
	call	mbedtls_mpi_free
.LVL836:
	.loc 1 1834 5
	.loc 1 1834 11 is_stmt 0
	j	.L393
.LVL837:
.L397:
	.loc 1 1740 24 is_stmt 1 discriminator 1
	.loc 1 1740 29 discriminator 1
	.loc 1 1740 42 is_stmt 0 discriminator 1
	mv	a1,s2
	mv	a0,s1
	call	mbedtls_mpi_copy
.LVL838:
	mv	s9,a0
.LVL839:
	.loc 1 1740 31 discriminator 1
	bne	a0,zero,.L399
	j	.L398
.LVL840:
.L395:
	.loc 1 1744 5 is_stmt 1
	.loc 1 1744 10
	.loc 1 1744 23 is_stmt 0
	mv	a1,s2
	addi	a0,sp,20
	call	mbedtls_mpi_copy
.LVL841:
	mv	s9,a0
.LVL842:
	.loc 1 1744 12
	bne	a0,zero,.L399
	.loc 1 1744 80 is_stmt 1 discriminator 2
	.loc 1 1745 5 discriminator 2
	.loc 1 1745 10 discriminator 2
	.loc 1 1745 23 is_stmt 0 discriminator 2
	mv	a1,s5
	addi	a0,sp,32
.LVL843:
	call	mbedtls_mpi_copy
.LVL844:
	mv	s9,a0
.LVL845:
	.loc 1 1745 12 discriminator 2
	bne	a0,zero,.L399
	.loc 1 1745 80 is_stmt 1 discriminator 2
	.loc 1 1746 5 discriminator 2
	.loc 1 1748 23 is_stmt 0 discriminator 2
	lw	a1,4(s2)
	addi	a0,sp,44
.LVL846:
	.loc 1 1746 15 discriminator 2
	sw	s0,32(sp)
	.loc 1 1748 23 discriminator 2
	addi	a1,a1,2
	.loc 1 1746 9 discriminator 2
	sw	s0,20(sp)
	.loc 1 1748 5 is_stmt 1 discriminator 2
	.loc 1 1748 10 discriminator 2
	.loc 1 1748 23 is_stmt 0 discriminator 2
	call	mbedtls_mpi_grow
.LVL847:
	mv	s9,a0
.LVL848:
	.loc 1 1748 12 discriminator 2
	bne	a0,zero,.L399
	.loc 1 1748 87 is_stmt 1 discriminator 2
	.loc 1 1749 5 discriminator 2
	.loc 1 1749 10 discriminator 2
	.loc 1 1749 23 is_stmt 0 discriminator 2
	li	a1,0
	addi	a0,sp,44
.LVL849:
	call	mbedtls_mpi_lset
.LVL850:
	mv	s9,a0
.LVL851:
	.loc 1 1749 12 discriminator 2
	bne	a0,zero,.L399
	.loc 1 1749 80 is_stmt 1 discriminator 2
	.loc 1 1750 5 discriminator 2
	.loc 1 1750 10 discriminator 2
	.loc 1 1750 23 is_stmt 0 discriminator 2
	li	a1,2
	addi	a0,sp,56
.LVL852:
	call	mbedtls_mpi_grow
.LVL853:
	mv	s9,a0
.LVL854:
	.loc 1 1750 12 discriminator 2
	bne	a0,zero,.L399
	.loc 1 1750 81 is_stmt 1 discriminator 2
	.loc 1 1751 5 discriminator 2
	.loc 1 1751 10 discriminator 2
	.loc 1 1751 23 is_stmt 0 discriminator 2
	li	a1,3
	addi	a0,sp,68
.LVL855:
	call	mbedtls_mpi_grow
.LVL856:
	mv	s9,a0
.LVL857:
	.loc 1 1751 12 discriminator 2
	bne	a0,zero,.L399
	.loc 1 1751 81 is_stmt 1 discriminator 2
	.loc 1 1753 5 discriminator 2
	.loc 1 1753 9 is_stmt 0 discriminator 2
	addi	a0,sp,32
.LVL858:
	call	mbedtls_mpi_bitlen
.LVL859:
	.loc 1 1753 7 discriminator 2
	andi	a0,a0,31
.LVL860:
	.loc 1 1754 5 is_stmt 1 discriminator 2
	.loc 1 1754 7 is_stmt 0 discriminator 2
	li	s3,31
	beq	a0,s3,.L420
	.loc 1 1756 9 is_stmt 1
	.loc 1 1756 11 is_stmt 0
	sub	s3,s3,a0
.LVL861:
	.loc 1 1757 9 is_stmt 1
	.loc 1 1757 14
	.loc 1 1757 27 is_stmt 0
	mv	a1,s3
	addi	a0,sp,20
	call	mbedtls_mpi_shift_l
.LVL862:
	mv	s9,a0
.LVL863:
	.loc 1 1757 16
	bne	a0,zero,.L399
	.loc 1 1757 87 is_stmt 1 discriminator 2
	.loc 1 1758 9 discriminator 2
	.loc 1 1758 14 discriminator 2
	.loc 1 1758 27 is_stmt 0 discriminator 2
	mv	a1,s3
	addi	a0,sp,32
.LVL864:
	call	mbedtls_mpi_shift_l
.LVL865:
	mv	s9,a0
.LVL866:
	.loc 1 1758 16 discriminator 2
	bne	a0,zero,.L399
.LVL867:
.L401:
	.loc 1 1762 5 is_stmt 1
	.loc 1 1762 10 is_stmt 0
	lw	s7,24(sp)
.LVL868:
	.loc 1 1763 5 is_stmt 1
	.loc 1 1763 10 is_stmt 0
	lw	s10,36(sp)
.LVL869:
	.loc 1 1764 5 is_stmt 1
	.loc 1 1764 10
	.loc 1 1764 23 is_stmt 0
	addi	a0,sp,32
	.loc 1 1764 88
	sub	s0,s7,s10
	.loc 1 1764 23
	slli	s6,s0,5
	mv	a1,s6
	call	mbedtls_mpi_shift_l
.LVL870:
	mv	s9,a0
.LVL871:
	.loc 1 1768 12
	slli	s0,s0,2
	.loc 1 1764 12
	bne	a0,zero,.L399
.L402:
	.loc 1 1769 92 is_stmt 1 discriminator 2
	.loc 1 1766 10 discriminator 2
	.loc 1 1766 12 is_stmt 0 discriminator 2
	addi	a1,sp,32
	addi	a0,sp,20
.LVL872:
	call	mbedtls_mpi_cmp_mpi
.LVL873:
	.loc 1 1766 10 discriminator 2
	bge	a0,zero,.L403
	.loc 1 1771 5 is_stmt 1
	.loc 1 1771 10
	.loc 1 1771 23 is_stmt 0
	mv	a1,s6
	addi	a0,sp,32
	call	mbedtls_mpi_shift_r
.LVL874:
	mv	s9,a0
.LVL875:
	.loc 1 1771 12
	bne	a0,zero,.L399
	li	s0,1073741824
	.loc 1 1763 7
	addi	s8,s10,-1
	addi	s0,s0,-1
	.loc 1 1775 26
	slli	a5,s8,2
	.loc 1 1789 42
	slli	a4,s10,2
	add	s0,s7,s0
	.loc 1 1775 26
	sw	a5,8(sp)
	sub	s0,s0,s10
	.loc 1 1789 42
	addi	a5,a4,-8
	.loc 1 1762 7
	addi	s6,s7,-1
	.loc 1 1789 42
	sw	a5,12(sp)
	slli	s0,s0,2
.LVL876:
.L404:
	.loc 1 1773 17 is_stmt 1 discriminator 1
	.loc 1 1773 5 is_stmt 0 discriminator 1
	bgtu	s6,s8,.L415
	.loc 1 1813 5 is_stmt 1
	.loc 1 1813 7 is_stmt 0
	beq	s4,zero,.L416
	.loc 1 1815 9 is_stmt 1
	.loc 1 1815 14
	.loc 1 1815 27 is_stmt 0
	addi	a1,sp,44
	mv	a0,s4
	call	mbedtls_mpi_copy
.LVL877:
	.loc 1 1815 16
	bne	a0,zero,.L436
	.loc 1 1815 84 is_stmt 1 discriminator 2
	.loc 1 1816 9 discriminator 2
	.loc 1 1816 21 is_stmt 0 discriminator 2
	lw	a4,0(s2)
	lw	a3,0(s5)
	mul	a4,a4,a3
	.loc 1 1816 14 discriminator 2
	sw	a4,0(s4)
.LVL878:
.L416:
	.loc 1 1819 5 is_stmt 1
	.loc 1 1819 7 is_stmt 0
	beq	s1,zero,.L399
	.loc 1 1821 9 is_stmt 1
	.loc 1 1821 14
	.loc 1 1821 27 is_stmt 0
	mv	a1,s3
	addi	a0,sp,20
	call	mbedtls_mpi_shift_r
.LVL879:
	.loc 1 1821 16
	bne	a0,zero,.L436
	.loc 1 1821 87 is_stmt 1 discriminator 2
	.loc 1 1822 9 discriminator 2
	.loc 1 1822 13 is_stmt 0 discriminator 2
	lw	a4,0(s2)
	.loc 1 1823 27 discriminator 2
	addi	a1,sp,20
	mv	a0,s1
.LVL880:
	.loc 1 1822 13 discriminator 2
	sw	a4,20(sp)
	.loc 1 1823 9 is_stmt 1 discriminator 2
	.loc 1 1823 14 discriminator 2
	.loc 1 1823 27 is_stmt 0 discriminator 2
	call	mbedtls_mpi_copy
.LVL881:
	.loc 1 1823 16 discriminator 2
	bne	a0,zero,.L436
	.loc 1 1823 84 is_stmt 1 discriminator 2
	.loc 1 1825 9 discriminator 2
	.loc 1 1825 13 is_stmt 0 discriminator 2
	li	a1,0
	mv	a0,s1
.LVL882:
	call	mbedtls_mpi_cmp_int
.LVL883:
	.loc 1 1825 11 discriminator 2
	bne	a0,zero,.L399
	.loc 1 1826 13 is_stmt 1
	.loc 1 1826 18 is_stmt 0
	li	a5,1
	sw	a5,0(s1)
	.loc 1 1823 27
	li	s9,0
	j	.L399
.LVL884:
.L420:
	.loc 1 1760 12
	li	s3,0
	j	.L401
.LVL885:
.L403:
	.loc 1 1768 9 is_stmt 1
	.loc 1 1768 12 is_stmt 0
	lw	a5,52(sp)
	.loc 1 1769 27
	addi	a1,sp,20
	addi	a2,sp,32
	.loc 1 1768 12
	add	a5,a5,s0
	.loc 1 1768 19
	lw	a4,0(a5)
	.loc 1 1769 27
	mv	a0,a1
	.loc 1 1768 19
	addi	a4,a4,1
	sw	a4,0(a5)
	.loc 1 1769 9 is_stmt 1
	.loc 1 1769 14
	.loc 1 1769 27 is_stmt 0
	call	mbedtls_mpi_sub_mpi
.LVL886:
	mv	s9,a0
.LVL887:
	.loc 1 1769 16
	beq	a0,zero,.L402
	j	.L399
.LVL888:
.L415:
	.loc 1 1775 9 is_stmt 1
	.loc 1 1775 14 is_stmt 0
	lw	a4,28(sp)
	slli	s7,s6,2
	.loc 1 1775 26
	lw	a5,8(sp)
	.loc 1 1775 16
	add	a3,a4,s7
	lw	a1,0(a3)
	.loc 1 1775 26
	lw	a3,40(sp)
	.loc 1 1776 16
	lw	s11,52(sp)
	.loc 1 1779 62
	addi	s10,s7,-4
	.loc 1 1775 26
	add	a3,a3,a5
	lw	a2,0(a3)
	.loc 1 1776 16
	add	s11,s11,s0
	.loc 1 1775 11
	bltu	a1,a2,.L405
	.loc 1 1776 13 is_stmt 1
	.loc 1 1776 28 is_stmt 0
	li	a5,-1
	sw	a5,0(s11)
.L406:
	.loc 1 1783 9 is_stmt 1
	.loc 1 1783 12 is_stmt 0
	lw	a4,52(sp)
	.loc 1 1794 42
	addi	s11,s7,-8
	.loc 1 1783 12
	add	a4,a4,s0
	.loc 1 1783 23
	lw	a3,0(a4)
	addi	a3,a3,1
	sw	a3,0(a4)
.LVL889:
.L413:
	.loc 1 1784 9 is_stmt 1
	.loc 1 1786 13
	.loc 1 1786 16 is_stmt 0
	lw	a4,52(sp)
	.loc 1 1788 31
	li	a1,0
	addi	a0,sp,56
	.loc 1 1786 16
	add	a4,a4,s0
	.loc 1 1786 27
	lw	a3,0(a4)
	addi	a3,a3,-1
	sw	a3,0(a4)
	.loc 1 1788 13 is_stmt 1
	.loc 1 1788 18
	.loc 1 1788 31 is_stmt 0
	call	mbedtls_mpi_lset
.LVL890:
	.loc 1 1788 20
	bne	a0,zero,.L436
	.loc 1 1788 89 is_stmt 1 discriminator 2
	.loc 1 1789 13 discriminator 2
	.loc 1 1789 37 is_stmt 0 discriminator 2
	li	a4,0
	beq	s8,zero,.L410
	.loc 1 1789 37 discriminator 1
	lw	a4,40(sp)
	lw	a5,12(sp)
	add	a4,a4,a5
	lw	a4,0(a4)
.L410:
	.loc 1 1789 15 discriminator 4
	lw	a3,64(sp)
	.loc 1 1790 26 discriminator 4
	lw	a5,8(sp)
	.loc 1 1791 31 discriminator 4
	addi	a1,sp,56
	.loc 1 1789 21 discriminator 4
	sw	a4,0(a3)
	.loc 1 1790 13 is_stmt 1 discriminator 4
	.loc 1 1790 26 is_stmt 0 discriminator 4
	lw	a4,40(sp)
	.loc 1 1790 15 discriminator 4
	lw	a3,64(sp)
	.loc 1 1791 31 discriminator 4
	mv	a0,a1
.LVL891:
	.loc 1 1790 26 discriminator 4
	add	a4,a4,a5
	lw	a4,0(a4)
	.loc 1 1790 21 discriminator 4
	sw	a4,4(a3)
	.loc 1 1791 13 is_stmt 1 discriminator 4
	.loc 1 1791 18 discriminator 4
	.loc 1 1791 31 is_stmt 0 discriminator 4
	lw	a4,52(sp)
	add	a4,a4,s0
	lw	a2,0(a4)
	call	mbedtls_mpi_mul_int
.LVL892:
	.loc 1 1791 20 discriminator 4
	bne	a0,zero,.L436
	.loc 1 1791 110 is_stmt 1 discriminator 2
	.loc 1 1793 13 discriminator 2
	.loc 1 1793 18 discriminator 2
	.loc 1 1793 31 is_stmt 0 discriminator 2
	li	a1,0
	addi	a0,sp,68
.LVL893:
	call	mbedtls_mpi_lset
.LVL894:
	.loc 1 1793 20 discriminator 2
	bne	a0,zero,.L436
	.loc 1 1793 89 is_stmt 1 discriminator 2
	.loc 1 1794 13 discriminator 2
	.loc 1 1794 37 is_stmt 0 discriminator 2
	li	a5,1
	li	a4,0
	bleu	s6,a5,.L411
	.loc 1 1794 37 discriminator 1
	lw	a4,28(sp)
	add	a4,a4,s11
	lw	a4,0(a4)
.L411:
	.loc 1 1794 15 discriminator 4
	lw	a3,76(sp)
	.loc 1 1794 21 discriminator 4
	sw	a4,0(a3)
	.loc 1 1795 13 is_stmt 1 discriminator 4
	.loc 1 1795 37 is_stmt 0 discriminator 4
	li	a4,0
	beq	s6,zero,.L412
	.loc 1 1795 37 discriminator 1
	lw	a4,28(sp)
	add	a4,a4,s10
	lw	a4,0(a4)
.L412:
	.loc 1 1795 15 discriminator 4
	lw	a3,76(sp)
	.loc 1 1798 16 discriminator 4
	addi	a1,sp,68
	addi	a0,sp,56
.LVL895:
	.loc 1 1795 21 discriminator 4
	sw	a4,4(a3)
	.loc 1 1796 13 is_stmt 1 discriminator 4
	.loc 1 1796 26 is_stmt 0 discriminator 4
	lw	a4,28(sp)
	add	a4,a4,s7
	lw	a3,0(a4)
	.loc 1 1796 21 discriminator 4
	lw	a4,76(sp)
	sw	a3,8(a4)
	.loc 1 1798 14 is_stmt 1 discriminator 4
	.loc 1 1798 16 is_stmt 0 discriminator 4
	call	mbedtls_mpi_cmp_mpi
.LVL896:
	.loc 1 1798 9 discriminator 4
	bgt	a0,zero,.L413
	.loc 1 1800 9 is_stmt 1
	.loc 1 1800 14
	.loc 1 1800 27 is_stmt 0
	lw	a4,52(sp)
	addi	a1,sp,32
	addi	a0,sp,56
	add	a4,a4,s0
	lw	a2,0(a4)
	call	mbedtls_mpi_mul_int
.LVL897:
	.loc 1 1800 16
	bne	a0,zero,.L436
	.loc 1 1800 105 is_stmt 1 discriminator 2
	.loc 1 1801 9 discriminator 2
	.loc 1 1801 14 discriminator 2
	slli	s7,s0,3
	.loc 1 1801 27 is_stmt 0 discriminator 2
	mv	a1,s7
	addi	a0,sp,56
.LVL898:
	call	mbedtls_mpi_shift_l
.LVL899:
	.loc 1 1801 16 discriminator 2
	bne	a0,zero,.L436
	.loc 1 1801 136 is_stmt 1 discriminator 2
	.loc 1 1802 9 discriminator 2
	.loc 1 1802 14 discriminator 2
	.loc 1 1802 27 is_stmt 0 discriminator 2
	addi	a1,sp,20
	addi	a2,sp,56
	mv	a0,a1
.LVL900:
	call	mbedtls_mpi_sub_mpi
.LVL901:
	.loc 1 1802 16 discriminator 2
	bne	a0,zero,.L436
	.loc 1 1802 93 is_stmt 1 discriminator 2
	.loc 1 1804 9 discriminator 2
	.loc 1 1804 13 is_stmt 0 discriminator 2
	li	a1,0
	addi	a0,sp,20
.LVL902:
	call	mbedtls_mpi_cmp_int
.LVL903:
	.loc 1 1804 11 discriminator 2
	bge	a0,zero,.L414
	.loc 1 1806 13 is_stmt 1
	.loc 1 1806 18
	.loc 1 1806 31 is_stmt 0
	addi	a1,sp,32
	addi	a0,sp,56
	call	mbedtls_mpi_copy
.LVL904:
	.loc 1 1806 20
	bne	a0,zero,.L436
	.loc 1 1806 90 is_stmt 1 discriminator 2
	.loc 1 1807 13 discriminator 2
	.loc 1 1807 18 discriminator 2
	.loc 1 1807 31 is_stmt 0 discriminator 2
	mv	a1,s7
	addi	a0,sp,56
.LVL905:
	call	mbedtls_mpi_shift_l
.LVL906:
	.loc 1 1807 20 discriminator 2
	bne	a0,zero,.L436
	.loc 1 1807 140 is_stmt 1 discriminator 2
	.loc 1 1808 13 discriminator 2
	.loc 1 1808 18 discriminator 2
	.loc 1 1808 31 is_stmt 0 discriminator 2
	addi	a1,sp,20
	addi	a2,sp,56
	mv	a0,a1
.LVL907:
	call	mbedtls_mpi_add_mpi
.LVL908:
	.loc 1 1808 20 discriminator 2
	bne	a0,zero,.L436
	.loc 1 1808 97 is_stmt 1 discriminator 2
	.loc 1 1809 13 discriminator 2
	.loc 1 1809 16 is_stmt 0 discriminator 2
	lw	a4,52(sp)
	add	a4,a4,s0
	.loc 1 1809 27 discriminator 2
	lw	a3,0(a4)
	addi	a3,a3,-1
	sw	a3,0(a4)
.LVL909:
.L414:
	.loc 1 1773 25 is_stmt 1 discriminator 2
	.loc 1 1773 26 is_stmt 0 discriminator 2
	addi	s6,s6,-1
.LVL910:
	addi	s0,s0,-4
	j	.L404
.L405:
	.loc 1 1779 13 is_stmt 1
	.loc 1 1779 30 is_stmt 0
	add	a4,a4,s10
	lw	a0,0(a4)
.LVL911:
.LBB198:
.LBB199:
	.loc 1 1631 5 is_stmt 1
	.loc 1 1643 5
	.loc 1 1647 16 is_stmt 0
	li	a4,-1
	.loc 1 1643 7
	beq	a2,zero,.L407
	.loc 1 1651 5 is_stmt 1
.LVL912:
	.loc 1 1652 5
	.loc 1 1653 5
	.loc 1 1653 14 is_stmt 0
	li	a3,0
	call	__udivdi3
.LVL913:
	mv	a4,a0
.LVL914:
	.loc 1 1654 5 is_stmt 1
	.loc 1 1657 5
	.loc 1 1660 5
	.loc 1 1660 12 is_stmt 0
	beq	a1,zero,.L407
	li	a4,-1
.LVL915:
.L407:
.LBE199:
.LBE198:
	.loc 1 1779 28
	sw	a4,0(s11)
	j	.L406
.LVL916:
.L436:
	mv	s9,a0
	j	.L399
	.cfi_endproc
.LFE50:
	.size	mbedtls_mpi_div_mpi, .-mbedtls_mpi_div_mpi
	.section	.text.mbedtls_mpi_div_int,"ax",@progbits
	.align	1
	.globl	mbedtls_mpi_div_int
	.type	mbedtls_mpi_div_int, @function
mbedtls_mpi_div_int:
.LFB51:
	.loc 1 1843 1 is_stmt 1
	.cfi_startproc
.LVL917:
	.loc 1 1844 5
	.loc 1 1845 5
	.loc 1 1846 5
	.loc 1 1846 10
	.loc 1 1846 17
	.loc 1 1848 5
	.loc 1 1848 27 is_stmt 0
	srai	a4,a3,31
	xor	a5,a4,a3
	.loc 1 1843 1
	addi	sp,sp,-32
	.cfi_def_cfa_offset 32
	.loc 1 1848 27
	sub	a5,a5,a4
	.loc 1 1848 10
	sw	a5,0(sp)
	.loc 1 1849 5 is_stmt 1
	.loc 1 1843 1 is_stmt 0
	sw	ra,28(sp)
	.cfi_offset 1, -4
	.loc 1 1849 27
	li	a5,1
	bge	a3,zero,.L444
	li	a5,-1
.L444:
	.loc 1 1849 10 discriminator 4
	sw	a5,4(sp)
	.loc 1 1850 5 is_stmt 1 discriminator 4
	.loc 1 1853 13 is_stmt 0 discriminator 4
	addi	a3,sp,4
.LVL918:
	.loc 1 1850 10 discriminator 4
	li	a5,1
	sw	a5,8(sp)
	.loc 1 1851 5 is_stmt 1 discriminator 4
	.loc 1 1851 10 is_stmt 0 discriminator 4
	sw	sp,12(sp)
	.loc 1 1853 5 is_stmt 1 discriminator 4
	.loc 1 1853 13 is_stmt 0 discriminator 4
	call	mbedtls_mpi_div_mpi
.LVL919:
	.loc 1 1854 1 discriminator 4
	lw	ra,28(sp)
	.cfi_restore 1
	addi	sp,sp,32
	.cfi_def_cfa_offset 0
	jr	ra
	.cfi_endproc
.LFE51:
	.size	mbedtls_mpi_div_int, .-mbedtls_mpi_div_int
	.section	.text.mbedtls_mpi_mod_mpi,"ax",@progbits
	.align	1
	.globl	mbedtls_mpi_mod_mpi
	.type	mbedtls_mpi_mod_mpi, @function
mbedtls_mpi_mod_mpi:
.LFB52:
	.loc 1 1860 1 is_stmt 1
	.cfi_startproc
.LVL920:
	.loc 1 1861 5
	.loc 1 1862 5
	.loc 1 1862 10
	.loc 1 1862 17
	.loc 1 1863 5
	.loc 1 1863 10
	.loc 1 1863 17
	.loc 1 1864 5
	.loc 1 1864 10
	.loc 1 1864 17
	.loc 1 1866 5
	.loc 1 1860 1 is_stmt 0
	addi	sp,sp,-16
	.cfi_def_cfa_offset 16
	sw	s0,8(sp)
	sw	s1,4(sp)
	.cfi_offset 8, -8
	.cfi_offset 9, -12
	mv	s0,a0
	mv	s1,a1
	.loc 1 1866 9
	mv	a0,a2
.LVL921:
	li	a1,0
.LVL922:
	.loc 1 1860 1
	sw	s2,0(sp)
	sw	ra,12(sp)
	.cfi_offset 18, -16
	.cfi_offset 1, -4
	.loc 1 1860 1
	mv	s2,a2
	.loc 1 1866 9
	call	mbedtls_mpi_cmp_int
.LVL923:
	.loc 1 1866 7
	blt	a0,zero,.L454
	.loc 1 1869 5 is_stmt 1
	.loc 1 1869 10
	.loc 1 1869 23 is_stmt 0
	mv	a2,s1
	mv	a3,s2
	mv	a1,s0
	li	a0,0
	call	mbedtls_mpi_div_mpi
.LVL924:
	mv	s1,a0
.LVL925:
	.loc 1 1869 12
	beq	a0,zero,.L450
.LVL926:
.L448:
	.loc 1 1880 1
	lw	ra,12(sp)
	.cfi_remember_state
	.cfi_restore 1
	lw	s0,8(sp)
	.cfi_restore 8
.LVL927:
	lw	s2,0(sp)
	.cfi_restore 18
.LVL928:
	mv	a0,s1
	lw	s1,4(sp)
	.cfi_restore 9
	addi	sp,sp,16
	.cfi_def_cfa_offset 0
	jr	ra
.LVL929:
.L451:
	.cfi_restore_state
.LBB202:
.LBB203:
	.loc 1 1872 7 is_stmt 1
	.loc 1 1872 12
	.loc 1 1872 25 is_stmt 0
	mv	a2,s2
	mv	a1,s0
	mv	a0,s0
	call	mbedtls_mpi_add_mpi
.LVL930:
	.loc 1 1872 14
	bne	a0,zero,.L456
.LVL931:
.L450:
	.loc 1 1872 87 is_stmt 1
	.loc 1 1871 10
	.loc 1 1871 12 is_stmt 0
	li	a1,0
	mv	a0,s0
	call	mbedtls_mpi_cmp_int
.LVL932:
	.loc 1 1871 10
	blt	a0,zero,.L451
.LVL933:
.L452:
	.loc 1 1875 87 is_stmt 1
	.loc 1 1874 10
	.loc 1 1874 12 is_stmt 0
	mv	a1,s2
	mv	a0,s0
	call	mbedtls_mpi_cmp_mpi
.LVL934:
	.loc 1 1874 10
	blt	a0,zero,.L448
	.loc 1 1875 7 is_stmt 1
	.loc 1 1875 12
	.loc 1 1875 25 is_stmt 0
	mv	a2,s2
	mv	a1,s0
	mv	a0,s0
	call	mbedtls_mpi_sub_mpi
.LVL935:
	.loc 1 1875 14
	beq	a0,zero,.L452
.L456:
	mv	s1,a0
.LVL936:
	j	.L448
.LVL937:
.L454:
.LBE203:
.LBE202:
	.loc 1 1867 15
	li	s1,-10
.LVL938:
	j	.L448
	.cfi_endproc
.LFE52:
	.size	mbedtls_mpi_mod_mpi, .-mbedtls_mpi_mod_mpi
	.section	.text.mbedtls_mpi_mod_int,"ax",@progbits
	.align	1
	.globl	mbedtls_mpi_mod_int
	.type	mbedtls_mpi_mod_int, @function
mbedtls_mpi_mod_int:
.LFB53:
	.loc 1 1886 1 is_stmt 1
	.cfi_startproc
.LVL939:
	.loc 1 1887 5
	.loc 1 1888 5
	.loc 1 1889 5
	.loc 1 1889 10
	.loc 1 1889 17
	.loc 1 1890 5
	.loc 1 1890 10
	.loc 1 1890 17
	.loc 1 1892 5
	.loc 1 1892 7 is_stmt 0
	beq	a2,zero,.L462
	.loc 1 1895 5 is_stmt 1
	.loc 1 1895 7 is_stmt 0
	blt	a2,zero,.L463
	.loc 1 1901 5 is_stmt 1
	.loc 1 1901 7 is_stmt 0
	li	a6,1
	bne	a2,a6,.L460
	.loc 1 1903 9 is_stmt 1
	.loc 1 1903 12 is_stmt 0
	sw	zero,0(a0)
	.loc 1 1904 9 is_stmt 1
.L464:
	.loc 1 1910 9
	.loc 1 1910 15 is_stmt 0
	li	a0,0
.LVL940:
	ret
.LVL941:
.L460:
	.loc 1 1907 5 is_stmt 1
	.loc 1 1907 7 is_stmt 0
	li	a6,2
	bne	a2,a6,.L461
	.loc 1 1909 9 is_stmt 1
	.loc 1 1909 18 is_stmt 0
	lw	a5,8(a1)
	.loc 1 1909 22
	lw	a5,0(a5)
	andi	a5,a5,1
	.loc 1 1909 12
	sw	a5,0(a0)
	j	.L464
.L461:
	tail	mbedtls_mpi_mod_int.part.0
.LVL942:
.L462:
	.loc 1 1893 15
	li	a0,-12
.LVL943:
	ret
.LVL944:
.L463:
	.loc 1 1896 15
	li	a0,-10
.LVL945:
	.loc 1 1939 1
	ret
	.cfi_endproc
.LFE53:
	.size	mbedtls_mpi_mod_int, .-mbedtls_mpi_mod_int
	.section	.rodata.mbedtls_mpi_write_string.str1.4,"aMS",@progbits,1
	.align	2
.LC0:
	.string	"0123456789ABCDEF"
	.section	.text.mbedtls_mpi_write_string,"ax",@progbits
	.align	1
	.globl	mbedtls_mpi_write_string
	.type	mbedtls_mpi_write_string, @function
mbedtls_mpi_write_string:
.LFB24:
	.loc 1 614 1 is_stmt 1
	.cfi_startproc
.LVL946:
	.loc 1 615 5
	.loc 1 616 5
	.loc 1 617 5
	.loc 1 618 5
	.loc 1 619 5
	.loc 1 619 10
	.loc 1 619 17
	.loc 1 620 5
	.loc 1 620 10
	.loc 1 620 17
	.loc 1 621 5
	.loc 1 621 10
	.loc 1 621 17
	.loc 1 623 5
	.loc 1 614 1 is_stmt 0
	addi	sp,sp,-64
	.cfi_def_cfa_offset 64
	sw	s0,56(sp)
	sw	s3,44(sp)
	sw	ra,60(sp)
	.cfi_offset 8, -8
	.cfi_offset 19, -20
	.cfi_offset 1, -4
	mv	s3,a4
	sw	s1,52(sp)
	sw	s2,48(sp)
	sw	s4,40(sp)
	sw	s5,36(sp)
	sw	s6,32(sp)
	sw	s7,28(sp)
	sw	s8,24(sp)
	.cfi_offset 9, -12
	.cfi_offset 18, -16
	.cfi_offset 20, -24
	.cfi_offset 21, -28
	.cfi_offset 22, -32
	.cfi_offset 23, -36
	.cfi_offset 24, -40
	.loc 1 623 19
	addi	a4,a1,-2
.LVL947:
	.loc 1 623 7
	li	a5,14
	.loc 1 624 15
	li	s0,-4
	.loc 1 623 7
	bgtu	a4,a5,.L465
	mv	s0,a0
	mv	s2,a1
	mv	s4,a2
	mv	s5,a3
	.loc 1 626 5 is_stmt 1
	.loc 1 626 9 is_stmt 0
	call	mbedtls_mpi_bitlen
.LVL948:
	.loc 1 627 5 is_stmt 1
	.loc 1 627 7 is_stmt 0
	li	a5,3
	ble	s2,a5,.L467
	.loc 1 627 22 is_stmt 1 discriminator 1
	.loc 1 627 24 is_stmt 0 discriminator 1
	srli	a0,a0,1
.LVL949:
.L467:
	.loc 1 631 5 is_stmt 1
	.loc 1 631 7 is_stmt 0
	li	a5,16
	bne	s2,a5,.L468
	.loc 1 631 23 is_stmt 1 discriminator 1
	.loc 1 631 25 is_stmt 0 discriminator 1
	srli	a0,a0,1
.LVL950:
.L468:
	.loc 1 634 5 is_stmt 1
	.loc 1 635 5
	.loc 1 637 5
	.loc 1 638 5
	.loc 1 638 7 is_stmt 0
	addi	a5,a0,4
	andi	a5,a5,-2
.LVL951:
	.loc 1 641 5 is_stmt 1
	.loc 1 641 7 is_stmt 0
	bleu	a5,s5,.L469
	.loc 1 643 9 is_stmt 1
	.loc 1 643 15 is_stmt 0
	sw	a5,0(s3)
	.loc 1 644 9 is_stmt 1
	.loc 1 644 15 is_stmt 0
	li	s0,-8
.LVL952:
.L465:
	.loc 1 694 1
	lw	ra,60(sp)
	.cfi_remember_state
	.cfi_restore 1
	mv	a0,s0
	lw	s0,56(sp)
	.cfi_restore 8
	lw	s1,52(sp)
	.cfi_restore 9
	lw	s2,48(sp)
	.cfi_restore 18
	lw	s3,44(sp)
	.cfi_restore 19
.LVL953:
	lw	s4,40(sp)
	.cfi_restore 20
	lw	s5,36(sp)
	.cfi_restore 21
	lw	s6,32(sp)
	.cfi_restore 22
	lw	s7,28(sp)
	.cfi_restore 23
	lw	s8,24(sp)
	.cfi_restore 24
	addi	sp,sp,64
	.cfi_def_cfa_offset 0
	jr	ra
.LVL954:
.L469:
	.cfi_restore_state
	.loc 1 647 5 is_stmt 1
	.loc 1 648 5
.LBB209:
.LBB210:
	.loc 1 116 5
	.loc 1 116 10
	.loc 1 116 17
	.loc 1 118 5
.LBE210:
.LBE209:
	.loc 1 650 7 is_stmt 0
	lw	a4,0(s0)
.LBB212:
.LBB211:
	.loc 1 118 10
	li	a5,1
.LVL955:
	sw	a5,4(sp)
	.loc 1 119 5 is_stmt 1
	.loc 1 119 10 is_stmt 0
	sw	zero,8(sp)
	.loc 1 120 5 is_stmt 1
	.loc 1 120 10 is_stmt 0
	sw	zero,12(sp)
.LVL956:
.LBE211:
.LBE212:
	.loc 1 650 5 is_stmt 1
	.loc 1 650 7 is_stmt 0
	li	a5,-1
	mv	s1,s4
	bne	a4,a5,.L470
.LVL957:
	.loc 1 652 9 is_stmt 1
	.loc 1 652 14 is_stmt 0
	li	a5,45
	.loc 1 652 11
	addi	s1,s4,1
.LVL958:
	.loc 1 652 14
	sb	a5,0(s4)
	.loc 1 653 9 is_stmt 1
	.loc 1 653 15 is_stmt 0
	addi	s5,s5,-1
.LVL959:
.L470:
	.loc 1 656 5 is_stmt 1
	.loc 1 656 7 is_stmt 0
	li	a5,16
	bne	s2,a5,.L471
.LBB213:
	.loc 1 658 9 is_stmt 1
	.loc 1 659 9
	.loc 1 661 9
	.loc 1 661 16 is_stmt 0
	lw	a3,4(s0)
.LVL960:
	.loc 1 670 45
	lui	a1,%hi(.LC0)
	.loc 1 661 26
	li	a2,0
	.loc 1 670 45
	addi	a1,a1,%lo(.LC0)
	.loc 1 667 38
	li	t1,2
	.loc 1 663 13
	li	t3,-8
.LVL961:
.L472:
	.loc 1 661 31 is_stmt 1 discriminator 1
	.loc 1 661 9 is_stmt 0 discriminator 1
	bne	a3,zero,.L476
.LVL962:
.L477:
.LBE213:
	.loc 1 683 97 is_stmt 1 discriminator 2
	.loc 1 686 5 discriminator 2
	.loc 1 686 10 is_stmt 0 discriminator 2
	sb	zero,0(s1)
	.loc 1 687 5 is_stmt 1 discriminator 2
	.loc 1 686 7 is_stmt 0 discriminator 2
	addi	s1,s1,1
	.loc 1 687 15 discriminator 2
	sub	s1,s1,s4
	.loc 1 687 11 discriminator 2
	sw	s1,0(s3)
	li	s0,0
.LVL963:
.L478:
	.loc 1 691 5 is_stmt 1
	addi	a0,sp,4
	call	mbedtls_mpi_free
.LVL964:
	.loc 1 693 5
	.loc 1 693 11 is_stmt 0
	j	.L465
.LVL965:
.L476:
.LBB214:
	.loc 1 665 27
	slli	a7,a3,2
	addi	a7,a7,-4
	addi	a6,a3,4
	li	a0,24
.L475:
.LVL966:
	.loc 1 665 17 is_stmt 1
	.loc 1 665 27 is_stmt 0
	lw	a5,8(s0)
	add	a5,a5,a7
	.loc 1 665 35
	lw	a5,0(a5)
	srl	a5,a5,a0
	.loc 1 665 19
	andi	a4,a5,255
.LVL967:
	.loc 1 667 17 is_stmt 1
	.loc 1 667 19 is_stmt 0
	or	a2,a2,a4
.LVL968:
	bne	a2,zero,.L473
	.loc 1 667 38 discriminator 2
	bne	a6,t1,.L474
.L473:
	.loc 1 670 17 is_stmt 1
	.loc 1 670 48 is_stmt 0
	srai	a4,a4,4
.LVL969:
	.loc 1 671 48
	andi	a5,a5,15
.LVL970:
	.loc 1 670 45
	add	a4,a1,a4
	.loc 1 671 45
	add	a5,a1,a5
	.loc 1 670 24
	lbu	a4,0(a4)
	.loc 1 671 24
	lbu	a5,0(a5)
	.loc 1 671 20
	addi	s1,s1,2
	.loc 1 670 24
	sb	a4,-2(s1)
.LVL971:
	.loc 1 671 17 is_stmt 1
	.loc 1 671 24 is_stmt 0
	sb	a5,-1(s1)
	.loc 1 672 17 is_stmt 1
.LVL972:
	.loc 1 672 19 is_stmt 0
	li	a2,1
.LVL973:
.L474:
	.loc 1 663 50 is_stmt 1 discriminator 1
	.loc 1 663 13 is_stmt 0 discriminator 1
	addi	a0,a0,-8
	addi	a6,a6,-1
.LVL974:
	bne	a0,t3,.L475
	.loc 1 661 38 is_stmt 1 discriminator 2
	.loc 1 661 39 is_stmt 0 discriminator 2
	addi	a3,a3,-1
.LVL975:
	j	.L472
.LVL976:
.L471:
.LBE214:
	.loc 1 678 9 is_stmt 1
	.loc 1 678 14
	.loc 1 678 27 is_stmt 0
	mv	a1,s0
	addi	a0,sp,4
.LVL977:
	call	mbedtls_mpi_copy
.LVL978:
	mv	s0,a0
.LVL979:
	.loc 1 678 16
	bne	a0,zero,.L478
	.loc 1 678 84 is_stmt 1 discriminator 2
	.loc 1 680 9 discriminator 2
	.loc 1 680 11 is_stmt 0 discriminator 2
	lw	a4,4(sp)
	li	a5,-1
	bne	a4,a5,.L479
	.loc 1 681 13 is_stmt 1
	.loc 1 681 17 is_stmt 0
	li	a5,1
	sw	a5,4(sp)
.L479:
	.loc 1 683 9 is_stmt 1
	.loc 1 683 14
.LVL980:
.LBB215:
.LBB216:
	.loc 1 576 5
	.loc 1 577 5
	.loc 1 578 5
	.loc 1 579 5
	.loc 1 579 11 is_stmt 0
	add	s6,s1,s5
.LVL981:
	mv	s8,s6
	.loc 1 593 11
	li	s7,9
.LVL982:
.L483:
	.loc 1 581 5 is_stmt 1
	.loc 1 583 9
	.loc 1 583 11 is_stmt 0
	sub	a5,s6,s8
.LVL983:
	bleu	s5,a5,.L487
	.loc 1 588 9 is_stmt 1
	.loc 1 588 14
	.loc 1 588 27 is_stmt 0
	mv	a2,s2
	addi	a1,sp,4
.LVL984:
	mv	a0,sp
	call	mbedtls_mpi_mod_int
.LVL985:
	mv	s0,a0
.LVL986:
	.loc 1 588 16
	bne	a0,zero,.L478
	.loc 1 588 94 is_stmt 1
	.loc 1 589 9
	.loc 1 589 14
	.loc 1 589 27 is_stmt 0
	addi	a2,sp,4
.LVL987:
	mv	a3,s2
	li	a1,0
	mv	a0,a2
	call	mbedtls_mpi_div_int
.LVL988:
	mv	s0,a0
.LVL989:
	.loc 1 589 16
	bne	a0,zero,.L478
	.loc 1 589 52 is_stmt 1
	.loc 1 593 9
	.loc 1 593 15 is_stmt 0
	lw	a4,0(sp)
	.loc 1 594 24
	addi	s8,s8,-1
.LVL990:
	.loc 1 594 26
	andi	a5,a4,0xff
	.loc 1 593 11
	bgtu	a4,s7,.L481
	.loc 1 594 13 is_stmt 1
.LVL991:
	.loc 1 594 26 is_stmt 0
	addi	a5,a5,48
.LVL992:
.L491:
	.loc 1 596 26
	andi	a5,a5,0xff
	sb	a5,0(s8)
.LVL993:
	.loc 1 598 9 is_stmt 1
	.loc 1 599 14 is_stmt 0
	li	a1,0
	addi	a0,sp,4
.LVL994:
	sub	s0,s6,s8
.LVL995:
	.loc 1 599 12 is_stmt 1
	.loc 1 599 14 is_stmt 0
	call	mbedtls_mpi_cmp_int
.LVL996:
	.loc 1 599 5
	bne	a0,zero,.L483
	.loc 1 601 5 is_stmt 1
	mv	a0,s1
	mv	a2,s0
	mv	a1,s8
	call	memmove
.LVL997:
	.loc 1 602 5
	.loc 1 602 8 is_stmt 0
	add	s1,s1,s0
.LVL998:
	j	.L477
.LVL999:
.L481:
	.loc 1 596 13 is_stmt 1
	.loc 1 596 26 is_stmt 0
	addi	a5,a5,55
	j	.L491
.LVL1000:
.L487:
	.loc 1 585 19
	li	s0,-8
.LVL1001:
	j	.L478
.LBE216:
.LBE215:
	.cfi_endproc
.LFE24:
	.size	mbedtls_mpi_write_string, .-mbedtls_mpi_write_string
	.section	.rodata.mbedtls_mpi_write_file.str1.4,"aMS",@progbits,1
	.align	2
.LC1:
	.string	""
	.align	2
.LC2:
	.string	"%s%s"
	.section	.text.mbedtls_mpi_write_file,"ax",@progbits
	.align	1
	.globl	mbedtls_mpi_write_file
	.type	mbedtls_mpi_write_file, @function
mbedtls_mpi_write_file:
.LFB26:
	.loc 1 740 1 is_stmt 1
	.cfi_startproc
.LVL1002:
	.loc 1 741 5
	.loc 1 742 5
	.loc 1 747 5
	.loc 1 748 5
	.loc 1 748 10
	.loc 1 748 17
	.loc 1 750 5
	.loc 1 740 1 is_stmt 0
	addi	sp,sp,-2032
	.cfi_def_cfa_offset 2032
	sw	s2,2016(sp)
	sw	ra,2028(sp)
	sw	s0,2024(sp)
	sw	s1,2020(sp)
	sw	s3,2012(sp)
	sw	s4,2008(sp)
	sw	s5,2004(sp)
	sw	s6,2000(sp)
	sw	s7,1996(sp)
	.loc 1 750 19
	addi	a4,a2,-2
	.loc 1 750 7
	li	a5,14
	.loc 1 740 1
	addi	sp,sp,-528
	.cfi_def_cfa_offset 2560
	.cfi_offset 18, -16
	.cfi_offset 1, -4
	.cfi_offset 8, -8
	.cfi_offset 9, -12
	.cfi_offset 19, -20
	.cfi_offset 20, -24
	.cfi_offset 21, -28
	.cfi_offset 22, -32
	.cfi_offset 23, -36
	.loc 1 751 15
	li	s2,-4
	.loc 1 750 7
	bgtu	a4,a5,.L492
	.loc 1 753 5
	li	s7,4096
	addi	a4,sp,16
	li	s3,-4096
	addi	a5,s7,-1600
	add	a5,a5,a4
	addi	s2,s3,1612
	add	s2,a5,s2
	li	s6,4096
	mv	s5,a1
	mv	s1,a2
	li	a1,0
.LVL1003:
	addi	a2,s6,-1612
.LVL1004:
	mv	s0,a0
	mv	a0,s2
.LVL1005:
	mv	s4,a3
	.loc 1 753 5 is_stmt 1
	call	memset
.LVL1006:
	.loc 1 755 5
	.loc 1 755 10
	.loc 1 755 23 is_stmt 0
	addi	a3,sp,16
	addi	a5,s7,-1600
	add	a5,a5,a3
	addi	a4,s3,1608
	mv	a2,s2
	add	a4,a5,a4
	addi	a3,s6,-1614
	mv	a1,s1
	mv	a0,s5
	call	mbedtls_mpi_write_string
.LVL1007:
	mv	s2,a0
.LVL1008:
	.loc 1 755 12
	bne	a0,zero,.L492
	.loc 1 755 115 is_stmt 1 discriminator 2
	.loc 1 757 5 discriminator 2
	.loc 1 757 7 is_stmt 0 discriminator 2
	bne	s0,zero,.L494
	.loc 1 757 22
	lui	s0,%hi(.LC1)
.LVL1009:
	addi	s0,s0,%lo(.LC1)
.L494:
.LVL1010:
	.loc 1 759 5 is_stmt 1
	.loc 1 759 12 is_stmt 0
	mv	a0,s0
.LVL1011:
	call	strlen
.LVL1012:
	.loc 1 760 12
	li	s7,4096
	addi	a4,sp,16
	li	s6,-4096
	addi	a5,s7,-1600
	add	a5,a5,a4
	addi	s3,s6,1612
	add	s3,a5,s3
	.loc 1 759 12
	mv	s5,a0
.LVL1013:
	.loc 1 760 5 is_stmt 1
	.loc 1 760 12 is_stmt 0
	mv	a0,s3
.LVL1014:
	call	strlen
.LVL1015:
	.loc 1 761 15
	addi	a4,sp,16
	addi	a5,s7,-1600
	add	a5,a5,a4
	add	a5,a5,s6
	li	a4,13
	sw	a5,12(sp)
	add	a5,a5,a0
	sb	a4,1612(a5)
	.loc 1 762 15
	li	a4,10
	sb	a4,1613(a5)
	.loc 1 760 12
	mv	s1,a0
.LVL1016:
	.loc 1 761 5 is_stmt 1
	.loc 1 762 5
	.loc 1 764 5
	.loc 1 764 7 is_stmt 0
	beq	s4,zero,.L495
	.loc 1 766 9 is_stmt 1
	.loc 1 766 13 is_stmt 0
	mv	a3,s4
	mv	a2,s5
	li	a1,1
	mv	a0,s0
	call	fwrite
.LVL1017:
	.loc 1 766 11
	bne	a0,s5,.L496
	.loc 1 762 11 discriminator 1
	addi	s1,s1,2
.LVL1018:
	.loc 1 767 13 discriminator 1
	mv	a3,s4
	mv	a2,s1
	li	a1,1
	mv	a0,s3
	call	fwrite
.LVL1019:
	.loc 1 766 48 discriminator 1
	beq	a0,s1,.L492
.LVL1020:
.L496:
	.loc 1 768 19
	li	s2,-2
.LVL1021:
.L492:
	.loc 1 776 1
	addi	sp,sp,528
	.cfi_remember_state
	.cfi_def_cfa_offset 2032
	lw	ra,2028(sp)
	.cfi_restore 1
	mv	a0,s2
	lw	s0,2024(sp)
	.cfi_restore 8
	lw	s1,2020(sp)
	.cfi_restore 9
	lw	s2,2016(sp)
	.cfi_restore 18
	lw	s3,2012(sp)
	.cfi_restore 19
	lw	s4,2008(sp)
	.cfi_restore 20
	lw	s5,2004(sp)
	.cfi_restore 21
	lw	s6,2000(sp)
	.cfi_restore 22
	lw	s7,1996(sp)
	.cfi_restore 23
	addi	sp,sp,2032
	.cfi_def_cfa_offset 0
	jr	ra
.LVL1022:
.L495:
	.cfi_restore_state
	.loc 1 771 9 is_stmt 1
	lui	a0,%hi(.LC2)
	mv	a2,s3
	mv	a1,s0
	addi	a0,a0,%lo(.LC2)
	call	printf
.LVL1023:
	j	.L492
	.cfi_endproc
.LFE26:
	.size	mbedtls_mpi_write_file, .-mbedtls_mpi_write_file
	.section	.text.mpi_check_small_factors,"ax",@progbits
	.align	1
	.type	mpi_check_small_factors, @function
mpi_check_small_factors:
.LFB61:
	.loc 1 2493 1
	.cfi_startproc
.LVL1024:
	.loc 1 2494 5
	.loc 1 2495 5
	.loc 1 2496 5
	.loc 1 2498 5
	.loc 1 2498 15 is_stmt 0
	lw	a5,8(a0)
	.loc 1 2498 19
	lw	a5,0(a5)
	andi	a5,a5,1
	.loc 1 2498 7
	beq	a5,zero,.L504
	.loc 1 2493 1
	addi	sp,sp,-48
	.cfi_def_cfa_offset 48
	sw	s0,40(sp)
	.cfi_offset 8, -8
	lui	s0,%hi(.LANCHOR0)
	sw	s1,36(sp)
	sw	ra,44(sp)
	.cfi_offset 9, -12
	.cfi_offset 1, -4
	mv	s1,a0
	addi	s0,s0,%lo(.LANCHOR0)
.LVL1025:
.L501:
.LBB219:
.LBB220:
	.loc 1 2501 17 is_stmt 1
	.loc 1 2501 28 is_stmt 0
	lw	a2,0(s0)
	.loc 1 2501 5
	bgt	a2,zero,.L503
	.loc 1 2512 1
	li	a0,0
.LVL1026:
.L499:
.LBE220:
.LBE219:
	.loc 1 2514 1
	lw	ra,44(sp)
	.cfi_remember_state
	.cfi_restore 1
	lw	s0,40(sp)
	.cfi_restore 8
	lw	s1,36(sp)
	.cfi_restore 9
.LVL1027:
	addi	sp,sp,48
	.cfi_def_cfa_offset 0
	jr	ra
.LVL1028:
.L503:
	.cfi_restore_state
.LBB222:
.LBB221:
	.loc 1 2503 9 is_stmt 1
	.loc 1 2503 13 is_stmt 0
	mv	a1,a2
	mv	a0,s1
	sw	a2,12(sp)
	call	mbedtls_mpi_cmp_int
.LVL1029:
	.loc 1 2503 11
	ble	a0,zero,.L505
	.loc 1 2506 9 is_stmt 1
	.loc 1 2506 14
	.loc 1 2506 27 is_stmt 0
	lw	a2,12(sp)
	mv	a1,s1
	addi	a0,sp,28
	call	mbedtls_mpi_mod_int
.LVL1030:
	.loc 1 2506 16
	bne	a0,zero,.L499
	.loc 1 2506 103 is_stmt 1
	.loc 1 2508 9
	.loc 1 2508 11 is_stmt 0
	lw	a5,28(sp)
	addi	s0,s0,4
	bne	a5,zero,.L501
	.loc 1 2509 19
	li	a0,-14
.LVL1031:
	j	.L499
.LVL1032:
.L505:
	.loc 1 2504 19
	li	a0,1
	j	.L499
.LVL1033:
.L504:
	.cfi_def_cfa_offset 0
	.cfi_restore 1
	.cfi_restore 8
	.cfi_restore 9
.LBE221:
.LBE222:
	.loc 1 2499 15
	li	a0,-14
.LVL1034:
	.loc 1 2514 1
	ret
	.cfi_endproc
.LFE61:
	.size	mpi_check_small_factors, .-mpi_check_small_factors
	.section	.text.mbedtls_mpi_exp_mod,"ax",@progbits
	.align	1
	.globl	mbedtls_mpi_exp_mod
	.type	mbedtls_mpi_exp_mod, @function
mbedtls_mpi_exp_mod:
.LFB57:
	.loc 1 2050 1 is_stmt 1
	.cfi_startproc
.LVL1035:
	.loc 1 2051 5
	.loc 1 2052 5
	.loc 1 2053 5
	.loc 1 2054 5
	.loc 1 2055 5
	.loc 1 2056 5
	.loc 1 2057 5
	.loc 1 2059 5
	.loc 1 2059 10
	.loc 1 2059 17
	.loc 1 2060 5
	.loc 1 2060 10
	.loc 1 2060 17
	.loc 1 2061 5
	.loc 1 2061 10
	.loc 1 2061 17
	.loc 1 2062 5
	.loc 1 2062 10
	.loc 1 2062 17
	.loc 1 2064 5
	.loc 1 2050 1 is_stmt 0
	addi	sp,sp,-912
	.cfi_def_cfa_offset 912
	sw	s3,892(sp)
	sw	s4,888(sp)
	.cfi_offset 19, -20
	.cfi_offset 20, -24
	mv	s3,a0
	mv	s4,a1
	.loc 1 2064 9
	mv	a0,a3
.LVL1036:
	li	a1,0
.LVL1037:
	.loc 1 2050 1
	sw	s0,904(sp)
	sw	s1,900(sp)
	sw	s7,876(sp)
	sw	s8,872(sp)
	sw	ra,908(sp)
	sw	s2,896(sp)
	sw	s5,884(sp)
	sw	s6,880(sp)
	sw	s9,868(sp)
	sw	s10,864(sp)
	sw	s11,860(sp)
	.cfi_offset 8, -8
	.cfi_offset 9, -12
	.cfi_offset 23, -36
	.cfi_offset 24, -40
	.cfi_offset 1, -4
	.cfi_offset 18, -16
	.cfi_offset 21, -28
	.cfi_offset 22, -32
	.cfi_offset 25, -44
	.cfi_offset 26, -48
	.cfi_offset 27, -52
	.loc 1 2050 1
	mv	s8,a2
	mv	s1,a3
	mv	s7,a4
	.loc 1 2064 9
	call	mbedtls_mpi_cmp_int
.LVL1038:
	.loc 1 2065 15
	li	s0,-4
	.loc 1 2064 7
	ble	a0,zero,.L511
	.loc 1 2064 51 discriminator 1
	lw	a5,8(s1)
	.loc 1 2065 15 discriminator 1
	li	s0,-4
	.loc 1 2064 51 discriminator 1
	lw	s5,0(a5)
	.loc 1 2064 55 discriminator 1
	andi	s10,s5,1
	.loc 1 2064 42 discriminator 1
	beq	s10,zero,.L511
	.loc 1 2067 5 is_stmt 1
	.loc 1 2067 9 is_stmt 0
	li	a1,0
	mv	a0,s8
	call	mbedtls_mpi_cmp_int
.LVL1039:
	.loc 1 2067 7
	blt	a0,zero,.L511
	.loc 1 2070 5 is_stmt 1
	.loc 1 2070 9 is_stmt 0
	mv	a0,s8
	call	mbedtls_mpi_bitlen
.LVL1040:
	.loc 1 2070 7
	li	s2,8192
	bgtu	a0,s2,.L511
	.loc 1 2071 9 discriminator 1
	mv	a0,s1
	call	mbedtls_mpi_bitlen
.LVL1041:
	.loc 1 2070 48 discriminator 1
	bgtu	a0,s2,.L511
	.loc 1 2077 5 is_stmt 1
.LVL1042:
.LBB235:
.LBB236:
	.loc 1 1946 5
	.loc 1 1947 5
	.loc 1 1949 5
	.loc 1 1950 5
	.loc 1 1950 17 is_stmt 0
	addi	s2,s5,2
	.loc 1 1950 29
	slli	s2,s2,1
	andi	s2,s2,8
	.loc 1 1950 7
	add	s2,s2,s5
.LVL1043:
	.loc 1 1952 5 is_stmt 1
	.loc 1 1952 49
	.loc 1 1950 7 is_stmt 0
	li	a5,3
	.loc 1 1953 18
	li	a3,2
.LVL1044:
.L513:
	.loc 1 1953 9 is_stmt 1
	.loc 1 1953 25 is_stmt 0
	mul	a4,s5,s2
	.loc 1 1952 5
	addi	a5,a5,-1
	.loc 1 1953 18
	sub	a4,a3,a4
	.loc 1 1953 11
	mul	s2,s2,a4
.LVL1045:
	.loc 1 1952 57 is_stmt 1
	.loc 1 1952 49
	.loc 1 1952 5 is_stmt 0
	bne	a5,zero,.L513
	.loc 1 1955 5 is_stmt 1
.LVL1046:
.LBE236:
.LBE235:
	.loc 1 2078 5
.LBB238:
.LBB239:
	.loc 1 116 5
	.loc 1 116 10
	.loc 1 116 17
	.loc 1 118 5
	.loc 1 118 10 is_stmt 0
	li	a5,1
.LBE239:
.LBE238:
	.loc 1 2080 5
	li	a2,768
	li	a1,0
	addi	a0,sp,80
.LBB242:
.LBB240:
	.loc 1 118 10
	sw	a5,32(sp)
	.loc 1 119 5 is_stmt 1
.LBE240:
.LBE242:
.LBB243:
.LBB244:
	.loc 1 118 10 is_stmt 0
	sw	a5,44(sp)
.LBE244:
.LBE243:
.LBB246:
.LBB247:
	sw	a5,56(sp)
.LBE247:
.LBE246:
.LBB249:
.LBB241:
	.loc 1 119 10
	sw	zero,36(sp)
	.loc 1 120 5 is_stmt 1
	.loc 1 120 10 is_stmt 0
	sw	zero,40(sp)
.LVL1047:
.LBE241:
.LBE249:
	.loc 1 2078 30 is_stmt 1
.LBB250:
.LBB245:
	.loc 1 116 5
	.loc 1 116 10
	.loc 1 116 17
	.loc 1 118 5
	.loc 1 119 5
	.loc 1 119 10 is_stmt 0
	sw	zero,48(sp)
	.loc 1 120 5 is_stmt 1
	.loc 1 120 10 is_stmt 0
	sw	zero,52(sp)
.LVL1048:
.LBE245:
.LBE250:
	.loc 1 2079 5 is_stmt 1
.LBB251:
.LBB248:
	.loc 1 116 5
	.loc 1 116 10
	.loc 1 116 17
	.loc 1 118 5
	.loc 1 119 5
	.loc 1 119 10 is_stmt 0
	sw	zero,60(sp)
	.loc 1 120 5 is_stmt 1
	.loc 1 120 10 is_stmt 0
	sw	zero,64(sp)
.LVL1049:
.LBE248:
.LBE251:
	.loc 1 2080 5 is_stmt 1
	call	memset
.LVL1050:
	.loc 1 2082 5
	.loc 1 2082 9 is_stmt 0
	mv	a0,s8
	call	mbedtls_mpi_bitlen
.LVL1051:
	.loc 1 2084 5 is_stmt 1
	.loc 1 2084 29 is_stmt 0
	li	a5,671
	li	s5,6
	bgtu	a0,a5,.L514
	.loc 1 2084 29 discriminator 1
	li	a5,239
	li	s5,5
	bgtu	a0,a5,.L514
	.loc 1 2084 29 discriminator 3
	li	a5,79
	li	s5,4
	bgtu	a0,a5,.L514
	.loc 1 2084 29 discriminator 5
	li	a5,23
	li	s5,3
	bgtu	a0,a5,.L514
	.loc 1 2084 29
	mv	s5,s10
.L514:
.LVL1052:
	.loc 1 2092 5 is_stmt 1 discriminator 16
	.loc 1 2092 7 is_stmt 0 discriminator 16
	lw	s6,4(s1)
	.loc 1 2093 23 discriminator 16
	mv	a0,s3
.LVL1053:
	.loc 1 2092 7 discriminator 16
	addi	s6,s6,1
.LVL1054:
	.loc 1 2093 5 is_stmt 1 discriminator 16
	.loc 1 2093 10 discriminator 16
	.loc 1 2093 23 is_stmt 0 discriminator 16
	mv	a1,s6
	call	mbedtls_mpi_grow
.LVL1055:
	mv	s0,a0
.LVL1056:
	.loc 1 2093 12 discriminator 16
	bne	a0,zero,.L515
	.loc 1 2093 79 is_stmt 1 discriminator 2
	.loc 1 2094 5 discriminator 2
	.loc 1 2094 10 discriminator 2
	.loc 1 2094 23 is_stmt 0 discriminator 2
	mv	a1,s6
	addi	a0,sp,92
	call	mbedtls_mpi_grow
.LVL1057:
	mv	s0,a0
.LVL1058:
	.loc 1 2094 12 discriminator 2
	bne	a0,zero,.L515
	.loc 1 2094 83 is_stmt 1 discriminator 2
	.loc 1 2095 5 discriminator 2
	.loc 1 2095 10 discriminator 2
	.loc 1 2095 23 is_stmt 0 discriminator 2
	slli	a1,s6,1
	addi	a0,sp,44
	call	mbedtls_mpi_grow
.LVL1059:
	mv	s0,a0
.LVL1060:
	.loc 1 2095 12 discriminator 2
	bne	a0,zero,.L515
	.loc 1 2095 84 is_stmt 1 discriminator 2
	.loc 1 2100 5 discriminator 2
	.loc 1 2100 14 is_stmt 0 discriminator 2
	lw	a5,0(s4)
	sw	a5,8(sp)
.LVL1061:
	.loc 1 2101 5 is_stmt 1 discriminator 2
	.loc 1 2101 7 is_stmt 0 discriminator 2
	lw	a4,8(sp)
	li	a5,-1
.LVL1062:
	bne	a4,a5,.L516
	.loc 1 2103 9 is_stmt 1
	.loc 1 2103 14
	.loc 1 2103 27 is_stmt 0
	mv	a1,s4
	addi	a0,sp,56
	call	mbedtls_mpi_copy
.LVL1063:
	mv	s0,a0
.LVL1064:
	.loc 1 2103 16
	bne	a0,zero,.L515
	.loc 1 2103 87 is_stmt 1 discriminator 2
	.loc 1 2104 9 discriminator 2
	.loc 1 2104 16 is_stmt 0 discriminator 2
	li	a5,1
	sw	a5,56(sp)
	.loc 1 2105 9 is_stmt 1 discriminator 2
.LVL1065:
	.loc 1 2105 11 is_stmt 0 discriminator 2
	addi	s4,sp,56
.LVL1066:
.L516:
	.loc 1 2111 5 is_stmt 1
	.loc 1 2111 7 is_stmt 0
	beq	s7,zero,.L517
	.loc 1 2111 20 discriminator 1
	lw	a5,8(s7)
	bne	a5,zero,.L518
.L517:
	.loc 1 2113 9 is_stmt 1
	.loc 1 2113 14
	.loc 1 2113 27 is_stmt 0
	li	a1,1
	addi	a0,sp,32
	call	mbedtls_mpi_lset
.LVL1067:
	mv	s0,a0
.LVL1068:
	.loc 1 2113 16
	bne	a0,zero,.L515
	.loc 1 2113 85 is_stmt 1 discriminator 2
	.loc 1 2114 9 discriminator 2
	.loc 1 2114 14 discriminator 2
	.loc 1 2114 27 is_stmt 0 discriminator 2
	lw	a1,4(s1)
	addi	a0,sp,32
	slli	a1,a1,6
	call	mbedtls_mpi_shift_l
.LVL1069:
	mv	s0,a0
.LVL1070:
	.loc 1 2114 16 discriminator 2
	bne	a0,zero,.L515
	.loc 1 2114 131 is_stmt 1 discriminator 2
	.loc 1 2115 9 discriminator 2
	.loc 1 2115 14 discriminator 2
	.loc 1 2115 27 is_stmt 0 discriminator 2
	addi	a1,sp,32
	mv	a2,s1
	mv	a0,a1
	call	mbedtls_mpi_mod_mpi
.LVL1071:
	mv	s0,a0
.LVL1072:
	.loc 1 2115 16 discriminator 2
	bne	a0,zero,.L515
	.loc 1 2115 93 is_stmt 1 discriminator 2
	.loc 1 2117 9 discriminator 2
	.loc 1 2117 11 is_stmt 0 discriminator 2
	beq	s7,zero,.L519
	.loc 1 2118 13 is_stmt 1
	li	a2,12
	addi	a1,sp,32
	mv	a0,s7
.L580:
	.loc 1 2121 9 is_stmt 0
	call	memcpy
.LVL1073:
.L519:
	.loc 1 2126 5 is_stmt 1
	.loc 1 2126 9 is_stmt 0
	mv	a1,s1
	mv	a0,s4
	call	mbedtls_mpi_cmp_mpi
.LVL1074:
	.loc 1 2126 7
	blt	a0,zero,.L520
	.loc 1 2127 9 is_stmt 1
	.loc 1 2127 14
	.loc 1 2127 27 is_stmt 0
	mv	a2,s1
	mv	a1,s4
	addi	a0,sp,92
	call	mbedtls_mpi_mod_mpi
.LVL1075:
.L581:
	mv	s0,a0
.LVL1076:
	.loc 1 2127 16
	bne	a0,zero,.L515
.LBB252:
.LBB237:
	.loc 1 1955 14
	neg	s2,s2
.LVL1077:
.LBE237:
.LBE252:
	.loc 1 2129 87 is_stmt 1
	.loc 1 2131 5
	addi	a4,sp,44
	mv	a3,s2
	mv	a2,s1
	addi	a1,sp,32
	addi	a0,sp,92
	call	mpi_montmul
.LVL1078:
	.loc 1 2136 5
	.loc 1 2136 10
	.loc 1 2136 23 is_stmt 0
	addi	a1,sp,32
	mv	a0,s3
	call	mbedtls_mpi_copy
.LVL1079:
	mv	s0,a0
.LVL1080:
	.loc 1 2136 12
	bne	a0,zero,.L515
	.loc 1 2136 81 is_stmt 1 discriminator 2
	.loc 1 2137 5 discriminator 2
.LVL1081:
.LBB253:
.LBB254:
	.loc 1 2035 5 discriminator 2
	.loc 1 2035 22 is_stmt 0 discriminator 2
	li	s6,1
.LVL1082:
	.loc 1 2039 9 discriminator 2
	addi	a5,sp,28
	.loc 1 2041 5 discriminator 2
	addi	a4,sp,44
.LVL1083:
	mv	a3,s2
	mv	a2,s1
	addi	a1,sp,68
	mv	a0,s3
	.loc 1 2035 22 discriminator 2
	sw	s6,28(sp)
	.loc 1 2036 5 is_stmt 1 discriminator 2
	.loc 1 2038 5 discriminator 2
	.loc 1 2038 15 is_stmt 0 discriminator 2
	sw	s6,68(sp)
	.loc 1 2038 9 discriminator 2
	sw	s6,72(sp)
	.loc 1 2039 5 is_stmt 1 discriminator 2
	.loc 1 2039 9 is_stmt 0 discriminator 2
	sw	a5,76(sp)
	.loc 1 2041 5 is_stmt 1 discriminator 2
	call	mpi_montmul
.LVL1084:
.LBE254:
.LBE253:
	.loc 1 2139 5 discriminator 2
	.loc 1 2139 7 is_stmt 0 discriminator 2
	bne	s5,s6,.L523
.LVL1085:
.L528:
	.loc 1 2164 5 is_stmt 1
	.loc 1 2164 13 is_stmt 0
	lw	s4,4(s8)
.LVL1086:
	.loc 1 2165 5 is_stmt 1
	.loc 1 2166 5
	.loc 1 2167 5
	.loc 1 2168 5
	.loc 1 2168 11 is_stmt 0
	li	t1,0
	.loc 1 2166 11
	li	s11,0
	.loc 1 2165 13
	li	s6,0
.LVL1087:
.L582:
	.loc 1 2224 19
	li	s9,0
	j	.L524
.LVL1088:
.L518:
	.loc 1 2121 9 is_stmt 1
	li	a2,12
	mv	a1,s7
	addi	a0,sp,32
	j	.L580
.L520:
	.loc 1 2129 9
	.loc 1 2129 14
	.loc 1 2129 27 is_stmt 0
	mv	a1,s4
	addi	a0,sp,92
	call	mbedtls_mpi_copy
.LVL1089:
	j	.L581
.LVL1090:
.L523:
	.loc 1 2144 28
	addi	s11,s5,-1
	.loc 1 2146 27
	lw	a1,4(s1)
	li	s4,12
.LVL1091:
	sll	s4,s4,s11
	addi	a5,sp,80
	add	s9,a5,s4
	addi	a1,a1,1
	mv	a0,s9
	.loc 1 2144 11
	sll	s6,s6,s11
	.loc 1 2144 9 is_stmt 1
.LVL1092:
	.loc 1 2146 9
	.loc 1 2146 14
	.loc 1 2146 27 is_stmt 0
	call	mbedtls_mpi_grow
.LVL1093:
	.loc 1 2146 16
	bne	a0,zero,.L552
	.loc 1 2146 94 is_stmt 1 discriminator 2
	.loc 1 2147 9 discriminator 2
	.loc 1 2147 14 discriminator 2
	.loc 1 2147 27 is_stmt 0 discriminator 2
	addi	a1,sp,92
	mv	a0,s9
.LVL1094:
	call	mbedtls_mpi_copy
.LVL1095:
	.loc 1 2147 16 discriminator 2
	bne	a0,zero,.L552
	.loc 1 2149 16
	li	s4,0
.LVL1096:
.L525:
	.loc 1 2150 13 is_stmt 1 discriminator 3
	addi	a4,sp,44
	mv	a3,s2
	mv	a2,s1
	mv	a1,s9
	mv	a0,s9
	.loc 1 2149 37 is_stmt 0 discriminator 3
	addi	s4,s4,1
.LVL1097:
	.loc 1 2150 13 discriminator 3
	call	mpi_montmul
.LVL1098:
	.loc 1 2149 36 is_stmt 1 discriminator 3
	.loc 1 2149 21 discriminator 3
	.loc 1 2149 9 is_stmt 0 discriminator 3
	bgtu	s11,s4,.L525
	.loc 1 2155 9 is_stmt 1
	.loc 1 2155 35 is_stmt 0
	li	s11,1
.LVL1099:
	.loc 1 2155 16
	addi	s6,s6,1
.LVL1100:
	.loc 1 2155 35
	sll	s11,s11,s5
.L526:
.LVL1101:
	.loc 1 2155 25 is_stmt 1 discriminator 2
	.loc 1 2155 9 is_stmt 0 discriminator 2
	bleu	s11,s6,.L528
	.loc 1 2157 13 is_stmt 1
	.loc 1 2157 18
	.loc 1 2157 31 is_stmt 0
	lw	a1,4(s1)
	addi	s4,s9,12
	mv	a0,s4
	addi	a1,a1,1
	call	mbedtls_mpi_grow
.LVL1102:
	.loc 1 2157 20
	bne	a0,zero,.L552
	.loc 1 2157 98 is_stmt 1 discriminator 2
	.loc 1 2158 13 discriminator 2
	.loc 1 2158 18 discriminator 2
	.loc 1 2158 31 is_stmt 0 discriminator 2
	mv	a1,s9
	mv	a0,s4
.LVL1103:
	call	mbedtls_mpi_copy
.LVL1104:
	.loc 1 2158 20 discriminator 2
	bne	a0,zero,.L552
	.loc 1 2158 99 is_stmt 1 discriminator 2
	.loc 1 2160 13 discriminator 2
	addi	a4,sp,44
	mv	a3,s2
	mv	a2,s1
	addi	a1,sp,92
	mv	a0,s4
.LVL1105:
	call	mpi_montmul
.LVL1106:
	.loc 1 2155 47 discriminator 2
	.loc 1 2155 48 is_stmt 0 discriminator 2
	addi	s6,s6,1
.LVL1107:
	mv	s9,s4
	j	.L526
.LVL1108:
.L530:
	.loc 1 2177 13 is_stmt 1
	.loc 1 2177 20 is_stmt 0
	addi	s4,s4,-1
.LVL1109:
	.loc 1 2179 13 is_stmt 1
	.loc 1 2179 21 is_stmt 0
	li	s6,32
.LVL1110:
.L529:
	.loc 1 2182 9 is_stmt 1
	.loc 1 2184 19 is_stmt 0
	lw	a4,8(s8)
	slli	a3,s4,2
	.loc 1 2182 16
	addi	s6,s6,-1
.LVL1111:
	.loc 1 2184 9 is_stmt 1
	.loc 1 2184 19 is_stmt 0
	add	a4,a4,a3
	.loc 1 2184 29
	lw	a4,0(a4)
	srl	a4,a4,s6
	.loc 1 2184 12
	andi	a4,a4,1
.LVL1112:
	.loc 1 2189 9 is_stmt 1
	.loc 1 2189 11 is_stmt 0
	bne	a4,zero,.L532
	.loc 1 2189 21 discriminator 1
	beq	t1,zero,.L524
	.loc 1 2192 9 is_stmt 1 discriminator 1
	.loc 1 2192 21 is_stmt 0 discriminator 1
	li	a5,1
	bne	t1,a5,.L532
	.loc 1 2197 13
	addi	a4,sp,44
.LVL1113:
	mv	a3,s2
.LVL1114:
	mv	a2,s1
	mv	a1,s3
	mv	a0,s3
	sw	t1,12(sp)
	.loc 1 2197 13 is_stmt 1
	call	mpi_montmul
.LVL1115:
	.loc 1 2198 13
	lw	t1,12(sp)
.LVL1116:
.L524:
	.loc 1 2170 5
	.loc 1 2172 9
	.loc 1 2172 11 is_stmt 0
	bne	s6,zero,.L529
.LVL1117:
	.loc 1 2174 13 is_stmt 1
	.loc 1 2174 15 is_stmt 0
	bne	s4,zero,.L530
	.loc 1 2237 29
	li	s6,1
	sll	s6,s6,s5
.LVL1118:
.L531:
	.loc 1 2231 17 is_stmt 1 discriminator 1
	.loc 1 2231 5 is_stmt 0 discriminator 1
	bne	s4,s11,.L536
	.loc 1 2244 5 is_stmt 1
.LVL1119:
.LBB255:
.LBB256:
	.loc 1 2035 5
	.loc 1 2035 22 is_stmt 0
	li	a5,1
	sw	a5,28(sp)
	.loc 1 2036 5 is_stmt 1
	.loc 1 2038 5
	.loc 1 2038 15 is_stmt 0
	sw	a5,68(sp)
	.loc 1 2038 9
	sw	a5,72(sp)
	.loc 1 2039 5 is_stmt 1
	.loc 1 2041 5 is_stmt 0
	addi	a4,sp,44
.LVL1120:
	.loc 1 2039 9
	addi	a5,sp,28
	.loc 1 2041 5
	mv	a3,s2
	mv	a2,s1
	addi	a1,sp,68
	mv	a0,s3
	.loc 1 2039 9
	sw	a5,76(sp)
	.loc 1 2041 5 is_stmt 1
	call	mpi_montmul
.LVL1121:
.LBE256:
.LBE255:
	.loc 1 2246 5
	.loc 1 2246 7 is_stmt 0
	lw	a4,8(sp)
	li	a5,-1
	bne	a4,a5,.L515
	.loc 1 2246 13 discriminator 1
	lw	a5,4(s8)
	beq	a5,zero,.L515
	.loc 1 2246 35 discriminator 2
	lw	a5,8(s8)
	.loc 1 2246 39 discriminator 2
	lw	a5,0(a5)
	andi	a5,a5,1
	.loc 1 2246 26 discriminator 2
	beq	a5,zero,.L515
	.loc 1 2248 9 is_stmt 1
	.loc 1 2248 14 is_stmt 0
	sw	a4,0(s3)
	.loc 1 2249 9 is_stmt 1
	.loc 1 2249 14
	.loc 1 2249 27 is_stmt 0
	mv	a2,s3
	mv	a1,s1
	mv	a0,s3
	call	mbedtls_mpi_add_mpi
.LVL1122:
.L552:
	mv	s0,a0
.LVL1123:
.L515:
	.loc 1 2249 89 is_stmt 1 discriminator 3
	.loc 1 2254 5 discriminator 3
	.loc 1 2254 31 is_stmt 0 discriminator 3
	addi	s1,s5,-1
.LVL1124:
	.loc 1 2254 12 discriminator 3
	li	a5,1
	sll	s1,a5,s1
.LVL1125:
	.loc 1 2254 50 discriminator 3
	sll	s5,a5,s5
.LVL1126:
	.loc 1 2255 9 discriminator 3
	li	s2,12
.L537:
	.loc 1 2254 40 is_stmt 1 discriminator 1
	.loc 1 2254 5 is_stmt 0 discriminator 1
	bgtu	s5,s1,.L538
	.loc 1 2257 5 is_stmt 1
	addi	a0,sp,92
	call	mbedtls_mpi_free
.LVL1127:
	.loc 1 2257 32
	addi	a0,sp,44
	call	mbedtls_mpi_free
.LVL1128:
	.loc 1 2257 56
	addi	a0,sp,56
	call	mbedtls_mpi_free
.LVL1129:
	.loc 1 2259 5
	.loc 1 2259 7 is_stmt 0
	beq	s7,zero,.L539
	.loc 1 2259 20 discriminator 1
	lw	a5,8(s7)
	bne	a5,zero,.L511
.L539:
	.loc 1 2260 9 is_stmt 1
	addi	a0,sp,32
	call	mbedtls_mpi_free
.LVL1130:
.L511:
	.loc 1 2263 1 is_stmt 0
	lw	ra,908(sp)
	.cfi_remember_state
	.cfi_restore 1
	mv	a0,s0
	lw	s0,904(sp)
	.cfi_restore 8
	lw	s1,900(sp)
	.cfi_restore 9
	lw	s2,896(sp)
	.cfi_restore 18
	lw	s3,892(sp)
	.cfi_restore 19
.LVL1131:
	lw	s4,888(sp)
	.cfi_restore 20
	lw	s5,884(sp)
	.cfi_restore 21
	lw	s6,880(sp)
	.cfi_restore 22
	lw	s7,876(sp)
	.cfi_restore 23
.LVL1132:
	lw	s8,872(sp)
	.cfi_restore 24
.LVL1133:
	lw	s9,868(sp)
	.cfi_restore 25
	lw	s10,864(sp)
	.cfi_restore 26
	lw	s11,860(sp)
	.cfi_restore 27
	addi	sp,sp,912
	.cfi_def_cfa_offset 0
	jr	ra
.LVL1134:
.L532:
	.cfi_restore_state
	.loc 1 2204 9 is_stmt 1
	.loc 1 2206 9
	.loc 1 2206 14 is_stmt 0
	addi	s11,s11,1
.LVL1135:
	.loc 1 2207 9 is_stmt 1
	.loc 1 2207 34 is_stmt 0
	sub	a3,s5,s11
	.loc 1 2207 23
	sll	a4,a4,a3
.LVL1136:
	.loc 1 2207 15
	or	s9,s9,a4
.LVL1137:
	.loc 1 2209 9 is_stmt 1
	.loc 1 2204 15 is_stmt 0
	li	t1,2
	.loc 1 2209 11
	bne	s5,s11,.L524
	.loc 1 2214 20
	li	t1,0
.LVL1138:
.L534:
	.loc 1 2215 17 discriminator 3
	addi	a4,sp,44
	mv	a3,s2
	mv	a2,s1
	mv	a1,s3
	mv	a0,s3
	sw	t1,12(sp)
.LVL1139:
	.loc 1 2215 17 is_stmt 1 discriminator 3
	call	mpi_montmul
.LVL1140:
	.loc 1 2214 36 discriminator 3
	.loc 1 2214 37 is_stmt 0 discriminator 3
	lw	t1,12(sp)
	addi	t1,t1,1
.LVL1141:
	.loc 1 2214 25 is_stmt 1 discriminator 3
	.loc 1 2214 13 is_stmt 0 discriminator 3
	bgtu	s11,t1,.L534
	.loc 1 2220 13 is_stmt 1
	.loc 1 2220 29 is_stmt 0
	li	a5,12
	mul	a1,s9,a5
	.loc 1 2220 13
	addi	a5,sp,80
	addi	a4,sp,44
	mv	a3,s2
	mv	a2,s1
	mv	a0,s3
	.loc 1 2223 19
	li	s11,0
.LVL1142:
	.loc 1 2220 13
	add	a1,a5,a1
	call	mpi_montmul
.LVL1143:
	.loc 1 2222 13 is_stmt 1
	.loc 1 2223 13
	.loc 1 2224 13
	.loc 1 2222 18 is_stmt 0
	mv	t1,s10
	j	.L582
.LVL1144:
.L536:
	.loc 1 2233 9 is_stmt 1
	addi	a4,sp,44
	mv	a3,s2
	mv	a2,s1
	mv	a1,s3
	mv	a0,s3
	call	mpi_montmul
.LVL1145:
	.loc 1 2235 9
	.loc 1 2235 15 is_stmt 0
	slli	s9,s9,1
.LVL1146:
	.loc 1 2237 9 is_stmt 1
	.loc 1 2237 21 is_stmt 0
	and	a4,s6,s9
	.loc 1 2237 11
	beq	a4,zero,.L535
	.loc 1 2238 13 is_stmt 1
	addi	a4,sp,44
	mv	a3,s2
	mv	a2,s1
	addi	a1,sp,92
	mv	a0,s3
	call	mpi_montmul
.LVL1147:
.L535:
	.loc 1 2231 28 discriminator 2
	.loc 1 2231 29 is_stmt 0 discriminator 2
	addi	s4,s4,1
.LVL1148:
	j	.L531
.LVL1149:
.L538:
	.loc 1 2255 9 is_stmt 1 discriminator 3
	mul	a0,s1,s2
	addi	a5,sp,80
	.loc 1 2254 63 is_stmt 0 discriminator 3
	addi	s1,s1,1
.LVL1150:
	.loc 1 2255 9 discriminator 3
	add	a0,a5,a0
	call	mbedtls_mpi_free
.LVL1151:
	.loc 1 2254 62 is_stmt 1 discriminator 3
	j	.L537
	.cfi_endproc
.LFE57:
	.size	mbedtls_mpi_exp_mod, .-mbedtls_mpi_exp_mod
	.section	.text.mbedtls_mpi_gcd,"ax",@progbits
	.align	1
	.globl	mbedtls_mpi_gcd
	.type	mbedtls_mpi_gcd, @function
mbedtls_mpi_gcd:
.LFB58:
	.loc 1 2269 1
	.cfi_startproc
.LVL1152:
	.loc 1 2270 5
	.loc 1 2271 5
	.loc 1 2272 5
	.loc 1 2274 5
	.loc 1 2274 10
	.loc 1 2274 17
	.loc 1 2275 5
	.loc 1 2275 10
	.loc 1 2275 17
	.loc 1 2276 5
	.loc 1 2276 10
	.loc 1 2276 17
	.loc 1 2278 5
	.loc 1 2269 1 is_stmt 0
	addi	sp,sp,-64
	.cfi_def_cfa_offset 64
.LVL1153:
.LBB257:
.LBB258:
	.loc 1 116 5 is_stmt 1
	.loc 1 116 10
	.loc 1 116 17
	.loc 1 118 5
	.loc 1 118 10 is_stmt 0
	li	a5,1
.LBE258:
.LBE257:
	.loc 1 2269 1
	sw	s1,52(sp)
	.cfi_offset 9, -12
	mv	s1,a0
	.loc 1 2280 23
	addi	a0,sp,24
.LVL1154:
	.loc 1 2269 1
	sw	s0,56(sp)
	sw	s2,48(sp)
	sw	ra,60(sp)
	.cfi_offset 8, -8
	.cfi_offset 18, -16
	.cfi_offset 1, -4
	.loc 1 2269 1
	mv	s2,a2
.LBB260:
.LBB259:
	.loc 1 118 10
	sw	a5,12(sp)
	.loc 1 119 5 is_stmt 1
	.loc 1 119 10 is_stmt 0
	sw	zero,16(sp)
	.loc 1 120 5 is_stmt 1
	.loc 1 120 10 is_stmt 0
	sw	zero,20(sp)
.LVL1155:
.LBE259:
.LBE260:
	.loc 1 2278 30 is_stmt 1
.LBB261:
.LBB262:
	.loc 1 116 5
	.loc 1 116 10
	.loc 1 116 17
	.loc 1 118 5
	.loc 1 118 10 is_stmt 0
	sw	a5,24(sp)
	.loc 1 119 5 is_stmt 1
	.loc 1 119 10 is_stmt 0
	sw	zero,28(sp)
	.loc 1 120 5 is_stmt 1
	.loc 1 120 10 is_stmt 0
	sw	zero,32(sp)
.LVL1156:
.LBE262:
.LBE261:
	.loc 1 2278 55 is_stmt 1
.LBB263:
.LBB264:
	.loc 1 116 5
	.loc 1 116 10
	.loc 1 116 17
	.loc 1 118 5
	.loc 1 118 10 is_stmt 0
	sw	a5,36(sp)
	.loc 1 119 5 is_stmt 1
	.loc 1 119 10 is_stmt 0
	sw	zero,40(sp)
	.loc 1 120 5 is_stmt 1
	.loc 1 120 10 is_stmt 0
	sw	zero,44(sp)
.LVL1157:
.LBE264:
.LBE263:
	.loc 1 2280 5 is_stmt 1
	.loc 1 2280 10
	.loc 1 2280 23 is_stmt 0
	call	mbedtls_mpi_copy
.LVL1158:
	mv	s0,a0
.LVL1159:
	.loc 1 2280 12
	bne	a0,zero,.L584
	.loc 1 2280 81 is_stmt 1 discriminator 2
	.loc 1 2281 5 discriminator 2
	.loc 1 2281 10 discriminator 2
	.loc 1 2281 23 is_stmt 0 discriminator 2
	mv	a1,s2
	addi	a0,sp,36
	call	mbedtls_mpi_copy
.LVL1160:
	mv	s0,a0
.LVL1161:
	.loc 1 2281 12 discriminator 2
	bne	a0,zero,.L584
	.loc 1 2281 81 is_stmt 1 discriminator 2
	.loc 1 2283 5 discriminator 2
	.loc 1 2283 10 is_stmt 0 discriminator 2
	addi	a0,sp,24
	call	mbedtls_mpi_lsb
.LVL1162:
	mv	s2,a0
.LVL1163:
	.loc 1 2284 5 is_stmt 1 discriminator 2
	.loc 1 2284 11 is_stmt 0 discriminator 2
	addi	a0,sp,36
.LVL1164:
	call	mbedtls_mpi_lsb
.LVL1165:
	.loc 1 2286 5 is_stmt 1 discriminator 2
	bleu	s2,a0,.L585
	mv	s2,a0
.LVL1166:
.L585:
	.loc 1 2289 5 discriminator 2
	.loc 1 2289 10 discriminator 2
	.loc 1 2289 23 is_stmt 0 discriminator 2
	mv	a1,s2
	addi	a0,sp,24
.LVL1167:
	call	mbedtls_mpi_shift_r
.LVL1168:
	mv	s0,a0
.LVL1169:
	.loc 1 2289 12 discriminator 2
	bne	a0,zero,.L584
	.loc 1 2289 85 is_stmt 1 discriminator 2
	.loc 1 2290 5 discriminator 2
	.loc 1 2290 10 discriminator 2
	.loc 1 2290 23 is_stmt 0 discriminator 2
	mv	a1,s2
	addi	a0,sp,36
	call	mbedtls_mpi_shift_r
.LVL1170:
	mv	s0,a0
.LVL1171:
	.loc 1 2290 12 discriminator 2
	bne	a0,zero,.L584
	.loc 1 2290 85 is_stmt 1 discriminator 2
	.loc 1 2292 5 discriminator 2
	.loc 1 2292 17 is_stmt 0 discriminator 2
	li	a5,1
	sw	a5,36(sp)
	.loc 1 2292 10 discriminator 2
	sw	a5,24(sp)
	.loc 1 2294 5 is_stmt 1 discriminator 2
.L586:
	.loc 1 2307 92 discriminator 2
	.loc 1 2294 10 discriminator 2
	.loc 1 2294 12 is_stmt 0 discriminator 2
	li	a1,0
	addi	a0,sp,24
	call	mbedtls_mpi_cmp_int
.LVL1172:
	.loc 1 2294 10 discriminator 2
	bne	a0,zero,.L589
	.loc 1 2311 5 is_stmt 1
	.loc 1 2311 10
	.loc 1 2311 23 is_stmt 0
	mv	a1,s2
	addi	a0,sp,36
	call	mbedtls_mpi_shift_l
.LVL1173:
	mv	s0,a0
.LVL1174:
	.loc 1 2311 12
	bne	a0,zero,.L584
	.loc 1 2311 85 is_stmt 1 discriminator 2
	.loc 1 2312 5 discriminator 2
	.loc 1 2312 10 discriminator 2
	.loc 1 2312 23 is_stmt 0 discriminator 2
	addi	a1,sp,36
	mv	a0,s1
	call	mbedtls_mpi_copy
.LVL1175:
	mv	s0,a0
.LVL1176:
	.loc 1 2314 1 discriminator 2
	j	.L584
.L589:
	.loc 1 2296 9 is_stmt 1
	.loc 1 2296 14
	.loc 1 2296 27 is_stmt 0
	addi	a0,sp,24
	call	mbedtls_mpi_lsb
.LVL1177:
	mv	a1,a0
	addi	a0,sp,24
	call	mbedtls_mpi_shift_r
.LVL1178:
	mv	s0,a0
.LVL1179:
	.loc 1 2296 16
	bne	a0,zero,.L584
	.loc 1 2296 109 is_stmt 1 discriminator 2
	.loc 1 2297 9 discriminator 2
	.loc 1 2297 14 discriminator 2
	.loc 1 2297 27 is_stmt 0 discriminator 2
	addi	a0,sp,36
	call	mbedtls_mpi_lsb
.LVL1180:
	mv	a1,a0
	addi	a0,sp,36
	call	mbedtls_mpi_shift_r
.LVL1181:
	mv	s0,a0
.LVL1182:
	.loc 1 2297 16 discriminator 2
	bne	a0,zero,.L584
	.loc 1 2297 109 is_stmt 1 discriminator 2
	.loc 1 2299 9 discriminator 2
	.loc 1 2299 13 is_stmt 0 discriminator 2
	addi	a1,sp,36
	addi	a0,sp,24
	call	mbedtls_mpi_cmp_mpi
.LVL1183:
	.loc 1 2299 11 discriminator 2
	blt	a0,zero,.L587
	.loc 1 2301 13 is_stmt 1
	.loc 1 2301 18
	.loc 1 2301 31 is_stmt 0
	addi	a1,sp,24
	addi	a2,sp,36
	mv	a0,a1
	call	mbedtls_mpi_sub_abs
.LVL1184:
	mv	s0,a0
.LVL1185:
	.loc 1 2301 20
	bne	a0,zero,.L584
	.loc 1 2301 99 is_stmt 1 discriminator 2
	.loc 1 2302 13 discriminator 2
	.loc 1 2302 18 discriminator 2
	.loc 1 2302 31 is_stmt 0 discriminator 2
	li	a1,1
	addi	a0,sp,24
.L591:
	.loc 1 2307 31 discriminator 2
	call	mbedtls_mpi_shift_r
.LVL1186:
	mv	s0,a0
.LVL1187:
	.loc 1 2307 20 discriminator 2
	beq	a0,zero,.L586
.LVL1188:
.L584:
	.loc 1 2312 81 is_stmt 1 discriminator 3
	.loc 1 2316 5 discriminator 3
	addi	a0,sp,12
	call	mbedtls_mpi_free
.LVL1189:
	.loc 1 2316 30 discriminator 3
	addi	a0,sp,24
	call	mbedtls_mpi_free
.LVL1190:
	.loc 1 2316 55 discriminator 3
	addi	a0,sp,36
	call	mbedtls_mpi_free
.LVL1191:
	.loc 1 2318 5 discriminator 3
	.loc 1 2319 1 is_stmt 0 discriminator 3
	lw	ra,60(sp)
	.cfi_remember_state
	.cfi_restore 1
	mv	a0,s0
	lw	s0,56(sp)
	.cfi_restore 8
.LVL1192:
	lw	s1,52(sp)
	.cfi_restore 9
.LVL1193:
	lw	s2,48(sp)
	.cfi_restore 18
	addi	sp,sp,64
	.cfi_def_cfa_offset 0
	jr	ra
.LVL1194:
.L587:
	.cfi_restore_state
	.loc 1 2306 13 is_stmt 1
	.loc 1 2306 18
	.loc 1 2306 31 is_stmt 0
	addi	a1,sp,36
	addi	a2,sp,24
	mv	a0,a1
	call	mbedtls_mpi_sub_abs
.LVL1195:
	mv	s0,a0
.LVL1196:
	.loc 1 2306 20
	bne	a0,zero,.L584
	.loc 1 2306 99 is_stmt 1 discriminator 2
	.loc 1 2307 13 discriminator 2
	.loc 1 2307 18 discriminator 2
	.loc 1 2307 31 is_stmt 0 discriminator 2
	li	a1,1
	addi	a0,sp,36
	j	.L591
	.cfi_endproc
.LFE58:
	.size	mbedtls_mpi_gcd, .-mbedtls_mpi_gcd
	.section	.text.mbedtls_mpi_fill_random,"ax",@progbits
	.align	1
	.globl	mbedtls_mpi_fill_random
	.type	mbedtls_mpi_fill_random, @function
mbedtls_mpi_fill_random:
.LFB59:
	.loc 1 2331 1 is_stmt 1
	.cfi_startproc
.LVL1197:
	.loc 1 2332 5
	.loc 1 2333 5
	.loc 1 2331 1 is_stmt 0
	addi	sp,sp,-32
	.cfi_def_cfa_offset 32
	sw	s2,16(sp)
	.cfi_offset 18, -16
	.loc 1 2333 75
	andi	s2,a1,3
	.loc 1 2331 1
	sw	s1,20(sp)
	sw	s3,12(sp)
	sw	s4,8(sp)
	sw	s5,4(sp)
	.loc 1 2333 35
	srli	a5,a1,2
	.loc 1 2331 1
	sw	ra,28(sp)
	sw	s0,24(sp)
	.cfi_offset 9, -12
	.cfi_offset 19, -20
	.cfi_offset 20, -24
	.cfi_offset 21, -28
	.cfi_offset 1, -4
	.cfi_offset 8, -8
	.loc 1 2333 104
	snez	s2,s2
	.loc 1 2333 18
	add	s2,s2,a5
.LVL1198:
	.loc 1 2334 5 is_stmt 1
	.loc 1 2341 7 is_stmt 0
	lw	a5,4(a0)
	.loc 1 2331 1
	mv	s1,a0
	mv	s3,a1
.LVL1199:
	.loc 1 2335 5 is_stmt 1
	.loc 1 2337 5
	.loc 1 2337 10
	.loc 1 2337 17
	.loc 1 2338 5
	.loc 1 2338 10
	.loc 1 2338 17
	.loc 1 2341 5
	.loc 1 2331 1 is_stmt 0
	mv	s4,a2
	mv	s5,a3
	.loc 1 2341 7
	bne	a5,s2,.L593
.LVL1200:
.L596:
	.loc 1 2345 87 is_stmt 1
	.loc 1 2347 5
	.loc 1 2347 10
	.loc 1 2347 23 is_stmt 0
	li	a1,0
	mv	a0,s1
	call	mbedtls_mpi_lset
.LVL1201:
	mv	s0,a0
.LVL1202:
	.loc 1 2347 12
	beq	a0,zero,.L597
.L592:
	.loc 1 2356 1
	lw	ra,28(sp)
	.cfi_remember_state
	.cfi_restore 1
	mv	a0,s0
	lw	s0,24(sp)
	.cfi_restore 8
.LVL1203:
	lw	s1,20(sp)
	.cfi_restore 9
.LVL1204:
	lw	s2,16(sp)
	.cfi_restore 18
.LVL1205:
	lw	s3,12(sp)
	.cfi_restore 19
.LVL1206:
	lw	s4,8(sp)
	.cfi_restore 20
.LVL1207:
	lw	s5,4(sp)
	.cfi_restore 21
.LVL1208:
	addi	sp,sp,32
	.cfi_def_cfa_offset 0
	jr	ra
.LVL1209:
.L593:
	.cfi_restore_state
	.loc 1 2343 9 is_stmt 1
	call	mbedtls_mpi_free
.LVL1210:
	.loc 1 2344 9
.LBB265:
.LBB266:
	.loc 1 116 5
	.loc 1 116 10
	.loc 1 116 17
	.loc 1 118 5
	.loc 1 118 10 is_stmt 0
	li	a5,1
	sw	a5,0(s1)
	.loc 1 119 5 is_stmt 1
	.loc 1 119 10 is_stmt 0
	sw	zero,4(s1)
	.loc 1 120 5 is_stmt 1
	.loc 1 120 10 is_stmt 0
	sw	zero,8(s1)
.LVL1211:
.LBE266:
.LBE265:
	.loc 1 2345 9 is_stmt 1
	.loc 1 2345 14
	.loc 1 2345 27 is_stmt 0
	mv	a1,s2
	mv	a0,s1
	call	mbedtls_mpi_grow
.LVL1212:
	mv	s0,a0
.LVL1213:
	.loc 1 2345 16
	beq	a0,zero,.L596
	j	.L592
.L597:
	.loc 1 2347 79 is_stmt 1 discriminator 2
	.loc 1 2349 5 discriminator 2
.LVL1214:
	.loc 1 2350 5 discriminator 2
	.loc 1 2350 10 discriminator 2
	.loc 1 2350 23 is_stmt 0 discriminator 2
	lw	a1,8(s1)
	.loc 1 2334 37 discriminator 2
	slli	a5,s2,2
	.loc 1 2334 18 discriminator 2
	sub	a5,a5,s3
	.loc 1 2350 23 discriminator 2
	mv	a2,s3
	add	a1,a1,a5
	mv	a0,s5
	jalr	s4
.LVL1215:
	mv	s0,a0
.LVL1216:
	.loc 1 2350 12 discriminator 2
	bne	a0,zero,.L592
.L594:
	.loc 1 2350 90 is_stmt 1 discriminator 2
	.loc 1 2352 5 discriminator 2
	lw	a0,8(s1)
	mv	a1,s2
	call	mpi_bigendian_to_host
.LVL1217:
	.loc 1 2355 5 discriminator 2
	.loc 1 2355 11 is_stmt 0 discriminator 2
	j	.L592
	.cfi_endproc
.LFE59:
	.size	mbedtls_mpi_fill_random, .-mbedtls_mpi_fill_random
	.section	.text.mpi_miller_rabin,"ax",@progbits
	.align	1
	.type	mpi_miller_rabin, @function
mpi_miller_rabin:
.LFB62:
	.loc 1 2522 1 is_stmt 1
	.cfi_startproc
.LVL1218:
	.loc 1 2523 5
	.loc 1 2524 5
	.loc 1 2525 5
	.loc 1 2527 5
	.loc 1 2527 10
	.loc 1 2527 17
	.loc 1 2528 5
	.loc 1 2528 10
	.loc 1 2528 17
	.loc 1 2530 5
	.loc 1 2522 1 is_stmt 0
	addi	sp,sp,-112
	.cfi_def_cfa_offset 112
.LVL1219:
.LBB267:
.LBB268:
	.loc 1 116 5 is_stmt 1
	.loc 1 116 10
	.loc 1 116 17
	.loc 1 118 5
	.loc 1 118 10 is_stmt 0
	li	a5,1
.LBE268:
.LBE267:
	.loc 1 2522 1
	sw	s1,100(sp)
	sw	s3,92(sp)
	sw	s5,84(sp)
	.cfi_offset 9, -12
	.cfi_offset 19, -20
	.cfi_offset 21, -28
	mv	s1,a0
	mv	s3,a1
	mv	s5,a2
	.loc 1 2538 23
	mv	a1,a0
.LVL1220:
	li	a2,1
.LVL1221:
	addi	a0,sp,4
.LVL1222:
	.loc 1 2522 1
	sw	s0,104(sp)
	sw	s6,80(sp)
	sw	ra,108(sp)
	sw	s2,96(sp)
	sw	s4,88(sp)
	sw	s7,76(sp)
	sw	s8,72(sp)
	sw	s9,68(sp)
	sw	s10,64(sp)
	.cfi_offset 8, -8
	.cfi_offset 22, -32
	.cfi_offset 1, -4
	.cfi_offset 18, -16
	.cfi_offset 20, -24
	.cfi_offset 23, -36
	.cfi_offset 24, -40
	.cfi_offset 25, -44
	.cfi_offset 26, -48
	.loc 1 2522 1
	mv	s6,a3
.LBB270:
.LBB269:
	.loc 1 118 10
	sw	a5,4(sp)
	.loc 1 119 5 is_stmt 1
	.loc 1 119 10 is_stmt 0
	sw	zero,8(sp)
	.loc 1 120 5 is_stmt 1
	.loc 1 120 10 is_stmt 0
	sw	zero,12(sp)
.LVL1223:
.LBE269:
.LBE270:
	.loc 1 2530 29 is_stmt 1
.LBB271:
.LBB272:
	.loc 1 116 5
	.loc 1 116 10
	.loc 1 116 17
	.loc 1 118 5
	.loc 1 118 10 is_stmt 0
	sw	a5,16(sp)
	.loc 1 119 5 is_stmt 1
	.loc 1 119 10 is_stmt 0
	sw	zero,20(sp)
	.loc 1 120 5 is_stmt 1
	.loc 1 120 10 is_stmt 0
	sw	zero,24(sp)
.LVL1224:
.LBE272:
.LBE271:
	.loc 1 2531 5 is_stmt 1
.LBB273:
.LBB274:
	.loc 1 116 5
	.loc 1 116 10
	.loc 1 116 17
	.loc 1 118 5
	.loc 1 118 10 is_stmt 0
	sw	a5,28(sp)
	.loc 1 119 5 is_stmt 1
	.loc 1 119 10 is_stmt 0
	sw	zero,32(sp)
	.loc 1 120 5 is_stmt 1
	.loc 1 120 10 is_stmt 0
	sw	zero,36(sp)
.LVL1225:
.LBE274:
.LBE273:
	.loc 1 2531 29 is_stmt 1
.LBB275:
.LBB276:
	.loc 1 116 5
	.loc 1 116 10
	.loc 1 116 17
	.loc 1 118 5
	.loc 1 118 10 is_stmt 0
	sw	a5,40(sp)
	.loc 1 119 5 is_stmt 1
	.loc 1 119 10 is_stmt 0
	sw	zero,44(sp)
	.loc 1 120 5 is_stmt 1
	.loc 1 120 10 is_stmt 0
	sw	zero,48(sp)
.LVL1226:
.LBE276:
.LBE275:
	.loc 1 2532 5 is_stmt 1
.LBB277:
.LBB278:
	.loc 1 116 5
	.loc 1 116 10
	.loc 1 116 17
	.loc 1 118 5
	.loc 1 118 10 is_stmt 0
	sw	a5,52(sp)
	.loc 1 119 5 is_stmt 1
	.loc 1 119 10 is_stmt 0
	sw	zero,56(sp)
	.loc 1 120 5 is_stmt 1
	.loc 1 120 10 is_stmt 0
	sw	zero,60(sp)
.LVL1227:
.LBE278:
.LBE277:
	.loc 1 2538 5 is_stmt 1
	.loc 1 2538 10
	.loc 1 2538 23 is_stmt 0
	call	mbedtls_mpi_sub_int
.LVL1228:
	mv	s0,a0
.LVL1229:
	.loc 1 2538 12
	bne	a0,zero,.L600
	.loc 1 2538 86 is_stmt 1 discriminator 2
	.loc 1 2539 5 discriminator 2
	.loc 1 2539 9 is_stmt 0 discriminator 2
	addi	a0,sp,4
	call	mbedtls_mpi_lsb
.LVL1230:
	mv	s2,a0
.LVL1231:
	.loc 1 2540 5 is_stmt 1 discriminator 2
	.loc 1 2540 10 discriminator 2
	.loc 1 2540 23 is_stmt 0 discriminator 2
	addi	a1,sp,4
	addi	a0,sp,16
.LVL1232:
	call	mbedtls_mpi_copy
.LVL1233:
	mv	s0,a0
.LVL1234:
	.loc 1 2540 12 discriminator 2
	bne	a0,zero,.L600
	.loc 1 2540 81 is_stmt 1 discriminator 2
	.loc 1 2541 5 discriminator 2
	.loc 1 2541 10 discriminator 2
	.loc 1 2541 23 is_stmt 0 discriminator 2
	mv	a1,s2
	addi	a0,sp,16
	call	mbedtls_mpi_shift_r
.LVL1235:
	mv	s0,a0
.LVL1236:
	.loc 1 2541 12 discriminator 2
	bne	a0,zero,.L600
	.loc 1 2555 30
	li	s7,1073741824
	.loc 1 2543 12
	li	s4,0
	.loc 1 2555 30
	addi	s7,s7,-1
	li	s9,-1
.LVL1237:
.L601:
	.loc 1 2543 17 is_stmt 1 discriminator 1
	.loc 1 2543 5 is_stmt 0 discriminator 1
	beq	s4,s3,.L600
	li	s8,32
.LVL1238:
.L623:
	.loc 1 2549 9 is_stmt 1
	.loc 1 2550 13
	.loc 1 2550 18
	.loc 1 2550 31 is_stmt 0
	lw	a1,4(s1)
	mv	a3,s6
	mv	a2,s5
	slli	a1,a1,2
	addi	a0,sp,40
	call	mbedtls_mpi_fill_random
.LVL1239:
	.loc 1 2550 20
	bne	a0,zero,.L615
	.loc 1 2550 141 is_stmt 1 discriminator 2
	.loc 1 2552 13 discriminator 2
	.loc 1 2552 17 is_stmt 0 discriminator 2
	addi	a0,sp,40
.LVL1240:
	call	mbedtls_mpi_bitlen
.LVL1241:
	mv	s10,a0
.LVL1242:
	.loc 1 2553 13 is_stmt 1 discriminator 2
	.loc 1 2553 17 is_stmt 0 discriminator 2
	addi	a0,sp,4
.LVL1243:
	call	mbedtls_mpi_bitlen
.LVL1244:
	.loc 1 2554 13 is_stmt 1 discriminator 2
	.loc 1 2554 16 is_stmt 0 discriminator 2
	bleu	s10,a0,.L602
	.loc 1 2555 17 is_stmt 1
	.loc 1 2555 22 is_stmt 0
	lw	a5,44(sp)
	.loc 1 2555 30
	add	a4,a5,s7
	slli	a3,a4,2
	lw	a4,48(sp)
	.loc 1 2555 71
	addi	a5,a5,-1
	.loc 1 2555 77
	slli	a5,a5,5
	.loc 1 2555 30
	add	a4,a4,a3
	.loc 1 2555 113
	not	a5,a5
	.loc 1 2555 30
	lw	a3,0(a4)
	.loc 1 2555 113
	add	a5,a5,a0
	.loc 1 2555 30
	sll	a5,s9,a5
	not	a5,a5
	and	a5,a3,a5
	sw	a5,0(a4)
.L602:
	.loc 1 2558 13 is_stmt 1
.LVL1245:
	.loc 1 2558 16 is_stmt 0
	addi	s8,s8,-1
.LVL1246:
	bne	s8,zero,.L603
.LVL1247:
.L610:
	.loc 1 2559 21
	li	s0,-14
.LVL1248:
.L600:
	.loc 1 2602 5 is_stmt 1
	addi	a0,sp,4
	call	mbedtls_mpi_free
.LVL1249:
	.loc 1 2602 29
	addi	a0,sp,16
	call	mbedtls_mpi_free
.LVL1250:
	.loc 1 2603 5
	addi	a0,sp,28
	call	mbedtls_mpi_free
.LVL1251:
	.loc 1 2603 29
	addi	a0,sp,40
	call	mbedtls_mpi_free
.LVL1252:
	.loc 1 2604 5
	addi	a0,sp,52
	call	mbedtls_mpi_free
.LVL1253:
	.loc 1 2606 5
	.loc 1 2607 1 is_stmt 0
	lw	ra,108(sp)
	.cfi_remember_state
	.cfi_restore 1
	mv	a0,s0
	lw	s0,104(sp)
	.cfi_restore 8
.LVL1254:
	lw	s1,100(sp)
	.cfi_restore 9
.LVL1255:
	lw	s2,96(sp)
	.cfi_restore 18
	lw	s3,92(sp)
	.cfi_restore 19
.LVL1256:
	lw	s4,88(sp)
	.cfi_restore 20
	lw	s5,84(sp)
	.cfi_restore 21
.LVL1257:
	lw	s6,80(sp)
	.cfi_restore 22
.LVL1258:
	lw	s7,76(sp)
	.cfi_restore 23
	lw	s8,72(sp)
	.cfi_restore 24
	lw	s9,68(sp)
	.cfi_restore 25
	lw	s10,64(sp)
	.cfi_restore 26
	addi	sp,sp,112
	.cfi_def_cfa_offset 0
	jr	ra
.LVL1259:
.L603:
	.cfi_restore_state
	.loc 1 2563 17 is_stmt 1
	.loc 1 2563 19 is_stmt 0
	addi	a1,sp,4
	addi	a0,sp,40
.LVL1260:
	call	mbedtls_mpi_cmp_mpi
.LVL1261:
	.loc 1 2564 19
	bge	a0,zero,.L623
	.loc 1 2564 19 discriminator 1
	li	a1,1
	addi	a0,sp,40
	call	mbedtls_mpi_cmp_int
.LVL1262:
	.loc 1 2563 54 discriminator 1
	ble	a0,zero,.L623
	.loc 1 2569 9 is_stmt 1
	.loc 1 2569 14
	.loc 1 2569 27 is_stmt 0
	addi	a1,sp,40
	addi	a4,sp,52
	mv	a3,s1
	addi	a2,sp,16
	mv	a0,a1
	call	mbedtls_mpi_exp_mod
.LVL1263:
	.loc 1 2569 16
	bne	a0,zero,.L615
	.loc 1 2569 100 is_stmt 1 discriminator 2
	.loc 1 2571 9 discriminator 2
	.loc 1 2571 13 is_stmt 0 discriminator 2
	addi	a1,sp,4
	addi	a0,sp,40
.LVL1264:
	call	mbedtls_mpi_cmp_mpi
.LVL1265:
	.loc 1 2571 11 discriminator 2
	bne	a0,zero,.L605
.LVL1266:
.L606:
	.loc 1 2543 29 is_stmt 1
	.loc 1 2543 30 is_stmt 0
	addi	s4,s4,1
.LVL1267:
	j	.L601
.LVL1268:
.L605:
	.loc 1 2572 13 discriminator 1
	li	a1,1
	addi	a0,sp,40
	call	mbedtls_mpi_cmp_int
.LVL1269:
	.loc 1 2575 11 discriminator 1
	li	s8,1
.LVL1270:
	.loc 1 2571 48 discriminator 1
	beq	a0,zero,.L606
.LVL1271:
.L607:
	.loc 1 2576 14 is_stmt 1
	.loc 1 2576 25 is_stmt 0
	addi	a1,sp,4
	addi	a0,sp,40
	call	mbedtls_mpi_cmp_mpi
.LVL1272:
	.loc 1 2576 14
	bgeu	s8,s2,.L608
	.loc 1 2576 22 discriminator 1
	bne	a0,zero,.L609
.L611:
	.loc 1 2594 13
	li	a1,1
	addi	a0,sp,40
	call	mbedtls_mpi_cmp_int
.LVL1273:
	.loc 1 2593 48
	bne	a0,zero,.L606
	j	.L610
.L609:
	.loc 1 2581 13 is_stmt 1
	.loc 1 2581 18
	.loc 1 2581 31 is_stmt 0
	addi	a2,sp,40
	mv	a1,a2
	addi	a0,sp,28
	call	mbedtls_mpi_mul_mpi
.LVL1274:
	.loc 1 2581 20
	bne	a0,zero,.L615
	.loc 1 2581 96 is_stmt 1 discriminator 2
	.loc 1 2582 13 discriminator 2
	.loc 1 2582 18 discriminator 2
	.loc 1 2582 31 is_stmt 0 discriminator 2
	mv	a2,s1
	addi	a1,sp,28
	addi	a0,sp,40
.LVL1275:
	call	mbedtls_mpi_mod_mpi
.LVL1276:
	.loc 1 2582 20 discriminator 2
	bne	a0,zero,.L615
	.loc 1 2582 95 is_stmt 1 discriminator 2
	.loc 1 2584 13 discriminator 2
	.loc 1 2584 17 is_stmt 0 discriminator 2
	li	a1,1
	addi	a0,sp,40
.LVL1277:
	call	mbedtls_mpi_cmp_int
.LVL1278:
	.loc 1 2584 15 discriminator 2
	beq	a0,zero,.L608
	.loc 1 2587 13 is_stmt 1
	.loc 1 2587 14 is_stmt 0
	addi	s8,s8,1
.LVL1279:
	j	.L607
.L608:
.LVL1280:
	.loc 1 2593 9 is_stmt 1
	.loc 1 2593 13 is_stmt 0
	addi	a1,sp,4
	addi	a0,sp,40
	call	mbedtls_mpi_cmp_mpi
.LVL1281:
	.loc 1 2593 11
	beq	a0,zero,.L611
	j	.L610
.LVL1282:
.L615:
	mv	s0,a0
	j	.L600
	.cfi_endproc
.LFE62:
	.size	mpi_miller_rabin, .-mpi_miller_rabin
	.section	.text.mbedtls_mpi_inv_mod,"ax",@progbits
	.align	1
	.globl	mbedtls_mpi_inv_mod
	.type	mbedtls_mpi_inv_mod, @function
mbedtls_mpi_inv_mod:
.LFB60:
	.loc 1 2362 1 is_stmt 1
	.cfi_startproc
.LVL1283:
	.loc 1 2363 5
	.loc 1 2364 5
	.loc 1 2365 5
	.loc 1 2365 10
	.loc 1 2365 17
	.loc 1 2366 5
	.loc 1 2366 10
	.loc 1 2366 17
	.loc 1 2367 5
	.loc 1 2367 10
	.loc 1 2367 17
	.loc 1 2369 5
	.loc 1 2362 1 is_stmt 0
	addi	sp,sp,-144
	.cfi_def_cfa_offset 144
	sw	s2,128(sp)
	sw	s3,124(sp)
	.cfi_offset 18, -16
	.cfi_offset 19, -20
	mv	s2,a0
	mv	s3,a1
	.loc 1 2369 9
	mv	a0,a2
.LVL1284:
	li	a1,1
.LVL1285:
	.loc 1 2362 1
	sw	s0,136(sp)
	sw	s1,132(sp)
	sw	ra,140(sp)
	.cfi_offset 8, -8
	.cfi_offset 9, -12
	.cfi_offset 1, -4
	.loc 1 2362 1
	mv	s1,a2
	.loc 1 2369 9
	call	mbedtls_mpi_cmp_int
.LVL1286:
	.loc 1 2370 15
	li	s0,-4
	.loc 1 2369 7
	ble	a0,zero,.L628
	.loc 1 2372 5 is_stmt 1
.LVL1287:
.LBB279:
.LBB280:
	.loc 1 116 5
	.loc 1 116 10
	.loc 1 116 17
	.loc 1 118 5
	.loc 1 118 10 is_stmt 0
	li	a5,1
.LBE280:
.LBE279:
	.loc 1 2376 23
	mv	a2,s1
	mv	a1,s3
	addi	a0,sp,4
.LBB282:
.LBB281:
	.loc 1 118 10
	sw	a5,16(sp)
	.loc 1 119 5 is_stmt 1
	.loc 1 119 10 is_stmt 0
	sw	zero,20(sp)
	.loc 1 120 5 is_stmt 1
	.loc 1 120 10 is_stmt 0
	sw	zero,24(sp)
.LVL1288:
.LBE281:
.LBE282:
	.loc 1 2372 30 is_stmt 1
.LBB283:
.LBB284:
	.loc 1 116 5
	.loc 1 116 10
	.loc 1 116 17
	.loc 1 118 5
	.loc 1 118 10 is_stmt 0
	sw	a5,28(sp)
	.loc 1 119 5 is_stmt 1
	.loc 1 119 10 is_stmt 0
	sw	zero,32(sp)
	.loc 1 120 5 is_stmt 1
	.loc 1 120 10 is_stmt 0
	sw	zero,36(sp)
.LVL1289:
.LBE284:
.LBE283:
	.loc 1 2372 55 is_stmt 1
.LBB285:
.LBB286:
	.loc 1 116 5
	.loc 1 116 10
	.loc 1 116 17
	.loc 1 118 5
	.loc 1 118 10 is_stmt 0
	sw	a5,40(sp)
	.loc 1 119 5 is_stmt 1
	.loc 1 119 10 is_stmt 0
	sw	zero,44(sp)
	.loc 1 120 5 is_stmt 1
	.loc 1 120 10 is_stmt 0
	sw	zero,48(sp)
.LVL1290:
.LBE286:
.LBE285:
	.loc 1 2372 80 is_stmt 1
.LBB287:
.LBB288:
	.loc 1 116 5
	.loc 1 116 10
	.loc 1 116 17
	.loc 1 118 5
	.loc 1 118 10 is_stmt 0
	sw	a5,52(sp)
	.loc 1 119 5 is_stmt 1
	.loc 1 119 10 is_stmt 0
	sw	zero,56(sp)
	.loc 1 120 5 is_stmt 1
	.loc 1 120 10 is_stmt 0
	sw	zero,60(sp)
.LVL1291:
.LBE288:
.LBE287:
	.loc 1 2373 5 is_stmt 1
.LBB289:
.LBB290:
	.loc 1 116 5
	.loc 1 116 10
	.loc 1 116 17
	.loc 1 118 5
	.loc 1 118 10 is_stmt 0
	sw	a5,4(sp)
	.loc 1 119 5 is_stmt 1
	.loc 1 119 10 is_stmt 0
	sw	zero,8(sp)
	.loc 1 120 5 is_stmt 1
	.loc 1 120 10 is_stmt 0
	sw	zero,12(sp)
.LVL1292:
.LBE290:
.LBE289:
	.loc 1 2373 29 is_stmt 1
.LBB291:
.LBB292:
	.loc 1 116 5
	.loc 1 116 10
	.loc 1 116 17
	.loc 1 118 5
	.loc 1 118 10 is_stmt 0
	sw	a5,64(sp)
	.loc 1 119 5 is_stmt 1
	.loc 1 119 10 is_stmt 0
	sw	zero,68(sp)
	.loc 1 120 5 is_stmt 1
	.loc 1 120 10 is_stmt 0
	sw	zero,72(sp)
.LVL1293:
.LBE292:
.LBE291:
	.loc 1 2373 54 is_stmt 1
.LBB293:
.LBB294:
	.loc 1 116 5
	.loc 1 116 10
	.loc 1 116 17
	.loc 1 118 5
	.loc 1 118 10 is_stmt 0
	sw	a5,76(sp)
	.loc 1 119 5 is_stmt 1
	.loc 1 119 10 is_stmt 0
	sw	zero,80(sp)
	.loc 1 120 5 is_stmt 1
	.loc 1 120 10 is_stmt 0
	sw	zero,84(sp)
.LVL1294:
.LBE294:
.LBE293:
	.loc 1 2374 5 is_stmt 1
.LBB295:
.LBB296:
	.loc 1 116 5
	.loc 1 116 10
	.loc 1 116 17
	.loc 1 118 5
	.loc 1 118 10 is_stmt 0
	sw	a5,88(sp)
	.loc 1 119 5 is_stmt 1
	.loc 1 119 10 is_stmt 0
	sw	zero,92(sp)
	.loc 1 120 5 is_stmt 1
	.loc 1 120 10 is_stmt 0
	sw	zero,96(sp)
.LVL1295:
.LBE296:
.LBE295:
	.loc 1 2374 30 is_stmt 1
.LBB297:
.LBB298:
	.loc 1 116 5
	.loc 1 116 10
	.loc 1 116 17
	.loc 1 118 5
	.loc 1 118 10 is_stmt 0
	sw	a5,100(sp)
	.loc 1 119 5 is_stmt 1
	.loc 1 119 10 is_stmt 0
	sw	zero,104(sp)
	.loc 1 120 5 is_stmt 1
	.loc 1 120 10 is_stmt 0
	sw	zero,108(sp)
.LVL1296:
.LBE298:
.LBE297:
	.loc 1 2376 5 is_stmt 1
	.loc 1 2376 10
	.loc 1 2376 23 is_stmt 0
	call	mbedtls_mpi_gcd
.LVL1297:
	mv	s0,a0
.LVL1298:
	.loc 1 2376 12
	bne	a0,zero,.L630
	.loc 1 2376 82 is_stmt 1 discriminator 2
	.loc 1 2378 5 discriminator 2
	.loc 1 2378 9 is_stmt 0 discriminator 2
	li	a1,1
	addi	a0,sp,4
	call	mbedtls_mpi_cmp_int
.LVL1299:
	.loc 1 2380 13 discriminator 2
	li	s0,-14
.LVL1300:
	.loc 1 2378 7 discriminator 2
	bne	a0,zero,.L630
	.loc 1 2384 5 is_stmt 1
	.loc 1 2384 10
	.loc 1 2384 23 is_stmt 0
	mv	a2,s1
	mv	a1,s3
	addi	a0,sp,16
	call	mbedtls_mpi_mod_mpi
.LVL1301:
	mv	s0,a0
.LVL1302:
	.loc 1 2384 12
	bne	a0,zero,.L630
	.loc 1 2384 87 is_stmt 1 discriminator 2
	.loc 1 2385 5 discriminator 2
	.loc 1 2385 10 discriminator 2
	.loc 1 2385 23 is_stmt 0 discriminator 2
	addi	a1,sp,16
	addi	a0,sp,28
	call	mbedtls_mpi_copy
.LVL1303:
	mv	s0,a0
.LVL1304:
	.loc 1 2385 12 discriminator 2
	bne	a0,zero,.L630
	.loc 1 2385 83 is_stmt 1 discriminator 2
	.loc 1 2386 5 discriminator 2
	.loc 1 2386 10 discriminator 2
	.loc 1 2386 23 is_stmt 0 discriminator 2
	mv	a1,s1
	addi	a0,sp,64
	call	mbedtls_mpi_copy
.LVL1305:
	mv	s0,a0
.LVL1306:
	.loc 1 2386 12 discriminator 2
	bne	a0,zero,.L630
	.loc 1 2386 81 is_stmt 1 discriminator 2
	.loc 1 2387 5 discriminator 2
	.loc 1 2387 10 discriminator 2
	.loc 1 2387 23 is_stmt 0 discriminator 2
	mv	a1,s1
	addi	a0,sp,76
	call	mbedtls_mpi_copy
.LVL1307:
	mv	s0,a0
.LVL1308:
	.loc 1 2387 12 discriminator 2
	bne	a0,zero,.L630
	.loc 1 2387 81 is_stmt 1 discriminator 2
	.loc 1 2389 5 discriminator 2
	.loc 1 2389 10 discriminator 2
	.loc 1 2389 23 is_stmt 0 discriminator 2
	li	a1,1
	addi	a0,sp,40
	call	mbedtls_mpi_lset
.LVL1309:
	mv	s0,a0
.LVL1310:
	.loc 1 2389 12 discriminator 2
	bne	a0,zero,.L630
	.loc 1 2389 81 is_stmt 1 discriminator 2
	.loc 1 2390 5 discriminator 2
	.loc 1 2390 10 discriminator 2
	.loc 1 2390 23 is_stmt 0 discriminator 2
	li	a1,0
	addi	a0,sp,52
	call	mbedtls_mpi_lset
.LVL1311:
	mv	s0,a0
.LVL1312:
	.loc 1 2390 12 discriminator 2
	bne	a0,zero,.L630
	.loc 1 2390 81 is_stmt 1 discriminator 2
	.loc 1 2391 5 discriminator 2
	.loc 1 2391 10 discriminator 2
	.loc 1 2391 23 is_stmt 0 discriminator 2
	li	a1,0
	addi	a0,sp,88
	call	mbedtls_mpi_lset
.LVL1313:
	mv	s0,a0
.LVL1314:
	.loc 1 2391 12 discriminator 2
	bne	a0,zero,.L630
	.loc 1 2391 81 is_stmt 1 discriminator 2
	.loc 1 2392 5 discriminator 2
	.loc 1 2392 10 discriminator 2
	.loc 1 2392 23 is_stmt 0 discriminator 2
	li	a1,1
	addi	a0,sp,100
	call	mbedtls_mpi_lset
.LVL1315:
.L653:
	.loc 1 2407 31 discriminator 2
	mv	s0,a0
.LVL1316:
	.loc 1 2407 20 discriminator 2
	bne	a0,zero,.L630
.L631:
	.loc 1 2407 92 is_stmt 1 discriminator 2
	.loc 1 2396 14 discriminator 2
	.loc 1 2396 22 is_stmt 0 discriminator 2
	lw	a5,36(sp)
	.loc 1 2396 26 discriminator 2
	lw	a5,0(a5)
	andi	a5,a5,1
	.loc 1 2396 14 discriminator 2
	beq	a5,zero,.L635
.L636:
	.loc 1 2421 92 is_stmt 1 discriminator 2
	.loc 1 2410 14 discriminator 2
	.loc 1 2410 22 is_stmt 0 discriminator 2
	lw	a5,84(sp)
	.loc 1 2410 26 discriminator 2
	lw	a5,0(a5)
	andi	a5,a5,1
	.loc 1 2410 14 discriminator 2
	beq	a5,zero,.L640
	.loc 1 2424 9 is_stmt 1
	.loc 1 2424 13 is_stmt 0
	addi	a1,sp,76
	addi	a0,sp,28
	call	mbedtls_mpi_cmp_mpi
.LVL1317:
	.loc 1 2424 11
	blt	a0,zero,.L641
	.loc 1 2426 13 is_stmt 1
	.loc 1 2426 18
	.loc 1 2426 31 is_stmt 0
	addi	a1,sp,28
	addi	a2,sp,76
	mv	a0,a1
	call	mbedtls_mpi_sub_mpi
.LVL1318:
	mv	s0,a0
.LVL1319:
	.loc 1 2426 20
	bne	a0,zero,.L630
	.loc 1 2426 99 is_stmt 1 discriminator 2
	.loc 1 2427 13 discriminator 2
	.loc 1 2427 18 discriminator 2
	.loc 1 2427 31 is_stmt 0 discriminator 2
	addi	a1,sp,40
	addi	a2,sp,88
	mv	a0,a1
	call	mbedtls_mpi_sub_mpi
.LVL1320:
	mv	s0,a0
.LVL1321:
	.loc 1 2427 20 discriminator 2
	bne	a0,zero,.L630
	.loc 1 2427 99 is_stmt 1 discriminator 2
	.loc 1 2428 13 discriminator 2
	.loc 1 2428 18 discriminator 2
	.loc 1 2428 31 is_stmt 0 discriminator 2
	addi	a2,sp,100
	addi	a1,sp,52
.L654:
	mv	a0,a1
	call	mbedtls_mpi_sub_mpi
.LVL1322:
	mv	s0,a0
.LVL1323:
	.loc 1 2428 20 discriminator 2
	bne	a0,zero,.L630
	.loc 1 2434 99 is_stmt 1
	.loc 1 2437 10
	.loc 1 2437 12 is_stmt 0
	li	a1,0
	addi	a0,sp,28
	call	mbedtls_mpi_cmp_int
.LVL1324:
	.loc 1 2437 5
	bne	a0,zero,.L631
.L643:
	.loc 1 2440 93 is_stmt 1 discriminator 2
	.loc 1 2439 10 discriminator 2
	.loc 1 2439 12 is_stmt 0 discriminator 2
	li	a1,0
	addi	a0,sp,88
	call	mbedtls_mpi_cmp_int
.LVL1325:
	.loc 1 2439 10 discriminator 2
	blt	a0,zero,.L645
.L646:
	.loc 1 2443 93 is_stmt 1 discriminator 2
	.loc 1 2442 10 discriminator 2
	.loc 1 2442 12 is_stmt 0 discriminator 2
	mv	a1,s1
	addi	a0,sp,88
	call	mbedtls_mpi_cmp_mpi
.LVL1326:
	.loc 1 2442 10 discriminator 2
	bge	a0,zero,.L647
	.loc 1 2445 5 is_stmt 1
	.loc 1 2445 10
	.loc 1 2445 23 is_stmt 0
	addi	a1,sp,88
	mv	a0,s2
	call	mbedtls_mpi_copy
.LVL1327:
	mv	s0,a0
.LVL1328:
	.loc 1 2447 1
	j	.L630
.L635:
	.loc 1 2398 13 is_stmt 1
	.loc 1 2398 18
	.loc 1 2398 31 is_stmt 0
	li	a1,1
	addi	a0,sp,28
	call	mbedtls_mpi_shift_r
.LVL1329:
	mv	s0,a0
.LVL1330:
	.loc 1 2398 20
	bne	a0,zero,.L630
	.loc 1 2398 92 is_stmt 1 discriminator 2
	.loc 1 2400 13 discriminator 2
	.loc 1 2400 23 is_stmt 0 discriminator 2
	lw	a5,48(sp)
	.loc 1 2400 27 discriminator 2
	lw	a5,0(a5)
	andi	a5,a5,1
	.loc 1 2400 15 discriminator 2
	bne	a5,zero,.L632
	.loc 1 2400 47 discriminator 1
	lw	a5,60(sp)
	.loc 1 2400 51 discriminator 1
	lw	a5,0(a5)
	andi	a5,a5,1
	.loc 1 2400 38 discriminator 1
	bne	a5,zero,.L632
.L634:
	.loc 1 2403 103 is_stmt 1
	.loc 1 2406 13
	.loc 1 2406 18
	.loc 1 2406 31 is_stmt 0
	li	a1,1
	addi	a0,sp,40
	call	mbedtls_mpi_shift_r
.LVL1331:
	mv	s0,a0
.LVL1332:
	.loc 1 2406 20
	beq	a0,zero,.L650
.LVL1333:
.L630:
	.loc 1 2445 81 is_stmt 1 discriminator 3
	.loc 1 2449 5 discriminator 3
	addi	a0,sp,16
	call	mbedtls_mpi_free
.LVL1334:
	.loc 1 2449 30 discriminator 3
	addi	a0,sp,28
	call	mbedtls_mpi_free
.LVL1335:
	.loc 1 2449 55 discriminator 3
	addi	a0,sp,40
	call	mbedtls_mpi_free
.LVL1336:
	.loc 1 2449 80 discriminator 3
	addi	a0,sp,52
	call	mbedtls_mpi_free
.LVL1337:
	.loc 1 2450 5 discriminator 3
	addi	a0,sp,4
	call	mbedtls_mpi_free
.LVL1338:
	.loc 1 2450 29 discriminator 3
	addi	a0,sp,64
	call	mbedtls_mpi_free
.LVL1339:
	.loc 1 2450 54 discriminator 3
	addi	a0,sp,76
	call	mbedtls_mpi_free
.LVL1340:
	.loc 1 2451 5 discriminator 3
	addi	a0,sp,88
	call	mbedtls_mpi_free
.LVL1341:
	.loc 1 2451 30 discriminator 3
	addi	a0,sp,100
	call	mbedtls_mpi_free
.LVL1342:
	.loc 1 2453 5 discriminator 3
.L628:
	.loc 1 2454 1 is_stmt 0
	lw	ra,140(sp)
	.cfi_remember_state
	.cfi_restore 1
	mv	a0,s0
	lw	s0,136(sp)
	.cfi_restore 8
	lw	s1,132(sp)
	.cfi_restore 9
.LVL1343:
	lw	s2,128(sp)
	.cfi_restore 18
.LVL1344:
	lw	s3,124(sp)
	.cfi_restore 19
.LVL1345:
	addi	sp,sp,144
	.cfi_def_cfa_offset 0
	jr	ra
.LVL1346:
.L632:
	.cfi_restore_state
	.loc 1 2402 17 is_stmt 1
	.loc 1 2402 22
	.loc 1 2402 35 is_stmt 0
	addi	a1,sp,40
	addi	a2,sp,64
	mv	a0,a1
	call	mbedtls_mpi_add_mpi
.LVL1347:
	mv	s0,a0
.LVL1348:
	.loc 1 2402 24
	bne	a0,zero,.L630
	.loc 1 2402 103 is_stmt 1 discriminator 2
	.loc 1 2403 17 discriminator 2
	.loc 1 2403 22 discriminator 2
	.loc 1 2403 35 is_stmt 0 discriminator 2
	addi	a1,sp,52
	addi	a2,sp,16
	mv	a0,a1
	call	mbedtls_mpi_sub_mpi
.LVL1349:
	mv	s0,a0
.LVL1350:
	.loc 1 2403 24 discriminator 2
	beq	a0,zero,.L634
	j	.L630
.L650:
	.loc 1 2406 92 is_stmt 1 discriminator 2
	.loc 1 2407 13 discriminator 2
	.loc 1 2407 18 discriminator 2
	.loc 1 2407 31 is_stmt 0 discriminator 2
	li	a1,1
	addi	a0,sp,52
	call	mbedtls_mpi_shift_r
.LVL1351:
	j	.L653
.L640:
	.loc 1 2412 13 is_stmt 1
	.loc 1 2412 18
	.loc 1 2412 31 is_stmt 0
	li	a1,1
	addi	a0,sp,76
	call	mbedtls_mpi_shift_r
.LVL1352:
	mv	s0,a0
.LVL1353:
	.loc 1 2412 20
	bne	a0,zero,.L630
	.loc 1 2412 92 is_stmt 1 discriminator 2
	.loc 1 2414 13 discriminator 2
	.loc 1 2414 23 is_stmt 0 discriminator 2
	lw	a5,96(sp)
	.loc 1 2414 27 discriminator 2
	lw	a5,0(a5)
	andi	a5,a5,1
	.loc 1 2414 15 discriminator 2
	bne	a5,zero,.L637
	.loc 1 2414 47 discriminator 1
	lw	a5,108(sp)
	.loc 1 2414 51 discriminator 1
	lw	a5,0(a5)
	andi	a5,a5,1
	.loc 1 2414 38 discriminator 1
	bne	a5,zero,.L637
.L639:
	.loc 1 2417 103 is_stmt 1
	.loc 1 2420 13
	.loc 1 2420 18
	.loc 1 2420 31 is_stmt 0
	li	a1,1
	addi	a0,sp,88
	call	mbedtls_mpi_shift_r
.LVL1354:
	mv	s0,a0
.LVL1355:
	.loc 1 2420 20
	bne	a0,zero,.L630
	.loc 1 2420 92 is_stmt 1 discriminator 2
	.loc 1 2421 13 discriminator 2
	.loc 1 2421 18 discriminator 2
	.loc 1 2421 31 is_stmt 0 discriminator 2
	li	a1,1
	addi	a0,sp,100
	call	mbedtls_mpi_shift_r
.LVL1356:
	mv	s0,a0
.LVL1357:
	.loc 1 2421 20 discriminator 2
	beq	a0,zero,.L636
	j	.L630
.L637:
	.loc 1 2416 17 is_stmt 1
	.loc 1 2416 22
	.loc 1 2416 35 is_stmt 0
	addi	a1,sp,88
	addi	a2,sp,64
	mv	a0,a1
	call	mbedtls_mpi_add_mpi
.LVL1358:
	mv	s0,a0
.LVL1359:
	.loc 1 2416 24
	bne	a0,zero,.L630
	.loc 1 2416 103 is_stmt 1 discriminator 2
	.loc 1 2417 17 discriminator 2
	.loc 1 2417 22 discriminator 2
	.loc 1 2417 35 is_stmt 0 discriminator 2
	addi	a1,sp,100
	addi	a2,sp,16
	mv	a0,a1
	call	mbedtls_mpi_sub_mpi
.LVL1360:
	mv	s0,a0
.LVL1361:
	.loc 1 2417 24 discriminator 2
	beq	a0,zero,.L639
	j	.L630
.L641:
	.loc 1 2432 13 is_stmt 1
	.loc 1 2432 18
	.loc 1 2432 31 is_stmt 0
	addi	a1,sp,76
	addi	a2,sp,28
	mv	a0,a1
	call	mbedtls_mpi_sub_mpi
.LVL1362:
	mv	s0,a0
.LVL1363:
	.loc 1 2432 20
	bne	a0,zero,.L630
	.loc 1 2432 99 is_stmt 1 discriminator 2
	.loc 1 2433 13 discriminator 2
	.loc 1 2433 18 discriminator 2
	.loc 1 2433 31 is_stmt 0 discriminator 2
	addi	a1,sp,88
	addi	a2,sp,40
	mv	a0,a1
	call	mbedtls_mpi_sub_mpi
.LVL1364:
	mv	s0,a0
.LVL1365:
	.loc 1 2433 20 discriminator 2
	bne	a0,zero,.L630
	.loc 1 2433 99 is_stmt 1 discriminator 2
	.loc 1 2434 13 discriminator 2
	.loc 1 2434 18 discriminator 2
	.loc 1 2434 31 is_stmt 0 discriminator 2
	addi	a2,sp,52
	addi	a1,sp,100
	j	.L654
.L645:
	.loc 1 2440 9 is_stmt 1
	.loc 1 2440 14
	.loc 1 2440 27 is_stmt 0
	addi	a1,sp,88
	mv	a2,s1
	mv	a0,a1
	call	mbedtls_mpi_add_mpi
.LVL1366:
	mv	s0,a0
.LVL1367:
	.loc 1 2440 16
	beq	a0,zero,.L643
	j	.L630
.L647:
	.loc 1 2443 9 is_stmt 1
	.loc 1 2443 14
	.loc 1 2443 27 is_stmt 0
	addi	a1,sp,88
	mv	a2,s1
	mv	a0,a1
	call	mbedtls_mpi_sub_mpi
.LVL1368:
	mv	s0,a0
.LVL1369:
	.loc 1 2443 16
	beq	a0,zero,.L646
	j	.L630
	.cfi_endproc
.LFE60:
	.size	mbedtls_mpi_inv_mod, .-mbedtls_mpi_inv_mod
	.section	.text.mbedtls_mpi_is_prime_ext,"ax",@progbits
	.align	1
	.globl	mbedtls_mpi_is_prime_ext
	.type	mbedtls_mpi_is_prime_ext, @function
mbedtls_mpi_is_prime_ext:
.LFB63:
	.loc 1 2615 1 is_stmt 1
	.cfi_startproc
.LVL1370:
	.loc 1 2616 5
	.loc 1 2617 5
	.loc 1 2618 5
	.loc 1 2618 10
	.loc 1 2618 17
	.loc 1 2619 5
	.loc 1 2619 10
	.loc 1 2619 17
	.loc 1 2621 5
	.loc 1 2615 1 is_stmt 0
	addi	sp,sp,-48
	.cfi_def_cfa_offset 48
	sw	s0,40(sp)
	sw	s1,36(sp)
	sw	s2,32(sp)
	sw	s3,28(sp)
	sw	ra,44(sp)
	.cfi_offset 8, -8
	.cfi_offset 9, -12
	.cfi_offset 18, -16
	.cfi_offset 19, -20
	.cfi_offset 1, -4
	.loc 1 2622 10
	lw	a5,4(a0)
	.loc 1 2615 1
	mv	s0,a1
	.loc 1 2621 10
	li	s3,1
	.loc 1 2622 10
	sw	a5,8(sp)
	.loc 1 2623 10
	lw	a5,8(a0)
	.loc 1 2625 9
	li	a1,0
.LVL1371:
	addi	a0,sp,4
.LVL1372:
	.loc 1 2615 1
	mv	s1,a2
	mv	s2,a3
	.loc 1 2621 10
	sw	s3,4(sp)
	.loc 1 2622 5 is_stmt 1
	.loc 1 2623 5
	.loc 1 2623 10 is_stmt 0
	sw	a5,12(sp)
	.loc 1 2625 5 is_stmt 1
	.loc 1 2625 9 is_stmt 0
	call	mbedtls_mpi_cmp_int
.LVL1373:
	.loc 1 2625 7
	beq	a0,zero,.L659
	.loc 1 2626 9 discriminator 1
	li	a1,1
	addi	a0,sp,4
	call	mbedtls_mpi_cmp_int
.LVL1374:
	mv	a5,a0
	.loc 1 2627 15 discriminator 1
	li	a0,-14
	.loc 1 2625 44 discriminator 1
	beq	a5,zero,.L655
	.loc 1 2629 5 is_stmt 1
	.loc 1 2629 9 is_stmt 0
	li	a1,2
	addi	a0,sp,4
	call	mbedtls_mpi_cmp_int
.LVL1375:
	.loc 1 2629 7
	beq	a0,zero,.L657
	.loc 1 2632 5 is_stmt 1
	.loc 1 2632 17 is_stmt 0
	addi	a0,sp,4
	call	mpi_check_small_factors
.LVL1376:
	.loc 1 2632 7
	beq	a0,zero,.L658
	.loc 1 2634 9 is_stmt 1
	.loc 1 2634 11 is_stmt 0
	bne	a0,s3,.L655
.LVL1377:
.L657:
	.loc 1 2635 19
	li	a0,0
.L655:
	.loc 1 2641 1
	lw	ra,44(sp)
	.cfi_remember_state
	.cfi_restore 1
	lw	s0,40(sp)
	.cfi_restore 8
.LVL1378:
	lw	s1,36(sp)
	.cfi_restore 9
.LVL1379:
	lw	s2,32(sp)
	.cfi_restore 18
.LVL1380:
	lw	s3,28(sp)
	.cfi_restore 19
	addi	sp,sp,48
	.cfi_def_cfa_offset 0
	jr	ra
.LVL1381:
.L658:
	.cfi_restore_state
	.loc 1 2640 5 is_stmt 1
	.loc 1 2640 13 is_stmt 0
	mv	a3,s2
	mv	a2,s1
	mv	a1,s0
	addi	a0,sp,4
.LVL1382:
	call	mpi_miller_rabin
.LVL1383:
	j	.L655
.L659:
	.loc 1 2627 15
	li	a0,-14
	j	.L655
	.cfi_endproc
.LFE63:
	.size	mbedtls_mpi_is_prime_ext, .-mbedtls_mpi_is_prime_ext
	.section	.text.mbedtls_mpi_is_prime,"ax",@progbits
	.align	1
	.globl	mbedtls_mpi_is_prime
	.type	mbedtls_mpi_is_prime, @function
mbedtls_mpi_is_prime:
.LFB64:
	.loc 1 2650 1 is_stmt 1
	.cfi_startproc
.LVL1384:
	.loc 1 2651 5
	.loc 1 2651 10
	.loc 1 2651 17
	.loc 1 2652 5
	.loc 1 2652 10
	.loc 1 2652 17
	.loc 1 2659 5
	.loc 1 2650 1 is_stmt 0
	mv	a3,a2
	.loc 1 2659 13
	mv	a2,a1
.LVL1385:
	li	a1,40
.LVL1386:
	tail	mbedtls_mpi_is_prime_ext
.LVL1387:
	.cfi_endproc
.LFE64:
	.size	mbedtls_mpi_is_prime, .-mbedtls_mpi_is_prime
	.section	.text.mbedtls_mpi_gen_prime,"ax",@progbits
	.align	1
	.globl	mbedtls_mpi_gen_prime
	.type	mbedtls_mpi_gen_prime, @function
mbedtls_mpi_gen_prime:
.LFB65:
	.loc 1 2673 1 is_stmt 1
	.cfi_startproc
.LVL1388:
	.loc 1 2681 5
	.loc 1 2682 5
	.loc 1 2683 5
	.loc 1 2684 5
	.loc 1 2685 5
	.loc 1 2687 5
	.loc 1 2687 10
	.loc 1 2687 17
	.loc 1 2688 5
	.loc 1 2688 10
	.loc 1 2688 17
	.loc 1 2690 5
	.loc 1 2673 1 is_stmt 0
	addi	sp,sp,-96
	.cfi_def_cfa_offset 96
	sw	s4,72(sp)
	.cfi_offset 20, -24
	mv	s4,a4
	.loc 1 2690 7
	li	a4,8192
.LVL1389:
	.loc 1 2673 1
	sw	s0,88(sp)
	sw	s3,76(sp)
	sw	ra,92(sp)
	.cfi_offset 8, -8
	.cfi_offset 19, -20
	.cfi_offset 1, -4
	mv	s3,a3
	sw	s1,84(sp)
	sw	s2,80(sp)
	sw	s5,68(sp)
	sw	s6,64(sp)
	sw	s7,60(sp)
	sw	s8,56(sp)
	sw	s9,52(sp)
	sw	s10,48(sp)
	sw	s11,44(sp)
	.cfi_offset 9, -12
	.cfi_offset 18, -16
	.cfi_offset 21, -28
	.cfi_offset 22, -32
	.cfi_offset 23, -36
	.cfi_offset 24, -40
	.cfi_offset 25, -44
	.cfi_offset 26, -48
	.cfi_offset 27, -52
	.loc 1 2690 19
	addi	a3,a1,-3
.LVL1390:
	.loc 1 2690 7
	addi	a4,a4,-3
	.loc 1 2691 15
	li	s0,-4
	.loc 1 2690 7
	bgtu	a3,a4,.L666
.LBB299:
.LBB300:
	.loc 1 118 10
	li	a4,1
.LBE300:
.LBE299:
	.loc 1 2695 67
	andi	s5,a1,31
.LBB304:
.LBB301:
	.loc 1 118 10
	sw	a4,20(sp)
.LBE301:
.LBE304:
	.loc 1 2695 103
	snez	s5,s5
	.loc 1 2695 19
	srli	a4,a1,5
	.loc 1 2695 7
	add	s5,s5,a4
.LBB305:
.LBB302:
	.loc 1 119 10
	sw	zero,24(sp)
	.loc 1 120 10
	sw	zero,28(sp)
.LBE302:
.LBE305:
	.loc 1 2697 17
	andi	a4,a2,2
	mv	s2,a0
	mv	s6,a1
	.loc 1 2693 5 is_stmt 1
.LVL1391:
.LBB306:
.LBB303:
	.loc 1 116 5
	.loc 1 116 10
	.loc 1 116 17
	.loc 1 118 5
	.loc 1 119 5
	.loc 1 120 5
.LBE303:
.LBE306:
	.loc 1 2695 5
	.loc 1 2697 5
	.loc 1 2697 7 is_stmt 0
	bne	a4,zero,.L668
	.loc 1 2702 9 is_stmt 1
	.loc 1 2702 42 is_stmt 0
	li	a4,1299
	li	s1,2
	bgtu	a1,a4,.L669
	.loc 1 2702 65 discriminator 1
	li	a4,849
	li	s1,3
	bgtu	a1,a4,.L669
	.loc 1 2703 41
	li	a4,649
	li	s1,4
	bgtu	a1,a4,.L669
	.loc 1 2703 64 discriminator 1
	li	a4,349
	li	s1,8
	bgtu	a1,a4,.L669
	.loc 1 2704 42
	li	a4,249
	li	s1,12
	bgtu	a1,a4,.L669
	.loc 1 2704 66 discriminator 1
	li	a4,149
	li	s1,18
	bgtu	a1,a4,.L669
	.loc 1 2704 66
	li	s1,27
.L669:
	.loc 1 2720 27
	slli	s8,s5,2
	.loc 1 2722 11
	li	s7,-1257967616
	.loc 1 2724 11
	slli	s5,s5,5
	.loc 1 2728 21
	andi	a5,a2,1
	.loc 1 2722 17
	addi	s10,s8,-4
	.loc 1 2725 43
	sub	s11,s5,s6
	.loc 1 2722 11
	addi	s7,s7,819
	.loc 1 2728 21
	sw	a5,12(sp)
	.loc 1 2732 15
	li	s9,-14
.LVL1392:
.L671:
	.loc 1 2718 5 is_stmt 1
	.loc 1 2720 9
	.loc 1 2720 14
	.loc 1 2720 27 is_stmt 0
	mv	a3,s4
	mv	a2,s3
	mv	a1,s8
	mv	a0,s2
	call	mbedtls_mpi_fill_random
.LVL1393:
	mv	s0,a0
.LVL1394:
	.loc 1 2720 16
	bne	a0,zero,.L670
	.loc 1 2720 133 is_stmt 1 discriminator 2
	.loc 1 2722 9 discriminator 2
	.loc 1 2722 17 is_stmt 0 discriminator 2
	lw	a4,8(s2)
	add	a4,a4,s10
	.loc 1 2722 11 discriminator 2
	lw	a4,0(a4)
	bleu	a4,s7,.L671
	.loc 1 2724 9 is_stmt 1
.LVL1395:
	.loc 1 2725 9
	.loc 1 2725 11 is_stmt 0
	bltu	s6,s5,.L672
.L675:
	.loc 1 2725 110 is_stmt 1
	.loc 1 2726 9
	.loc 1 2726 10 is_stmt 0
	lw	a3,8(s2)
	.loc 1 2728 11
	lw	a5,12(sp)
	.loc 1 2726 17
	lw	a4,0(a3)
	ori	a4,a4,1
	sw	a4,0(a3)
	.loc 1 2728 9 is_stmt 1
	.loc 1 2728 11 is_stmt 0
	beq	a5,zero,.L673
	.loc 1 2743 13 is_stmt 1
	.loc 1 2743 14 is_stmt 0
	lw	a4,8(s2)
.LBB307:
.LBB308:
	li	a2,3
	mv	a1,s2
.LBE308:
.LBE307:
	.loc 1 2743 21
	lw	a5,0(a4)
.LBB311:
.LBB309:
	addi	a0,sp,16
.LBE309:
.LBE311:
	ori	a5,a5,2
	sw	a5,0(a4)
	.loc 1 2745 13 is_stmt 1
	.loc 1 2745 18
.LVL1396:
.LBB312:
.LBB310:
	.loc 1 1887 5
	.loc 1 1888 5
	.loc 1 1889 5
	.loc 1 1889 10
	.loc 1 1889 17
	.loc 1 1890 5
	.loc 1 1890 10
	.loc 1 1890 17
	.loc 1 1892 5
	.loc 1 1895 5
	.loc 1 1901 5
	.loc 1 1907 5
	call	mbedtls_mpi_mod_int.part.0
.LVL1397:
	mv	s0,a0
.LVL1398:
.LBE310:
.LBE312:
	.loc 1 2745 20 is_stmt 0
	bne	a0,zero,.L670
	.loc 1 2745 94 is_stmt 1 discriminator 2
	.loc 1 2746 13 discriminator 2
	.loc 1 2746 19 is_stmt 0 discriminator 2
	lw	a5,16(sp)
	.loc 1 2746 15 discriminator 2
	bne	a5,zero,.L677
	.loc 1 2747 17 is_stmt 1
	.loc 1 2747 22
	.loc 1 2747 35 is_stmt 0
	li	a2,8
.L706:
	mv	a1,s2
	mv	a0,s2
	call	mbedtls_mpi_add_int
.LVL1399:
	mv	s0,a0
.LVL1400:
	.loc 1 2747 24
	bne	a0,zero,.L670
.L679:
	.loc 1 2749 97 is_stmt 1
	.loc 1 2752 13
	.loc 1 2752 18
	.loc 1 2752 31 is_stmt 0
	mv	a1,s2
	addi	a0,sp,20
	call	mbedtls_mpi_copy
.LVL1401:
	mv	s0,a0
.LVL1402:
	.loc 1 2752 20
	bne	a0,zero,.L670
	.loc 1 2752 88 is_stmt 1 discriminator 2
	.loc 1 2753 13 discriminator 2
	.loc 1 2753 18 discriminator 2
	.loc 1 2753 31 is_stmt 0 discriminator 2
	li	a1,1
	addi	a0,sp,20
	call	mbedtls_mpi_shift_r
.LVL1403:
	mv	s0,a0
.LVL1404:
	.loc 1 2753 20 discriminator 2
	bne	a0,zero,.L670
	.loc 1 2769 19
	li	s5,-14
.L681:
	.loc 1 2753 91 is_stmt 1 discriminator 2
	.loc 1 2755 13 discriminator 2
	.loc 1 2761 17 discriminator 2
	.loc 1 2761 29 is_stmt 0 discriminator 2
	mv	a0,s2
	call	mpi_check_small_factors
.LVL1405:
	mv	s0,a0
.LVL1406:
	.loc 1 2761 19 discriminator 2
	bne	a0,zero,.L680
	.loc 1 2762 29 discriminator 1
	addi	a0,sp,20
	call	mpi_check_small_factors
.LVL1407:
	mv	s0,a0
.LVL1408:
	.loc 1 2761 65 discriminator 1
	bne	a0,zero,.L680
	.loc 1 2763 29
	mv	a3,s4
	mv	a2,s3
	mv	a1,s1
	mv	a0,s2
	call	mpi_miller_rabin
.LVL1409:
	mv	s0,a0
.LVL1410:
	.loc 1 2762 66
	bne	a0,zero,.L680
	.loc 1 2765 29
	mv	a3,s4
	mv	a2,s3
	mv	a1,s1
	addi	a0,sp,20
	call	mpi_miller_rabin
.LVL1411:
	mv	s0,a0
.LVL1412:
	.loc 1 2764 74
	beq	a0,zero,.L670
.L680:
	.loc 1 2769 17 is_stmt 1
	.loc 1 2769 19 is_stmt 0
	bne	s0,s5,.L670
	.loc 1 2777 17 is_stmt 1
	.loc 1 2777 22
	.loc 1 2777 35 is_stmt 0
	li	a2,12
	mv	a1,s2
	mv	a0,s2
	call	mbedtls_mpi_add_int
.LVL1413:
	mv	s0,a0
.LVL1414:
	.loc 1 2777 24
	bne	a0,zero,.L670
	.loc 1 2777 98 is_stmt 1 discriminator 2
	.loc 1 2778 17 discriminator 2
	.loc 1 2778 22 discriminator 2
	.loc 1 2778 35 is_stmt 0 discriminator 2
	addi	a1,sp,20
	li	a2,6
	mv	a0,a1
	call	mbedtls_mpi_add_int
.LVL1415:
	mv	s0,a0
.LVL1416:
	.loc 1 2778 24 discriminator 2
	beq	a0,zero,.L681
	j	.L670
.LVL1417:
.L668:
	.loc 1 2712 9 is_stmt 1
	.loc 1 2712 42 is_stmt 0
	li	a4,1449
	.loc 1 2703 41
	li	s1,4
	.loc 1 2712 42
	bgtu	a1,a4,.L669
	.loc 1 2712 66 discriminator 1
	li	a4,1149
	li	s1,5
	bgtu	a1,a4,.L669
	.loc 1 2713 42
	li	a4,999
	li	s1,6
	bgtu	a1,a4,.L669
	.loc 1 2713 65 discriminator 1
	li	a4,849
	li	s1,7
	bgtu	a1,a4,.L669
	.loc 1 2714 41
	li	a4,749
	.loc 1 2703 64
	li	s1,8
	.loc 1 2714 41
	bgtu	a1,a4,.L669
	.loc 1 2714 65 discriminator 1
	li	a4,499
	li	s1,13
	bgtu	a1,a4,.L669
	.loc 1 2715 42
	li	a4,249
	li	s1,28
	bgtu	a1,a4,.L669
	.loc 1 2715 66 discriminator 1
	li	a4,149
	li	s1,40
	bgtu	a1,a4,.L669
	.loc 1 2715 66
	li	s1,51
	j	.L669
.LVL1418:
.L672:
	.loc 1 2725 25 is_stmt 1 discriminator 1
	.loc 1 2725 30 discriminator 1
	.loc 1 2725 43 is_stmt 0 discriminator 1
	mv	a1,s11
	mv	a0,s2
	call	mbedtls_mpi_shift_r
.LVL1419:
	mv	s0,a0
.LVL1420:
	.loc 1 2725 32 discriminator 1
	beq	a0,zero,.L675
.L670:
	.loc 1 2785 5 is_stmt 1
	addi	a0,sp,20
	call	mbedtls_mpi_free
.LVL1421:
	.loc 1 2787 5
.L666:
	.loc 1 2788 1 is_stmt 0
	lw	ra,92(sp)
	.cfi_remember_state
	.cfi_restore 1
	mv	a0,s0
	lw	s0,88(sp)
	.cfi_restore 8
	lw	s1,84(sp)
	.cfi_restore 9
	lw	s2,80(sp)
	.cfi_restore 18
	lw	s3,76(sp)
	.cfi_restore 19
.LVL1422:
	lw	s4,72(sp)
	.cfi_restore 20
.LVL1423:
	lw	s5,68(sp)
	.cfi_restore 21
	lw	s6,64(sp)
	.cfi_restore 22
	lw	s7,60(sp)
	.cfi_restore 23
	lw	s8,56(sp)
	.cfi_restore 24
	lw	s9,52(sp)
	.cfi_restore 25
	lw	s10,48(sp)
	.cfi_restore 26
	lw	s11,44(sp)
	.cfi_restore 27
	addi	sp,sp,96
	.cfi_def_cfa_offset 0
	jr	ra
.LVL1424:
.L673:
	.cfi_restore_state
	.loc 1 2730 13 is_stmt 1
	.loc 1 2730 19 is_stmt 0
	mv	a3,s4
	mv	a2,s3
	mv	a1,s1
	mv	a0,s2
	call	mbedtls_mpi_is_prime_ext
.LVL1425:
	mv	s0,a0
.LVL1426:
	.loc 1 2732 13 is_stmt 1
	.loc 1 2732 15 is_stmt 0
	beq	a0,s9,.L671
	j	.L670
.L677:
	.loc 1 2748 18 is_stmt 1
	.loc 1 2748 20 is_stmt 0
	li	a4,1
	.loc 1 2749 35
	li	a2,4
	.loc 1 2748 20
	bne	a5,a4,.L679
	j	.L706
	.cfi_endproc
.LFE65:
	.size	mbedtls_mpi_gen_prime, .-mbedtls_mpi_gen_prime
	.section	.rodata.small_prime,"a"
	.align	2
	.set	.LANCHOR0,. + 0
	.type	small_prime, @object
	.size	small_prime, 672
small_prime:
	.word	3
	.word	5
	.word	7
	.word	11
	.word	13
	.word	17
	.word	19
	.word	23
	.word	29
	.word	31
	.word	37
	.word	41
	.word	43
	.word	47
	.word	53
	.word	59
	.word	61
	.word	67
	.word	71
	.word	73
	.word	79
	.word	83
	.word	89
	.word	97
	.word	101
	.word	103
	.word	107
	.word	109
	.word	113
	.word	127
	.word	131
	.word	137
	.word	139
	.word	149
	.word	151
	.word	157
	.word	163
	.word	167
	.word	173
	.word	179
	.word	181
	.word	191
	.word	193
	.word	197
	.word	199
	.word	211
	.word	223
	.word	227
	.word	229
	.word	233
	.word	239
	.word	241
	.word	251
	.word	257
	.word	263
	.word	269
	.word	271
	.word	277
	.word	281
	.word	283
	.word	293
	.word	307
	.word	311
	.word	313
	.word	317
	.word	331
	.word	337
	.word	347
	.word	349
	.word	353
	.word	359
	.word	367
	.word	373
	.word	379
	.word	383
	.word	389
	.word	397
	.word	401
	.word	409
	.word	419
	.word	421
	.word	431
	.word	433
	.word	439
	.word	443
	.word	449
	.word	457
	.word	461
	.word	463
	.word	467
	.word	479
	.word	487
	.word	491
	.word	499
	.word	503
	.word	509
	.word	521
	.word	523
	.word	541
	.word	547
	.word	557
	.word	563
	.word	569
	.word	571
	.word	577
	.word	587
	.word	593
	.word	599
	.word	601
	.word	607
	.word	613
	.word	617
	.word	619
	.word	631
	.word	641
	.word	643
	.word	647
	.word	653
	.word	659
	.word	661
	.word	673
	.word	677
	.word	683
	.word	691
	.word	701
	.word	709
	.word	719
	.word	727
	.word	733
	.word	739
	.word	743
	.word	751
	.word	757
	.word	761
	.word	769
	.word	773
	.word	787
	.word	797
	.word	809
	.word	811
	.word	821
	.word	823
	.word	827
	.word	829
	.word	839
	.word	853
	.word	857
	.word	859
	.word	863
	.word	877
	.word	881
	.word	883
	.word	887
	.word	907
	.word	911
	.word	919
	.word	929
	.word	937
	.word	941
	.word	947
	.word	953
	.word	967
	.word	971
	.word	977
	.word	983
	.word	991
	.word	997
	.word	-103
	.text
.Letext0:
	.file 2 "/mnt/d/GitHub/bl_iot_sdk_for_aithinker/toolchain/riscv/Linux/lib/gcc/riscv64-unknown-elf/10.2.0/include/stddef.h"
	.file 3 "/mnt/d/GitHub/bl_iot_sdk_for_aithinker/toolchain/riscv/Linux/lib/gcc/riscv64-unknown-elf/10.2.0/include/stdint-gcc.h"
	.file 4 "/mnt/d/GitHub/bl_iot_sdk_for_aithinker/toolchain/riscv/Linux/riscv64-unknown-elf/include/sys/_types.h"
	.file 5 "/mnt/d/GitHub/bl_iot_sdk_for_aithinker/toolchain/riscv/Linux/riscv64-unknown-elf/include/sys/reent.h"
	.file 6 "/mnt/d/GitHub/bl_iot_sdk_for_aithinker/toolchain/riscv/Linux/riscv64-unknown-elf/include/sys/lock.h"
	.file 7 "/mnt/d/GitHub/bl_iot_sdk_for_aithinker/toolchain/riscv/Linux/riscv64-unknown-elf/include/stdio.h"
	.file 8 "/mnt/d/GitHub/bl_iot_sdk_for_aithinker/components/security/mbedtls_lts/mbedtls/include/mbedtls/bignum.h"
	.file 9 "/mnt/d/GitHub/bl_iot_sdk_for_aithinker/toolchain/riscv/Linux/riscv64-unknown-elf/include/string.h"
	.file 10 "/mnt/d/GitHub/bl_iot_sdk_for_aithinker/components/security/mbedtls_lts/mbedtls/include/mbedtls/platform_util.h"
	.file 11 "/mnt/d/GitHub/bl_iot_sdk_for_aithinker/components/security/mbedtls_lts/mbedtls/include/mbedtls/platform.h"