	.file	"constant_time.c"
	.option nopic
	.attribute arch, "rv32i2p0_m2p0_f2p0_c2p0"
	.attribute unaligned_access, 0
	.attribute stack_align, 16
	.text
.Ltext0:
	.cfi_sections	.debug_frame
	.section	.text.mbedtls_ct_uchar_mask_of_range,"ax",@progbits
	.align	1
	.type	mbedtls_ct_uchar_mask_of_range, @function
mbedtls_ct_uchar_mask_of_range:
.LFB39:
	.file 1 "/mnt/d/GitHub/bl_iot_sdk_for_aithinker/components/security/mbedtls_lts/mbedtls/library/constant_time.c"
	.loc 1 167 1
	.cfi_startproc
.LVL0:
	.loc 1 169 5
	.loc 1 171 5
	.loc 1 172 5
	.loc 1 169 40 is_stmt 0
	sub	a5,a2,a0
	.loc 1 171 44
	sub	a0,a1,a2
.LVL1:
	.loc 1 171 14
	or	a0,a0,a5
	.loc 1 172 25
	srli	a0,a0,8
	.loc 1 172 39
	not	a0,a0
	.loc 1 173 1
	andi	a0,a0,0xff
	ret
	.cfi_endproc
.LFE39:
	.size	mbedtls_ct_uchar_mask_of_range, .-mbedtls_ct_uchar_mask_of_range
	.section	.text.mbedtls_ct_memcmp,"ax",@progbits
	.align	1
	.globl	mbedtls_ct_memcmp
	.type	mbedtls_ct_memcmp, @function
mbedtls_ct_memcmp:
.LFB33:
	.loc 1 52 1 is_stmt 1
	.cfi_startproc
.LVL2:
	.loc 1 53 5
	.loc 1 54 5
	.loc 1 55 5
	.loc 1 56 5
	.loc 1 52 1 is_stmt 0
	addi	sp,sp,-16
	.cfi_def_cfa_offset 16
	.loc 1 56 28
	sb	zero,15(sp)
	.loc 1 58 5 is_stmt 1
.LVL3:
	.loc 1 58 12 is_stmt 0
	li	a4,0
.LVL4:
.L3:
	.loc 1 58 17 is_stmt 1 discriminator 1
	.loc 1 58 5 is_stmt 0 discriminator 1
	bne	a4,a2,.L4
	.loc 1 67 5 is_stmt 1
	.loc 1 67 13 is_stmt 0
	lbu	a0,15(sp)
.LVL5:
	.loc 1 68 1
	addi	sp,sp,16
	.cfi_remember_state
	.cfi_def_cfa_offset 0
	andi	a0,a0,0xff
	jr	ra
.LVL6:
.L4:
	.cfi_restore_state
.LBB39:
	.loc 1 63 9 is_stmt 1 discriminator 3
	add	a5,a0,a4
	.loc 1 63 23 is_stmt 0 discriminator 3
	lbu	a3,0(a5)
.LVL7:
	add	a5,a1,a4
	.loc 1 63 33 discriminator 3
	lbu	a5,0(a5)
.LBE39:
	.loc 1 58 25 discriminator 3
	addi	a4,a4,1
.LVL8:
.LBB40:
	.loc 1 63 33 discriminator 3
	xor	a5,a5,a3
.LVL9:
	.loc 1 64 9 is_stmt 1 discriminator 3
	.loc 1 64 14 is_stmt 0 discriminator 3
	lbu	a3,15(sp)
.LVL10:
	or	a5,a5,a3
	andi	a5,a5,0xff
	sb	a5,15(sp)
.LBE40:
	.loc 1 58 24 is_stmt 1 discriminator 3
.LVL11:
	j	.L3
	.cfi_endproc
.LFE33:
	.size	mbedtls_ct_memcmp, .-mbedtls_ct_memcmp
	.section	.text.mbedtls_ct_uint_mask,"ax",@progbits
	.align	1
	.globl	mbedtls_ct_uint_mask
	.type	mbedtls_ct_uint_mask, @function
mbedtls_ct_uint_mask:
.LFB34:
	.loc 1 71 1
	.cfi_startproc
.LVL12:
	.loc 1 78 5
	.loc 1 78 27 is_stmt 0
	neg	a5,a0
	.loc 1 78 25
	or	a0,a5,a0
.LVL13:
	.loc 1 82 1
	srai	a0,a0,31
	ret
	.cfi_endproc
.LFE34:
	.size	mbedtls_ct_uint_mask, .-mbedtls_ct_uint_mask
	.section	.text.mbedtls_ct_size_mask,"ax",@progbits
	.align	1
	.globl	mbedtls_ct_size_mask
	.type	mbedtls_ct_size_mask, @function
mbedtls_ct_size_mask:
.LFB57:
	.cfi_startproc
	neg	a5,a0
	or	a0,a5,a0
	srai	a0,a0,31
	ret
	.cfi_endproc
.LFE57:
	.size	mbedtls_ct_size_mask, .-mbedtls_ct_size_mask
	.section	.text.mbedtls_ct_mpi_uint_mask,"ax",@progbits
	.align	1
	.globl	mbedtls_ct_mpi_uint_mask
	.type	mbedtls_ct_mpi_uint_mask, @function
mbedtls_ct_mpi_uint_mask:
.LFB59:
	.cfi_startproc
	neg	a5,a0
	or	a0,a5,a0
	srai	a0,a0,31
	ret
	.cfi_endproc
.LFE59:
	.size	mbedtls_ct_mpi_uint_mask, .-mbedtls_ct_mpi_uint_mask
	.section	.text.mbedtls_ct_size_mask_ge,"ax",@progbits
	.align	1
	.globl	mbedtls_ct_size_mask_ge
	.type	mbedtls_ct_size_mask_ge, @function
mbedtls_ct_size_mask_ge:
.LFB38:
	.loc 1 151 1 is_stmt 1
	.cfi_startproc
.LVL14:
	.loc 1 152 5
.LBB45:
.LBB46:
	.loc 1 138 5
	.loc 1 141 5
	.loc 1 138 18 is_stmt 0
	sub	a0,a0,a1
.LVL15:
	.loc 1 144 5 is_stmt 1
.LBB47:
.LBB48:
	.loc 1 94 5
.LBE48:
.LBE47:
	.loc 1 146 5
.LBB50:
.LBB49:
	.loc 1 94 13 is_stmt 0
	srai	a0,a0,31
.LVL16:
.LBE49:
.LBE50:
.LBE46:
.LBE45:
	.loc 1 153 1
	not	a0,a0
	ret
	.cfi_endproc
.LFE38:
	.size	mbedtls_ct_size_mask_ge, .-mbedtls_ct_size_mask_ge
	.section	.text.mbedtls_ct_size_bool_eq,"ax",@progbits
	.align	1
	.globl	mbedtls_ct_size_bool_eq
	.type	mbedtls_ct_size_bool_eq, @function
mbedtls_ct_size_bool_eq:
.LFB40:
	.loc 1 179 1 is_stmt 1
	.cfi_startproc
.LVL17:
	.loc 1 181 5
	.loc 1 181 18 is_stmt 0
	xor	a1,a0,a1
.LVL18:
	.loc 1 191 5 is_stmt 1
	.loc 1 198 5
	.loc 1 200 5
	.loc 1 191 47 is_stmt 0
	neg	a0,a1
.LVL19:
	.loc 1 191 18
	or	a0,a0,a1
.LVL20:
	.loc 1 198 20
	srli	a0,a0,31
.LVL21:
	.loc 1 201 1
	xori	a0,a0,1
.LVL22:
	ret
	.cfi_endproc
.LFE40:
	.size	mbedtls_ct_size_bool_eq, .-mbedtls_ct_size_bool_eq
	.section	.text.mbedtls_ct_mpi_uint_lt,"ax",@progbits
	.align	1
	.globl	mbedtls_ct_mpi_uint_lt
	.type	mbedtls_ct_mpi_uint_lt, @function
mbedtls_ct_mpi_uint_lt:
.LFB42:
	.loc 1 229 1 is_stmt 1
	.cfi_startproc
.LVL23:
	.loc 1 230 5
	.loc 1 231 5
	.loc 1 236 5
	.loc 1 241 5
	.loc 1 241 15 is_stmt 0
	sub	a5,a0,a1
.LVL24:
	.loc 1 247 5 is_stmt 1
	.loc 1 236 10 is_stmt 0
	xor	a0,a0,a1
.LVL25:
	.loc 1 247 9
	xor	a1,a5,a1
.LVL26:
	and	a0,a0,a1
.LVL27:
	xor	a0,a0,a5
.LVL28:
	.loc 1 250 5 is_stmt 1
	.loc 1 252 5
	.loc 1 253 1 is_stmt 0
	srli	a0,a0,31
.LVL29:
	ret
	.cfi_endproc
.LFE42:
	.size	mbedtls_ct_mpi_uint_lt, .-mbedtls_ct_mpi_uint_lt
	.section	.text.mbedtls_ct_uint_if,"ax",@progbits
	.align	1
	.globl	mbedtls_ct_uint_if
	.type	mbedtls_ct_uint_if, @function
mbedtls_ct_uint_if:
.LFB43:
	.loc 1 260 1 is_stmt 1
	.cfi_startproc
.LVL30:
	.loc 1 261 5
.LBB51:
.LBB52:
	.loc 1 78 5
.LBE52:
.LBE51:
	.loc 1 262 5
.LBB55:
.LBB53:
	.loc 1 78 27 is_stmt 0
	neg	a5,a0
	.loc 1 78 25
	or	a5,a5,a0
.LBE53:
.LBE55:
	.loc 1 262 28
	xor	a1,a1,a2
.LVL31:
.LBB56:
.LBB54:
	.loc 1 78 13
	srai	a5,a5,31
.LVL32:
.LBE54:
.LBE56:
	.loc 1 262 28
	and	a5,a5,a1
.LVL33:
	.loc 1 263 1
	xor	a0,a5,a2
.LVL34:
	ret
	.cfi_endproc
.LFE43:
	.size	mbedtls_ct_uint_if, .-mbedtls_ct_uint_if
	.section	.text.mbedtls_ct_mpi_uint_cond_assign,"ax",@progbits
	.align	1
	.globl	mbedtls_ct_mpi_uint_cond_assign
	.type	mbedtls_ct_mpi_uint_cond_assign, @function
mbedtls_ct_mpi_uint_cond_assign:
.LFB45:
	.loc 1 305 1 is_stmt 1
	.cfi_startproc
.LVL35:
	.loc 1 306 5
	.loc 1 316 5
	.loc 1 316 35 is_stmt 0
	neg	t1,a3
.LVL36:
	.loc 1 322 5 is_stmt 1
	slli	a0,a0,2
.LVL37:
	li	a5,0
	.loc 1 323 51 is_stmt 0
	addi	a3,a3,-1
.LVL38:
.L14:
	.loc 1 322 17 is_stmt 1 discriminator 1
	.loc 1 322 5 is_stmt 0 discriminator 1
	bne	a5,a0,.L15
	.loc 1 324 1
	ret
.L15:
	.loc 1 323 9 is_stmt 1 discriminator 3
	add	a7,a1,a5
	.loc 1 323 24 is_stmt 0 discriminator 3
	add	a4,a2,a5
	.loc 1 323 28 discriminator 3
	lw	a4,0(a4)
	.loc 1 323 49 discriminator 3
	lw	a6,0(a7)
	addi	a5,a5,4
	.loc 1 323 28 discriminator 3
	and	a4,t1,a4
	.loc 1 323 49 discriminator 3
	and	a6,a3,a6
	.loc 1 323 37 discriminator 3
	or	a4,a4,a6
	.loc 1 323 17 discriminator 3
	sw	a4,0(a7)
	.loc 1 322 24 is_stmt 1 discriminator 3
	j	.L14
	.cfi_endproc
.LFE45:
	.size	mbedtls_ct_mpi_uint_cond_assign, .-mbedtls_ct_mpi_uint_cond_assign
	.section	.text.mbedtls_ct_base64_enc_char,"ax",@progbits
	.align	1
	.globl	mbedtls_ct_base64_enc_char
	.type	mbedtls_ct_base64_enc_char, @function
mbedtls_ct_base64_enc_char:
.LFB46:
	.loc 1 331 1
	.cfi_startproc
.LVL39:
	.loc 1 332 5
	.loc 1 336 5
	.loc 1 331 1 is_stmt 0
	addi	sp,sp,-32
	.cfi_def_cfa_offset 32
	sw	s0,24(sp)
	.loc 1 336 14
	mv	a2,a0
	.cfi_offset 8, -8
	.loc 1 331 1
	mv	s0,a0
	.loc 1 336 14
	li	a1,25
	li	a0,0
.LVL40:
	.loc 1 331 1
	sw	ra,28(sp)
	sw	s1,20(sp)
	sw	s2,16(sp)
	sw	s3,12(sp)
	sw	s4,8(sp)
	.cfi_offset 1, -4
	.cfi_offset 9, -12
	.cfi_offset 18, -16
	.cfi_offset 19, -20
	.cfi_offset 20, -24
	.loc 1 336 14
	call	mbedtls_ct_uchar_mask_of_range
.LVL41:
	mv	s4,a0
.LVL42:
	.loc 1 337 5 is_stmt 1
	.loc 1 337 14 is_stmt 0
	mv	a2,s0
	li	a1,51
	li	a0,26
	call	mbedtls_ct_uchar_mask_of_range
.LVL43:
	mv	s3,a0
.LVL44:
	.loc 1 338 5 is_stmt 1
	.loc 1 338 14 is_stmt 0
	mv	a2,s0
	li	a1,61
	li	a0,52
	call	mbedtls_ct_uchar_mask_of_range
.LVL45:
	mv	s2,a0
.LVL46:
	.loc 1 339 5 is_stmt 1
	.loc 1 339 14 is_stmt 0
	mv	a2,s0
	li	a1,62
	li	a0,62
	call	mbedtls_ct_uchar_mask_of_range
.LVL47:
	mv	s1,a0
.LVL48:
	.loc 1 340 5 is_stmt 1
	.loc 1 340 14 is_stmt 0
	mv	a2,s0
	li	a1,63
	li	a0,63
	call	mbedtls_ct_uchar_mask_of_range
.LVL49:
	.loc 1 341 5 is_stmt 1
	.loc 1 336 69 is_stmt 0
	addi	a5,s0,65
	.loc 1 340 11
	andi	a0,a0,47
.LVL50:
	.loc 1 339 11
	andi	s1,s1,43
	.loc 1 340 11
	or	s1,s1,a0
	.loc 1 336 61
	and	a0,a5,s4
	.loc 1 337 78
	addi	a5,s0,71
	.loc 1 340 11
	or	s1,s1,a0
	.loc 1 338 78
	addi	s0,s0,-4
	.loc 1 337 62
	and	a0,a5,s3
	.loc 1 340 11
	or	s1,s1,a0
	.loc 1 342 1
	lw	ra,28(sp)
	.cfi_restore 1
	.loc 1 338 62
	and	a0,s0,s2
	.loc 1 342 1
	lw	s0,24(sp)
	.cfi_restore 8
	.loc 1 340 11
	or	a0,s1,a0
	.loc 1 342 1
	lw	s2,16(sp)
	.cfi_restore 18
	lw	s1,20(sp)
	.cfi_restore 9
	lw	s3,12(sp)
	.cfi_restore 19
	lw	s4,8(sp)
	.cfi_restore 20
	andi	a0,a0,0xff
	addi	sp,sp,32
	.cfi_def_cfa_offset 0
	jr	ra
	.cfi_endproc
.LFE46:
	.size	mbedtls_ct_base64_enc_char, .-mbedtls_ct_base64_enc_char
	.section	.text.mbedtls_ct_base64_dec_value,"ax",@progbits
	.align	1
	.globl	mbedtls_ct_base64_dec_value
	.type	mbedtls_ct_base64_dec_value, @function
mbedtls_ct_base64_dec_value:
.LFB47:
	.loc 1 345 1 is_stmt 1
	.cfi_startproc
.LVL51:
	.loc 1 346 5
	.loc 1 351 5
	.loc 1 345 1 is_stmt 0
	addi	sp,sp,-16
	.cfi_def_cfa_offset 16
	sw	s1,4(sp)
	.loc 1 351 12
	mv	a2,a0
	.cfi_offset 9, -12
	.loc 1 345 1
	mv	s1,a0
	.loc 1 351 12
	li	a1,90
	li	a0,65
.LVL52:
	.loc 1 345 1
	sw	ra,12(sp)
	sw	s0,8(sp)
	sw	s2,0(sp)
	.cfi_offset 1, -4
	.cfi_offset 8, -8
	.cfi_offset 18, -16
	.loc 1 351 12
	call	mbedtls_ct_uchar_mask_of_range
.LVL53:
	mv	s2,a0
.LVL54:
	.loc 1 352 5 is_stmt 1
	.loc 1 352 12 is_stmt 0
	mv	a2,s1
	li	a1,122
	li	a0,97
	call	mbedtls_ct_uchar_mask_of_range
.LVL55:
	.loc 1 351 74
	addi	s0,s1,-64
	.loc 1 352 75
	addi	a5,s1,-70
	.loc 1 352 58
	and	a5,a5,a0
	.loc 1 353 12
	mv	a2,s1
	.loc 1 351 58
	and	s0,s0,s2
	.loc 1 353 12
	li	a1,57
	li	a0,48
	.loc 1 352 9
	or	s0,s0,a5
	.loc 1 353 12
	call	mbedtls_ct_uchar_mask_of_range
.LVL56:
	.loc 1 353 75
	addi	a5,s1,5
	.loc 1 352 9
	slli	s0,s0,24
	.loc 1 353 58
	and	a5,a5,a0
	.loc 1 354 12
	mv	a2,s1
	li	a1,43
	.loc 1 352 9
	srai	s0,s0,24
.LVL57:
	.loc 1 353 5 is_stmt 1
	.loc 1 354 12 is_stmt 0
	li	a0,43
	.loc 1 353 9
	or	s0,s0,a5
.LVL58:
	.loc 1 354 12
	call	mbedtls_ct_uchar_mask_of_range
.LVL59:
	.loc 1 354 75
	addi	a5,s1,20
	.loc 1 353 9
	slli	s0,s0,24
	.loc 1 354 58
	and	a5,a5,a0
	.loc 1 353 9
	srai	s0,s0,24
.LVL60:
	.loc 1 354 5 is_stmt 1
	.loc 1 354 9 is_stmt 0
	or	s0,s0,a5
.LVL61:
	.loc 1 355 12
	mv	a2,s1
	li	a1,47
	li	a0,47
	call	mbedtls_ct_uchar_mask_of_range
.LVL62:
	.loc 1 355 75
	addi	s1,s1,17
	.loc 1 354 9
	slli	s0,s0,24
	srai	s0,s0,24
.LVL63:
	.loc 1 355 5 is_stmt 1
	.loc 1 358 5
	.loc 1 355 58 is_stmt 0
	and	a0,s1,a0
	.loc 1 359 1
	lw	ra,12(sp)
	.cfi_restore 1
	.loc 1 355 9
	or	a0,s0,a0
	.loc 1 359 1
	lw	s0,8(sp)
	.cfi_restore 8
	.loc 1 358 17
	addi	a0,a0,-1
	.loc 1 359 1
	slli	a0,a0,24
	lw	s1,4(sp)
	.cfi_restore 9
	lw	s2,0(sp)
	.cfi_restore 18
	srai	a0,a0,24
	addi	sp,sp,16
	.cfi_def_cfa_offset 0
	jr	ra
	.cfi_endproc
.LFE47:
	.size	mbedtls_ct_base64_dec_value, .-mbedtls_ct_base64_dec_value
	.section	.text.mbedtls_ct_memcpy_if_eq,"ax",@progbits
	.align	1
	.globl	mbedtls_ct_memcpy_if_eq
	.type	mbedtls_ct_memcpy_if_eq, @function
mbedtls_ct_memcpy_if_eq:
.LFB49:
	.loc 1 414 1 is_stmt 1
	.cfi_startproc
.LVL64:
	.loc 1 416 5
	.loc 1 414 1 is_stmt 0
	addi	sp,sp,-16
	.cfi_def_cfa_offset 16
	sw	s1,4(sp)
	sw	s2,0(sp)
	.cfi_offset 9, -12
	.cfi_offset 18, -16
	mv	s1,a0
	mv	s2,a1
	.loc 1 416 26
	mv	a0,a3
.LVL65:
	mv	a1,a4
.LVL66:
	.loc 1 414 1
	sw	s0,8(sp)
	sw	ra,12(sp)
	.cfi_offset 8, -8
	.cfi_offset 1, -4
	.loc 1 414 1
	mv	s0,a2
	.loc 1 416 26
	call	mbedtls_ct_size_bool_eq
.LVL67:
	.loc 1 417 5 is_stmt 1
.LBB57:
.LBB58:
	.loc 1 94 5
	.loc 1 94 27 is_stmt 0
	neg	a5,a0
	.loc 1 94 25
	or	a5,a5,a0
	.loc 1 94 13
	srai	a5,a5,31
.LVL68:
.LBE58:
.LBE57:
	.loc 1 417 25
	andi	a0,a5,0xff
.LVL69:
	.loc 1 420 5 is_stmt 1
.LBB59:
	.loc 1 420 10
	.loc 1 420 17 is_stmt 0
	li	a4,0
	.loc 1 421 49
	not	a5,a5
.LVL70:
.L21:
	.loc 1 420 24 is_stmt 1 discriminator 1
	.loc 1 420 5 is_stmt 0 discriminator 1
	bne	a4,s0,.L22
.LBE59:
	.loc 1 422 1
	lw	ra,12(sp)
	.cfi_remember_state
	.cfi_restore 1
	lw	s0,8(sp)
	.cfi_restore 8
.LVL71:
	lw	s1,4(sp)
	.cfi_restore 9
.LVL72:
	lw	s2,0(sp)
	.cfi_restore 18
.LVL73:
	addi	sp,sp,16
	.cfi_def_cfa_offset 0
	jr	ra
.LVL74:
.L22:
	.cfi_restore_state
.LBB60:
	.loc 1 421 9 is_stmt 1 discriminator 3
	add	a1,s1,a4
	.loc 1 421 24 is_stmt 0 discriminator 3
	add	a3,s2,a4
	.loc 1 421 37 discriminator 3
	lbu	a3,0(a3)
	.loc 1 421 49 discriminator 3
	lbu	a2,0(a1)
	.loc 1 420 34 discriminator 3
	addi	a4,a4,1
.LVL75:
	.loc 1 421 37 discriminator 3
	and	a3,a0,a3
	.loc 1 421 49 discriminator 3
	and	a2,a5,a2
	.loc 1 421 37 discriminator 3
	or	a3,a3,a2
	.loc 1 421 17 discriminator 3
	sb	a3,0(a1)
	.loc 1 420 33 is_stmt 1 discriminator 3
.LVL76:
	j	.L21
.LBE60:
	.cfi_endproc
.LFE49:
	.size	mbedtls_ct_memcpy_if_eq, .-mbedtls_ct_memcpy_if_eq
	.section	.text.mbedtls_ct_memcpy_offset,"ax",@progbits
	.align	1
	.globl	mbedtls_ct_memcpy_offset
	.type	mbedtls_ct_memcpy_offset, @function
mbedtls_ct_memcpy_offset:
.LFB50:
	.loc 1 430 1
	.cfi_startproc
.LVL77:
	addi	sp,sp,-32
	.cfi_def_cfa_offset 32
	sw	s0,24(sp)
	sw	s1,20(sp)
	sw	s2,16(sp)
	sw	s3,12(sp)
	sw	s4,8(sp)
	sw	s5,4(sp)
	sw	ra,28(sp)
	.cfi_offset 8, -8
	.cfi_offset 9, -12
	.cfi_offset 18, -16
	.cfi_offset 19, -20
	.cfi_offset 20, -24
	.cfi_offset 21, -28
	.cfi_offset 1, -4
	mv	s2,a0
	mv	s3,a1
	mv	s4,a2
	mv	s0,a3
	mv	s1,a4
	mv	s5,a5
	.loc 1 431 5
	.loc 1 433 5
.LVL78:
.L25:
	.loc 1 433 34 discriminator 1
	.loc 1 433 5 is_stmt 0 discriminator 1
	bleu	s0,s1,.L26
	.loc 1 438 1
	lw	ra,28(sp)
	.cfi_remember_state
	.cfi_restore 1
	lw	s0,24(sp)
	.cfi_restore 8
.LVL79:
	lw	s1,20(sp)
	.cfi_restore 9
.LVL80:
	lw	s2,16(sp)
	.cfi_restore 18
.LVL81:
	lw	s3,12(sp)
	.cfi_restore 19
.LVL82:
	lw	s4,8(sp)
	.cfi_restore 20
.LVL83:
	lw	s5,4(sp)
	.cfi_restore 21
.LVL84:
	addi	sp,sp,32
	.cfi_def_cfa_offset 0
	jr	ra
.LVL85:
.L26:
	.cfi_restore_state
	.loc 1 435 9 is_stmt 1 discriminator 3
	mv	a3,s0
	add	a1,s3,s0
	mv	a4,s4
	mv	a2,s5
	mv	a0,s2
	call	mbedtls_ct_memcpy_if_eq
.LVL86:
	.loc 1 433 59 discriminator 3
	.loc 1 433 68 is_stmt 0 discriminator 3
	addi	s0,s0,1
.LVL87:
	j	.L25
	.cfi_endproc
.LFE50:
	.size	mbedtls_ct_memcpy_offset, .-mbedtls_ct_memcpy_offset
	.section	.text.mbedtls_ct_hmac,"ax",@progbits
	.align	1
	.globl	mbedtls_ct_hmac
	.type	mbedtls_ct_hmac, @function
mbedtls_ct_hmac:
.LFB51:
	.loc 1 448 1 is_stmt 1
	.cfi_startproc
.LVL88:
	.loc 1 463 5
	.loc 1 448 1 is_stmt 0
	addi	sp,sp,-112
	.cfi_def_cfa_offset 112
	sw	s1,100(sp)
	sw	s2,96(sp)
	sw	s3,92(sp)
	sw	s5,84(sp)
	sw	s6,80(sp)
	sw	s8,72(sp)
	sw	s9,68(sp)
	sw	s10,64(sp)
	sw	s11,60(sp)
	sw	ra,108(sp)
	sw	s0,104(sp)
	sw	s4,88(sp)
	sw	s7,76(sp)
	.cfi_offset 9, -12
	.cfi_offset 18, -16
	.cfi_offset 19, -20
	.cfi_offset 21, -28
	.cfi_offset 22, -32
	.cfi_offset 24, -40
	.cfi_offset 25, -44
	.cfi_offset 26, -48
	.cfi_offset 27, -52
	.cfi_offset 1, -4
	.cfi_offset 8, -8
	.cfi_offset 20, -24
	.cfi_offset 23, -36
	.loc 1 448 1
	mv	s1,a0
	.loc 1 463 38
	lw	a0,0(a0)
.LVL89:
	.loc 1 448 1
	mv	s2,a5
	mv	s10,a1
	mv	s11,a2
	mv	s8,a3
	mv	s9,a4
	mv	s5,a6
	mv	s3,a7
	.loc 1 463 38
	call	mbedtls_md_get_type
.LVL90:
	.loc 1 466 5 is_stmt 1
	.loc 1 466 65 is_stmt 0
	li	a5,7
	li	s6,64
	bne	a0,a5,.L29
	li	s6,128
.L29:
.LVL91:
	.loc 1 467 5 is_stmt 1 discriminator 4
	.loc 1 469 30 is_stmt 0 discriminator 4
	lw	a0,0(s1)
.LVL92:
	.loc 1 467 33 discriminator 4
	lw	s7,8(s1)
.LVL93:
	.loc 1 468 5 is_stmt 1 discriminator 4
	.loc 1 469 5 discriminator 4
	.loc 1 469 30 is_stmt 0 discriminator 4
	call	mbedtls_md_get_size
.LVL94:
	mv	s4,a0
.LVL95:
	.loc 1 471 5 is_stmt 1 discriminator 4
	.loc 1 472 5 discriminator 4
	.loc 1 473 5 discriminator 4
	.loc 1 474 5 discriminator 4
	.loc 1 476 5 discriminator 4
	addi	a0,sp,4
	call	mbedtls_md_init
.LVL96:
	.loc 1 485 5 discriminator 4
	.loc 1 485 10 discriminator 4
	.loc 1 485 17 is_stmt 0 discriminator 4
	lw	a1,0(s1)
	li	a2,0
	addi	a0,sp,4
	call	mbedtls_md_setup
.LVL97:
	mv	s0,a0
.LVL98:
	.loc 1 485 61 is_stmt 1 discriminator 4
	.loc 1 485 63 is_stmt 0 discriminator 4
	bne	a0,zero,.L30
	.loc 1 485 97 is_stmt 1 discriminator 2
	.loc 1 489 5 discriminator 2
	.loc 1 489 10 discriminator 2
	.loc 1 489 17 is_stmt 0 discriminator 2
	mv	a2,s11
	mv	a1,s10
	mv	a0,s1
	call	mbedtls_md_update
.LVL99:
	mv	s0,a0
.LVL100:
	.loc 1 489 68 is_stmt 1 discriminator 2
	.loc 1 489 70 is_stmt 0 discriminator 2
	bne	a0,zero,.L30
	.loc 1 489 104 is_stmt 1 discriminator 2
	.loc 1 490 5 discriminator 2
	.loc 1 490 10 discriminator 2
	.loc 1 490 17 is_stmt 0 discriminator 2
	mv	a2,s2
	mv	a1,s8
	mv	a0,s1
	call	mbedtls_md_update
.LVL101:
	mv	s0,a0
.LVL102:
	.loc 1 490 64 is_stmt 1 discriminator 2
	.loc 1 490 66 is_stmt 0 discriminator 2
	bne	a0,zero,.L30
	.loc 1 490 100 is_stmt 1 discriminator 2
	.loc 1 496 5 discriminator 2
	mv	a2,s4
	li	a1,33
	mv	a0,s3
	call	memset
.LVL103:
	.loc 1 499 5 discriminator 2
.L31:
	.loc 1 499 33 discriminator 2
	.loc 1 499 5 is_stmt 0 discriminator 2
	bleu	s2,s5,.L34
	.loc 1 512 5 is_stmt 1
	.loc 1 512 10
	.loc 1 512 17 is_stmt 0
	addi	a1,sp,16
	mv	a0,s1
	call	mbedtls_md_finish
.LVL104:
	mv	s0,a0
.LVL105:
	.loc 1 512 53 is_stmt 1
	.loc 1 512 55 is_stmt 0
	bne	a0,zero,.L30
	.loc 1 512 89 is_stmt 1 discriminator 2
	.loc 1 515 5 discriminator 2
	.loc 1 515 10 discriminator 2
	.loc 1 515 17 is_stmt 0 discriminator 2
	mv	a0,s1
	call	mbedtls_md_starts
.LVL106:
	mv	s0,a0
.LVL107:
	.loc 1 515 44 is_stmt 1 discriminator 2
	.loc 1 515 46 is_stmt 0 discriminator 2
	bne	a0,zero,.L30
	.loc 1 515 80 is_stmt 1 discriminator 2
	.loc 1 516 5 discriminator 2
	.loc 1 516 10 discriminator 2
	.loc 1 516 17 is_stmt 0 discriminator 2
	mv	a2,s6
	add	a1,s7,s6
	mv	a0,s1
	call	mbedtls_md_update
.LVL108:
	mv	s0,a0
.LVL109:
	.loc 1 516 62 is_stmt 1 discriminator 2
	.loc 1 516 64 is_stmt 0 discriminator 2
	bne	a0,zero,.L30
	.loc 1 516 98 is_stmt 1 discriminator 2
	.loc 1 517 5 discriminator 2
	.loc 1 517 10 discriminator 2
	.loc 1 517 17 is_stmt 0 discriminator 2
	mv	a2,s4
	mv	a1,s3
	mv	a0,s1
	call	mbedtls_md_update
.LVL110:
	mv	s0,a0
.LVL111:
	.loc 1 517 63 is_stmt 1 discriminator 2
	.loc 1 517 65 is_stmt 0 discriminator 2
	bne	a0,zero,.L30
	.loc 1 517 99 is_stmt 1 discriminator 2
	.loc 1 518 5 discriminator 2
	.loc 1 518 10 discriminator 2
	.loc 1 518 17 is_stmt 0 discriminator 2
	mv	a1,s3
	mv	a0,s1
	call	mbedtls_md_finish
.LVL112:
	mv	s0,a0
.LVL113:
	.loc 1 518 52 is_stmt 1 discriminator 2
	.loc 1 518 54 is_stmt 0 discriminator 2
	bne	a0,zero,.L30
	.loc 1 518 88 is_stmt 1 discriminator 2
	.loc 1 521 5 discriminator 2
	.loc 1 521 10 discriminator 2
	.loc 1 521 17 is_stmt 0 discriminator 2
	mv	a0,s1
	call	mbedtls_md_hmac_reset
.LVL114:
	mv	s0,a0
.LVL115:
	.loc 1 521 48 is_stmt 1 discriminator 2
	.loc 1 525 1 is_stmt 0 discriminator 2
	j	.L30
.L34:
	.loc 1 501 9 is_stmt 1
	.loc 1 501 14
	.loc 1 501 21 is_stmt 0
	mv	a1,s1
	addi	a0,sp,4
	call	mbedtls_md_clone
.LVL116:
	mv	s0,a0
.LVL117:
	.loc 1 501 53 is_stmt 1
	.loc 1 501 55 is_stmt 0
	bne	a0,zero,.L30
	.loc 1 501 89 is_stmt 1 discriminator 2
	.loc 1 502 9 discriminator 2
	.loc 1 502 14 discriminator 2
	.loc 1 502 21 is_stmt 0 discriminator 2
	addi	a1,sp,16
	addi	a0,sp,4
	call	mbedtls_md_finish
.LVL118:
	mv	s0,a0
.LVL119:
	.loc 1 502 58 is_stmt 1 discriminator 2
	.loc 1 502 60 is_stmt 0 discriminator 2
	bne	a0,zero,.L30
	.loc 1 502 94 is_stmt 1 discriminator 2
	.loc 1 504 9 discriminator 2
	mv	a4,s9
	mv	a3,s2
	mv	a2,s4
	addi	a1,sp,16
	mv	a0,s3
	call	mbedtls_ct_memcpy_if_eq
.LVL120:
	.loc 1 507 9 discriminator 2
	.loc 1 507 11 is_stmt 0 discriminator 2
	bltu	s2,s5,.L32
.L33:
	.loc 1 508 106 is_stmt 1
	.loc 1 499 57
	.loc 1 499 63 is_stmt 0
	addi	s2,s2,1
.LVL121:
	j	.L31
.L32:
	.loc 1 508 13 is_stmt 1
	.loc 1 508 18
	.loc 1 508 25 is_stmt 0
	li	a2,1
	add	a1,s8,s2
	mv	a0,s1
	call	mbedtls_md_update
.LVL122:
	mv	s0,a0
.LVL123:
	.loc 1 508 70 is_stmt 1
	.loc 1 508 72 is_stmt 0
	beq	a0,zero,.L33
.LVL124:
.L30:
	.loc 1 521 84 is_stmt 1 discriminator 3
	.loc 1 526 5 discriminator 3
	addi	a0,sp,4
	call	mbedtls_md_free
.LVL125:
	.loc 1 527 5 discriminator 3
	.loc 1 528 1 is_stmt 0 discriminator 3
	lw	ra,108(sp)
	.cfi_restore 1
	mv	a0,s0
	lw	s0,104(sp)
	.cfi_restore 8
.LVL126:
	lw	s1,100(sp)
	.cfi_restore 9
.LVL127:
	lw	s2,96(sp)
	.cfi_restore 18
	lw	s3,92(sp)
	.cfi_restore 19
.LVL128:
	lw	s4,88(sp)
	.cfi_restore 20
.LVL129:
	lw	s5,84(sp)
	.cfi_restore 21
.LVL130:
	lw	s6,80(sp)
	.cfi_restore 22
.LVL131:
	lw	s7,76(sp)
	.cfi_restore 23
.LVL132:
	lw	s8,72(sp)
	.cfi_restore 24
.LVL133:
	lw	s9,68(sp)
	.cfi_restore 25
.LVL134:
	lw	s10,64(sp)
	.cfi_restore 26
.LVL135:
	lw	s11,60(sp)
	.cfi_restore 27
.LVL136:
	addi	sp,sp,112
	.cfi_def_cfa_offset 0
	jr	ra
	.cfi_endproc
.LFE51:
	.size	mbedtls_ct_hmac, .-mbedtls_ct_hmac
	.section	.text.mbedtls_mpi_safe_cond_assign,"ax",@progbits
	.align	1
	.globl	mbedtls_mpi_safe_cond_assign
	.type	mbedtls_mpi_safe_cond_assign, @function
mbedtls_mpi_safe_cond_assign:
.LFB52:
	.loc 1 552 1 is_stmt 1
	.cfi_startproc
.LVL137:
	.loc 1 553 5
	.loc 1 554 5
	.loc 1 555 5
	.loc 1 556 5
	.loc 1 556 10
	.loc 1 556 17
	.loc 1 557 5
	.loc 1 557 10
	.loc 1 557 17
	.loc 1 560 5
	.loc 1 552 1 is_stmt 0
	addi	sp,sp,-48
	.cfi_def_cfa_offset 48
.LVL138:
.LBB65:
.LBB66:
	.loc 1 112 5 is_stmt 1
.LBE66:
.LBE65:
	.loc 1 560 52
	.loc 1 562 5
	.loc 1 562 10
	.loc 1 552 1 is_stmt 0
	sw	s0,40(sp)
	sw	s2,32(sp)
	sw	s3,28(sp)
	sw	ra,44(sp)
	sw	s1,36(sp)
	.cfi_offset 8, -8
	.cfi_offset 18, -16
	.cfi_offset 19, -20
	.cfi_offset 1, -4
	.cfi_offset 9, -12
	.loc 1 552 1
	mv	s2,a1
	.loc 1 562 23
	lw	a1,4(a1)
.LVL139:
	.loc 1 552 1
	mv	s0,a0
	sw	a2,12(sp)
.LVL140:
	.loc 1 562 23
	call	mbedtls_mpi_grow
.LVL141:
	mv	s3,a0
.LVL142:
	.loc 1 562 12
	bne	a0,zero,.L38
.LBB70:
.LBB71:
	.loc 1 289 25 discriminator 2
	lw	a5,0(s0)
.LBE71:
.LBE70:
.LBB75:
.LBB67:
	.loc 1 112 27 discriminator 2
	lw	a3,12(sp)
.LBE67:
.LBE75:
	.loc 1 566 5 discriminator 2
	lw	a1,8(s0)
.LBB76:
.LBB72:
	.loc 1 289 25 discriminator 2
	addi	a4,a5,1
	.loc 1 288 25 discriminator 2
	lw	a5,0(s2)
	.loc 1 292 37 discriminator 2
	slli	a2,a3,1
.LBE72:
.LBE76:
.LBB77:
.LBB68:
	.loc 1 112 27 discriminator 2
	neg	s1,a3
.LBE68:
.LBE77:
.LBB78:
.LBB73:
	.loc 1 288 25 discriminator 2
	addi	a5,a5,1
	.loc 1 295 14 discriminator 2
	xor	a5,a5,a4
	and	a5,a5,a2
	xor	a5,a5,a4
	.loc 1 298 22 discriminator 2
	addi	a5,a5,-1
.LBE73:
.LBE78:
	.loc 1 564 10 discriminator 2
	sw	a5,0(s0)
	.loc 1 566 5 discriminator 2
	lw	a2,8(s2)
	lw	a0,4(s2)
.LVL143:
.LBB79:
.LBB69:
	.loc 1 112 25 discriminator 2
	or	s1,s1,a3
	.loc 1 112 13 discriminator 2
	srai	s1,s1,31
.LBE69:
.LBE79:
	.loc 1 562 82 is_stmt 1 discriminator 2
	.loc 1 564 5 discriminator 2
.LVL144:
.LBB80:
.LBB74:
	.loc 1 288 5 discriminator 2
	.loc 1 289 5 discriminator 2
	.loc 1 292 5 discriminator 2
	.loc 1 295 5 discriminator 2
	.loc 1 298 5 discriminator 2
.LBE74:
.LBE80:
	.loc 1 566 5 discriminator 2
	call	mbedtls_ct_mpi_uint_cond_assign
.LVL145:
	.loc 1 568 5 discriminator 2
	.loc 1 568 12 is_stmt 0 discriminator 2
	lw	a5,4(s2)
.LVL146:
	.loc 1 569 20 discriminator 2
	not	s1,s1
.L40:
	.loc 1 568 20 is_stmt 1 discriminator 1
	.loc 1 568 5 is_stmt 0 discriminator 1
	lw	a4,4(s0)
	bgtu	a4,a5,.L41
.LVL147:
.L38:
	.loc 1 573 1
	lw	ra,44(sp)
	.cfi_remember_state
	.cfi_restore 1
	lw	s0,40(sp)
	.cfi_restore 8
.LVL148:
	lw	s1,36(sp)
	.cfi_restore 9
	lw	s2,32(sp)
	.cfi_restore 18
.LVL149:
	mv	a0,s3
	lw	s3,28(sp)
	.cfi_restore 19
.LVL150:
	addi	sp,sp,48
	.cfi_def_cfa_offset 0
	jr	ra
.LVL151:
.L41:
	.cfi_restore_state
	.loc 1 569 9 is_stmt 1 discriminator 3
	.loc 1 569 17 is_stmt 0 discriminator 3
	lw	a4,8(s0)
	slli	a3,a5,2
	.loc 1 568 31 discriminator 3
	addi	a5,a5,1
.LVL152:
	.loc 1 569 17 discriminator 3
	add	a4,a4,a3
	lw	a3,0(a4)
	and	a3,a3,s1
	sw	a3,0(a4)
	.loc 1 568 30 is_stmt 1 discriminator 3
.LVL153:
	j	.L40
	.cfi_endproc
.LFE52:
	.size	mbedtls_mpi_safe_cond_assign, .-mbedtls_mpi_safe_cond_assign
	.section	.text.mbedtls_mpi_safe_cond_swap,"ax",@progbits
	.align	1
	.globl	mbedtls_mpi_safe_cond_swap
	.type	mbedtls_mpi_safe_cond_swap, @function
mbedtls_mpi_safe_cond_swap:
.LFB53:
	.loc 1 584 1
	.cfi_startproc
.LVL154:
	.loc 1 585 5
	.loc 1 586 5
	.loc 1 587 5
	.loc 1 588 5
	.loc 1 589 5
	.loc 1 589 10
	.loc 1 589 17
	.loc 1 590 5
	.loc 1 590 10
	.loc 1 590 17
	.loc 1 592 5
	.loc 1 592 7 is_stmt 0
	bne	a0,a1,.L45
	.loc 1 593 15
	li	a0,0
.LVL155:
	.loc 1 615 1
	ret
.LVL156:
.L45:
	.loc 1 584 1
	addi	sp,sp,-16
	.cfi_def_cfa_offset 16
	sw	s0,8(sp)
	sw	s1,4(sp)
	sw	s2,0(sp)
	sw	ra,12(sp)
	.cfi_offset 8, -8
	.cfi_offset 9, -12
	.cfi_offset 18, -16
	.cfi_offset 1, -4
	mv	s0,a1
	.loc 1 598 23
	lw	a1,4(a1)
.LVL157:
	mv	s1,a0
	mv	s2,a2
	.loc 1 596 5 is_stmt 1
.LVL158:
.LBB87:
.LBB88:
	.loc 1 112 5
.LBE88:
.LBE87:
	.loc 1 598 5
	.loc 1 598 10
	.loc 1 598 23 is_stmt 0
	call	mbedtls_mpi_grow
.LVL159:
	.loc 1 598 12
	bne	a0,zero,.L44
	.loc 1 598 82 is_stmt 1 discriminator 2
	.loc 1 599 5 discriminator 2
	.loc 1 599 10 discriminator 2
	.loc 1 599 23 is_stmt 0 discriminator 2
	lw	a1,4(s1)
	mv	a0,s0
.LVL160:
	call	mbedtls_mpi_grow
.LVL161:
	.loc 1 599 12 discriminator 2
	bne	a0,zero,.L44
.LBB92:
.LBB93:
	.loc 1 289 25 discriminator 2
	lw	a5,0(s1)
	.loc 1 288 25 discriminator 2
	lw	a4,0(s0)
.LBE93:
.LBE92:
.LBB97:
.LBB89:
	.loc 1 112 27 discriminator 2
	neg	a3,s2
.LBE89:
.LBE97:
.LBB98:
.LBB94:
	.loc 1 289 25 discriminator 2
	addi	a5,a5,1
	.loc 1 288 25 discriminator 2
	addi	a4,a4,1
.LBE94:
.LBE98:
.LBB99:
.LBB90:
	.loc 1 112 25 discriminator 2
	or	a3,a3,s2
.LBE90:
.LBE99:
.LBB100:
.LBB95:
	.loc 1 295 14 discriminator 2
	xor	a4,a4,a5
	.loc 1 292 37 discriminator 2
	slli	s2,s2,1
.LVL162:
	.loc 1 295 14 discriminator 2
	and	a4,a4,s2
	xor	a4,a4,a5
	.loc 1 298 22 discriminator 2
	addi	a4,a4,-1
.LBE95:
.LBE100:
	.loc 1 602 10 discriminator 2
	sw	a4,0(s1)
.LBB101:
.LBB102:
	.loc 1 289 25 discriminator 2
	lw	a4,0(s0)
.LBE102:
.LBE101:
.LBB105:
.LBB91:
	.loc 1 112 13 discriminator 2
	srai	a3,a3,31
.LBE91:
.LBE105:
	.loc 1 599 82 is_stmt 1 discriminator 2
	.loc 1 601 5 discriminator 2
	.loc 1 602 5 discriminator 2
.LVL163:
.LBB106:
.LBB96:
	.loc 1 288 5 discriminator 2
	.loc 1 289 5 discriminator 2
	.loc 1 292 5 discriminator 2
	.loc 1 295 5 discriminator 2
	.loc 1 298 5 discriminator 2
.LBE96:
.LBE106:
	.loc 1 603 5 discriminator 2
.LBB107:
.LBB103:
	.loc 1 288 5 discriminator 2
	.loc 1 289 5 discriminator 2
.LBE103:
.LBE107:
	.loc 1 606 12 is_stmt 0 discriminator 2
	li	a2,0
.LBB108:
.LBB104:
	.loc 1 289 25 discriminator 2
	addi	a4,a4,1
.LVL164:
	.loc 1 292 5 is_stmt 1 discriminator 2
	.loc 1 295 5 discriminator 2
	.loc 1 298 5 discriminator 2
	.loc 1 295 14 is_stmt 0 discriminator 2
	xor	a5,a4,a5
	and	a5,a5,s2
	xor	a5,a5,a4
	.loc 1 298 22 discriminator 2
	addi	a5,a5,-1
.LBE104:
.LBE108:
	.loc 1 603 10 discriminator 2
	sw	a5,0(s0)
	.loc 1 606 5 is_stmt 1 discriminator 2
.LVL165:
.L47:
	.loc 1 606 17 discriminator 1
	.loc 1 606 5 is_stmt 0 discriminator 1
	lw	a5,4(s1)
	bgtu	a5,a2,.L48
	.loc 1 593 15
	li	a0,0
.LVL166:
.L44:
	.loc 1 615 1
	lw	ra,12(sp)
	.cfi_remember_state
	.cfi_restore 1
	lw	s0,8(sp)
	.cfi_restore 8
.LVL167:
	lw	s1,4(sp)
	.cfi_restore 9
.LVL168:
	lw	s2,0(sp)
	.cfi_restore 18
	addi	sp,sp,16
	.cfi_def_cfa_offset 0
	jr	ra
.LVL169:
.L48:
	.cfi_restore_state
	.loc 1 608 9 is_stmt 1 discriminator 3
	.loc 1 608 19 is_stmt 0 discriminator 3
	lw	a1,8(s1)
	.loc 1 609 52 discriminator 3
	lw	a4,8(s0)
	slli	a0,a2,2
	.loc 1 608 19 discriminator 3
	add	a1,a1,a0
	.loc 1 609 52 discriminator 3
	add	a4,a4,a0
	.loc 1 608 13 discriminator 3
	lw	a5,0(a1)
.LVL170:
	.loc 1 609 9 is_stmt 1 discriminator 3
	.loc 1 609 44 is_stmt 0 discriminator 3
	lw	a4,0(a4)
	.loc 1 606 28 discriminator 3
	addi	a2,a2,1
.LVL171:
	.loc 1 609 44 discriminator 3
	xor	a4,a5,a4
	and	a4,a4,a3
	xor	a4,a4,a5
	.loc 1 609 17 discriminator 3
	sw	a4,0(a1)
	.loc 1 610 9 is_stmt 1 discriminator 3
	.loc 1 610 25 is_stmt 0 discriminator 3
	lw	a4,8(s0)
	add	a4,a4,a0
	lw	a1,0(a4)
	.loc 1 610 44 discriminator 3
	xor	a5,a1,a5
.LVL172:
	and	a5,a5,a3
	xor	a5,a5,a1
	.loc 1 610 17 discriminator 3
	sw	a5,0(a4)
	.loc 1 606 27 is_stmt 1 discriminator 3
.LVL173:
	j	.L47
	.cfi_endproc
.LFE53:
	.size	mbedtls_mpi_safe_cond_swap, .-mbedtls_mpi_safe_cond_swap
	.section	.text.mbedtls_mpi_lt_mpi_ct,"ax",@progbits
	.align	1
	.globl	mbedtls_mpi_lt_mpi_ct
	.type	mbedtls_mpi_lt_mpi_ct, @function
mbedtls_mpi_lt_mpi_ct:
.LFB54:
	.loc 1 623 1
	.cfi_startproc
.LVL174:
	.loc 1 624 5
	.loc 1 626 5
	.loc 1 628 5
	.loc 1 628 10
	.loc 1 628 17
	.loc 1 629 5
	.loc 1 629 10
	.loc 1 629 17
	.loc 1 630 5
	.loc 1 630 10
	.loc 1 630 17
	.loc 1 632 5
	.loc 1 632 7 is_stmt 0
	lw	a4,4(a0)
	lw	a5,4(a1)
	bne	a4,a5,.L57
	.loc 1 623 1
	addi	sp,sp,-48
	.cfi_def_cfa_offset 48
	sw	s1,36(sp)
	sw	s3,32(sp)
	sw	s4,28(sp)
	sw	s5,24(sp)
	sw	s8,12(sp)
	sw	s9,8(sp)
	sw	s10,4(sp)
	sw	s11,0(sp)
	sw	ra,44(sp)
	sw	s0,40(sp)
	sw	s6,20(sp)
	sw	s7,16(sp)
	.cfi_offset 9, -12
	.cfi_offset 19, -16
	.cfi_offset 20, -20
	.cfi_offset 21, -24
	.cfi_offset 24, -36
	.cfi_offset 25, -40
	.cfi_offset 26, -44
	.cfi_offset 27, -48
	.cfi_offset 1, -4
	.cfi_offset 8, -8
	.cfi_offset 22, -28
	.cfi_offset 23, -32
	.loc 1 639 34
	lw	a5,0(a0)
	.loc 1 666 28
	li	s9,1
	mv	s1,a0
	.loc 1 639 34
	srai	a4,a5,1
	.loc 1 640 34
	lw	a5,0(a1)
	.loc 1 639 19
	andi	s8,a4,1
	mv	s4,a1
	.loc 1 640 34
	srai	a5,a5,1
	.loc 1 647 10
	xor	a5,a5,a4
	andi	s3,a5,1
	.loc 1 648 17
	and	a5,a5,s8
	.loc 1 648 10
	sw	a5,0(a2)
	.loc 1 656 12
	lw	s7,4(a0)
	mv	s5,a2
	.loc 1 639 5 is_stmt 1
.LVL175:
	.loc 1 640 5
	.loc 1 647 5
	.loc 1 648 5
	.loc 1 654 5
	.loc 1 656 5
	li	s10,-1
	.loc 1 677 43 is_stmt 0
	sub	s11,s9,s8
.LVL176:
.L55:
	.loc 1 656 20 is_stmt 1 discriminator 1
	.loc 1 656 5 is_stmt 0 discriminator 1
	addi	s7,s7,-1
.LVL177:
	bne	s7,s10,.L56
	.loc 1 682 1
	lw	ra,44(sp)
	.cfi_remember_state
	.cfi_restore 1
	lw	s0,40(sp)
	.cfi_restore 8
	lw	s1,36(sp)
	.cfi_restore 9
.LVL178:
	lw	s3,32(sp)
	.cfi_restore 19
.LVL179:
	lw	s4,28(sp)
	.cfi_restore 20
.LVL180:
	lw	s5,24(sp)
	.cfi_restore 21
.LVL181:
	lw	s6,20(sp)
	.cfi_restore 22
	lw	s7,16(sp)
	.cfi_restore 23
.LVL182:
	lw	s8,12(sp)
	.cfi_restore 24
.LVL183:
	lw	s9,8(sp)
	.cfi_restore 25
	lw	s10,4(sp)
	.cfi_restore 26
	lw	s11,0(sp)
	.cfi_restore 27
	.loc 1 681 11
	li	a0,0
	.loc 1 682 1
	addi	sp,sp,48
	.cfi_def_cfa_offset 0
	jr	ra
.LVL184:
.L56:
	.cfi_restore_state
	.loc 1 665 9 is_stmt 1 discriminator 3
	.loc 1 665 16 is_stmt 0 discriminator 3
	lw	a4,8(s1)
	lw	a5,8(s4)
	slli	s6,s7,2
	add	a4,a4,s6
	add	a5,a5,s6
	lw	a1,0(a4)
	lw	a0,0(a5)
	.loc 1 666 28 discriminator 3
	sub	s0,s9,s3
	.loc 1 666 37 discriminator 3
	and	s0,s0,s8
	.loc 1 665 16 discriminator 3
	call	mbedtls_ct_mpi_uint_lt
.LVL185:
	.loc 1 666 9 is_stmt 1 discriminator 3
	.loc 1 666 14 is_stmt 0 discriminator 3
	lw	a5,0(s5)
	.loc 1 666 37 discriminator 3
	and	s0,s0,a0
	.loc 1 667 14 discriminator 3
	or	s3,s3,a0
.LVL186:
	.loc 1 666 14 discriminator 3
	or	s0,s0,a5
	sw	s0,0(s5)
	.loc 1 667 9 is_stmt 1 discriminator 3
.LVL187:
	.loc 1 676 9 discriminator 3
	.loc 1 676 16 is_stmt 0 discriminator 3
	lw	a5,8(s1)
	lw	a4,8(s4)
	add	a4,a4,s6
	add	s6,a5,s6
	lw	a1,0(a4)
	lw	a0,0(s6)
.LVL188:
	call	mbedtls_ct_mpi_uint_lt
.LVL189:
	.loc 1 677 9 is_stmt 1 discriminator 3
	.loc 1 677 28 is_stmt 0 discriminator 3
	sub	a4,s9,s3
	.loc 1 677 37 discriminator 3
	and	a5,s11,a0
	and	a5,a5,a4
	.loc 1 677 14 discriminator 3
	or	s0,a5,s0
	sw	s0,0(s5)
	.loc 1 678 9 is_stmt 1 discriminator 3
	.loc 1 678 14 is_stmt 0 discriminator 3
	or	s3,s3,a0
.LVL190:
	.loc 1 656 27 is_stmt 1 discriminator 3
	j	.L55
.LVL191:
.L57:
	.cfi_def_cfa_offset 0
	.cfi_restore 1
	.cfi_restore 8
	.cfi_restore 9
	.cfi_restore 19
	.cfi_restore 20
	.cfi_restore 21
	.cfi_restore 22
	.cfi_restore 23
	.cfi_restore 24
	.cfi_restore 25
	.cfi_restore 26
	.cfi_restore 27
	.loc 1 633 16 is_stmt 0
	li	a0,-4
.LVL192:
	.loc 1 682 1
	ret
	.cfi_endproc
.LFE54:
	.size	mbedtls_mpi_lt_mpi_ct, .-mbedtls_mpi_lt_mpi_ct
	.section	.text.mbedtls_ct_rsaes_pkcs1_v15_unpadding,"ax",@progbits
	.align	1
	.globl	mbedtls_ct_rsaes_pkcs1_v15_unpadding
	.type	mbedtls_ct_rsaes_pkcs1_v15_unpadding, @function
mbedtls_ct_rsaes_pkcs1_v15_unpadding:
.LFB55:
	.loc 1 694 1 is_stmt 1
	.cfi_startproc
.LVL193:
	.loc 1 695 5
	.loc 1 696 5
	.loc 1 708 5
	.loc 1 709 5
	.loc 1 710 5
	.loc 1 711 5
	.loc 1 712 5
	.loc 1 714 5
	.loc 1 694 1 is_stmt 0
	addi	sp,sp,-80
	.cfi_def_cfa_offset 80
	sw	s1,68(sp)
	sw	s2,64(sp)
	sw	s3,60(sp)
	sw	s4,56(sp)
	sw	s5,52(sp)
	sw	s6,48(sp)
	sw	ra,76(sp)
	sw	s0,72(sp)
	sw	s7,44(sp)
	sw	s8,40(sp)
	sw	s9,36(sp)
	sw	s10,32(sp)
	sw	s11,28(sp)
	.cfi_offset 9, -12
	.cfi_offset 18, -16
	.cfi_offset 19, -20
	.cfi_offset 20, -24
	.cfi_offset 21, -28
	.cfi_offset 22, -32
	.cfi_offset 1, -4
	.cfi_offset 8, -8
	.cfi_offset 23, -36
	.cfi_offset 24, -40
	.cfi_offset 25, -44
	.cfi_offset 26, -48
	.cfi_offset 27, -52
	.loc 1 714 50
	addi	s2,a2,-11
	.loc 1 694 1
	mv	s1,a1
	mv	s3,a2
	mv	s6,a3
	mv	s4,a4
	mv	s5,a5
	.loc 1 714 24
	bleu	s2,a4,.L63
	mv	s2,a4
.L63:
.LVL194:
	.loc 1 719 5 is_stmt 1
	.loc 1 721 7 is_stmt 0
	li	a4,1
.LVL195:
	.loc 1 719 17
	lbu	s8,0(s1)
.LVL196:
	.loc 1 721 5 is_stmt 1
	.loc 1 725 21 is_stmt 0
	lbu	a5,1(s1)
.LVL197:
	.loc 1 721 7
	bne	a0,a4,.L64
	.loc 1 725 9 is_stmt 1
	.loc 1 725 25 is_stmt 0
	xori	a5,a5,2
	.loc 1 725 13
	or	s8,s8,a5
.LVL198:
	.loc 1 729 9 is_stmt 1
	.loc 1 710 19 is_stmt 0
	li	s0,0
	.loc 1 708 12
	li	s7,0
	.loc 1 729 16
	li	a4,2
.LVL199:
.L65:
	.loc 1 729 21 is_stmt 1 discriminator 1
	.loc 1 729 9 is_stmt 0 discriminator 1
	bltu	a4,s3,.L66
.LVL200:
.L67:
	.loc 1 753 5 is_stmt 1
.LBB137:
.LBB138:
	.loc 1 261 5
.LBB139:
.LBB140:
	.loc 1 78 5
.LBE140:
.LBE139:
	.loc 1 262 5
.LBE138:
.LBE137:
	.loc 1 756 5
.LBB142:
.LBB143:
	.loc 1 220 5
	.loc 1 220 17 is_stmt 0
	addi	a5,s7,-8
	.loc 1 220 23
	srli	a5,a5,31
	or	s8,a5,s8
.LVL201:
.LBE143:
.LBE142:
.LBB144:
.LBB141:
	.loc 1 262 28
	seqz	s0,s0
.LVL202:
.LBE141:
.LBE144:
	.loc 1 756 9
	or	s0,s0,s8
.LVL203:
	.loc 1 765 5 is_stmt 1
	.loc 1 767 55 is_stmt 0
	addi	a2,s3,-3
	.loc 1 765 22
	sub	a2,a2,s7
	mv	a1,s2
	mv	a0,s0
	call	mbedtls_ct_uint_if
.LVL204:
.LBB145:
.LBB146:
	.loc 1 220 17
	sub	a5,s2,a0
	.loc 1 220 23
	srli	s9,a5,31
.LBE146:
.LBE145:
.LBB148:
.LBB149:
.LBB150:
.LBB151:
	.loc 1 78 27
	srai	a5,a5,31
.LBE151:
.LBE150:
.LBE149:
.LBE148:
	.loc 1 779 19
	li	a1,16384
.LBB158:
.LBB156:
.LBB154:
.LBB152:
	.loc 1 78 25
	or	a5,a5,s9
	.loc 1 78 13
	srai	a5,a5,31
.LBE152:
.LBE154:
.LBE156:
.LBE158:
	.loc 1 779 19
	addi	a2,a1,1024
	and	a2,a5,a2
	.loc 1 765 22
	mv	s8,a0
.LVL205:
	.loc 1 771 5 is_stmt 1
.LBB159:
.LBB147:
	.loc 1 220 5
.LBE147:
.LBE159:
	.loc 1 779 5
.LBB160:
.LBB157:
	.loc 1 261 5
.LBB155:
.LBB153:
	.loc 1 78 5
.LBE153:
.LBE155:
	.loc 1 262 5
.LBE157:
.LBE160:
	.loc 1 779 19 is_stmt 0
	addi	a1,a1,256
	mv	a0,s0
.LVL206:
	call	mbedtls_ct_uint_if
.LVL207:
	.loc 1 791 11
	or	s0,s0,s9
.LVL208:
.LBB161:
.LBB162:
	.loc 1 78 27
	neg	a5,s0
	.loc 1 78 25
	or	s0,a5,s0
	.loc 1 78 13
	srai	s0,s0,31
.LBE162:
.LBE161:
	.loc 1 779 9
	neg	s7,a0
.LVL209:
	.loc 1 791 5 is_stmt 1
.LBB164:
.LBB163:
	.loc 1 78 5
.LBE163:
.LBE164:
	.loc 1 792 5
	.loc 1 792 12 is_stmt 0
	li	a5,11
	.loc 1 793 18
	not	s0,s0
.LVL210:
.L70:
	.loc 1 792 18 is_stmt 1 discriminator 1
	.loc 1 792 5 is_stmt 0 discriminator 1
	bltu	a5,s3,.L71
	.loc 1 799 5 is_stmt 1
	.loc 1 799 22 is_stmt 0
	mv	a2,s8
	mv	a1,s2
	mv	a0,s9
	call	mbedtls_ct_uint_if
.LVL211:
	.loc 1 809 47
	sub	s3,s3,s2
.LVL212:
	.loc 1 799 22
	mv	s0,a0
.LVL213:
	.loc 1 809 5 is_stmt 1
	.loc 1 809 47 is_stmt 0
	add	s1,s1,s3
.LVL214:
.LBB165:
.LBB166:
	.loc 1 385 5 is_stmt 1
	.loc 1 386 5
	.loc 1 387 5
	.loc 1 387 7 is_stmt 0
	bne	s2,zero,.L72
.LVL215:
.L78:
.LBE166:
.LBE165:
	.loc 1 820 5 is_stmt 1
	.loc 1 820 7 is_stmt 0
	beq	s4,zero,.L74
	.loc 1 821 9 is_stmt 1
	mv	a2,s2
	mv	a1,s1
	mv	a0,s6
	call	memcpy
.LVL216:
.L74:
	.loc 1 827 5
	.loc 1 827 11 is_stmt 0
	sw	s0,0(s5)
	.loc 1 829 5 is_stmt 1
	.loc 1 830 1 is_stmt 0
	lw	ra,76(sp)
	.cfi_remember_state
	.cfi_restore 1
	lw	s0,72(sp)
	.cfi_restore 8
.LVL217:
	lw	s1,68(sp)
	.cfi_restore 9
.LVL218:
	lw	s2,64(sp)
	.cfi_restore 18
.LVL219:
	lw	s3,60(sp)
	.cfi_restore 19
	lw	s4,56(sp)
	.cfi_restore 20
.LVL220:
	lw	s5,52(sp)
	.cfi_restore 21
.LVL221:
	lw	s6,48(sp)
	.cfi_restore 22
.LVL222:
	lw	s8,40(sp)
	.cfi_restore 24
	lw	s9,36(sp)
	.cfi_restore 25
	lw	s10,32(sp)
	.cfi_restore 26
	lw	s11,28(sp)
	.cfi_restore 27
	mv	a0,s7
	lw	s7,44(sp)
	.cfi_restore 23
.LVL223:
	addi	sp,sp,80
	.cfi_def_cfa_offset 0
	jr	ra
.LVL224:
.L66:
	.cfi_restore_state
	.loc 1 731 13 is_stmt 1 discriminator 3
	.loc 1 731 32 is_stmt 0 discriminator 3
	add	a5,s1,a4
	lbu	a2,0(a5)
	.loc 1 729 32 discriminator 3
	addi	a4,a4,1
.LVL225:
	.loc 1 731 38 discriminator 3
	neg	a5,a2
	.loc 1 731 22 discriminator 3
	or	a2,a2,a5
	andi	a2,a2,0xff
	srli	a2,a2,7
	xori	a2,a2,1
	or	s0,s0,a2
.LVL226:
	.loc 1 732 13 is_stmt 1 discriminator 3
	.loc 1 732 39 is_stmt 0 discriminator 3
	neg	a5,s0
	.loc 1 732 71 discriminator 3
	or	a5,s0,a5
	andi	a5,a5,0xff
	srli	a5,a5,7
	xori	a5,a5,1
	.loc 1 732 23 discriminator 3
	add	s7,s7,a5
.LVL227:
	.loc 1 729 31 is_stmt 1 discriminator 3
	j	.L65
.LVL228:
.L64:
	.loc 1 739 9
	.loc 1 739 25 is_stmt 0
	xori	a5,a5,1
	.loc 1 739 13
	or	s8,s8,a5
.LVL229:
	.loc 1 744 9 is_stmt 1
	.loc 1 710 19 is_stmt 0
	li	s0,0
	.loc 1 708 12
	li	s7,0
	.loc 1 744 16
	li	s9,2
.LVL230:
.L68:
	.loc 1 744 21 is_stmt 1 discriminator 1
	.loc 1 744 9 is_stmt 0 discriminator 1
	bgeu	s9,s3,.L67
	.loc 1 746 13 is_stmt 1 discriminator 3
	.loc 1 746 50 is_stmt 0 discriminator 3
	add	a5,s1,s9
	lbu	a2,0(a5)
.LVL231:
.LBB174:
.LBB175:
	.loc 1 261 5 is_stmt 1 discriminator 3
.LBB176:
.LBB177:
	.loc 1 78 5 discriminator 3
.LBE177:
.LBE176:
	.loc 1 262 5 discriminator 3
.LBE175:
.LBE174:
	.loc 1 748 20 is_stmt 0 discriminator 3
	li	a1,0
	.loc 1 744 32 discriminator 3
	addi	s9,s9,1
.LVL232:
.LBB179:
.LBB178:
	.loc 1 262 28 discriminator 3
	seqz	a5,a2
.LBE178:
.LBE179:
	.loc 1 746 22 discriminator 3
	or	s0,s0,a5
.LVL233:
	.loc 1 747 13 is_stmt 1 discriminator 3
.LBB180:
.LBB181:
	.loc 1 261 5 discriminator 3
.LBB182:
.LBB183:
	.loc 1 78 5 discriminator 3
.LBE183:
.LBE182:
	.loc 1 262 5 discriminator 3
.LBB185:
.LBB184:
	.loc 1 78 27 is_stmt 0 discriminator 3
	neg	a5,s0
	.loc 1 78 25 discriminator 3
	or	a5,a5,s0
.LVL234:
.LBE184:
.LBE185:
	.loc 1 262 28 discriminator 3
	srli	a5,a5,31
.LVL235:
.LBE181:
.LBE180:
	.loc 1 748 20 discriminator 3
	not	a2,a2
.LVL236:
.LBB187:
.LBB186:
	.loc 1 262 28 discriminator 3
	xori	a5,a5,1
.LBE186:
.LBE187:
	.loc 1 748 20 discriminator 3
	andi	a2,a2,0xff
.LVL237:
	mv	a0,s0
	.loc 1 747 23 discriminator 3
	add	s7,s7,a5
.LVL238:
	.loc 1 748 13 is_stmt 1 discriminator 3
	.loc 1 748 20 is_stmt 0 discriminator 3
	call	mbedtls_ct_uint_if
.LVL239:
	.loc 1 748 17 discriminator 3
	or	s8,s8,a0
.LVL240:
	.loc 1 744 31 is_stmt 1 discriminator 3
	j	.L68
.LVL241:
.L71:
	.loc 1 793 9 discriminator 3
	add	a3,s1,a5
	.loc 1 793 18 is_stmt 0 discriminator 3
	lbu	a4,0(a3)
	.loc 1 792 29 discriminator 3
	addi	a5,a5,1
.LVL242:
	.loc 1 793 18 discriminator 3
	and	a4,s0,a4
	sb	a4,0(a3)
	.loc 1 792 28 is_stmt 1 discriminator 3
.LVL243:
	j	.L70
.LVL244:
.L72:
.LBB188:
.LBB173:
.LBB167:
	.loc 1 395 31 is_stmt 0
	addi	s10,s2,-1
	neg	s8,a0
	sub	s11,s2,a0
	.loc 1 401 54
	add	s9,s1,s10
.LVL245:
.L77:
	.loc 1 391 9 is_stmt 1
.LBB168:
.LBB169:
	.loc 1 220 5
	.loc 1 220 23 is_stmt 0
	srli	a5,s8,31
.LVL246:
.LBE169:
.LBE168:
	.loc 1 395 9 is_stmt 1
	.loc 1 395 16 is_stmt 0
	li	s3,0
.LVL247:
.L75:
	.loc 1 395 21 is_stmt 1
	.loc 1 395 9 is_stmt 0
	bltu	s3,s10,.L76
	.loc 1 401 9 is_stmt 1
	.loc 1 401 54 is_stmt 0
	lbu	a1,0(s9)
	.loc 1 401 24
	li	a2,0
	mv	a0,a5
	andi	a1,a1,0xff
	call	mbedtls_ct_uint_if
.LVL248:
	.loc 1 401 22
	andi	a0,a0,0xff
	sb	a0,0(s9)
.LBE167:
	.loc 1 389 28 is_stmt 1
.LVL249:
	.loc 1 389 17
	.loc 1 389 5 is_stmt 0
	addi	s8,s8,1
.LVL250:
	bne	s11,s8,.L77
	j	.L78
.LVL251:
.L76:
.LBB172:
.LBB170:
	.loc 1 397 13 is_stmt 1
	add	a4,s3,s1
	.loc 1 398 37 is_stmt 0
	addi	s3,s3,1
.LVL252:
	add	a3,s3,s1
	.loc 1 397 27
	lbu	a1,0(a4)
.LVL253:
	.loc 1 398 13 is_stmt 1
	.loc 1 398 27 is_stmt 0
	lbu	a2,0(a3)
.LVL254:
	.loc 1 399 13 is_stmt 1
	.loc 1 399 22 is_stmt 0
	mv	a0,a5
	andi	a1,a1,0xff
	andi	a2,a2,0xff
	.loc 1 397 27
	sw	a4,12(sp)
	.loc 1 399 22
	sw	a5,8(sp)
	call	mbedtls_ct_uint_if
.LVL255:
	.loc 1 399 20
	lw	a4,12(sp)
	andi	a0,a0,0xff
	lw	a5,8(sp)
.LBE170:
	.loc 1 395 36 is_stmt 1
.LVL256:
.LBB171:
	.loc 1 399 20 is_stmt 0
	sb	a0,0(a4)
	j	.L75
.LBE171:
.LBE172:
.LBE173:
.LBE188:
	.cfi_endproc
.LFE55:
	.size	mbedtls_ct_rsaes_pkcs1_v15_unpadding, .-mbedtls_ct_rsaes_pkcs1_v15_unpadding
	.text
.Letext0:
	.file 2 "/mnt/d/GitHub/bl_iot_sdk_for_aithinker/toolchain/riscv/Linux/lib/gcc/riscv64-unknown-elf/10.2.0/include/stddef.h"
	.file 3 "/mnt/d/GitHub/bl_iot_sdk_for_aithinker/toolchain/riscv/Linux/lib/gcc/riscv64-unknown-elf/10.2.0/include/stdint-gcc.h"
	.file 4 "/mnt/d/GitHub/bl_iot_sdk_for_aithinker/components/security/mbedtls_lts/mbedtls/include/mbedtls/bignum.h"
	.file 5 "/mnt/d/GitHub/bl_iot_sdk_for_aithinker/components/security/mbedtls_lts/mbedtls/include/mbedtls/md.h"
	.file 6 "/mnt/d/GitHub/bl_iot_sdk_for_aithinker/toolchain/riscv/Linux/riscv64-unknown-elf/include/string.h"