	.file	"dhm.c"
	.option nopic
	.attribute arch, "rv32i2p0_m2p0_f2p0_c2p0"
	.attribute unaligned_access, 0
	.attribute stack_align, 16
	.text
.Ltext0:
	.cfi_sections	.debug_frame
	.section	.text.dhm_read_bignum,"ax",@progbits
	.align	1
	.type	dhm_read_bignum, @function
dhm_read_bignum:
.LFB4:
	.file 1 "/mnt/d/GitHub/bl_iot_sdk_for_aithinker/components/security/mbedtls_lts/mbedtls/library/dhm.c"
	.loc 1 99 1
	.cfi_startproc
.LVL0:
	.loc 1 100 5
	.loc 1 102 5
	.loc 1 102 15 is_stmt 0
	lw	a5,0(a1)
	.loc 1 102 7
	li	a4,1
	.loc 1 102 13
	sub	a3,a2,a5
	.loc 1 102 7
	bgt	a3,a4,.L2
	.loc 1 103 15
	li	a0,-12288
.LVL1:
	addi	a0,a0,-128
	.loc 1 117 1
	ret
.LVL2:
.L4:
	.cfi_def_cfa_offset 16
	.cfi_offset 1, -4
	.cfi_offset 8, -8
	.cfi_offset 9, -12
	.loc 1 103 15
	li	a0,-12288
.LVL3:
	addi	a0,a0,-128
.L1:
	.loc 1 117 1
	lw	ra,12(sp)
	.cfi_restore 1
	lw	s0,8(sp)
	.cfi_restore 8
	lw	s1,4(sp)
	.cfi_restore 9
.LVL4:
	addi	sp,sp,16
	.cfi_def_cfa_offset 0
	jr	ra
.LVL5:
.L2:
	.loc 1 99 1
	addi	sp,sp,-16
	.cfi_def_cfa_offset 16
	sw	s0,8(sp)
	sw	s1,4(sp)
	sw	ra,12(sp)
	.cfi_offset 8, -8
	.cfi_offset 9, -12
	.cfi_offset 1, -4
	lbu	a4,1(a5)
	lbu	a3,0(a5)
	mv	s1,a1
	.loc 1 105 5 is_stmt 1
	slli	a4,a4,8
	or	a4,a4,a3
	slli	s0,a4,8
	srli	a4,a4,8
	or	a4,s0,a4
	.loc 1 106 10 is_stmt 0
	addi	a1,a5,2
.LVL6:
	slli	s0,a4,16
	srli	s0,s0,16
.LVL7:
	.loc 1 106 5 is_stmt 1
	.loc 1 106 10 is_stmt 0
	sw	a1,0(s1)
.LVL8:
	.loc 1 108 5 is_stmt 1
	.loc 1 108 9 is_stmt 0
	sub	a2,a2,a1
.LVL9:
	.loc 1 108 7
	blt	a2,s0,.L4
	.loc 1 111 5 is_stmt 1
	.loc 1 111 17 is_stmt 0
	mv	a2,s0
	call	mbedtls_mpi_read_binary
.LVL10:
	.loc 1 111 7
	beq	a0,zero,.L5
	.loc 1 112 9 is_stmt 1
	.loc 1 112 25 is_stmt 0
	li	a5,-12288
	addi	a5,a5,-256
	add	a0,a0,a5
.LVL11:
	j	.L1
.LVL12:
.L5:
	.loc 1 114 5 is_stmt 1
	.loc 1 114 10 is_stmt 0
	lw	a4,0(s1)
	add	a4,a4,s0
	sw	a4,0(s1)
	.loc 1 116 5 is_stmt 1
	.loc 1 116 11 is_stmt 0
	j	.L1
	.cfi_endproc
.LFE4:
	.size	dhm_read_bignum, .-dhm_read_bignum
	.section	.text.dhm_check_range,"ax",@progbits
	.align	1
	.type	dhm_check_range, @function
dhm_check_range:
.LFB5:
	.loc 1 132 1 is_stmt 1
	.cfi_startproc
.LVL13:
	.loc 1 133 5
	.loc 1 134 5
	.loc 1 136 5
	.loc 1 132 1 is_stmt 0
	addi	sp,sp,-48
	.cfi_def_cfa_offset 48
	sw	s1,36(sp)
	.cfi_offset 9, -12
	mv	s1,a0
	.loc 1 136 5
	addi	a0,sp,8
.LVL14:
	.loc 1 132 1
	sw	ra,44(sp)
	sw	s0,40(sp)
	sw	s2,32(sp)
	.cfi_offset 1, -4
	.cfi_offset 8, -8
	.cfi_offset 18, -16
	.loc 1 132 1
	mv	s2,a1
	.loc 1 136 5
	call	mbedtls_mpi_init
.LVL15:
	.loc 1 136 29 is_stmt 1
	addi	a0,sp,20
	call	mbedtls_mpi_init
.LVL16:
	.loc 1 138 5
	.loc 1 138 10
	.loc 1 138 23 is_stmt 0
	li	a1,2
	addi	a0,sp,8
	call	mbedtls_mpi_lset
.LVL17:
	mv	s0,a0
.LVL18:
	.loc 1 138 12
	bne	a0,zero,.L10
	.loc 1 138 80 is_stmt 1 discriminator 2
	.loc 1 139 5 discriminator 2
	.loc 1 139 10 discriminator 2
	.loc 1 139 23 is_stmt 0 discriminator 2
	li	a2,2
	mv	a1,s2
	addi	a0,sp,20
	call	mbedtls_mpi_sub_int
.LVL19:
	mv	s0,a0
.LVL20:
	.loc 1 139 12 discriminator 2
	bne	a0,zero,.L10
	.loc 1 139 86 is_stmt 1 discriminator 2
	.loc 1 141 5 discriminator 2
	.loc 1 141 9 is_stmt 0 discriminator 2
	addi	a1,sp,8
	mv	a0,s1
	call	mbedtls_mpi_cmp_mpi
.LVL21:
	.loc 1 141 7 discriminator 2
	blt	a0,zero,.L11
	.loc 1 142 9 discriminator 1
	addi	a1,sp,20
	mv	a0,s1
	call	mbedtls_mpi_cmp_mpi
.LVL22:
	.loc 1 141 46 discriminator 1
	ble	a0,zero,.L10
.L11:
	.loc 1 144 13
	li	s0,-12288
.LVL23:
	addi	s0,s0,-128
.L10:
.LVL24:
	.loc 1 148 5 is_stmt 1
	addi	a0,sp,8
	call	mbedtls_mpi_free
.LVL25:
	.loc 1 148 29
	addi	a0,sp,20
	call	mbedtls_mpi_free
.LVL26:
	.loc 1 149 5
	.loc 1 150 1 is_stmt 0
	lw	ra,44(sp)
	.cfi_restore 1
	mv	a0,s0
	lw	s0,40(sp)
	.cfi_restore 8
.LVL27:
	lw	s1,36(sp)
	.cfi_restore 9
.LVL28:
	lw	s2,32(sp)
	.cfi_restore 18
.LVL29:
	addi	sp,sp,48
	.cfi_def_cfa_offset 0
	jr	ra
	.cfi_endproc
.LFE5:
	.size	dhm_check_range, .-dhm_check_range
	.section	.text.dhm_random_below,"ax",@progbits
	.align	1
	.type	dhm_random_below, @function
dhm_random_below:
.LFB12:
	.loc 1 356 1 is_stmt 1
	.cfi_startproc
.LVL30:
	.loc 1 357 5
	.loc 1 359 5
	.loc 1 356 1 is_stmt 0
	addi	sp,sp,-32
	.cfi_def_cfa_offset 32
	sw	s1,20(sp)
	sw	s2,16(sp)
	sw	s3,12(sp)
	sw	s4,8(sp)
	sw	s5,4(sp)
	sw	ra,28(sp)
	sw	s0,24(sp)
	.cfi_offset 9, -12
	.cfi_offset 18, -16
	.cfi_offset 19, -20
	.cfi_offset 20, -24
	.cfi_offset 21, -28
	.cfi_offset 1, -4
	.cfi_offset 8, -8
	.loc 1 356 1
	mv	s1,a0
	mv	s2,a1
	mv	s4,a2
	mv	s5,a3
	li	s3,12
.LVL31:
.L17:
	.loc 1 360 5 is_stmt 1
	.loc 1 362 9
	.loc 1 362 14
	.loc 1 362 27 is_stmt 0
	mv	a0,s2
	call	mbedtls_mpi_size
.LVL32:
	mv	a1,a0
	mv	a3,s5
	mv	a2,s4
	mv	a0,s1
	call	mbedtls_mpi_fill_random
.LVL33:
	mv	s0,a0
.LVL34:
	.loc 1 362 16
	beq	a0,zero,.L15
.LVL35:
.L13:
	.loc 1 374 1
	lw	ra,28(sp)
	.cfi_remember_state
	.cfi_restore 1
	mv	a0,s0
	lw	s0,24(sp)
	.cfi_restore 8
	lw	s1,20(sp)
	.cfi_restore 9
.LVL36:
	lw	s2,16(sp)
	.cfi_restore 18
.LVL37:
	lw	s3,12(sp)
	.cfi_restore 19
	lw	s4,8(sp)
	.cfi_restore 20
.LVL38:
	lw	s5,4(sp)
	.cfi_restore 21
.LVL39:
	addi	sp,sp,32
	.cfi_def_cfa_offset 0
	jr	ra
.LVL40:
.L16:
	.cfi_restore_state
	.loc 1 365 13 is_stmt 1
	.loc 1 365 18
	.loc 1 365 31 is_stmt 0
	li	a1,1
	mv	a0,s1
	call	mbedtls_mpi_shift_r
.LVL41:
	.loc 1 365 20
	bne	a0,zero,.L18
.L15:
.LVL42:
	.loc 1 365 90 is_stmt 1 discriminator 2
	.loc 1 364 14 discriminator 2
	.loc 1 364 16 is_stmt 0 discriminator 2
	mv	a1,s2
	mv	a0,s1
	call	mbedtls_mpi_cmp_mpi
.LVL43:
	.loc 1 364 14 discriminator 2
	bge	a0,zero,.L16
	.loc 1 367 9 is_stmt 1
.LVL44:
	.loc 1 367 11 is_stmt 0
	addi	s3,s3,-1
.LVL45:
	beq	s3,zero,.L19
	.loc 1 370 10 is_stmt 1
	.loc 1 370 12 is_stmt 0
	li	a1,1
	mv	a0,s1
	call	mbedtls_mpi_cmp_int
.LVL46:
	.loc 1 370 5
	ble	a0,zero,.L17
	j	.L13
.LVL47:
.L18:
	mv	s0,a0
	j	.L13
.LVL48:
.L19:
	.loc 1 368 19
	li	s0,-14
.LVL49:
	j	.L13
	.cfi_endproc
.LFE12:
	.size	dhm_random_below, .-dhm_random_below
	.section	.text.mbedtls_dhm_init,"ax",@progbits
	.align	1
	.globl	mbedtls_dhm_init
	.type	mbedtls_dhm_init, @function
mbedtls_dhm_init:
.LFB6:
	.loc 1 153 1 is_stmt 1
	.cfi_startproc
.LVL50:
	.loc 1 154 5
	.loc 1 154 10
	.loc 1 154 17
	.loc 1 155 5
	li	a2,124
	li	a1,0
	tail	memset
.LVL51:
	.cfi_endproc
.LFE6:
	.size	mbedtls_dhm_init, .-mbedtls_dhm_init
	.section	.text.mbedtls_dhm_read_params,"ax",@progbits
	.align	1
	.globl	mbedtls_dhm_read_params
	.type	mbedtls_dhm_read_params, @function
mbedtls_dhm_read_params:
.LFB7:
	.loc 1 164 1
	.cfi_startproc
.LVL52:
	.loc 1 165 5
	.loc 1 166 5
	.loc 1 166 10
	.loc 1 166 17
	.loc 1 167 5
	.loc 1 167 10
	.loc 1 167 17
	.loc 1 168 5
	.loc 1 168 10
	.loc 1 168 17
	.loc 1 170 5
	.loc 1 164 1 is_stmt 0
	addi	sp,sp,-32
	.cfi_def_cfa_offset 32
	sw	s4,8(sp)
	.cfi_offset 20, -24
	.loc 1 170 17
	addi	s4,a0,4
	.loc 1 164 1
	sw	s1,20(sp)
	.cfi_offset 9, -12
	mv	s1,a0
	.loc 1 170 17
	mv	a0,s4
.LVL53:
	.loc 1 164 1
	sw	s0,24(sp)
	sw	s2,16(sp)
	sw	s3,12(sp)
	sw	ra,28(sp)
	sw	s5,4(sp)
	.cfi_offset 8, -8
	.cfi_offset 18, -16
	.cfi_offset 19, -20
	.cfi_offset 1, -4
	.cfi_offset 21, -28
	.loc 1 164 1
	mv	s2,a1
	mv	s3,a2
	.loc 1 170 17
	call	dhm_read_bignum
.LVL54:
	mv	s0,a0
.LVL55:
	.loc 1 170 7
	bne	a0,zero,.L23
	.loc 1 171 17 discriminator 1
	mv	a2,s3
	mv	a1,s2
	addi	a0,s1,16
	call	dhm_read_bignum
.LVL56:
	mv	s0,a0
.LVL57:
	.loc 1 170 59 discriminator 1
	bne	a0,zero,.L23
	.loc 1 172 17
	addi	s5,s1,52
	mv	a2,s3
	mv	a1,s2
	mv	a0,s5
	call	dhm_read_bignum
.LVL58:
	mv	s0,a0
.LVL59:
	.loc 1 171 59
	bne	a0,zero,.L23
	.loc 1 175 5 is_stmt 1
	.loc 1 175 17 is_stmt 0
	mv	a1,s4
	mv	a0,s5
	call	dhm_check_range
.LVL60:
	mv	s0,a0
.LVL61:
	.loc 1 175 7
	bne	a0,zero,.L23
	.loc 1 178 5 is_stmt 1
	.loc 1 178 16 is_stmt 0
	mv	a0,s4
	call	mbedtls_mpi_size
.LVL62:
	.loc 1 178 14
	sw	a0,0(s1)
	.loc 1 180 5 is_stmt 1
.LVL63:
.L23:
	.loc 1 181 1 is_stmt 0
	lw	ra,28(sp)
	.cfi_restore 1
	mv	a0,s0
	lw	s0,24(sp)
	.cfi_restore 8
	lw	s1,20(sp)
	.cfi_restore 9
.LVL64:
	lw	s2,16(sp)
	.cfi_restore 18
.LVL65:
	lw	s3,12(sp)
	.cfi_restore 19
.LVL66:
	lw	s4,8(sp)
	.cfi_restore 20
.LVL67:
	lw	s5,4(sp)
	.cfi_restore 21
	addi	sp,sp,32
	.cfi_def_cfa_offset 0
	jr	ra
	.cfi_endproc
.LFE7:
	.size	mbedtls_dhm_read_params, .-mbedtls_dhm_read_params
	.section	.text.mbedtls_dhm_make_params,"ax",@progbits
	.align	1
	.globl	mbedtls_dhm_make_params
	.type	mbedtls_dhm_make_params, @function
mbedtls_dhm_make_params:
.LFB8:
	.loc 1 190 1 is_stmt 1
	.cfi_startproc
.LVL68:
	.loc 1 191 5
	.loc 1 192 5
	.loc 1 193 5
	.loc 1 194 5
	.loc 1 194 10
	.loc 1 194 17
	.loc 1 195 5
	.loc 1 195 10
	.loc 1 195 17
	.loc 1 196 5
	.loc 1 196 10
	.loc 1 196 17
	.loc 1 197 5
	.loc 1 197 10
	.loc 1 197 17
	.loc 1 199 5
	.loc 1 190 1 is_stmt 0
	addi	sp,sp,-48
	.cfi_def_cfa_offset 48
	sw	s4,24(sp)
	.cfi_offset 20, -24
	.loc 1 199 30
	addi	s4,a0,4
	.loc 1 190 1
	sw	s0,40(sp)
	sw	s6,16(sp)
	.cfi_offset 8, -8
	.cfi_offset 22, -32
	mv	s0,a0
	mv	s6,a1
	.loc 1 199 9
	mv	a0,s4
.LVL69:
	li	a1,0
.LVL70:
	.loc 1 190 1
	sw	s2,32(sp)
	sw	s3,28(sp)
	sw	s7,12(sp)
	sw	s8,8(sp)
	sw	ra,44(sp)
	sw	s1,36(sp)
	sw	s5,20(sp)
	sw	s9,4(sp)
	.cfi_offset 18, -16
	.cfi_offset 19, -20
	.cfi_offset 23, -36
	.cfi_offset 24, -40
	.cfi_offset 1, -4
	.cfi_offset 9, -12
	.cfi_offset 21, -28
	.cfi_offset 25, -44
	.loc 1 190 1
	mv	s2,a2
	mv	s3,a3
	mv	s7,a4
	mv	s8,a5
	.loc 1 199 9
	call	mbedtls_mpi_cmp_int
.LVL71:
	.loc 1 199 7
	beq	a0,zero,.L32
	li	s5,12
	.loc 1 207 27
	addi	s1,s0,28
.LVL72:
.L31:
	.loc 1 205 5 is_stmt 1
	.loc 1 207 9
	.loc 1 207 14
	.loc 1 207 27 is_stmt 0
	mv	a3,s8
	mv	a2,s7
	mv	a1,s6
	mv	a0,s1
	call	mbedtls_mpi_fill_random
.LVL73:
.L36:
	.loc 1 210 20
	bne	a0,zero,.L28
	.loc 1 210 96 is_stmt 1 discriminator 2
	.loc 1 209 14 discriminator 2
	.loc 1 209 16 is_stmt 0 discriminator 2
	mv	a1,s4
	mv	a0,s1
.LVL74:
	call	mbedtls_mpi_cmp_mpi
.LVL75:
	.loc 1 209 14 discriminator 2
	bge	a0,zero,.L30
	.loc 1 212 9 is_stmt 1
.LVL76:
	.loc 1 212 11 is_stmt 0
	addi	s5,s5,-1
.LVL77:
	beq	s5,zero,.L33
	.loc 1 215 10 is_stmt 1
	.loc 1 215 12 is_stmt 0
	mv	a1,s4
	mv	a0,s1
	call	dhm_check_range
.LVL78:
	.loc 1 215 5
	bne	a0,zero,.L31
	.loc 1 220 5 is_stmt 1
	.loc 1 220 10
	.loc 1 220 23 is_stmt 0
	addi	s5,s0,40
.LVL79:
	.loc 1 220 54
	addi	s8,s0,16
.LVL80:
	.loc 1 220 23
	addi	a4,s0,76
	mv	a3,s4
	mv	a2,s1
	mv	a1,s8
	mv	a0,s5
	call	mbedtls_mpi_exp_mod
.LVL81:
	.loc 1 220 12
	bne	a0,zero,.L28
	.loc 1 220 124 is_stmt 1 discriminator 2
	.loc 1 223 5 discriminator 2
	.loc 1 223 17 is_stmt 0 discriminator 2
	mv	a1,s4
	mv	a0,s5
.LVL82:
	call	dhm_check_range
.LVL83:
	.loc 1 223 7 discriminator 2
	bne	a0,zero,.L26
	.loc 1 239 5 is_stmt 1
	.loc 1 239 10 is_stmt 0
	mv	a0,s4
.LVL84:
	call	mbedtls_mpi_size
.LVL85:
	mv	s1,a0
.LVL86:
	.loc 1 240 5 is_stmt 1
	.loc 1 240 10 is_stmt 0
	mv	a0,s8
	call	mbedtls_mpi_size
.LVL87:
	mv	s9,a0
.LVL88:
	.loc 1 241 5 is_stmt 1
	.loc 1 241 10 is_stmt 0
	mv	a0,s5
.LVL89:
	call	mbedtls_mpi_size
.LVL90:
	.loc 1 244 28
	addi	s7,s2,2
.LVL91:
	.loc 1 241 10
	mv	s6,a0
.LVL92:
	.loc 1 243 5 is_stmt 1
	.loc 1 244 5
	.loc 1 244 10
	.loc 1 244 15
	.loc 1 244 28 is_stmt 0
	mv	a2,s1
	mv	a1,s7
	mv	a0,s4
.LVL93:
	call	mbedtls_mpi_write_binary
.LVL94:
	.loc 1 244 17
	bne	a0,zero,.L28
	.loc 1 244 114 is_stmt 1 discriminator 2
	.loc 1 244 121 discriminator 2
.LVL95:
	.loc 1 244 196 is_stmt 0 discriminator 2
	add	s4,s7,s1
	.loc 1 244 152 discriminator 2
	srli	a5,s1,8
	.loc 1 245 28 discriminator 2
	addi	s7,s4,2
	.loc 1 244 128 discriminator 2
	sb	a5,0(s2)
	.loc 1 244 160 is_stmt 1 discriminator 2
.LVL96:
	.loc 1 244 167 is_stmt 0 discriminator 2
	sb	s1,1(s2)
	.loc 1 244 194 is_stmt 1 discriminator 2
.LVL97:
	.loc 1 244 214 discriminator 2
	.loc 1 245 5 discriminator 2
	.loc 1 245 10 discriminator 2
	.loc 1 245 15 discriminator 2
	.loc 1 245 28 is_stmt 0 discriminator 2
	mv	a2,s9
	mv	a1,s7
	mv	a0,s8
.LVL98:
	call	mbedtls_mpi_write_binary
.LVL99:
	.loc 1 245 17 discriminator 2
	bne	a0,zero,.L28
	.loc 1 245 114 is_stmt 1 discriminator 2
	.loc 1 245 121 discriminator 2
.LVL100:
	.loc 1 245 152 is_stmt 0 discriminator 2
	srli	a5,s9,8
	.loc 1 245 196 discriminator 2
	add	s7,s7,s9
	.loc 1 245 128 discriminator 2
	sb	a5,0(s4)
	.loc 1 245 160 is_stmt 1 discriminator 2
.LVL101:
	.loc 1 245 167 is_stmt 0 discriminator 2
	sb	s9,1(s4)
	.loc 1 245 194 is_stmt 1 discriminator 2
.LVL102:
	.loc 1 245 214 discriminator 2
	.loc 1 246 5 discriminator 2
	.loc 1 246 10 discriminator 2
	.loc 1 246 15 discriminator 2
	.loc 1 246 28 is_stmt 0 discriminator 2
	addi	s4,s7,2
	mv	a2,s6
	mv	a1,s4
	mv	a0,s5
.LVL103:
	call	mbedtls_mpi_write_binary
.LVL104:
	.loc 1 246 17 discriminator 2
	bne	a0,zero,.L28
	.loc 1 246 115 is_stmt 1 discriminator 2
	.loc 1 246 122 discriminator 2
.LVL105:
	.loc 1 246 153 is_stmt 0 discriminator 2
	srli	a5,s6,8
	.loc 1 246 197 discriminator 2
	add	s4,s4,s6
	.loc 1 246 129 discriminator 2
	sb	a5,0(s7)
	.loc 1 246 161 is_stmt 1 discriminator 2
.LVL106:
	.loc 1 246 168 is_stmt 0 discriminator 2
	sb	s6,1(s7)
	.loc 1 246 195 is_stmt 1 discriminator 2
	.loc 1 246 215 discriminator 2
	.loc 1 248 5 discriminator 2
	.loc 1 248 15 is_stmt 0 discriminator 2
	sub	s2,s4,s2
.LVL107:
	.loc 1 248 11 discriminator 2
	sw	s2,0(s3)
	.loc 1 250 5 is_stmt 1 discriminator 2
	.loc 1 250 14 is_stmt 0 discriminator 2
	sw	s1,0(s0)
.LVL108:
	.loc 1 254 5 is_stmt 1 discriminator 2
.L26:
	.loc 1 258 1 is_stmt 0
	lw	ra,44(sp)
	.cfi_remember_state
	.cfi_restore 1
	lw	s0,40(sp)
	.cfi_restore 8
.LVL109:
	lw	s1,36(sp)
	.cfi_restore 9
	lw	s2,32(sp)
	.cfi_restore 18
	lw	s3,28(sp)
	.cfi_restore 19
.LVL110:
	lw	s4,24(sp)
	.cfi_restore 20
	lw	s5,20(sp)
	.cfi_restore 21
	lw	s6,16(sp)
	.cfi_restore 22
	lw	s7,12(sp)
	.cfi_restore 23
	lw	s8,8(sp)
	.cfi_restore 24
	lw	s9,4(sp)
	.cfi_restore 25
	addi	sp,sp,48
	.cfi_def_cfa_offset 0
	jr	ra
.LVL111:
.L30:
	.cfi_restore_state
	.loc 1 210 13 is_stmt 1
	.loc 1 210 18
	.loc 1 210 31 is_stmt 0
	li	a1,1
	mv	a0,s1
	call	mbedtls_mpi_shift_r
.LVL112:
	j	.L36
.LVL113:
.L32:
	.loc 1 200 15
	li	a0,-12288
	addi	a0,a0,-128
	j	.L26
.LVL114:
.L33:
	.loc 1 213 19
	li	a0,-12288
	addi	a0,a0,-384
	j	.L26
.LVL115:
.L28:
	.loc 1 254 5 is_stmt 1
	.loc 1 255 9
	.loc 1 255 25 is_stmt 0
	li	a5,-12288
	addi	a5,a5,-384
	add	a0,a0,a5
.LVL116:
	j	.L26
	.cfi_endproc
.LFE8:
	.size	mbedtls_dhm_make_params, .-mbedtls_dhm_make_params
	.section	.text.mbedtls_dhm_set_group,"ax",@progbits
	.align	1
	.globl	mbedtls_dhm_set_group
	.type	mbedtls_dhm_set_group, @function
mbedtls_dhm_set_group:
.LFB9:
	.loc 1 266 1 is_stmt 1
	.cfi_startproc
.LVL117:
	.loc 1 267 5
	.loc 1 268 5
	.loc 1 268 10
	.loc 1 268 17
	.loc 1 269 5
	.loc 1 269 10
	.loc 1 269 17
	.loc 1 270 5
	.loc 1 270 10
	.loc 1 270 17
	.loc 1 272 5
	.loc 1 266 1 is_stmt 0
	addi	sp,sp,-32
	.cfi_def_cfa_offset 32
	sw	s3,12(sp)
	.cfi_offset 19, -20
	.loc 1 272 17
	addi	s3,a0,4
	.loc 1 266 1
	sw	s1,20(sp)
	.cfi_offset 9, -12
	mv	s1,a0
	.loc 1 272 17
	mv	a0,s3
.LVL118:
	.loc 1 266 1
	sw	s0,24(sp)
	sw	s2,16(sp)
	sw	ra,28(sp)
	.cfi_offset 8, -8
	.cfi_offset 18, -16
	.cfi_offset 1, -4
	.loc 1 266 1
	mv	s2,a2
	.loc 1 272 17
	call	mbedtls_mpi_copy
.LVL119:
	mv	s0,a0
	.loc 1 272 7
	bne	a0,zero,.L38
	.loc 1 273 17 discriminator 1
	mv	a1,s2
	addi	a0,s1,16
.LVL120:
	call	mbedtls_mpi_copy
.LVL121:
	mv	s0,a0
.LVL122:
	.loc 1 272 55 discriminator 1
	beq	a0,zero,.L39
.LVL123:
.L38:
	.loc 1 275 9 is_stmt 1
	.loc 1 275 25 is_stmt 0
	li	a5,-12288
	addi	a5,a5,-1408
	add	s0,s0,a5
.LVL124:
.L37:
	.loc 1 280 1
	lw	ra,28(sp)
	.cfi_remember_state
	.cfi_restore 1
	mv	a0,s0
	lw	s0,24(sp)
	.cfi_restore 8
	lw	s1,20(sp)
	.cfi_restore 9
.LVL125:
	lw	s2,16(sp)
	.cfi_restore 18
.LVL126:
	lw	s3,12(sp)
	.cfi_restore 19
.LVL127:
	addi	sp,sp,32
	.cfi_def_cfa_offset 0
	jr	ra
.LVL128:
.L39:
	.cfi_restore_state
	.loc 1 278 5 is_stmt 1
	.loc 1 278 16 is_stmt 0
	mv	a0,s3
	call	mbedtls_mpi_size
.LVL129:
	.loc 1 278 14
	sw	a0,0(s1)
	.loc 1 279 5 is_stmt 1
	.loc 1 279 11 is_stmt 0
	j	.L37
	.cfi_endproc
.LFE9:
	.size	mbedtls_dhm_set_group, .-mbedtls_dhm_set_group
	.section	.text.mbedtls_dhm_read_public,"ax",@progbits
	.align	1
	.globl	mbedtls_dhm_read_public
	.type	mbedtls_dhm_read_public, @function
mbedtls_dhm_read_public:
.LFB10:
	.loc 1 287 1 is_stmt 1
	.cfi_startproc
.LVL130:
	.loc 1 288 5
	.loc 1 289 5
	.loc 1 289 10
	.loc 1 289 17
	.loc 1 290 5
	.loc 1 290 10
	.loc 1 290 17
	.loc 1 292 5
	.loc 1 292 7 is_stmt 0
	beq	a2,zero,.L46
	.loc 1 292 18 discriminator 1
	lw	a4,0(a0)
	bltu	a4,a2,.L46
	.loc 1 295 5 is_stmt 1
	.loc 1 287 1 is_stmt 0
	addi	sp,sp,-16
	.cfi_def_cfa_offset 16
	.loc 1 295 17
	addi	a0,a0,52
.LVL131:
	.loc 1 287 1
	sw	ra,12(sp)
	.cfi_offset 1, -4
	.loc 1 295 17
	call	mbedtls_mpi_read_binary
.LVL132:
	.loc 1 295 7
	beq	a0,zero,.L43
	.loc 1 296 9 is_stmt 1
	.loc 1 296 25 is_stmt 0
	li	a5,-12288
	addi	a5,a5,-512
	add	a0,a0,a5
.LVL133:
.L43:
	.loc 1 299 1
	lw	ra,12(sp)
	.cfi_restore 1
	addi	sp,sp,16
	.cfi_def_cfa_offset 0
	jr	ra
.LVL134:
.L46:
	.loc 1 293 15
	li	a0,-12288
.LVL135:
	addi	a0,a0,-128
	.loc 1 299 1
	ret
	.cfi_endproc
.LFE10:
	.size	mbedtls_dhm_read_public, .-mbedtls_dhm_read_public
	.section	.text.mbedtls_dhm_make_public,"ax",@progbits
	.align	1
	.globl	mbedtls_dhm_make_public
	.type	mbedtls_dhm_make_public, @function
mbedtls_dhm_make_public:
.LFB11:
	.loc 1 308 1 is_stmt 1
	.cfi_startproc
.LVL136:
	.loc 1 309 5
	.loc 1 310 5
	.loc 1 310 10
	.loc 1 310 17
	.loc 1 311 5
	.loc 1 311 10
	.loc 1 311 17
	.loc 1 312 5
	.loc 1 312 10
	.loc 1 312 17
	.loc 1 314 5
	.loc 1 314 7 is_stmt 0
	bne	a3,zero,.L55
	.loc 1 315 15
	li	a0,-12288
.LVL137:
	addi	a0,a0,-128
	.loc 1 349 1
	ret
.LVL138:
.L57:
	.cfi_def_cfa_offset 48
	.cfi_offset 1, -4
	.cfi_offset 8, -8
	.cfi_offset 9, -12
	.cfi_offset 18, -16
	.cfi_offset 19, -20
	.cfi_offset 20, -24
	.cfi_offset 21, -28
	.cfi_offset 22, -32
	.cfi_offset 23, -36
	.cfi_offset 24, -40
	.loc 1 315 15
	li	a0,-12288
	addi	a0,a0,-128
.LVL139:
.L54:
	.loc 1 349 1
	lw	ra,44(sp)
	.cfi_restore 1
	lw	s0,40(sp)
	.cfi_restore 8
.LVL140:
	lw	s1,36(sp)
	.cfi_restore 9
.LVL141:
	lw	s2,32(sp)
	.cfi_restore 18
	lw	s3,28(sp)
	.cfi_restore 19
	lw	s4,24(sp)
	.cfi_restore 20
	lw	s5,20(sp)
	.cfi_restore 21
	lw	s6,16(sp)
	.cfi_restore 22
	lw	s7,12(sp)
	.cfi_restore 23
	lw	s8,8(sp)
	.cfi_restore 24
.LVL142:
	addi	sp,sp,48
	.cfi_def_cfa_offset 0
	jr	ra
.LVL143:
.L55:
	.loc 1 308 1 discriminator 1
	addi	sp,sp,-48
	.cfi_def_cfa_offset 48
	sw	s0,40(sp)
	sw	s1,36(sp)
	sw	s8,8(sp)
	sw	ra,44(sp)
	sw	s2,32(sp)
	sw	s3,28(sp)
	sw	s4,24(sp)
	sw	s5,20(sp)
	sw	s6,16(sp)
	sw	s7,12(sp)
	.cfi_offset 8, -8
	.cfi_offset 9, -12
	.cfi_offset 24, -40
	.cfi_offset 1, -4
	.cfi_offset 18, -16
	.cfi_offset 19, -20
	.cfi_offset 20, -24
	.cfi_offset 21, -28
	.cfi_offset 22, -32
	.cfi_offset 23, -36
	mv	s8,a5
	.loc 1 314 18 discriminator 1
	lw	a5,0(a0)
.LVL144:
	mv	s0,a0
	mv	s1,a3
	bltu	a5,a3,.L57
.LVL145:
	.loc 1 317 30
	addi	s2,a0,4
	mv	s6,a1
	.loc 1 317 9
	mv	a0,s2
	li	a1,0
.LVL146:
	mv	s5,a2
	mv	s7,a4
	.loc 1 317 5 is_stmt 1
	.loc 1 317 9 is_stmt 0
	call	mbedtls_mpi_cmp_int
.LVL147:
	.loc 1 317 7
	beq	a0,zero,.L57
	li	s4,12
	.loc 1 325 27
	addi	s3,s0,28
.LVL148:
.L61:
	.loc 1 323 5 is_stmt 1
	.loc 1 325 9
	.loc 1 325 14
	.loc 1 325 27 is_stmt 0
	mv	a3,s8
	mv	a2,s7
	mv	a1,s6
	mv	a0,s3
	call	mbedtls_mpi_fill_random
.LVL149:
.L73:
	.loc 1 328 20
	bne	a0,zero,.L58
	.loc 1 328 96 is_stmt 1 discriminator 2
	.loc 1 327 14 discriminator 2
	.loc 1 327 16 is_stmt 0 discriminator 2
	mv	a1,s2
	mv	a0,s3
.LVL150:
	call	mbedtls_mpi_cmp_mpi
.LVL151:
	.loc 1 327 14 discriminator 2
	bge	a0,zero,.L60
	.loc 1 330 9 is_stmt 1
.LVL152:
	.loc 1 330 11 is_stmt 0
	addi	s4,s4,-1
.LVL153:
	beq	s4,zero,.L62
	.loc 1 333 10 is_stmt 1
	.loc 1 333 12 is_stmt 0
	mv	a1,s2
	mv	a0,s3
	call	dhm_check_range
.LVL154:
	.loc 1 333 5
	bne	a0,zero,.L61
	.loc 1 335 5 is_stmt 1
	.loc 1 335 10
	.loc 1 335 23 is_stmt 0
	addi	s4,s0,40
.LVL155:
	addi	a4,s0,76
	mv	a3,s2
	mv	a2,s3
	addi	a1,s0,16
	mv	a0,s4
	call	mbedtls_mpi_exp_mod
.LVL156:
	.loc 1 335 12
	bne	a0,zero,.L58
	.loc 1 335 124 is_stmt 1 discriminator 2
	.loc 1 338 5 discriminator 2
	.loc 1 338 17 is_stmt 0 discriminator 2
	mv	a1,s2
	mv	a0,s4
.LVL157:
	call	dhm_check_range
.LVL158:
	.loc 1 338 7 discriminator 2
	bne	a0,zero,.L54
	.loc 1 341 5 is_stmt 1
	.loc 1 341 10
	.loc 1 341 23 is_stmt 0
	mv	a2,s1
	mv	a1,s5
	mv	a0,s4
.LVL159:
	call	mbedtls_mpi_write_binary
.LVL160:
.LDL1:
	.loc 1 341 105 is_stmt 1
	.loc 1 345 5
	.loc 1 345 7 is_stmt 0
	beq	a0,zero,.L54
.L58:
	.loc 1 346 9 is_stmt 1
	.loc 1 346 25 is_stmt 0
	li	a5,-12288
	addi	a5,a5,-640
	add	a0,a0,a5
.LVL161:
	j	.L54
.LVL162:
.L60:
	.loc 1 328 13 is_stmt 1
	.loc 1 328 18
	.loc 1 328 31 is_stmt 0
	li	a1,1
	mv	a0,s3
	call	mbedtls_mpi_shift_r
.LVL163:
	j	.L73
.L62:
	.loc 1 331 19
	li	a0,-12288
	addi	a0,a0,-640
	j	.L54
	.cfi_endproc
.LFE11:
	.size	mbedtls_dhm_make_public, .-mbedtls_dhm_make_public
	.section	.text.mbedtls_dhm_calc_secret,"ax",@progbits
	.align	1
	.globl	mbedtls_dhm_calc_secret
	.type	mbedtls_dhm_calc_secret, @function
mbedtls_dhm_calc_secret:
.LFB14:
	.loc 1 451 1 is_stmt 1
	.cfi_startproc
.LVL164:
	.loc 1 452 5
	.loc 1 453 5
	.loc 1 454 5
	.loc 1 454 10
	.loc 1 454 17
	.loc 1 455 5
	.loc 1 455 10
	.loc 1 455 17
	.loc 1 456 5
	.loc 1 456 10
	.loc 1 456 17
	.loc 1 458 5
	.loc 1 451 1 is_stmt 0
	addi	sp,sp,-96
	.cfi_def_cfa_offset 96
	sw	s8,56(sp)
	sw	ra,92(sp)
	sw	s0,88(sp)
	sw	s1,84(sp)
	sw	s2,80(sp)
	sw	s3,76(sp)
	sw	s4,72(sp)
	sw	s5,68(sp)
	sw	s6,64(sp)
	sw	s7,60(sp)
	sw	s9,52(sp)
	.cfi_offset 24, -40
	.cfi_offset 1, -4
	.cfi_offset 8, -8
	.cfi_offset 9, -12
	.cfi_offset 18, -16
	.cfi_offset 19, -20
	.cfi_offset 20, -24
	.cfi_offset 21, -28
	.cfi_offset 22, -32
	.cfi_offset 23, -36
	.cfi_offset 25, -44
	.loc 1 451 1
	mv	s8,a5
	.loc 1 458 7
	lw	a5,0(a0)
.LVL165:
	bgtu	a5,a2,.L87
	.loc 1 461 44
	addi	s4,a0,4
	.loc 1 461 34
	addi	s6,a0,52
	mv	s1,a0
	mv	s2,a1
	.loc 1 461 17
	mv	a0,s6
.LVL166:
	mv	a1,s4
.LVL167:
	mv	s3,a3
	mv	s5,a4
	.loc 1 461 5 is_stmt 1
	.loc 1 461 17 is_stmt 0
	call	dhm_check_range
.LVL168:
	mv	s0,a0
.LVL169:
	.loc 1 461 7
	bne	a0,zero,.L74
	.loc 1 464 5 is_stmt 1
	addi	a0,sp,24
	call	mbedtls_mpi_init
.LVL170:
	.loc 1 467 5
	.loc 1 467 7 is_stmt 0
	beq	s5,zero,.L76
	.loc 1 469 9 is_stmt 1
	.loc 1 469 14
.LVL171:
.LBB4:
.LBB5:
	.loc 1 386 5
	.loc 1 387 5
	.loc 1 389 5
	addi	a0,sp,36
	call	mbedtls_mpi_init
.LVL172:
	.loc 1 395 5
	.loc 1 395 30 is_stmt 0
	addi	s7,s1,28
	.loc 1 395 39
	addi	s0,s1,112
.LVL173:
	.loc 1 395 9
	mv	a1,s0
	mv	a0,s7
	call	mbedtls_mpi_cmp_mpi
.LVL174:
	.loc 1 395 7
	beq	a0,zero,.L77
	.loc 1 397 9 is_stmt 1
	.loc 1 397 14
	.loc 1 397 27 is_stmt 0
	mv	a0,s0
	mv	a1,s7
	call	mbedtls_mpi_copy
.LVL175:
	mv	s0,a0
.LVL176:
	.loc 1 397 16
	bne	a0,zero,.L78
	.loc 1 397 96 is_stmt 1
	.loc 1 398 9
	.loc 1 398 14
	.loc 1 398 27 is_stmt 0
	li	a1,1
	addi	a0,s1,88
	call	mbedtls_mpi_lset
.LVL177:
	mv	s0,a0
.LVL178:
	.loc 1 398 16
	bne	a0,zero,.L78
	.loc 1 398 90 is_stmt 1
	.loc 1 399 9
	.loc 1 399 14
	.loc 1 399 27 is_stmt 0
	li	a1,1
	addi	a0,s1,100
	call	mbedtls_mpi_lset
.LVL179:
.L96:
	.loc 1 414 27
	mv	s0,a0
.LVL180:
	.loc 1 414 16
	bne	a0,zero,.L78
.LVL181:
.L79:
.LBE5:
.LBE4:
	.loc 1 469 99 is_stmt 1 discriminator 2
	.loc 1 470 9 discriminator 2
	.loc 1 470 14 discriminator 2
	.loc 1 470 27 is_stmt 0 discriminator 2
	addi	a2,s1,88
	mv	a1,s6
	addi	a0,sp,24
	call	mbedtls_mpi_mul_mpi
.LVL182:
	mv	s0,a0
.LVL183:
	.loc 1 470 16 discriminator 2
	bne	a0,zero,.L82
	.loc 1 470 106 is_stmt 1 discriminator 2
	.loc 1 471 9 discriminator 2
	.loc 1 471 14 discriminator 2
	.loc 1 471 27 is_stmt 0 discriminator 2
	addi	a1,sp,24
	mv	a2,s4
	mv	a0,a1
	call	mbedtls_mpi_mod_mpi
.LVL184:
.L97:
	mv	s0,a0
.LVL185:
	.loc 1 471 16 discriminator 2
	bne	a0,zero,.L82
	.loc 1 474 93 is_stmt 1
	.loc 1 477 5
	.loc 1 477 10
	.loc 1 477 23 is_stmt 0
	addi	s6,s1,64
	addi	a4,s1,76
	mv	a3,s4
	addi	a2,s1,28
	addi	a1,sp,24
	mv	a0,s6
	call	mbedtls_mpi_exp_mod
.LVL186:
	mv	s0,a0
.LVL187:
	.loc 1 477 12
	bne	a0,zero,.L82
	.loc 1 477 119 is_stmt 1 discriminator 2
	.loc 1 481 5 discriminator 2
	.loc 1 481 7 is_stmt 0 discriminator 2
	bne	s5,zero,.L85
.L86:
	.loc 1 484 107 is_stmt 1
	.loc 1 487 5
	.loc 1 487 13 is_stmt 0
	mv	a0,s6
	call	mbedtls_mpi_size
.LVL188:
	mv	a2,a0
	.loc 1 487 11
	sw	a0,0(s3)
	.loc 1 489 5 is_stmt 1
	.loc 1 489 10
	.loc 1 489 23 is_stmt 0
	mv	a1,s2
	mv	a0,s6
	call	mbedtls_mpi_write_binary
.LVL189:
	mv	s0,a0
.LVL190:
	.loc 1 491 1
	j	.L82
.LVL191:
.L77:
.LBB7:
.LBB6:
	.loc 1 408 5 is_stmt 1
	.loc 1 408 30 is_stmt 0
	addi	s9,s1,88
	.loc 1 408 9
	li	a1,1
	mv	a0,s9
	call	mbedtls_mpi_cmp_int
.LVL192:
	.loc 1 408 7
	beq	a0,zero,.L80
	.loc 1 410 9 is_stmt 1
	.loc 1 410 14
	.loc 1 410 27 is_stmt 0
	mv	a2,s9
	mv	a1,s9
	mv	a0,s9
	call	mbedtls_mpi_mul_mpi
.LVL193:
	mv	s0,a0
.LVL194:
	.loc 1 410 16
	bne	a0,zero,.L78
	.loc 1 410 110 is_stmt 1
	.loc 1 411 9
	.loc 1 411 14
	.loc 1 411 27 is_stmt 0
	mv	a2,s4
	mv	a1,s9
	mv	a0,s9
	call	mbedtls_mpi_mod_mpi
.LVL195:
	mv	s0,a0
.LVL196:
	.loc 1 411 16
	bne	a0,zero,.L78
	.loc 1 411 109 is_stmt 1
	.loc 1 413 9
	.loc 1 413 14
	.loc 1 413 27 is_stmt 0
	addi	a1,s1,100
	mv	a2,a1
	mv	a0,a1
	sw	a1,12(sp)
	call	mbedtls_mpi_mul_mpi
.LVL197:
	mv	s0,a0
.LVL198:
	.loc 1 413 16
	bne	a0,zero,.L78
	.loc 1 413 110 is_stmt 1
	.loc 1 414 9
	.loc 1 414 14
	.loc 1 414 27 is_stmt 0
	lw	a1,12(sp)
	mv	a2,s4
	mv	a0,a1
	call	mbedtls_mpi_mod_mpi
.LVL199:
	j	.L96
.LVL200:
.L80:
	.loc 1 424 5 is_stmt 1
	.loc 1 424 10
	.loc 1 424 23 is_stmt 0
	mv	a3,s8
	mv	a2,s5
	mv	a1,s4
	mv	a0,s9
	call	dhm_random_below
.LVL201:
	mv	s0,a0
.LVL202:
	.loc 1 424 12
	bne	a0,zero,.L78
	.loc 1 424 106 is_stmt 1
	.loc 1 429 5
	.loc 1 429 10
	.loc 1 429 23 is_stmt 0
	mv	a3,s8
	mv	a2,s5
	mv	a1,s4
	addi	a0,sp,36
	call	dhm_random_below
.LVL203:
	mv	s0,a0
.LVL204:
	.loc 1 429 12
	bne	a0,zero,.L78
	.loc 1 429 100 is_stmt 1
	.loc 1 430 5
	.loc 1 430 10
	.loc 1 430 23 is_stmt 0
	addi	s8,s1,100
.LVL205:
	addi	a2,sp,36
	mv	a1,s9
	mv	a0,s8
	call	mbedtls_mpi_mul_mpi
.LVL206:
	mv	s0,a0
.LVL207:
	.loc 1 430 12
	bne	a0,zero,.L78
	.loc 1 430 100 is_stmt 1
	.loc 1 431 5
	.loc 1 431 10
	.loc 1 431 23 is_stmt 0
	mv	a2,s4
	mv	a1,s8
	mv	a0,s8
	call	mbedtls_mpi_mod_mpi
.LVL208:
	mv	s0,a0
.LVL209:
	.loc 1 431 12
	bne	a0,zero,.L78
	.loc 1 431 105 is_stmt 1
	.loc 1 432 5
	.loc 1 432 10
	.loc 1 432 23 is_stmt 0
	mv	a2,s4
	mv	a1,s8
	mv	a0,s8
	call	mbedtls_mpi_inv_mod
.LVL210:
	mv	s0,a0
.LVL211:
	.loc 1 432 12
	bne	a0,zero,.L78
	.loc 1 432 105 is_stmt 1
	.loc 1 433 5
	.loc 1 433 10
	.loc 1 433 23 is_stmt 0
	addi	a2,sp,36
	mv	a1,s8
	mv	a0,s8
	call	mbedtls_mpi_mul_mpi
.LVL212:
	mv	s0,a0
.LVL213:
	.loc 1 433 12
	bne	a0,zero,.L78
	.loc 1 433 100 is_stmt 1
	.loc 1 434 5
	.loc 1 434 10
	.loc 1 434 23 is_stmt 0
	mv	a2,s4
	mv	a1,s8
	mv	a0,s8
	call	mbedtls_mpi_mod_mpi
.LVL214:
	mv	s0,a0
.LVL215:
	.loc 1 434 12
	bne	a0,zero,.L78
	.loc 1 434 105 is_stmt 1
	.loc 1 436 5
	.loc 1 436 10
	.loc 1 436 23 is_stmt 0
	addi	a4,s1,76
	mv	a3,s4
	mv	a2,s7
	mv	a1,s8
	mv	a0,s8
	call	mbedtls_mpi_exp_mod
.LVL216:
	mv	s0,a0
.LVL217:
.L78:
	.loc 1 436 124 is_stmt 1
	.loc 1 439 5
	addi	a0,sp,36
	call	mbedtls_mpi_free
.LVL218:
	.loc 1 441 5
.LBE6:
.LBE7:
	.loc 1 469 16 is_stmt 0
	beq	s0,zero,.L79
.L82:
	.loc 1 489 105 is_stmt 1 discriminator 3
	.loc 1 492 5 discriminator 3
	addi	a0,sp,24
	call	mbedtls_mpi_free
.LVL219:
	.loc 1 494 5 discriminator 3
	.loc 1 494 7 is_stmt 0 discriminator 3
	beq	s0,zero,.L74
	.loc 1 495 9 is_stmt 1
	.loc 1 495 25 is_stmt 0
	li	a5,-12288
	addi	a5,a5,-768
	add	s0,s0,a5
.LVL220:
.L74:
	.loc 1 498 1
	lw	ra,92(sp)
	.cfi_remember_state
	.cfi_restore 1
	mv	a0,s0
	lw	s0,88(sp)
	.cfi_restore 8
	lw	s1,84(sp)
	.cfi_restore 9
	lw	s2,80(sp)
	.cfi_restore 18
	lw	s3,76(sp)
	.cfi_restore 19
	lw	s4,72(sp)
	.cfi_restore 20
	lw	s5,68(sp)
	.cfi_restore 21
	lw	s6,64(sp)
	.cfi_restore 22
	lw	s7,60(sp)
	.cfi_restore 23
	lw	s8,56(sp)
	.cfi_restore 24
	lw	s9,52(sp)
	.cfi_restore 25
	addi	sp,sp,96
	.cfi_def_cfa_offset 0
	jr	ra
.LVL221:
.L76:
	.cfi_restore_state
	.loc 1 474 9 is_stmt 1
	.loc 1 474 14
	.loc 1 474 27 is_stmt 0
	mv	a1,s6
	addi	a0,sp,24
	call	mbedtls_mpi_copy
.LVL222:
	j	.L97
.LVL223:
.L85:
	.loc 1 483 9 is_stmt 1
	.loc 1 483 14
	.loc 1 483 27 is_stmt 0
	addi	a2,s1,100
	mv	a1,s6
	mv	a0,s6
	call	mbedtls_mpi_mul_mpi
.LVL224:
	mv	s0,a0
.LVL225:
	.loc 1 483 16
	bne	a0,zero,.L82
	.loc 1 483 108 is_stmt 1 discriminator 2
	.loc 1 484 9 discriminator 2
	.loc 1 484 14 discriminator 2
	.loc 1 484 27 is_stmt 0 discriminator 2
	mv	a2,s4
	mv	a1,s6
	mv	a0,s6
	call	mbedtls_mpi_mod_mpi
.LVL226:
	mv	s0,a0
.LVL227:
	.loc 1 484 16 discriminator 2
	beq	a0,zero,.L86
	j	.L82
.LVL228:
.L87:
	.loc 1 459 15
	li	a0,-12288
.LVL229:
	addi	s0,a0,-128
	j	.L74
	.cfi_endproc
.LFE14:
	.size	mbedtls_dhm_calc_secret, .-mbedtls_dhm_calc_secret
	.section	.text.mbedtls_dhm_free,"ax",@progbits
	.align	1
	.globl	mbedtls_dhm_free
	.type	mbedtls_dhm_free, @function
mbedtls_dhm_free:
.LFB15:
	.loc 1 504 1 is_stmt 1
	.cfi_startproc
.LVL230:
	.loc 1 505 5
	.loc 1 505 7 is_stmt 0
	beq	a0,zero,.L98
	.loc 1 504 1
	addi	sp,sp,-16
	.cfi_def_cfa_offset 16
	sw	s0,8(sp)
	.cfi_offset 8, -8
	mv	s0,a0
.LVL231:
.LBB10:
.LBB11:
	.loc 1 508 5 is_stmt 1
	addi	a0,a0,112
.LVL232:
.LBE11:
.LBE10:
	.loc 1 504 1 is_stmt 0
	sw	ra,12(sp)
	.cfi_offset 1, -4
.LBB15:
.LBB12:
	.loc 1 508 5
	call	mbedtls_mpi_free
.LVL233:
	.loc 1 509 5 is_stmt 1
	addi	a0,s0,100
	call	mbedtls_mpi_free
.LVL234:
	.loc 1 510 5
	addi	a0,s0,88
	call	mbedtls_mpi_free
.LVL235:
	.loc 1 511 5
	addi	a0,s0,76
	call	mbedtls_mpi_free
.LVL236:
	.loc 1 512 5
	addi	a0,s0,64
	call	mbedtls_mpi_free
.LVL237:
	.loc 1 513 5
	addi	a0,s0,52
	call	mbedtls_mpi_free
.LVL238:
	.loc 1 514 5
	addi	a0,s0,40
	call	mbedtls_mpi_free
.LVL239:
	.loc 1 515 5
	addi	a0,s0,28
	call	mbedtls_mpi_free
.LVL240:
	.loc 1 516 5
	addi	a0,s0,16
	call	mbedtls_mpi_free
.LVL241:
	.loc 1 517 5
	addi	a0,s0,4
	call	mbedtls_mpi_free
.LVL242:
	.loc 1 519 5
	mv	a0,s0
.LBE12:
.LBE15:
	.loc 1 520 1 is_stmt 0
	lw	s0,8(sp)
	.cfi_restore 8
.LVL243:
	lw	ra,12(sp)
	.cfi_restore 1
.LBB16:
.LBB13:
	.loc 1 519 5
	li	a1,124
.LBE13:
.LBE16:
	.loc 1 520 1
	addi	sp,sp,16
	.cfi_def_cfa_offset 0
.LBB17:
.LBB14:
	.loc 1 519 5
	tail	mbedtls_platform_zeroize
.LVL244:
.L98:
	ret
.LBE14:
.LBE17:
	.cfi_endproc
.LFE15:
	.size	mbedtls_dhm_free, .-mbedtls_dhm_free
	.section	.rodata.mbedtls_dhm_parse_dhm.str1.4,"aMS",@progbits,1
	.align	2
.LC0:
	.string	"-----END DH PARAMETERS-----"
	.align	2
.LC1:
	.string	"-----BEGIN DH PARAMETERS-----"
	.section	.text.mbedtls_dhm_parse_dhm,"ax",@progbits
	.align	1
	.globl	mbedtls_dhm_parse_dhm
	.type	mbedtls_dhm_parse_dhm, @function
mbedtls_dhm_parse_dhm:
.LFB16:
	.loc 1 528 1 is_stmt 1
	.cfi_startproc
.LVL245:
	.loc 1 529 5
	.loc 1 530 5
	.loc 1 531 5
	.loc 1 533 5
	.loc 1 536 5
	.loc 1 536 10
	.loc 1 536 17
	.loc 1 537 5
	.loc 1 537 10
	.loc 1 537 17
	.loc 1 540 5
	.loc 1 528 1 is_stmt 0
	addi	sp,sp,-80
	.cfi_def_cfa_offset 80
	sw	s2,64(sp)
	.cfi_offset 18, -16
	mv	s2,a0
	.loc 1 540 5
	addi	a0,sp,24
.LVL246:
	.loc 1 528 1
	sw	s1,68(sp)
	sw	ra,76(sp)
	sw	s0,72(sp)
	sw	s3,60(sp)
	sw	s4,56(sp)
	.cfi_offset 9, -12
	.cfi_offset 1, -4
	.cfi_offset 8, -8
	.cfi_offset 19, -20
	.cfi_offset 20, -24
	.loc 1 528 1
	mv	s1,a1
	sw	a2,12(sp)
	.loc 1 540 5
	call	mbedtls_pem_init
.LVL247:
	.loc 1 543 5 is_stmt 1
	.loc 1 543 18 is_stmt 0
	lw	a5,12(sp)
	.loc 1 543 7
	beq	a5,zero,.L105
	.loc 1 543 31 discriminator 1
	add	a5,s1,a5
	.loc 1 543 23 discriminator 1
	lbu	a5,-1(a5)
	bne	a5,zero,.L105
	.loc 1 546 9 is_stmt 1
	.loc 1 546 15 is_stmt 0
	lui	a2,%hi(.LC0)
	lui	a1,%hi(.LC1)
	addi	a6,sp,12
	li	a4,0
	mv	a3,s1
	addi	a2,a2,%lo(.LC0)
	addi	a1,a1,%lo(.LC1)
	addi	a0,sp,24
	call	mbedtls_pem_read_buffer
.LVL248:
	mv	s0,a0
.LVL249:
	.loc 1 551 5 is_stmt 1
	.loc 1 551 7 is_stmt 0
	bne	a0,zero,.L107
	.loc 1 556 9 is_stmt 1
	.loc 1 556 18 is_stmt 0
	lw	a5,28(sp)
	.loc 1 561 32
	lw	s1,24(sp)
.LVL250:
	.loc 1 556 18
	sw	a5,12(sp)
	.loc 1 561 5 is_stmt 1
.LVL251:
.L105:
	.loc 1 574 17 is_stmt 0 discriminator 4
	lw	a1,12(sp)
	li	a3,48
	addi	a2,sp,16
	add	a1,s1,a1
	addi	a0,sp,20
	.loc 1 561 7 discriminator 4
	sw	s1,20(sp)
	.loc 1 565 5 is_stmt 1 discriminator 4
.LVL252:
	.loc 1 574 5 discriminator 4
	.loc 1 574 17 is_stmt 0 discriminator 4
	call	mbedtls_asn1_get_tag
.LVL253:
	.loc 1 574 7 discriminator 4
	beq	a0,zero,.L109
	.loc 1 577 9 is_stmt 1
	.loc 1 577 13 is_stmt 0
	li	s0,-12288
	addi	s0,s0,-896
	add	s0,a0,s0
.LVL254:
	.loc 1 578 9 is_stmt 1
	j	.L108
.LVL255:
.L107:
	.loc 1 558 10
	.loc 1 558 12 is_stmt 0
	li	a5,-4096
	addi	a5,a5,-128
	beq	a0,a5,.L105
.LVL256:
.L108:
	.loc 1 617 5 is_stmt 1
	addi	a0,sp,24
	call	mbedtls_pem_free
.LVL257:
	.loc 1 619 5
	.loc 1 619 7 is_stmt 0
	beq	s0,zero,.L103
	.loc 1 620 9 is_stmt 1
	mv	a0,s2
	call	mbedtls_dhm_free
.LVL258:
	.loc 1 622 5
.L103:
	.loc 1 623 1 is_stmt 0
	lw	ra,76(sp)
	.cfi_remember_state
	.cfi_restore 1
	mv	a0,s0
	lw	s0,72(sp)
	.cfi_restore 8
	lw	s1,68(sp)
	.cfi_restore 9
	lw	s2,64(sp)
	.cfi_restore 18
.LVL259:
	lw	s3,60(sp)
	.cfi_restore 19
	lw	s4,56(sp)
	.cfi_restore 20
	addi	sp,sp,80
	.cfi_def_cfa_offset 0
	jr	ra
.LVL260:
.L109:
	.cfi_restore_state
	.loc 1 581 5 is_stmt 1
	.loc 1 581 9 is_stmt 0
	lw	a1,16(sp)
	lw	s1,20(sp)
	.loc 1 583 17
	addi	s4,s2,4
	mv	a2,s4
	.loc 1 581 9
	add	s1,s1,a1
.LVL261:
	.loc 1 583 5 is_stmt 1
	.loc 1 583 17 is_stmt 0
	mv	a1,s1
	addi	a0,sp,20
.LVL262:
	call	mbedtls_asn1_get_mpi
.LVL263:
	mv	s0,a0
.LVL264:
	.loc 1 583 7
	bne	a0,zero,.L110
	.loc 1 584 17 discriminator 1
	addi	a2,s2,16
	mv	a1,s1
	addi	a0,sp,20
	call	mbedtls_asn1_get_mpi
.LVL265:
	mv	s0,a0
.LVL266:
	.loc 1 583 65 discriminator 1
	beq	a0,zero,.L111
.L110:
	.loc 1 586 9 is_stmt 1
	.loc 1 586 13 is_stmt 0
	li	a5,-12288
	addi	a5,a5,-896
	add	s0,s0,a5
.LVL267:
	.loc 1 587 9 is_stmt 1
	j	.L108
.L111:
	.loc 1 590 5
	.loc 1 590 7 is_stmt 0
	lw	a5,20(sp)
	beq	a5,s1,.L112
.LBB18:
	.loc 1 594 9 is_stmt 1
	.loc 1 595 9
	addi	a0,sp,36
	call	mbedtls_mpi_init
.LVL268:
	.loc 1 596 9
	.loc 1 596 15 is_stmt 0
	addi	a2,sp,36
	mv	a1,s1
	addi	a0,sp,20
	call	mbedtls_asn1_get_mpi
.LVL269:
	mv	s3,a0
.LVL270:
	.loc 1 597 9 is_stmt 1
	addi	a0,sp,36
.LVL271:
	call	mbedtls_mpi_free
.LVL272:
	.loc 1 598 9
	.loc 1 598 12 is_stmt 0
	beq	s3,zero,.L113
	.loc 1 600 13 is_stmt 1
	.loc 1 600 17 is_stmt 0
	li	s0,-12288
	addi	s0,s0,-896
	add	s0,s3,s0
.LVL273:
	.loc 1 601 13 is_stmt 1
	j	.L108
.LVL274:
.L113:
	.loc 1 603 9
	.loc 1 603 12 is_stmt 0
	lw	a5,20(sp)
	beq	a5,s1,.L112
	.loc 1 605 17
	li	s0,-12288
	addi	s0,s0,-998
.LVL275:
	j	.L108
.LVL276:
.L112:
.LBE18:
	.loc 1 611 5 is_stmt 1
	.loc 1 613 5
	.loc 1 613 16 is_stmt 0
	mv	a0,s4
	call	mbedtls_mpi_size
.LVL277:
	.loc 1 613 14
	sw	a0,0(s2)
	j	.L108
	.cfi_endproc
.LFE16:
	.size	mbedtls_dhm_parse_dhm, .-mbedtls_dhm_parse_dhm
	.section	.rodata.mbedtls_dhm_parse_dhmfile.str1.4,"aMS",@progbits,1
	.align	2
.LC2:
	.string	"rb"
	.align	2
.LC3:
	.string	"-----BEGIN "
	.section	.text.mbedtls_dhm_parse_dhmfile,"ax",@progbits
	.align	1
	.globl	mbedtls_dhm_parse_dhmfile
	.type	mbedtls_dhm_parse_dhmfile, @function
mbedtls_dhm_parse_dhmfile:
.LFB18:
	.loc 1 682 1 is_stmt 1
	.cfi_startproc
.LVL278:
	.loc 1 683 5
	.loc 1 684 5
	.loc 1 685 5
	.loc 1 686 5
	.loc 1 686 10
	.loc 1 686 17
	.loc 1 687 5
	.loc 1 687 10
	.loc 1 687 17
	.loc 1 689 5
	.loc 1 682 1 is_stmt 0
	addi	sp,sp,-32
	.cfi_def_cfa_offset 32
	sw	s4,8(sp)
	.cfi_offset 20, -24
	mv	s4,a0
	mv	a0,a1
.LVL279:
.LBB21:
.LBB22:
	.loc 1 635 5 is_stmt 1
	.loc 1 636 5
	.loc 1 638 5
	.loc 1 638 15 is_stmt 0
	lui	a1,%hi(.LC2)
.LVL280:
	addi	a1,a1,%lo(.LC2)
.LBE22:
.LBE21:
	.loc 1 682 1
	sw	ra,28(sp)
	sw	s0,24(sp)
	sw	s1,20(sp)
	sw	s2,16(sp)
	sw	s3,12(sp)
	sw	s5,4(sp)
	.cfi_offset 1, -4
	.cfi_offset 8, -8
	.cfi_offset 9, -12
	.cfi_offset 18, -16
	.cfi_offset 19, -20
	.cfi_offset 21, -28
.LBB25:
.LBB23:
	.loc 1 638 15
	call	fopen
.LVL281:
	.loc 1 638 7
	beq	a0,zero,.L127
	.loc 1 641 5
	li	a2,2
	li	a1,0
	mv	s0,a0
	.loc 1 641 5 is_stmt 1
	call	fseek
.LVL282:
	.loc 1 642 5
	.loc 1 642 18 is_stmt 0
	mv	a0,s0
	call	ftell
.LVL283:
	.loc 1 642 7
	li	a5,-1
	.loc 1 642 18
	mv	s2,a0
.LVL284:
	.loc 1 642 7
	bne	a0,a5,.L123
	.loc 1 644 9 is_stmt 1
	mv	a0,s0
.LVL285:
	call	fclose
.LVL286:
	.loc 1 645 9
.L127:
	.loc 1 639 15 is_stmt 0
	li	s0,-12288
	addi	s0,s0,-1152
.LVL287:
	j	.L121
.LVL288:
.L123:
	.loc 1 647 5 is_stmt 1
	li	a2,0
	li	a1,0
	mv	a0,s0
.LVL289:
	call	fseek
.LVL290:
	.loc 1 649 5
	.loc 1 652 18 is_stmt 0
	addi	s5,s2,1
	mv	a1,s5
	li	a0,1
	call	mbedtls_calloc
.LVL291:
	.loc 1 649 10
	mv	s3,s2
.LVL292:
	.loc 1 651 5 is_stmt 1
	.loc 1 652 18 is_stmt 0
	mv	s1,a0
.LVL293:
	.loc 1 651 21
	bne	a0,zero,.L124
.LVL294:
	.loc 1 654 9 is_stmt 1
	mv	a0,s0
	.loc 1 655 15 is_stmt 0
	li	s0,-12288
.LVL295:
	.loc 1 654 9
	call	fclose
.LVL296:
	.loc 1 655 9 is_stmt 1
	.loc 1 655 15 is_stmt 0
	addi	s0,s0,-1024
.LVL297:
.L121:
.LBE23:
.LBE25:
	.loc 1 698 1
	lw	ra,28(sp)
	.cfi_remember_state
	.cfi_restore 1
	mv	a0,s0
	lw	s0,24(sp)
	.cfi_restore 8
	lw	s1,20(sp)
	.cfi_restore 9
	lw	s2,16(sp)
	.cfi_restore 18
	lw	s3,12(sp)
	.cfi_restore 19
	lw	s4,8(sp)
	.cfi_restore 20
.LVL298:
	lw	s5,4(sp)
	.cfi_restore 21
	addi	sp,sp,32
	.cfi_def_cfa_offset 0
	jr	ra
.LVL299:
.L124:
	.cfi_restore_state
.LBB26:
.LBB24:
	.loc 1 658 5 is_stmt 1
	.loc 1 658 9 is_stmt 0
	mv	a3,s0
	mv	a2,s2
	li	a1,1
	call	fread
.LVL300:
	.loc 1 658 7
	beq	s2,a0,.L125
	.loc 1 660 9 is_stmt 1
	mv	a0,s0
	call	fclose
.LVL301:
	.loc 1 662 9
	mv	a0,s1
	mv	a1,s5
	call	mbedtls_platform_zeroize
.LVL302:
	.loc 1 663 9
	mv	a0,s1
	call	mbedtls_free
.LVL303:
	.loc 1 665 9
	j	.L127
.L125:
	.loc 1 668 5
	mv	a0,s0
	call	fclose
.LVL304:
	.loc 1 670 5
	.loc 1 670 16 is_stmt 0
	add	a5,s1,s2
	.loc 1 672 9
	lui	a1,%hi(.LC3)
	.loc 1 670 16
	sb	zero,0(a5)
	.loc 1 672 5 is_stmt 1
	.loc 1 672 9 is_stmt 0
	addi	a1,a1,%lo(.LC3)
	mv	a0,s1
	call	strstr
.LVL305:
	.loc 1 672 7
	beq	a0,zero,.L126
	.loc 1 673 9
	mv	s3,s5
.L126:
.LVL306:
.LBE24:
.LBE26:
	.loc 1 692 5 is_stmt 1
	.loc 1 692 11 is_stmt 0
	mv	a2,s3
	mv	a1,s1
	mv	a0,s4
	call	mbedtls_dhm_parse_dhm
.LVL307:
	mv	s0,a0
.LVL308:
	.loc 1 694 5 is_stmt 1
	mv	a1,s3
	mv	a0,s1
	call	mbedtls_platform_zeroize
.LVL309:
	.loc 1 695 5
	mv	a0,s1
	call	mbedtls_free
.LVL310:
	.loc 1 697 5
	.loc 1 697 11 is_stmt 0
	j	.L121
	.cfi_endproc
.LFE18:
	.size	mbedtls_dhm_parse_dhmfile, .-mbedtls_dhm_parse_dhmfile
	.text
.Letext0:
	.file 2 "/mnt/d/GitHub/bl_iot_sdk_for_aithinker/toolchain/riscv/Linux/lib/gcc/riscv64-unknown-elf/10.2.0/include/stddef.h"
	.file 3 "/mnt/d/GitHub/bl_iot_sdk_for_aithinker/toolchain/riscv/Linux/lib/gcc/riscv64-unknown-elf/10.2.0/include/stdint-gcc.h"
	.file 4 "/mnt/d/GitHub/bl_iot_sdk_for_aithinker/toolchain/riscv/Linux/riscv64-unknown-elf/include/sys/_types.h"
	.file 5 "/mnt/d/GitHub/bl_iot_sdk_for_aithinker/toolchain/riscv/Linux/riscv64-unknown-elf/include/sys/reent.h"
	.file 6 "/mnt/d/GitHub/bl_iot_sdk_for_aithinker/toolchain/riscv/Linux/riscv64-unknown-elf/include/sys/lock.h"
	.file 7 "/mnt/d/GitHub/bl_iot_sdk_for_aithinker/toolchain/riscv/Linux/riscv64-unknown-elf/include/stdio.h"
	.file 8 "/mnt/d/GitHub/bl_iot_sdk_for_aithinker/components/security/mbedtls_lts/mbedtls/include/mbedtls/bignum.h"
	.file 9 "/mnt/d/GitHub/bl_iot_sdk_for_aithinker/components/security/mbedtls_lts/mbedtls/include/mbedtls/dhm.h"
	.file 10 "/mnt/d/GitHub/bl_iot_sdk_for_aithinker/components/security/mbedtls_lts/mbedtls/include/mbedtls/pem.h"
	.file 11 "/mnt/d/GitHub/bl_iot_sdk_for_aithinker/components/security/mbedtls_lts/mbedtls/include/mbedtls/platform.h"
	.file 12 "/mnt/d/GitHub/bl_iot_sdk_for_aithinker/components/security/mbedtls_lts/mbedtls/include/mbedtls/platform_util.h"
	.file 13 "/mnt/d/GitHub/bl_iot_sdk_for_aithinker/toolchain/riscv/Linux/riscv64-unknown-elf/include/string.h"
	.file 14 "/mnt/d/GitHub/bl_iot_sdk_for_aithinker/components/security/mbedtls_lts/mbedtls/include/mbedtls/asn1.h"