	.file	"ecdh.c"
	.option nopic
	.attribute arch, "rv32i2p0_m2p0_f2p0_c2p0"
	.attribute unaligned_access, 0
	.attribute stack_align, 16
	.text
.Ltext0:
	.cfi_sections	.debug_frame
	.section	.text.mbedtls_ecdh_gen_public,"ax",@progbits
	.align	1
	.globl	mbedtls_ecdh_gen_public
	.type	mbedtls_ecdh_gen_public, @function
mbedtls_ecdh_gen_public:
.LFB6:
	.file 1 "/mnt/d/GitHub/bl_iot_sdk_for_aithinker/components/security/mbedtls_lts/mbedtls/library/ecdh.c"
	.loc 1 122 1
	.cfi_startproc
.LVL0:
	.loc 1 123 5
	.loc 1 123 10
	.loc 1 123 17
	.loc 1 124 5
	.loc 1 124 10
	.loc 1 124 17
	.loc 1 125 5
	.loc 1 125 10
	.loc 1 125 17
	.loc 1 126 5
	.loc 1 126 10
	.loc 1 126 17
	.loc 1 127 5
	.loc 1 122 1 is_stmt 0
	addi	sp,sp,-48
	.cfi_def_cfa_offset 48
	sw	s1,36(sp)
	.cfi_offset 9, -12
	mv	s1,a3
	sw	s2,32(sp)
.LBB12:
.LBB13:
	.loc 1 107 27
	mv	a3,a4
.LVL1:
	.cfi_offset 18, -16
.LBE13:
.LBE12:
	.loc 1 122 1
	mv	s2,a2
.LBB21:
.LBB14:
	.loc 1 107 27
	mv	a2,s1
.LVL2:
.LBE14:
.LBE21:
	.loc 1 122 1
	sw	s0,40(sp)
	sw	s3,28(sp)
	sw	ra,44(sp)
	.cfi_offset 8, -8
	.cfi_offset 19, -20
	.cfi_offset 1, -4
	.loc 1 122 1
	mv	s0,a0
.LVL3:
	mv	s3,a1
.LVL4:
.LBB22:
.LBB15:
	.loc 1 101 5 is_stmt 1
	.loc 1 107 9
	.loc 1 107 14
	.loc 1 107 27 is_stmt 0
	sw	a4,12(sp)
	call	mbedtls_ecp_gen_privkey
.LVL5:
	.loc 1 107 16
	bne	a0,zero,.L1
	.loc 1 107 106 is_stmt 1
	.loc 1 109 5
	.loc 1 109 10
	.loc 1 109 23 is_stmt 0
	addi	a3,s0,40
	mv	a0,s0
.LVL6:
.LBE15:
.LBE22:
	.loc 1 128 1
	lw	s0,40(sp)
	.cfi_remember_state
	.cfi_restore 8
.LVL7:
.LBB23:
.LBB16:
	.loc 1 109 23
	lw	a5,12(sp)
.LBE16:
.LBE23:
	.loc 1 128 1
	lw	ra,44(sp)
	.cfi_restore 1
.LBB24:
.LBB17:
	.loc 1 109 23
	mv	a4,s1
	mv	a2,s3
.LBE17:
.LBE24:
	.loc 1 128 1
	lw	s1,36(sp)
	.cfi_restore 9
.LVL8:
	lw	s3,28(sp)
	.cfi_restore 19
.LVL9:
.LBB25:
.LBB18:
	.loc 1 109 23
	mv	a1,s2
.LBE18:
.LBE25:
	.loc 1 128 1
	lw	s2,32(sp)
	.cfi_restore 18
.LVL10:
.LBB26:
.LBB19:
	.loc 1 109 23
	li	a6,0
.LBE19:
.LBE26:
	.loc 1 128 1
	addi	sp,sp,48
	.cfi_def_cfa_offset 0
.LVL11:
.LBB27:
.LBB20:
	.loc 1 109 23
	tail	mbedtls_ecp_mul_restartable
.LVL12:
.L2:
.L1:
	.cfi_restore_state
.LBE20:
.LBE27:
	.loc 1 128 1
	lw	ra,44(sp)
	.cfi_restore 1
	lw	s0,40(sp)
	.cfi_restore 8
.LVL13:
	lw	s1,36(sp)
	.cfi_restore 9
.LVL14:
	lw	s2,32(sp)
	.cfi_restore 18
.LVL15:
	lw	s3,28(sp)
	.cfi_restore 19
.LVL16:
	addi	sp,sp,48
	.cfi_def_cfa_offset 0
.LVL17:
	jr	ra
	.cfi_endproc
.LFE6:
	.size	mbedtls_ecdh_gen_public, .-mbedtls_ecdh_gen_public
	.section	.text.mbedtls_ecdh_compute_shared,"ax",@progbits
	.align	1
	.globl	mbedtls_ecdh_compute_shared
	.type	mbedtls_ecdh_compute_shared, @function
mbedtls_ecdh_compute_shared:
.LFB8:
	.loc 1 171 1 is_stmt 1
	.cfi_startproc
.LVL18:
	.loc 1 172 5
	.loc 1 172 10
	.loc 1 172 17
	.loc 1 173 5
	.loc 1 173 10
	.loc 1 173 17
	.loc 1 174 5
	.loc 1 174 10
	.loc 1 174 17
	.loc 1 175 5
	.loc 1 175 10
	.loc 1 175 17
	.loc 1 176 5
	.loc 1 171 1 is_stmt 0
	addi	sp,sp,-96
	.cfi_def_cfa_offset 96
	sw	s0,88(sp)
	.cfi_offset 8, -8
	mv	s0,a0
.LVL19:
.LBB30:
.LBB31:
	.loc 1 145 5
	addi	a0,sp,28
.LVL20:
.LBE31:
.LBE30:
	.loc 1 171 1
	sw	ra,92(sp)
	sw	s1,84(sp)
	sw	s2,80(sp)
	sw	s3,76(sp)
	.cfi_offset 1, -4
	.cfi_offset 9, -12
	.cfi_offset 18, -16
	.cfi_offset 19, -20
	.loc 1 171 1
	mv	s2,a3
	mv	s3,a2
	mv	s1,a1
.LVL21:
.LBB35:
.LBB32:
	.loc 1 142 5 is_stmt 1
	.loc 1 143 5
	.loc 1 145 5
.LBE32:
.LBE35:
	.loc 1 171 1 is_stmt 0
	sw	a4,12(sp)
.LVL22:
	sw	a5,8(sp)
.LVL23:
.LBB36:
.LBB33:
	.loc 1 145 5
	call	mbedtls_ecp_point_init
.LVL24:
	.loc 1 147 5 is_stmt 1
	.loc 1 147 10
	.loc 1 147 23 is_stmt 0
	lw	a5,8(sp)
	lw	a4,12(sp)
	mv	a0,s0
	li	a6,0
	mv	a3,s3
	mv	a2,s2
	addi	a1,sp,28
	call	mbedtls_ecp_mul_restartable
.LVL25:
	mv	s0,a0
.LVL26:
	.loc 1 147 12
	bne	a0,zero,.L5
	.loc 1 147 121 is_stmt 1
	.loc 1 150 5
	.loc 1 150 9 is_stmt 0
	addi	a0,sp,28
	call	mbedtls_ecp_is_zero
.LVL27:
	.loc 1 150 7
	bne	a0,zero,.L6
	.loc 1 156 5 is_stmt 1
	.loc 1 156 10
	.loc 1 156 23 is_stmt 0
	addi	a1,sp,28
	mv	a0,s1
	call	mbedtls_mpi_copy
.LVL28:
	mv	s0,a0
.LVL29:
.L5:
	.loc 1 156 82 is_stmt 1
	.loc 1 159 5
	addi	a0,sp,28
	call	mbedtls_ecp_point_free
.LVL30:
	.loc 1 161 5
.LBE33:
.LBE36:
	.loc 1 178 1 is_stmt 0
	lw	ra,92(sp)
	.cfi_remember_state
	.cfi_restore 1
	mv	a0,s0
	lw	s0,88(sp)
	.cfi_restore 8
	lw	s1,84(sp)
	.cfi_restore 9
.LVL31:
	lw	s2,80(sp)
	.cfi_restore 18
.LVL32:
	lw	s3,76(sp)
	.cfi_restore 19
.LVL33:
	addi	sp,sp,96
	.cfi_def_cfa_offset 0
.LVL34:
	jr	ra
.LVL35:
.L6:
	.cfi_restore_state
.LBB37:
.LBB34:
	.loc 1 152 13
	li	s0,-20480
.LVL36:
	addi	s0,s0,128
	j	.L5
.LBE34:
.LBE37:
	.cfi_endproc
.LFE8:
	.size	mbedtls_ecdh_compute_shared, .-mbedtls_ecdh_compute_shared
	.section	.text.mbedtls_ecdh_init,"ax",@progbits
	.align	1
	.globl	mbedtls_ecdh_init
	.type	mbedtls_ecdh_init, @function
mbedtls_ecdh_init:
.LFB10:
	.loc 1 198 1 is_stmt 1
	.cfi_startproc
.LVL37:
	.loc 1 199 5
	.loc 1 199 10
	.loc 1 199 17
	.loc 1 202 5
	.loc 1 198 1 is_stmt 0
	addi	sp,sp,-16
	.cfi_def_cfa_offset 16
	sw	ra,12(sp)
	sw	s0,8(sp)
	.cfi_offset 1, -4
	.cfi_offset 8, -8
	.loc 1 198 1
	mv	s0,a0
.LVL38:
.LBB40:
.LBB41:
	.loc 1 183 5 is_stmt 1
	call	mbedtls_ecp_group_init
.LVL39:
	.loc 1 184 5
	addi	a0,s0,124
	call	mbedtls_mpi_init
.LVL40:
	.loc 1 185 5
	addi	a0,s0,136
	call	mbedtls_ecp_point_init
.LVL41:
	.loc 1 186 5
	addi	a0,s0,172
	call	mbedtls_ecp_point_init
.LVL42:
	.loc 1 187 5
	addi	a0,s0,208
	call	mbedtls_mpi_init
.LVL43:
.LBE41:
.LBE40:
	.loc 1 203 5
	addi	a0,s0,224
	call	mbedtls_ecp_point_init
.LVL44:
	.loc 1 204 5
	addi	a0,s0,260
	call	mbedtls_ecp_point_init
.LVL45:
	.loc 1 205 5
	addi	a0,s0,296
	call	mbedtls_mpi_init
.LVL46:
	.loc 1 211 5
	.loc 1 215 1 is_stmt 0
	lw	ra,12(sp)
	.cfi_restore 1
	.loc 1 211 23
	sw	zero,220(s0)
	.loc 1 215 1
	lw	s0,8(sp)
	.cfi_restore 8
.LVL47:
	addi	sp,sp,16
	.cfi_def_cfa_offset 0
	jr	ra
	.cfi_endproc
.LFE10:
	.size	mbedtls_ecdh_init, .-mbedtls_ecdh_init
	.section	.text.mbedtls_ecdh_setup,"ax",@progbits
	.align	1
	.globl	mbedtls_ecdh_setup
	.type	mbedtls_ecdh_setup, @function
mbedtls_ecdh_setup:
.LFB12:
	.loc 1 235 1 is_stmt 1
	.cfi_startproc
.LVL48:
	.loc 1 236 5
	.loc 1 236 10
	.loc 1 236 17
	.loc 1 239 5
.LBB44:
.LBB45:
	.loc 1 220 5
	.loc 1 222 5
.LBE45:
.LBE44:
	.loc 1 235 1 is_stmt 0
	addi	sp,sp,-16
	.cfi_def_cfa_offset 16
	sw	ra,12(sp)
	.cfi_offset 1, -4
.LBB47:
.LBB46:
	.loc 1 222 11
	call	mbedtls_ecp_group_load
.LVL49:
	.loc 1 223 5 is_stmt 1
	.loc 1 223 7 is_stmt 0
	beq	a0,zero,.L10
	.loc 1 225 15
	li	a0,-20480
.LVL50:
	addi	a0,a0,384
.LVL51:
.L10:
.LBE46:
.LBE47:
	.loc 1 251 1
	lw	ra,12(sp)
	.cfi_restore 1
	addi	sp,sp,16
	.cfi_def_cfa_offset 0
	jr	ra
	.cfi_endproc
.LFE12:
	.size	mbedtls_ecdh_setup, .-mbedtls_ecdh_setup
	.section	.text.mbedtls_ecdh_free,"ax",@progbits
	.align	1
	.globl	mbedtls_ecdh_free
	.type	mbedtls_ecdh_free, @function
mbedtls_ecdh_free:
.LFB14:
	.loc 1 282 1 is_stmt 1
	.cfi_startproc
.LVL52:
	.loc 1 283 5
	.loc 1 283 7 is_stmt 0
	beq	a0,zero,.L16
	.loc 1 282 1
	addi	sp,sp,-16
	.cfi_def_cfa_offset 16
	sw	s0,8(sp)
	.cfi_offset 8, -8
	mv	s0,a0
	.loc 1 287 5 is_stmt 1
	addi	a0,a0,224
.LVL53:
	.loc 1 282 1 is_stmt 0
	sw	ra,12(sp)
	.cfi_offset 1, -4
	.loc 1 287 5
	call	mbedtls_ecp_point_free
.LVL54:
	.loc 1 288 5 is_stmt 1
	addi	a0,s0,260
	call	mbedtls_ecp_point_free
.LVL55:
	.loc 1 289 5
	addi	a0,s0,296
	call	mbedtls_mpi_free
.LVL56:
	.loc 1 290 5
.LBB50:
.LBB51:
	.loc 1 255 5
	mv	a0,s0
	call	mbedtls_ecp_group_free
.LVL57:
	.loc 1 256 5
	addi	a0,s0,124
	call	mbedtls_mpi_free
.LVL58:
	.loc 1 257 5
	addi	a0,s0,136
	call	mbedtls_ecp_point_free
.LVL59:
	.loc 1 258 5
	addi	a0,s0,172
	call	mbedtls_ecp_point_free
.LVL60:
	.loc 1 259 5
	addi	a0,s0,208
.LBE51:
.LBE50:
	.loc 1 305 1 is_stmt 0
	lw	s0,8(sp)
	.cfi_restore 8
.LVL61:
	lw	ra,12(sp)
	.cfi_restore 1
	addi	sp,sp,16
	.cfi_def_cfa_offset 0
.LBB53:
.LBB52:
	.loc 1 259 5
	tail	mbedtls_mpi_free
.LVL62:
.L16:
	ret
.LBE52:
.LBE53:
	.cfi_endproc
.LFE14:
	.size	mbedtls_ecdh_free, .-mbedtls_ecdh_free
	.section	.text.mbedtls_ecdh_make_params,"ax",@progbits
	.align	1
	.globl	mbedtls_ecdh_make_params
	.type	mbedtls_ecdh_make_params, @function
mbedtls_ecdh_make_params:
.LFB16:
	.loc 1 369 1 is_stmt 1
	.cfi_startproc
.LVL63:
	.loc 1 370 5
	.loc 1 371 5
	.loc 1 371 10
	.loc 1 371 17
	.loc 1 372 5
	.loc 1 372 10
	.loc 1 372 17
	.loc 1 373 5
	.loc 1 373 10
	.loc 1 373 17
	.loc 1 374 5
	.loc 1 374 10
	.loc 1 374 17
	.loc 1 379 5
	.loc 1 383 5
	.loc 1 369 1 is_stmt 0
	addi	sp,sp,-48
	.cfi_def_cfa_offset 48
	sw	s2,32(sp)
	sw	ra,44(sp)
	sw	s0,40(sp)
	sw	s1,36(sp)
	sw	s3,28(sp)
	sw	s4,24(sp)
	sw	s5,20(sp)
	.cfi_offset 18, -16
	.cfi_offset 1, -4
	.cfi_offset 8, -8
	.cfi_offset 9, -12
	.cfi_offset 19, -20
	.cfi_offset 20, -24
	.cfi_offset 21, -28
	.loc 1 369 1
	mv	s2,a3
	mv	a3,a4
.LVL64:
	mv	a4,a5
.LVL65:
.LBB56:
.LBB57:
	.loc 1 322 7
	lw	a5,88(a0)
.LVL66:
.LBE57:
.LBE56:
	.loc 1 383 13
	lw	s5,220(a0)
.LVL67:
.LBB60:
.LBB58:
	.loc 1 316 5 is_stmt 1
	.loc 1 317 5
	.loc 1 322 5
	.loc 1 322 7 is_stmt 0
	beq	a5,zero,.L23
	.loc 1 338 17
	addi	s4,a0,136
	mv	s3,a1
	mv	s1,a2
	.loc 1 329 5 is_stmt 1
	.loc 1 338 5
	.loc 1 338 17 is_stmt 0
	addi	a1,a0,124
.LVL68:
	mv	a2,s4
.LVL69:
	mv	s0,a0
	call	mbedtls_ecdh_gen_public
.LVL70:
	.loc 1 338 7
	bne	a0,zero,.L21
	.loc 1 343 5 is_stmt 1
	.loc 1 343 17 is_stmt 0
	mv	a3,s2
	mv	a2,s1
	addi	a1,sp,8
	mv	a0,s0
.LVL71:
	call	mbedtls_ecp_tls_write_group
.LVL72:
	.loc 1 343 7
	bne	a0,zero,.L21
	.loc 1 347 5 is_stmt 1
	.loc 1 347 9 is_stmt 0
	lw	a4,8(sp)
.LVL73:
	.loc 1 348 5 is_stmt 1
	.loc 1 350 5
	.loc 1 350 17 is_stmt 0
	addi	a3,sp,12
	mv	a2,s5
	sub	a5,s2,a4
.LVL74:
	mv	a1,s4
	add	a4,s1,a4
.LVL75:
	mv	a0,s0
.LVL76:
	call	mbedtls_ecp_tls_write_point
.LVL77:
	.loc 1 350 7
	bne	a0,zero,.L21
	.loc 1 354 5 is_stmt 1
	.loc 1 354 21 is_stmt 0
	lw	a5,8(sp)
	lw	a4,12(sp)
	add	a5,a5,a4
	.loc 1 354 11
	sw	a5,0(s3)
	.loc 1 355 5 is_stmt 1
.LVL78:
.L21:
.LBE58:
.LBE60:
	.loc 1 397 1 is_stmt 0
	lw	ra,44(sp)
	.cfi_remember_state
	.cfi_restore 1
	lw	s0,40(sp)
	.cfi_restore 8
	lw	s1,36(sp)
	.cfi_restore 9
	lw	s2,32(sp)
	.cfi_restore 18
.LVL79:
	lw	s3,28(sp)
	.cfi_restore 19
	lw	s4,24(sp)
	.cfi_restore 20
	lw	s5,20(sp)
	.cfi_restore 21
	addi	sp,sp,48
	.cfi_def_cfa_offset 0
	jr	ra
.LVL80:
.L23:
	.cfi_restore_state
.LBB61:
.LBB59:
	.loc 1 323 15
	li	a0,-20480
.LVL81:
	addi	a0,a0,128
.LVL82:
.LBE59:
.LBE61:
	.loc 1 383 13
	j	.L21
	.cfi_endproc
.LFE16:
	.size	mbedtls_ecdh_make_params, .-mbedtls_ecdh_make_params
	.section	.text.mbedtls_ecdh_read_params,"ax",@progbits
	.align	1
	.globl	mbedtls_ecdh_read_params
	.type	mbedtls_ecdh_read_params, @function
mbedtls_ecdh_read_params:
.LFB18:
	.loc 1 417 1 is_stmt 1
	.cfi_startproc
.LVL83:
	.loc 1 418 5
	.loc 1 419 5
	.loc 1 420 5
	.loc 1 420 10
	.loc 1 420 17
	.loc 1 421 5
	.loc 1 421 10
	.loc 1 421 17
	.loc 1 422 5
	.loc 1 422 10
	.loc 1 422 17
	.loc 1 423 5
	.loc 1 423 10
	.loc 1 423 17
	.loc 1 425 5
	.loc 1 417 1 is_stmt 0
	addi	sp,sp,-32
	.cfi_def_cfa_offset 32
	sw	s0,24(sp)
	sw	s1,20(sp)
	sw	s2,16(sp)
	sw	ra,28(sp)
	.cfi_offset 8, -8
	.cfi_offset 9, -12
	.cfi_offset 18, -16
	.cfi_offset 1, -4
	.loc 1 417 1
	mv	s2,a2
	.loc 1 425 66
	lw	a2,0(a1)
.LVL84:
	.loc 1 417 1
	mv	s0,a0
	.loc 1 425 17
	addi	a0,sp,12
.LVL85:
	sub	a2,s2,a2
	.loc 1 417 1
	mv	s1,a1
	.loc 1 425 17
	call	mbedtls_ecp_tls_read_group_id
.LVL86:
	.loc 1 425 7
	bne	a0,zero,.L25
	.loc 1 429 5 is_stmt 1
.LVL87:
	.loc 1 236 5
	.loc 1 236 10
	.loc 1 236 17
	.loc 1 239 5
.LBB68:
.LBB69:
.LBB70:
	.loc 1 220 5
	.loc 1 222 5
	.loc 1 222 11 is_stmt 0
	lw	a1,12(sp)
	mv	a0,s0
.LVL88:
	call	mbedtls_ecp_group_load
.LVL89:
	.loc 1 223 5 is_stmt 1
	.loc 1 223 7 is_stmt 0
	bne	a0,zero,.L27
.LVL90:
.LBE70:
.LBE69:
.LBE68:
	.loc 1 433 5 is_stmt 1
.LBB73:
.LBB74:
	.loc 1 403 5
	.loc 1 404 45 is_stmt 0
	lw	a3,0(s1)
	.loc 1 403 13
	mv	a2,s1
	addi	a1,s0,172
	sub	a3,s2,a3
	mv	a0,s0
	call	mbedtls_ecp_tls_read_point
.LVL91:
.L25:
.LBE74:
.LBE73:
	.loc 1 444 1
	lw	ra,28(sp)
	.cfi_remember_state
	.cfi_restore 1
	lw	s0,24(sp)
	.cfi_restore 8
.LVL92:
	lw	s1,20(sp)
	.cfi_restore 9
.LVL93:
	lw	s2,16(sp)
	.cfi_restore 18
.LVL94:
	addi	sp,sp,32
	.cfi_def_cfa_offset 0
	jr	ra
.LVL95:
.L27:
	.cfi_restore_state
.LBB75:
.LBB72:
.LBB71:
	.loc 1 225 15
	li	a0,-20480
.LVL96:
	addi	a0,a0,384
.LVL97:
	j	.L25
.LBE71:
.LBE72:
.LBE75:
	.cfi_endproc
.LFE18:
	.size	mbedtls_ecdh_read_params, .-mbedtls_ecdh_read_params
	.section	.text.mbedtls_ecdh_get_params,"ax",@progbits
	.align	1
	.globl	mbedtls_ecdh_get_params
	.type	mbedtls_ecdh_get_params, @function
mbedtls_ecdh_get_params:
.LFB20:
	.loc 1 473 1 is_stmt 1
	.cfi_startproc
.LVL98:
	.loc 1 474 5
	.loc 1 475 5
	.loc 1 475 10
	.loc 1 475 17
	.loc 1 476 5
	.loc 1 476 10
	.loc 1 476 17
	.loc 1 477 5
	.loc 1 477 10
	.loc 1 477 17
	.loc 1 480 5
.LBB84:
.LBB85:
	.loc 1 81 5
.LBE85:
.LBE84:
	.loc 1 473 1 is_stmt 0
	addi	sp,sp,-16
	.cfi_def_cfa_offset 16
	sw	s0,8(sp)
	sw	s1,4(sp)
	sw	s2,0(sp)
	sw	ra,12(sp)
	.cfi_offset 8, -8
	.cfi_offset 9, -12
	.cfi_offset 18, -16
	.cfi_offset 1, -4
.LBB87:
.LBB86:
	.loc 1 81 21
	lw	a5,0(a0)
.LVL99:
.LBE86:
.LBE87:
	.loc 1 473 1
	mv	s1,a1
	mv	s0,a0
	.loc 1 484 21
	lw	a1,0(a1)
.LVL100:
	.loc 1 473 1
	mv	s2,a2
	.loc 1 480 7
	bne	a5,zero,.L30
	.loc 1 484 9 is_stmt 1
.LVL101:
	.loc 1 236 5
	.loc 1 236 10
	.loc 1 236 17
	.loc 1 239 5
.LBB88:
.LBB89:
.LBB90:
	.loc 1 220 5
	.loc 1 222 5
	.loc 1 222 11 is_stmt 0
	call	mbedtls_ecp_group_load
.LVL102:
	.loc 1 223 5 is_stmt 1
	.loc 1 223 7 is_stmt 0
	bne	a0,zero,.L36
.LVL103:
.L34:
.LBE90:
.LBE89:
.LBE88:
	.loc 1 497 5 is_stmt 1
.LBB93:
.LBB94:
	.loc 1 450 5
	.loc 1 453 5
	.loc 1 453 7 is_stmt 0
	li	a5,1
	bne	s2,a5,.L37
	.loc 1 454 9 is_stmt 1
	.loc 1 454 17 is_stmt 0
	addi	a0,s0,172
.LBE94:
.LBE93:
	.loc 1 508 1
	lw	s0,8(sp)
	.cfi_remember_state
	.cfi_restore 8
.LVL104:
	lw	ra,12(sp)
	.cfi_restore 1
	lw	s2,0(sp)
	.cfi_restore 18
.LVL105:
.LBB100:
.LBB95:
	.loc 1 454 17
	addi	a1,s1,136
.LBE95:
.LBE100:
	.loc 1 508 1
	lw	s1,4(sp)
	.cfi_restore 9
.LVL106:
	addi	sp,sp,16
	.cfi_def_cfa_offset 0
.LBB101:
.LBB96:
	.loc 1 454 17
	tail	mbedtls_ecp_copy
.LVL107:
.L30:
	.cfi_restore_state
.LBE96:
.LBE101:
	.loc 1 492 9 is_stmt 1
	.loc 1 81 5
	.loc 1 492 11 is_stmt 0
	beq	a5,a1,.L34
.LVL108:
.L35:
	.loc 1 493 19
	li	a0,-20480
	addi	a0,a0,128
.L29:
	.loc 1 508 1
	lw	ra,12(sp)
	.cfi_remember_state
	.cfi_restore 1
	lw	s0,8(sp)
	.cfi_restore 8
.LVL109:
	lw	s1,4(sp)
	.cfi_restore 9
.LVL110:
	lw	s2,0(sp)
	.cfi_restore 18
.LVL111:
	addi	sp,sp,16
	.cfi_def_cfa_offset 0
	jr	ra
.LVL112:
.L37:
	.cfi_restore_state
.LBB102:
.LBB97:
	.loc 1 457 5 is_stmt 1
	.loc 1 457 7 is_stmt 0
	bne	s2,zero,.L35
	.loc 1 460 5 is_stmt 1
	.loc 1 460 17 is_stmt 0
	addi	a1,s1,136
	addi	a0,s0,136
	call	mbedtls_ecp_copy
.LVL113:
	.loc 1 460 7
	bne	a0,zero,.L29
	.loc 1 461 17
	addi	a0,s0,124
.LVL114:
.LBE97:
.LBE102:
	.loc 1 508 1
	lw	s0,8(sp)
	.cfi_remember_state
	.cfi_restore 8
.LVL115:
	lw	ra,12(sp)
	.cfi_restore 1
	lw	s2,0(sp)
	.cfi_restore 18
.LVL116:
.LBB103:
.LBB98:
	.loc 1 461 17
	addi	a1,s1,124
.LBE98:
.LBE103:
	.loc 1 508 1
	lw	s1,4(sp)
	.cfi_restore 9
.LVL117:
	addi	sp,sp,16
	.cfi_def_cfa_offset 0
.LBB104:
.LBB99:
	.loc 1 461 17
	tail	mbedtls_mpi_copy
.LVL118:
.L36:
	.cfi_restore_state
.LBE99:
.LBE104:
.LBB105:
.LBB92:
.LBB91:
	.loc 1 225 15
	li	a0,-20480
.LVL119:
	addi	a0,a0,384
.LVL120:
	j	.L29
.LBE91:
.LBE92:
.LBE105:
	.cfi_endproc
.LFE20:
	.size	mbedtls_ecdh_get_params, .-mbedtls_ecdh_get_params
	.section	.text.mbedtls_ecdh_make_public,"ax",@progbits
	.align	1
	.globl	mbedtls_ecdh_make_public
	.type	mbedtls_ecdh_make_public, @function
mbedtls_ecdh_make_public:
.LFB22:
	.loc 1 555 1 is_stmt 1
	.cfi_startproc
.LVL121:
	.loc 1 556 5
	.loc 1 557 5
	.loc 1 557 10
	.loc 1 557 17
	.loc 1 558 5
	.loc 1 558 10
	.loc 1 558 17
	.loc 1 559 5
	.loc 1 559 10
	.loc 1 559 17
	.loc 1 560 5
	.loc 1 560 10
	.loc 1 560 17
	.loc 1 567 5
	.loc 1 555 1 is_stmt 0
	addi	sp,sp,-32
	.cfi_def_cfa_offset 32
	sw	s3,12(sp)
	sw	ra,28(sp)
	sw	s0,24(sp)
	sw	s1,20(sp)
	sw	s2,16(sp)
	sw	s4,8(sp)
	sw	s5,4(sp)
	.cfi_offset 19, -20
	.cfi_offset 1, -4
	.cfi_offset 8, -8
	.cfi_offset 9, -12
	.cfi_offset 18, -16
	.cfi_offset 20, -24
	.cfi_offset 21, -28
	.loc 1 555 1
	mv	s3,a3
	mv	a3,a4
.LVL122:
	mv	a4,a5
.LVL123:
.LBB108:
.LBB109:
	.loc 1 524 7
	lw	a5,88(a0)
.LVL124:
.LBE109:
.LBE108:
	.loc 1 567 13
	lw	s5,220(a0)
.LVL125:
.LBB115:
.LBB110:
	.loc 1 519 5 is_stmt 1
	.loc 1 524 5
	.loc 1 524 7 is_stmt 0
	beq	a5,zero,.L41
	.loc 1 539 17
	addi	s4,a0,136
	mv	s1,a1
	mv	s2,a2
	.loc 1 531 5 is_stmt 1
	.loc 1 539 5
	.loc 1 539 17 is_stmt 0
	addi	a1,a0,124
.LVL126:
	mv	a2,s4
.LVL127:
	mv	s0,a0
	call	mbedtls_ecdh_gen_public
.LVL128:
	.loc 1 539 7
	bne	a0,zero,.L39
	.loc 1 544 5 is_stmt 1
	.loc 1 544 12 is_stmt 0
	mv	a0,s0
.LVL129:
.LBE110:
.LBE115:
	.loc 1 581 1
	lw	s0,24(sp)
	.cfi_remember_state
	.cfi_restore 8
.LVL130:
	lw	ra,28(sp)
	.cfi_restore 1
.LBB116:
.LBB111:
	.loc 1 544 12
	mv	a5,s3
	mv	a4,s2
.LBE111:
.LBE116:
	.loc 1 581 1
	lw	s3,12(sp)
	.cfi_restore 19
.LVL131:
	lw	s2,16(sp)
	.cfi_restore 18
.LVL132:
.LBB117:
.LBB112:
	.loc 1 544 12
	mv	a3,s1
	mv	a2,s5
.LBE112:
.LBE117:
	.loc 1 581 1
	lw	s1,20(sp)
	.cfi_restore 9
.LVL133:
	lw	s5,4(sp)
	.cfi_restore 21
.LVL134:
.LBB118:
.LBB113:
	.loc 1 544 12
	mv	a1,s4
.LBE113:
.LBE118:
	.loc 1 581 1
	lw	s4,8(sp)
	.cfi_restore 20
	addi	sp,sp,32
	.cfi_def_cfa_offset 0
.LBB119:
.LBB114:
	.loc 1 544 12
	tail	mbedtls_ecp_tls_write_point
.LVL135:
.L41:
	.cfi_restore_state
	.loc 1 525 15
	li	a0,-20480
.LVL136:
	addi	a0,a0,128
.LVL137:
.L39:
.LBE114:
.LBE119:
	.loc 1 581 1
	lw	ra,28(sp)
	.cfi_restore 1
	lw	s0,24(sp)
	.cfi_restore 8
	lw	s1,20(sp)
	.cfi_restore 9
	lw	s2,16(sp)
	.cfi_restore 18
	lw	s3,12(sp)
	.cfi_restore 19
.LVL138:
	lw	s4,8(sp)
	.cfi_restore 20
	lw	s5,4(sp)
	.cfi_restore 21
	addi	sp,sp,32
	.cfi_def_cfa_offset 0
	jr	ra
	.cfi_endproc
.LFE22:
	.size	mbedtls_ecdh_make_public, .-mbedtls_ecdh_make_public
	.section	.text.mbedtls_ecdh_read_public,"ax",@progbits
	.align	1
	.globl	mbedtls_ecdh_read_public
	.type	mbedtls_ecdh_read_public, @function
mbedtls_ecdh_read_public:
.LFB24:
	.loc 1 604 1 is_stmt 1
	.cfi_startproc
.LVL139:
	.loc 1 605 5
	.loc 1 605 10
	.loc 1 605 17
	.loc 1 606 5
	.loc 1 606 10
	.loc 1 606 17
	.loc 1 609 5
.LBB122:
.LBB123:
	.loc 1 586 5
	.loc 1 587 5
.LBE123:
.LBE122:
	.loc 1 604 1 is_stmt 0
	addi	sp,sp,-32
	.cfi_def_cfa_offset 32
	sw	s0,24(sp)
	sw	s1,20(sp)
	.cfi_offset 8, -8
	.cfi_offset 9, -12
	mv	s0,a2
	mv	s1,a1
.LBB126:
.LBB124:
	.loc 1 587 26
	sw	a1,12(sp)
	.loc 1 589 5 is_stmt 1
	.loc 1 589 17 is_stmt 0
	mv	a3,a2
	addi	a1,a0,172
.LVL140:
	addi	a2,sp,12
.LVL141:
.LBE124:
.LBE126:
	.loc 1 604 1
	sw	ra,28(sp)
	.cfi_offset 1, -4
.LBB127:
.LBB125:
	.loc 1 589 17
	call	mbedtls_ecp_tls_read_point
.LVL142:
	.loc 1 589 7
	bne	a0,zero,.L43
	.loc 1 593 5 is_stmt 1
	.loc 1 593 21 is_stmt 0
	lw	a1,12(sp)
	sub	s1,a1,s1
.LVL143:
	.loc 1 593 7
	beq	s1,s0,.L43
	.loc 1 594 15
	li	a0,-20480
.LVL144:
	addi	a0,a0,128
.LVL145:
.L43:
.LBE125:
.LBE127:
	.loc 1 620 1
	lw	ra,28(sp)
	.cfi_restore 1
	lw	s0,24(sp)
	.cfi_restore 8
.LVL146:
	lw	s1,20(sp)
	.cfi_restore 9
	addi	sp,sp,32
	.cfi_def_cfa_offset 0
	jr	ra
	.cfi_endproc
.LFE24:
	.size	mbedtls_ecdh_read_public, .-mbedtls_ecdh_read_public
	.section	.text.mbedtls_ecdh_calc_secret,"ax",@progbits
	.align	1
	.globl	mbedtls_ecdh_calc_secret
	.type	mbedtls_ecdh_calc_secret, @function
mbedtls_ecdh_calc_secret:
.LFB26:
	.loc 1 675 1 is_stmt 1
	.cfi_startproc
.LVL147:
	.loc 1 676 5
	.loc 1 677 5
	.loc 1 677 10
	.loc 1 677 17
	.loc 1 678 5
	.loc 1 678 10
	.loc 1 678 17
	.loc 1 679 5
	.loc 1 679 10
	.loc 1 679 17
	.loc 1 686 5
.LBB130:
.LBB131:
	.loc 1 631 5
	.loc 1 636 5
	.loc 1 636 7 is_stmt 0
	bne	a0,zero,.L47
	.loc 1 637 15
	li	a0,-20480
.LVL148:
	addi	a0,a0,128
.LBE131:
.LBE130:
	.loc 1 699 1
	ret
.LVL149:
.L49:
	.cfi_def_cfa_offset 32
	.cfi_offset 1, -4
	.cfi_offset 8, -8
	.cfi_offset 9, -12
	.cfi_offset 18, -16
	.cfi_offset 19, -20
	.cfi_offset 20, -24
.LBB135:
.LBB132:
	.loc 1 637 15
	li	a0,-20480
	addi	a0,a0,128
.L46:
.LBE132:
.LBE135:
	.loc 1 699 1
	lw	ra,28(sp)
	.cfi_restore 1
	lw	s0,24(sp)
	.cfi_restore 8
.LVL150:
	lw	s1,20(sp)
	.cfi_restore 9
	lw	s2,16(sp)
	.cfi_restore 18
	lw	s3,12(sp)
	.cfi_restore 19
	lw	s4,8(sp)
	.cfi_restore 20
.LVL151:
	addi	sp,sp,32
	.cfi_def_cfa_offset 0
	jr	ra
.LVL152:
.L47:
	.loc 1 675 1
	addi	sp,sp,-32
	.cfi_def_cfa_offset 32
	sw	s0,24(sp)
	sw	s4,8(sp)
	sw	ra,28(sp)
	sw	s1,20(sp)
	sw	s2,16(sp)
	sw	s3,12(sp)
	.cfi_offset 8, -8
	.cfi_offset 20, -24
	.cfi_offset 1, -4
	.cfi_offset 9, -12
	.cfi_offset 18, -16
	.cfi_offset 19, -20
	mv	s4,a3
.LBB136:
.LBB133:
	.loc 1 636 20
	lw	a3,88(a0)
.LVL153:
	mv	s0,a0
	beq	a3,zero,.L49
.LVL154:
	.loc 1 654 17
	addi	s1,a0,208
	mv	s3,a1
	mv	s2,a2
	.loc 1 643 5 is_stmt 1
	.loc 1 654 5
	.loc 1 654 17 is_stmt 0
	addi	a3,a0,124
	addi	a2,a0,172
.LVL155:
	mv	a1,s1
.LVL156:
	call	mbedtls_ecdh_compute_shared
.LVL157:
	.loc 1 654 7
	bne	a0,zero,.L46
	.loc 1 661 5 is_stmt 1
	.loc 1 661 9 is_stmt 0
	mv	a0,s1
.LVL158:
	call	mbedtls_mpi_size
.LVL159:
	.loc 1 661 7
	bltu	s4,a0,.L49
	.loc 1 664 5 is_stmt 1
	.loc 1 664 21 is_stmt 0
	lw	a4,88(s0)
	.loc 1 665 12
	mv	a1,s2
	mv	a0,s1
	.loc 1 664 53
	andi	a5,a4,7
	.loc 1 664 59
	snez	a5,a5
	.loc 1 664 28
	srli	a4,a4,3
	.loc 1 664 32
	add	a2,a5,a4
	.loc 1 664 11
	sw	a2,0(s3)
	.loc 1 665 5 is_stmt 1
.LBE133:
.LBE136:
	.loc 1 699 1 is_stmt 0
	lw	s0,24(sp)
	.cfi_restore 8
.LVL160:
	lw	ra,28(sp)
	.cfi_restore 1
	lw	s1,20(sp)
	.cfi_restore 9
.LVL161:
	lw	s2,16(sp)
	.cfi_restore 18
.LVL162:
	lw	s3,12(sp)
	.cfi_restore 19
.LVL163:
	lw	s4,8(sp)
	.cfi_restore 20
.LVL164:
	addi	sp,sp,32
	.cfi_def_cfa_offset 0
.LBB137:
.LBB134:
	.loc 1 665 12
	tail	mbedtls_mpi_write_binary
.LVL165:
.LBE134:
.LBE137:
	.cfi_endproc
.LFE26:
	.size	mbedtls_ecdh_calc_secret, .-mbedtls_ecdh_calc_secret
	.text
.Letext0:
	.file 2 "/mnt/d/GitHub/bl_iot_sdk_for_aithinker/toolchain/riscv/Linux/lib/gcc/riscv64-unknown-elf/10.2.0/include/stddef.h"
	.file 3 "/mnt/d/GitHub/bl_iot_sdk_for_aithinker/toolchain/riscv/Linux/lib/gcc/riscv64-unknown-elf/10.2.0/include/stdint-gcc.h"
	.file 4 "/mnt/d/GitHub/bl_iot_sdk_for_aithinker/components/security/mbedtls_lts/mbedtls/include/mbedtls/bignum.h"
	.file 5 "/mnt/d/GitHub/bl_iot_sdk_for_aithinker/components/security/mbedtls_lts/mbedtls/include/mbedtls/ecp.h"
	.file 6 "/mnt/d/GitHub/bl_iot_sdk_for_aithinker/components/security/mbedtls_lts/mbedtls/include/mbedtls/ecdh.h"