	.file	"ecdsa.c"
	.option nopic
	.attribute arch, "rv32i2p0_m2p0_f2p0_c2p0"
	.attribute unaligned_access, 0
	.attribute stack_align, 16
	.text
.Ltext0:
	.cfi_sections	.debug_frame
	.section	.text.derive_mpi,"ax",@progbits
	.align	1
	.type	derive_mpi, @function
derive_mpi:
.LFB4:
	.file 1 "/mnt/d/GitHub/bl_iot_sdk_for_aithinker/components/security/mbedtls_lts/mbedtls/library/ecdsa.c"
	.loc 1 259 1
	.cfi_startproc
.LVL0:
	.loc 1 260 5
	.loc 1 261 5
	.loc 1 262 5
	.loc 1 259 1 is_stmt 0
	addi	sp,sp,-32
	.cfi_def_cfa_offset 32
	sw	s1,20(sp)
.LVL1:
	sw	s2,16(sp)
	sw	ra,28(sp)
	sw	s0,24(sp)
	sw	s3,12(sp)
	.cfi_offset 9, -12
	.cfi_offset 18, -16
	.cfi_offset 1, -4
	.cfi_offset 8, -8
	.cfi_offset 19, -20
	.loc 1 261 34
	lw	s0,92(a0)
	.loc 1 259 1
	mv	s2,a1
	mv	s1,a0
	.loc 1 261 34
	addi	s0,s0,7
	.loc 1 261 12
	srli	s0,s0,3
	.loc 1 259 1
	mv	a1,a2
.LVL2:
	.loc 1 262 12
	bleu	s0,a3,.L2
	mv	s0,a3
.L2:
.LVL3:
	.loc 1 264 5 is_stmt 1
	.loc 1 264 10
	.loc 1 264 23 is_stmt 0
	mv	a2,s0
.LVL4:
	mv	a0,s2
.LVL5:
	call	mbedtls_mpi_read_binary
.LVL6:
	mv	s3,a0
.LVL7:
	.loc 1 264 12
	bne	a0,zero,.L1
	.loc 1 264 98 is_stmt 1 discriminator 2
	.loc 1 265 5 discriminator 2
	.loc 1 265 27 is_stmt 0 discriminator 2
	lw	a1,92(s1)
	.loc 1 265 18 discriminator 2
	slli	s0,s0,3
.LVL8:
	.loc 1 265 7 discriminator 2
	bgtu	s0,a1,.L4
.LVL9:
.L6:
	.loc 1 266 110 is_stmt 1
	.loc 1 269 5
	.loc 1 269 9 is_stmt 0
	addi	s1,s1,76
.LVL10:
	mv	a1,s1
	mv	a0,s2
	call	mbedtls_mpi_cmp_mpi
.LVL11:
	.loc 1 269 7
	blt	a0,zero,.L1
	.loc 1 270 9 is_stmt 1
	.loc 1 270 14
	.loc 1 274 1 is_stmt 0
	lw	s0,24(sp)
	.cfi_remember_state
	.cfi_restore 8
	lw	ra,28(sp)
	.cfi_restore 1
	lw	s3,12(sp)
	.cfi_restore 19
	.loc 1 270 27
	mv	a2,s1
	mv	a1,s2
	.loc 1 274 1
	lw	s1,20(sp)
	.cfi_restore 9
.LVL12:
	.loc 1 270 27
	mv	a0,s2
	.loc 1 274 1
	lw	s2,16(sp)
	.cfi_restore 18
.LVL13:
	addi	sp,sp,32
	.cfi_def_cfa_offset 0
	.loc 1 270 27
	tail	mbedtls_mpi_sub_mpi
.LVL14:
.L4:
	.cfi_restore_state
	.loc 1 266 9 is_stmt 1
	.loc 1 266 14
	.loc 1 266 27 is_stmt 0
	sub	a1,s0,a1
	mv	a0,s2
.LVL15:
	call	mbedtls_mpi_shift_r
.LVL16:
	.loc 1 266 16
	beq	a0,zero,.L6
	mv	s3,a0
	.loc 1 270 95 is_stmt 1
	.loc 1 273 5
.L3:
.LVL17:
.L1:
	.loc 1 274 1 is_stmt 0
	lw	ra,28(sp)
	.cfi_restore 1
	lw	s0,24(sp)
	.cfi_restore 8
	lw	s1,20(sp)
	.cfi_restore 9
	lw	s2,16(sp)
	.cfi_restore 18
.LVL18:
	mv	a0,s3
	lw	s3,12(sp)
	.cfi_restore 19
	addi	sp,sp,32
	.cfi_def_cfa_offset 0
	jr	ra
	.cfi_endproc
.LFE4:
	.size	derive_mpi, .-derive_mpi
	.section	.text.ecdsa_verify_restartable.constprop.0,"ax",@progbits
	.align	1
	.type	ecdsa_verify_restartable.constprop.0, @function
ecdsa_verify_restartable.constprop.0:
.LFB19:
	.loc 1 610 12 is_stmt 1
	.cfi_startproc
.LVL19:
	.loc 1 616 5
	.loc 1 617 5
	.loc 1 618 5
	.loc 1 619 5
	.loc 1 610 12 is_stmt 0
	addi	sp,sp,-128
	.cfi_def_cfa_offset 128
.LVL20:
	.loc 1 621 5 is_stmt 1
	.loc 1 610 12 is_stmt 0
	sw	s1,116(sp)
	.cfi_offset 9, -12
	mv	s1,a0
	.loc 1 621 5
	addi	a0,sp,60
.LVL21:
	.loc 1 610 12
	sw	ra,124(sp)
	sw	s0,120(sp)
	sw	s2,112(sp)
	.cfi_offset 1, -4
	.cfi_offset 8, -8
	.cfi_offset 18, -16
	mv	s0,a1
	mv	s2,a4
	sw	s4,104(sp)
	sw	s5,100(sp)
	.cfi_offset 20, -24
	.cfi_offset 21, -28
	mv	s4,a5
	mv	s5,a3
	sw	s6,96(sp)
	sw	s3,108(sp)
	.cfi_offset 22, -32
	.cfi_offset 19, -20
	.loc 1 610 12
	mv	s6,a2
	.loc 1 621 5
	call	mbedtls_ecp_point_init
.LVL22:
	.loc 1 622 5 is_stmt 1
	addi	a0,sp,12
	call	mbedtls_mpi_init
.LVL23:
	.loc 1 622 29
	addi	a0,sp,24
	call	mbedtls_mpi_init
.LVL24:
	.loc 1 623 5
	addi	a0,sp,36
.LVL25:
	call	mbedtls_mpi_init
.LVL26:
	.loc 1 623 30
	addi	a0,sp,48
.LVL27:
	call	mbedtls_mpi_init
.LVL28:
	.loc 1 626 5
	.loc 1 626 7 is_stmt 0
	lw	a5,84(s1)
	beq	a5,zero,.L13
	.loc 1 629 5 is_stmt 1
	.loc 1 647 5
	.loc 1 647 9 is_stmt 0
	li	a1,1
	mv	a0,s2
	call	mbedtls_mpi_cmp_int
.LVL29:
	.loc 1 647 7
	blt	a0,zero,.L11
	.loc 1 647 68
	addi	s3,s1,76
	.loc 1 647 44
	mv	a1,s3
	mv	a0,s2
	call	mbedtls_mpi_cmp_mpi
.LVL30:
	.loc 1 647 41
	bge	a0,zero,.L11
	.loc 1 648 9
	li	a1,1
	mv	a0,s4
	call	mbedtls_mpi_cmp_int
.LVL31:
	.loc 1 647 83
	blt	a0,zero,.L11
	.loc 1 648 44
	mv	a1,s3
	mv	a0,s4
	call	mbedtls_mpi_cmp_mpi
.LVL32:
	.loc 1 648 41
	bge	a0,zero,.L11
	.loc 1 657 5 is_stmt 1
	.loc 1 657 10
	.loc 1 657 23 is_stmt 0
	mv	a2,s0
	mv	a3,s6
	addi	a1,sp,12
	mv	a0,s1
	call	derive_mpi
.LVL33:
	mv	s0,a0
.LVL34:
	.loc 1 657 12
	bne	a0,zero,.L12
	.loc 1 657 87 is_stmt 1
	.loc 1 662 5
	.loc 1 664 5
	.loc 1 664 10
	.loc 1 664 23 is_stmt 0
	mv	a2,s3
	mv	a1,s4
	addi	a0,sp,24
	call	mbedtls_mpi_inv_mod
.LVL35:
	mv	s0,a0
.LVL36:
	.loc 1 664 12
	bne	a0,zero,.L12
	.loc 1 664 96 is_stmt 1
	.loc 1 666 5
	.loc 1 666 10
	.loc 1 666 23 is_stmt 0
	addi	a2,sp,24
	addi	a1,sp,12
	addi	a0,sp,36
.LVL37:
	call	mbedtls_mpi_mul_mpi
.LVL38:
	mv	s0,a0
.LVL39:
	.loc 1 666 12
	bne	a0,zero,.L12
	.loc 1 666 93 is_stmt 1
	.loc 1 667 5
	.loc 1 667 10
	.loc 1 667 23 is_stmt 0
	addi	a1,sp,36
.LVL40:
	mv	a2,s3
	mv	a0,a1
	call	mbedtls_mpi_mod_mpi
.LVL41:
	mv	s0,a0
.LVL42:
	.loc 1 667 12
	bne	a0,zero,.L12
	.loc 1 667 95 is_stmt 1
	.loc 1 669 5
	.loc 1 669 10
	.loc 1 669 23 is_stmt 0
	addi	a2,sp,24
	mv	a1,s2
	addi	a0,sp,48
.LVL43:
	call	mbedtls_mpi_mul_mpi
.LVL44:
	mv	s0,a0
.LVL45:
	.loc 1 669 12
	bne	a0,zero,.L12
	.loc 1 669 92 is_stmt 1
	.loc 1 670 5
	.loc 1 670 10
	.loc 1 670 23 is_stmt 0
	addi	a1,sp,48
.LVL46:
	mv	a2,s3
	mv	a0,a1
	call	mbedtls_mpi_mod_mpi
.LVL47:
	mv	s0,a0
.LVL48:
	.loc 1 670 12
	bne	a0,zero,.L12
	.loc 1 670 95 is_stmt 1
	.loc 1 681 5
	.loc 1 681 10
	.loc 1 681 23 is_stmt 0
	li	a6,0
	mv	a5,s5
	addi	a4,sp,48
.LVL49:
	addi	a3,s1,40
	addi	a2,sp,36
.LVL50:
	addi	a1,sp,60
	mv	a0,s1
	call	mbedtls_ecp_muladd_restartable
.LVL51:
	mv	s0,a0
.LVL52:
	.loc 1 681 12
	bne	a0,zero,.L12
	.loc 1 681 37 is_stmt 1
	.loc 1 684 5
	.loc 1 684 9 is_stmt 0
	addi	a0,sp,60
	call	mbedtls_ecp_is_zero
.LVL53:
	.loc 1 684 7
	bne	a0,zero,.L11
	.loc 1 694 5 is_stmt 1
	.loc 1 694 10
	.loc 1 694 23 is_stmt 0
	addi	a1,sp,60
	mv	a2,s3
	mv	a0,a1
	call	mbedtls_mpi_mod_mpi
.LVL54:
	mv	s0,a0
.LVL55:
	.loc 1 694 12
	bne	a0,zero,.L12
	.loc 1 694 97 is_stmt 1
	.loc 1 699 5
	.loc 1 699 9 is_stmt 0
	mv	a1,s2
	addi	a0,sp,60
	call	mbedtls_mpi_cmp_mpi
.LVL56:
	mv	s0,a0
.LVL57:
	.loc 1 699 7
	beq	a0,zero,.L12
.L11:
	.loc 1 701 9 is_stmt 1
.LVL58:
	.loc 1 702 9
	.loc 1 701 13 is_stmt 0
	li	a0,-20480
	addi	s0,a0,512
.LVL59:
.L12:
	.loc 1 706 5 is_stmt 1
	addi	a0,sp,60
	call	mbedtls_ecp_point_free
.LVL60:
	.loc 1 707 5
	addi	a0,sp,12
	call	mbedtls_mpi_free
.LVL61:
	.loc 1 707 29
	addi	a0,sp,24
	call	mbedtls_mpi_free
.LVL62:
	.loc 1 708 5
	addi	a0,sp,36
.LVL63:
	call	mbedtls_mpi_free
.LVL64:
	.loc 1 708 30
	addi	a0,sp,48
.LVL65:
	call	mbedtls_mpi_free
.LVL66:
	.loc 1 710 5
	.loc 1 712 5
.L9:
	.loc 1 713 1 is_stmt 0
	lw	ra,124(sp)
	.cfi_remember_state
	.cfi_restore 1
	mv	a0,s0
	lw	s0,120(sp)
	.cfi_restore 8
	lw	s1,116(sp)
	.cfi_restore 9
.LVL67:
	lw	s2,112(sp)
	.cfi_restore 18
.LVL68:
	lw	s3,108(sp)
	.cfi_restore 19
	lw	s4,104(sp)
	.cfi_restore 20
.LVL69:
	lw	s5,100(sp)
	.cfi_restore 21
.LVL70:
	lw	s6,96(sp)
	.cfi_restore 22
.LVL71:
	addi	sp,sp,128
	.cfi_def_cfa_offset 0
.LVL72:
	jr	ra
.LVL73:
.L13:
	.cfi_restore_state
	.loc 1 627 15
	li	a0,-20480
	addi	s0,a0,128
.LVL74:
	j	.L9
	.cfi_endproc
.LFE19:
	.size	ecdsa_verify_restartable.constprop.0, .-ecdsa_verify_restartable.constprop.0
	.section	.text.ecdsa_sign_restartable.constprop.0,"ax",@progbits
	.align	1
	.type	ecdsa_sign_restartable.constprop.0, @function
ecdsa_sign_restartable.constprop.0:
.LFB18:
	.loc 1 282 12 is_stmt 1
	.cfi_startproc
.LVL75:
	.loc 1 290 5
	.loc 1 291 5
	.loc 1 292 5
	.loc 1 293 5
	.loc 1 294 5
	.loc 1 282 12 is_stmt 0
	addi	sp,sp,-160
	.cfi_def_cfa_offset 160
.LVL76:
	.loc 1 297 5 is_stmt 1
	.loc 1 282 12 is_stmt 0
	sw	s7,124(sp)
	sw	ra,156(sp)
	sw	s0,152(sp)
	sw	s1,148(sp)
	sw	s2,144(sp)
	sw	s3,140(sp)
	sw	s4,136(sp)
	sw	s5,132(sp)
	sw	s6,128(sp)
	sw	s8,120(sp)
	sw	s9,116(sp)
	sw	s10,112(sp)
	sw	s11,108(sp)
	.cfi_offset 23, -36
	.cfi_offset 1, -4
	.cfi_offset 8, -8
	.cfi_offset 9, -12
	.cfi_offset 18, -16
	.cfi_offset 19, -20
	.cfi_offset 20, -24
	.cfi_offset 21, -28
	.cfi_offset 22, -32
	.cfi_offset 24, -40
	.cfi_offset 25, -44
	.cfi_offset 26, -48
	.cfi_offset 27, -52
	.loc 1 282 12
	mv	s7,a5
	.loc 1 297 7
	lw	a5,84(a0)
.LVL77:
	.loc 1 282 12
	sw	a4,12(sp)
	.loc 1 297 7
	beq	a5,zero,.L26
	mv	s1,a0
	mv	s3,a1
	.loc 1 301 9
	mv	a0,a3
.LVL78:
	li	a1,1
.LVL79:
	mv	s0,a2
	mv	s4,a3
	mv	s8,a6
	mv	s9,a7
	.loc 1 301 5 is_stmt 1
	.loc 1 301 9 is_stmt 0
	call	mbedtls_mpi_cmp_int
.LVL80:
	.loc 1 301 7
	bge	a0,zero,.L20
.L21:
	.loc 1 302 15
	li	a0,-20480
	addi	s6,a0,896
.LVL81:
.L18:
	.loc 1 414 1
	lw	ra,156(sp)
	.cfi_remember_state
	.cfi_restore 1
	lw	s0,152(sp)
	.cfi_restore 8
	lw	s1,148(sp)
	.cfi_restore 9
	lw	s2,144(sp)
	.cfi_restore 18
	lw	s3,140(sp)
	.cfi_restore 19
	lw	s4,136(sp)
	.cfi_restore 20
	lw	s5,132(sp)
	.cfi_restore 21
	lw	s7,124(sp)
	.cfi_restore 23
.LVL82:
	lw	s8,120(sp)
	.cfi_restore 24
	lw	s9,116(sp)
	.cfi_restore 25
	lw	s10,112(sp)
	.cfi_restore 26
	lw	s11,108(sp)
	.cfi_restore 27
	mv	a0,s6
	lw	s6,128(sp)
	.cfi_restore 22
	addi	sp,sp,160
	.cfi_def_cfa_offset 0
.LVL83:
	jr	ra
.LVL84:
.L20:
	.cfi_restore_state
	.loc 1 301 68
	addi	s2,s1,76
	.loc 1 301 44
	mv	a1,s2
	mv	a0,s4
	call	mbedtls_mpi_cmp_mpi
.LVL85:
	.loc 1 301 41
	bge	a0,zero,.L21
	.loc 1 304 5 is_stmt 1
	addi	a0,sp,60
	call	mbedtls_ecp_point_init
.LVL86:
	.loc 1 305 5
	addi	a0,sp,24
.LVL87:
	call	mbedtls_mpi_init
.LVL88:
	.loc 1 305 29
	addi	a0,sp,36
	call	mbedtls_mpi_init
.LVL89:
	.loc 1 305 53
	addi	a0,sp,48
	call	mbedtls_mpi_init
.LVL90:
	.loc 1 307 5
	.loc 1 326 5
	.loc 1 305 53 is_stmt 0
	li	s5,12
	.loc 1 356 73
	addi	s11,s1,40
.LVL91:
.L25:
	.loc 1 327 5 is_stmt 1
	.loc 1 329 9
	.loc 1 329 11 is_stmt 0
	addi	s5,s5,-1
.LVL92:
	beq	s5,zero,.L22
	li	s10,12
.LVL93:
.L24:
	.loc 1 340 9 is_stmt 1
	.loc 1 342 13
	.loc 1 342 15 is_stmt 0
	addi	s10,s10,-1
.LVL94:
	beq	s10,zero,.L22
.LVL95:
	.loc 1 348 13 is_stmt 1
	.loc 1 348 18
	.loc 1 348 31 is_stmt 0
	mv	a3,s9
	mv	a2,s8
	addi	a1,sp,24
.LVL96:
	mv	a0,s1
	call	mbedtls_ecp_gen_privkey
.LVL97:
	mv	s6,a0
.LVL98:
	.loc 1 348 20
	bne	a0,zero,.L23
	.loc 1 348 111 is_stmt 1
	.loc 1 356 13
	.loc 1 356 18
	.loc 1 356 31 is_stmt 0
	lw	a5,164(sp)
	lw	a4,160(sp)
	li	a6,0
	mv	a3,s11
	addi	a2,sp,24
.LVL99:
	addi	a1,sp,60
	mv	a0,s1
.LVL100:
	call	mbedtls_ecp_mul_restartable
.LVL101:
	mv	s6,a0
.LVL102:
	.loc 1 356 20
	bne	a0,zero,.L23
	.loc 1 356 45 is_stmt 1
	.loc 1 360 13
	.loc 1 360 18
	.loc 1 360 31 is_stmt 0
	mv	a2,s2
	addi	a1,sp,60
	mv	a0,s3
.LVL103:
	call	mbedtls_mpi_mod_mpi
.LVL104:
	mv	s6,a0
.LVL105:
	.loc 1 360 20
	bne	a0,zero,.L23
	.loc 1 360 103 is_stmt 1
	.loc 1 362 14
	.loc 1 362 16 is_stmt 0
	li	a1,0
	mv	a0,s3
.LVL106:
	call	mbedtls_mpi_cmp_int
.LVL107:
	.loc 1 362 9
	beq	a0,zero,.L24
	.loc 1 374 9 is_stmt 1
	.loc 1 379 9
	.loc 1 379 14
	.loc 1 379 27 is_stmt 0
	lw	a2,12(sp)
	mv	a3,s7
	addi	a1,sp,36
	mv	a0,s1
	call	derive_mpi
.LVL108:
	mv	s6,a0
.LVL109:
	.loc 1 379 16
	bne	a0,zero,.L23
	.loc 1 379 91 is_stmt 1
	.loc 1 385 9
	.loc 1 385 14
	.loc 1 385 27 is_stmt 0
	lw	a3,164(sp)
	lw	a2,160(sp)
	addi	a1,sp,48
	mv	a0,s1
.LVL110:
	call	mbedtls_ecp_gen_privkey
.LVL111:
	mv	s6,a0
.LVL112:
	.loc 1 385 16
	bne	a0,zero,.L23
	.loc 1 385 119 is_stmt 1
	.loc 1 391 9
	.loc 1 391 14
	.loc 1 391 27 is_stmt 0
	mv	a2,s4
	mv	a1,s3
	mv	a0,s0
.LVL113:
	call	mbedtls_mpi_mul_mpi
.LVL114:
	mv	s6,a0
.LVL115:
	.loc 1 391 16
	bne	a0,zero,.L23
	.loc 1 391 90 is_stmt 1
	.loc 1 392 9
	.loc 1 392 14
	.loc 1 392 27 is_stmt 0
	addi	a1,sp,36
	mv	a2,s0
	mv	a0,a1
.LVL116:
	call	mbedtls_mpi_add_mpi
.LVL117:
	mv	s6,a0
.LVL118:
	.loc 1 392 16
	bne	a0,zero,.L23
	.loc 1 392 91 is_stmt 1
	.loc 1 393 9
	.loc 1 393 14
	.loc 1 393 27 is_stmt 0
	addi	a1,sp,36
	addi	a2,sp,48
	mv	a0,a1
.LVL119:
	call	mbedtls_mpi_mul_mpi
.LVL120:
	mv	s6,a0
.LVL121:
	.loc 1 393 16
	bne	a0,zero,.L23
	.loc 1 393 92 is_stmt 1
	.loc 1 394 9
	.loc 1 394 14
	.loc 1 394 27 is_stmt 0
	addi	a1,sp,24
.LVL122:
	addi	a2,sp,48
	mv	a0,a1
.LVL123:
	call	mbedtls_mpi_mul_mpi
.LVL124:
	mv	s6,a0
.LVL125:
	.loc 1 394 16
	bne	a0,zero,.L23
	.loc 1 394 92 is_stmt 1
	.loc 1 395 9
	.loc 1 395 14
	.loc 1 395 27 is_stmt 0
	addi	a1,sp,24
.LVL126:
	mv	a2,s2
	mv	a0,a1
.LVL127:
	call	mbedtls_mpi_mod_mpi
.LVL128:
	mv	s6,a0
.LVL129:
	.loc 1 395 16
	bne	a0,zero,.L23
	.loc 1 395 97 is_stmt 1
	.loc 1 396 9
	.loc 1 396 14
	.loc 1 396 27 is_stmt 0
	mv	a2,s2
	addi	a1,sp,24
.LVL130:
	mv	a0,s0
.LVL131:
	call	mbedtls_mpi_inv_mod
.LVL132:
	mv	s6,a0
.LVL133:
	.loc 1 396 16
	bne	a0,zero,.L23
	.loc 1 396 96 is_stmt 1
	.loc 1 397 9
	.loc 1 397 14
	.loc 1 397 27 is_stmt 0
	addi	a2,sp,36
	mv	a1,s0
	mv	a0,s0
.LVL134:
	call	mbedtls_mpi_mul_mpi
.LVL135:
	mv	s6,a0
.LVL136:
	.loc 1 397 16
	bne	a0,zero,.L23
	.loc 1 397 90 is_stmt 1
	.loc 1 398 9
	.loc 1 398 14
	.loc 1 398 27 is_stmt 0
	mv	a2,s2
	mv	a1,s0
	mv	a0,s0
.LVL137:
	call	mbedtls_mpi_mod_mpi
.LVL138:
	mv	s6,a0
.LVL139:
	.loc 1 398 16
	bne	a0,zero,.L23
	.loc 1 398 95 is_stmt 1
	.loc 1 400 10
	.loc 1 400 12 is_stmt 0
	li	a1,0
	mv	a0,s0
.LVL140:
	call	mbedtls_mpi_cmp_int
.LVL141:
	.loc 1 400 5
	beq	a0,zero,.L25
.LVL142:
.L23:
	.loc 1 408 5 is_stmt 1
	addi	a0,sp,60
	call	mbedtls_ecp_point_free
.LVL143:
	.loc 1 409 5
	addi	a0,sp,24
.LVL144:
	call	mbedtls_mpi_free
.LVL145:
	.loc 1 409 29
	addi	a0,sp,36
	call	mbedtls_mpi_free
.LVL146:
	.loc 1 409 53
	addi	a0,sp,48
	call	mbedtls_mpi_free
.LVL147:
	.loc 1 411 5
	.loc 1 413 5
	.loc 1 413 11 is_stmt 0
	j	.L18
.LVL148:
.L22:
	.loc 1 331 17
	li	a0,-20480
	addi	s6,a0,768
	j	.L23
.LVL149:
.L26:
	.loc 1 298 15
	li	a0,-20480
.LVL150:
	addi	s6,a0,128
	j	.L18
	.cfi_endproc
.LFE18:
	.size	ecdsa_sign_restartable.constprop.0, .-ecdsa_sign_restartable.constprop.0
	.section	.text.mbedtls_ecdsa_sign,"ax",@progbits
	.align	1
	.globl	mbedtls_ecdsa_sign
	.type	mbedtls_ecdsa_sign, @function
mbedtls_ecdsa_sign:
.LFB6:
	.loc 1 422 1 is_stmt 1
	.cfi_startproc
.LVL151:
	.loc 1 423 5
	.loc 1 423 10
	.loc 1 423 17
	.loc 1 424 5
	.loc 1 424 10
	.loc 1 424 17
	.loc 1 425 5
	.loc 1 425 10
	.loc 1 425 17
	.loc 1 426 5
	.loc 1 426 10
	.loc 1 426 17
	.loc 1 427 5
	.loc 1 427 10
	.loc 1 427 17
	.loc 1 428 5
	.loc 1 428 10
	.loc 1 428 17
	.loc 1 431 5
	.loc 1 422 1 is_stmt 0
	addi	sp,sp,-32
	.cfi_def_cfa_offset 32
	.loc 1 431 13
	sw	a7,4(sp)
	sw	a6,0(sp)
	.loc 1 422 1
	sw	ra,28(sp)
	.cfi_offset 1, -4
	.loc 1 431 13
	call	ecdsa_sign_restartable.constprop.0
.LVL152:
	.loc 1 433 1
	lw	ra,28(sp)
	.cfi_restore 1
	addi	sp,sp,32
	.cfi_def_cfa_offset 0
	jr	ra
	.cfi_endproc
.LFE6:
	.size	mbedtls_ecdsa_sign, .-mbedtls_ecdsa_sign
	.section	.text.mbedtls_ecdsa_verify,"ax",@progbits
	.align	1
	.globl	mbedtls_ecdsa_verify
	.type	mbedtls_ecdsa_verify, @function
mbedtls_ecdsa_verify:
.LFB8:
	.loc 1 723 1 is_stmt 1
	.cfi_startproc
.LVL153:
	.loc 1 724 5
	.loc 1 724 10
	.loc 1 724 17
	.loc 1 725 5
	.loc 1 725 10
	.loc 1 725 17
	.loc 1 726 5
	.loc 1 726 10
	.loc 1 726 17
	.loc 1 727 5
	.loc 1 727 10
	.loc 1 727 17
	.loc 1 728 5
	.loc 1 728 10
	.loc 1 728 17
	.loc 1 730 5
	.loc 1 730 13 is_stmt 0
	tail	ecdsa_verify_restartable.constprop.0
.LVL154:
	.cfi_endproc
.LFE8:
	.size	mbedtls_ecdsa_verify, .-mbedtls_ecdsa_verify
	.section	.text.mbedtls_ecdsa_write_signature_restartable,"ax",@progbits
	.align	1
	.globl	mbedtls_ecdsa_write_signature_restartable
	.type	mbedtls_ecdsa_write_signature_restartable, @function
mbedtls_ecdsa_write_signature_restartable:
.LFB10:
	.loc 1 768 1 is_stmt 1
	.cfi_startproc
.LVL155:
	.loc 1 769 5
	.loc 1 770 5
	.loc 1 771 5
	.loc 1 771 10
	.loc 1 771 17
	.loc 1 772 5
	.loc 1 772 10
	.loc 1 772 17
	.loc 1 773 5
	.loc 1 773 10
	.loc 1 773 17
	.loc 1 774 5
	.loc 1 774 10
	.loc 1 774 17
	.loc 1 776 5
	.loc 1 768 1 is_stmt 0
	addi	sp,sp,-240
	.cfi_def_cfa_offset 240
	sw	s0,232(sp)
	.cfi_offset 8, -8
	mv	s0,a0
	.loc 1 776 5
	addi	a0,sp,40
.LVL156:
	.loc 1 768 1
	sw	ra,236(sp)
	sw	a6,28(sp)
	sw	a7,24(sp)
	sw	s1,228(sp)
	sw	s2,224(sp)
	.cfi_offset 1, -4
	.cfi_offset 9, -12
	.cfi_offset 18, -16
	mv	s1,a5
	mv	s2,a4
	sw	s3,220(sp)
	sw	s4,216(sp)
	.cfi_offset 19, -20
	.cfi_offset 20, -24
	.loc 1 768 1
	mv	s3,a2
	mv	s4,a3
	.loc 1 776 5
	call	mbedtls_mpi_init
.LVL157:
	.loc 1 777 5 is_stmt 1
	addi	a0,sp,52
	call	mbedtls_mpi_init
.LVL158:
	.loc 1 784 5
	.loc 1 793 5
	.loc 1 793 10
	.loc 1 793 23 is_stmt 0
	lw	a7,24(sp)
	lw	a6,28(sp)
	addi	a3,s0,124
	mv	a0,s0
	sw	a7,4(sp)
	sw	a6,0(sp)
	mv	a5,s4
	mv	a4,s3
	addi	a2,sp,52
	addi	a1,sp,40
	call	ecdsa_sign_restartable.constprop.0
.LVL159:
	mv	s0,a0
.LVL160:
	.loc 1 793 12
	bne	a0,zero,.L42
	.loc 1 793 155 is_stmt 1
	.loc 1 799 5
	.loc 1 799 10
.LVL161:
.LBB4:
.LBB5:
	.loc 1 740 5
	.loc 1 741 5
	.loc 1 742 5
	.loc 1 742 20 is_stmt 0
	addi	a5,sp,205
	.loc 1 745 23
	addi	a2,sp,52
.LVL162:
	addi	a1,sp,64
	addi	a0,sp,36
	.loc 1 742 20
	sw	a5,36(sp)
	.loc 1 743 5 is_stmt 1
.LVL163:
	.loc 1 745 5
	.loc 1 745 10
	.loc 1 745 23 is_stmt 0
	call	mbedtls_asn1_write_mpi
.LVL164:
	mv	s0,a0
.LVL165:
	.loc 1 745 12
	blt	a0,zero,.L42
	.loc 1 745 89 is_stmt 1
.LVL166:
	.loc 1 745 110
	.loc 1 746 5
	.loc 1 746 10
	.loc 1 746 23 is_stmt 0
	addi	a2,sp,40
.LVL167:
	addi	a1,sp,64
	addi	a0,sp,36
	call	mbedtls_asn1_write_mpi
.LVL168:
	.loc 1 746 12
	blt	a0,zero,.L45
	.loc 1 746 89 is_stmt 1
	.loc 1 746 95 is_stmt 0
	add	s3,s0,a0
.LVL169:
	.loc 1 746 110 is_stmt 1
	.loc 1 748 5
	.loc 1 748 10
	.loc 1 748 23 is_stmt 0
	mv	a2,s3
	addi	a1,sp,64
	addi	a0,sp,36
.LVL170:
	call	mbedtls_asn1_write_len
.LVL171:
	mv	s0,a0
.LVL172:
	.loc 1 748 12
	blt	a0,zero,.L42
	.loc 1 748 91 is_stmt 1
.LVL173:
	.loc 1 748 112
	.loc 1 749 5
	.loc 1 749 10
	.loc 1 749 23 is_stmt 0
	li	a2,48
	addi	a1,sp,64
	addi	a0,sp,36
	call	mbedtls_asn1_write_tag
.LVL174:
	.loc 1 749 12
	blt	a0,zero,.L45
	.loc 1 749 99 is_stmt 1
	.loc 1 752 5 is_stmt 0
	lw	a1,36(sp)
	.loc 1 748 97
	add	s0,s0,s3
.LVL175:
	.loc 1 749 105
	add	s0,a0,s0
.LVL176:
	.loc 1 749 120 is_stmt 1
	.loc 1 752 5
	mv	a2,s0
	mv	a0,s2
.LVL177:
	call	memcpy
.LVL178:
	.loc 1 753 5
	.loc 1 753 11 is_stmt 0
	sw	s0,0(s1)
	.loc 1 755 5 is_stmt 1
	.loc 1 755 11 is_stmt 0
	li	s0,0
.LVL179:
.L42:
.LBE5:
.LBE4:
	.loc 1 799 99 is_stmt 1 discriminator 3
	.loc 1 802 5 discriminator 3
	addi	a0,sp,40
	call	mbedtls_mpi_free
.LVL180:
	.loc 1 803 5 discriminator 3
	addi	a0,sp,52
	call	mbedtls_mpi_free
.LVL181:
	.loc 1 805 5 discriminator 3
	.loc 1 806 1 is_stmt 0 discriminator 3
	lw	ra,236(sp)
	.cfi_remember_state
	.cfi_restore 1
	mv	a0,s0
	lw	s0,232(sp)
	.cfi_restore 8
.LVL182:
	lw	s1,228(sp)
	.cfi_restore 9
.LVL183:
	lw	s2,224(sp)
	.cfi_restore 18
.LVL184:
	lw	s3,220(sp)
	.cfi_restore 19
	lw	s4,216(sp)
	.cfi_restore 20
.LVL185:
	addi	sp,sp,240
	.cfi_def_cfa_offset 0
.LVL186:
	jr	ra
.LVL187:
.L45:
	.cfi_restore_state
.LBB7:
.LBB6:
	mv	s0,a0
.LVL188:
.LBE6:
.LBE7:
	.loc 1 801 1
	j	.L42
	.cfi_endproc
.LFE10:
	.size	mbedtls_ecdsa_write_signature_restartable, .-mbedtls_ecdsa_write_signature_restartable
	.section	.text.mbedtls_ecdsa_write_signature,"ax",@progbits
	.align	1
	.globl	mbedtls_ecdsa_write_signature
	.type	mbedtls_ecdsa_write_signature, @function
mbedtls_ecdsa_write_signature:
.LFB11:
	.loc 1 817 1 is_stmt 1
	.cfi_startproc
.LVL189:
	.loc 1 818 5
	.loc 1 818 10
	.loc 1 818 17
	.loc 1 819 5
	.loc 1 819 10
	.loc 1 819 17
	.loc 1 820 5
	.loc 1 820 10
	.loc 1 820 17
	.loc 1 821 5
	.loc 1 821 10
	.loc 1 821 17
	.loc 1 822 5
	.loc 1 817 1 is_stmt 0
	addi	sp,sp,-32
	.cfi_def_cfa_offset 32
	.loc 1 822 13
	sw	zero,0(sp)
	.loc 1 817 1
	sw	ra,28(sp)
	.cfi_offset 1, -4
	.loc 1 822 13
	call	mbedtls_ecdsa_write_signature_restartable
.LVL190:
	.loc 1 824 1
	lw	ra,28(sp)
	.cfi_restore 1
	addi	sp,sp,32
	.cfi_def_cfa_offset 0
	jr	ra
	.cfi_endproc
.LFE11:
	.size	mbedtls_ecdsa_write_signature, .-mbedtls_ecdsa_write_signature
	.section	.text.mbedtls_ecdsa_read_signature_restartable,"ax",@progbits
	.align	1
	.globl	mbedtls_ecdsa_read_signature_restartable
	.type	mbedtls_ecdsa_read_signature_restartable, @function
mbedtls_ecdsa_read_signature_restartable:
.LFB13:
	.loc 1 863 1 is_stmt 1
	.cfi_startproc
.LVL191:
	.loc 1 864 5
	.loc 1 865 5
	.loc 1 863 1 is_stmt 0
	addi	sp,sp,-64
	.cfi_def_cfa_offset 64
	sw	s0,56(sp)
	.cfi_offset 8, -8
	mv	s0,a0
	.loc 1 873 5
	addi	a0,sp,8
.LVL192:
	.loc 1 863 1
	sw	ra,60(sp)
	sw	s1,52(sp)
	sw	s2,48(sp)
	.cfi_offset 1, -4
	.cfi_offset 9, -12
	.cfi_offset 18, -16
	.loc 1 866 26
	add	s1,a3,a4
	.loc 1 863 1
	sw	s3,44(sp)
	.cfi_offset 19, -20
	.loc 1 863 1
	mv	s2,a1
	mv	s3,a2
	.loc 1 865 20
	sw	a3,0(sp)
	.loc 1 866 5 is_stmt 1
.LVL193:
	.loc 1 867 5
	.loc 1 868 5
	.loc 1 869 5
	.loc 1 869 10
	.loc 1 869 17
	.loc 1 870 5
	.loc 1 870 10
	.loc 1 870 17
	.loc 1 871 5
	.loc 1 871 10
	.loc 1 871 17
	.loc 1 873 5
	call	mbedtls_mpi_init
.LVL194:
	.loc 1 874 5
	addi	a0,sp,20
	call	mbedtls_mpi_init
.LVL195:
	.loc 1 876 5
	.loc 1 876 17 is_stmt 0
	li	a3,48
	addi	a2,sp,4
	mv	a1,s1
	mv	a0,sp
	call	mbedtls_asn1_get_tag
.LVL196:
	.loc 1 876 7
	beq	a0,zero,.L50
.L52:
	.loc 1 893 9 is_stmt 1
	.loc 1 893 13 is_stmt 0
	li	s0,-20480
.LVL197:
	addi	s0,s0,128
	add	s0,a0,s0
.LVL198:
	.loc 1 894 9 is_stmt 1
.L51:
	.loc 1 915 5
	addi	a0,sp,8
	call	mbedtls_mpi_free
.LVL199:
	.loc 1 916 5
	addi	a0,sp,20
	call	mbedtls_mpi_free
.LVL200:
	.loc 1 918 5
	.loc 1 919 1 is_stmt 0
	lw	ra,60(sp)
	.cfi_remember_state
	.cfi_restore 1
	mv	a0,s0
	lw	s0,56(sp)
	.cfi_restore 8
.LVL201:
	lw	s1,52(sp)
	.cfi_restore 9
.LVL202:
	lw	s2,48(sp)
	.cfi_restore 18
.LVL203:
	lw	s3,44(sp)
	.cfi_restore 19
.LVL204:
	addi	sp,sp,64
	.cfi_def_cfa_offset 0
	jr	ra
.LVL205:
.L50:
	.cfi_restore_state
	.loc 1 883 5 is_stmt 1
	.loc 1 883 11 is_stmt 0
	lw	a5,0(sp)
	lw	a4,4(sp)
	add	a5,a5,a4
	.loc 1 883 7
	bne	s1,a5,.L54
	.loc 1 890 5 is_stmt 1
	.loc 1 890 17 is_stmt 0
	addi	a2,sp,8
	mv	a1,s1
	mv	a0,sp
.LVL206:
	call	mbedtls_asn1_get_mpi
.LVL207:
	.loc 1 890 7
	bne	a0,zero,.L52
	.loc 1 891 17 discriminator 1
	addi	a2,sp,20
	mv	a1,s1
	mv	a0,sp
.LVL208:
	call	mbedtls_asn1_get_mpi
.LVL209:
	.loc 1 890 60 discriminator 1
	bne	a0,zero,.L52
	.loc 1 903 5 is_stmt 1
	.loc 1 903 17 is_stmt 0
	addi	a3,s0,136
	mv	a0,s0
.LVL210:
	addi	a5,sp,20
	addi	a4,sp,8
	mv	a2,s3
	mv	a1,s2
	call	ecdsa_verify_restartable.constprop.0
.LVL211:
	mv	s0,a0
.LVL212:
	.loc 1 903 7
	bne	a0,zero,.L51
	.loc 1 911 5 is_stmt 1
	.loc 1 911 7 is_stmt 0
	lw	a5,0(sp)
	beq	a5,s1,.L51
	.loc 1 912 13
	li	s0,-20480
.LVL213:
	addi	s0,s0,1024
	j	.L51
.LVL214:
.L54:
	.loc 1 885 13
	li	s0,-20480
.LVL215:
	addi	s0,s0,26
	j	.L51
	.cfi_endproc
.LFE13:
	.size	mbedtls_ecdsa_read_signature_restartable, .-mbedtls_ecdsa_read_signature_restartable
	.section	.text.mbedtls_ecdsa_read_signature,"ax",@progbits
	.align	1
	.globl	mbedtls_ecdsa_read_signature
	.type	mbedtls_ecdsa_read_signature, @function
mbedtls_ecdsa_read_signature:
.LFB12:
	.loc 1 848 1 is_stmt 1
	.cfi_startproc
.LVL216:
	.loc 1 849 5
	.loc 1 849 10
	.loc 1 849 17
	.loc 1 850 5
	.loc 1 850 10
	.loc 1 850 17
	.loc 1 851 5
	.loc 1 851 10
	.loc 1 851 17
	.loc 1 852 5
	.loc 1 852 13 is_stmt 0
	li	a5,0
	tail	mbedtls_ecdsa_read_signature_restartable
.LVL217:
	.cfi_endproc
.LFE12:
	.size	mbedtls_ecdsa_read_signature, .-mbedtls_ecdsa_read_signature
	.section	.text.mbedtls_ecdsa_genkey,"ax",@progbits
	.align	1
	.globl	mbedtls_ecdsa_genkey
	.type	mbedtls_ecdsa_genkey, @function
mbedtls_ecdsa_genkey:
.LFB14:
	.loc 1 927 1 is_stmt 1
	.cfi_startproc
.LVL218:
	.loc 1 928 5
	.loc 1 929 5
	.loc 1 929 10
	.loc 1 929 17
	.loc 1 930 5
	.loc 1 930 10
	.loc 1 930 17
	.loc 1 932 5
	.loc 1 927 1 is_stmt 0
	addi	sp,sp,-32
	.cfi_def_cfa_offset 32
	sw	s0,24(sp)
	sw	s1,20(sp)
	sw	ra,28(sp)
	.cfi_offset 8, -8
	.cfi_offset 9, -12
	.cfi_offset 1, -4
	.loc 1 927 1
	mv	s0,a0
	mv	s1,a2
	sw	a3,12(sp)
	.loc 1 932 11
	call	mbedtls_ecp_group_load
.LVL219:
	.loc 1 933 5 is_stmt 1
	.loc 1 933 7 is_stmt 0
	bne	a0,zero,.L57
	.loc 1 936 4 is_stmt 1
	.loc 1 936 12 is_stmt 0
	addi	a2,s0,136
	addi	a1,s0,124
	mv	a0,s0
.LVL220:
	.loc 1 938 1
	lw	s0,24(sp)
	.cfi_remember_state
	.cfi_restore 8
.LVL221:
	.loc 1 936 12
	lw	a4,12(sp)
	.loc 1 938 1
	lw	ra,28(sp)
	.cfi_restore 1
	.loc 1 936 12
	mv	a3,s1
	.loc 1 938 1
	lw	s1,20(sp)
	.cfi_restore 9
.LVL222:
	addi	sp,sp,32
	.cfi_def_cfa_offset 0
.LVL223:
	.loc 1 936 12
	tail	mbedtls_ecp_gen_keypair
.LVL224:
.L57:
	.cfi_restore_state
	.loc 1 938 1
	lw	ra,28(sp)
	.cfi_restore 1
	lw	s0,24(sp)
	.cfi_restore 8
.LVL225:
	lw	s1,20(sp)
	.cfi_restore 9
.LVL226:
	addi	sp,sp,32
	.cfi_def_cfa_offset 0
.LVL227:
	jr	ra
	.cfi_endproc
.LFE14:
	.size	mbedtls_ecdsa_genkey, .-mbedtls_ecdsa_genkey
	.section	.text.mbedtls_ecdsa_init,"ax",@progbits
	.align	1
	.globl	mbedtls_ecdsa_init
	.type	mbedtls_ecdsa_init, @function
mbedtls_ecdsa_init:
.LFB16:
	.loc 1 964 1 is_stmt 1
	.cfi_startproc
.LVL228:
	.loc 1 965 5
	.loc 1 965 10
	.loc 1 965 17
	.loc 1 967 5
	tail	mbedtls_ecp_keypair_init
.LVL229:
	.cfi_endproc
.LFE16:
	.size	mbedtls_ecdsa_init, .-mbedtls_ecdsa_init
	.section	.text.mbedtls_ecdsa_free,"ax",@progbits
	.align	1
	.globl	mbedtls_ecdsa_free
	.type	mbedtls_ecdsa_free, @function
mbedtls_ecdsa_free:
.LFB17:
	.loc 1 974 1
	.cfi_startproc
.LVL230:
	.loc 1 975 5
	.loc 1 975 7 is_stmt 0
	beq	a0,zero,.L61
	.loc 1 978 5 is_stmt 1
	tail	mbedtls_ecp_keypair_free
.LVL231:
.L61:
	.loc 1 979 1 is_stmt 0
	ret
	.cfi_endproc
.LFE17:
	.size	mbedtls_ecdsa_free, .-mbedtls_ecdsa_free
	.section	.text.mbedtls_ecdsa_from_keypair,"ax",@progbits
	.align	1
	.globl	mbedtls_ecdsa_from_keypair
	.type	mbedtls_ecdsa_from_keypair, @function
mbedtls_ecdsa_from_keypair:
.LFB15:
	.loc 1 945 1 is_stmt 1
	.cfi_startproc
.LVL232:
	.loc 1 946 5
	.loc 1 947 5
	.loc 1 947 10
	.loc 1 947 17
	.loc 1 948 5
	.loc 1 948 10
	.loc 1 948 17
	.loc 1 950 5
	.loc 1 945 1 is_stmt 0
	addi	sp,sp,-16
	.cfi_def_cfa_offset 16
	sw	s0,8(sp)
	sw	s1,4(sp)
	sw	s2,0(sp)
	sw	ra,12(sp)
	.cfi_offset 8, -8
	.cfi_offset 9, -12
	.cfi_offset 18, -16
	.cfi_offset 1, -4
	.loc 1 945 1
	mv	s1,a0
	mv	s2,a1
	.loc 1 950 17
	call	mbedtls_ecp_group_copy
.LVL233:
	mv	s0,a0
.LVL234:
	.loc 1 950 7
	bne	a0,zero,.L64
	.loc 1 951 17 discriminator 1
	addi	a1,s2,124
	addi	a0,s1,124
	call	mbedtls_mpi_copy
.LVL235:
	mv	s0,a0
.LVL236:
	.loc 1 950 71 discriminator 1
	bne	a0,zero,.L64
	.loc 1 952 17
	addi	a1,s2,136
	addi	a0,s1,136
	call	mbedtls_ecp_copy
.LVL237:
	mv	s0,a0
.LVL238:
	.loc 1 951 61
	beq	a0,zero,.L63
.L64:
	.loc 1 954 9 is_stmt 1
	mv	a0,s1
	call	mbedtls_ecdsa_free
.LVL239:
	.loc 1 957 5
.L63:
	.loc 1 958 1 is_stmt 0
	lw	ra,12(sp)
	.cfi_restore 1
	mv	a0,s0
	lw	s0,8(sp)
	.cfi_restore 8
.LVL240:
	lw	s1,4(sp)
	.cfi_restore 9
.LVL241:
	lw	s2,0(sp)
	.cfi_restore 18
.LVL242:
	addi	sp,sp,16
	.cfi_def_cfa_offset 0
	jr	ra
	.cfi_endproc
.LFE15:
	.size	mbedtls_ecdsa_from_keypair, .-mbedtls_ecdsa_from_keypair
	.text
.Letext0:
	.file 2 "/mnt/d/GitHub/bl_iot_sdk_for_aithinker/toolchain/riscv/Linux/lib/gcc/riscv64-unknown-elf/10.2.0/include/stddef.h"
	.file 3 "/mnt/d/GitHub/bl_iot_sdk_for_aithinker/toolchain/riscv/Linux/lib/gcc/riscv64-unknown-elf/10.2.0/include/stdint-gcc.h"
	.file 4 "/mnt/d/GitHub/bl_iot_sdk_for_aithinker/components/security/mbedtls_lts/mbedtls/include/mbedtls/bignum.h"
	.file 5 "/mnt/d/GitHub/bl_iot_sdk_for_aithinker/components/security/mbedtls_lts/mbedtls/include/mbedtls/ecp.h"
	.file 6 "/mnt/d/GitHub/bl_iot_sdk_for_aithinker/components/security/mbedtls_lts/mbedtls/include/mbedtls/md.h"
	.file 7 "/mnt/d/GitHub/bl_iot_sdk_for_aithinker/components/security/mbedtls_lts/mbedtls/include/mbedtls/ecdsa.h"
	.file 8 "/mnt/d/GitHub/bl_iot_sdk_for_aithinker/components/security/mbedtls_lts/mbedtls/include/mbedtls/asn1.h"
	.file 9 "/mnt/d/GitHub/bl_iot_sdk_for_aithinker/components/security/mbedtls_lts/mbedtls/include/mbedtls/asn1write.h"
	.file 10 "/mnt/d/GitHub/bl_iot_sdk_for_aithinker/toolchain/riscv/Linux/riscv64-unknown-elf/include/string.h"