	.file	"ecp.c"
	.option nopic
	.attribute arch, "rv32i2p0_m2p0_f2p0_c2p0"
	.attribute unaligned_access, 0
	.attribute stack_align, 16
	.text
.Ltext0:
	.cfi_sections	.debug_frame
	.section	.text.ecp_get_type,"ax",@progbits
	.align	1
	.type	ecp_get_type, @function
ecp_get_type:
.LFB14:
	.file 1 "/mnt/d/GitHub/bl_iot_sdk_for_aithinker/components/security/mbedtls_lts/mbedtls/library/ecp.c"
	.loc 1 804 1
	.cfi_startproc
.LVL0:
	.loc 1 805 5
	.loc 1 805 7 is_stmt 0
	lw	a5,48(a0)
	beq	a5,zero,.L3
	.loc 1 808 5 is_stmt 1
	.loc 1 808 7 is_stmt 0
	lw	a0,60(a0)
.LVL1:
	.loc 1 811 15
	seqz	a0,a0
	addi	a0,a0,1
	ret
.LVL2:
.L3:
	.loc 1 806 15
	li	a0,0
.LVL3:
	.loc 1 812 1
	ret
	.cfi_endproc
.LFE14:
	.size	ecp_get_type, .-ecp_get_type
	.section	.text.ecp_drbg_random,"ax",@progbits
	.align	1
	.type	ecp_drbg_random, @function
ecp_drbg_random:
.LFB6:
	.loc 1 243 1 is_stmt 1
	.cfi_startproc
.LVL4:
	.loc 1 244 5
	.loc 1 244 13 is_stmt 0
	tail	mbedtls_ctr_drbg_random
.LVL5:
	.cfi_endproc
.LFE6:
	.size	ecp_drbg_random, .-ecp_drbg_random
	.section	.text.ecp_drbg_seed,"ax",@progbits
	.align	1
	.type	ecp_drbg_seed, @function
ecp_drbg_seed:
.LFB8:
	.loc 1 264 1 is_stmt 1
	.cfi_startproc
.LVL6:
	.loc 1 265 5
	.loc 1 266 5
	.loc 1 268 5
	.loc 1 268 10
	.loc 1 264 1 is_stmt 0
	addi	sp,sp,-96
	.cfi_def_cfa_offset 96
	sw	s2,80(sp)
	.cfi_offset 18, -16
	mv	s2,a0
	mv	a0,a1
.LVL7:
	.loc 1 268 23
	addi	a1,sp,12
.LVL8:
	.loc 1 264 1
	sw	s1,84(sp)
	sw	ra,92(sp)
	sw	s0,88(sp)
	.cfi_offset 9, -12
	.cfi_offset 1, -4
	.cfi_offset 8, -8
	.loc 1 264 1
	mv	s1,a2
	.loc 1 268 23
	call	mbedtls_mpi_write_binary
.LVL9:
	.loc 1 268 12
	bne	a0,zero,.L8
	.loc 1 268 115 is_stmt 1 discriminator 2
	.loc 1 271 5 discriminator 2
	.loc 1 271 11 is_stmt 0 discriminator 2
	lui	a1,%hi(ecp_ctr_drbg_null_entropy)
	mv	a4,s1
	addi	a3,sp,12
	li	a2,0
	addi	a1,a1,%lo(ecp_ctr_drbg_null_entropy)
	mv	a0,s2
.LVL10:
	call	mbedtls_ctr_drbg_seed
.LVL11:
.L8:
.L7:
	mv	s0,a0
.LVL12:
	.loc 1 275 5 is_stmt 1
	mv	a1,s1
	addi	a0,sp,12
	call	mbedtls_platform_zeroize
.LVL13:
	.loc 1 277 5
	.loc 1 278 1 is_stmt 0
	lw	ra,92(sp)
	.cfi_restore 1
	mv	a0,s0
	lw	s0,88(sp)
	.cfi_restore 8
.LVL14:
	lw	s1,84(sp)
	.cfi_restore 9
.LVL15:
	lw	s2,80(sp)
	.cfi_restore 18
.LVL16:
	addi	sp,sp,96
	.cfi_def_cfa_offset 0
	jr	ra
	.cfi_endproc
.LFE8:
	.size	ecp_drbg_seed, .-ecp_drbg_seed
	.section	.text.ecp_ctr_drbg_null_entropy,"ax",@progbits
	.align	1
	.type	ecp_ctr_drbg_null_entropy, @function
ecp_ctr_drbg_null_entropy:
.LFB7:
	.loc 1 255 1 is_stmt 1
	.cfi_startproc
.LVL17:
	.loc 1 256 5
	.loc 1 257 5
	.loc 1 255 1 is_stmt 0
	addi	sp,sp,-16
	.cfi_def_cfa_offset 16
	mv	a0,a1
.LVL18:
	.loc 1 257 5
	li	a1,0
.LVL19:
	.loc 1 255 1
	sw	ra,12(sp)
	.cfi_offset 1, -4
	.loc 1 257 5
	call	memset
.LVL20:
	.loc 1 258 5 is_stmt 1
	.loc 1 259 1 is_stmt 0
	lw	ra,12(sp)
	.cfi_restore 1
	li	a0,0
	addi	sp,sp,16
	.cfi_def_cfa_offset 0
	jr	ra
	.cfi_endproc
.LFE7:
	.size	ecp_ctr_drbg_null_entropy, .-ecp_ctr_drbg_null_entropy
	.section	.text.ecp_modp,"ax",@progbits
	.align	1
	.type	ecp_modp, @function
ecp_modp:
.LFB34:
	.loc 1 1281 1 is_stmt 1
	.cfi_startproc
.LVL21:
	.loc 1 1282 5
	.loc 1 1284 5
	.loc 1 1281 1 is_stmt 0
	addi	sp,sp,-16
	.cfi_def_cfa_offset 16
	sw	s0,8(sp)
	sw	s1,4(sp)
	sw	ra,12(sp)
	sw	s2,0(sp)
	.cfi_offset 8, -8
	.cfi_offset 9, -12
	.cfi_offset 1, -4
	.cfi_offset 18, -16
	.loc 1 1284 7
	lw	a5,100(a1)
	.loc 1 1281 1
	mv	s0,a0
	mv	s1,a1
	.loc 1 1284 7
	bne	a5,zero,.L13
	.loc 1 1285 9 is_stmt 1
	.loc 1 1306 1 is_stmt 0
	lw	s0,8(sp)
	.cfi_remember_state
	.cfi_restore 8
	lw	ra,12(sp)
	.cfi_restore 1
	lw	s1,4(sp)
	.cfi_restore 9
	lw	s2,0(sp)
	.cfi_restore 18
	.loc 1 1285 17
	addi	a2,a1,4
	.loc 1 1306 1
	.loc 1 1285 17
	mv	a1,a0
.LVL22:
	.loc 1 1306 1
	addi	sp,sp,16
	.cfi_def_cfa_offset 0
	.loc 1 1285 17
	tail	mbedtls_mpi_mod_mpi
.LVL23:
.L13:
	.cfi_restore_state
	.loc 1 1288 5 is_stmt 1
	.loc 1 1288 7 is_stmt 0
	lw	a5,0(a0)
	blt	a5,zero,.L14
.L17:
	.loc 1 1289 9
	mv	a0,s0
	call	mbedtls_mpi_bitlen
.LVL24:
	.loc 1 1289 37
	lw	a5,88(s1)
	slli	a5,a5,1
	.loc 1 1288 58
	bleu	a0,a5,.L30
.L15:
	.loc 1 1291 15
	li	s2,-20480
	addi	s2,s2,128
.LVL25:
.L12:
	.loc 1 1306 1
	lw	ra,12(sp)
	.cfi_remember_state
	.cfi_restore 1
	lw	s0,8(sp)
	.cfi_restore 8
.LVL26:
	lw	s1,4(sp)
	.cfi_restore 9
	mv	a0,s2
	lw	s2,0(sp)
	.cfi_restore 18
	addi	sp,sp,16
	.cfi_def_cfa_offset 0
	jr	ra
.LVL27:
.L14:
	.cfi_restore_state
	.loc 1 1288 23 discriminator 1
	li	a1,0
	call	mbedtls_mpi_cmp_int
.LVL28:
	.loc 1 1288 20 discriminator 1
	beq	a0,zero,.L17
	j	.L15
.L30:
	.loc 1 1294 5 is_stmt 1
	.loc 1 1294 10
	.loc 1 1294 23 is_stmt 0
	lw	a5,100(s1)
	mv	a0,s0
	.loc 1 1285 17
	addi	s1,s1,4
.LVL29:
	.loc 1 1294 23
	jalr	a5
.LVL30:
	mv	s2,a0
.LVL31:
	.loc 1 1294 12
	bne	a0,zero,.L12
.L19:
.LVL32:
	.loc 1 1298 95 is_stmt 1 discriminator 2
	.loc 1 1297 10 discriminator 2
	lw	a5,0(s0)
	bge	a5,zero,.L21
	.loc 1 1297 24 is_stmt 0 discriminator 1
	li	a1,0
	mv	a0,s0
	call	mbedtls_mpi_cmp_int
.LVL33:
	.loc 1 1297 21 discriminator 1
	bne	a0,zero,.L22
.LVL34:
.L21:
	.loc 1 1302 95 is_stmt 1 discriminator 2
	.loc 1 1300 10 discriminator 2
	.loc 1 1300 12 is_stmt 0 discriminator 2
	mv	a1,s1
	mv	a0,s0
	call	mbedtls_mpi_cmp_mpi
.LVL35:
	.loc 1 1300 10 discriminator 2
	blt	a0,zero,.L12
	.loc 1 1302 9 is_stmt 1
	.loc 1 1302 14
	.loc 1 1302 27 is_stmt 0
	mv	a2,s1
	mv	a1,s0
	mv	a0,s0
	call	mbedtls_mpi_sub_abs
.LVL36:
	.loc 1 1302 16
	beq	a0,zero,.L21
	j	.L26
.LVL37:
.L22:
	.loc 1 1298 9 is_stmt 1
	.loc 1 1298 14
	.loc 1 1298 27 is_stmt 0
	mv	a2,s1
	mv	a1,s0
	mv	a0,s0
	call	mbedtls_mpi_add_mpi
.LVL38:
	.loc 1 1298 16
	beq	a0,zero,.L19
.L26:
	mv	s2,a0
.LVL39:
	j	.L12
	.cfi_endproc
.LFE34:
	.size	ecp_modp, .-ecp_modp
	.section	.text.ecp_randomize_mxz,"ax",@progbits
	.align	1
	.type	ecp_randomize_mxz, @function
ecp_randomize_mxz:
.LFB50:
	.loc 1 2500 1 is_stmt 1
	.cfi_startproc
.LVL40:
	.loc 1 2501 5
	.loc 1 2502 5
	.loc 1 2503 5
	.loc 1 2504 5
	.loc 1 2511 5
	.loc 1 2500 1 is_stmt 0
	addi	sp,sp,-64
	.cfi_def_cfa_offset 64
	sw	s1,52(sp)
	sw	s2,48(sp)
	sw	s4,40(sp)
	sw	s5,36(sp)
	sw	s6,32(sp)
	sw	s7,28(sp)
	sw	ra,60(sp)
	sw	s0,56(sp)
	sw	s3,44(sp)
	.cfi_offset 9, -12
	.cfi_offset 18, -16
	.cfi_offset 20, -24
	.cfi_offset 21, -28
	.cfi_offset 22, -32
	.cfi_offset 23, -36
	.cfi_offset 1, -4
	.cfi_offset 8, -8
	.cfi_offset 19, -20
	.loc 1 2511 27
	lw	s3,88(a0)
	.loc 1 2500 1
	mv	s2,a0
	.loc 1 2512 5
	addi	a0,sp,4
.LVL41:
	.loc 1 2511 27
	addi	s3,s3,7
	.loc 1 2500 1
	mv	s1,a1
	mv	s5,a2
	mv	s6,a3
	.loc 1 2511 12
	srli	s3,s3,3
.LVL42:
	.loc 1 2512 5 is_stmt 1
	call	mbedtls_mpi_init
.LVL43:
	li	s4,12
	.loc 1 2519 16 is_stmt 0
	addi	s7,s2,4
.LVL44:
.L36:
	.loc 1 2515 5 is_stmt 1
	.loc 1 2517 9
	.loc 1 2517 14
	.loc 1 2517 27 is_stmt 0
	mv	a3,s6
	mv	a2,s5
	mv	a1,s3
	addi	a0,sp,4
	call	mbedtls_mpi_fill_random
.LVL45:
.L40:
	.loc 1 2520 31
	mv	s0,a0
.LVL46:
	.loc 1 2520 20
	bne	a0,zero,.L33
	.loc 1 2520 91 is_stmt 1 discriminator 2
	.loc 1 2519 14 discriminator 2
	.loc 1 2519 16 is_stmt 0 discriminator 2
	mv	a1,s7
	addi	a0,sp,4
	call	mbedtls_mpi_cmp_mpi
.LVL47:
	.loc 1 2519 14 discriminator 2
	bge	a0,zero,.L35
	.loc 1 2522 9 is_stmt 1
.LVL48:
	.loc 1 2522 11 is_stmt 0
	addi	s4,s4,-1
.LVL49:
	beq	s4,zero,.L37
	.loc 1 2528 10 is_stmt 1
	.loc 1 2528 12 is_stmt 0
	li	a1,1
	addi	a0,sp,4
	call	mbedtls_mpi_cmp_int
.LVL50:
	.loc 1 2528 5
	ble	a0,zero,.L36
	.loc 1 2530 5 is_stmt 1
	.loc 1 2530 10
	.loc 1 2530 23 is_stmt 0
	addi	a2,sp,4
	mv	a1,s1
	mv	a0,s1
	call	mbedtls_mpi_mul_mpi
.LVL51:
	mv	s0,a0
.LVL52:
	.loc 1 2530 12
	bne	a0,zero,.L33
	.loc 1 2530 94 is_stmt 1 discriminator 2
	.loc 1 2530 101 discriminator 2
	.loc 1 2530 106 discriminator 2
	.loc 1 2530 111 discriminator 2
	.loc 1 2530 124 is_stmt 0 discriminator 2
	mv	a1,s2
	mv	a0,s1
	call	ecp_modp
.LVL53:
	mv	s0,a0
.LVL54:
	.loc 1 2530 113 discriminator 2
	bne	a0,zero,.L33
	.loc 1 2530 180 is_stmt 1 discriminator 4
	.loc 1 2530 194 discriminator 4
	.loc 1 2531 5 discriminator 4
	.loc 1 2531 10 discriminator 4
	.loc 1 2531 23 is_stmt 0 discriminator 4
	addi	s1,s1,24
.LVL55:
	addi	a2,sp,4
	mv	a1,s1
	mv	a0,s1
	call	mbedtls_mpi_mul_mpi
.LVL56:
	mv	s0,a0
.LVL57:
	.loc 1 2531 12 discriminator 4
	bne	a0,zero,.L33
	.loc 1 2531 94 is_stmt 1 discriminator 2
	.loc 1 2531 101 discriminator 2
	.loc 1 2531 106 discriminator 2
	.loc 1 2531 111 discriminator 2
	.loc 1 2531 124 is_stmt 0 discriminator 2
	mv	a1,s2
	mv	a0,s1
	call	ecp_modp
.LVL58:
	mv	s0,a0
.LVL59:
.L33:
	.loc 1 2531 180 is_stmt 1 discriminator 6
	.loc 1 2531 194 discriminator 6
	.loc 1 2534 5 discriminator 6
	addi	a0,sp,4
	call	mbedtls_mpi_free
.LVL60:
	.loc 1 2536 5 discriminator 6
	.loc 1 2537 1 is_stmt 0 discriminator 6
	lw	ra,60(sp)
	.cfi_remember_state
	.cfi_restore 1
	mv	a0,s0
	lw	s0,56(sp)
	.cfi_restore 8
.LVL61:
	lw	s1,52(sp)
	.cfi_restore 9
	lw	s2,48(sp)
	.cfi_restore 18
.LVL62:
	lw	s3,44(sp)
	.cfi_restore 19
.LVL63:
	lw	s4,40(sp)
	.cfi_restore 20
	lw	s5,36(sp)
	.cfi_restore 21
.LVL64:
	lw	s6,32(sp)
	.cfi_restore 22
.LVL65:
	lw	s7,28(sp)
	.cfi_restore 23
.LVL66:
	addi	sp,sp,64
	.cfi_def_cfa_offset 0
	jr	ra
.LVL67:
.L35:
	.cfi_restore_state
	.loc 1 2520 13 is_stmt 1
	.loc 1 2520 18
	.loc 1 2520 31 is_stmt 0
	li	a1,1
	addi	a0,sp,4
	call	mbedtls_mpi_shift_r
.LVL68:
	j	.L40
.L37:
	.loc 1 2524 17
	li	a0,-20480
	addi	s0,a0,768
.LVL69:
	j	.L33
	.cfi_endproc
.LFE50:
	.size	ecp_randomize_mxz, .-ecp_randomize_mxz
	.section	.text.ecp_randomize_jac,"ax",@progbits
	.align	1
	.type	ecp_randomize_jac, @function
ecp_randomize_jac:
.LFB40:
	.loc 1 1724 1 is_stmt 1
	.cfi_startproc
.LVL70:
	.loc 1 1725 5
	.loc 1 1726 5
	.loc 1 1727 5
	.loc 1 1728 5
	.loc 1 1735 5
	.loc 1 1724 1 is_stmt 0
	addi	sp,sp,-80
	.cfi_def_cfa_offset 80
	sw	ra,76(sp)
	sw	s1,68(sp)
	sw	s2,64(sp)
	sw	s4,56(sp)
	sw	s5,52(sp)
	sw	s6,48(sp)
	sw	s7,44(sp)
	sw	s0,72(sp)
	sw	s3,60(sp)
	.cfi_offset 1, -4
	.cfi_offset 9, -12
	.cfi_offset 18, -16
	.cfi_offset 20, -24
	.cfi_offset 21, -28
	.cfi_offset 22, -32
	.cfi_offset 23, -36
	.cfi_offset 8, -8
	.cfi_offset 19, -20
	.loc 1 1735 27
	lw	s3,88(a0)
	.loc 1 1724 1
	mv	s1,a0
	.loc 1 1736 5
	addi	a0,sp,8
.LVL71:
	.loc 1 1724 1
	mv	s2,a1
	mv	s5,a2
	mv	s6,a3
	.loc 1 1736 5
	call	mbedtls_mpi_init
.LVL72:
	.loc 1 1735 27
	addi	s3,s3,7
	.loc 1 1736 29
	addi	a0,sp,20
	.loc 1 1735 12
	srli	s3,s3,3
.LVL73:
	.loc 1 1736 5 is_stmt 1
	.loc 1 1736 29
	call	mbedtls_mpi_init
.LVL74:
	li	s4,12
	.loc 1 1743 16 is_stmt 0
	addi	s7,s1,4
.LVL75:
.L45:
	.loc 1 1739 5 is_stmt 1
	.loc 1 1741 9
	.loc 1 1741 14
	.loc 1 1741 27 is_stmt 0
	mv	a3,s6
	mv	a2,s5
	mv	a1,s3
	addi	a0,sp,8
	call	mbedtls_mpi_fill_random
.LVL76:
.L49:
	.loc 1 1744 31
	mv	s0,a0
.LVL77:
	.loc 1 1744 20
	bne	a0,zero,.L42
	.loc 1 1744 91 is_stmt 1 discriminator 2
	.loc 1 1743 14 discriminator 2
	.loc 1 1743 16 is_stmt 0 discriminator 2
	mv	a1,s7
	addi	a0,sp,8
	call	mbedtls_mpi_cmp_mpi
.LVL78:
	.loc 1 1743 14 discriminator 2
	bge	a0,zero,.L44
	.loc 1 1746 9 is_stmt 1
.LVL79:
	.loc 1 1746 11 is_stmt 0
	addi	s4,s4,-1
.LVL80:
	beq	s4,zero,.L46
	.loc 1 1752 10 is_stmt 1
	.loc 1 1752 12 is_stmt 0
	li	a1,1
	addi	a0,sp,8
	call	mbedtls_mpi_cmp_int
.LVL81:
	.loc 1 1752 5
	ble	a0,zero,.L45
	.loc 1 1755 5 is_stmt 1
	.loc 1 1755 10
	.loc 1 1755 23 is_stmt 0
	addi	s3,s2,24
.LVL82:
	addi	a2,sp,8
	mv	a1,s3
	mv	a0,s3
	call	mbedtls_mpi_mul_mpi
.LVL83:
	mv	s0,a0
.LVL84:
	.loc 1 1755 12
	bne	a0,zero,.L42
	.loc 1 1755 96 is_stmt 1 discriminator 2
	.loc 1 1755 103 discriminator 2
	.loc 1 1755 108 discriminator 2
	.loc 1 1755 113 discriminator 2
	.loc 1 1755 126 is_stmt 0 discriminator 2
	mv	a1,s1
	mv	a0,s3
	call	ecp_modp
.LVL85:
	mv	s0,a0
.LVL86:
	.loc 1 1755 115 discriminator 2
	bne	a0,zero,.L42
	.loc 1 1755 183 is_stmt 1 discriminator 4
	.loc 1 1755 197 discriminator 4
	.loc 1 1758 5 discriminator 4
	.loc 1 1758 10 discriminator 4
	.loc 1 1758 23 is_stmt 0 discriminator 4
	addi	a2,sp,8
	mv	a1,a2
	addi	a0,sp,20
	call	mbedtls_mpi_mul_mpi
.LVL87:
	mv	s0,a0
.LVL88:
	.loc 1 1758 12 discriminator 4
	bne	a0,zero,.L42
	.loc 1 1758 89 is_stmt 1 discriminator 2
	.loc 1 1758 96 discriminator 2
	.loc 1 1758 101 discriminator 2
	.loc 1 1758 106 discriminator 2
	.loc 1 1758 119 is_stmt 0 discriminator 2
	mv	a1,s1
	addi	a0,sp,20
	call	ecp_modp
.LVL89:
	mv	s0,a0
.LVL90:
	.loc 1 1758 108 discriminator 2
	bne	a0,zero,.L42
	.loc 1 1758 173 is_stmt 1 discriminator 4
	.loc 1 1758 187 discriminator 4
	.loc 1 1759 5 discriminator 4
	.loc 1 1759 10 discriminator 4
	.loc 1 1759 23 is_stmt 0 discriminator 4
	addi	a2,sp,20
	mv	a1,s2
	mv	a0,s2
	call	mbedtls_mpi_mul_mpi
.LVL91:
	mv	s0,a0
.LVL92:
	.loc 1 1759 12 discriminator 4
	bne	a0,zero,.L42
	.loc 1 1759 97 is_stmt 1 discriminator 2
	.loc 1 1759 104 discriminator 2
	.loc 1 1759 109 discriminator 2
	.loc 1 1759 114 discriminator 2
	.loc 1 1759 127 is_stmt 0 discriminator 2
	mv	a1,s1
	mv	a0,s2
	call	ecp_modp
.LVL93:
	mv	s0,a0
.LVL94:
	.loc 1 1759 116 discriminator 2
	bne	a0,zero,.L42
	.loc 1 1759 184 is_stmt 1 discriminator 4
	.loc 1 1759 198 discriminator 4
	.loc 1 1762 5 discriminator 4
	.loc 1 1762 10 discriminator 4
	.loc 1 1762 23 is_stmt 0 discriminator 4
	addi	a1,sp,20
	addi	a2,sp,8
	mv	a0,a1
	call	mbedtls_mpi_mul_mpi
.LVL95:
	mv	s0,a0
.LVL96:
	.loc 1 1762 12 discriminator 4
	bne	a0,zero,.L42
	.loc 1 1762 90 is_stmt 1 discriminator 2
	.loc 1 1762 97 discriminator 2
	.loc 1 1762 102 discriminator 2
	.loc 1 1762 107 discriminator 2
	.loc 1 1762 120 is_stmt 0 discriminator 2
	mv	a1,s1
	addi	a0,sp,20
	call	ecp_modp
.LVL97:
	mv	s0,a0
.LVL98:
	.loc 1 1762 109 discriminator 2
	bne	a0,zero,.L42
	.loc 1 1762 174 is_stmt 1 discriminator 4
	.loc 1 1762 188 discriminator 4
	.loc 1 1763 5 discriminator 4
	.loc 1 1763 10 discriminator 4
	.loc 1 1763 23 is_stmt 0 discriminator 4
	addi	s2,s2,12
.LVL99:
	addi	a2,sp,20
	mv	a1,s2
	mv	a0,s2
	call	mbedtls_mpi_mul_mpi
.LVL100:
	mv	s0,a0
.LVL101:
	.loc 1 1763 12 discriminator 4
	bne	a0,zero,.L42
	.loc 1 1763 97 is_stmt 1 discriminator 2
	.loc 1 1763 104 discriminator 2
	.loc 1 1763 109 discriminator 2
	.loc 1 1763 114 discriminator 2
	.loc 1 1763 127 is_stmt 0 discriminator 2
	mv	a1,s1
	mv	a0,s2
	call	ecp_modp
.LVL102:
	mv	s0,a0
.LVL103:
.L42:
	.loc 1 1763 184 is_stmt 1 discriminator 6
	.loc 1 1763 198 discriminator 6
	.loc 1 1766 5 discriminator 6
	addi	a0,sp,8
	call	mbedtls_mpi_free
.LVL104:
	.loc 1 1766 29 discriminator 6
	addi	a0,sp,20
	call	mbedtls_mpi_free
.LVL105:
	.loc 1 1768 5 discriminator 6
	.loc 1 1769 1 is_stmt 0 discriminator 6
	lw	ra,76(sp)
	.cfi_remember_state
	.cfi_restore 1
	mv	a0,s0
	lw	s0,72(sp)
	.cfi_restore 8
.LVL106:
	lw	s1,68(sp)
	.cfi_restore 9
.LVL107:
	lw	s2,64(sp)
	.cfi_restore 18
	lw	s3,60(sp)
	.cfi_restore 19
	lw	s4,56(sp)
	.cfi_restore 20
	lw	s5,52(sp)
	.cfi_restore 21
.LVL108:
	lw	s6,48(sp)
	.cfi_restore 22
.LVL109:
	lw	s7,44(sp)
	.cfi_restore 23
.LVL110:
	addi	sp,sp,80
	.cfi_def_cfa_offset 0
	jr	ra
.LVL111:
.L44:
	.cfi_restore_state
	.loc 1 1744 13 is_stmt 1
	.loc 1 1744 18
	.loc 1 1744 31 is_stmt 0
	li	a1,1
	addi	a0,sp,8
	call	mbedtls_mpi_shift_r
.LVL112:
	j	.L49
.L46:
	.loc 1 1748 17
	li	a0,-20480
	addi	s0,a0,768
.LVL113:
	j	.L42
	.cfi_endproc
.LFE40:
	.size	ecp_randomize_jac, .-ecp_randomize_jac
	.section	.text.ecp_normalize_jac,"ax",@progbits
	.align	1
	.type	ecp_normalize_jac, @function
ecp_normalize_jac:
.LFB35:
	.loc 1 1365 1 is_stmt 1
	.cfi_startproc
.LVL114:
	.loc 1 1366 5
	.loc 1 1367 5
	.loc 1 1369 5
	.loc 1 1365 1 is_stmt 0
	addi	sp,sp,-64
	.cfi_def_cfa_offset 64
	sw	s1,52(sp)
	.cfi_offset 9, -12
	.loc 1 1369 30
	addi	s1,a1,24
	.loc 1 1365 1
	sw	s2,48(sp)
	sw	s3,44(sp)
	.cfi_offset 18, -16
	.cfi_offset 19, -20
	mv	s2,a0
	mv	s3,a1
	.loc 1 1369 9
	mv	a0,s1
.LVL115:
	li	a1,0
.LVL116:
	.loc 1 1365 1
	sw	s0,56(sp)
	sw	ra,60(sp)
	.cfi_offset 8, -8
	.cfi_offset 1, -4
	.loc 1 1369 9
	call	mbedtls_mpi_cmp_int
.LVL117:
	mv	s0,a0
	.loc 1 1369 7
	beq	a0,zero,.L50
	.loc 1 1377 5 is_stmt 1
	addi	a0,sp,8
	call	mbedtls_mpi_init
.LVL118:
	.loc 1 1377 30
	addi	a0,sp,20
	call	mbedtls_mpi_init
.LVL119:
	.loc 1 1382 5
	.loc 1 1382 10
	.loc 1 1382 23 is_stmt 0
	addi	a2,s2,4
	mv	a1,s1
	addi	a0,sp,8
	call	mbedtls_mpi_inv_mod
.LVL120:
	mv	s0,a0
.LVL121:
	.loc 1 1382 12
	bne	a0,zero,.L52
	.loc 1 1382 98 is_stmt 1 discriminator 2
	.loc 1 1383 5 discriminator 2
	.loc 1 1383 10 discriminator 2
	.loc 1 1383 23 is_stmt 0 discriminator 2
	addi	a2,sp,8
	mv	a1,a2
	addi	a0,sp,20
	call	mbedtls_mpi_mul_mpi
.LVL122:
	mv	s0,a0
.LVL123:
	.loc 1 1383 12 discriminator 2
	bne	a0,zero,.L52
	.loc 1 1383 92 is_stmt 1 discriminator 2
	.loc 1 1383 99 discriminator 2
	.loc 1 1383 104 discriminator 2
	.loc 1 1383 109 discriminator 2
	.loc 1 1383 122 is_stmt 0 discriminator 2
	mv	a1,s2
	addi	a0,sp,20
	call	ecp_modp
.LVL124:
	mv	s0,a0
.LVL125:
	.loc 1 1383 111 discriminator 2
	bne	a0,zero,.L52
	.loc 1 1383 177 is_stmt 1 discriminator 4
	.loc 1 1383 191 discriminator 4
	.loc 1 1384 5 discriminator 4
	.loc 1 1384 10 discriminator 4
	.loc 1 1384 23 is_stmt 0 discriminator 4
	addi	a2,sp,20
	mv	a1,s3
	mv	a0,s3
	call	mbedtls_mpi_mul_mpi
.LVL126:
	mv	s0,a0
.LVL127:
	.loc 1 1384 12 discriminator 4
	bne	a0,zero,.L52
	.loc 1 1384 98 is_stmt 1 discriminator 2
	.loc 1 1384 105 discriminator 2
	.loc 1 1384 110 discriminator 2
	.loc 1 1384 115 discriminator 2
	.loc 1 1384 128 is_stmt 0 discriminator 2
	mv	a1,s2
	mv	a0,s3
	call	ecp_modp
.LVL128:
	mv	s0,a0
.LVL129:
	.loc 1 1384 117 discriminator 2
	bne	a0,zero,.L52
	.loc 1 1384 185 is_stmt 1 discriminator 4
	.loc 1 1384 199 discriminator 4
	.loc 1 1389 5 discriminator 4
	.loc 1 1389 10 discriminator 4
	.loc 1 1389 23 is_stmt 0 discriminator 4
	addi	s3,s3,12
.LVL130:
	addi	a2,sp,20
	mv	a1,s3
	mv	a0,s3
	call	mbedtls_mpi_mul_mpi
.LVL131:
	mv	s0,a0
.LVL132:
	.loc 1 1389 12 discriminator 4
	bne	a0,zero,.L52
	.loc 1 1389 98 is_stmt 1 discriminator 2
	.loc 1 1389 105 discriminator 2
	.loc 1 1389 110 discriminator 2
	.loc 1 1389 115 discriminator 2
	.loc 1 1389 128 is_stmt 0 discriminator 2
	mv	a1,s2
	mv	a0,s3
	call	ecp_modp
.LVL133:
	mv	s0,a0
.LVL134:
	.loc 1 1389 117 discriminator 2
	bne	a0,zero,.L52
	.loc 1 1389 185 is_stmt 1 discriminator 4
	.loc 1 1389 199 discriminator 4
	.loc 1 1390 5 discriminator 4
	.loc 1 1390 10 discriminator 4
	.loc 1 1390 23 is_stmt 0 discriminator 4
	addi	a2,sp,8
	mv	a1,s3
	mv	a0,s3
	call	mbedtls_mpi_mul_mpi
.LVL135:
	mv	s0,a0
.LVL136:
	.loc 1 1390 12 discriminator 4
	bne	a0,zero,.L52
	.loc 1 1390 97 is_stmt 1 discriminator 2
	.loc 1 1390 104 discriminator 2
	.loc 1 1390 109 discriminator 2
	.loc 1 1390 114 discriminator 2
	.loc 1 1390 127 is_stmt 0 discriminator 2
	mv	a1,s2
	mv	a0,s3
	call	ecp_modp
.LVL137:
	mv	s0,a0
.LVL138:
	.loc 1 1390 116 discriminator 2
	bne	a0,zero,.L52
	.loc 1 1390 184 is_stmt 1 discriminator 4
	.loc 1 1390 198 discriminator 4
	.loc 1 1395 5 discriminator 4
	.loc 1 1395 10 discriminator 4
	.loc 1 1395 23 is_stmt 0 discriminator 4
	li	a1,1
	mv	a0,s1
	call	mbedtls_mpi_lset
.LVL139:
	mv	s0,a0
.LVL140:
.L52:
	.loc 1 1395 84 is_stmt 1 discriminator 3
	.loc 1 1399 5 discriminator 3
	addi	a0,sp,8
	call	mbedtls_mpi_free
.LVL141:
	.loc 1 1399 30 discriminator 3
	addi	a0,sp,20
	call	mbedtls_mpi_free
.LVL142:
	.loc 1 1401 5 discriminator 3
.L50:
	.loc 1 1402 1 is_stmt 0
	lw	ra,60(sp)
	.cfi_restore 1
	mv	a0,s0
	lw	s0,56(sp)
	.cfi_restore 8
	lw	s1,52(sp)
	.cfi_restore 9
.LVL143:
	lw	s2,48(sp)
	.cfi_restore 18
.LVL144:
	lw	s3,44(sp)
	.cfi_restore 19
	addi	sp,sp,64
	.cfi_def_cfa_offset 0
	jr	ra
	.cfi_endproc
.LFE35:
	.size	ecp_normalize_jac, .-ecp_normalize_jac
	.section	.text.ecp_double_jac,"ax",@progbits
	.align	1
	.type	ecp_double_jac, @function
ecp_double_jac:
.LFB38:
	.loc 1 1541 1 is_stmt 1
	.cfi_startproc
.LVL145:
	.loc 1 1542 5
	.loc 1 1543 5
	.loc 1 1554 5
	.loc 1 1541 1 is_stmt 0
	addi	sp,sp,-96
	.cfi_def_cfa_offset 96
	sw	s4,72(sp)
	.cfi_offset 20, -24
	mv	s4,a0
	.loc 1 1554 5
	mv	a0,sp
.LVL146:
	.loc 1 1541 1
	sw	ra,92(sp)
	sw	s1,84(sp)
	sw	s2,80(sp)
	sw	s5,68(sp)
	.cfi_offset 1, -4
	.cfi_offset 9, -12
	.cfi_offset 18, -16
	.cfi_offset 21, -28
	mv	s2,a1
	mv	s5,a2
	sw	s0,88(sp)
	sw	s3,76(sp)
	sw	s6,64(sp)
	sw	s7,60(sp)
	.cfi_offset 8, -8
	.cfi_offset 19, -20
	.cfi_offset 22, -32
	.cfi_offset 23, -36
	.loc 1 1554 29
	addi	s1,sp,12
	.loc 1 1554 5
	call	mbedtls_mpi_init
.LVL147:
	.loc 1 1554 29 is_stmt 1
	mv	a0,s1
	call	mbedtls_mpi_init
.LVL148:
	.loc 1 1554 53
	addi	a0,sp,24
	call	mbedtls_mpi_init
.LVL149:
	.loc 1 1554 77
	addi	a0,sp,36
	call	mbedtls_mpi_init
.LVL150:
	.loc 1 1557 5
	.loc 1 1557 7 is_stmt 0
	lw	a5,24(s4)
	bne	a5,zero,.L59
	.loc 1 1560 9 is_stmt 1
	.loc 1 1560 14
	.loc 1 1560 27 is_stmt 0
	addi	a2,s5,24
	mv	a1,a2
	mv	a0,s1
	call	mbedtls_mpi_mul_mpi
.LVL151:
	mv	s0,a0
.LVL152:
	.loc 1 1560 16
	bne	a0,zero,.L60
	.loc 1 1560 98 is_stmt 1 discriminator 2
	.loc 1 1560 105 discriminator 2
	.loc 1 1560 110 discriminator 2
	.loc 1 1560 115 discriminator 2
	.loc 1 1560 128 is_stmt 0 discriminator 2
	mv	a1,s4
	mv	a0,s1
	call	ecp_modp
.LVL153:
	mv	s0,a0
.LVL154:
	.loc 1 1560 117 discriminator 2
	bne	a0,zero,.L60
	.loc 1 1560 181 is_stmt 1 discriminator 4
	.loc 1 1560 195 discriminator 4
	.loc 1 1561 9 discriminator 4
	.loc 1 1561 14 discriminator 4
	.loc 1 1561 27 is_stmt 0 discriminator 4
	mv	a2,s1
	mv	a1,s5
	addi	a0,sp,24
	call	mbedtls_mpi_add_mpi
.LVL155:
	mv	s0,a0
.LVL156:
	.loc 1 1561 109 discriminator 4
	addi	s3,s4,4
	.loc 1 1561 16 discriminator 4
	beq	a0,zero,.L61
.L60:
	.loc 1 1609 84 is_stmt 1 discriminator 3
	.loc 1 1612 5 discriminator 3
	mv	a0,sp
	call	mbedtls_mpi_free
.LVL157:
	.loc 1 1612 29 discriminator 3
	mv	a0,s1
	call	mbedtls_mpi_free
.LVL158:
	.loc 1 1612 53 discriminator 3
	addi	a0,sp,24
	call	mbedtls_mpi_free
.LVL159:
	.loc 1 1612 77 discriminator 3
	addi	a0,sp,36
	call	mbedtls_mpi_free
.LVL160:
	.loc 1 1614 5 discriminator 3
	.loc 1 1615 1 is_stmt 0 discriminator 3
	lw	ra,92(sp)
	.cfi_remember_state
	.cfi_restore 1
	mv	a0,s0
	lw	s0,88(sp)
	.cfi_restore 8
.LVL161:
	lw	s1,84(sp)
	.cfi_restore 9
	lw	s2,80(sp)
	.cfi_restore 18
.LVL162:
	lw	s3,76(sp)
	.cfi_restore 19
	lw	s4,72(sp)
	.cfi_restore 20
.LVL163:
	lw	s5,68(sp)
	.cfi_restore 21
.LVL164:
	lw	s6,64(sp)
	.cfi_restore 22
	lw	s7,60(sp)
	.cfi_restore 23
	addi	sp,sp,96
	.cfi_def_cfa_offset 0
	jr	ra
.LVL165:
.L62:
	.cfi_restore_state
	.loc 1 1561 153 is_stmt 1 discriminator 5
	.loc 1 1561 158 discriminator 5
	.loc 1 1561 171 is_stmt 0 discriminator 5
	addi	a1,sp,24
	mv	a2,s3
	mv	a0,a1
	call	mbedtls_mpi_sub_abs
.LVL166:
	mv	s0,a0
.LVL167:
	.loc 1 1561 160 discriminator 5
	bne	a0,zero,.L60
.L61:
	.loc 1 1561 245 is_stmt 1 discriminator 4
	.loc 1 1561 107 discriminator 4
	.loc 1 1561 109 is_stmt 0 discriminator 4
	mv	a1,s3
	addi	a0,sp,24
	call	mbedtls_mpi_cmp_mpi
.LVL168:
	.loc 1 1561 107 discriminator 4
	bge	a0,zero,.L62
	.loc 1 1562 9 is_stmt 1
	.loc 1 1562 14
	.loc 1 1562 27 is_stmt 0
	mv	a2,s1
	mv	a1,s5
	addi	a0,sp,36
	call	mbedtls_mpi_sub_mpi
.LVL169:
.L110:
	.loc 1 1562 178 discriminator 6
	mv	s0,a0
.LVL170:
	.loc 1 1562 167 discriminator 6
	bne	a0,zero,.L60
	.loc 1 1562 252 is_stmt 1 discriminator 4
	.loc 1 1562 107 discriminator 4
	lw	a5,36(sp)
	blt	a5,zero,.L64
.L67:
	.loc 1 1563 9
	.loc 1 1563 14
	.loc 1 1563 27 is_stmt 0
	addi	a2,sp,36
	addi	a1,sp,24
	mv	a0,s1
	call	mbedtls_mpi_mul_mpi
.LVL171:
	mv	s0,a0
.LVL172:
	.loc 1 1563 16
	bne	a0,zero,.L60
	.loc 1 1563 92 is_stmt 1 discriminator 2
	.loc 1 1563 99 discriminator 2
	.loc 1 1563 104 discriminator 2
	.loc 1 1563 109 discriminator 2
	.loc 1 1563 122 is_stmt 0 discriminator 2
	mv	a1,s4
	mv	a0,s1
	call	ecp_modp
.LVL173:
	mv	s0,a0
.LVL174:
	.loc 1 1563 111 discriminator 2
	bne	a0,zero,.L60
	.loc 1 1563 175 is_stmt 1 discriminator 4
	.loc 1 1563 189 discriminator 4
	.loc 1 1564 9 discriminator 4
	.loc 1 1564 14 discriminator 4
	.loc 1 1564 27 is_stmt 0 discriminator 4
	li	a2,3
	mv	a1,s1
	mv	a0,sp
	call	mbedtls_mpi_mul_int
.LVL175:
.L111:
	.loc 1 1564 167 discriminator 5
	mv	s0,a0
.LVL176:
	.loc 1 1564 156 discriminator 5
	bne	a0,zero,.L60
	.loc 1 1564 241 is_stmt 1 discriminator 4
	.loc 1 1564 103 discriminator 4
	.loc 1 1564 105 is_stmt 0 discriminator 4
	mv	a1,s3
	mv	a0,sp
	call	mbedtls_mpi_cmp_mpi
.LVL177:
	.loc 1 1564 103 discriminator 4
	bge	a0,zero,.L69
.L73:
	.loc 1 1584 5 is_stmt 1
	.loc 1 1584 10
	.loc 1 1584 23 is_stmt 0
	addi	s6,s5,12
	mv	a2,s6
	mv	a1,s6
	addi	a0,sp,24
	call	mbedtls_mpi_mul_mpi
.LVL178:
	mv	s0,a0
.LVL179:
	.loc 1 1584 12
	bne	a0,zero,.L60
	.loc 1 1584 94 is_stmt 1 discriminator 2
	.loc 1 1584 101 discriminator 2
	.loc 1 1584 106 discriminator 2
	.loc 1 1584 111 discriminator 2
	.loc 1 1584 124 is_stmt 0 discriminator 2
	mv	a1,s4
	addi	a0,sp,24
	call	ecp_modp
.LVL180:
	mv	s0,a0
.LVL181:
	.loc 1 1584 113 discriminator 2
	bne	a0,zero,.L60
	.loc 1 1584 177 is_stmt 1 discriminator 4
	.loc 1 1584 191 discriminator 4
	.loc 1 1585 5 discriminator 4
	.loc 1 1585 10 discriminator 4
	.loc 1 1585 23 is_stmt 0 discriminator 4
	li	a1,1
	addi	a0,sp,24
	call	mbedtls_mpi_shift_l
.LVL182:
	mv	s0,a0
.LVL183:
	.loc 1 1585 97 discriminator 4
	addi	s3,s4,4
	.loc 1 1585 12 discriminator 4
	bne	a0,zero,.L60
.L76:
	.loc 1 1585 233 is_stmt 1 discriminator 4
	.loc 1 1585 95 discriminator 4
	.loc 1 1585 97 is_stmt 0 discriminator 4
	mv	a1,s3
	addi	a0,sp,24
	call	mbedtls_mpi_cmp_mpi
.LVL184:
	.loc 1 1585 95 discriminator 4
	bge	a0,zero,.L77
	.loc 1 1586 5 is_stmt 1
	.loc 1 1586 10
	.loc 1 1586 23 is_stmt 0
	addi	a2,sp,24
	mv	a1,s5
	mv	a0,s1
	call	mbedtls_mpi_mul_mpi
.LVL185:
	mv	s0,a0
.LVL186:
	.loc 1 1586 12
	bne	a0,zero,.L60
	.loc 1 1586 91 is_stmt 1 discriminator 2
	.loc 1 1586 98 discriminator 2
	.loc 1 1586 103 discriminator 2
	.loc 1 1586 108 discriminator 2
	.loc 1 1586 121 is_stmt 0 discriminator 2
	mv	a1,s4
	mv	a0,s1
	call	ecp_modp
.LVL187:
	mv	s0,a0
.LVL188:
	.loc 1 1586 110 discriminator 2
	bne	a0,zero,.L60
	.loc 1 1586 174 is_stmt 1 discriminator 4
	.loc 1 1586 188 discriminator 4
	.loc 1 1587 5 discriminator 4
	.loc 1 1587 10 discriminator 4
	.loc 1 1587 23 is_stmt 0 discriminator 4
	li	a1,1
	mv	a0,s1
	call	mbedtls_mpi_shift_l
.LVL189:
.L113:
	.loc 1 1587 159 discriminator 5
	mv	s0,a0
.LVL190:
	.loc 1 1587 148 discriminator 5
	bne	a0,zero,.L60
	.loc 1 1587 233 is_stmt 1 discriminator 4
	.loc 1 1587 95 discriminator 4
	.loc 1 1587 97 is_stmt 0 discriminator 4
	mv	a1,s3
	mv	a0,s1
	call	mbedtls_mpi_cmp_mpi
.LVL191:
	.loc 1 1587 95 discriminator 4
	bge	a0,zero,.L79
	.loc 1 1590 5 is_stmt 1
	.loc 1 1590 10
	.loc 1 1590 23 is_stmt 0
	addi	a2,sp,24
	mv	a1,a2
	addi	a0,sp,36
	call	mbedtls_mpi_mul_mpi
.LVL192:
	mv	s0,a0
.LVL193:
	.loc 1 1590 12
	bne	a0,zero,.L60
	.loc 1 1590 88 is_stmt 1 discriminator 2
	.loc 1 1590 95 discriminator 2
	.loc 1 1590 100 discriminator 2
	.loc 1 1590 105 discriminator 2
	.loc 1 1590 118 is_stmt 0 discriminator 2
	mv	a1,s4
	addi	a0,sp,36
	call	ecp_modp
.LVL194:
	mv	s0,a0
.LVL195:
	.loc 1 1590 107 discriminator 2
	bne	a0,zero,.L60
	.loc 1 1590 171 is_stmt 1 discriminator 4
	.loc 1 1590 185 discriminator 4
	.loc 1 1591 5 discriminator 4
	.loc 1 1591 10 discriminator 4
	.loc 1 1591 23 is_stmt 0 discriminator 4
	li	a1,1
	addi	a0,sp,36
	call	mbedtls_mpi_shift_l
.LVL196:
.L114:
	.loc 1 1591 159 discriminator 5
	mv	s0,a0
.LVL197:
	.loc 1 1591 148 discriminator 5
	bne	a0,zero,.L60
	.loc 1 1591 233 is_stmt 1 discriminator 4
	.loc 1 1591 95 discriminator 4
	.loc 1 1591 97 is_stmt 0 discriminator 4
	mv	a1,s3
	addi	a0,sp,36
	call	mbedtls_mpi_cmp_mpi
.LVL198:
	.loc 1 1591 95 discriminator 4
	bge	a0,zero,.L81
	.loc 1 1594 5 is_stmt 1
	.loc 1 1594 10
	.loc 1 1594 23 is_stmt 0
	mv	a2,sp
	mv	a1,sp
	addi	a0,sp,24
	call	mbedtls_mpi_mul_mpi
.LVL199:
	mv	s0,a0
.LVL200:
	.loc 1 1594 12
	bne	a0,zero,.L60
	.loc 1 1594 88 is_stmt 1 discriminator 2
	.loc 1 1594 95 discriminator 2
	.loc 1 1594 100 discriminator 2
	.loc 1 1594 105 discriminator 2
	.loc 1 1594 118 is_stmt 0 discriminator 2
	mv	a1,s4
	addi	a0,sp,24
	call	ecp_modp
.LVL201:
	mv	s0,a0
.LVL202:
	.loc 1 1594 107 discriminator 2
	bne	a0,zero,.L60
	.loc 1 1594 171 is_stmt 1 discriminator 4
	.loc 1 1594 185 discriminator 4
	.loc 1 1595 5 discriminator 4
	.loc 1 1595 10 discriminator 4
	.loc 1 1595 23 is_stmt 0 discriminator 4
	addi	a1,sp,24
	mv	a2,s1
	mv	a0,a1
	call	mbedtls_mpi_sub_mpi
.LVL203:
.L115:
	.loc 1 1595 171 discriminator 6
	mv	s0,a0
.LVL204:
	.loc 1 1595 160 discriminator 6
	bne	a0,zero,.L60
	.loc 1 1595 245 is_stmt 1 discriminator 4
	.loc 1 1595 100 discriminator 4
	lw	a5,24(sp)
	blt	a5,zero,.L83
.L86:
	.loc 1 1596 5
	.loc 1 1596 10
	.loc 1 1596 23 is_stmt 0
	addi	a1,sp,24
	mv	a2,s1
	mv	a0,a1
	call	mbedtls_mpi_sub_mpi
.LVL205:
.L116:
	.loc 1 1596 171 discriminator 6
	mv	s0,a0
.LVL206:
	.loc 1 1596 160 discriminator 6
	bne	a0,zero,.L60
	.loc 1 1596 245 is_stmt 1 discriminator 4
	.loc 1 1596 100 discriminator 4
	lw	a5,24(sp)
	blt	a5,zero,.L87
.L90:
	.loc 1 1599 5
	.loc 1 1599 10
	.loc 1 1599 23 is_stmt 0
	addi	a2,sp,24
	mv	a1,s1
	mv	a0,s1
	call	mbedtls_mpi_sub_mpi
.LVL207:
.L117:
	.loc 1 1599 171 discriminator 6
	mv	s0,a0
.LVL208:
	.loc 1 1599 160 discriminator 6
	bne	a0,zero,.L60
	.loc 1 1599 245 is_stmt 1 discriminator 4
	.loc 1 1599 100 discriminator 4
	lw	a5,12(sp)
	blt	a5,zero,.L91
.L94:
	.loc 1 1600 5
	.loc 1 1600 10
	.loc 1 1600 23 is_stmt 0
	mv	a2,sp
	mv	a1,s1
	mv	a0,s1
	call	mbedtls_mpi_mul_mpi
.LVL209:
	mv	s0,a0
.LVL210:
	.loc 1 1600 12
	bne	a0,zero,.L60
	.loc 1 1600 88 is_stmt 1 discriminator 2
	.loc 1 1600 95 discriminator 2
	.loc 1 1600 100 discriminator 2
	.loc 1 1600 105 discriminator 2
	.loc 1 1600 118 is_stmt 0 discriminator 2
	mv	a1,s4
	mv	a0,s1
	call	ecp_modp
.LVL211:
	mv	s0,a0
.LVL212:
	.loc 1 1600 107 discriminator 2
	bne	a0,zero,.L60
	.loc 1 1600 171 is_stmt 1 discriminator 4
	.loc 1 1600 185 discriminator 4
	.loc 1 1601 5 discriminator 4
	.loc 1 1601 10 discriminator 4
	.loc 1 1601 23 is_stmt 0 discriminator 4
	addi	a2,sp,36
	mv	a1,s1
	mv	a0,s1
	call	mbedtls_mpi_sub_mpi
.LVL213:
	mv	s0,a0
.LVL214:
	.loc 1 1601 115 discriminator 4
	mv	s7,s1
	.loc 1 1601 12 discriminator 4
	bne	a0,zero,.L60
.L95:
	.loc 1 1601 245 is_stmt 1 discriminator 4
	.loc 1 1601 100 discriminator 4
	lw	a5,12(sp)
	blt	a5,zero,.L96
.L99:
	.loc 1 1604 5
	.loc 1 1604 10
	.loc 1 1604 23 is_stmt 0
	addi	a2,s5,24
	mv	a1,s6
	addi	a0,sp,36
	call	mbedtls_mpi_mul_mpi
.LVL215:
	mv	s0,a0
.LVL216:
	.loc 1 1604 12
	bne	a0,zero,.L60
	.loc 1 1604 94 is_stmt 1 discriminator 2
	.loc 1 1604 101 discriminator 2
	.loc 1 1604 106 discriminator 2
	.loc 1 1604 111 discriminator 2
	.loc 1 1604 124 is_stmt 0 discriminator 2
	mv	a1,s4
	addi	a0,sp,36
	call	ecp_modp
.LVL217:
	mv	s0,a0
.LVL218:
	.loc 1 1604 113 discriminator 2
	bne	a0,zero,.L60
	.loc 1 1604 177 is_stmt 1 discriminator 4
	.loc 1 1604 191 discriminator 4
	.loc 1 1605 5 discriminator 4
	.loc 1 1605 10 discriminator 4
	.loc 1 1605 23 is_stmt 0 discriminator 4
	li	a1,1
	addi	a0,sp,36
	call	mbedtls_mpi_shift_l
.LVL219:
.L118:
	.loc 1 1605 159 discriminator 5
	mv	s0,a0
.LVL220:
	.loc 1 1605 148 discriminator 5
	bne	a0,zero,.L60
	.loc 1 1605 233 is_stmt 1 discriminator 4
	.loc 1 1605 95 discriminator 4
	.loc 1 1605 97 is_stmt 0 discriminator 4
	mv	a1,s3
	addi	a0,sp,36
	call	mbedtls_mpi_cmp_mpi
.LVL221:
	.loc 1 1605 95 discriminator 4
	bge	a0,zero,.L101
	.loc 1 1607 5 is_stmt 1
	.loc 1 1607 10
	.loc 1 1607 23 is_stmt 0
	addi	a1,sp,24
	mv	a0,s2
	call	mbedtls_mpi_copy
.LVL222:
	mv	s0,a0
.LVL223:
	.loc 1 1607 12
	bne	a0,zero,.L60
	.loc 1 1607 84 is_stmt 1 discriminator 2
	.loc 1 1608 5 discriminator 2
	.loc 1 1608 10 discriminator 2
	.loc 1 1608 23 is_stmt 0 discriminator 2
	addi	a1,sp,12
	addi	a0,s2,12
	call	mbedtls_mpi_copy
.LVL224:
	mv	s0,a0
.LVL225:
	.loc 1 1608 12 discriminator 2
	bne	a0,zero,.L60
	.loc 1 1608 84 is_stmt 1 discriminator 2
	.loc 1 1609 5 discriminator 2
	.loc 1 1609 10 discriminator 2
	.loc 1 1609 23 is_stmt 0 discriminator 2
	addi	a1,sp,36
	addi	a0,s2,24
	call	mbedtls_mpi_copy
.LVL226:
	mv	s0,a0
.LVL227:
	.loc 1 1611 1 discriminator 2
	j	.L60
.L64:
	.loc 1 1562 122 discriminator 5
	li	a1,0
	addi	a0,sp,36
	call	mbedtls_mpi_cmp_int
.LVL228:
	.loc 1 1562 119 discriminator 5
	beq	a0,zero,.L67
	.loc 1 1562 160 is_stmt 1 discriminator 6
	.loc 1 1562 165 discriminator 6
	.loc 1 1562 178 is_stmt 0 discriminator 6
	addi	a1,sp,36
	mv	a2,s3
	mv	a0,a1
	call	mbedtls_mpi_add_mpi
.LVL229:
	j	.L110
.L69:
	.loc 1 1564 149 is_stmt 1 discriminator 5
	.loc 1 1564 154 discriminator 5
	.loc 1 1564 167 is_stmt 0 discriminator 5
	mv	a2,s3
	mv	a1,sp
	mv	a0,sp
	call	mbedtls_mpi_sub_abs
.LVL230:
	j	.L111
.LVL231:
.L59:
	.loc 1 1569 9 is_stmt 1
	.loc 1 1569 14
	.loc 1 1569 27 is_stmt 0
	mv	a2,s5
	mv	a1,s5
	mv	a0,s1
	call	mbedtls_mpi_mul_mpi
.LVL232:
	mv	s0,a0
.LVL233:
	.loc 1 1569 16
	bne	a0,zero,.L60
	.loc 1 1569 98 is_stmt 1 discriminator 2
	.loc 1 1569 105 discriminator 2
	.loc 1 1569 110 discriminator 2
	.loc 1 1569 115 discriminator 2
	.loc 1 1569 128 is_stmt 0 discriminator 2
	mv	a1,s4
	mv	a0,s1
	call	ecp_modp
.LVL234:
	mv	s0,a0
.LVL235:
	.loc 1 1569 117 discriminator 2
	bne	a0,zero,.L60
	.loc 1 1569 181 is_stmt 1 discriminator 4
	.loc 1 1569 195 discriminator 4
	.loc 1 1570 9 discriminator 4
	.loc 1 1570 14 discriminator 4
	.loc 1 1570 27 is_stmt 0 discriminator 4
	li	a2,3
	mv	a1,s1
	mv	a0,sp
	call	mbedtls_mpi_mul_int
.LVL236:
	mv	s0,a0
.LVL237:
	.loc 1 1570 105 discriminator 4
	addi	s3,s4,4
	.loc 1 1570 16 discriminator 4
	bne	a0,zero,.L60
.L71:
	.loc 1 1570 241 is_stmt 1 discriminator 4
	.loc 1 1570 103 discriminator 4
	.loc 1 1570 105 is_stmt 0 discriminator 4
	mv	a1,s3
	mv	a0,sp
	call	mbedtls_mpi_cmp_mpi
.LVL238:
	.loc 1 1570 103 discriminator 4
	bge	a0,zero,.L72
	.loc 1 1573 9 is_stmt 1
	.loc 1 1573 13 is_stmt 0
	addi	s6,s4,16
	li	a1,0
	mv	a0,s6
	call	mbedtls_mpi_cmp_int
.LVL239:
	.loc 1 1573 11
	beq	a0,zero,.L73
	.loc 1 1576 13 is_stmt 1
	.loc 1 1576 18
	.loc 1 1576 31 is_stmt 0
	addi	a2,s5,24
	mv	a1,a2
	mv	a0,s1
	call	mbedtls_mpi_mul_mpi
.LVL240:
	mv	s0,a0
.LVL241:
	.loc 1 1576 20
	bne	a0,zero,.L60
	.loc 1 1576 102 is_stmt 1 discriminator 2
	.loc 1 1576 109 discriminator 2
	.loc 1 1576 114 discriminator 2
	.loc 1 1576 119 discriminator 2
	.loc 1 1576 132 is_stmt 0 discriminator 2
	mv	a1,s4
	mv	a0,s1
	call	ecp_modp
.LVL242:
	mv	s0,a0
.LVL243:
	.loc 1 1576 121 discriminator 2
	bne	a0,zero,.L60
	.loc 1 1576 185 is_stmt 1 discriminator 4
	.loc 1 1576 199 discriminator 4
	.loc 1 1577 13 discriminator 4
	.loc 1 1577 18 discriminator 4
	.loc 1 1577 31 is_stmt 0 discriminator 4
	mv	a2,s1
	mv	a1,s1
	addi	a0,sp,24
	call	mbedtls_mpi_mul_mpi
.LVL244:
	mv	s0,a0
.LVL245:
	.loc 1 1577 20 discriminator 4
	bne	a0,zero,.L60
	.loc 1 1577 96 is_stmt 1 discriminator 2
	.loc 1 1577 103 discriminator 2
	.loc 1 1577 108 discriminator 2
	.loc 1 1577 113 discriminator 2
	.loc 1 1577 126 is_stmt 0 discriminator 2
	mv	a1,s4
	addi	a0,sp,24
	call	ecp_modp
.LVL246:
	mv	s0,a0
.LVL247:
	.loc 1 1577 115 discriminator 2
	bne	a0,zero,.L60
	.loc 1 1577 179 is_stmt 1 discriminator 4
	.loc 1 1577 193 discriminator 4
	.loc 1 1578 13 discriminator 4
	.loc 1 1578 18 discriminator 4
	.loc 1 1578 31 is_stmt 0 discriminator 4
	mv	a2,s6
	addi	a1,sp,24
	mv	a0,s1
	call	mbedtls_mpi_mul_mpi
.LVL248:
	mv	s0,a0
.LVL249:
	.loc 1 1578 20 discriminator 4
	bne	a0,zero,.L60
	.loc 1 1578 101 is_stmt 1 discriminator 2
	.loc 1 1578 108 discriminator 2
	.loc 1 1578 113 discriminator 2
	.loc 1 1578 118 discriminator 2
	.loc 1 1578 131 is_stmt 0 discriminator 2
	mv	a1,s4
	mv	a0,s1
	call	ecp_modp
.LVL250:
	mv	s0,a0
.LVL251:
	.loc 1 1578 120 discriminator 2
	bne	a0,zero,.L60
	.loc 1 1578 184 is_stmt 1 discriminator 4
	.loc 1 1578 198 discriminator 4
	.loc 1 1579 13 discriminator 4
	.loc 1 1579 18 discriminator 4
	.loc 1 1579 31 is_stmt 0 discriminator 4
	mv	a2,s1
	mv	a1,sp
	mv	a0,sp
	call	mbedtls_mpi_add_mpi
.LVL252:
.L112:
	.loc 1 1579 172 discriminator 5
	mv	s0,a0
.LVL253:
	.loc 1 1579 161 discriminator 5
	bne	a0,zero,.L60
	.loc 1 1579 246 is_stmt 1 discriminator 4
	.loc 1 1579 108 discriminator 4
	.loc 1 1579 110 is_stmt 0 discriminator 4
	mv	a1,s3
	mv	a0,sp
	call	mbedtls_mpi_cmp_mpi
.LVL254:
	.loc 1 1579 108 discriminator 4
	blt	a0,zero,.L73
	.loc 1 1579 154 is_stmt 1 discriminator 5
	.loc 1 1579 159 discriminator 5
	.loc 1 1579 172 is_stmt 0 discriminator 5
	mv	a2,s3
	mv	a1,sp
	mv	a0,sp
	call	mbedtls_mpi_sub_abs
.LVL255:
	j	.L112
.L72:
	.loc 1 1570 149 is_stmt 1 discriminator 5
	.loc 1 1570 154 discriminator 5
	.loc 1 1570 167 is_stmt 0 discriminator 5
	mv	a2,s3
	mv	a1,sp
	mv	a0,sp
	call	mbedtls_mpi_sub_abs
.LVL256:
	mv	s0,a0
.LVL257:
	.loc 1 1570 156 discriminator 5
	beq	a0,zero,.L71
	j	.L60
.L77:
	.loc 1 1585 141 is_stmt 1 discriminator 5
	.loc 1 1585 146 discriminator 5
	.loc 1 1585 159 is_stmt 0 discriminator 5
	addi	a1,sp,24
	mv	a2,s3
	mv	a0,a1
	call	mbedtls_mpi_sub_abs
.LVL258:
	mv	s0,a0
.LVL259:
	.loc 1 1585 148 discriminator 5
	beq	a0,zero,.L76
	j	.L60
.L79:
	.loc 1 1587 141 is_stmt 1 discriminator 5
	.loc 1 1587 146 discriminator 5
	.loc 1 1587 159 is_stmt 0 discriminator 5
	mv	a2,s3
	mv	a1,s1
	mv	a0,s1
	call	mbedtls_mpi_sub_abs
.LVL260:
	j	.L113
.L81:
	.loc 1 1591 141 is_stmt 1 discriminator 5
	.loc 1 1591 146 discriminator 5
	.loc 1 1591 159 is_stmt 0 discriminator 5
	addi	a1,sp,36
	mv	a2,s3
	mv	a0,a1
	call	mbedtls_mpi_sub_abs
.LVL261:
	j	.L114
.L83:
	.loc 1 1595 115 discriminator 5
	li	a1,0
	addi	a0,sp,24
	call	mbedtls_mpi_cmp_int
.LVL262:
	.loc 1 1595 112 discriminator 5
	beq	a0,zero,.L86
	.loc 1 1595 153 is_stmt 1 discriminator 6
	.loc 1 1595 158 discriminator 6
	.loc 1 1595 171 is_stmt 0 discriminator 6
	addi	a1,sp,24
	mv	a2,s3
	mv	a0,a1
	call	mbedtls_mpi_add_mpi
.LVL263:
	j	.L115
.L87:
	.loc 1 1596 115 discriminator 5
	li	a1,0
	addi	a0,sp,24
	call	mbedtls_mpi_cmp_int
.LVL264:
	.loc 1 1596 112 discriminator 5
	beq	a0,zero,.L90
	.loc 1 1596 153 is_stmt 1 discriminator 6
	.loc 1 1596 158 discriminator 6
	.loc 1 1596 171 is_stmt 0 discriminator 6
	addi	a1,sp,24
	mv	a2,s3
	mv	a0,a1
	call	mbedtls_mpi_add_mpi
.LVL265:
	j	.L116
.L91:
	.loc 1 1599 115 discriminator 5
	li	a1,0
	mv	a0,s1
	call	mbedtls_mpi_cmp_int
.LVL266:
	.loc 1 1599 112 discriminator 5
	beq	a0,zero,.L94
	.loc 1 1599 153 is_stmt 1 discriminator 6
	.loc 1 1599 158 discriminator 6
	.loc 1 1599 171 is_stmt 0 discriminator 6
	mv	a2,s3
	mv	a1,s1
	mv	a0,s1
	call	mbedtls_mpi_add_mpi
.LVL267:
	j	.L117
.L96:
	.loc 1 1601 115 discriminator 5
	li	a1,0
	mv	a0,s7
	call	mbedtls_mpi_cmp_int
.LVL268:
	.loc 1 1601 112 discriminator 5
	beq	a0,zero,.L99
	.loc 1 1601 153 is_stmt 1 discriminator 6
	.loc 1 1601 158 discriminator 6
	.loc 1 1601 171 is_stmt 0 discriminator 6
	mv	a2,s3
	mv	a1,s7
	mv	a0,s7
	call	mbedtls_mpi_add_mpi
.LVL269:
	mv	s0,a0
.LVL270:
	.loc 1 1601 160 discriminator 6
	beq	a0,zero,.L95
	j	.L60
.L101:
	.loc 1 1605 141 is_stmt 1 discriminator 5
	.loc 1 1605 146 discriminator 5
	.loc 1 1605 159 is_stmt 0 discriminator 5
	addi	a1,sp,36
	mv	a2,s3
	mv	a0,a1
	call	mbedtls_mpi_sub_abs
.LVL271:
	j	.L118
	.cfi_endproc
.LFE38:
	.size	ecp_double_jac, .-ecp_double_jac
	.section	.text.ecp_normalize_jac_many,"ax",@progbits
	.align	1
	.type	ecp_normalize_jac_many, @function
ecp_normalize_jac_many:
.LFB36:
	.loc 1 1417 1 is_stmt 1
	.cfi_startproc
.LVL272:
	.loc 1 1418 5
	.loc 1 1419 5
	.loc 1 1420 5
	.loc 1 1422 5
	.loc 1 1417 1 is_stmt 0
	addi	sp,sp,-96
	.cfi_def_cfa_offset 96
	sw	s8,56(sp)
	sw	ra,92(sp)
	sw	s0,88(sp)
	sw	s1,84(sp)
	sw	s2,80(sp)
	sw	s3,76(sp)
	sw	s4,72(sp)
	sw	s5,68(sp)
	sw	s6,64(sp)
	sw	s7,60(sp)
	sw	s9,52(sp)
	.cfi_offset 24, -40
	.cfi_offset 1, -4
	.cfi_offset 8, -8
	.cfi_offset 9, -12
	.cfi_offset 18, -16
	.cfi_offset 19, -20
	.cfi_offset 20, -24
	.cfi_offset 21, -28
	.cfi_offset 22, -32
	.cfi_offset 23, -36
	.cfi_offset 25, -44
	.loc 1 1422 7
	li	a5,1
	.loc 1 1417 1
	mv	s8,a1
	.loc 1 1422 7
	bgtu	a2,a5,.L120
	.loc 1 1423 9 is_stmt 1
	.loc 1 1498 1 is_stmt 0
	lw	s0,88(sp)
	.cfi_remember_state
	.cfi_restore 8
	lw	ra,92(sp)
	.cfi_restore 1
	lw	s1,84(sp)
	.cfi_restore 9
	lw	s2,80(sp)
	.cfi_restore 18
	lw	s3,76(sp)
	.cfi_restore 19
	lw	s4,72(sp)
	.cfi_restore 20
	lw	s5,68(sp)
	.cfi_restore 21
	lw	s6,64(sp)
	.cfi_restore 22
	lw	s7,60(sp)
	.cfi_restore 23
	lw	s8,56(sp)
	.cfi_restore 24
	lw	s9,52(sp)
	.cfi_restore 25
	.loc 1 1423 17
	lw	a1,0(a1)
.LVL273:
	.loc 1 1498 1
	addi	sp,sp,96
	.cfi_def_cfa_offset 0
	.loc 1 1423 17
	tail	ecp_normalize_jac
.LVL274:
.L120:
	.cfi_restore_state
	mv	s2,a0
	.loc 1 1430 15
	li	a1,12
.LVL275:
	mv	a0,a2
.LVL276:
	mv	s7,a2
	.loc 1 1430 5 is_stmt 1
	.loc 1 1430 15 is_stmt 0
	call	mbedtls_calloc
.LVL277:
	mv	s3,a0
.LVL278:
	.loc 1 1430 7
	beq	a0,zero,.L130
	li	s1,12
	mul	s1,s7,s1
	mv	s5,a0
	mv	s0,a0
	add	s6,s1,a0
.LVL279:
.L122:
	.loc 1 1434 9 is_stmt 1 discriminator 3
	mv	a0,s0
	.loc 1 1433 5 is_stmt 0 discriminator 3
	addi	s0,s0,12
	.loc 1 1434 9 discriminator 3
	call	mbedtls_mpi_init
.LVL280:
	.loc 1 1433 29 is_stmt 1 discriminator 3
	.loc 1 1433 17 discriminator 3
	.loc 1 1433 5 is_stmt 0 discriminator 3
	bne	s6,s0,.L122
	.loc 1 1436 5 is_stmt 1
	addi	a0,sp,12
	call	mbedtls_mpi_init
.LVL281:
	.loc 1 1436 29
	addi	a0,sp,24
	call	mbedtls_mpi_init
.LVL282:
	.loc 1 1436 54
	addi	a0,sp,36
	call	mbedtls_mpi_init
.LVL283:
	.loc 1 1441 5
	.loc 1 1441 10
	.loc 1 1441 48 is_stmt 0
	lw	a1,0(s8)
	.loc 1 1441 23
	mv	a0,s3
	addi	a1,a1,24
	call	mbedtls_mpi_copy
.LVL284:
	mv	s0,a0
.LVL285:
	.loc 1 1441 12
	bne	a0,zero,.L123
	addi	s9,s8,4
	addi	s4,s3,12
.L124:
	.loc 1 1444 9 is_stmt 1
	.loc 1 1444 14
	.loc 1 1444 64 is_stmt 0
	lw	a2,0(s9)
	.loc 1 1444 27
	addi	a1,s4,-12
	mv	a0,s4
	addi	a2,a2,24
	call	mbedtls_mpi_mul_mpi
.LVL286:
	mv	s0,a0
.LVL287:
	.loc 1 1444 16
	bne	a0,zero,.L123
	.loc 1 1444 106 is_stmt 1 discriminator 2
	.loc 1 1445 9 discriminator 2
	.loc 1 1445 14 discriminator 2
	.loc 1 1445 19 discriminator 2
	.loc 1 1445 32 is_stmt 0 discriminator 2
	mv	a1,s2
	mv	a0,s4
	call	ecp_modp
.LVL288:
	mv	s0,a0
.LVL289:
	.loc 1 1445 21 discriminator 2
	bne	a0,zero,.L123
	.loc 1 1445 88 is_stmt 1 discriminator 2
	.loc 1 1445 102 discriminator 2
	.loc 1 1442 29 discriminator 2
	.loc 1 1442 17 discriminator 2
	.loc 1 1442 5 is_stmt 0 discriminator 2
	addi	s4,s4,12
	addi	s9,s9,4
	bne	s6,s4,.L124
	.loc 1 1451 5 is_stmt 1
	.loc 1 1451 10
	.loc 1 1451 50 is_stmt 0
	addi	a1,s1,-12
	.loc 1 1451 23
	addi	a2,s2,4
	add	a1,s3,a1
	addi	a0,sp,12
	call	mbedtls_mpi_inv_mod
.LVL290:
	mv	s0,a0
.LVL291:
	.loc 1 1451 12
	bne	a0,zero,.L123
	.loc 1 1451 103 is_stmt 1 discriminator 2
	.loc 1 1453 5 discriminator 2
	slli	s1,s7,2
	.loc 1 1453 12 is_stmt 0 discriminator 2
	addi	s4,s7,-1
.LVL292:
	add	s1,s8,s1
	.loc 1 1464 31 discriminator 2
	li	s7,12
.LVL293:
	addi	s8,s3,-12
.LVL294:
.L128:
	.loc 1 1459 9 is_stmt 1
	.loc 1 1459 11 is_stmt 0
	bne	s4,zero,.L125
	.loc 1 1460 13 is_stmt 1
	.loc 1 1460 18
	.loc 1 1460 31 is_stmt 0
	addi	a1,sp,12
	addi	a0,sp,24
	call	mbedtls_mpi_copy
.LVL295:
.L139:
	mv	s0,a0
.LVL296:
	.loc 1 1460 20
	bne	a0,zero,.L123
	.loc 1 1465 185 is_stmt 1
	.loc 1 1465 199
	.loc 1 1471 9
	.loc 1 1471 14
	.loc 1 1471 27 is_stmt 0
	addi	a2,sp,24
	mv	a1,a2
	addi	a0,sp,36
	call	mbedtls_mpi_mul_mpi
.LVL297:
	mv	s0,a0
.LVL298:
	.loc 1 1471 16
	beq	a0,zero,.L137
.LVL299:
.L123:
	.loc 1 1492 5 is_stmt 1
	addi	a0,sp,12
	call	mbedtls_mpi_free
.LVL300:
	.loc 1 1492 29
	addi	a0,sp,24
	call	mbedtls_mpi_free
.LVL301:
	.loc 1 1492 54
	addi	a0,sp,36
	call	mbedtls_mpi_free
.LVL302:
	.loc 1 1493 5
	.loc 1 1493 17
.L129:
	.loc 1 1494 9 discriminator 3
	mv	a0,s5
	.loc 1 1493 5 is_stmt 0 discriminator 3
	addi	s5,s5,12
	.loc 1 1494 9 discriminator 3
	call	mbedtls_mpi_free
.LVL303:
	.loc 1 1493 29 is_stmt 1 discriminator 3
	.loc 1 1493 17 discriminator 3
	.loc 1 1493 5 is_stmt 0 discriminator 3
	bne	s6,s5,.L129
	.loc 1 1495 5 is_stmt 1
	mv	a0,s3
	call	mbedtls_free
.LVL304:
	.loc 1 1497 5
.L119:
	.loc 1 1498 1 is_stmt 0
	lw	ra,92(sp)
	.cfi_remember_state
	.cfi_restore 1
	mv	a0,s0
	lw	s0,88(sp)
	.cfi_restore 8
	lw	s1,84(sp)
	.cfi_restore 9
	lw	s2,80(sp)
	.cfi_restore 18
.LVL305:
	lw	s3,76(sp)
	.cfi_restore 19
.LVL306:
	lw	s4,72(sp)
	.cfi_restore 20
	lw	s5,68(sp)
	.cfi_restore 21
	lw	s6,64(sp)
	.cfi_restore 22
	lw	s7,60(sp)
	.cfi_restore 23
	lw	s8,56(sp)
	.cfi_restore 24
	lw	s9,52(sp)
	.cfi_restore 25
	addi	sp,sp,96
	.cfi_def_cfa_offset 0
	jr	ra
.LVL307:
.L125:
	.cfi_restore_state
	.loc 1 1464 13 is_stmt 1
	.loc 1 1464 18
	.loc 1 1464 31 is_stmt 0
	mul	a2,s4,s7
	addi	a1,sp,12
	addi	a0,sp,24
	add	a2,s8,a2
	call	mbedtls_mpi_mul_mpi
.LVL308:
	mv	s0,a0
.LVL309:
	.loc 1 1464 20
	bne	a0,zero,.L123
	.loc 1 1464 102 is_stmt 1 discriminator 2
	.loc 1 1464 109 discriminator 2
	.loc 1 1464 114 discriminator 2
	.loc 1 1464 119 discriminator 2
	.loc 1 1464 132 is_stmt 0 discriminator 2
	mv	a1,s2
	addi	a0,sp,24
	call	ecp_modp
.LVL310:
	mv	s0,a0
.LVL311:
	.loc 1 1464 121 discriminator 2
	bne	a0,zero,.L123
	.loc 1 1464 186 is_stmt 1 discriminator 4
	.loc 1 1464 200 discriminator 4
	.loc 1 1465 13 discriminator 4
	.loc 1 1465 18 discriminator 4
	.loc 1 1465 60 is_stmt 0 discriminator 4
	lw	a2,-4(s1)
	.loc 1 1465 31 discriminator 4
	addi	a1,sp,12
	mv	a0,a1
	addi	a2,a2,24
	call	mbedtls_mpi_mul_mpi
.LVL312:
	mv	s0,a0
.LVL313:
	.loc 1 1465 20 discriminator 4
	bne	a0,zero,.L123
	.loc 1 1465 102 is_stmt 1 discriminator 2
	.loc 1 1465 109 discriminator 2
	.loc 1 1465 114 discriminator 2
	.loc 1 1465 119 discriminator 2
	.loc 1 1465 132 is_stmt 0 discriminator 2
	mv	a1,s2
	addi	a0,sp,12
	call	ecp_modp
.LVL314:
	j	.L139
.L137:
	.loc 1 1471 96 is_stmt 1 discriminator 2
	.loc 1 1471 103 discriminator 2
	.loc 1 1471 108 discriminator 2
	.loc 1 1471 113 discriminator 2
	.loc 1 1471 126 is_stmt 0 discriminator 2
	mv	a1,s2
	addi	a0,sp,36
	call	ecp_modp
.LVL315:
	mv	s0,a0
.LVL316:
	.loc 1 1471 115 discriminator 2
	bne	a0,zero,.L123
	.loc 1 1471 181 is_stmt 1 discriminator 4
	.loc 1 1471 195 discriminator 4
	.loc 1 1472 9 discriminator 4
	.loc 1 1472 14 discriminator 4
	.loc 1 1472 27 is_stmt 0 discriminator 4
	lw	a1,-4(s1)
	addi	a2,sp,36
	mv	a0,a1
	call	mbedtls_mpi_mul_mpi
.LVL317:
	mv	s0,a0
.LVL318:
	.loc 1 1472 16 discriminator 4
	bne	a0,zero,.L123
	.loc 1 1472 106 is_stmt 1 discriminator 2
	.loc 1 1472 113 discriminator 2
	.loc 1 1472 118 discriminator 2
	.loc 1 1472 123 discriminator 2
	.loc 1 1472 136 is_stmt 0 discriminator 2
	lw	a0,-4(s1)
	mv	a1,s2
	call	ecp_modp
.LVL319:
	mv	s0,a0
.LVL320:
	.loc 1 1472 125 discriminator 2
	bne	a0,zero,.L123
	.loc 1 1472 195 is_stmt 1 discriminator 4
	.loc 1 1472 209 discriminator 4
	.loc 1 1473 9 discriminator 4
	.loc 1 1473 14 discriminator 4
	.loc 1 1473 27 is_stmt 0 discriminator 4
	lw	a1,-4(s1)
	addi	a2,sp,36
	addi	a1,a1,12
	mv	a0,a1
	call	mbedtls_mpi_mul_mpi
.LVL321:
	mv	s0,a0
.LVL322:
	.loc 1 1473 16 discriminator 4
	bne	a0,zero,.L123
	.loc 1 1473 106 is_stmt 1 discriminator 2
	.loc 1 1473 113 discriminator 2
	.loc 1 1473 118 discriminator 2
	.loc 1 1473 123 discriminator 2
	.loc 1 1473 136 is_stmt 0 discriminator 2
	lw	a0,-4(s1)
	mv	a1,s2
	addi	a0,a0,12
	call	ecp_modp
.LVL323:
	mv	s0,a0
.LVL324:
	.loc 1 1473 125 discriminator 2
	bne	a0,zero,.L123
	.loc 1 1473 195 is_stmt 1 discriminator 4
	.loc 1 1473 209 discriminator 4
	.loc 1 1474 9 discriminator 4
	.loc 1 1474 14 discriminator 4
	.loc 1 1474 27 is_stmt 0 discriminator 4
	lw	a1,-4(s1)
	addi	a2,sp,24
	addi	a1,a1,12
	mv	a0,a1
	call	mbedtls_mpi_mul_mpi
.LVL325:
	mv	s0,a0
.LVL326:
	.loc 1 1474 16 discriminator 4
	bne	a0,zero,.L123
	.loc 1 1474 105 is_stmt 1 discriminator 2
	.loc 1 1474 112 discriminator 2
	.loc 1 1474 117 discriminator 2
	.loc 1 1474 122 discriminator 2
	.loc 1 1474 135 is_stmt 0 discriminator 2
	lw	a0,-4(s1)
	mv	a1,s2
	addi	a0,a0,12
	call	ecp_modp
.LVL327:
	mv	s0,a0
.LVL328:
	.loc 1 1474 124 discriminator 2
	bne	a0,zero,.L123
	.loc 1 1474 194 is_stmt 1 discriminator 4
	.loc 1 1474 208 discriminator 4
	.loc 1 1482 9 discriminator 4
	.loc 1 1482 14 discriminator 4
	.loc 1 1482 27 is_stmt 0 discriminator 4
	lw	a1,8(s2)
	lw	a0,-4(s1)
	call	mbedtls_mpi_shrink
.LVL329:
	mv	s0,a0
.LVL330:
	.loc 1 1482 16 discriminator 4
	bne	a0,zero,.L123
	.loc 1 1482 99 is_stmt 1 discriminator 2
	.loc 1 1483 9 discriminator 2
	.loc 1 1483 14 discriminator 2
	.loc 1 1483 27 is_stmt 0 discriminator 2
	lw	a0,-4(s1)
	lw	a1,8(s2)
	addi	a0,a0,12
	call	mbedtls_mpi_shrink
.LVL331:
	mv	s0,a0
.LVL332:
	.loc 1 1483 16 discriminator 2
	bne	a0,zero,.L123
	.loc 1 1483 99 is_stmt 1 discriminator 2
	.loc 1 1484 9 discriminator 2
	lw	a0,-4(s1)
	.loc 1 1486 11 is_stmt 0 discriminator 2
	addi	s1,s1,-4
	.loc 1 1484 9 discriminator 2
	addi	a0,a0,24
	call	mbedtls_mpi_free
.LVL333:
	.loc 1 1486 9 is_stmt 1 discriminator 2
	.loc 1 1486 11 is_stmt 0 discriminator 2
	beq	s4,zero,.L123
	.loc 1 1453 28 is_stmt 1
	.loc 1 1453 29 is_stmt 0
	addi	s4,s4,-1
.LVL334:
	.loc 1 1453 26 is_stmt 1
	.loc 1 1459 11 is_stmt 0
	j	.L128
.LVL335:
.L130:
	.loc 1 1431 15
	li	a0,-20480
.LVL336:
	addi	s0,a0,640
	j	.L119
	.cfi_endproc
.LFE36:
	.size	ecp_normalize_jac_many, .-ecp_normalize_jac_many
	.section	.text.ecp_safe_invert_jac,"ax",@progbits
	.align	1
	.type	ecp_safe_invert_jac, @function
ecp_safe_invert_jac:
.LFB37:
	.loc 1 1507 1 is_stmt 1
	.cfi_startproc
.LVL337:
	.loc 1 1508 5
	.loc 1 1509 5
	.loc 1 1510 5
	.loc 1 1512 5
	.loc 1 1507 1 is_stmt 0
	addi	sp,sp,-32
	.cfi_def_cfa_offset 32
	sw	s0,24(sp)
	sw	s1,20(sp)
	.cfi_offset 8, -8
	.cfi_offset 9, -12
	mv	s0,a0
	mv	s1,a1
	.loc 1 1512 5
	addi	a0,sp,4
.LVL338:
	.loc 1 1507 1
	sw	s2,16(sp)
	sw	ra,28(sp)
	.cfi_offset 18, -16
	.cfi_offset 1, -4
	.loc 1 1507 1
	mv	s2,a2
	.loc 1 1515 59
	addi	s1,s1,12
	.loc 1 1512 5
	call	mbedtls_mpi_init
.LVL339:
	.loc 1 1515 5 is_stmt 1
	.loc 1 1515 10
	.loc 1 1515 23 is_stmt 0
	mv	a2,s1
	addi	a1,s0,4
	addi	a0,sp,4
	call	mbedtls_mpi_sub_mpi
.LVL340:
	.loc 1 1515 12
	bne	a0,zero,.L142
	.loc 1 1515 98 is_stmt 1 discriminator 2
	.loc 1 1516 5 discriminator 2
	.loc 1 1516 15 is_stmt 0 discriminator 2
	li	a1,0
	mv	a0,s1
.LVL341:
	call	mbedtls_mpi_cmp_int
.LVL342:
	.loc 1 1517 5 is_stmt 1 discriminator 2
	.loc 1 1517 10 discriminator 2
	.loc 1 1516 47 is_stmt 0 discriminator 2
	snez	a0,a0
.LVL343:
	.loc 1 1517 23 discriminator 2
	and	a2,s2,a0
	addi	a1,sp,4
	mv	a0,s1
	call	mbedtls_mpi_safe_cond_assign
.LVL344:
.L142:
.L141:
	mv	s0,a0
.LVL345:
	.loc 1 1517 113 is_stmt 1
	.loc 1 1520 5
	addi	a0,sp,4
	call	mbedtls_mpi_free
.LVL346:
	.loc 1 1522 5
	.loc 1 1523 1 is_stmt 0
	lw	ra,28(sp)
	.cfi_restore 1
	mv	a0,s0
	lw	s0,24(sp)
	.cfi_restore 8
.LVL347:
	lw	s1,20(sp)
	.cfi_restore 9
.LVL348:
	lw	s2,16(sp)
	.cfi_restore 18
	addi	sp,sp,32
	.cfi_def_cfa_offset 0
	jr	ra
	.cfi_endproc
.LFE37:
	.size	ecp_safe_invert_jac, .-ecp_safe_invert_jac
	.section	.text.ecp_select_comb,"ax",@progbits
	.align	1
	.type	ecp_select_comb, @function
ecp_select_comb:
.LFB43:
	.loc 1 2035 1 is_stmt 1
	.cfi_startproc
.LVL349:
	.loc 1 2036 5
	.loc 1 2037 5
	.loc 1 2040 5
	.loc 1 2035 1 is_stmt 0
	addi	sp,sp,-64
	.cfi_def_cfa_offset 64
	sw	s6,32(sp)
	.cfi_offset 22, -32
	.loc 1 2040 24
	srli	s6,a4,1
	.loc 1 2035 1
	sw	s0,56(sp)
	sw	s1,52(sp)
	sw	s2,48(sp)
	sw	s3,44(sp)
	sw	s4,40(sp)
	sw	s5,36(sp)
	sw	s7,28(sp)
	sw	ra,60(sp)
	.cfi_offset 8, -8
	.cfi_offset 9, -12
	.cfi_offset 18, -16
	.cfi_offset 19, -20
	.cfi_offset 20, -24
	.cfi_offset 21, -28
	.cfi_offset 23, -36
	.cfi_offset 1, -4
	.loc 1 2035 1
	mv	s4,a0
	mv	s2,a1
	mv	s5,a3
	mv	s3,a4
	.loc 1 2040 8
	andi	s6,s6,63
.LVL350:
	.loc 1 2043 5 is_stmt 1
	addi	s1,a2,12
	.loc 1 2043 12 is_stmt 0
	li	s0,0
	.loc 1 2046 27
	addi	s7,a1,12
.LVL351:
.L145:
	.loc 1 2043 17 is_stmt 1 discriminator 2
	.loc 1 2043 5 is_stmt 0 discriminator 2
	bne	s0,s5,.L147
	.loc 1 2050 5 is_stmt 1
	.loc 1 2050 10
	.loc 1 2054 1 is_stmt 0
	lw	s0,56(sp)
	.cfi_remember_state
	.cfi_restore 8
.LVL352:
	lw	ra,60(sp)
	.cfi_restore 1
	lw	s1,52(sp)
	.cfi_restore 9
	lw	s5,36(sp)
	.cfi_restore 21
	lw	s6,32(sp)
	.cfi_restore 22
.LVL353:
	lw	s7,28(sp)
	.cfi_restore 23
	.loc 1 2050 23
	srli	a2,s3,7
	mv	a1,s2
	.loc 1 2054 1
	lw	s3,44(sp)
	.cfi_restore 19
.LVL354:
	lw	s2,48(sp)
	.cfi_restore 18
.LVL355:
	.loc 1 2050 23
	mv	a0,s4
	.loc 1 2054 1
	lw	s4,40(sp)
	.cfi_restore 20
.LVL356:
	addi	sp,sp,64
	.cfi_def_cfa_offset 0
	.loc 1 2050 23
	tail	ecp_safe_invert_jac
.LVL357:
.L147:
	.cfi_restore_state
	.loc 1 2045 9 is_stmt 1
	.loc 1 2045 14
	.loc 1 2045 27 is_stmt 0
	sub	a2,s0,s6
	seqz	a2,a2
	addi	a1,s1,-12
	mv	a0,s2
	sw	a2,12(sp)
	call	mbedtls_mpi_safe_cond_assign
.LVL358:
	.loc 1 2045 16
	bne	a0,zero,.L144
	.loc 1 2045 114 is_stmt 1 discriminator 2
	.loc 1 2046 9 discriminator 2
	.loc 1 2046 14 discriminator 2
	.loc 1 2046 27 is_stmt 0 discriminator 2
	lw	a2,12(sp)
	mv	a1,s1
	mv	a0,s7
.LVL359:
	call	mbedtls_mpi_safe_cond_assign
.LVL360:
	.loc 1 2046 16 discriminator 2
	addi	s1,s1,36
	bne	a0,zero,.L144
	.loc 1 2046 114 is_stmt 1 discriminator 2
	.loc 1 2043 29 discriminator 2
	.loc 1 2043 30 is_stmt 0 discriminator 2
	addi	s0,s0,1
.LVL361:
	andi	s0,s0,0xff
.LVL362:
	j	.L145
.L146:
.L144:
	.loc 1 2054 1
	lw	ra,60(sp)
	.cfi_restore 1
	lw	s0,56(sp)
	.cfi_restore 8
.LVL363:
	lw	s1,52(sp)
	.cfi_restore 9
	lw	s2,48(sp)
	.cfi_restore 18
.LVL364:
	lw	s3,44(sp)
	.cfi_restore 19
	lw	s4,40(sp)
	.cfi_restore 20
.LVL365:
	lw	s5,36(sp)
	.cfi_restore 21
	lw	s6,32(sp)
	.cfi_restore 22
.LVL366:
	lw	s7,28(sp)
	.cfi_restore 23
.LVL367:
	addi	sp,sp,64
	.cfi_def_cfa_offset 0
	jr	ra
	.cfi_endproc
.LFE43:
	.size	ecp_select_comb, .-ecp_select_comb
	.section	.text.mbedtls_ecp_point_free.part.0,"ax",@progbits
	.align	1
	.type	mbedtls_ecp_point_free.part.0, @function
mbedtls_ecp_point_free.part.0:
.LFB67:
	.loc 1 865 6 is_stmt 1
	.cfi_startproc
.LVL368:
	.loc 1 870 5
	.loc 1 865 6 is_stmt 0
	addi	sp,sp,-16
	.cfi_def_cfa_offset 16
	sw	ra,12(sp)
	sw	s0,8(sp)
	.cfi_offset 1, -4
	.cfi_offset 8, -8
	.loc 1 865 6
	mv	s0,a0
	.loc 1 870 5
	call	mbedtls_mpi_free
.LVL369:
	.loc 1 871 5 is_stmt 1
	addi	a0,s0,12
	call	mbedtls_mpi_free
.LVL370:
	.loc 1 872 5
	addi	a0,s0,24
	.loc 1 873 1 is_stmt 0
	lw	s0,8(sp)
	.cfi_restore 8
.LVL371:
	lw	ra,12(sp)
	.cfi_restore 1
	addi	sp,sp,16
	.cfi_def_cfa_offset 0
	.loc 1 872 5
	tail	mbedtls_mpi_free
.LVL372:
	.cfi_endproc
.LFE67:
	.size	mbedtls_ecp_point_free.part.0, .-mbedtls_ecp_point_free.part.0
	.section	.text.mbedtls_ecp_curve_list,"ax",@progbits
	.align	1
	.globl	mbedtls_ecp_curve_list
	.type	mbedtls_ecp_curve_list, @function
mbedtls_ecp_curve_list:
.LFB9:
	.loc 1 713 1 is_stmt 1
	.cfi_startproc
	.loc 1 714 5
	.loc 1 714 11 is_stmt 0
	lui	a0,%hi(.LANCHOR0)
	.loc 1 715 1
	addi	a0,a0,%lo(.LANCHOR0)
	ret
	.cfi_endproc
.LFE9:
	.size	mbedtls_ecp_curve_list, .-mbedtls_ecp_curve_list
	.section	.text.mbedtls_ecp_grp_id_list,"ax",@progbits
	.align	1
	.globl	mbedtls_ecp_grp_id_list
	.type	mbedtls_ecp_grp_id_list, @function
mbedtls_ecp_grp_id_list:
.LFB10:
	.loc 1 721 1 is_stmt 1
	.cfi_startproc
	.loc 1 722 5
	.loc 1 724 5
	.loc 1 724 9 is_stmt 0
	lui	a5,%hi(.LANCHOR1)
	.loc 1 724 7
	lw	a4,%lo(.LANCHOR1)(a5)
	addi	a3,a5,%lo(.LANCHOR1)
	lui	a0,%hi(.LANCHOR2)
	bne	a4,zero,.L153
.LBB36:
	.loc 1 729 27
	lui	a4,%hi(.LANCHOR0)
	addi	a1,a0,%lo(.LANCHOR2)
	addi	a4,a4,%lo(.LANCHOR0)
	.loc 1 726 16
	li	a5,0
	addi	a2,a0,%lo(.LANCHOR2)
.L154:
.LVL373:
	.loc 1 730 14 is_stmt 1 discriminator 1
	.loc 1 730 24 is_stmt 0 discriminator 1
	lw	a6,0(a4)
	.loc 1 729 9 discriminator 1
	bne	a6,zero,.L155
	.loc 1 735 9 is_stmt 1
	.loc 1 735 33 is_stmt 0
	slli	a5,a5,2
.LVL374:
	add	a5,a2,a5
	sw	zero,0(a5)
	.loc 1 737 9 is_stmt 1
	.loc 1 737 19 is_stmt 0
	li	a5,1
	sw	a5,0(a3)
.LVL375:
.L153:
.LBE36:
	.loc 1 740 5 is_stmt 1
	.loc 1 741 1 is_stmt 0
	addi	a0,a0,%lo(.LANCHOR2)
	ret
.LVL376:
.L155:
.LBB37:
	.loc 1 733 13 is_stmt 1
	.loc 1 733 39 is_stmt 0
	sw	a6,0(a1)
	.loc 1 733 35
	addi	a5,a5,1
.LVL377:
	.loc 1 731 14 is_stmt 1
	.loc 1 731 24 is_stmt 0
	addi	a4,a4,12
.LVL378:
	addi	a1,a1,4
	j	.L154
.LBE37:
	.cfi_endproc
.LFE10:
	.size	mbedtls_ecp_grp_id_list, .-mbedtls_ecp_grp_id_list
	.section	.text.mbedtls_ecp_curve_info_from_grp_id,"ax",@progbits
	.align	1
	.globl	mbedtls_ecp_curve_info_from_grp_id
	.type	mbedtls_ecp_curve_info_from_grp_id, @function
mbedtls_ecp_curve_info_from_grp_id:
.LFB11:
	.loc 1 747 1 is_stmt 1
	.cfi_startproc
.LVL379:
	.loc 1 748 5
	.loc 1 750 5
	.loc 1 714 5
	.loc 1 750 23 is_stmt 0
	lui	a5,%hi(.LANCHOR0)
	.loc 1 747 1
	mv	a4,a0
	.loc 1 750 23
	addi	a0,a5,%lo(.LANCHOR0)
.LVL380:
.L157:
	.loc 1 751 10 is_stmt 1 discriminator 1
	.loc 1 751 20 is_stmt 0 discriminator 1
	lw	a5,0(a0)
	.loc 1 750 5 discriminator 1
	bne	a5,zero,.L159
	.loc 1 758 11
	li	a0,0
.LVL381:
.L156:
	.loc 1 759 1
	ret
.LVL382:
.L159:
	.loc 1 754 9 is_stmt 1
	.loc 1 754 11 is_stmt 0
	beq	a5,a4,.L156
	.loc 1 752 10 is_stmt 1
	.loc 1 752 20 is_stmt 0
	addi	a0,a0,12
.LVL383:
	j	.L157
	.cfi_endproc
.LFE11:
	.size	mbedtls_ecp_curve_info_from_grp_id, .-mbedtls_ecp_curve_info_from_grp_id
	.section	.text.mbedtls_ecp_curve_info_from_tls_id,"ax",@progbits
	.align	1
	.globl	mbedtls_ecp_curve_info_from_tls_id
	.type	mbedtls_ecp_curve_info_from_tls_id, @function
mbedtls_ecp_curve_info_from_tls_id:
.LFB12:
	.loc 1 765 1 is_stmt 1
	.cfi_startproc
.LVL384:
	.loc 1 766 5
	.loc 1 768 5
	.loc 1 714 5
	.loc 1 769 10
	.loc 1 768 23 is_stmt 0
	lui	a5,%hi(.LANCHOR0)
	.loc 1 765 1
	mv	a4,a0
	.loc 1 768 23
	addi	a0,a5,%lo(.LANCHOR0)
.LVL385:
.L162:
	.loc 1 772 9 is_stmt 1
	.loc 1 772 11 is_stmt 0
	lhu	a5,4(a0)
	beq	a5,a4,.L160
	.loc 1 770 10 is_stmt 1
	.loc 1 768 5 is_stmt 0
	lw	a5,12(a0)
	.loc 1 770 20
	addi	a0,a0,12
.LVL386:
	.loc 1 769 10 is_stmt 1
	.loc 1 768 5 is_stmt 0
	bne	a5,zero,.L162
	.loc 1 776 11
	li	a0,0
.LVL387:
.L160:
	.loc 1 777 1
	ret
	.cfi_endproc
.LFE12:
	.size	mbedtls_ecp_curve_info_from_tls_id, .-mbedtls_ecp_curve_info_from_tls_id
	.section	.text.mbedtls_ecp_curve_info_from_name,"ax",@progbits
	.align	1
	.globl	mbedtls_ecp_curve_info_from_name
	.type	mbedtls_ecp_curve_info_from_name, @function
mbedtls_ecp_curve_info_from_name:
.LFB13:
	.loc 1 783 1 is_stmt 1
	.cfi_startproc
.LVL388:
	.loc 1 784 5
	.loc 1 786 5
	.loc 1 783 1 is_stmt 0
	addi	sp,sp,-16
	.cfi_def_cfa_offset 16
	sw	ra,12(sp)
	sw	s0,8(sp)
	sw	s1,4(sp)
	.cfi_offset 1, -4
	.cfi_offset 8, -8
	.cfi_offset 9, -12
	.loc 1 786 7
	beq	a0,zero,.L165
	.loc 1 789 23
	lui	s0,%hi(.LANCHOR0)
	mv	s1,a0
	addi	s0,s0,%lo(.LANCHOR0)
.LVL389:
.L167:
	.loc 1 793 9 is_stmt 1
	.loc 1 793 13 is_stmt 0
	lw	a0,8(s0)
	mv	a1,s1
	call	strcmp
.LVL390:
	.loc 1 793 11
	beq	a0,zero,.L164
	.loc 1 791 10 is_stmt 1
	.loc 1 789 5 is_stmt 0
	lw	a5,12(s0)
	.loc 1 791 20
	addi	s0,s0,12
.LVL391:
	.loc 1 790 10 is_stmt 1
	.loc 1 789 5 is_stmt 0
	bne	a5,zero,.L167
.LVL392:
.L165:
	.loc 1 787 15
	li	s0,0
.L164:
	.loc 1 798 1
	lw	ra,12(sp)
	.cfi_restore 1
	mv	a0,s0
	lw	s0,8(sp)
	.cfi_restore 8
	lw	s1,4(sp)
	.cfi_restore 9
	addi	sp,sp,16
	.cfi_def_cfa_offset 0
	jr	ra
	.cfi_endproc
.LFE13:
	.size	mbedtls_ecp_curve_info_from_name, .-mbedtls_ecp_curve_info_from_name
	.section	.text.mbedtls_ecp_point_init,"ax",@progbits
	.align	1
	.globl	mbedtls_ecp_point_init
	.type	mbedtls_ecp_point_init, @function
mbedtls_ecp_point_init:
.LFB15:
	.loc 1 818 1 is_stmt 1
	.cfi_startproc
.LVL393:
	.loc 1 819 5
	.loc 1 819 10
	.loc 1 819 17
	.loc 1 821 5
	.loc 1 818 1 is_stmt 0
	addi	sp,sp,-16
	.cfi_def_cfa_offset 16
	sw	ra,12(sp)
	sw	s0,8(sp)
	.cfi_offset 1, -4
	.cfi_offset 8, -8
	.loc 1 818 1
	mv	s0,a0
	.loc 1 821 5
	call	mbedtls_mpi_init
.LVL394:
	.loc 1 822 5 is_stmt 1
	addi	a0,s0,12
	call	mbedtls_mpi_init
.LVL395:
	.loc 1 823 5
	addi	a0,s0,24
	.loc 1 824 1 is_stmt 0
	lw	s0,8(sp)
	.cfi_restore 8
.LVL396:
	lw	ra,12(sp)
	.cfi_restore 1
	addi	sp,sp,16
	.cfi_def_cfa_offset 0
	.loc 1 823 5
	tail	mbedtls_mpi_init
.LVL397:
	.cfi_endproc
.LFE15:
	.size	mbedtls_ecp_point_init, .-mbedtls_ecp_point_init
	.section	.text.mbedtls_ecp_group_init,"ax",@progbits
	.align	1
	.globl	mbedtls_ecp_group_init
	.type	mbedtls_ecp_group_init, @function
mbedtls_ecp_group_init:
.LFB16:
	.loc 1 830 1 is_stmt 1
	.cfi_startproc
.LVL398:
	.loc 1 831 5
	.loc 1 831 10
	.loc 1 831 17
	.loc 1 833 5
	.loc 1 830 1 is_stmt 0
	addi	sp,sp,-16
	.cfi_def_cfa_offset 16
	sw	ra,12(sp)
	sw	s0,8(sp)
	.cfi_offset 1, -4
	.cfi_offset 8, -8
	.loc 1 833 13
	sw	zero,0(a0)
	.loc 1 834 5 is_stmt 1
	.loc 1 830 1 is_stmt 0
	mv	s0,a0
	.loc 1 834 5
	addi	a0,a0,4
.LVL399:
	call	mbedtls_mpi_init
.LVL400:
	.loc 1 835 5 is_stmt 1
	addi	a0,s0,16
	call	mbedtls_mpi_init
.LVL401:
	.loc 1 836 5
	addi	a0,s0,28
	call	mbedtls_mpi_init
.LVL402:
	.loc 1 837 5
	addi	a0,s0,40
	call	mbedtls_ecp_point_init
.LVL403:
	.loc 1 838 5
	addi	a0,s0,76
	call	mbedtls_mpi_init
.LVL404:
	.loc 1 839 5
	.loc 1 848 1 is_stmt 0
	lw	ra,12(sp)
	.cfi_restore 1
	.loc 1 839 16
	sw	zero,88(s0)
	.loc 1 840 5 is_stmt 1
	.loc 1 840 16 is_stmt 0
	sw	zero,92(s0)
	.loc 1 841 5 is_stmt 1
	.loc 1 841 12 is_stmt 0
	sw	zero,96(s0)
	.loc 1 842 5 is_stmt 1
	.loc 1 842 15 is_stmt 0
	sw	zero,100(s0)
	.loc 1 843 5 is_stmt 1
	.loc 1 843 16 is_stmt 0
	sw	zero,104(s0)
	.loc 1 844 5 is_stmt 1
	.loc 1 844 17 is_stmt 0
	sw	zero,108(s0)
	.loc 1 845 5 is_stmt 1
	.loc 1 845 17 is_stmt 0
	sw	zero,112(s0)
	.loc 1 846 5 is_stmt 1
	.loc 1 846 12 is_stmt 0
	sw	zero,116(s0)
	.loc 1 847 5 is_stmt 1
	.loc 1 847 17 is_stmt 0
	sw	zero,120(s0)
	.loc 1 848 1
	lw	s0,8(sp)
	.cfi_restore 8
.LVL405:
	addi	sp,sp,16
	.cfi_def_cfa_offset 0
	jr	ra
	.cfi_endproc
.LFE16:
	.size	mbedtls_ecp_group_init, .-mbedtls_ecp_group_init
	.section	.text.mbedtls_ecp_keypair_init,"ax",@progbits
	.align	1
	.globl	mbedtls_ecp_keypair_init
	.type	mbedtls_ecp_keypair_init, @function
mbedtls_ecp_keypair_init:
.LFB17:
	.loc 1 854 1 is_stmt 1
	.cfi_startproc
.LVL406:
	.loc 1 855 5
	.loc 1 855 10
	.loc 1 855 17
	.loc 1 857 5
	.loc 1 854 1 is_stmt 0
	addi	sp,sp,-16
	.cfi_def_cfa_offset 16
	sw	ra,12(sp)
	sw	s0,8(sp)
	.cfi_offset 1, -4
	.cfi_offset 8, -8
	.loc 1 854 1
	mv	s0,a0
	.loc 1 857 5
	call	mbedtls_ecp_group_init
.LVL407:
	.loc 1 858 5 is_stmt 1
	addi	a0,s0,124
	call	mbedtls_mpi_init
.LVL408:
	.loc 1 859 5
	addi	a0,s0,136
	.loc 1 860 1 is_stmt 0
	lw	s0,8(sp)
	.cfi_restore 8
.LVL409:
	lw	ra,12(sp)
	.cfi_restore 1
	addi	sp,sp,16
	.cfi_def_cfa_offset 0
	.loc 1 859 5
	tail	mbedtls_ecp_point_init
.LVL410:
	.cfi_endproc
.LFE17:
	.size	mbedtls_ecp_keypair_init, .-mbedtls_ecp_keypair_init
	.section	.text.mbedtls_ecp_point_free,"ax",@progbits
	.align	1
	.globl	mbedtls_ecp_point_free
	.type	mbedtls_ecp_point_free, @function
mbedtls_ecp_point_free:
.LFB18:
	.loc 1 866 1 is_stmt 1
	.cfi_startproc
.LVL411:
	.loc 1 867 5
	.loc 1 867 7 is_stmt 0
	beq	a0,zero,.L182
	tail	mbedtls_ecp_point_free.part.0
.LVL412:
.L182:
	.loc 1 873 1
	ret
	.cfi_endproc
.LFE18:
	.size	mbedtls_ecp_point_free, .-mbedtls_ecp_point_free
	.section	.text.mbedtls_ecp_group_free,"ax",@progbits
	.align	1
	.globl	mbedtls_ecp_group_free
	.type	mbedtls_ecp_group_free, @function
mbedtls_ecp_group_free:
.LFB19:
	.loc 1 879 1 is_stmt 1
	.cfi_startproc
.LVL413:
	.loc 1 880 5
	.loc 1 882 5
	.loc 1 882 7 is_stmt 0
	beq	a0,zero,.L184
	.loc 1 879 1
	addi	sp,sp,-16
	.cfi_def_cfa_offset 16
	sw	s0,8(sp)
	sw	ra,12(sp)
	sw	s1,4(sp)
	sw	s2,0(sp)
	.cfi_offset 8, -8
	.cfi_offset 1, -4
	.cfi_offset 9, -12
	.cfi_offset 18, -16
	.loc 1 885 7
	lw	a4,96(a0)
	li	a5,1
	mv	s0,a0
	.loc 1 885 5 is_stmt 1
	.loc 1 885 7 is_stmt 0
	beq	a4,a5,.L186
	.loc 1 887 9 is_stmt 1
	addi	a0,a0,4
.LVL414:
	call	mbedtls_mpi_free
.LVL415:
	.loc 1 888 9
	addi	a0,s0,16
	call	mbedtls_mpi_free
.LVL416:
	.loc 1 889 9
	addi	a0,s0,28
	call	mbedtls_mpi_free
.LVL417:
	.loc 1 890 9
	addi	a0,s0,40
	call	mbedtls_ecp_point_free
.LVL418:
	.loc 1 891 9
	addi	a0,s0,76
	call	mbedtls_mpi_free
.LVL419:
.L186:
	.loc 1 894 5
	.loc 1 894 7 is_stmt 0
	lw	a5,116(s0)
	.loc 1 896 16
	li	s1,0
	.loc 1 897 13
	li	s2,36
	.loc 1 894 7
	bne	a5,zero,.L187
.L188:
	.loc 1 901 5 is_stmt 1
	mv	a0,s0
	.loc 1 902 1 is_stmt 0
	lw	s0,8(sp)
	.cfi_remember_state
	.cfi_restore 8
.LVL420:
	lw	ra,12(sp)
	.cfi_restore 1
	lw	s1,4(sp)
	.cfi_restore 9
	lw	s2,0(sp)
	.cfi_restore 18
	.loc 1 901 5
	li	a1,124
	.loc 1 902 1
	addi	sp,sp,16
	.cfi_def_cfa_offset 0
	.loc 1 901 5
	tail	mbedtls_platform_zeroize
.LVL421:
.L189:
	.cfi_restore_state
	.loc 1 897 13 is_stmt 1 discriminator 3
	mul	a5,s1,s2
	.loc 1 896 39 is_stmt 0 discriminator 3
	addi	s1,s1,1
.LVL422:
	.loc 1 897 13 discriminator 3
	add	a0,a0,a5
	call	mbedtls_ecp_point_free
.LVL423:
	.loc 1 896 38 is_stmt 1 discriminator 3
.L187:
	.loc 1 896 21 discriminator 1
	.loc 1 896 9 is_stmt 0 discriminator 1
	lw	a5,120(s0)
	.loc 1 897 41 discriminator 1
	lw	a0,116(s0)
	.loc 1 896 9 discriminator 1
	bgtu	a5,s1,.L189
	.loc 1 898 9 is_stmt 1
	call	mbedtls_free
.LVL424:
	j	.L188
.LVL425:
.L184:
	.cfi_def_cfa_offset 0
	.cfi_restore 1
	.cfi_restore 8
	.cfi_restore 9
	.cfi_restore 18
	ret
	.cfi_endproc
.LFE19:
	.size	mbedtls_ecp_group_free, .-mbedtls_ecp_group_free
	.section	.text.mbedtls_ecp_keypair_free,"ax",@progbits
	.align	1
	.globl	mbedtls_ecp_keypair_free
	.type	mbedtls_ecp_keypair_free, @function
mbedtls_ecp_keypair_free:
.LFB20:
	.loc 1 908 1
	.cfi_startproc
.LVL426:
	.loc 1 909 5
	.loc 1 909 7 is_stmt 0
	beq	a0,zero,.L195
	.loc 1 908 1
	addi	sp,sp,-16
	.cfi_def_cfa_offset 16
	sw	ra,12(sp)
	sw	s0,8(sp)
	.cfi_offset 1, -4
	.cfi_offset 8, -8
	mv	s0,a0
	.loc 1 912 5 is_stmt 1
	call	mbedtls_ecp_group_free
.LVL427:
	.loc 1 913 5
	addi	a0,s0,124
	call	mbedtls_mpi_free
.LVL428:
	.loc 1 914 5
	addi	a0,s0,136
	.loc 1 915 1 is_stmt 0
	lw	s0,8(sp)
	.cfi_restore 8
.LVL429:
	lw	ra,12(sp)
	.cfi_restore 1
	addi	sp,sp,16
	.cfi_def_cfa_offset 0
	.loc 1 914 5
	tail	mbedtls_ecp_point_free
.LVL430:
.L195:
	ret
	.cfi_endproc
.LFE20:
	.size	mbedtls_ecp_keypair_free, .-mbedtls_ecp_keypair_free
	.section	.text.mbedtls_ecp_copy,"ax",@progbits
	.align	1
	.globl	mbedtls_ecp_copy
	.type	mbedtls_ecp_copy, @function
mbedtls_ecp_copy:
.LFB21:
	.loc 1 921 1 is_stmt 1
	.cfi_startproc
.LVL431:
	.loc 1 922 5
	.loc 1 923 5
	.loc 1 923 10
	.loc 1 923 17
	.loc 1 924 5
	.loc 1 924 10
	.loc 1 924 17
	.loc 1 926 5
	.loc 1 926 10
	.loc 1 921 1 is_stmt 0
	addi	sp,sp,-16
	.cfi_def_cfa_offset 16
	sw	s0,8(sp)
	sw	s1,4(sp)
	sw	ra,12(sp)
	.cfi_offset 8, -8
	.cfi_offset 9, -12
	.cfi_offset 1, -4
	.loc 1 921 1
	mv	s0,a0
	mv	s1,a1
	.loc 1 926 23
	call	mbedtls_mpi_copy
.LVL432:
	.loc 1 926 12
	bne	a0,zero,.L200
	.loc 1 926 87 is_stmt 1 discriminator 2
	.loc 1 927 5 discriminator 2
	.loc 1 927 10 discriminator 2
	.loc 1 927 23 is_stmt 0 discriminator 2
	addi	a1,s1,12
	addi	a0,s0,12
.LVL433:
	call	mbedtls_mpi_copy
.LVL434:
	.loc 1 927 12 discriminator 2
	bne	a0,zero,.L200
.LVL435:
.LBB40:
.LBB41:
	.loc 1 927 87 is_stmt 1
	.loc 1 928 5
	.loc 1 928 10
	.loc 1 928 23 is_stmt 0
	addi	a0,s0,24
.LVL436:
.LBE41:
.LBE40:
	.loc 1 932 1
	lw	s0,8(sp)
	.cfi_remember_state
	.cfi_restore 8
.LVL437:
	lw	ra,12(sp)
	.cfi_restore 1
.LBB44:
.LBB42:
	.loc 1 928 23
	addi	a1,s1,24
.LBE42:
.LBE44:
	.loc 1 932 1
	lw	s1,4(sp)
	.cfi_restore 9
.LVL438:
	addi	sp,sp,16
	.cfi_def_cfa_offset 0
.LBB45:
.LBB43:
	.loc 1 928 23
	tail	mbedtls_mpi_copy
.LVL439:
.L201:
.L200:
	.cfi_restore_state
.LBE43:
.LBE45:
	.loc 1 932 1
	lw	ra,12(sp)
	.cfi_restore 1
	lw	s0,8(sp)
	.cfi_restore 8
.LVL440:
	lw	s1,4(sp)
	.cfi_restore 9
.LVL441:
	addi	sp,sp,16
	.cfi_def_cfa_offset 0
	jr	ra
	.cfi_endproc
.LFE21:
	.size	mbedtls_ecp_copy, .-mbedtls_ecp_copy
	.section	.text.ecp_mul_mxz,"ax",@progbits
	.align	1
	.type	ecp_mul_mxz, @function
ecp_mul_mxz:
.LFB52:
	.loc 1 2606 1 is_stmt 1
	.cfi_startproc
.LVL442:
	addi	sp,sp,-528
	.cfi_def_cfa_offset 528
	sw	s2,512(sp)
	.cfi_offset 18, -16
	mv	s2,a0
	.loc 1 2607 5
	.loc 1 2608 5
	.loc 1 2609 5
	.loc 1 2610 5
	.loc 1 2611 5
	.loc 1 2613 5
	.loc 1 2615 5
.LVL443:
.LBB57:
.LBB58:
	.loc 1 231 5
	addi	a0,sp,160
.LVL444:
.LBE58:
.LBE57:
	.loc 1 2606 1 is_stmt 0
	sw	ra,524(sp)
	sw	s1,516(sp)
	sw	s3,508(sp)
	sw	s5,500(sp)
	sw	s7,492(sp)
	sw	s8,488(sp)
	.cfi_offset 1, -4
	.cfi_offset 9, -12
	.cfi_offset 19, -20
	.cfi_offset 21, -28
	.cfi_offset 23, -36
	.cfi_offset 24, -40
	mv	s5,a4
	sw	s0,520(sp)
	sw	s4,504(sp)
	sw	s6,496(sp)
	sw	s9,484(sp)
	.cfi_offset 8, -8
	.cfi_offset 20, -24
	.cfi_offset 22, -32
	.cfi_offset 25, -44
	.loc 1 2606 1
	mv	s3,a1
	mv	s8,a2
	mv	s1,a3
	mv	s7,a5
.LBB60:
.LBB59:
	.loc 1 231 5
	call	mbedtls_ctr_drbg_init
.LVL445:
.LBE59:
.LBE60:
	.loc 1 2617 5 is_stmt 1
	addi	a0,sp,124
	call	mbedtls_ecp_point_init
.LVL446:
	.loc 1 2617 36
	addi	a0,sp,4
	call	mbedtls_mpi_init
.LVL447:
	.loc 1 2620 5
	.loc 1 2620 7 is_stmt 0
	bne	s5,zero,.L204
.LBB61:
	.loc 1 2622 9 is_stmt 1
.LVL448:
	.loc 1 2623 9
	.loc 1 2623 14
	.loc 1 2622 43 is_stmt 0
	lw	a2,92(s2)
	.loc 1 2623 27
	mv	a1,s8
	addi	a0,sp,160
	.loc 1 2622 43
	addi	a2,a2,7
	.loc 1 2623 27
	srli	a2,a2,3
.LVL449:
	call	ecp_drbg_seed
.LVL450:
	mv	s0,a0
.LVL451:
	.loc 1 2623 16
	bne	a0,zero,.L205
	.loc 1 2624 15
	lui	s5,%hi(ecp_drbg_random)
.LVL452:
	.loc 1 2625 15
	addi	s7,sp,160
.LVL453:
	.loc 1 2624 15
	addi	s5,s5,%lo(ecp_drbg_random)
.LVL454:
.L204:
.LBE61:
	.loc 1 2630 5 is_stmt 1
	.loc 1 2630 10
	.loc 1 2630 23 is_stmt 0
	mv	a1,s1
	addi	a0,sp,4
	call	mbedtls_mpi_copy
.LVL455:
	mv	s0,a0
.LVL456:
	.loc 1 2630 12
	bne	a0,zero,.L205
	.loc 1 2630 85 is_stmt 1 discriminator 2
	.loc 1 2631 5 discriminator 2
	.loc 1 2631 10 discriminator 2
	.loc 1 2631 23 is_stmt 0 discriminator 2
	mv	a1,s1
	addi	a0,sp,124
	call	mbedtls_ecp_copy
.LVL457:
	mv	s0,a0
.LVL458:
	.loc 1 2631 12 discriminator 2
	bne	a0,zero,.L205
	.loc 1 2631 81 is_stmt 1 discriminator 2
	.loc 1 2634 5 discriminator 2
	.loc 1 2634 10 discriminator 2
	.loc 1 2634 23 is_stmt 0 discriminator 2
	li	a1,1
	mv	a0,s3
	call	mbedtls_mpi_lset
.LVL459:
	mv	s0,a0
.LVL460:
	.loc 1 2634 12 discriminator 2
	bne	a0,zero,.L205
	.loc 1 2634 83 is_stmt 1 discriminator 2
	.loc 1 2635 5 discriminator 2
	.loc 1 2635 10 discriminator 2
	.loc 1 2635 23 is_stmt 0 discriminator 2
	addi	s1,s3,24
.LVL461:
	li	a1,0
	mv	a0,s1
	call	mbedtls_mpi_lset
.LVL462:
	mv	s0,a0
.LVL463:
	.loc 1 2635 12 discriminator 2
	bne	a0,zero,.L205
	.loc 1 2635 83 is_stmt 1 discriminator 2
	.loc 1 2636 5 discriminator 2
	addi	a0,s3,12
	call	mbedtls_mpi_free
.LVL464:
	.loc 1 2639 5 discriminator 2
	.loc 1 2639 42 is_stmt 0 discriminator 2
	addi	s4,s2,4
.L206:
	.loc 1 2639 157 is_stmt 1 discriminator 2
	.loc 1 2639 10 discriminator 2
	.loc 1 2639 12 is_stmt 0 discriminator 2
	mv	a1,s4
	addi	a0,sp,124
	call	mbedtls_mpi_cmp_mpi
.LVL465:
	.loc 1 2639 10 discriminator 2
	bge	a0,zero,.L207
	.loc 1 2645 9 is_stmt 1
	.loc 1 2645 14
	.loc 1 2645 27 is_stmt 0
	mv	a3,s7
	mv	a2,s5
	addi	a1,sp,124
	mv	a0,s2
	call	ecp_randomize_mxz
.LVL466:
	mv	s0,a0
.LVL467:
	.loc 1 2645 16
	bne	a0,zero,.L205
	.loc 1 2645 102 is_stmt 1 discriminator 2
	.loc 1 2648 5 discriminator 2
	.loc 1 2648 9 is_stmt 0 discriminator 2
	mv	a0,s8
	call	mbedtls_mpi_bitlen
.LVL468:
	.loc 1 2649 5 is_stmt 1 discriminator 2
	addi	s6,a0,-1
.LVL469:
.L208:
	.loc 1 2663 104 discriminator 2
	.loc 1 2649 10 discriminator 2
	li	a5,-1
	bne	s6,a5,.L235
	.loc 1 2680 9
	.loc 1 2680 14
	.loc 1 2680 27 is_stmt 0
	mv	a3,s7
	mv	a2,s5
	mv	a1,s3
	mv	a0,s2
	call	ecp_randomize_mxz
.LVL470:
	mv	s0,a0
.LVL471:
	.loc 1 2680 16
	bne	a0,zero,.L205
	.loc 1 2680 100 is_stmt 1
	.loc 1 2682 5
	.loc 1 2682 10
.LVL472:
.LBB62:
.LBB63:
	.loc 1 2475 5
	.loc 1 2482 5
	.loc 1 2482 10
	.loc 1 2482 23 is_stmt 0
	mv	a2,s4
	mv	a1,s1
	mv	a0,s1
	call	mbedtls_mpi_inv_mod
.LVL473:
	mv	s0,a0
.LVL474:
	.loc 1 2482 12
	bne	a0,zero,.L205
	.loc 1 2482 99 is_stmt 1
	.loc 1 2483 5
	.loc 1 2483 10
	.loc 1 2483 23 is_stmt 0
	mv	a2,s1
	mv	a1,s3
	mv	a0,s3
	call	mbedtls_mpi_mul_mpi
.LVL475:
	mv	s0,a0
.LVL476:
	.loc 1 2483 12
	bne	a0,zero,.L205
	.loc 1 2483 97 is_stmt 1
	.loc 1 2483 104
	.loc 1 2483 109
	.loc 1 2483 114
	.loc 1 2483 127 is_stmt 0
	mv	a1,s2
	mv	a0,s3
	call	ecp_modp
.LVL477:
	mv	s0,a0
.LVL478:
	.loc 1 2483 116
	bne	a0,zero,.L205
	.loc 1 2483 183 is_stmt 1
	.loc 1 2483 197
	.loc 1 2484 5
	.loc 1 2484 10
	.loc 1 2484 23 is_stmt 0
	li	a1,1
	mv	a0,s1
	call	mbedtls_mpi_lset
.LVL479:
	mv	s0,a0
.LVL480:
	.loc 1 2486 1
	j	.L205
.LVL481:
.L207:
.LBE63:
.LBE62:
	.loc 1 2639 59 is_stmt 1 discriminator 3
	.loc 1 2639 64 discriminator 3
	.loc 1 2639 77 is_stmt 0 discriminator 3
	addi	a1,sp,124
	mv	a2,s4
	mv	a0,a1
	call	mbedtls_mpi_sub_abs
.LVL482:
	mv	s0,a0
.LVL483:
	.loc 1 2639 66 discriminator 3
	beq	a0,zero,.L206
.LVL484:
.L205:
	.loc 1 2682 82 is_stmt 1 discriminator 3
	.loc 1 2686 5 discriminator 3
.LBB64:
.LBB65:
	.loc 1 237 5 discriminator 3
	addi	a0,sp,160
.LVL485:
	call	mbedtls_ctr_drbg_free
.LVL486:
.LBE65:
.LBE64:
	.loc 1 2689 5 discriminator 3
.LBB66:
.LBB67:
	.loc 1 867 5 discriminator 3
	addi	a0,sp,124
.LVL487:
	call	mbedtls_ecp_point_free.part.0
.LVL488:
.LBE67:
.LBE66:
	.loc 1 2689 36 discriminator 3
	addi	a0,sp,4
	call	mbedtls_mpi_free
.LVL489:
	.loc 1 2691 5 discriminator 3
	.loc 1 2692 1 is_stmt 0 discriminator 3
	lw	ra,524(sp)
	.cfi_remember_state
	.cfi_restore 1
	mv	a0,s0
	lw	s0,520(sp)
	.cfi_restore 8
.LVL490:
	lw	s1,516(sp)
	.cfi_restore 9
	lw	s2,512(sp)
	.cfi_restore 18
.LVL491:
	lw	s3,508(sp)
	.cfi_restore 19
.LVL492:
	lw	s4,504(sp)
	.cfi_restore 20
	lw	s5,500(sp)
	.cfi_restore 21
.LVL493:
	lw	s6,496(sp)
	.cfi_restore 22
	lw	s7,492(sp)
	.cfi_restore 23
.LVL494:
	lw	s8,488(sp)
	.cfi_restore 24
.LVL495:
	lw	s9,484(sp)
	.cfi_restore 25
	addi	sp,sp,528
	.cfi_def_cfa_offset 0
	jr	ra
.LVL496:
.L235:
	.cfi_restore_state
	.loc 1 2651 9 is_stmt 1
	.loc 1 2651 13 is_stmt 0
	mv	a1,s6
	mv	a0,s8
	call	mbedtls_mpi_get_bit
.LVL497:
	.loc 1 2651 11
	andi	s9,a0,0xff
.LVL498:
	.loc 1 2659 9 is_stmt 1
	.loc 1 2659 14
	.loc 1 2659 27 is_stmt 0
	mv	a2,s9
	addi	a1,sp,124
	mv	a0,s3
	call	mbedtls_mpi_safe_cond_swap
.LVL499:
	mv	s0,a0
.LVL500:
	.loc 1 2659 16
	bne	a0,zero,.L205
	.loc 1 2659 104 is_stmt 1 discriminator 2
	.loc 1 2660 9 discriminator 2
	.loc 1 2660 14 discriminator 2
	.loc 1 2660 27 is_stmt 0 discriminator 2
	mv	a2,s9
	addi	a1,sp,148
	mv	a0,s1
	call	mbedtls_mpi_safe_cond_swap
.LVL501:
	mv	s0,a0
.LVL502:
	.loc 1 2660 16 discriminator 2
	bne	a0,zero,.L205
	.loc 1 2660 104 is_stmt 1
	.loc 1 2661 9
	.loc 1 2661 14
.LVL503:
.LBB68:
.LBB69:
	.loc 1 2559 5
	.loc 1 2560 5
	.loc 1 2567 5
	addi	a0,sp,16
	call	mbedtls_mpi_init
.LVL504:
	.loc 1 2567 29
	addi	a0,sp,28
	call	mbedtls_mpi_init
.LVL505:
	.loc 1 2567 54
	addi	a0,sp,40
	call	mbedtls_mpi_init
.LVL506:
	.loc 1 2568 5
	addi	a0,sp,52
	call	mbedtls_mpi_init
.LVL507:
	.loc 1 2568 30
	addi	a0,sp,64
	call	mbedtls_mpi_init
.LVL508:
	.loc 1 2568 54
	addi	a0,sp,76
	call	mbedtls_mpi_init
.LVL509:
	.loc 1 2569 5
	addi	a0,sp,88
	call	mbedtls_mpi_init
.LVL510:
	.loc 1 2569 29
	addi	a0,sp,100
	call	mbedtls_mpi_init
.LVL511:
	.loc 1 2569 54
	addi	a0,sp,112
	call	mbedtls_mpi_init
.LVL512:
	.loc 1 2571 5
	.loc 1 2571 10
	.loc 1 2571 23 is_stmt 0
	mv	a2,s1
	mv	a1,s3
	addi	a0,sp,16
	call	mbedtls_mpi_add_mpi
.LVL513:
.L240:
	.loc 1 2571 170
	mv	s0,a0
.LVL514:
	.loc 1 2571 159
	bne	a0,zero,.L209
	.loc 1 2571 244 is_stmt 1
	.loc 1 2571 106
	.loc 1 2571 108 is_stmt 0
	mv	a1,s4
	addi	a0,sp,16
	call	mbedtls_mpi_cmp_mpi
.LVL515:
	.loc 1 2571 106
	bge	a0,zero,.L211
	.loc 1 2572 5 is_stmt 1
	.loc 1 2572 10
	.loc 1 2572 23 is_stmt 0
	addi	a2,sp,16
	mv	a1,a2
	addi	a0,sp,28
	call	mbedtls_mpi_mul_mpi
.LVL516:
	mv	s0,a0
.LVL517:
	.loc 1 2572 12
	bne	a0,zero,.L209
	.loc 1 2572 89 is_stmt 1
	.loc 1 2572 96
	.loc 1 2572 101
	.loc 1 2572 106
	.loc 1 2572 119 is_stmt 0
	mv	a1,s2
	addi	a0,sp,28
	call	ecp_modp
.LVL518:
	mv	s0,a0
.LVL519:
	.loc 1 2572 108
	bne	a0,zero,.L209
	.loc 1 2572 173 is_stmt 1
	.loc 1 2572 187
	.loc 1 2573 5
	.loc 1 2573 10
	.loc 1 2573 23 is_stmt 0
	mv	a2,s1
	mv	a1,s3
	addi	a0,sp,40
	call	mbedtls_mpi_sub_mpi
.LVL520:
.L241:
	.loc 1 2573 177
	mv	s0,a0
.LVL521:
	.loc 1 2573 166
	bne	a0,zero,.L209
	.loc 1 2573 251 is_stmt 1
	.loc 1 2573 106
	lw	a5,40(sp)
	blt	a5,zero,.L213
.L216:
	.loc 1 2574 5
	.loc 1 2574 10
	.loc 1 2574 23 is_stmt 0
	addi	a2,sp,40
	mv	a1,a2
	addi	a0,sp,52
	call	mbedtls_mpi_mul_mpi
.LVL522:
	mv	s0,a0
.LVL523:
	.loc 1 2574 12
	bne	a0,zero,.L209
	.loc 1 2574 89 is_stmt 1
	.loc 1 2574 96
	.loc 1 2574 101
	.loc 1 2574 106
	.loc 1 2574 119 is_stmt 0
	mv	a1,s2
	addi	a0,sp,52
	call	ecp_modp
.LVL524:
	mv	s0,a0
.LVL525:
	.loc 1 2574 108
	bne	a0,zero,.L209
	.loc 1 2574 173 is_stmt 1
	.loc 1 2574 187
	.loc 1 2575 5
	.loc 1 2575 10
	.loc 1 2575 23 is_stmt 0
	addi	a2,sp,52
	addi	a1,sp,28
	addi	a0,sp,64
	call	mbedtls_mpi_sub_mpi
.LVL526:
.L242:
	.loc 1 2575 173
	mv	s0,a0
.LVL527:
	.loc 1 2575 162
	bne	a0,zero,.L209
	.loc 1 2575 247 is_stmt 1
	.loc 1 2575 102
	lw	a5,64(sp)
	blt	a5,zero,.L218
.L221:
	.loc 1 2576 5
	.loc 1 2576 10
	.loc 1 2576 23 is_stmt 0
	addi	a2,sp,148
	addi	a1,sp,124
.LVL528:
	addi	a0,sp,76
	call	mbedtls_mpi_add_mpi
.LVL529:
.L243:
	.loc 1 2576 170
	mv	s0,a0
.LVL530:
	.loc 1 2576 159
	bne	a0,zero,.L209
	.loc 1 2576 244 is_stmt 1
	.loc 1 2576 106
	.loc 1 2576 108 is_stmt 0
	mv	a1,s4
	addi	a0,sp,76
	call	mbedtls_mpi_cmp_mpi
.LVL531:
	.loc 1 2576 106
	bge	a0,zero,.L222
	.loc 1 2577 5 is_stmt 1
	.loc 1 2577 10
	.loc 1 2577 23 is_stmt 0
	addi	a2,sp,148
	addi	a1,sp,124
.LVL532:
	addi	a0,sp,88
	call	mbedtls_mpi_sub_mpi
.LVL533:
.L244:
	.loc 1 2577 177
	mv	s0,a0
.LVL534:
	.loc 1 2577 166
	bne	a0,zero,.L209
	.loc 1 2577 251 is_stmt 1
	.loc 1 2577 106
	lw	a5,88(sp)
	blt	a5,zero,.L224
.L227:
	.loc 1 2578 5
	.loc 1 2578 10
	.loc 1 2578 23 is_stmt 0
	addi	a2,sp,16
	addi	a1,sp,88
	addi	a0,sp,100
	call	mbedtls_mpi_mul_mpi
.LVL535:
	mv	s0,a0
.LVL536:
	.loc 1 2578 12
	bne	a0,zero,.L209
	.loc 1 2578 89 is_stmt 1
	.loc 1 2578 96
	.loc 1 2578 101
	.loc 1 2578 106
	.loc 1 2578 119 is_stmt 0
	mv	a1,s2
	addi	a0,sp,100
	call	ecp_modp
.LVL537:
	mv	s0,a0
.LVL538:
	.loc 1 2578 108
	bne	a0,zero,.L209
	.loc 1 2578 173 is_stmt 1
	.loc 1 2578 187
	.loc 1 2579 5
	.loc 1 2579 10
	.loc 1 2579 23 is_stmt 0
	addi	a2,sp,40
	addi	a1,sp,76
	addi	a0,sp,112
	call	mbedtls_mpi_mul_mpi
.LVL539:
	mv	s0,a0
.LVL540:
	.loc 1 2579 12
	bne	a0,zero,.L209
	.loc 1 2579 89 is_stmt 1
	.loc 1 2579 96
	.loc 1 2579 101
	.loc 1 2579 106
	.loc 1 2579 119 is_stmt 0
	mv	a1,s2
	addi	a0,sp,112
	call	ecp_modp
.LVL541:
	mv	s0,a0
.LVL542:
	.loc 1 2579 108
	bne	a0,zero,.L209
	.loc 1 2579 173 is_stmt 1
	.loc 1 2579 187
	.loc 1 2580 5
	.loc 1 2580 10
	.loc 1 2580 23 is_stmt 0
	addi	a2,sp,112
	addi	a1,sp,100
	addi	a0,sp,124
.LVL543:
	call	mbedtls_mpi_add_mpi
.LVL544:
	mv	s0,a0
.LVL545:
	.loc 1 2580 12
	bne	a0,zero,.L209
	.loc 1 2580 93 is_stmt 1
	.loc 1 2580 100
	.loc 1 2580 105
	.loc 1 2580 110
	.loc 1 2580 123 is_stmt 0
	mv	a1,s2
	addi	a0,sp,124
.LVL546:
	call	ecp_modp
.LVL547:
	mv	s0,a0
.LVL548:
	.loc 1 2580 112
	bne	a0,zero,.L209
	.loc 1 2580 179 is_stmt 1
	.loc 1 2580 193
	.loc 1 2581 5
	.loc 1 2581 10
	.loc 1 2581 23 is_stmt 0
	addi	a2,sp,124
.LVL549:
	mv	a1,a2
	mv	a0,a2
	call	mbedtls_mpi_mul_mpi
.LVL550:
	mv	s0,a0
.LVL551:
	.loc 1 2581 12
	bne	a0,zero,.L209
	.loc 1 2581 97 is_stmt 1
	.loc 1 2581 104
	.loc 1 2581 109
	.loc 1 2581 114
	.loc 1 2581 127 is_stmt 0
	mv	a1,s2
	addi	a0,sp,124
.LVL552:
	call	ecp_modp
.LVL553:
	mv	s0,a0
.LVL554:
	.loc 1 2581 116
	bne	a0,zero,.L209
	.loc 1 2581 183 is_stmt 1
	.loc 1 2581 197
	.loc 1 2582 5
	.loc 1 2582 10
	.loc 1 2582 23 is_stmt 0
	addi	a2,sp,112
	addi	a1,sp,100
	addi	a0,sp,148
	call	mbedtls_mpi_sub_mpi
.LVL555:
.L245:
	.loc 1 2582 182
	mv	s0,a0
.LVL556:
	.loc 1 2582 171
	bne	a0,zero,.L209
	.loc 1 2582 262 is_stmt 1
	.loc 1 2582 105
	lw	a5,148(sp)
	blt	a5,zero,.L229
.L232:
	.loc 1 2583 5
	.loc 1 2583 10
	.loc 1 2583 23 is_stmt 0
	addi	a2,sp,148
	mv	a1,a2
	mv	a0,a2
	call	mbedtls_mpi_mul_mpi
.LVL557:
	mv	s0,a0
.LVL558:
	.loc 1 2583 12
	bne	a0,zero,.L209
	.loc 1 2583 97 is_stmt 1
	.loc 1 2583 104
	.loc 1 2583 109
	.loc 1 2583 114
	.loc 1 2583 127 is_stmt 0
	mv	a1,s2
	addi	a0,sp,148
	call	ecp_modp
.LVL559:
	mv	s0,a0
.LVL560:
	.loc 1 2583 116
	bne	a0,zero,.L209
	.loc 1 2583 183 is_stmt 1
	.loc 1 2583 197
	.loc 1 2584 5
	.loc 1 2584 10
	.loc 1 2584 23 is_stmt 0
	addi	a2,sp,148
	addi	a1,sp,4
.LVL561:
	mv	a0,a2
	call	mbedtls_mpi_mul_mpi
.LVL562:
	mv	s0,a0
.LVL563:
	.loc 1 2584 12
	bne	a0,zero,.L209
	.loc 1 2584 93 is_stmt 1
	.loc 1 2584 100
	.loc 1 2584 105
	.loc 1 2584 110
	.loc 1 2584 123 is_stmt 0
	mv	a1,s2
	addi	a0,sp,148
	call	ecp_modp
.LVL564:
	mv	s0,a0
.LVL565:
	.loc 1 2584 112
	bne	a0,zero,.L209
	.loc 1 2584 179 is_stmt 1
	.loc 1 2584 193
	.loc 1 2585 5
	.loc 1 2585 10
	.loc 1 2585 23 is_stmt 0
	addi	a2,sp,52
	addi	a1,sp,28
	mv	a0,s3
	call	mbedtls_mpi_mul_mpi
.LVL566:
	mv	s0,a0
.LVL567:
	.loc 1 2585 12
	bne	a0,zero,.L209
	.loc 1 2585 93 is_stmt 1
	.loc 1 2585 100
	.loc 1 2585 105
	.loc 1 2585 110
	.loc 1 2585 123 is_stmt 0
	mv	a1,s2
	mv	a0,s3
	call	ecp_modp
.LVL568:
	mv	s0,a0
.LVL569:
	.loc 1 2585 112
	bne	a0,zero,.L209
	.loc 1 2585 179 is_stmt 1
	.loc 1 2585 193
	.loc 1 2586 5
	.loc 1 2586 10
	.loc 1 2586 23 is_stmt 0
	addi	a2,sp,64
	addi	a1,s2,16
	mv	a0,s1
	call	mbedtls_mpi_mul_mpi
.LVL570:
	mv	s0,a0
.LVL571:
	.loc 1 2586 12
	bne	a0,zero,.L209
	.loc 1 2586 96 is_stmt 1
	.loc 1 2586 103
	.loc 1 2586 108
	.loc 1 2586 113
	.loc 1 2586 126 is_stmt 0
	mv	a1,s2
	mv	a0,s1
	call	ecp_modp
.LVL572:
	mv	s0,a0
.LVL573:
	.loc 1 2586 115
	bne	a0,zero,.L209
	.loc 1 2586 182 is_stmt 1
	.loc 1 2586 196
	.loc 1 2587 5
	.loc 1 2587 10
	.loc 1 2587 23 is_stmt 0
	mv	a2,s1
	addi	a1,sp,52
	mv	a0,s1
	call	mbedtls_mpi_add_mpi
.LVL574:
.L246:
	.loc 1 2587 174
	mv	s0,a0
.LVL575:
	.loc 1 2587 163
	bne	a0,zero,.L209
	.loc 1 2587 254 is_stmt 1
	.loc 1 2587 107
	.loc 1 2587 109 is_stmt 0
	mv	a1,s4
	mv	a0,s1
	call	mbedtls_mpi_cmp_mpi
.LVL576:
	.loc 1 2587 107
	bge	a0,zero,.L234
	.loc 1 2588 5 is_stmt 1
	.loc 1 2588 10
	.loc 1 2588 23 is_stmt 0
	mv	a2,s1
	addi	a1,sp,64
	mv	a0,s1
	call	mbedtls_mpi_mul_mpi
.LVL577:
	mv	s0,a0
.LVL578:
	.loc 1 2588 12
	bne	a0,zero,.L209
	.loc 1 2588 94 is_stmt 1
	.loc 1 2588 101
	.loc 1 2588 106
	.loc 1 2588 111
	.loc 1 2588 124 is_stmt 0
	mv	a1,s2
	mv	a0,s1
	call	ecp_modp
.LVL579:
	mv	s0,a0
.LVL580:
.L209:
	.loc 1 2588 180 is_stmt 1
	.loc 1 2588 194
	.loc 1 2591 5
	addi	a0,sp,16
	call	mbedtls_mpi_free
.LVL581:
	.loc 1 2591 29
	addi	a0,sp,28
	call	mbedtls_mpi_free
.LVL582:
	.loc 1 2591 54
	addi	a0,sp,40
	call	mbedtls_mpi_free
.LVL583:
	.loc 1 2592 5
	addi	a0,sp,52
	call	mbedtls_mpi_free
.LVL584:
	.loc 1 2592 30
	addi	a0,sp,64
	call	mbedtls_mpi_free
.LVL585:
	.loc 1 2592 54
	addi	a0,sp,76
	call	mbedtls_mpi_free
.LVL586:
	.loc 1 2593 5
	addi	a0,sp,88
	call	mbedtls_mpi_free
.LVL587:
	.loc 1 2593 29
	addi	a0,sp,100
	call	mbedtls_mpi_free
.LVL588:
	.loc 1 2593 54
	addi	a0,sp,112
	call	mbedtls_mpi_free
.LVL589:
	.loc 1 2595 5
.LBE69:
.LBE68:
	.loc 1 2661 16 is_stmt 0
	bne	s0,zero,.L205
	.loc 1 2661 105 is_stmt 1 discriminator 2
	.loc 1 2662 9 discriminator 2
	.loc 1 2662 14 discriminator 2
	.loc 1 2662 27 is_stmt 0 discriminator 2
	mv	a2,s9
	addi	a1,sp,124
	mv	a0,s3
	call	mbedtls_mpi_safe_cond_swap
.LVL590:
	mv	s0,a0
.LVL591:
	.loc 1 2662 16 discriminator 2
	bne	a0,zero,.L205
	.loc 1 2662 104 is_stmt 1 discriminator 2
	.loc 1 2663 9 discriminator 2
	.loc 1 2663 14 discriminator 2
	.loc 1 2663 27 is_stmt 0 discriminator 2
	mv	a2,s9
	addi	a1,sp,148
	mv	a0,s1
	call	mbedtls_mpi_safe_cond_swap
.LVL592:
	mv	s0,a0
.LVL593:
	.loc 1 2663 16 discriminator 2
	addi	s6,s6,-1
.LVL594:
	beq	a0,zero,.L208
	j	.L205
.LVL595:
.L211:
.LBB71:
.LBB70:
	.loc 1 2571 152 is_stmt 1
	.loc 1 2571 157
	.loc 1 2571 170 is_stmt 0
	addi	a1,sp,16
	mv	a2,s4
	mv	a0,a1
	call	mbedtls_mpi_sub_abs
.LVL596:
	j	.L240
.L213:
	.loc 1 2573 121
	li	a1,0
	addi	a0,sp,40
	call	mbedtls_mpi_cmp_int
.LVL597:
	.loc 1 2573 118
	beq	a0,zero,.L216
	.loc 1 2573 159 is_stmt 1
	.loc 1 2573 164
	.loc 1 2573 177 is_stmt 0
	addi	a1,sp,40
	mv	a2,s4
	mv	a0,a1
	call	mbedtls_mpi_add_mpi
.LVL598:
	j	.L241
.L218:
	.loc 1 2575 117
	li	a1,0
	addi	a0,sp,64
	call	mbedtls_mpi_cmp_int
.LVL599:
	.loc 1 2575 114
	beq	a0,zero,.L221
	.loc 1 2575 155 is_stmt 1
	.loc 1 2575 160
	.loc 1 2575 173 is_stmt 0
	addi	a1,sp,64
	mv	a2,s4
	mv	a0,a1
	call	mbedtls_mpi_add_mpi
.LVL600:
	j	.L242
.L222:
	.loc 1 2576 152 is_stmt 1
	.loc 1 2576 157
	.loc 1 2576 170 is_stmt 0
	addi	a1,sp,76
	mv	a2,s4
	mv	a0,a1
	call	mbedtls_mpi_sub_abs
.LVL601:
	j	.L243
.L224:
	.loc 1 2577 121
	li	a1,0
	addi	a0,sp,88
	call	mbedtls_mpi_cmp_int
.LVL602:
	.loc 1 2577 118
	beq	a0,zero,.L227
	.loc 1 2577 159 is_stmt 1
	.loc 1 2577 164
	.loc 1 2577 177 is_stmt 0
	addi	a1,sp,88
	mv	a2,s4
	mv	a0,a1
	call	mbedtls_mpi_add_mpi
.LVL603:
	j	.L244
.L229:
	.loc 1 2582 123
	li	a1,0
	addi	a0,sp,148
	call	mbedtls_mpi_cmp_int
.LVL604:
	.loc 1 2582 120
	beq	a0,zero,.L232
	.loc 1 2582 164 is_stmt 1
	.loc 1 2582 169
	.loc 1 2582 182 is_stmt 0
	addi	a1,sp,148
	mv	a2,s4
	mv	a0,a1
	call	mbedtls_mpi_add_mpi
.LVL605:
	j	.L245
.L234:
	.loc 1 2587 156 is_stmt 1
	.loc 1 2587 161
	.loc 1 2587 174 is_stmt 0
	mv	a2,s4
	mv	a1,s1
	mv	a0,s1
	call	mbedtls_mpi_sub_abs
.LVL606:
	j	.L246
.LBE70:
.LBE71:
	.cfi_endproc
.LFE52:
	.size	ecp_mul_mxz, .-ecp_mul_mxz
	.section	.text.mbedtls_ecp_group_copy,"ax",@progbits
	.align	1
	.globl	mbedtls_ecp_group_copy
	.type	mbedtls_ecp_group_copy, @function
mbedtls_ecp_group_copy:
.LFB22:
	.loc 1 938 1 is_stmt 1
	.cfi_startproc
.LVL607:
	.loc 1 939 5
	.loc 1 939 10
	.loc 1 939 17
	.loc 1 940 5
	.loc 1 940 10
	.loc 1 940 17
	.loc 1 942 5
	.loc 1 942 13 is_stmt 0
	lw	a1,0(a1)
.LVL608:
	tail	mbedtls_ecp_group_load
.LVL609:
	.cfi_endproc
.LFE22:
	.size	mbedtls_ecp_group_copy, .-mbedtls_ecp_group_copy
	.section	.text.mbedtls_ecp_set_zero,"ax",@progbits
	.align	1
	.globl	mbedtls_ecp_set_zero
	.type	mbedtls_ecp_set_zero, @function
mbedtls_ecp_set_zero:
.LFB23:
	.loc 1 949 1 is_stmt 1
	.cfi_startproc
.LVL610:
	.loc 1 950 5
	.loc 1 951 5
	.loc 1 951 10
	.loc 1 951 17
	.loc 1 953 5
	.loc 1 953 10
	.loc 1 949 1 is_stmt 0
	addi	sp,sp,-16
	.cfi_def_cfa_offset 16
	.loc 1 953 23
	li	a1,1
	.loc 1 949 1
	sw	s0,8(sp)
	sw	ra,12(sp)
	.cfi_offset 8, -8
	.cfi_offset 1, -4
	.loc 1 949 1
	mv	s0,a0
	.loc 1 953 23
	call	mbedtls_mpi_lset
.LVL611:
	.loc 1 953 12
	bne	a0,zero,.L248
	.loc 1 953 85 is_stmt 1 discriminator 2
	.loc 1 954 5 discriminator 2
	.loc 1 954 10 discriminator 2
	.loc 1 954 23 is_stmt 0 discriminator 2
	li	a1,1
	addi	a0,s0,12
.LVL612:
	call	mbedtls_mpi_lset
.LVL613:
	.loc 1 954 12 discriminator 2
	bne	a0,zero,.L248
.LVL614:
.LBB74:
.LBB75:
	.loc 1 954 85 is_stmt 1
	.loc 1 955 5
	.loc 1 955 10
	.loc 1 955 23 is_stmt 0
	addi	a0,s0,24
.LVL615:
.LBE75:
.LBE74:
	.loc 1 959 1
	lw	s0,8(sp)
	.cfi_remember_state
	.cfi_restore 8
.LVL616:
	lw	ra,12(sp)
	.cfi_restore 1
.LBB78:
.LBB76:
	.loc 1 955 23
	li	a1,0
.LBE76:
.LBE78:
	.loc 1 959 1
	addi	sp,sp,16
	.cfi_def_cfa_offset 0
.LBB79:
.LBB77:
	.loc 1 955 23
	tail	mbedtls_mpi_lset
.LVL617:
.L249:
.L248:
	.cfi_restore_state
.LBE77:
.LBE79:
	.loc 1 959 1
	lw	ra,12(sp)
	.cfi_restore 1
	lw	s0,8(sp)
	.cfi_restore 8
.LVL618:
	addi	sp,sp,16
	.cfi_def_cfa_offset 0
	jr	ra
	.cfi_endproc
.LFE23:
	.size	mbedtls_ecp_set_zero, .-mbedtls_ecp_set_zero
	.section	.text.ecp_add_mixed,"ax",@progbits
	.align	1
	.type	ecp_add_mixed, @function
ecp_add_mixed:
.LFB39:
	.loc 1 1637 1 is_stmt 1
	.cfi_startproc
.LVL619:
	.loc 1 1638 5
	.loc 1 1639 5
	.loc 1 1653 5
	.loc 1 1637 1 is_stmt 0
	addi	sp,sp,-144
	.cfi_def_cfa_offset 144
	sw	s4,120(sp)
	.cfi_offset 20, -24
	.loc 1 1653 9
	addi	s4,a2,24
	.loc 1 1637 1
	sw	s2,128(sp)
	sw	s5,116(sp)
	.cfi_offset 18, -16
	.cfi_offset 21, -28
	mv	s2,a1
	mv	s5,a0
	.loc 1 1653 9
	li	a1,0
.LVL620:
	mv	a0,s4
.LVL621:
	.loc 1 1637 1
	sw	s3,124(sp)
	sw	s6,112(sp)
	sw	ra,140(sp)
	.cfi_offset 19, -20
	.cfi_offset 22, -32
	.cfi_offset 1, -4
	mv	s6,a3
	sw	s0,136(sp)
	sw	s1,132(sp)
	sw	s7,108(sp)
	.cfi_offset 8, -8
	.cfi_offset 9, -12
	.cfi_offset 23, -36
	.loc 1 1637 1
	mv	s3,a2
	.loc 1 1653 9
	call	mbedtls_mpi_cmp_int
.LVL622:
	.loc 1 1654 17
	mv	a1,s6
	.loc 1 1653 7
	beq	a0,zero,.L303
	.loc 1 1656 5 is_stmt 1
	.loc 1 1656 7 is_stmt 0
	lw	a5,32(s6)
	bne	a5,zero,.L253
.L257:
	.loc 1 1665 5 is_stmt 1
	addi	a0,sp,12
	call	mbedtls_mpi_init
.LVL623:
	.loc 1 1665 30
	addi	a0,sp,24
	call	mbedtls_mpi_init
.LVL624:
	.loc 1 1665 55
	addi	a0,sp,36
	call	mbedtls_mpi_init
.LVL625:
	.loc 1 1665 80
	addi	a0,sp,48
	call	mbedtls_mpi_init
.LVL626:
	.loc 1 1666 5
	addi	s1,sp,60
	mv	a0,s1
	call	mbedtls_mpi_init
.LVL627:
	.loc 1 1666 29
	addi	a0,sp,72
	call	mbedtls_mpi_init
.LVL628:
	.loc 1 1666 53
	addi	a0,sp,84
	call	mbedtls_mpi_init
.LVL629:
	.loc 1 1668 5
	.loc 1 1668 10
	.loc 1 1668 23 is_stmt 0
	mv	a2,s4
	mv	a1,s4
	addi	a0,sp,12
	call	mbedtls_mpi_mul_mpi
.LVL630:
	mv	s0,a0
.LVL631:
	.loc 1 1668 12
	bne	a0,zero,.L254
	.loc 1 1668 95 is_stmt 1 discriminator 2
	.loc 1 1668 102 discriminator 2
	.loc 1 1668 107 discriminator 2
	.loc 1 1668 112 discriminator 2
	.loc 1 1668 125 is_stmt 0 discriminator 2
	mv	a1,s5
	addi	a0,sp,12
	call	ecp_modp
.LVL632:
	mv	s0,a0
.LVL633:
	.loc 1 1668 114 discriminator 2
	bne	a0,zero,.L254
	.loc 1 1668 179 is_stmt 1 discriminator 4
	.loc 1 1668 193 discriminator 4
	.loc 1 1669 5 discriminator 4
	.loc 1 1669 10 discriminator 4
	.loc 1 1669 23 is_stmt 0 discriminator 4
	mv	a2,s4
	addi	a1,sp,12
	addi	a0,sp,24
	call	mbedtls_mpi_mul_mpi
.LVL634:
	mv	s0,a0
.LVL635:
	.loc 1 1669 12 discriminator 4
	bne	a0,zero,.L254
	.loc 1 1669 93 is_stmt 1 discriminator 2
	.loc 1 1669 100 discriminator 2
	.loc 1 1669 105 discriminator 2
	.loc 1 1669 110 discriminator 2
	.loc 1 1669 123 is_stmt 0 discriminator 2
	mv	a1,s5
	addi	a0,sp,24
	call	ecp_modp
.LVL636:
	mv	s0,a0
.LVL637:
	.loc 1 1669 112 discriminator 2
	bne	a0,zero,.L254
	.loc 1 1669 177 is_stmt 1 discriminator 4
	.loc 1 1669 191 discriminator 4
	.loc 1 1670 5 discriminator 4
	.loc 1 1670 10 discriminator 4
	.loc 1 1670 23 is_stmt 0 discriminator 4
	addi	a1,sp,12
	mv	a2,s6
	mv	a0,a1
	call	mbedtls_mpi_mul_mpi
.LVL638:
	mv	s0,a0
.LVL639:
	.loc 1 1670 12 discriminator 4
	bne	a0,zero,.L254
	.loc 1 1670 93 is_stmt 1 discriminator 2
	.loc 1 1670 100 discriminator 2
	.loc 1 1670 105 discriminator 2
	.loc 1 1670 110 discriminator 2
	.loc 1 1670 123 is_stmt 0 discriminator 2
	mv	a1,s5
	addi	a0,sp,12
	call	ecp_modp
.LVL640:
	mv	s0,a0
.LVL641:
	.loc 1 1670 112 discriminator 2
	bne	a0,zero,.L254
	.loc 1 1670 177 is_stmt 1 discriminator 4
	.loc 1 1670 191 discriminator 4
	.loc 1 1671 5 discriminator 4
	.loc 1 1671 10 discriminator 4
	.loc 1 1671 23 is_stmt 0 discriminator 4
	addi	a1,sp,24
	addi	a2,s6,12
	mv	a0,a1
	call	mbedtls_mpi_mul_mpi
.LVL642:
	mv	s0,a0
.LVL643:
	.loc 1 1671 12 discriminator 4
	bne	a0,zero,.L254
	.loc 1 1671 93 is_stmt 1 discriminator 2
	.loc 1 1671 100 discriminator 2
	.loc 1 1671 105 discriminator 2
	.loc 1 1671 110 discriminator 2
	.loc 1 1671 123 is_stmt 0 discriminator 2
	mv	a1,s5
	addi	a0,sp,24
	call	ecp_modp
.LVL644:
	mv	s0,a0
.LVL645:
	.loc 1 1671 112 discriminator 2
	bne	a0,zero,.L254
	.loc 1 1671 177 is_stmt 1 discriminator 4
	.loc 1 1671 191 discriminator 4
	.loc 1 1672 5 discriminator 4
	.loc 1 1672 10 discriminator 4
	.loc 1 1672 23 is_stmt 0 discriminator 4
	addi	a1,sp,12
	mv	a2,s3
	mv	a0,a1
	call	mbedtls_mpi_sub_mpi
.LVL646:
	mv	s0,a0
.LVL647:
	.loc 1 1672 178 discriminator 4
	addi	s6,s5,4
.LVL648:
	.loc 1 1672 12 discriminator 4
	beq	a0,zero,.L259
.LVL649:
.L254:
	.loc 1 1705 84 is_stmt 1 discriminator 3
	.loc 1 1709 5 discriminator 3
	addi	a0,sp,12
	call	mbedtls_mpi_free
.LVL650:
	.loc 1 1709 30 discriminator 3
	addi	a0,sp,24
	call	mbedtls_mpi_free
.LVL651:
	.loc 1 1709 55 discriminator 3
	addi	a0,sp,36
	call	mbedtls_mpi_free
.LVL652:
	.loc 1 1709 80 discriminator 3
	addi	a0,sp,48
	call	mbedtls_mpi_free
.LVL653:
	.loc 1 1710 5 discriminator 3
	mv	a0,s1
	call	mbedtls_mpi_free
.LVL654:
	.loc 1 1710 29 discriminator 3
	addi	a0,sp,72
	call	mbedtls_mpi_free
.LVL655:
	.loc 1 1710 53 discriminator 3
	addi	a0,sp,84
	call	mbedtls_mpi_free
.LVL656:
	.loc 1 1712 5 discriminator 3
.L251:
	.loc 1 1713 1 is_stmt 0
	lw	ra,140(sp)
	.cfi_remember_state
	.cfi_restore 1
	mv	a0,s0
	lw	s0,136(sp)
	.cfi_restore 8
	lw	s1,132(sp)
	.cfi_restore 9
	lw	s2,128(sp)
	.cfi_restore 18
.LVL657:
	lw	s3,124(sp)
	.cfi_restore 19
	lw	s4,120(sp)
	.cfi_restore 20
	lw	s5,116(sp)
	.cfi_restore 21
.LVL658:
	lw	s6,112(sp)
	.cfi_restore 22
	lw	s7,108(sp)
	.cfi_restore 23
	addi	sp,sp,144
	.cfi_def_cfa_offset 0
	jr	ra
.LVL659:
.L253:
	.cfi_restore_state
	.loc 1 1656 26 discriminator 1
	addi	s0,s6,24
	li	a1,0
.LVL660:
	mv	a0,s0
	call	mbedtls_mpi_cmp_int
.LVL661:
	.loc 1 1656 23 discriminator 1
	bne	a0,zero,.L256
	.loc 1 1657 9 is_stmt 1
	.loc 1 1657 17 is_stmt 0
	mv	a1,s3
.L303:
	.loc 1 1713 1
	lw	s0,136(sp)
	.cfi_remember_state
	.cfi_restore 8
	lw	ra,140(sp)
	.cfi_restore 1
	lw	s1,132(sp)
	.cfi_restore 9
	lw	s3,124(sp)
	.cfi_restore 19
.LVL662:
	lw	s4,120(sp)
	.cfi_restore 20
.LVL663:
	lw	s5,116(sp)
	.cfi_restore 21
.LVL664:
	lw	s6,112(sp)
	.cfi_restore 22
.LVL665:
	lw	s7,108(sp)
	.cfi_restore 23
	.loc 1 1657 17
	mv	a0,s2
	.loc 1 1713 1
	lw	s2,128(sp)
	.cfi_restore 18
.LVL666:
	addi	sp,sp,144
	.cfi_def_cfa_offset 0
	.loc 1 1657 17
	tail	mbedtls_ecp_copy
.LVL667:
.L256:
	.cfi_restore_state
	.loc 1 1662 5 is_stmt 1
	.loc 1 1662 7 is_stmt 0
	lw	a5,32(s6)
	beq	a5,zero,.L257
	.loc 1 1662 26 discriminator 1
	li	a1,1
	mv	a0,s0
	call	mbedtls_mpi_cmp_int
.LVL668:
	.loc 1 1662 23 discriminator 1
	beq	a0,zero,.L257
	.loc 1 1663 15
	li	a0,-20480
	addi	s0,a0,128
	j	.L251
.LVL669:
.L260:
	.loc 1 1672 121 discriminator 5
	li	a1,0
	addi	a0,sp,12
	call	mbedtls_mpi_cmp_int
.LVL670:
	.loc 1 1672 118 discriminator 5
	beq	a0,zero,.L263
	.loc 1 1672 160 is_stmt 1 discriminator 6
	.loc 1 1672 165 discriminator 6
	.loc 1 1672 178 is_stmt 0 discriminator 6
	addi	a1,sp,12
	mv	a2,s6
	mv	a0,a1
	call	mbedtls_mpi_add_mpi
.LVL671:
	mv	s0,a0
.LVL672:
	.loc 1 1672 167 discriminator 6
	bne	a0,zero,.L254
.L259:
	.loc 1 1672 254 is_stmt 1 discriminator 4
	.loc 1 1672 105 discriminator 4
	lw	a5,12(sp)
	blt	a5,zero,.L260
.L263:
	.loc 1 1673 5
	.loc 1 1673 10
	.loc 1 1673 23 is_stmt 0
	addi	a1,sp,24
	addi	s6,s3,12
	mv	a2,s6
	mv	a0,a1
	call	mbedtls_mpi_sub_mpi
.LVL673:
	mv	s0,a0
.LVL674:
	.loc 1 1673 178
	addi	s7,s5,4
	.loc 1 1673 12
	bne	a0,zero,.L254
.L261:
	.loc 1 1673 254 is_stmt 1 discriminator 4
	.loc 1 1673 105 discriminator 4
	lw	a5,24(sp)
	blt	a5,zero,.L264
.L268:
	.loc 1 1676 5
	.loc 1 1676 9 is_stmt 0
	li	a1,0
	addi	a0,sp,12
	call	mbedtls_mpi_cmp_int
.LVL675:
	.loc 1 1676 7
	beq	a0,zero,.L265
	.loc 1 1690 5 is_stmt 1
	.loc 1 1690 10
	.loc 1 1690 23 is_stmt 0
	addi	a2,sp,12
	mv	a1,s4
	addi	a0,sp,84
	call	mbedtls_mpi_mul_mpi
.LVL676:
	mv	s0,a0
.LVL677:
	.loc 1 1690 12
	bne	a0,zero,.L254
	.loc 1 1690 92 is_stmt 1 discriminator 2
	.loc 1 1690 99 discriminator 2
	.loc 1 1690 104 discriminator 2
	.loc 1 1690 109 discriminator 2
	.loc 1 1690 122 is_stmt 0 discriminator 2
	mv	a1,s5
	addi	a0,sp,84
	call	ecp_modp
.LVL678:
	mv	s0,a0
.LVL679:
	.loc 1 1690 111 discriminator 2
	bne	a0,zero,.L254
	.loc 1 1690 175 is_stmt 1 discriminator 4
	.loc 1 1690 189 discriminator 4
	.loc 1 1691 5 discriminator 4
	.loc 1 1691 10 discriminator 4
	.loc 1 1691 23 is_stmt 0 discriminator 4
	addi	a2,sp,12
	mv	a1,a2
	addi	a0,sp,36
	call	mbedtls_mpi_mul_mpi
.LVL680:
	mv	s0,a0
.LVL681:
	.loc 1 1691 12 discriminator 4
	bne	a0,zero,.L254
	.loc 1 1691 91 is_stmt 1 discriminator 2
	.loc 1 1691 98 discriminator 2
	.loc 1 1691 103 discriminator 2
	.loc 1 1691 108 discriminator 2
	.loc 1 1691 121 is_stmt 0 discriminator 2
	mv	a1,s5
	addi	a0,sp,36
	call	ecp_modp
.LVL682:
	mv	s0,a0
.LVL683:
	.loc 1 1691 110 discriminator 2
	bne	a0,zero,.L254
	.loc 1 1691 175 is_stmt 1 discriminator 4
	.loc 1 1691 189 discriminator 4
	.loc 1 1692 5 discriminator 4
	.loc 1 1692 10 discriminator 4
	.loc 1 1692 23 is_stmt 0 discriminator 4
	addi	a2,sp,12
	addi	a1,sp,36
	addi	a0,sp,48
	call	mbedtls_mpi_mul_mpi
.LVL684:
	mv	s0,a0
.LVL685:
	.loc 1 1692 12 discriminator 4
	bne	a0,zero,.L254
	.loc 1 1692 91 is_stmt 1 discriminator 2
	.loc 1 1692 98 discriminator 2
	.loc 1 1692 103 discriminator 2
	.loc 1 1692 108 discriminator 2
	.loc 1 1692 121 is_stmt 0 discriminator 2
	mv	a1,s5
	addi	a0,sp,48
	call	ecp_modp
.LVL686:
	mv	s0,a0
.LVL687:
	.loc 1 1692 110 discriminator 2
	bne	a0,zero,.L254
	.loc 1 1692 175 is_stmt 1 discriminator 4
	.loc 1 1692 189 discriminator 4
	.loc 1 1693 5 discriminator 4
	.loc 1 1693 10 discriminator 4
	.loc 1 1693 23 is_stmt 0 discriminator 4
	addi	a1,sp,36
	mv	a2,s3
	mv	a0,a1
	call	mbedtls_mpi_mul_mpi
.LVL688:
	mv	s0,a0
.LVL689:
	.loc 1 1693 12 discriminator 4
	bne	a0,zero,.L254
	.loc 1 1693 93 is_stmt 1 discriminator 2
	.loc 1 1693 100 discriminator 2
	.loc 1 1693 105 discriminator 2
	.loc 1 1693 110 discriminator 2
	.loc 1 1693 123 is_stmt 0 discriminator 2
	mv	a1,s5
	addi	a0,sp,36
	call	ecp_modp
.LVL690:
	mv	s0,a0
.LVL691:
	.loc 1 1693 112 discriminator 2
	bne	a0,zero,.L254
	.loc 1 1693 177 is_stmt 1 discriminator 4
	.loc 1 1693 191 discriminator 4
	.loc 1 1694 5 discriminator 4
	.loc 1 1694 10 discriminator 4
	.loc 1 1694 23 is_stmt 0 discriminator 4
	li	a2,2
	addi	a1,sp,36
	addi	a0,sp,12
	call	mbedtls_mpi_mul_int
.LVL692:
	mv	s0,a0
.LVL693:
	.loc 1 1694 103 discriminator 4
	addi	s4,s5,4
	.loc 1 1694 12 discriminator 4
	bne	a0,zero,.L254
.L270:
	.loc 1 1694 242 is_stmt 1 discriminator 4
	.loc 1 1694 101 discriminator 4
	.loc 1 1694 103 is_stmt 0 discriminator 4
	mv	a1,s4
	addi	a0,sp,12
	call	mbedtls_mpi_cmp_mpi
.LVL694:
	.loc 1 1694 101 discriminator 4
	bge	a0,zero,.L271
	.loc 1 1695 5 is_stmt 1
	.loc 1 1695 10
	.loc 1 1695 23 is_stmt 0
	addi	a2,sp,24
	mv	a1,a2
	mv	a0,s1
	call	mbedtls_mpi_mul_mpi
.LVL695:
	mv	s0,a0
.LVL696:
	.loc 1 1695 12
	bne	a0,zero,.L254
	.loc 1 1695 90 is_stmt 1 discriminator 2
	.loc 1 1695 97 discriminator 2
	.loc 1 1695 102 discriminator 2
	.loc 1 1695 107 discriminator 2
	.loc 1 1695 120 is_stmt 0 discriminator 2
	mv	a1,s5
	mv	a0,s1
	call	ecp_modp
.LVL697:
	mv	s0,a0
.LVL698:
	.loc 1 1695 109 discriminator 2
	bne	a0,zero,.L254
	.loc 1 1695 173 is_stmt 1 discriminator 4
	.loc 1 1695 187 discriminator 4
	.loc 1 1696 5 discriminator 4
	.loc 1 1696 10 discriminator 4
	.loc 1 1696 23 is_stmt 0 discriminator 4
	addi	a2,sp,12
	mv	a1,s1
	mv	a0,s1
	call	mbedtls_mpi_sub_mpi
.LVL699:
	mv	s0,a0
.LVL700:
	mv	s3,s1
.LVL701:
	.loc 1 1696 12 discriminator 4
	bne	a0,zero,.L254
.L272:
	.loc 1 1696 246 is_stmt 1 discriminator 4
	.loc 1 1696 101 discriminator 4
	lw	a5,60(sp)
	blt	a5,zero,.L273
.L276:
	.loc 1 1697 5
	.loc 1 1697 10
	.loc 1 1697 23 is_stmt 0
	addi	a2,sp,48
	mv	a1,s3
	mv	a0,s3
	call	mbedtls_mpi_sub_mpi
.LVL702:
.L299:
	.loc 1 1697 172 discriminator 6
	mv	s0,a0
.LVL703:
	.loc 1 1697 161 discriminator 6
	bne	a0,zero,.L254
	.loc 1 1697 246 is_stmt 1 discriminator 4
	.loc 1 1697 101 discriminator 4
	lw	a5,60(sp)
	blt	a5,zero,.L277
.L280:
	.loc 1 1698 5
	.loc 1 1698 10
	.loc 1 1698 23 is_stmt 0
	addi	a1,sp,36
	mv	a2,s3
	mv	a0,a1
	call	mbedtls_mpi_sub_mpi
.LVL704:
.L300:
	.loc 1 1698 175 discriminator 6
	mv	s0,a0
.LVL705:
	.loc 1 1698 164 discriminator 6
	bne	a0,zero,.L254
	.loc 1 1698 251 is_stmt 1 discriminator 4
	.loc 1 1698 102 discriminator 4
	lw	a5,36(sp)
	blt	a5,zero,.L281
.L284:
	.loc 1 1699 5
	.loc 1 1699 10
	.loc 1 1699 23 is_stmt 0
	addi	a1,sp,36
	addi	a2,sp,24
	mv	a0,a1
	call	mbedtls_mpi_mul_mpi
.LVL706:
	mv	s0,a0
.LVL707:
	.loc 1 1699 12
	bne	a0,zero,.L254
	.loc 1 1699 91 is_stmt 1 discriminator 2
	.loc 1 1699 98 discriminator 2
	.loc 1 1699 103 discriminator 2
	.loc 1 1699 108 discriminator 2
	.loc 1 1699 121 is_stmt 0 discriminator 2
	mv	a1,s5
	addi	a0,sp,36
	call	ecp_modp
.LVL708:
	mv	s0,a0
.LVL709:
	.loc 1 1699 110 discriminator 2
	bne	a0,zero,.L254
	.loc 1 1699 175 is_stmt 1 discriminator 4
	.loc 1 1699 189 discriminator 4
	.loc 1 1700 5 discriminator 4
	.loc 1 1700 10 discriminator 4
	.loc 1 1700 23 is_stmt 0 discriminator 4
	addi	a1,sp,48
	mv	a2,s6
	mv	a0,a1
	call	mbedtls_mpi_mul_mpi
.LVL710:
	mv	s0,a0
.LVL711:
	.loc 1 1700 12 discriminator 4
	bne	a0,zero,.L254
	.loc 1 1700 93 is_stmt 1 discriminator 2
	.loc 1 1700 100 discriminator 2
	.loc 1 1700 105 discriminator 2
	.loc 1 1700 110 discriminator 2
	.loc 1 1700 123 is_stmt 0 discriminator 2
	mv	a1,s5
	addi	a0,sp,48
	call	ecp_modp
.LVL712:
	mv	s0,a0
.LVL713:
	.loc 1 1700 112 discriminator 2
	bne	a0,zero,.L254
	.loc 1 1700 177 is_stmt 1 discriminator 4
	.loc 1 1700 191 discriminator 4
	.loc 1 1701 5 discriminator 4
	.loc 1 1701 10 discriminator 4
	.loc 1 1701 23 is_stmt 0 discriminator 4
	addi	a2,sp,48
	addi	a1,sp,36
	addi	a0,sp,72
	call	mbedtls_mpi_sub_mpi
.LVL714:
.L301:
	.loc 1 1701 173 discriminator 6
	mv	s0,a0
.LVL715:
	.loc 1 1701 162 discriminator 6
	bne	a0,zero,.L254
	.loc 1 1701 247 is_stmt 1 discriminator 4
	.loc 1 1701 102 discriminator 4
	lw	a5,72(sp)
	blt	a5,zero,.L286
.L289:
	.loc 1 1703 5
	.loc 1 1703 10
	.loc 1 1703 23 is_stmt 0
	mv	a1,s3
	mv	a0,s2
	call	mbedtls_mpi_copy
.LVL716:
	mv	s0,a0
.LVL717:
	.loc 1 1703 12
	bne	a0,zero,.L254
	.loc 1 1703 84 is_stmt 1 discriminator 2
	.loc 1 1704 5 discriminator 2
	.loc 1 1704 10 discriminator 2
	.loc 1 1704 23 is_stmt 0 discriminator 2
	addi	a1,sp,72
	addi	a0,s2,12
	call	mbedtls_mpi_copy
.LVL718:
	mv	s0,a0
.LVL719:
	.loc 1 1704 12 discriminator 2
	bne	a0,zero,.L254
	.loc 1 1704 84 is_stmt 1 discriminator 2
	.loc 1 1705 5 discriminator 2
	.loc 1 1705 10 discriminator 2
	.loc 1 1705 23 is_stmt 0 discriminator 2
	addi	a1,sp,84
	addi	a0,s2,24
	call	mbedtls_mpi_copy
.LVL720:
	j	.L302
.LVL721:
.L264:
	.loc 1 1673 121 discriminator 5
	li	a1,0
	addi	a0,sp,24
	call	mbedtls_mpi_cmp_int
.LVL722:
	.loc 1 1673 118 discriminator 5
	beq	a0,zero,.L268
	.loc 1 1673 160 is_stmt 1 discriminator 6
	.loc 1 1673 165 discriminator 6
	.loc 1 1673 178 is_stmt 0 discriminator 6
	addi	a1,sp,24
	mv	a2,s7
	mv	a0,a1
	call	mbedtls_mpi_add_mpi
.LVL723:
	mv	s0,a0
.LVL724:
	.loc 1 1673 167 discriminator 6
	beq	a0,zero,.L261
	j	.L254
.L265:
	.loc 1 1678 9 is_stmt 1
	.loc 1 1678 13 is_stmt 0
	li	a1,0
	addi	a0,sp,24
	call	mbedtls_mpi_cmp_int
.LVL725:
	.loc 1 1678 11
	bne	a0,zero,.L269
	.loc 1 1680 13 is_stmt 1
	.loc 1 1680 19 is_stmt 0
	mv	a2,s3
	mv	a1,s2
	mv	a0,s5
	call	ecp_double_jac
.LVL726:
.L302:
	.loc 1 1705 23 discriminator 2
	mv	s0,a0
.LVL727:
	.loc 1 1707 1 discriminator 2
	j	.L254
.LVL728:
.L269:
	.loc 1 1685 13 is_stmt 1
	.loc 1 1685 19 is_stmt 0
	mv	a0,s2
	call	mbedtls_ecp_set_zero
.LVL729:
	j	.L302
.L271:
	.loc 1 1694 148 is_stmt 1 discriminator 5
	.loc 1 1694 153 discriminator 5
	.loc 1 1694 166 is_stmt 0 discriminator 5
	addi	a1,sp,12
	mv	a2,s4
	mv	a0,a1
	call	mbedtls_mpi_sub_abs
.LVL730:
	mv	s0,a0
.LVL731:
	.loc 1 1694 155 discriminator 5
	beq	a0,zero,.L270
	j	.L254
.LVL732:
.L273:
	.loc 1 1696 116 discriminator 5
	li	a1,0
	mv	a0,s3
	call	mbedtls_mpi_cmp_int
.LVL733:
	.loc 1 1696 113 discriminator 5
	beq	a0,zero,.L276
	.loc 1 1696 154 is_stmt 1 discriminator 6
	.loc 1 1696 159 discriminator 6
	.loc 1 1696 172 is_stmt 0 discriminator 6
	mv	a2,s4
	mv	a1,s3
	mv	a0,s3
	call	mbedtls_mpi_add_mpi
.LVL734:
	mv	s0,a0
.LVL735:
	.loc 1 1696 161 discriminator 6
	beq	a0,zero,.L272
	j	.L254
.L277:
	.loc 1 1697 116 discriminator 5
	li	a1,0
	mv	a0,s3
	call	mbedtls_mpi_cmp_int
.LVL736:
	.loc 1 1697 113 discriminator 5
	beq	a0,zero,.L280
	.loc 1 1697 154 is_stmt 1 discriminator 6
	.loc 1 1697 159 discriminator 6
	.loc 1 1697 172 is_stmt 0 discriminator 6
	mv	a2,s4
	mv	a1,s3
	mv	a0,s3
	call	mbedtls_mpi_add_mpi
.LVL737:
	j	.L299
.L281:
	.loc 1 1698 118 discriminator 5
	li	a1,0
	addi	a0,sp,36
	call	mbedtls_mpi_cmp_int
.LVL738:
	.loc 1 1698 115 discriminator 5
	beq	a0,zero,.L284
	.loc 1 1698 157 is_stmt 1 discriminator 6
	.loc 1 1698 162 discriminator 6
	.loc 1 1698 175 is_stmt 0 discriminator 6
	addi	a1,sp,36
	mv	a2,s4
	mv	a0,a1
	call	mbedtls_mpi_add_mpi
.LVL739:
	j	.L300
.L286:
	.loc 1 1701 117 discriminator 5
	li	a1,0
	addi	a0,sp,72
	call	mbedtls_mpi_cmp_int
.LVL740:
	.loc 1 1701 114 discriminator 5
	beq	a0,zero,.L289
	.loc 1 1701 155 is_stmt 1 discriminator 6
	.loc 1 1701 160 discriminator 6
	.loc 1 1701 173 is_stmt 0 discriminator 6
	addi	a1,sp,72
	mv	a2,s4
	mv	a0,a1
	call	mbedtls_mpi_add_mpi
.LVL741:
	j	.L301
	.cfi_endproc
.LFE39:
	.size	ecp_add_mixed, .-ecp_add_mixed
	.section	.text.ecp_mul_comb.isra.0,"ax",@progbits
	.align	1
	.type	ecp_mul_comb.isra.0, @function
ecp_mul_comb.isra.0:
.LFB78:
	.loc 1 2300 12 is_stmt 1
	.cfi_startproc
.LVL742:
	.loc 1 2306 5
	.loc 1 2307 5
	.loc 1 2308 5
	.loc 1 2309 5
	.loc 1 2310 5
	.loc 1 2312 5
	.loc 1 2314 5
	.loc 1 2300 12 is_stmt 0
	addi	sp,sp,-720
	.cfi_def_cfa_offset 720
.LVL743:
.LBB99:
.LBB100:
	.loc 1 231 5 is_stmt 1
.LBE100:
.LBE99:
	.loc 1 2300 12 is_stmt 0
	sw	s0,712(sp)
	sw	s5,692(sp)
	.cfi_offset 8, -8
	.cfi_offset 21, -28
	mv	s0,a0
	mv	s5,a4
.LBB103:
.LBB101:
	.loc 1 231 5
	addi	a0,sp,336
.LVL744:
.LBE101:
.LBE103:
	.loc 1 2300 12
	sw	s3,700(sp)
	sw	s8,680(sp)
	sw	s11,668(sp)
	sw	ra,716(sp)
	sw	s1,708(sp)
	sw	s2,704(sp)
	sw	s4,696(sp)
	sw	s6,688(sp)
	sw	s7,684(sp)
	sw	s9,676(sp)
	sw	s10,672(sp)
	.cfi_offset 19, -20
	.cfi_offset 24, -40
	.cfi_offset 27, -52
	.cfi_offset 1, -4
	.cfi_offset 9, -12
	.cfi_offset 18, -16
	.cfi_offset 20, -24
	.cfi_offset 22, -32
	.cfi_offset 23, -36
	.cfi_offset 25, -44
	.cfi_offset 26, -48
	.loc 1 2300 12
	mv	s3,a1
	mv	s8,a2
	mv	s11,a3
	sw	a5,0(sp)
.LBB104:
.LBB102:
	.loc 1 231 5
	call	mbedtls_ctr_drbg_init
.LVL745:
.LBE102:
.LBE104:
	.loc 1 2317 5 is_stmt 1
	.loc 1 2317 19
	.loc 1 2320 5
	.loc 1 2320 7 is_stmt 0
	bne	s5,zero,.L305
	.loc 1 2323 9 is_stmt 1
.LVL746:
	.loc 1 2329 13
.LBB105:
	.loc 1 2337 13
	.loc 1 2338 13
	.loc 1 2338 18
	.loc 1 2337 47 is_stmt 0
	lw	a2,92(s0)
	.loc 1 2338 31
	mv	a1,s8
	addi	a0,sp,336
.LVL747:
	.loc 1 2337 47
	addi	a2,a2,7
	.loc 1 2338 31
	srli	a2,a2,3
.LVL748:
	call	ecp_drbg_seed
.LVL749:
	mv	s10,a0
.LVL750:
	.loc 1 2338 20
	bne	a0,zero,.L340
.LBE105:
	.loc 1 2329 19
	addi	a5,sp,336
.LVL751:
	.loc 1 2323 15
	lui	s5,%hi(ecp_drbg_random)
	.loc 1 2329 19
	sw	a5,0(sp)
	.loc 1 2323 15
	addi	s5,s5,%lo(ecp_drbg_random)
.LVL752:
.L305:
.LBB106:
	.loc 1 2338 95 is_stmt 1
.LBE106:
	.loc 1 2349 5
	.loc 1 2349 16 is_stmt 0
	addi	a1,s0,52
	addi	a0,s11,12
	call	mbedtls_mpi_cmp_mpi
.LVL753:
	.loc 1 2349 61
	li	s9,0
	bne	a0,zero,.L307
	.loc 1 2350 16
	addi	a1,s0,40
	mv	a0,s11
	call	mbedtls_mpi_cmp_mpi
.LVL754:
	.loc 1 2349 61
	seqz	s9,a0
.L307:
.LVL755:
	.loc 1 2356 5 is_stmt 1
	lw	s2,92(s0)
.LVL756:
.LBB107:
.LBB108:
	.loc 1 2258 5
	.loc 1 2265 5
	.loc 1 2265 7 is_stmt 0
	li	s4,383
	sgtu	s4,s2,s4
	addi	s4,s4,4
.LVL757:
	.loc 1 2272 5 is_stmt 1
	.loc 1 2272 7 is_stmt 0
	beq	s9,zero,.L309
	.loc 1 2273 9 is_stmt 1
.LVL758:
	.loc 1 2273 10 is_stmt 0
	addi	s4,s4,1
.LVL759:
.L309:
	.loc 1 2279 5 is_stmt 1
	.loc 1 2281 5
	.loc 1 2281 7 is_stmt 0
	bgtu	s2,s4,.L310
.LVL760:
	.loc 1 2282 11
	li	s4,2
.LVL761:
.L310:
	.loc 1 2284 5 is_stmt 1
.LBE108:
.LBE107:
	.loc 1 2357 5
	.loc 1 2357 24 is_stmt 0
	addi	a5,s4,-1
	.loc 1 2357 17
	li	s7,1
	.loc 1 2358 26
	addi	s2,s2,-1
	.loc 1 2357 17
	sll	s7,s7,a5
	.loc 1 2358 26
	add	s2,s2,s4
	.loc 1 2357 24
	sw	a5,4(sp)
	.loc 1 2358 7
	divu	s2,s2,s4
	.loc 1 2357 12
	andi	s6,s7,0xff
.LVL762:
	.loc 1 2358 5 is_stmt 1
	.loc 1 2361 5
	.loc 1 2361 7 is_stmt 0
	beq	s9,zero,.L311
	.loc 1 2361 22
	lw	s1,116(s0)
	.loc 1 2361 16
	bne	s1,zero,.L312
.L311:
	.loc 1 2384 9 is_stmt 1
	.loc 1 2384 13 is_stmt 0
	li	a1,36
	mv	a0,s7
	call	mbedtls_calloc
.LVL763:
	mv	s1,a0
.LVL764:
	.loc 1 2385 9 is_stmt 1
	.loc 1 2385 11 is_stmt 0
	beq	a0,zero,.L343
	li	s10,0
	.loc 1 2392 13
	li	a3,36
.L313:
.LVL765:
	.loc 1 2392 13 is_stmt 1
	mul	a0,s10,a3
	.loc 1 2391 9 is_stmt 0
	addi	s10,s10,1
.LVL766:
	.loc 1 2392 13
	add	a0,s1,a0
	call	mbedtls_ecp_point_init
.LVL767:
	.loc 1 2391 33 is_stmt 1
	.loc 1 2391 21
	.loc 1 2391 9 is_stmt 0
	andi	a4,s10,0xff
	li	a3,36
	bgtu	s6,a4,.L313
	.loc 1 2398 5 is_stmt 1
	.loc 1 2400 9
	.loc 1 2400 14
.LVL768:
.LBB109:
.LBB110:
	.loc 1 1900 5
	.loc 1 1901 5
	.loc 1 1902 5
	.loc 1 1903 5
	.loc 1 1904 5
	.loc 1 1919 5
	.loc 1 1937 5
	.loc 1 1937 10
	.loc 1 1937 23 is_stmt 0
	mv	a1,s11
	mv	a0,s1
	call	mbedtls_ecp_copy
.LVL769:
	mv	s10,a0
.LVL770:
	.loc 1 1937 12
	bne	a0,zero,.L306
	.loc 1 1946 18
	lw	a5,4(sp)
	.loc 1 1944 11
	li	s11,0
.LVL771:
	.loc 1 1946 18
	mul	a5,a5,s2
	sw	a5,4(sp)
.LVL772:
.L315:
	.loc 1 1946 12 is_stmt 1
	.loc 1 1946 5 is_stmt 0
	lw	a5,4(sp)
	bne	s11,a5,.L319
	addi	s11,sp,72
.LVL773:
	mv	a4,s11
	.loc 1 1969 7
	li	a2,0
	.loc 1 1970 12
	li	a5,1
	.loc 1 1971 21
	li	a1,36
.L320:
.LVL774:
	.loc 1 1971 9 is_stmt 1
	.loc 1 1971 21 is_stmt 0
	mul	a3,a5,a1
	.loc 1 1970 31
	slli	a5,a5,1
.LVL775:
	andi	a5,a5,0xff
	.loc 1 1971 13
	addi	a2,a2,1
.LVL776:
	.loc 1 1971 21
	add	a3,s1,a3
	.loc 1 1971 17
	sw	a3,0(a4)
	.loc 1 1970 29 is_stmt 1
.LVL777:
	.loc 1 1970 17
	.loc 1 1970 5 is_stmt 0
	addi	a4,a4,4
	bgtu	s6,a5,.L320
	.loc 1 1973 5 is_stmt 1
	.loc 1 1975 5
	.loc 1 1975 10
	.loc 1 1975 23 is_stmt 0
	mv	a1,s11
	mv	a0,s0
.LVL778:
	call	ecp_normalize_jac_many
.LVL779:
	mv	s10,a0
.LVL780:
	.loc 1 1975 12
	bne	a0,zero,.L306
	.loc 1 1989 12
	li	a4,1
	.loc 1 1993 71
	li	t1,36
.L323:
.LVL781:
	.loc 1 1991 9 is_stmt 1
	.loc 1 1993 71 is_stmt 0
	mul	a3,a4,t1
	.loc 1 1991 11
	mv	a7,a4
.LVL782:
	.loc 1 1992 9 is_stmt 1
	.loc 1 1993 69 is_stmt 0
	add	a3,s1,a3
.LVL783:
.L321:
	.loc 1 1993 108 is_stmt 1
	.loc 1 1992 14
	mv	a5,a7
	.loc 1 1992 17 is_stmt 0
	addi	a7,a7,-1
.LVL784:
	.loc 1 1992 14
	bne	a5,zero,.L322
	.loc 1 1989 29 is_stmt 1
	.loc 1 1989 31 is_stmt 0
	slli	a4,a4,1
	andi	a4,a4,0xff
.LVL785:
	.loc 1 1989 17 is_stmt 1
	.loc 1 1989 5 is_stmt 0
	bgtu	s6,a4,.L323
	.loc 1 2008 15
	li	a3,36
.LVL786:
.L324:
	.loc 1 2007 17 is_stmt 1
	.loc 1 2007 19 is_stmt 0
	addi	a5,a5,1
.LVL787:
	.loc 1 2007 5
	bne	s7,a5,.L325
	.loc 1 2010 5 is_stmt 1
	.loc 1 2012 5
	.loc 1 2012 10
	.loc 1 2012 23 is_stmt 0
	addi	a2,s7,-1
	addi	a1,sp,72
	mv	a0,s0
.LVL788:
	call	ecp_normalize_jac_many
.LVL789:
	mv	s10,a0
.LVL790:
.LDL1:
	.loc 1 2012 91 is_stmt 1
	.loc 1 2024 5
.LBE110:
.LBE109:
	.loc 1 2400 16 is_stmt 0
	bne	a0,zero,.L306
	.loc 1 2400 105 is_stmt 1
	.loc 1 2402 9
	.loc 1 2402 11 is_stmt 0
	beq	s9,zero,.L312
	.loc 1 2406 13 is_stmt 1
	.loc 1 2406 20 is_stmt 0
	sw	s1,116(s0)
	.loc 1 2407 13 is_stmt 1
	.loc 1 2407 25 is_stmt 0
	sw	s7,120(s0)
.LVL791:
.L312:
	.loc 1 2412 5 is_stmt 1
	.loc 1 2412 10
.LBB113:
.LBB114:
	.loc 1 2197 5
	.loc 1 2198 5
	.loc 1 2199 5
	.loc 1 2200 5
	.loc 1 2212 5
	.loc 1 2212 10
.LBB115:
.LBB116:
	.loc 1 2151 5
	.loc 1 2152 5
	.loc 1 2154 5
	addi	a0,sp,24
	call	mbedtls_mpi_init
.LVL792:
	.loc 1 2155 5
	addi	a0,sp,36
	call	mbedtls_mpi_init
.LVL793:
	.loc 1 2158 5
	.loc 1 2158 9 is_stmt 0
	addi	s9,s0,76
.LVL794:
	li	a1,0
	mv	a0,s9
	call	mbedtls_mpi_get_bit
.LVL795:
	.loc 1 2158 7
	li	a5,1
	beq	a0,a5,.L326
.LVL796:
	.loc 1 2159 15
	li	a0,-20480
	addi	s10,a0,128
	j	.L306
.LVL797:
.L319:
.LBE116:
.LBE115:
.LBE114:
.LBE113:
.LBB133:
.LBB111:
	.loc 1 1948 9 is_stmt 1
	.loc 1 1950 9
	.loc 1 1950 23 is_stmt 0
	divu	a1,s11,s2
	.loc 1 1950 16
	li	a5,1
	sll	a1,a5,a1
.LVL798:
	.loc 1 1951 9 is_stmt 1
	.loc 1 1951 17 is_stmt 0
	andi	a2,a1,255
	li	a5,36
	mul	a2,a2,a5
	.loc 1 1953 15
	remu	a5,s11,s2
	.loc 1 1951 13
	add	a2,s1,a2
.LVL799:
	.loc 1 1953 9 is_stmt 1
	.loc 1 1953 11 is_stmt 0
	beq	a5,zero,.L316
.LVL800:
.L318:
	.loc 1 1954 102 is_stmt 1
	.loc 1 1956 9
	.loc 1 1956 14
	.loc 1 1956 27 is_stmt 0
	mv	a1,a2
	mv	a0,s0
.LVL801:
	call	ecp_double_jac
.LVL802:
	mv	s10,a0
.LVL803:
	.loc 1 1956 16
	beq	a0,zero,.L366
.LVL804:
.L306:
.LBE111:
.LBE133:
	.loc 1 2412 133 is_stmt 1
	.loc 1 2419 5
.LBB134:
.LBB135:
	.loc 1 237 5
	addi	a0,sp,336
.LVL805:
	call	mbedtls_ctr_drbg_free
.LVL806:
.LBE135:
.LBE134:
	.loc 1 2423 5
	.loc 1 2423 7 is_stmt 0
	lw	a4,116(s0)
	beq	a4,s1,.L336
	.loc 1 2438 5 is_stmt 1
	li	s0,0
.LVL807:
	.loc 1 2441 13 is_stmt 0
	li	s2,36
	.loc 1 2438 7
	bne	s1,zero,.L337
.LVL808:
.L336:
	.loc 1 2450 5 is_stmt 1
	.loc 1 2450 7 is_stmt 0
	beq	s10,zero,.L304
	.loc 1 2451 9 is_stmt 1
	mv	a0,s3
	call	mbedtls_ecp_point_free
.LVL809:
	.loc 1 2453 5
	.loc 1 2453 19
	.loc 1 2455 5
.L304:
	.loc 1 2456 1 is_stmt 0
	lw	ra,716(sp)
	.cfi_remember_state
	.cfi_restore 1
	lw	s0,712(sp)
	.cfi_restore 8
	lw	s1,708(sp)
	.cfi_restore 9
	lw	s2,704(sp)
	.cfi_restore 18
	lw	s3,700(sp)
	.cfi_restore 19
.LVL810:
	lw	s4,696(sp)
	.cfi_restore 20
	lw	s5,692(sp)
	.cfi_restore 21
	lw	s6,688(sp)
	.cfi_restore 22
.LVL811:
	lw	s7,684(sp)
	.cfi_restore 23
	lw	s8,680(sp)
	.cfi_restore 24
	lw	s9,676(sp)
	.cfi_restore 25
	lw	s11,668(sp)
	.cfi_restore 27
	mv	a0,s10
	lw	s10,672(sp)
	.cfi_restore 26
.LVL812:
	addi	sp,sp,720
	.cfi_def_cfa_offset 0
	jr	ra
.LVL813:
.L316:
	.cfi_restore_state
.LBB136:
.LBB112:
	.loc 1 1954 13 is_stmt 1
	.loc 1 1954 18
	.loc 1 1954 62 is_stmt 0
	andi	a1,a1,0xff
.LVL814:
	.loc 1 1954 56
	li	a5,36
	.loc 1 1954 62
	srli	a1,a1,1
	.loc 1 1954 56
	mul	a1,a1,a5
	.loc 1 1954 31
	mv	a0,a2
.LVL815:
	sw	a2,8(sp)
	add	a1,s1,a1
	call	mbedtls_ecp_copy
.LVL816:
	.loc 1 1954 20
	lw	a2,8(sp)
	.loc 1 1954 31
	mv	s10,a0
.LVL817:
	.loc 1 1954 20
	beq	a0,zero,.L318
	j	.L306
.LVL818:
.L366:
	.loc 1 1956 90 is_stmt 1
	.loc 1 1946 31
	.loc 1 1946 32 is_stmt 0
	addi	s11,s11,1
.LVL819:
	j	.L315
.LVL820:
.L322:
	mul	a1,a7,t1
	.loc 1 1993 31
	mv	a0,s0
.LVL821:
	sw	a4,12(sp)
	.loc 1 1993 13 is_stmt 1
	.loc 1 1993 18
	sw	a7,8(sp)
	.loc 1 1993 31 is_stmt 0
	sw	a3,4(sp)
	add	a2,s1,a1
	add	a1,a3,a1
	call	ecp_add_mixed
.LVL822:
	.loc 1 1993 20
	lw	a3,4(sp)
	lw	a7,8(sp)
	lw	a4,12(sp)
	.loc 1 1993 31
	mv	s10,a0
.LVL823:
	.loc 1 1993 20
	li	t1,36
	beq	a0,zero,.L321
	j	.L306
.LVL824:
.L325:
	.loc 1 2008 9 is_stmt 1
	.loc 1 2008 15 is_stmt 0
	mul	a4,a5,a3
	addi	s11,s11,4
	add	a4,s1,a4
	sw	a4,-4(s11)
	.loc 1 2007 33 is_stmt 1
	j	.L324
.LVL825:
.L326:
.LBE112:
.LBE136:
.LBB137:
.LBB131:
.LBB123:
.LBB121:
	.loc 1 2162 5
	.loc 1 2162 23 is_stmt 0
	li	a1,0
	mv	a0,s8
	call	mbedtls_mpi_get_bit
.LVL826:
	.loc 1 2162 51
	seqz	s7,a0
.LVL827:
	.loc 1 2165 5 is_stmt 1
	.loc 1 2165 10
	.loc 1 2165 23 is_stmt 0
	mv	a1,s8
	addi	a0,sp,24
	call	mbedtls_mpi_copy
.LVL828:
	mv	s10,a0
.LVL829:
	.loc 1 2165 12
	bne	a0,zero,.L328
	.loc 1 2165 80 is_stmt 1
	.loc 1 2166 5
	.loc 1 2166 10
	.loc 1 2166 23 is_stmt 0
	mv	a2,s8
	mv	a1,s9
	addi	a0,sp,36
.LVL830:
	call	mbedtls_mpi_sub_mpi
.LVL831:
	mv	s10,a0
.LVL832:
	.loc 1 2166 12
	bne	a0,zero,.L328
	.loc 1 2166 93 is_stmt 1
	.loc 1 2167 5
	.loc 1 2167 10
	.loc 1 2167 23 is_stmt 0
	mv	a2,s7
	addi	a1,sp,36
	addi	a0,sp,24
.LVL833:
	call	mbedtls_mpi_safe_cond_assign
.LVL834:
	mv	s10,a0
.LVL835:
	.loc 1 2167 12
	bne	a0,zero,.L328
	.loc 1 2167 109 is_stmt 1
	.loc 1 2170 5
.LVL836:
.LBB117:
.LBB118:
	.loc 1 1834 5
	.loc 1 1835 5
	.loc 1 1837 5
	addi	a2,s2,1
	li	a1,0
	addi	a0,sp,72
.LVL837:
	addi	s8,sp,72
.LVL838:
	call	memset
.LVL839:
	.loc 1 1840 5
	mv	s11,s8
	.loc 1 1840 12 is_stmt 0
	li	s9,0
.LVL840:
.L329:
	.loc 1 1840 17 is_stmt 1
	.loc 1 1840 5 is_stmt 0
	bne	s2,s9,.L344
	addi	a5,sp,72
	add	a2,a5,s2
	.loc 1 1845 7
	li	a6,0
.LVL841:
.L331:
	.loc 1 1846 17 is_stmt 1
	.loc 1 1846 5 is_stmt 0
	bne	a2,s8,.L332
.LVL842:
.L328:
.LBE118:
.LBE117:
	.loc 1 2173 5 is_stmt 1
	addi	a0,sp,36
	call	mbedtls_mpi_free
.LVL843:
	.loc 1 2174 5
	addi	a0,sp,24
	call	mbedtls_mpi_free
.LVL844:
	.loc 1 2176 5
.LBE121:
.LBE123:
	.loc 1 2212 12 is_stmt 0
	bne	s10,zero,.L306
.LVL845:
	.loc 1 2212 111 is_stmt 1
	.loc 1 2214 5
	.loc 1 2214 10
.LBB124:
.LBB125:
	.loc 1 2069 5
	.loc 1 2070 5
	.loc 1 2071 5
	.loc 1 2073 5
	addi	a0,sp,36
	call	mbedtls_ecp_point_init
.LVL846:
	.loc 1 2076 5
	.loc 1 2097 9
	.loc 1 2098 9
	.loc 1 2098 14
	.loc 1 2098 27 is_stmt 0
	addi	a5,sp,656
	add	a5,a5,s2
	lbu	a4,-584(a5)
	mv	a3,s6
	mv	a2,s1
	mv	a1,s3
	mv	a0,s0
	call	ecp_select_comb
.LVL847:
	mv	s10,a0
.LVL848:
	.loc 1 2098 16
	bne	a0,zero,.L333
	.loc 1 2098 101 is_stmt 1
	.loc 1 2099 9
	.loc 1 2099 14
	.loc 1 2099 27 is_stmt 0
	li	a1,1
	addi	a0,s3,24
.LVL849:
	call	mbedtls_mpi_lset
.LVL850:
	mv	s10,a0
.LVL851:
	.loc 1 2099 16
	bne	a0,zero,.L333
	.loc 1 2099 87 is_stmt 1
	.loc 1 2103 13
	.loc 1 2103 18
	.loc 1 2103 31 is_stmt 0
	lw	a3,0(sp)
	mv	a2,s5
	mv	a1,s3
	mv	a0,s0
.LVL852:
	call	ecp_randomize_jac
.LVL853:
	mv	s10,a0
.LVL854:
	.loc 1 2103 20
	bne	a0,zero,.L333
.LVL855:
.L334:
	.loc 1 2113 91 is_stmt 1
	.loc 1 2106 10
	bne	s2,zero,.L335
.LVL856:
.L333:
	.loc 1 2118 5
.LBB126:
.LBB127:
	.loc 1 867 5
	addi	a0,sp,36
.LVL857:
	call	mbedtls_ecp_point_free.part.0
.LVL858:
.LBE127:
.LBE126:
	.loc 1 2129 5
.LBE125:
.LBE124:
	.loc 1 2214 12 is_stmt 0
	bne	s10,zero,.L306
.LVL859:
	.loc 1 2214 122 is_stmt 1
	.loc 1 2216 5
	.loc 1 2216 10
	.loc 1 2216 23 is_stmt 0
	mv	a2,s7
	mv	a1,s3
	mv	a0,s0
	call	ecp_safe_invert_jac
.LVL860:
	mv	s10,a0
.LVL861:
	.loc 1 2216 12
	bne	a0,zero,.L306
	.loc 1 2216 99 is_stmt 1
	.loc 1 2239 9
	.loc 1 2239 14
	.loc 1 2239 27 is_stmt 0
	lw	a3,0(sp)
	mv	a2,s5
	mv	a1,s3
	mv	a0,s0
.LVL862:
	call	ecp_randomize_jac
.LVL863:
	mv	s10,a0
.LVL864:
	.loc 1 2239 16
	bne	a0,zero,.L306
.L327:
	.loc 1 2239 101 is_stmt 1
	.loc 1 2241 5
	.loc 1 2241 10
	.loc 1 2241 23 is_stmt 0
	mv	a1,s3
	mv	a0,s0
.LVL865:
	call	ecp_normalize_jac
.LVL866:
	mv	s10,a0
.LVL867:
	.loc 1 2241 83 is_stmt 1
	.loc 1 2249 5
.LBE131:
.LBE137:
	.loc 1 2416 1 is_stmt 0
	j	.L306
.LVL868:
.L344:
.LBB138:
.LBB132:
.LBB129:
.LBB122:
.LBB120:
.LBB119:
	mv	a1,s9
	.loc 1 1841 16
	li	a4,0
.L330:
	.loc 1 1842 21
	addi	a0,sp,24
.LVL869:
	sw	a4,8(sp)
.LVL870:
	.loc 1 1842 13 is_stmt 1
	.loc 1 1842 21 is_stmt 0
	sw	a1,4(sp)
	call	mbedtls_mpi_get_bit
.LVL871:
	.loc 1 1842 57
	lw	a4,8(sp)
	.loc 1 1842 18
	lbu	a3,0(s11)
	.loc 1 1841 9
	lw	a1,4(sp)
	.loc 1 1842 57
	sll	a0,a0,a4
	.loc 1 1842 18
	or	a0,a0,a3
	sb	a0,0(s11)
	.loc 1 1841 28 is_stmt 1
	.loc 1 1841 29 is_stmt 0
	addi	a4,a4,1
.LVL872:
	.loc 1 1841 21 is_stmt 1
	.loc 1 1841 9 is_stmt 0
	add	a1,a1,s2
	bgtu	s4,a4,.L330
	.loc 1 1840 24 is_stmt 1
	.loc 1 1840 25 is_stmt 0
	addi	s9,s9,1
.LVL873:
	addi	s11,s11,1
	j	.L329
.LVL874:
.L332:
	.loc 1 1849 9 is_stmt 1
	.loc 1 1849 15 is_stmt 0
	lbu	a0,1(s8)
.LVL875:
	.loc 1 1850 9 is_stmt 1
	.loc 1 1855 24 is_stmt 0
	lbu	t1,0(s8)
	addi	s8,s8,1
.LVL876:
	.loc 1 1850 14
	xor	a3,a0,a6
	.loc 1 1851 9 is_stmt 1
.LVL877:
	.loc 1 1854 9
	not	a4,a3
	andi	a4,a4,1
.LVL878:
	.loc 1 1855 9
	.loc 1 1855 30 is_stmt 0
	mul	a1,a4,t1
	.loc 1 1855 15
	slli	a3,a3,24
	srai	a3,a3,24
	.loc 1 1849 12
	and	a0,a0,a6
.LVL879:
	.loc 1 1857 26
	slli	a4,a4,7
.LVL880:
	.loc 1 1857 16
	or	a4,a4,t1
	sb	a4,-1(s8)
	.loc 1 1855 30
	slli	a1,a1,24
	srai	a1,a1,24
	.loc 1 1855 19
	and	a7,a3,a1
	.loc 1 1855 11
	or	a0,a7,a0
	.loc 1 1856 21
	xor	a3,a3,a1
	.loc 1 1856 14
	sb	a3,0(s8)
.LVL881:
	.loc 1 1855 11
	andi	a6,a0,0xff
.LVL882:
	.loc 1 1856 9 is_stmt 1
	.loc 1 1857 9
	.loc 1 1846 25
	j	.L331
.LVL883:
.L335:
.LBE119:
.LBE120:
.LBE122:
.LBE129:
.LBB130:
.LBB128:
	.loc 1 2108 9
	.loc 1 2109 9
	.loc 1 2111 27 is_stmt 0
	mv	a2,s3
	mv	a1,s3
	mv	a0,s0
	.loc 1 2109 9
	addi	s2,s2,-1
.LVL884:
	.loc 1 2111 9 is_stmt 1
	.loc 1 2111 14
	.loc 1 2111 27 is_stmt 0
	call	ecp_double_jac
.LVL885:
	.loc 1 2111 16
	bne	a0,zero,.L347
	.loc 1 2111 86 is_stmt 1
	.loc 1 2112 9
	.loc 1 2112 14
	.loc 1 2112 27 is_stmt 0
	addi	a5,sp,72
.LVL886:
	add	a4,a5,s2
	lbu	a4,0(a4)
	mv	a3,s6
	mv	a2,s1
	addi	a1,sp,36
	mv	a0,s0
.LVL887:
	call	ecp_select_comb
.LVL888:
	.loc 1 2112 16
	bne	a0,zero,.L347
	.loc 1 2112 104 is_stmt 1
	.loc 1 2113 9
	.loc 1 2113 14
	.loc 1 2113 27 is_stmt 0
	addi	a3,sp,36
	mv	a2,s3
	mv	a1,s3
	mv	a0,s0
.LVL889:
	call	ecp_add_mixed
.LVL890:
	.loc 1 2113 16
	beq	a0,zero,.L334
.L347:
	mv	s10,a0
	j	.L333
.LVL891:
.L340:
.LBE128:
.LBE130:
.LBE132:
.LBE138:
	.loc 1 2310 24
	li	s1,0
	.loc 1 2309 19
	li	s6,0
	j	.L306
.LVL892:
.L343:
	.loc 1 2387 17
	li	a0,-20480
	addi	s10,a0,640
	j	.L306
.LVL893:
.L338:
	.loc 1 2441 13 is_stmt 1
	mul	a0,s0,s2
	addi	s0,s0,1
.LVL894:
	add	a0,s1,a0
	call	mbedtls_ecp_point_free
.LVL895:
	.loc 1 2440 33
.L337:
	.loc 1 2440 21
	.loc 1 2440 9 is_stmt 0
	andi	a4,s0,0xff
	bgtu	s6,a4,.L338
	.loc 1 2442 9 is_stmt 1
	mv	a0,s1
	call	mbedtls_free
.LVL896:
	j	.L336
	.cfi_endproc
.LFE78:
	.size	ecp_mul_comb.isra.0, .-ecp_mul_comb.isra.0
	.section	.text.mbedtls_ecp_is_zero,"ax",@progbits
	.align	1
	.globl	mbedtls_ecp_is_zero
	.type	mbedtls_ecp_is_zero, @function
mbedtls_ecp_is_zero:
.LFB24:
	.loc 1 965 1
	.cfi_startproc
.LVL897:
	.loc 1 966 5
	.loc 1 966 10
	.loc 1 966 17
	.loc 1 968 5
	.loc 1 965 1 is_stmt 0
	addi	sp,sp,-16
	.cfi_def_cfa_offset 16
	.loc 1 968 13
	li	a1,0
	addi	a0,a0,24
.LVL898:
	.loc 1 965 1
	sw	ra,12(sp)
	.cfi_offset 1, -4
	.loc 1 968 13
	call	mbedtls_mpi_cmp_int
.LVL899:
	.loc 1 969 1
	lw	ra,12(sp)
	.cfi_restore 1
	seqz	a0,a0
	addi	sp,sp,16
	.cfi_def_cfa_offset 0
	jr	ra
	.cfi_endproc
.LFE24:
	.size	mbedtls_ecp_is_zero, .-mbedtls_ecp_is_zero
	.section	.text.mbedtls_ecp_point_cmp,"ax",@progbits
	.align	1
	.globl	mbedtls_ecp_point_cmp
	.type	mbedtls_ecp_point_cmp, @function
mbedtls_ecp_point_cmp:
.LFB25:
	.loc 1 976 1 is_stmt 1
	.cfi_startproc
.LVL900:
	.loc 1 977 5
	.loc 1 977 10
	.loc 1 977 17
	.loc 1 978 5
	.loc 1 978 10
	.loc 1 978 17
	.loc 1 980 5
	.loc 1 976 1 is_stmt 0
	addi	sp,sp,-16
	.cfi_def_cfa_offset 16
	sw	s0,8(sp)
	sw	s1,4(sp)
	sw	ra,12(sp)
	.cfi_offset 8, -8
	.cfi_offset 9, -12
	.cfi_offset 1, -4
	.loc 1 976 1
	mv	s0,a0
	mv	s1,a1
	.loc 1 980 9
	call	mbedtls_mpi_cmp_mpi
.LVL901:
	.loc 1 980 7
	beq	a0,zero,.L371
.L373:
	.loc 1 987 11
	li	a0,-20480
	addi	a0,a0,128
.L370:
	.loc 1 988 1
	lw	ra,12(sp)
	.cfi_remember_state
	.cfi_restore 1
	lw	s0,8(sp)
	.cfi_restore 8
.LVL902:
	lw	s1,4(sp)
	.cfi_restore 9
.LVL903:
	addi	sp,sp,16
	.cfi_def_cfa_offset 0
	jr	ra
.LVL904:
.L371:
	.cfi_restore_state
	.loc 1 981 9 discriminator 1
	addi	a1,s1,12
	addi	a0,s0,12
	call	mbedtls_mpi_cmp_mpi
.LVL905:
	.loc 1 980 50 discriminator 1
	bne	a0,zero,.L373
	.loc 1 982 9
	addi	a1,s1,24
	addi	a0,s0,24
	call	mbedtls_mpi_cmp_mpi
.LVL906:
	.loc 1 981 50
	beq	a0,zero,.L370
	j	.L373
	.cfi_endproc
.LFE25:
	.size	mbedtls_ecp_point_cmp, .-mbedtls_ecp_point_cmp
	.section	.text.mbedtls_ecp_point_read_string,"ax",@progbits
	.align	1
	.globl	mbedtls_ecp_point_read_string
	.type	mbedtls_ecp_point_read_string, @function
mbedtls_ecp_point_read_string:
.LFB26:
	.loc 1 995 1 is_stmt 1
	.cfi_startproc
.LVL907:
	.loc 1 996 5
	.loc 1 997 5
	.loc 1 997 10
	.loc 1 997 17
	.loc 1 998 5
	.loc 1 998 10
	.loc 1 998 17
	.loc 1 999 5
	.loc 1 999 10
	.loc 1 999 17
	.loc 1 1001 5
	.loc 1 1001 10
	.loc 1 995 1 is_stmt 0
	addi	sp,sp,-16
	.cfi_def_cfa_offset 16
	sw	s0,8(sp)
	sw	s1,4(sp)
	sw	s2,0(sp)
	sw	ra,12(sp)
	.cfi_offset 8, -8
	.cfi_offset 9, -12
	.cfi_offset 18, -16
	.cfi_offset 1, -4
	.loc 1 995 1
	mv	s0,a0
	mv	s1,a1
	mv	s2,a3
	.loc 1 1001 23
	call	mbedtls_mpi_read_string
.LVL908:
	.loc 1 1001 12
	bne	a0,zero,.L375
	.loc 1 1001 97 is_stmt 1 discriminator 2
	.loc 1 1002 5 discriminator 2
	.loc 1 1002 10 discriminator 2
	.loc 1 1002 23 is_stmt 0 discriminator 2
	mv	a2,s2
	mv	a1,s1
	addi	a0,s0,12
.LVL909:
	call	mbedtls_mpi_read_string
.LVL910:
	.loc 1 1002 12 discriminator 2
	bne	a0,zero,.L375
	.loc 1 1002 97 is_stmt 1 discriminator 2
	.loc 1 1003 5 discriminator 2
	.loc 1 1003 10 discriminator 2
	.loc 1 1003 23 is_stmt 0 discriminator 2
	addi	a0,s0,24
.LVL911:
	.loc 1 1007 1 discriminator 2
	lw	s0,8(sp)
	.cfi_remember_state
	.cfi_restore 8
.LVL912:
	lw	ra,12(sp)
	.cfi_restore 1
	lw	s1,4(sp)
	.cfi_restore 9
.LVL913:
	lw	s2,0(sp)
	.cfi_restore 18
.LVL914:
	.loc 1 1003 23 discriminator 2
	li	a1,1
	.loc 1 1007 1 discriminator 2
	addi	sp,sp,16
	.cfi_def_cfa_offset 0
	.loc 1 1003 23 discriminator 2
	tail	mbedtls_mpi_lset
.LVL915:
.L376:
.L375:
	.cfi_restore_state
	.loc 1 1007 1
	lw	ra,12(sp)
	.cfi_restore 1
	lw	s0,8(sp)
	.cfi_restore 8
.LVL916:
	lw	s1,4(sp)
	.cfi_restore 9
.LVL917:
	lw	s2,0(sp)
	.cfi_restore 18
.LVL918:
	addi	sp,sp,16
	.cfi_def_cfa_offset 0
	jr	ra
	.cfi_endproc
.LFE26:
	.size	mbedtls_ecp_point_read_string, .-mbedtls_ecp_point_read_string
	.section	.text.mbedtls_ecp_point_write_binary,"ax",@progbits
	.align	1
	.globl	mbedtls_ecp_point_write_binary
	.type	mbedtls_ecp_point_write_binary, @function
mbedtls_ecp_point_write_binary:
.LFB27:
	.loc 1 1016 1 is_stmt 1
	.cfi_startproc
.LVL919:
	.loc 1 1017 5
	.loc 1 1018 5
	.loc 1 1019 5
	.loc 1 1019 10
	.loc 1 1019 17
	.loc 1 1020 5
	.loc 1 1020 10
	.loc 1 1020 17
	.loc 1 1021 5
	.loc 1 1021 10
	.loc 1 1021 17
	.loc 1 1022 5
	.loc 1 1022 10
	.loc 1 1022 17
	.loc 1 1023 5
	.loc 1 1023 10
	.loc 1 1023 17
	.loc 1 1029 5
	.loc 1 1016 1 is_stmt 0
	addi	sp,sp,-48
	.cfi_def_cfa_offset 48
	sw	s1,36(sp)
	.cfi_offset 9, -12
	mv	s1,a1
	sw	s5,20(sp)
	.loc 1 1029 9
	li	a1,0
.LVL920:
	.cfi_offset 21, -28
	.loc 1 1016 1
	mv	s5,a0
	.loc 1 1029 9
	addi	a0,s1,24
.LVL921:
	.loc 1 1016 1
	sw	s0,40(sp)
	sw	s2,32(sp)
	sw	s3,28(sp)
	sw	s4,24(sp)
	sw	ra,44(sp)
	.cfi_offset 8, -8
	.cfi_offset 18, -16
	.cfi_offset 19, -20
	.cfi_offset 20, -24
	.cfi_offset 1, -4
	.loc 1 1016 1
	mv	s4,a2
	mv	s3,a3
	mv	s0,a4
	mv	s2,a5
	.loc 1 1029 9
	call	mbedtls_mpi_cmp_int
.LVL922:
	.loc 1 1029 7
	bne	a0,zero,.L379
	.loc 1 1031 9 is_stmt 1
	.loc 1 1031 11 is_stmt 0
	bne	s2,zero,.L380
.L383:
	.loc 1 1032 19
	li	a0,-20480
	addi	a0,a0,256
.L378:
	.loc 1 1066 1
	lw	ra,44(sp)
	.cfi_remember_state
	.cfi_restore 1
	lw	s0,40(sp)
	.cfi_restore 8
.LVL923:
	lw	s1,36(sp)
	.cfi_restore 9
.LVL924:
	lw	s2,32(sp)
	.cfi_restore 18
.LVL925:
	lw	s3,28(sp)
	.cfi_restore 19
.LVL926:
	lw	s4,24(sp)
	.cfi_restore 20
.LVL927:
	lw	s5,20(sp)
	.cfi_restore 21
.LVL928:
	addi	sp,sp,48
	.cfi_def_cfa_offset 0
	jr	ra
.LVL929:
.L380:
	.cfi_restore_state
	.loc 1 1034 9 is_stmt 1
	.loc 1 1034 16 is_stmt 0
	sb	zero,0(s0)
	.loc 1 1035 9 is_stmt 1
	.loc 1 1035 15 is_stmt 0
	li	a5,1
	sw	a5,0(s3)
	.loc 1 1037 9 is_stmt 1
	.loc 1 1037 15 is_stmt 0
	j	.L378
.L379:
.LVL930:
.LBB141:
.LBB142:
	.loc 1 1040 5 is_stmt 1
	.loc 1 1040 12 is_stmt 0
	addi	a0,s5,4
	call	mbedtls_mpi_size
.LVL931:
	mv	a2,a0
.LVL932:
	.loc 1 1042 5 is_stmt 1
	.loc 1 1042 7 is_stmt 0
	bne	s4,zero,.L382
	.loc 1 1044 9 is_stmt 1
	.loc 1 1044 19 is_stmt 0
	slli	a5,a0,1
	.loc 1 1044 26
	addi	a5,a5,1
	.loc 1 1044 15
	sw	a5,0(s3)
	.loc 1 1046 9 is_stmt 1
	.loc 1 1046 11 is_stmt 0
	bltu	s2,a5,.L383
	.loc 1 1049 9 is_stmt 1
	.loc 1 1049 16 is_stmt 0
	li	a5,4
	.loc 1 1050 27
	sw	a0,12(sp)
	.loc 1 1049 16
	sb	a5,0(s0)
	.loc 1 1050 9 is_stmt 1
	.loc 1 1050 14
	.loc 1 1050 27 is_stmt 0
	addi	a1,s0,1
	mv	a0,s1
.LVL933:
	call	mbedtls_mpi_write_binary
.LVL934:
	.loc 1 1050 16
	bne	a0,zero,.L378
	.loc 1 1050 107 is_stmt 1
	.loc 1 1051 9
	.loc 1 1051 14
	.loc 1 1051 68 is_stmt 0
	lw	a2,12(sp)
	.loc 1 1051 27
	addi	a0,s1,12
.LVL935:
	.loc 1 1051 68
	addi	a1,a2,1
	.loc 1 1051 27
	add	a1,s0,a1
.L386:
.LBE142:
.LBE141:
	.loc 1 1066 1
	lw	s0,40(sp)
	.cfi_remember_state
	.cfi_restore 8
.LVL936:
	lw	ra,44(sp)
	.cfi_restore 1
	lw	s1,36(sp)
	.cfi_restore 9
.LVL937:
	lw	s2,32(sp)
	.cfi_restore 18
.LVL938:
	lw	s3,28(sp)
	.cfi_restore 19
.LVL939:
	lw	s4,24(sp)
	.cfi_restore 20
.LVL940:
	lw	s5,20(sp)
	.cfi_restore 21
.LVL941:
	addi	sp,sp,48
	.cfi_def_cfa_offset 0
.LVL942:
.LBB144:
.LBB143:
	.loc 1 1061 27
	tail	mbedtls_mpi_write_binary
.LVL943:
.L382:
	.cfi_restore_state
	.loc 1 1053 10 is_stmt 1
	.loc 1 1053 12 is_stmt 0
	li	a5,1
	.loc 1 1017 9
	li	a0,0
.LVL944:
	.loc 1 1053 12
	bne	s4,a5,.L378
	.loc 1 1055 9 is_stmt 1
	.loc 1 1055 22 is_stmt 0
	addi	a5,a2,1
	sw	a2,12(sp)
	.loc 1 1055 15
	sw	a5,0(s3)
	.loc 1 1057 9 is_stmt 1
	.loc 1 1057 11 is_stmt 0
	bltu	s2,a5,.L383
	.loc 1 1060 9 is_stmt 1
	.loc 1 1060 25 is_stmt 0
	li	a1,0
	addi	a0,s1,12
	call	mbedtls_mpi_get_bit
.LVL945:
	.loc 1 1060 23
	addi	a0,a0,2
	.loc 1 1060 16
	sb	a0,0(s0)
	.loc 1 1061 9 is_stmt 1
	.loc 1 1061 14
	.loc 1 1061 27 is_stmt 0
	lw	a2,12(sp)
	addi	a1,s0,1
	mv	a0,s1
	j	.L386
.LBE143:
.LBE144:
	.cfi_endproc
.LFE27:
	.size	mbedtls_ecp_point_write_binary, .-mbedtls_ecp_point_write_binary
	.section	.text.mbedtls_ecp_point_read_binary,"ax",@progbits
	.align	1
	.globl	mbedtls_ecp_point_read_binary
	.type	mbedtls_ecp_point_read_binary, @function
mbedtls_ecp_point_read_binary:
.LFB28:
	.loc 1 1074 1 is_stmt 1
	.cfi_startproc
.LVL946:
	.loc 1 1075 5
	.loc 1 1076 5
	.loc 1 1077 5
	.loc 1 1077 10
	.loc 1 1077 17
	.loc 1 1078 5
	.loc 1 1078 10
	.loc 1 1078 17
	.loc 1 1079 5
	.loc 1 1079 10
	.loc 1 1079 17
	.loc 1 1081 5
	.loc 1 1081 7 is_stmt 0
	bne	a3,zero,.L388
	.loc 1 1082 15
	li	a0,-20480
.LVL947:
	addi	a0,a0,128
	.loc 1 1106 1
	ret
.LVL948:
.L391:
	.cfi_def_cfa_offset 32
	.cfi_offset 1, -4
	.cfi_offset 8, -8
	.cfi_offset 9, -12
	.cfi_offset 18, -16
	.loc 1 1082 15
	li	a0,-20480
	addi	a0,a0,128
.L387:
	.loc 1 1106 1
	lw	ra,28(sp)
	.cfi_restore 1
	lw	s0,24(sp)
	.cfi_restore 8
.LVL949:
	lw	s1,20(sp)
	.cfi_restore 9
.LVL950:
	lw	s2,16(sp)
	.cfi_restore 18
.LVL951:
	addi	sp,sp,32
	.cfi_def_cfa_offset 0
	jr	ra
.LVL952:
.L388:
	.loc 1 1074 1
	addi	sp,sp,-32
	.cfi_def_cfa_offset 32
	sw	s0,24(sp)
	sw	s1,20(sp)
	sw	s2,16(sp)
	sw	ra,28(sp)
	.cfi_offset 8, -8
	.cfi_offset 9, -12
	.cfi_offset 18, -16
	.cfi_offset 1, -4
	.loc 1 1084 7
	lbu	a5,0(a2)
	mv	s0,a1
	mv	s1,a2
	mv	s2,a3
	.loc 1 1084 5 is_stmt 1
	.loc 1 1084 7 is_stmt 0
	bne	a5,zero,.L390
.LVL953:
	.loc 1 1086 9 is_stmt 1
	.loc 1 1086 11 is_stmt 0
	li	a5,1
	bne	a3,a5,.L391
	.loc 1 1087 13 is_stmt 1
	.loc 1 1106 1 is_stmt 0
	lw	s0,24(sp)
	.cfi_remember_state
	.cfi_restore 8
.LVL954:
	lw	ra,28(sp)
	.cfi_restore 1
	lw	s1,20(sp)
	.cfi_restore 9
.LVL955:
	lw	s2,16(sp)
	.cfi_restore 18
	.loc 1 1087 21
	mv	a0,a1
.LVL956:
	.loc 1 1106 1
	addi	sp,sp,32
	.cfi_def_cfa_offset 0
	.loc 1 1087 21
	tail	mbedtls_ecp_set_zero
.LVL957:
.L390:
	.cfi_restore_state
.LBB147:
.LBB148:
	.loc 1 1092 5 is_stmt 1
	.loc 1 1092 12 is_stmt 0
	addi	a0,a0,4
.LVL958:
	call	mbedtls_mpi_size
.LVL959:
	.loc 1 1094 7
	lbu	a4,0(s1)
	li	a5,4
	.loc 1 1092 12
	mv	a2,a0
.LVL960:
	.loc 1 1094 5 is_stmt 1
	.loc 1 1094 7 is_stmt 0
	bne	a4,a5,.L392
	.loc 1 1097 5 is_stmt 1
	.loc 1 1097 19 is_stmt 0
	slli	a5,a0,1
	.loc 1 1097 26
	addi	a5,a5,1
	.loc 1 1097 7
	bne	s2,a5,.L391
	.loc 1 1100 5 is_stmt 1
	.loc 1 1100 10
	.loc 1 1100 23 is_stmt 0
	sw	a0,12(sp)
	addi	a1,s1,1
	mv	a0,s0
.LVL961:
	call	mbedtls_mpi_read_binary
.LVL962:
	.loc 1 1100 12
	bne	a0,zero,.L387
	.loc 1 1100 103 is_stmt 1
	.loc 1 1101 5
	.loc 1 1101 10
	.loc 1 1101 64 is_stmt 0
	lw	a2,12(sp)
	.loc 1 1101 23
	addi	a0,s0,12
.LVL963:
	.loc 1 1101 64
	addi	a1,a2,1
	.loc 1 1101 23
	add	a1,s1,a1
	call	mbedtls_mpi_read_binary
.LVL964:
	.loc 1 1101 12
	bne	a0,zero,.L387
	.loc 1 1101 110 is_stmt 1
	.loc 1 1102 5
	.loc 1 1102 10
	.loc 1 1102 23 is_stmt 0
	addi	a0,s0,24
.LVL965:
.LBE148:
.LBE147:
	.loc 1 1106 1
	lw	s0,24(sp)
	.cfi_remember_state
	.cfi_restore 8
.LVL966:
	lw	ra,28(sp)
	.cfi_restore 1
	lw	s1,20(sp)
	.cfi_restore 9
.LVL967:
	lw	s2,16(sp)
	.cfi_restore 18
.LVL968:
.LBB151:
.LBB149:
	.loc 1 1102 23
	li	a1,1
.LBE149:
.LBE151:
	.loc 1 1106 1
	addi	sp,sp,32
	.cfi_def_cfa_offset 0
.LVL969:
.LBB152:
.LBB150:
	.loc 1 1102 23
	tail	mbedtls_mpi_lset
.LVL970:
.L392:
	.cfi_restore_state
	.loc 1 1095 15
	li	a0,-20480
.LVL971:
	addi	a0,a0,384
.LVL972:
	j	.L387
.LBE150:
.LBE152:
	.cfi_endproc
.LFE28:
	.size	mbedtls_ecp_point_read_binary, .-mbedtls_ecp_point_read_binary
	.section	.text.mbedtls_ecp_tls_read_point,"ax",@progbits
	.align	1
	.globl	mbedtls_ecp_tls_read_point
	.type	mbedtls_ecp_tls_read_point, @function
mbedtls_ecp_tls_read_point:
.LFB29:
	.loc 1 1117 1 is_stmt 1
	.cfi_startproc
.LVL973:
	.loc 1 1118 5
	.loc 1 1119 5
	.loc 1 1120 5
	.loc 1 1120 10
	.loc 1 1120 17
	.loc 1 1121 5
	.loc 1 1121 10
	.loc 1 1121 17
	.loc 1 1122 5
	.loc 1 1122 10
	.loc 1 1122 17
	.loc 1 1123 5
	.loc 1 1123 10
	.loc 1 1123 17
	.loc 1 1128 5
	.loc 1 1117 1 is_stmt 0
	mv	a5,a3
	.loc 1 1128 7
	li	a3,1
.LVL974:
	.loc 1 1117 1
	mv	a4,a2
	.loc 1 1128 7
	bleu	a5,a3,.L398
	.loc 1 1131 5 is_stmt 1
	.loc 1 1131 18 is_stmt 0
	lw	a3,0(a2)
	.loc 1 1131 23
	addi	a2,a3,1
.LVL975:
	sw	a2,0(a4)
	.loc 1 1131 14
	lbu	a3,0(a3)
.LVL976:
	.loc 1 1132 5 is_stmt 1
	.loc 1 1132 7 is_stmt 0
	beq	a3,zero,.L398
	.loc 1 1132 44 discriminator 1
	addi	a5,a5,-1
.LVL977:
	.loc 1 1132 22 discriminator 1
	bgtu	a3,a5,.L398
	.loc 1 1138 5 is_stmt 1
.LVL978:
	.loc 1 1139 5
	.loc 1 1139 10 is_stmt 0
	add	a5,a2,a3
.LVL979:
	sw	a5,0(a4)
	.loc 1 1141 5 is_stmt 1
	.loc 1 1141 13 is_stmt 0
	tail	mbedtls_ecp_point_read_binary
.LVL980:
.L398:
	.loc 1 1142 1
	li	a0,-20480
.LVL981:
	addi	a0,a0,128
	ret
	.cfi_endproc
.LFE29:
	.size	mbedtls_ecp_tls_read_point, .-mbedtls_ecp_tls_read_point
	.section	.text.mbedtls_ecp_tls_write_point,"ax",@progbits
	.align	1
	.globl	mbedtls_ecp_tls_write_point
	.type	mbedtls_ecp_tls_write_point, @function
mbedtls_ecp_tls_write_point:
.LFB30:
	.loc 1 1153 1 is_stmt 1
	.cfi_startproc
.LVL982:
	.loc 1 1154 5
	.loc 1 1155 5
	.loc 1 1155 10
	.loc 1 1155 17
	.loc 1 1156 5
	.loc 1 1156 10
	.loc 1 1156 17
	.loc 1 1157 5
	.loc 1 1157 10
	.loc 1 1157 17
	.loc 1 1158 5
	.loc 1 1158 10
	.loc 1 1158 17
	.loc 1 1159 5
	.loc 1 1159 10
	.loc 1 1159 17
	.loc 1 1165 5
	.loc 1 1165 7 is_stmt 0
	beq	a5,zero,.L405
	.loc 1 1153 1
	addi	sp,sp,-16
	.cfi_def_cfa_offset 16
	sw	s1,4(sp)
	.loc 1 1168 17
	addi	a5,a5,-1
.LVL983:
	.cfi_offset 9, -12
	mv	s1,a4
	.loc 1 1168 5 is_stmt 1
	.loc 1 1168 17 is_stmt 0
	addi	a4,a4,1
.LVL984:
	.loc 1 1153 1
	sw	s0,8(sp)
	sw	ra,12(sp)
	.cfi_offset 8, -8
	.cfi_offset 1, -4
	mv	s0,a3
	.loc 1 1168 17
	call	mbedtls_ecp_point_write_binary
.LVL985:
	.loc 1 1168 7
	bne	a0,zero,.L403
	.loc 1 1175 5 is_stmt 1
	.loc 1 1175 14 is_stmt 0
	lw	a5,0(s0)
	sb	a5,0(s1)
	.loc 1 1176 5 is_stmt 1
	lw	a5,0(s0)
	addi	a5,a5,1
	sw	a5,0(s0)
	.loc 1 1178 5
.L403:
	.loc 1 1179 1 is_stmt 0
	lw	ra,12(sp)
	.cfi_restore 1
	lw	s0,8(sp)
	.cfi_restore 8
.LVL986:
	lw	s1,4(sp)
	.cfi_restore 9
.LVL987:
	addi	sp,sp,16
	.cfi_def_cfa_offset 0
	jr	ra
.LVL988:
.L405:
	.loc 1 1166 15
	li	a0,-20480
.LVL989:
	addi	a0,a0,128
	.loc 1 1179 1
	ret
	.cfi_endproc
.LFE30:
	.size	mbedtls_ecp_tls_write_point, .-mbedtls_ecp_tls_write_point
	.section	.text.mbedtls_ecp_tls_read_group_id,"ax",@progbits
	.align	1
	.globl	mbedtls_ecp_tls_read_group_id
	.type	mbedtls_ecp_tls_read_group_id, @function
mbedtls_ecp_tls_read_group_id:
.LFB32:
	.loc 1 1205 1 is_stmt 1
	.cfi_startproc
.LVL990:
	.loc 1 1206 5
	.loc 1 1207 5
	.loc 1 1208 5
	.loc 1 1208 10
	.loc 1 1208 17
	.loc 1 1209 5
	.loc 1 1209 10
	.loc 1 1209 17
	.loc 1 1210 5
	.loc 1 1210 10
	.loc 1 1210 17
	.loc 1 1215 5
	.loc 1 1215 7 is_stmt 0
	li	a5,2
	bgtu	a2,a5,.L411
.L413:
	.loc 1 1216 15
	li	a0,-20480
.LVL991:
	addi	a0,a0,128
	.loc 1 1237 1
	ret
.LVL992:
.L411:
	.loc 1 1221 5 is_stmt 1
	.loc 1 1221 11 is_stmt 0
	lw	a5,0(a1)
	.loc 1 1221 16
	addi	a4,a5,1
	sw	a4,0(a1)
	.loc 1 1221 7
	lbu	a3,0(a5)
	li	a4,3
	bne	a3,a4,.L413
	.loc 1 1205 1
	addi	sp,sp,-16
	.cfi_def_cfa_offset 16
	.loc 1 1227 21
	addi	a4,a5,2
	.loc 1 1205 1
	sw	s0,8(sp)
	sw	ra,12(sp)
	.cfi_offset 8, -8
	.cfi_offset 1, -4
	.loc 1 1227 21
	sw	a4,0(a1)
	.loc 1 1229 22
	addi	a3,a5,3
	.loc 1 1227 12
	lbu	a4,1(a5)
	.loc 1 1229 22
	sw	a3,0(a1)
	mv	s0,a0
	.loc 1 1227 5 is_stmt 1
.LVL993:
	.loc 1 1228 5
	.loc 1 1229 12 is_stmt 0
	lbu	a0,2(a5)
.LVL994:
	.loc 1 1228 12
	slli	a4,a4,8
.LVL995:
	.loc 1 1229 5 is_stmt 1
	.loc 1 1231 5
	.loc 1 1231 24 is_stmt 0
	or	a0,a4,a0
	call	mbedtls_ecp_curve_info_from_tls_id
.LVL996:
	.loc 1 1231 7
	beq	a0,zero,.L414
	.loc 1 1234 5 is_stmt 1
	.loc 1 1234 22 is_stmt 0
	lw	a5,0(a0)
	.loc 1 1236 11
	li	a0,0
.LVL997:
	.loc 1 1234 10
	sw	a5,0(s0)
	.loc 1 1236 5 is_stmt 1
.L410:
	.loc 1 1237 1 is_stmt 0
	lw	ra,12(sp)
	.cfi_remember_state
	.cfi_restore 1
	lw	s0,8(sp)
	.cfi_restore 8
.LVL998:
	addi	sp,sp,16
	.cfi_def_cfa_offset 0
	jr	ra
.LVL999:
.L414:
	.cfi_restore_state
	.loc 1 1232 15
	li	a0,-20480
.LVL1000:
	addi	a0,a0,384
	j	.L410
	.cfi_endproc
.LFE32:
	.size	mbedtls_ecp_tls_read_group_id, .-mbedtls_ecp_tls_read_group_id
	.section	.text.mbedtls_ecp_tls_read_group,"ax",@progbits
	.align	1
	.globl	mbedtls_ecp_tls_read_group
	.type	mbedtls_ecp_tls_read_group, @function
mbedtls_ecp_tls_read_group:
.LFB31:
	.loc 1 1186 1 is_stmt 1
	.cfi_startproc
.LVL1001:
	.loc 1 1187 5
	.loc 1 1188 5
	.loc 1 1189 5
	.loc 1 1189 10
	.loc 1 1189 17
	.loc 1 1190 5
	.loc 1 1190 10
	.loc 1 1190 17
	.loc 1 1191 5
	.loc 1 1191 10
	.loc 1 1191 17
	.loc 1 1193 5
	.loc 1 1186 1 is_stmt 0
	addi	sp,sp,-32
	.cfi_def_cfa_offset 32
	sw	s0,24(sp)
	.cfi_offset 8, -8
	mv	s0,a0
	.loc 1 1193 17
	addi	a0,sp,12
.LVL1002:
	.loc 1 1186 1
	sw	ra,28(sp)
	.cfi_offset 1, -4
	.loc 1 1193 17
	call	mbedtls_ecp_tls_read_group_id
.LVL1003:
	.loc 1 1193 7
	bne	a0,zero,.L419
	.loc 1 1196 5 is_stmt 1
	.loc 1 1196 13 is_stmt 0
	lw	a1,12(sp)
	mv	a0,s0
.LVL1004:
	call	mbedtls_ecp_group_load
.LVL1005:
.L419:
	.loc 1 1197 1
	lw	ra,28(sp)
	.cfi_restore 1
	lw	s0,24(sp)
	.cfi_restore 8
.LVL1006:
	addi	sp,sp,32
	.cfi_def_cfa_offset 0
	jr	ra
	.cfi_endproc
.LFE31:
	.size	mbedtls_ecp_tls_read_group, .-mbedtls_ecp_tls_read_group
	.section	.text.mbedtls_ecp_tls_write_group,"ax",@progbits
	.align	1
	.globl	mbedtls_ecp_tls_write_group
	.type	mbedtls_ecp_tls_write_group, @function
mbedtls_ecp_tls_write_group:
.LFB33:
	.loc 1 1244 1 is_stmt 1
	.cfi_startproc
.LVL1007:
	.loc 1 1245 5
	.loc 1 1246 5
	.loc 1 1246 10
	.loc 1 1246 17
	.loc 1 1247 5
	.loc 1 1247 10
	.loc 1 1247 17
	.loc 1 1248 5
	.loc 1 1248 10
	.loc 1 1248 17
	.loc 1 1250 5
	.loc 1 1244 1 is_stmt 0
	addi	sp,sp,-16
	.cfi_def_cfa_offset 16
	sw	s0,8(sp)
	sw	s1,4(sp)
	sw	s2,0(sp)
	sw	ra,12(sp)
	.cfi_offset 8, -8
	.cfi_offset 9, -12
	.cfi_offset 18, -16
	.cfi_offset 1, -4
	.loc 1 1250 24
	lw	a0,0(a0)
.LVL1008:
	.loc 1 1244 1
	mv	s2,a1
	mv	s0,a2
	mv	s1,a3
	.loc 1 1250 24
	call	mbedtls_ecp_curve_info_from_grp_id
.LVL1009:
	.loc 1 1250 7
	beq	a0,zero,.L424
	.loc 1 1256 5 is_stmt 1
	.loc 1 1256 11 is_stmt 0
	li	a5,3
	sw	a5,0(s2)
	.loc 1 1257 5 is_stmt 1
	.loc 1 1257 7 is_stmt 0
	li	a4,2
	bleu	s1,a4,.L425
	.loc 1 1263 5 is_stmt 1
.LVL1010:
	.loc 1 1263 12 is_stmt 0
	sb	a5,0(s0)
	.loc 1 1268 5 is_stmt 1
	.loc 1 1268 12 is_stmt 0
	lhu	a5,4(a0)
	srli	a5,a5,8
	sb	a5,1(s0)
	.loc 1 1269 5 is_stmt 1
	.loc 1 1269 12 is_stmt 0
	lhu	a5,4(a0)
	.loc 1 1271 11
	li	a0,0
.LVL1011:
	.loc 1 1269 12
	sb	a5,2(s0)
	.loc 1 1271 5 is_stmt 1
.LVL1012:
.L422:
	.loc 1 1272 1 is_stmt 0
	lw	ra,12(sp)
	.cfi_remember_state
	.cfi_restore 1
	lw	s0,8(sp)
	.cfi_restore 8
	lw	s1,4(sp)
	.cfi_restore 9
.LVL1013:
	lw	s2,0(sp)
	.cfi_restore 18
.LVL1014:
	addi	sp,sp,16
	.cfi_def_cfa_offset 0
	jr	ra
.LVL1015:
.L424:
	.cfi_restore_state
	.loc 1 1251 15
	li	a0,-20480
.LVL1016:
	addi	a0,a0,128
	j	.L422
.LVL1017:
.L425:
	.loc 1 1258 15
	li	a0,-20480
.LVL1018:
	addi	a0,a0,256
	j	.L422
	.cfi_endproc
.LFE33:
	.size	mbedtls_ecp_tls_write_group, .-mbedtls_ecp_tls_write_group
	.section	.text.mbedtls_ecp_check_pubkey,"ax",@progbits
	.align	1
	.globl	mbedtls_ecp_check_pubkey
	.type	mbedtls_ecp_check_pubkey, @function
mbedtls_ecp_check_pubkey:
.LFB60:
	.loc 1 2993 1 is_stmt 1
	.cfi_startproc
.LVL1019:
	.loc 1 2994 5
	.loc 1 2994 10
	.loc 1 2994 17
	.loc 1 2995 5
	.loc 1 2995 10
	.loc 1 2995 17
	.loc 1 2998 5
	.loc 1 2993 1 is_stmt 0
	addi	sp,sp,-64
	.cfi_def_cfa_offset 64
	sw	s3,44(sp)
	.cfi_offset 19, -20
	mv	s3,a1
	sw	s2,48(sp)
	.loc 1 2998 9
	li	a1,1
.LVL1020:
	.cfi_offset 18, -16
	.loc 1 2993 1
	mv	s2,a0
	.loc 1 2998 9
	addi	a0,s3,24
.LVL1021:
	.loc 1 2993 1
	sw	ra,60(sp)
	sw	s0,56(sp)
	sw	s1,52(sp)
	.cfi_offset 1, -4
	.cfi_offset 8, -8
	.cfi_offset 9, -12
	.loc 1 2998 9
	call	mbedtls_mpi_cmp_int
.LVL1022:
	.loc 1 2998 7
	bne	a0,zero,.L433
	mv	s0,a0
	.loc 1 3002 5 is_stmt 1
	.loc 1 3002 9 is_stmt 0
	mv	a0,s2
	call	ecp_get_type
.LVL1023:
	.loc 1 3002 7
	li	a5,2
	bne	a0,a5,.L429
	.loc 1 3003 9 is_stmt 1
.LVL1024:
.LBB157:
.LBB158:
	.loc 1 2981 5
	.loc 1 2981 9 is_stmt 0
	mv	a0,s3
	call	mbedtls_mpi_size
.LVL1025:
	.loc 1 2981 51
	lw	a5,92(s2)
	addi	a5,a5,7
	.loc 1 2981 57
	srli	a5,a5,3
	.loc 1 2981 7
	bleu	a0,a5,.L427
.LVL1026:
.L433:
.LBE158:
.LBE157:
.LBB159:
.LBB160:
	.loc 1 2791 15
	li	a0,-20480
	addi	s0,a0,896
.L427:
.LBE160:
.LBE159:
	.loc 1 3010 1
	lw	ra,60(sp)
	.cfi_remember_state
	.cfi_restore 1
	mv	a0,s0
	lw	s0,56(sp)
	.cfi_restore 8
	lw	s1,52(sp)
	.cfi_restore 9
	lw	s2,48(sp)
	.cfi_restore 18
.LVL1027:
	lw	s3,44(sp)
	.cfi_restore 19
.LVL1028:
	addi	sp,sp,64
	.cfi_def_cfa_offset 0
	jr	ra
.LVL1029:
.L429:
	.cfi_restore_state
	.loc 1 3006 5 is_stmt 1
	.loc 1 3006 7 is_stmt 0
	li	a5,1
	bne	a0,a5,.L445
	.loc 1 3007 9 is_stmt 1
.LVL1030:
.LBB163:
.LBB161:
	.loc 1 2783 5
	.loc 1 2784 5
	.loc 1 2787 5
	.loc 1 2787 9 is_stmt 0
	li	a1,0
	mv	a0,s3
	call	mbedtls_mpi_cmp_int
.LVL1031:
	.loc 1 2787 7
	blt	a0,zero,.L433
	.loc 1 2788 9
	addi	s0,s3,12
	li	a1,0
	mv	a0,s0
	call	mbedtls_mpi_cmp_int
.LVL1032:
	.loc 1 2787 46
	blt	a0,zero,.L433
	.loc 1 2789 9
	addi	s1,s2,4
	mv	a1,s1
	mv	a0,s3
	call	mbedtls_mpi_cmp_mpi
.LVL1033:
	.loc 1 2788 46
	bge	a0,zero,.L433
	.loc 1 2790 9
	mv	a1,s1
	mv	a0,s0
	call	mbedtls_mpi_cmp_mpi
.LVL1034:
	.loc 1 2789 53
	bge	a0,zero,.L433
	.loc 1 2793 5 is_stmt 1
	addi	a0,sp,8
	call	mbedtls_mpi_init
.LVL1035:
	.loc 1 2793 30
	addi	a0,sp,20
	call	mbedtls_mpi_init
.LVL1036:
	.loc 1 2799 5
	.loc 1 2799 10
	.loc 1 2799 23 is_stmt 0
	mv	a2,s0
	mv	a1,s0
	addi	a0,sp,8
	call	mbedtls_mpi_mul_mpi
.LVL1037:
	mv	s0,a0
.LVL1038:
	.loc 1 2799 12
	bne	a0,zero,.L434
	.loc 1 2799 97 is_stmt 1
	.loc 1 2799 104
	.loc 1 2799 109
	.loc 1 2799 114
	.loc 1 2799 127 is_stmt 0
	mv	a1,s2
	addi	a0,sp,8
	call	ecp_modp
.LVL1039:
	mv	s0,a0
.LVL1040:
	.loc 1 2799 116
	bne	a0,zero,.L434
	.loc 1 2799 181 is_stmt 1
	.loc 1 2799 195
	.loc 1 2800 5
	.loc 1 2800 10
	.loc 1 2800 23 is_stmt 0
	mv	a2,s3
	mv	a1,s3
	addi	a0,sp,20
	call	mbedtls_mpi_mul_mpi
.LVL1041:
	mv	s0,a0
.LVL1042:
	.loc 1 2800 12
	bne	a0,zero,.L434
	.loc 1 2800 98 is_stmt 1
	.loc 1 2800 105
	.loc 1 2800 110
	.loc 1 2800 115
	.loc 1 2800 128 is_stmt 0
	mv	a1,s2
	addi	a0,sp,20
	call	ecp_modp
.LVL1043:
	mv	s0,a0
.LVL1044:
	.loc 1 2800 117
	bne	a0,zero,.L434
	.loc 1 2800 183 is_stmt 1
	.loc 1 2800 197
	.loc 1 2803 5
	.loc 1 2803 7 is_stmt 0
	lw	a5,24(s2)
	bne	a5,zero,.L435
	.loc 1 2805 9 is_stmt 1
	.loc 1 2805 14
	.loc 1 2805 27 is_stmt 0
	addi	a1,sp,20
	li	a2,3
	mv	a0,a1
	call	mbedtls_mpi_sub_int
.LVL1045:
.L451:
	.loc 1 2805 182
	mv	s0,a0
.LVL1046:
	.loc 1 2805 171
	bne	a0,zero,.L434
	.loc 1 2805 260 is_stmt 1
	.loc 1 2805 107
	lw	a5,20(sp)
	blt	a5,zero,.L437
.L440:
	.loc 1 2812 5
	.loc 1 2812 10
	.loc 1 2812 23 is_stmt 0
	addi	a1,sp,20
	mv	a2,s3
	mv	a0,a1
	call	mbedtls_mpi_mul_mpi
.LVL1047:
	mv	s0,a0
.LVL1048:
	.loc 1 2812 12
	bne	a0,zero,.L434
	.loc 1 2812 96 is_stmt 1
	.loc 1 2812 103
	.loc 1 2812 108
	.loc 1 2812 113
	.loc 1 2812 126 is_stmt 0
	mv	a1,s2
	addi	a0,sp,20
	call	ecp_modp
.LVL1049:
	mv	s0,a0
.LVL1050:
	.loc 1 2812 115
	bne	a0,zero,.L434
	.loc 1 2812 181 is_stmt 1
	.loc 1 2812 195
	.loc 1 2813 5
	.loc 1 2813 10
	.loc 1 2813 23 is_stmt 0
	addi	a1,sp,20
	addi	a2,s2,28
	mv	a0,a1
	call	mbedtls_mpi_add_mpi
.LVL1051:
.L453:
	.loc 1 2813 175
	mv	s0,a0
.LVL1052:
	.loc 1 2813 164
	bne	a0,zero,.L434
.LVL1053:
	.loc 1 2813 253 is_stmt 1
	.loc 1 2813 109
	.loc 1 2813 111 is_stmt 0
	mv	a1,s1
	addi	a0,sp,20
	call	mbedtls_mpi_cmp_mpi
.LVL1054:
	.loc 1 2813 109
	bge	a0,zero,.L444
	.loc 1 2815 5 is_stmt 1
	.loc 1 2815 9 is_stmt 0
	addi	a1,sp,20
	addi	a0,sp,8
	call	mbedtls_mpi_cmp_mpi
.LVL1055:
	mv	s0,a0
	.loc 1 2815 7
	beq	a0,zero,.L434
	.loc 1 2816 13
	li	a0,-20480
	addi	s0,a0,896
.LVL1056:
.L434:
	.loc 1 2820 5 is_stmt 1
	addi	a0,sp,8
	call	mbedtls_mpi_free
.LVL1057:
	.loc 1 2820 30
	addi	a0,sp,20
	call	mbedtls_mpi_free
.LVL1058:
	.loc 1 2822 5
.LBE161:
.LBE163:
	.loc 1 3007 17 is_stmt 0
	j	.L427
.LVL1059:
.L437:
.LBB164:
.LBB162:
	.loc 1 2805 124
	li	a1,0
	addi	a0,sp,20
	call	mbedtls_mpi_cmp_int
.LVL1060:
	.loc 1 2805 121
	beq	a0,zero,.L440
	.loc 1 2805 164 is_stmt 1
	.loc 1 2805 169
	.loc 1 2805 182 is_stmt 0
	addi	a1,sp,20
	mv	a2,s1
	mv	a0,a1
	call	mbedtls_mpi_add_mpi
.LVL1061:
	j	.L451
.L435:
	.loc 1 2809 9 is_stmt 1
	.loc 1 2809 14
	.loc 1 2809 27 is_stmt 0
	addi	a1,sp,20
	addi	a2,s2,16
	mv	a0,a1
	call	mbedtls_mpi_add_mpi
.LVL1062:
.L452:
	.loc 1 2809 179
	mv	s0,a0
.LVL1063:
	.loc 1 2809 168
	bne	a0,zero,.L434
	.loc 1 2809 257 is_stmt 1
	.loc 1 2809 113
	.loc 1 2809 115 is_stmt 0
	mv	a1,s1
	addi	a0,sp,20
	call	mbedtls_mpi_cmp_mpi
.LVL1064:
	.loc 1 2809 113
	blt	a0,zero,.L440
	.loc 1 2809 161 is_stmt 1
	.loc 1 2809 166
	.loc 1 2809 179 is_stmt 0
	addi	a1,sp,20
	mv	a2,s1
	mv	a0,a1
	call	mbedtls_mpi_sub_abs
.LVL1065:
	j	.L452
.LVL1066:
.L444:
	.loc 1 2813 157 is_stmt 1
	.loc 1 2813 162
	.loc 1 2813 175 is_stmt 0
	addi	a1,sp,20
	mv	a2,s1
	mv	a0,a1
	call	mbedtls_mpi_sub_abs
.LVL1067:
	j	.L453
.LVL1068:
.L445:
.LBE162:
.LBE164:
	.loc 1 3009 11
	li	a0,-20480
	addi	s0,a0,128
	j	.L427
	.cfi_endproc
.LFE60:
	.size	mbedtls_ecp_check_pubkey, .-mbedtls_ecp_check_pubkey
	.section	.text.mbedtls_ecp_check_privkey,"ax",@progbits
	.align	1
	.globl	mbedtls_ecp_check_privkey
	.type	mbedtls_ecp_check_privkey, @function
mbedtls_ecp_check_privkey:
.LFB61:
	.loc 1 3017 1 is_stmt 1
	.cfi_startproc
.LVL1069:
	.loc 1 3018 5
	.loc 1 3018 10
	.loc 1 3018 17
	.loc 1 3019 5
	.loc 1 3019 10
	.loc 1 3019 17
	.loc 1 3022 5
	.loc 1 3017 1 is_stmt 0
	addi	sp,sp,-16
	.cfi_def_cfa_offset 16
	sw	s0,8(sp)
	sw	s1,4(sp)
	sw	ra,12(sp)
	.cfi_offset 8, -8
	.cfi_offset 9, -12
	.cfi_offset 1, -4
	.loc 1 3017 1
	mv	s1,a0
	mv	s0,a1
	.loc 1 3022 9
	call	ecp_get_type
.LVL1070:
	.loc 1 3022 7
	li	a5,2
	bne	a0,a5,.L455
.LVL1071:
.LBB167:
.LBB168:
	.loc 1 3025 9 is_stmt 1
	.loc 1 3025 13 is_stmt 0
	li	a1,0
	mv	a0,s0
	call	mbedtls_mpi_get_bit
.LVL1072:
	.loc 1 3025 11
	bne	a0,zero,.L456
	.loc 1 3026 13
	li	a1,1
	mv	a0,s0
	call	mbedtls_mpi_get_bit
.LVL1073:
	.loc 1 3025 46
	bne	a0,zero,.L456
	.loc 1 3027 13
	mv	a0,s0
	call	mbedtls_mpi_bitlen
.LVL1074:
	.loc 1 3027 47
	lw	a5,92(s1)
	.loc 1 3027 37
	addi	a0,a0,-1
	.loc 1 3026 46
	bne	a0,a5,.L456
	.loc 1 3031 9 is_stmt 1
	.loc 1 3031 11 is_stmt 0
	li	a5,254
	bne	a0,a5,.L457
	.loc 1 3031 34
	li	a1,2
	mv	a0,s0
	call	mbedtls_mpi_get_bit
.LVL1075:
	.loc 1 3031 31
	bne	a0,zero,.L456
.LVL1076:
.L457:
	.loc 1 3034 15
	li	a0,0
.L454:
.LBE168:
.LBE167:
	.loc 1 3050 1
	lw	ra,12(sp)
	.cfi_remember_state
	.cfi_restore 1
	lw	s0,8(sp)
	.cfi_restore 8
.LVL1077:
	lw	s1,4(sp)
	.cfi_restore 9
.LVL1078:
	addi	sp,sp,16
	.cfi_def_cfa_offset 0
	jr	ra
.LVL1079:
.L455:
	.cfi_restore_state
	.loc 1 3038 5 is_stmt 1
	.loc 1 3038 7 is_stmt 0
	li	a5,1
	bne	a0,a5,.L459
	.loc 1 3041 9 is_stmt 1
	.loc 1 3041 13 is_stmt 0
	li	a1,1
	mv	a0,s0
	call	mbedtls_mpi_cmp_int
.LVL1080:
	.loc 1 3041 11
	blt	a0,zero,.L456
	.loc 1 3042 13 discriminator 1
	addi	a1,s1,76
	mv	a0,s0
	call	mbedtls_mpi_cmp_mpi
.LVL1081:
	.loc 1 3041 45 discriminator 1
	blt	a0,zero,.L457
.L456:
	.loc 1 3043 19
	li	a0,-20480
	addi	a0,a0,896
	j	.L454
.L459:
	.loc 1 3049 11
	li	a0,-20480
	addi	a0,a0,128
	j	.L454
	.cfi_endproc
.LFE61:
	.size	mbedtls_ecp_check_privkey, .-mbedtls_ecp_check_privkey
	.section	.text.mbedtls_ecp_mul_restartable,"ax",@progbits
	.align	1
	.globl	mbedtls_ecp_mul_restartable
	.type	mbedtls_ecp_mul_restartable, @function
mbedtls_ecp_mul_restartable:
.LFB53:
	.loc 1 2703 1 is_stmt 1
	.cfi_startproc
.LVL1082:
	.loc 1 2704 5
	.loc 1 2708 5
	.loc 1 2708 10
	.loc 1 2708 17
	.loc 1 2709 5
	.loc 1 2709 10
	.loc 1 2709 17
	.loc 1 2710 5
	.loc 1 2710 10
	.loc 1 2710 17
	.loc 1 2711 5
	.loc 1 2711 10
	.loc 1 2711 17
	.loc 1 2730 9
	.loc 1 2733 9
	.loc 1 2733 14
	.loc 1 2703 1 is_stmt 0
	addi	sp,sp,-32
	.cfi_def_cfa_offset 32
	sw	s4,8(sp)
	.cfi_offset 20, -24
	mv	s4,a1
	.loc 1 2733 27
	mv	a1,a2
.LVL1083:
	.loc 1 2703 1
	sw	s0,24(sp)
	sw	s1,20(sp)
	sw	s2,16(sp)
	sw	s3,12(sp)
	sw	s5,4(sp)
	sw	s6,0(sp)
	sw	ra,28(sp)
	.cfi_offset 8, -8
	.cfi_offset 9, -12
	.cfi_offset 18, -16
	.cfi_offset 19, -20
	.cfi_offset 21, -28
	.cfi_offset 22, -32
	.cfi_offset 1, -4
	.loc 1 2703 1
	mv	s1,a0
	mv	s2,a2
	mv	s3,a3
	mv	s5,a4
	mv	s6,a5
	.loc 1 2733 27
	call	mbedtls_ecp_check_privkey
.LVL1084:
	mv	s0,a0
.LVL1085:
	.loc 1 2733 16
	bne	a0,zero,.L461
	.loc 1 2733 94 is_stmt 1 discriminator 2
	.loc 1 2734 9 discriminator 2
	.loc 1 2734 14 discriminator 2
	.loc 1 2734 27 is_stmt 0 discriminator 2
	mv	a1,s3
	mv	a0,s1
	call	mbedtls_ecp_check_pubkey
.LVL1086:
	mv	s0,a0
.LVL1087:
	.loc 1 2734 16 discriminator 2
	bne	a0,zero,.L461
.LVL1088:
.LBB171:
.LBB172:
	.loc 1 2734 93 is_stmt 1
	.loc 1 2737 5
	.loc 1 2739 5
	.loc 1 2739 9 is_stmt 0
	mv	a0,s1
	call	ecp_get_type
.LVL1089:
	.loc 1 2739 7
	li	a5,2
	bne	a0,a5,.L464
	.loc 1 2740 9 is_stmt 1
	.loc 1 2740 14
	.loc 1 2740 27 is_stmt 0
	mv	a5,s6
	mv	a4,s5
	mv	a3,s3
	mv	a2,s2
	mv	a1,s4
	mv	a0,s1
	call	ecp_mul_mxz
.LVL1090:
	mv	s0,a0
.LVL1091:
	.loc 1 2740 16
	beq	a0,zero,.L463
.L462:
.LVL1092:
.L461:
.LBE172:
.LBE171:
	.loc 1 2760 1
	lw	ra,28(sp)
	.cfi_remember_state
	.cfi_restore 1
	mv	a0,s0
	lw	s0,24(sp)
	.cfi_restore 8
	lw	s1,20(sp)
	.cfi_restore 9
.LVL1093:
	lw	s2,16(sp)
	.cfi_restore 18
.LVL1094:
	lw	s3,12(sp)
	.cfi_restore 19
.LVL1095:
	lw	s4,8(sp)
	.cfi_restore 20
.LVL1096:
	lw	s5,4(sp)
	.cfi_restore 21
.LVL1097:
	lw	s6,0(sp)
	.cfi_restore 22
.LVL1098:
	addi	sp,sp,32
	.cfi_def_cfa_offset 0
	jr	ra
.LVL1099:
.L464:
	.cfi_restore_state
.LBB178:
.LBB173:
	.loc 1 2737 9
	li	s0,-20480
.LVL1100:
	addi	s0,s0,128
.LVL1101:
.L463:
	.loc 1 2740 100 is_stmt 1
	.loc 1 2743 5
	.loc 1 2743 9 is_stmt 0
	mv	a0,s1
	call	ecp_get_type
.LVL1102:
	.loc 1 2743 7
	li	a5,1
	bne	a0,a5,.L461
	.loc 1 2744 9 is_stmt 1
	.loc 1 2744 14
.LBE173:
.LBE178:
	.loc 1 2760 1 is_stmt 0
	lw	s0,24(sp)
	.cfi_restore 8
.LVL1103:
	lw	ra,28(sp)
	.cfi_restore 1
.LBB179:
.LBB174:
	.loc 1 2744 27
	mv	a5,s6
	mv	a4,s5
.LBE174:
.LBE179:
	.loc 1 2760 1
	lw	s6,0(sp)
	.cfi_restore 22
.LVL1104:
	lw	s5,4(sp)
	.cfi_restore 21
.LVL1105:
.LBB180:
.LBB175:
	.loc 1 2744 27
	mv	a3,s3
	mv	a2,s2
.LBE175:
.LBE180:
	.loc 1 2760 1
	lw	s3,12(sp)
	.cfi_restore 19
.LVL1106:
	lw	s2,16(sp)
	.cfi_restore 18
.LVL1107:
.LBB181:
.LBB176:
	.loc 1 2744 27
	mv	a1,s4
	mv	a0,s1
.LBE176:
.LBE181:
	.loc 1 2760 1
	lw	s4,8(sp)
	.cfi_restore 20
.LVL1108:
	lw	s1,20(sp)
	.cfi_restore 9
.LVL1109:
	addi	sp,sp,32
	.cfi_def_cfa_offset 0
.LBB182:
.LBB177:
	.loc 1 2744 27
	tail	ecp_mul_comb.isra.0
.LVL1110:
.LBE177:
.LBE182:
	.cfi_endproc
.LFE53:
	.size	mbedtls_ecp_mul_restartable, .-mbedtls_ecp_mul_restartable
	.section	.text.mbedtls_ecp_mul,"ax",@progbits
	.align	1
	.globl	mbedtls_ecp_mul
	.type	mbedtls_ecp_mul, @function
mbedtls_ecp_mul:
.LFB54:
	.loc 1 2768 1 is_stmt 1
	.cfi_startproc
.LVL1111:
	.loc 1 2769 5
	.loc 1 2769 10
	.loc 1 2769 17
	.loc 1 2770 5
	.loc 1 2770 10
	.loc 1 2770 17
	.loc 1 2771 5
	.loc 1 2771 10
	.loc 1 2771 17
	.loc 1 2772 5
	.loc 1 2772 10
	.loc 1 2772 17
	.loc 1 2773 5
	.loc 1 2773 13 is_stmt 0
	li	a6,0
	tail	mbedtls_ecp_mul_restartable
.LVL1112:
	.cfi_endproc
.LFE54:
	.size	mbedtls_ecp_mul, .-mbedtls_ecp_mul
	.section	.text.mbedtls_ecp_mul_shortcuts,"ax",@progbits
	.align	1
	.type	mbedtls_ecp_mul_shortcuts, @function
mbedtls_ecp_mul_shortcuts:
.LFB56:
	.loc 1 2835 1 is_stmt 1
	.cfi_startproc
.LVL1113:
	.loc 1 2836 5
	.loc 1 2838 5
	.loc 1 2835 1 is_stmt 0
	addi	sp,sp,-32
	.cfi_def_cfa_offset 32
	sw	s0,24(sp)
	sw	s3,12(sp)
	.cfi_offset 8, -8
	.cfi_offset 19, -20
	mv	s0,a1
	mv	s3,a0
	.loc 1 2838 9
	li	a1,1
.LVL1114:
	mv	a0,a2
.LVL1115:
	.loc 1 2835 1
	sw	s1,20(sp)
	sw	s2,16(sp)
	sw	s4,8(sp)
	sw	ra,28(sp)
	.cfi_offset 9, -12
	.cfi_offset 18, -16
	.cfi_offset 20, -24
	.cfi_offset 1, -4
	.loc 1 2835 1
	mv	s1,a2
	mv	s2,a3
	mv	s4,a4
	.loc 1 2838 9
	call	mbedtls_mpi_cmp_int
.LVL1116:
	.loc 1 2838 7
	bne	a0,zero,.L468
	.loc 1 2840 9 is_stmt 1
	.loc 1 2840 14
	.loc 1 2840 27 is_stmt 0
	mv	a0,s0
	.loc 1 2856 1
	lw	s0,24(sp)
	.cfi_remember_state
	.cfi_restore 8
.LVL1117:
	lw	ra,28(sp)
	.cfi_restore 1
	lw	s1,20(sp)
	.cfi_restore 9
.LVL1118:
	lw	s3,12(sp)
	.cfi_restore 19
.LVL1119:
	lw	s4,8(sp)
	.cfi_restore 20
.LVL1120:
	.loc 1 2840 27
	mv	a1,s2
	.loc 1 2856 1
	lw	s2,16(sp)
	.cfi_restore 18
.LVL1121:
	addi	sp,sp,32
	.cfi_def_cfa_offset 0
	.loc 1 2840 27
	tail	mbedtls_ecp_copy
.LVL1122:
.L468:
	.cfi_restore_state
.LBB185:
.LBB186:
	.loc 1 2842 10 is_stmt 1
	.loc 1 2842 14 is_stmt 0
	li	a1,-1
	mv	a0,s1
	call	mbedtls_mpi_cmp_int
.LVL1123:
	.loc 1 2842 12
	bne	a0,zero,.L469
	.loc 1 2844 9 is_stmt 1
	.loc 1 2844 14
	.loc 1 2844 27 is_stmt 0
	mv	a1,s2
	mv	a0,s0
	call	mbedtls_ecp_copy
.LVL1124:
	.loc 1 2844 16
	bne	a0,zero,.L467
	.loc 1 2844 83 is_stmt 1
	.loc 1 2845 9
	.loc 1 2845 34 is_stmt 0
	addi	s0,s0,12
.LVL1125:
	.loc 1 2845 13
	li	a1,0
	mv	a0,s0
.LVL1126:
	call	mbedtls_mpi_cmp_int
.LVL1127:
	.loc 1 2845 11
	beq	a0,zero,.L467
	.loc 1 2846 13 is_stmt 1
	.loc 1 2846 18
	.loc 1 2846 31 is_stmt 0
	mv	a2,s0
	mv	a0,s0
.LBE186:
.LBE185:
	.loc 1 2856 1
	lw	s0,24(sp)
	.cfi_remember_state
	.cfi_restore 8
.LVL1128:
	lw	ra,28(sp)
	.cfi_restore 1
	lw	s1,20(sp)
	.cfi_restore 9
.LVL1129:
	lw	s2,16(sp)
	.cfi_restore 18
.LVL1130:
	lw	s4,8(sp)
	.cfi_restore 20
.LVL1131:
.LBB194:
.LBB187:
	.loc 1 2846 31
	addi	a1,s3,4
.LBE187:
.LBE194:
	.loc 1 2856 1
	lw	s3,12(sp)
	.cfi_restore 19
.LVL1132:
	addi	sp,sp,32
	.cfi_def_cfa_offset 0
.LBB195:
.LBB188:
	.loc 1 2846 31
	tail	mbedtls_mpi_sub_mpi
.LVL1133:
.L469:
	.cfi_restore_state
	.loc 1 2850 9 is_stmt 1
	.loc 1 2850 14
	.loc 1 2850 27 is_stmt 0
	mv	a1,s0
.LBE188:
.LBE195:
	.loc 1 2856 1
	lw	s0,24(sp)
	.cfi_remember_state
	.cfi_restore 8
.LVL1134:
	lw	ra,28(sp)
	.cfi_restore 1
.LBB196:
.LBB189:
	.loc 1 2850 27
	mv	a6,s4
	mv	a3,s2
.LBE189:
.LBE196:
	.loc 1 2856 1
	lw	s4,8(sp)
	.cfi_restore 20
.LVL1135:
	lw	s2,16(sp)
	.cfi_restore 18
.LVL1136:
.LBB197:
.LBB190:
	.loc 1 2850 27
	mv	a2,s1
	mv	a0,s3
.LBE190:
.LBE197:
	.loc 1 2856 1
	lw	s1,20(sp)
	.cfi_restore 9
.LVL1137:
	lw	s3,12(sp)
	.cfi_restore 19
.LVL1138:
.LBB198:
.LBB191:
	.loc 1 2850 27
	li	a5,0
.LBE191:
.LBE198:
	.loc 1 2856 1
.LBB199:
.LBB192:
	.loc 1 2850 27
	li	a4,0
.LBE192:
.LBE199:
	.loc 1 2856 1
	addi	sp,sp,32
	.cfi_def_cfa_offset 0
.LBB200:
.LBB193:
	.loc 1 2850 27
	tail	mbedtls_ecp_mul_restartable
.LVL1139:
.L470:
.L467:
	.cfi_restore_state
.LBE193:
.LBE200:
	.loc 1 2856 1
	lw	ra,28(sp)
	.cfi_restore 1
	lw	s0,24(sp)
	.cfi_restore 8
	lw	s1,20(sp)
	.cfi_restore 9
.LVL1140:
	lw	s2,16(sp)
	.cfi_restore 18
.LVL1141:
	lw	s3,12(sp)
	.cfi_restore 19
.LVL1142:
	lw	s4,8(sp)
	.cfi_restore 20
.LVL1143:
	addi	sp,sp,32
	.cfi_def_cfa_offset 0
	jr	ra
	.cfi_endproc
.LFE56:
	.size	mbedtls_ecp_mul_shortcuts, .-mbedtls_ecp_mul_shortcuts
	.section	.text.mbedtls_ecp_muladd_restartable,"ax",@progbits
	.align	1
	.globl	mbedtls_ecp_muladd_restartable
	.type	mbedtls_ecp_muladd_restartable, @function
mbedtls_ecp_muladd_restartable:
.LFB57:
	.loc 1 2867 1 is_stmt 1
	.cfi_startproc
.LVL1144:
	.loc 1 2868 5
	.loc 1 2869 5
	.loc 1 2870 5
	.loc 1 2867 1 is_stmt 0
	addi	sp,sp,-80
	.cfi_def_cfa_offset 80
.LVL1145:
	.loc 1 2871 5 is_stmt 1
	.loc 1 2867 1 is_stmt 0
	sw	s0,72(sp)
	sw	s1,68(sp)
	sw	s2,64(sp)
	sw	s3,60(sp)
	sw	s4,56(sp)
	sw	s5,52(sp)
	sw	s6,48(sp)
	.cfi_offset 8, -8
	.cfi_offset 9, -12
	.cfi_offset 18, -16
	.cfi_offset 19, -20
	.cfi_offset 20, -24
	.cfi_offset 21, -28
	.cfi_offset 22, -32
	mv	s5,a5
	sw	ra,76(sp)
	.cfi_offset 1, -4
	.loc 1 2867 1
	mv	s1,a0
	mv	s2,a1
.LVL1146:
	.loc 1 2875 5 is_stmt 1
	.loc 1 2875 10
	.loc 1 2875 17
	.loc 1 2876 5
	.loc 1 2876 10
	.loc 1 2876 17
	.loc 1 2877 5
	.loc 1 2877 10
	.loc 1 2877 17
	.loc 1 2878 5
	.loc 1 2878 10
	.loc 1 2878 17
	.loc 1 2879 5
	.loc 1 2879 10
	.loc 1 2879 17
	.loc 1 2880 5
	.loc 1 2880 10
	.loc 1 2880 17
	.loc 1 2882 5
	.loc 1 2867 1 is_stmt 0
	mv	s0,a2
	mv	s6,a3
	mv	s4,a4
	mv	s3,a6
	.loc 1 2882 9
	call	ecp_get_type
.LVL1147:
	.loc 1 2882 7
	li	a5,1
	bne	a0,a5,.L478
	.loc 1 2885 5 is_stmt 1
	addi	a0,sp,12
.LVL1148:
	call	mbedtls_ecp_point_init
.LVL1149:
	.loc 1 2887 5
	.loc 1 2887 19
	.loc 1 2906 5
	.loc 1 2906 10
	.loc 1 2906 23 is_stmt 0
	mv	a2,s0
	mv	a4,s3
	mv	a3,s6
	addi	a1,sp,12
.LVL1150:
	mv	a0,s1
	call	mbedtls_ecp_mul_shortcuts
.LVL1151:
	mv	s0,a0
.LVL1152:
	.loc 1 2906 12
	bne	a0,zero,.L477
	.loc 1 2906 106 is_stmt 1 discriminator 2
	.loc 1 2913 5 discriminator 2
	.loc 1 2913 10 discriminator 2
	.loc 1 2913 23 is_stmt 0 discriminator 2
	mv	a4,s3
	mv	a3,s5
	mv	a2,s4
	mv	a1,s2
	mv	a0,s1
	call	mbedtls_ecp_mul_shortcuts
.LVL1153:
	mv	s0,a0
.LVL1154:
	.loc 1 2913 12 discriminator 2
	bne	a0,zero,.L477
	.loc 1 2913 105 is_stmt 1 discriminator 2
	.loc 1 2926 5 discriminator 2
	.loc 1 2927 5 discriminator 2
	.loc 1 2927 10 discriminator 2
	.loc 1 2927 23 is_stmt 0 discriminator 2
	mv	a3,s2
	addi	a2,sp,12
.LVL1155:
	mv	a1,s2
	mv	a0,s1
	call	ecp_add_mixed
.LVL1156:
	mv	s0,a0
.LVL1157:
	.loc 1 2927 12 discriminator 2
	bne	a0,zero,.L477
	.loc 1 2927 88 is_stmt 1 discriminator 2
	.loc 1 2934 5 discriminator 2
	.loc 1 2935 5 discriminator 2
	.loc 1 2935 10 discriminator 2
	.loc 1 2935 23 is_stmt 0 discriminator 2
	mv	a1,s2
	mv	a0,s1
	call	ecp_normalize_jac
.LVL1158:
	mv	s0,a0
.LVL1159:
.L477:
	.loc 1 2935 83 is_stmt 1 discriminator 3
	.loc 1 2948 5 discriminator 3
.LBB201:
.LBB202:
	.loc 1 867 5 discriminator 3
	addi	a0,sp,12
.LVL1160:
	call	mbedtls_ecp_point_free.part.0
.LVL1161:
.LBE202:
.LBE201:
	.loc 1 2950 5 discriminator 3
	.loc 1 2950 19 discriminator 3
	.loc 1 2952 5 discriminator 3
.L475:
	.loc 1 2953 1 is_stmt 0
	lw	ra,76(sp)
	.cfi_remember_state
	.cfi_restore 1
	mv	a0,s0
	lw	s0,72(sp)
	.cfi_restore 8
	lw	s1,68(sp)
	.cfi_restore 9
.LVL1162:
	lw	s2,64(sp)
	.cfi_restore 18
.LVL1163:
	lw	s3,60(sp)
	.cfi_restore 19
.LVL1164:
	lw	s4,56(sp)
	.cfi_restore 20
.LVL1165:
	lw	s5,52(sp)
	.cfi_restore 21
.LVL1166:
	lw	s6,48(sp)
	.cfi_restore 22
.LVL1167:
	addi	sp,sp,80
	.cfi_def_cfa_offset 0
.LVL1168:
	jr	ra
.LVL1169:
.L478:
	.cfi_restore_state
	.loc 1 2883 15
	li	a0,-20480
	addi	s0,a0,384
.LVL1170:
	j	.L475
	.cfi_endproc
.LFE57:
	.size	mbedtls_ecp_muladd_restartable, .-mbedtls_ecp_muladd_restartable
	.section	.text.mbedtls_ecp_muladd,"ax",@progbits
	.align	1
	.globl	mbedtls_ecp_muladd
	.type	mbedtls_ecp_muladd, @function
mbedtls_ecp_muladd:
.LFB58:
	.loc 1 2962 1 is_stmt 1
	.cfi_startproc
.LVL1171:
	.loc 1 2963 5
	.loc 1 2963 10
	.loc 1 2963 17
	.loc 1 2964 5
	.loc 1 2964 10
	.loc 1 2964 17
	.loc 1 2965 5
	.loc 1 2965 10
	.loc 1 2965 17
	.loc 1 2966 5
	.loc 1 2966 10
	.loc 1 2966 17
	.loc 1 2967 5
	.loc 1 2967 10
	.loc 1 2967 17
	.loc 1 2968 5
	.loc 1 2968 10
	.loc 1 2968 17
	.loc 1 2969 5
	.loc 1 2969 13 is_stmt 0
	li	a6,0
	tail	mbedtls_ecp_muladd_restartable
.LVL1172:
	.cfi_endproc
.LFE58:
	.size	mbedtls_ecp_muladd, .-mbedtls_ecp_muladd
	.section	.text.mbedtls_ecp_gen_privkey,"ax",@progbits
	.align	1
	.globl	mbedtls_ecp_gen_privkey
	.type	mbedtls_ecp_gen_privkey, @function
mbedtls_ecp_gen_privkey:
.LFB62:
	.loc 1 3059 1 is_stmt 1
	.cfi_startproc
.LVL1173:
	.loc 1 3060 5
	.loc 1 3061 5
	.loc 1 3063 5
	.loc 1 3063 10
	.loc 1 3063 17
	.loc 1 3064 5
	.loc 1 3064 10
	.loc 1 3064 17
	.loc 1 3065 5
	.loc 1 3065 10
	.loc 1 3065 17
	.loc 1 3067 5
	.loc 1 3059 1 is_stmt 0
	addi	sp,sp,-64
	.cfi_def_cfa_offset 64
	sw	s1,52(sp)
	sw	s2,48(sp)
	sw	s3,44(sp)
	sw	s4,40(sp)
	sw	s5,36(sp)
	sw	ra,60(sp)
	sw	s0,56(sp)
	sw	s6,32(sp)
	sw	s7,28(sp)
	sw	s8,24(sp)
	.cfi_offset 9, -12
	.cfi_offset 18, -16
	.cfi_offset 19, -20
	.cfi_offset 20, -24
	.cfi_offset 21, -28
	.cfi_offset 1, -4
	.cfi_offset 8, -8
	.cfi_offset 22, -32
	.cfi_offset 23, -36
	.cfi_offset 24, -40
	.loc 1 3067 27
	lw	s6,92(a0)
	.loc 1 3059 1
	mv	s2,a0
	mv	s1,a1
	mv	s3,a2
	mv	s4,a3
	.loc 1 3070 9
	call	ecp_get_type
.LVL1174:
	.loc 1 3067 27
	addi	s6,s6,7
	.loc 1 3070 7
	li	a5,2
	.loc 1 3067 12
	srli	s5,s6,3
.LVL1175:
	.loc 1 3070 5 is_stmt 1
	.loc 1 3070 7 is_stmt 0
	bne	a0,a5,.L493
.LVL1176:
.L484:
.LBB203:
	.loc 1 3073 9 is_stmt 1
	.loc 1 3075 9
	.loc 1 3076 13
	.loc 1 3076 18
	.loc 1 3076 31 is_stmt 0
	mv	a3,s4
	mv	a2,s3
	mv	a1,s5
	mv	a0,s1
	call	mbedtls_mpi_fill_random
.LVL1177:
	mv	s0,a0
.LVL1178:
	.loc 1 3076 20
	bne	a0,zero,.L481
	.loc 1 3076 113 is_stmt 1 discriminator 2
	.loc 1 3077 16 discriminator 2
	.loc 1 3077 18 is_stmt 0 discriminator 2
	mv	a0,s1
	call	mbedtls_mpi_bitlen
.LVL1179:
	.loc 1 3077 9 discriminator 2
	beq	a0,zero,.L484
	.loc 1 3080 9 is_stmt 1
	.loc 1 3080 13 is_stmt 0
	mv	a0,s1
	call	mbedtls_mpi_bitlen
.LVL1180:
	.loc 1 3081 20
	lw	a1,92(s2)
	.loc 1 3080 11
	addi	a0,a0,-1
.LVL1181:
	.loc 1 3081 9 is_stmt 1
	.loc 1 3081 11 is_stmt 0
	bgeu	a1,a0,.L485
	.loc 1 3082 13 is_stmt 1
	.loc 1 3082 18
	.loc 1 3082 31 is_stmt 0
	sub	a1,a0,a1
	mv	a0,s1
.LVL1182:
	call	mbedtls_mpi_shift_r
.LVL1183:
.L500:
	mv	s0,a0
.LVL1184:
	.loc 1 3082 20
	bne	a0,zero,.L481
	.loc 1 3084 102 is_stmt 1
	.loc 1 3088 9
	.loc 1 3088 14
	.loc 1 3088 27 is_stmt 0
	li	a2,0
	li	a1,0
	mv	a0,s1
	call	mbedtls_mpi_set_bit
.LVL1185:
	mv	s0,a0
.LVL1186:
	.loc 1 3088 16
	bne	a0,zero,.L481
	.loc 1 3088 89 is_stmt 1 discriminator 2
	.loc 1 3089 9 discriminator 2
	.loc 1 3089 14 discriminator 2
	.loc 1 3089 27 is_stmt 0 discriminator 2
	li	a2,0
	li	a1,1
	mv	a0,s1
	call	mbedtls_mpi_set_bit
.LVL1187:
	mv	s0,a0
	.loc 1 3089 16 discriminator 2
	bne	a0,zero,.L481
	.loc 1 3089 89 is_stmt 1 discriminator 2
	.loc 1 3090 9 discriminator 2
	.loc 1 3090 11 is_stmt 0 discriminator 2
	lw	a4,92(s2)
	li	a5,254
	beq	a4,a5,.L488
.LVL1188:
.L489:
	.loc 1 3089 27
	li	s0,0
.LVL1189:
.L482:
	.loc 1 3092 93 is_stmt 1 discriminator 2
.LBE203:
	.loc 1 3098 5 discriminator 2
	.loc 1 3098 9 is_stmt 0 discriminator 2
	mv	a0,s2
	call	ecp_get_type
.LVL1190:
	.loc 1 3098 7 discriminator 2
	li	a5,1
	bne	a0,a5,.L481
.LBB204:
	.loc 1 3101 9 is_stmt 1
.LVL1191:
	.loc 1 3102 9
	.loc 1 3102 18 is_stmt 0
	sw	zero,12(sp)
	li	s7,31
	.loc 1 3114 57
	andi	s6,s6,-8
	.loc 1 3128 19
	addi	s8,s2,76
.LVL1192:
.L496:
	.loc 1 3111 9 is_stmt 1
	.loc 1 3113 13
	.loc 1 3113 18
	.loc 1 3113 31 is_stmt 0
	mv	a3,s4
	mv	a2,s3
	mv	a1,s5
	mv	a0,s1
	call	mbedtls_mpi_fill_random
.LVL1193:
	mv	s0,a0
.LVL1194:
	.loc 1 3113 20
	bne	a0,zero,.L481
	.loc 1 3113 113 is_stmt 1 discriminator 2
	.loc 1 3114 13 discriminator 2
	.loc 1 3114 18 discriminator 2
	.loc 1 3114 31 is_stmt 0 discriminator 2
	lw	a1,92(s2)
	mv	a0,s1
	sub	a1,s6,a1
	call	mbedtls_mpi_shift_r
.LVL1195:
	mv	s0,a0
.LVL1196:
	.loc 1 3114 20 discriminator 2
	bne	a0,zero,.L481
	.loc 1 3114 112 is_stmt 1 discriminator 2
	.loc 1 3125 13 discriminator 2
.LVL1197:
	.loc 1 3125 15 is_stmt 0 discriminator 2
	addi	s7,s7,-1
.LVL1198:
	bne	s7,zero,.L491
	.loc 1 3126 17 is_stmt 1
	.loc 1 3126 23 is_stmt 0
	li	a0,-20480
	addi	s0,a0,768
.LVL1199:
	j	.L481
.LVL1200:
.L485:
.LBE204:
.LBB205:
	.loc 1 3084 13 is_stmt 1
	.loc 1 3084 18
	.loc 1 3084 31 is_stmt 0
	li	a2,1
	mv	a0,s1
.LVL1201:
	call	mbedtls_mpi_set_bit
.LVL1202:
	j	.L500
.L488:
	.loc 1 3092 13 is_stmt 1
	.loc 1 3092 18
	.loc 1 3092 31 is_stmt 0
	li	a2,0
	li	a1,2
	mv	a0,s1
	call	mbedtls_mpi_set_bit
.LVL1203:
	mv	s0,a0
.LVL1204:
	.loc 1 3092 20
	beq	a0,zero,.L489
.LVL1205:
.L481:
.LBE205:
	.loc 1 3140 1
	lw	ra,60(sp)
	.cfi_remember_state
	.cfi_restore 1
	mv	a0,s0
	lw	s0,56(sp)
	.cfi_restore 8
	lw	s1,52(sp)
	.cfi_restore 9
.LVL1206:
	lw	s2,48(sp)
	.cfi_restore 18
.LVL1207:
	lw	s3,44(sp)
	.cfi_restore 19
.LVL1208:
	lw	s4,40(sp)
	.cfi_restore 20
.LVL1209:
	lw	s5,36(sp)
	.cfi_restore 21
.LVL1210:
	lw	s6,32(sp)
	.cfi_restore 22
	lw	s7,28(sp)
	.cfi_restore 23
	lw	s8,24(sp)
	.cfi_restore 24
	addi	sp,sp,64
	.cfi_def_cfa_offset 0
	jr	ra
.LVL1211:
.L493:
	.cfi_restore_state
	.loc 1 3060 9
	li	a0,-20480
	addi	s0,a0,128
	j	.L482
.LVL1212:
.L491:
.LBB206:
	.loc 1 3128 13 is_stmt 1
	.loc 1 3128 19 is_stmt 0
	addi	a2,sp,12
	mv	a1,s8
	mv	a0,s1
	call	mbedtls_mpi_lt_mpi_ct
.LVL1213:
	mv	s0,a0
.LVL1214:
	.loc 1 3129 13 is_stmt 1
	.loc 1 3129 15 is_stmt 0
	bne	a0,zero,.L481
	.loc 1 3134 14 is_stmt 1
	.loc 1 3134 16 is_stmt 0
	li	a1,1
	mv	a0,s1
	call	mbedtls_mpi_cmp_int
.LVL1215:
	.loc 1 3134 9
	blt	a0,zero,.L496
	.loc 1 3134 48 discriminator 1
	lw	a4,12(sp)
	li	a5,1
	bne	a4,a5,.L496
	j	.L481
.LBE206:
	.cfi_endproc
.LFE62:
	.size	mbedtls_ecp_gen_privkey, .-mbedtls_ecp_gen_privkey
	.section	.text.mbedtls_ecp_gen_keypair_base,"ax",@progbits
	.align	1
	.globl	mbedtls_ecp_gen_keypair_base
	.type	mbedtls_ecp_gen_keypair_base, @function
mbedtls_ecp_gen_keypair_base:
.LFB63:
	.loc 1 3150 1 is_stmt 1
	.cfi_startproc
.LVL1216:
	.loc 1 3151 5
	.loc 1 3152 5
	.loc 1 3152 10
	.loc 1 3152 17
	.loc 1 3153 5
	.loc 1 3153 10
	.loc 1 3153 17
	.loc 1 3154 5
	.loc 1 3154 10
	.loc 1 3154 17
	.loc 1 3155 5
	.loc 1 3155 10
	.loc 1 3155 17
	.loc 1 3156 5
	.loc 1 3156 10
	.loc 1 3156 17
	.loc 1 3158 5
	.loc 1 3158 10
	.loc 1 3150 1 is_stmt 0
	addi	sp,sp,-48
	.cfi_def_cfa_offset 48
	sw	s0,40(sp)
	.cfi_offset 8, -8
	mv	s0,a2
	sw	s2,32(sp)
	sw	s3,28(sp)
	.cfi_offset 18, -16
	.cfi_offset 19, -20
	mv	s2,a3
	mv	s3,a1
	.loc 1 3158 23
	mv	a3,a5
.LVL1217:
	mv	a2,a4
.LVL1218:
	mv	a1,s0
.LVL1219:
	.loc 1 3150 1
	sw	s1,36(sp)
	sw	ra,44(sp)
	.cfi_offset 9, -12
	.cfi_offset 1, -4
	.loc 1 3150 1
	mv	s1,a0
	.loc 1 3158 23
	sw	a5,12(sp)
	sw	a4,8(sp)
	call	mbedtls_ecp_gen_privkey
.LVL1220:
	.loc 1 3158 12
	bne	a0,zero,.L501
.LVL1221:
.LBB209:
.LBB210:
	.loc 1 3158 102 is_stmt 1
	.loc 1 3159 5
	.loc 1 3159 10
	.loc 1 3159 23 is_stmt 0
	mv	a2,s0
.LBE210:
.LBE209:
	.loc 1 3163 1
	lw	s0,40(sp)
	.cfi_remember_state
	.cfi_restore 8
.LVL1222:
.LBB215:
.LBB211:
	.loc 1 3159 23
	lw	a5,12(sp)
	lw	a4,8(sp)
.LBE211:
.LBE215:
	.loc 1 3163 1
	lw	ra,44(sp)
	.cfi_restore 1
.LBB216:
.LBB212:
	.loc 1 3159 23
	mv	a3,s3
	mv	a1,s2
.LBE212:
.LBE216:
	.loc 1 3163 1
	lw	s3,28(sp)
	.cfi_restore 19
.LVL1223:
	lw	s2,32(sp)
	.cfi_restore 18
.LVL1224:
.LBB217:
.LBB213:
	.loc 1 3159 23
	mv	a0,s1
.LVL1225:
.LBE213:
.LBE217:
	.loc 1 3163 1
	lw	s1,36(sp)
	.cfi_restore 9
.LVL1226:
	addi	sp,sp,48
	.cfi_def_cfa_offset 0
.LVL1227:
.LBB218:
.LBB214:
	.loc 1 3159 23
	tail	mbedtls_ecp_mul
.LVL1228:
.L502:
.L501:
	.cfi_restore_state
.LBE214:
.LBE218:
	.loc 1 3163 1
	lw	ra,44(sp)
	.cfi_restore 1
	lw	s0,40(sp)
	.cfi_restore 8
.LVL1229:
	lw	s1,36(sp)
	.cfi_restore 9
.LVL1230:
	lw	s2,32(sp)
	.cfi_restore 18
.LVL1231:
	lw	s3,28(sp)
	.cfi_restore 19
.LVL1232:
	addi	sp,sp,48
	.cfi_def_cfa_offset 0
.LVL1233:
	jr	ra
	.cfi_endproc
.LFE63:
	.size	mbedtls_ecp_gen_keypair_base, .-mbedtls_ecp_gen_keypair_base
	.section	.text.mbedtls_ecp_gen_keypair,"ax",@progbits
	.align	1
	.globl	mbedtls_ecp_gen_keypair
	.type	mbedtls_ecp_gen_keypair, @function
mbedtls_ecp_gen_keypair:
.LFB64:
	.loc 1 3172 1 is_stmt 1
	.cfi_startproc
.LVL1234:
	.loc 1 3173 5
	.loc 1 3173 10
	.loc 1 3173 17
	.loc 1 3174 5
	.loc 1 3174 10
	.loc 1 3174 17
	.loc 1 3175 5
	.loc 1 3175 10
	.loc 1 3175 17
	.loc 1 3176 5
	.loc 1 3176 10
	.loc 1 3176 17
	.loc 1 3178 5
	.loc 1 3172 1 is_stmt 0
	mv	a5,a4
	.loc 1 3178 13
	mv	a4,a3
.LVL1235:
	mv	a3,a2
.LVL1236:
	mv	a2,a1
.LVL1237:
	addi	a1,a0,40
.LVL1238:
	tail	mbedtls_ecp_gen_keypair_base
.LVL1239:
	.cfi_endproc
.LFE64:
	.size	mbedtls_ecp_gen_keypair, .-mbedtls_ecp_gen_keypair
	.section	.text.mbedtls_ecp_gen_key,"ax",@progbits
	.align	1
	.globl	mbedtls_ecp_gen_key
	.type	mbedtls_ecp_gen_key, @function
mbedtls_ecp_gen_key:
.LFB65:
	.loc 1 3186 1 is_stmt 1
	.cfi_startproc
.LVL1240:
	.loc 1 3187 5
	.loc 1 3188 5
	.loc 1 3188 10
	.loc 1 3188 17
	.loc 1 3189 5
	.loc 1 3189 10
	.loc 1 3189 17
	.loc 1 3191 5
	.loc 1 3186 1 is_stmt 0
	addi	sp,sp,-32
	.cfi_def_cfa_offset 32
	sw	s0,24(sp)
	.cfi_offset 8, -8
	mv	s0,a1
	.loc 1 3191 17
	mv	a1,a0
.LVL1241:
	mv	a0,s0
.LVL1242:
	.loc 1 3186 1
	sw	s1,20(sp)
	sw	ra,28(sp)
	.cfi_offset 9, -12
	.cfi_offset 1, -4
	.loc 1 3186 1
	mv	s1,a2
	sw	a3,12(sp)
	.loc 1 3191 17
	call	mbedtls_ecp_group_load
.LVL1243:
	.loc 1 3191 7
	bne	a0,zero,.L505
	.loc 1 3194 5 is_stmt 1
	.loc 1 3194 13 is_stmt 0
	addi	a2,s0,136
	addi	a1,s0,124
	mv	a0,s0
.LVL1244:
	.loc 1 3195 1
	lw	s0,24(sp)
	.cfi_remember_state
	.cfi_restore 8
.LVL1245:
	.loc 1 3194 13
	lw	a4,12(sp)
	.loc 1 3195 1
	lw	ra,28(sp)
	.cfi_restore 1
	.loc 1 3194 13
	mv	a3,s1
	.loc 1 3195 1
	lw	s1,20(sp)
	.cfi_restore 9
.LVL1246:
	addi	sp,sp,32
	.cfi_def_cfa_offset 0
.LVL1247:
	.loc 1 3194 13
	tail	mbedtls_ecp_gen_keypair
.LVL1248:
.L505:
	.cfi_restore_state
	.loc 1 3195 1
	lw	ra,28(sp)
	.cfi_restore 1
	lw	s0,24(sp)
	.cfi_restore 8
.LVL1249:
	lw	s1,20(sp)
	.cfi_restore 9
.LVL1250:
	addi	sp,sp,32
	.cfi_def_cfa_offset 0
.LVL1251:
	jr	ra
	.cfi_endproc
.LFE65:
	.size	mbedtls_ecp_gen_key, .-mbedtls_ecp_gen_key
	.section	.text.mbedtls_ecp_check_pub_priv,"ax",@progbits
	.align	1
	.globl	mbedtls_ecp_check_pub_priv
	.type	mbedtls_ecp_check_pub_priv, @function
mbedtls_ecp_check_pub_priv:
.LFB66:
	.loc 1 3201 1 is_stmt 1
	.cfi_startproc
.LVL1252:
	.loc 1 3202 5
	.loc 1 3203 5
	.loc 1 3204 5
	.loc 1 3205 5
	.loc 1 3205 10
	.loc 1 3205 17
	.loc 1 3206 5
	.loc 1 3206 10
	.loc 1 3206 17
	.loc 1 3208 5
	.loc 1 3201 1 is_stmt 0
	addi	sp,sp,-192
	.cfi_def_cfa_offset 192
	sw	ra,188(sp)
	sw	s0,184(sp)
	sw	s1,180(sp)
	sw	s2,176(sp)
	sw	s3,172(sp)
	sw	s4,168(sp)
	.cfi_offset 1, -4
	.cfi_offset 8, -8
	.cfi_offset 9, -12
	.cfi_offset 18, -16
	.cfi_offset 19, -20
	.cfi_offset 20, -24
	.loc 1 3208 17
	lw	a5,0(a0)
	.loc 1 3208 7
	bne	a5,zero,.L509
.LVL1253:
.L511:
	.loc 1 3214 15
	li	s0,-20480
	addi	s0,s0,128
.L508:
	.loc 1 3239 1
	lw	ra,188(sp)
	.cfi_remember_state
	.cfi_restore 1
	mv	a0,s0
	lw	s0,184(sp)
	.cfi_restore 8
	lw	s1,180(sp)
	.cfi_restore 9
	lw	s2,176(sp)
	.cfi_restore 18
	lw	s3,172(sp)
	.cfi_restore 19
	lw	s4,168(sp)
	.cfi_restore 20
	addi	sp,sp,192
	.cfi_def_cfa_offset 0
	jr	ra
.LVL1254:
.L509:
	.cfi_restore_state
	.loc 1 3208 44 discriminator 1
	lw	a4,0(a1)
	mv	s0,a1
	bne	a5,a4,.L511
.LVL1255:
	.loc 1 3210 9
	addi	s4,a1,136
	mv	s1,a0
	mv	a1,s4
	addi	a0,a0,136
.LVL1256:
	call	mbedtls_mpi_cmp_mpi
.LVL1257:
	.loc 1 3209 36
	bne	a0,zero,.L511
	.loc 1 3211 9
	addi	s3,s0,148
	mv	a1,s3
	addi	a0,s1,148
	call	mbedtls_mpi_cmp_mpi
.LVL1258:
	.loc 1 3210 53
	bne	a0,zero,.L511
	.loc 1 3212 9
	addi	s2,s0,160
	mv	a1,s2
	addi	a0,s1,160
	call	mbedtls_mpi_cmp_mpi
.LVL1259:
	.loc 1 3211 53
	bne	a0,zero,.L511
	.loc 1 3217 5 is_stmt 1
	mv	a0,sp
	call	mbedtls_ecp_point_init
.LVL1260:
	.loc 1 3218 5
	addi	a0,sp,36
	call	mbedtls_ecp_group_init
.LVL1261:
	.loc 1 3221 5
	mv	a1,s0
	addi	a0,sp,36
	call	mbedtls_ecp_group_copy
.LVL1262:
	.loc 1 3224 5
	.loc 1 3224 10
	.loc 1 3224 23 is_stmt 0
	addi	a3,s0,40
	addi	a2,s0,124
	li	a5,0
	li	a4,0
	mv	a1,sp
	addi	a0,sp,36
	call	mbedtls_ecp_mul
.LVL1263:
	mv	s0,a0
.LVL1264:
	.loc 1 3224 12
	bne	a0,zero,.L512
	.loc 1 3224 37 is_stmt 1 discriminator 2
	.loc 1 3226 5 discriminator 2
	.loc 1 3226 9 is_stmt 0 discriminator 2
	mv	a1,s4
	mv	a0,sp
	call	mbedtls_mpi_cmp_mpi
.LVL1265:
	.loc 1 3226 7 discriminator 2
	bne	a0,zero,.L513
	.loc 1 3227 9 discriminator 1
	mv	a1,s3
	addi	a0,sp,12
	call	mbedtls_mpi_cmp_mpi
.LVL1266:
	.loc 1 3226 48 discriminator 1
	bne	a0,zero,.L513
	.loc 1 3228 9
	mv	a1,s2
	addi	a0,sp,24
	call	mbedtls_mpi_cmp_mpi
.LVL1267:
	mv	s0,a0
.LVL1268:
	.loc 1 3227 48
	beq	a0,zero,.L512
.L513:
	.loc 1 3230 13
	li	s0,-20480
	addi	s0,s0,128
.L512:
.LVL1269:
	.loc 1 3235 5 is_stmt 1
.LBB219:
.LBB220:
	.loc 1 867 5
	mv	a0,sp
	call	mbedtls_ecp_point_free.part.0
.LVL1270:
.LBE220:
.LBE219:
	.loc 1 3236 5
	addi	a0,sp,36
	call	mbedtls_ecp_group_free
.LVL1271:
	.loc 1 3238 5
	.loc 1 3238 11 is_stmt 0
	j	.L508
	.cfi_endproc
.LFE66:
	.size	mbedtls_ecp_check_pub_priv, .-mbedtls_ecp_check_pub_priv
	.section	.rodata.str1.4,"aMS",@progbits,1
	.align	2
.LC0:
	.string	"secp256r1"
	.align	2
.LC1:
	.string	"secp256k1"
	.align	2
.LC2:
	.string	"brainpoolP256r1"
	.align	2
.LC3:
	.string	"secp224r1"
	.align	2
.LC4:
	.string	"secp224k1"
	.section	.bss.ecp_supported_grp_id,"aw",@nobits
	.align	2
	.set	.LANCHOR2,. + 0
	.type	ecp_supported_grp_id, @object
	.size	ecp_supported_grp_id, 24
ecp_supported_grp_id:
	.zero	24
	.section	.rodata.ecp_supported_curves,"a"
	.align	2
	.set	.LANCHOR0,. + 0
	.type	ecp_supported_curves, @object
	.size	ecp_supported_curves, 72
ecp_supported_curves:
	.word	3
	.half	23
	.half	256
	.word	.LC0
	.word	12
	.half	22
	.half	256
	.word	.LC1
	.word	6
	.half	26
	.half	256
	.word	.LC2
	.word	2
	.half	21
	.half	224
	.word	.LC3
	.word	11
	.half	20
	.half	224
	.word	.LC4
	.word	0
	.half	0
	.half	0
	.word	0
	.section	.sbss.init_done.0,"aw",@nobits
	.align	2
	.set	.LANCHOR1,. + 0
	.type	init_done.0, @object
	.size	init_done.0, 4
init_done.0:
	.zero	4
	.text
.Letext0:
	.file 2 "/mnt/d/GitHub/bl_iot_sdk_for_aithinker/toolchain/riscv/Linux/lib/gcc/riscv64-unknown-elf/10.2.0/include/stddef.h"
	.file 3 "/mnt/d/GitHub/bl_iot_sdk_for_aithinker/toolchain/riscv/Linux/lib/gcc/riscv64-unknown-elf/10.2.0/include/stdint-gcc.h"
	.file 4 "/mnt/d/GitHub/bl_iot_sdk_for_aithinker/components/security/mbedtls_lts/mbedtls/include/mbedtls/bignum.h"
	.file 5 "/mnt/d/GitHub/bl_iot_sdk_for_aithinker/components/security/mbedtls_lts/mbedtls/include/mbedtls/ecp.h"
	.file 6 "/mnt/d/GitHub/bl_iot_sdk_for_aithinker/components/security/mbedtls_lts/mbedtls/include/mbedtls/aes.h"
	.file 7 "/mnt/d/GitHub/bl_iot_sdk_for_aithinker/components/security/mbedtls_lts/mbedtls/include/mbedtls/ctr_drbg.h"
	.file 8 "/mnt/d/GitHub/bl_iot_sdk_for_aithinker/components/security/mbedtls_lts/mbedtls/include/mbedtls/platform.h"
	.file 9 "/mnt/d/GitHub/bl_iot_sdk_for_aithinker/components/security/mbedtls_lts/mbedtls/include/mbedtls/platform_util.h"
	.file 10 "/mnt/d/GitHub/bl_iot_sdk_for_aithinker/toolchain/riscv/Linux/riscv64-unknown-elf/include/string.h"