	.file	"ecp_curves.c"
	.option nopic
	.attribute arch, "rv32i2p0_m2p0_f2p0_c2p0"
	.attribute unaligned_access, 0
	.attribute stack_align, 16
	.text
.Ltext0:
	.cfi_sections	.debug_frame
	.section	.text.add32,"ax",@progbits
	.align	1
	.type	add32, @function
add32:
.LFB9:
	.file 1 "/mnt/d/GitHub/bl_iot_sdk_for_aithinker/components/security/mbedtls_lts/mbedtls/library/ecp_curves.c"
	.loc 1 1000 1
	.cfi_startproc
.LVL0:
	.loc 1 1001 5
	.loc 1 1001 10 is_stmt 0
	lw	a4,0(a0)
	add	a5,a1,a4
	sw	a5,0(a0)
	.loc 1 1002 5 is_stmt 1
	.loc 1 1002 22 is_stmt 0
	sltu	a5,a5,a1
	.loc 1 1002 12
	lbu	a1,0(a2)
.LVL1:
	add	a5,a5,a1
	sb	a5,0(a2)
	.loc 1 1003 1
	ret
	.cfi_endproc
.LFE9:
	.size	add32, .-add32
	.section	.text.sub32,"ax",@progbits
	.align	1
	.type	sub32, @function
sub32:
.LFB10:
	.loc 1 1006 1 is_stmt 1
	.cfi_startproc
.LVL2:
	.loc 1 1007 5
	.loc 1 1007 22 is_stmt 0
	lw	a5,0(a0)
	sltu	a4,a5,a1
	.loc 1 1007 12
	lbu	a5,0(a2)
	sub	a5,a5,a4
	sb	a5,0(a2)
	.loc 1 1008 5 is_stmt 1
	.loc 1 1008 10 is_stmt 0
	lw	a5,0(a0)
	sub	a1,a5,a1
.LVL3:
	sw	a1,0(a0)
	.loc 1 1009 1
	ret
	.cfi_endproc
.LFE10:
	.size	sub32, .-sub32
	.section	.text.ecp_mod_p255,"ax",@progbits
	.align	1
	.type	ecp_mod_p255, @function
ecp_mod_p255:
.LFB14:
	.loc 1 1261 1 is_stmt 1
	.cfi_startproc
.LVL4:
	.loc 1 1262 5
	.loc 1 1263 5
	.loc 1 1264 5
	.loc 1 1265 5
	.loc 1 1267 5
	.loc 1 1267 10 is_stmt 0
	lw	a5,4(a0)
	.loc 1 1267 7
	li	a4,7
	bleu	a5,a4,.L7
	.loc 1 1271 5 is_stmt 1
	.loc 1 1261 1 is_stmt 0
	addi	sp,sp,-80
	.cfi_def_cfa_offset 80
	.loc 1 1271 9
	li	a4,1
	.loc 1 1272 16
	addi	a5,a5,-7
	.loc 1 1271 9
	sw	a4,12(sp)
	.loc 1 1272 5 is_stmt 1
	.loc 1 1261 1 is_stmt 0
	sw	ra,76(sp)
	sw	s0,72(sp)
	sw	s1,68(sp)
	.cfi_offset 1, -4
	.cfi_offset 8, -8
	.cfi_offset 9, -12
	.loc 1 1272 9
	sw	a5,16(sp)
	.loc 1 1273 5 is_stmt 1
	.loc 1 1273 7 is_stmt 0
	li	a4,9
	bgtu	a5,a4,.L8
	.loc 1 1275 9
	addi	s1,sp,24
	mv	s0,a0
	.loc 1 1275 5 is_stmt 1
	.loc 1 1276 5 is_stmt 0
	li	a2,40
	li	a1,0
	mv	a0,s1
.LVL5:
	.loc 1 1275 9
	sw	s1,20(sp)
	.loc 1 1276 5 is_stmt 1
	call	memset
.LVL6:
	.loc 1 1277 5
	.loc 1 1277 69 is_stmt 0
	lw	a1,8(s0)
	.loc 1 1277 5
	lw	a2,16(sp)
	mv	a0,s1
	addi	a1,a1,28
	slli	a2,a2,2
	call	memcpy
.LVL7:
	.loc 1 1278 5 is_stmt 1
	.loc 1 1278 10
	.loc 1 1278 23 is_stmt 0
	li	a1,31
	addi	a0,sp,12
	call	mbedtls_mpi_shift_r
.LVL8:
	.loc 1 1278 12
	bne	a0,zero,.L3
	.loc 1 1278 122 is_stmt 1 discriminator 2
	.loc 1 1279 5 discriminator 2
	.loc 1 1279 8 is_stmt 0 discriminator 2
	lw	a5,16(sp)
	.loc 1 1282 23 discriminator 2
	li	a2,0
	li	a1,255
	.loc 1 1279 8 discriminator 2
	addi	a5,a5,1
	.loc 1 1282 23 discriminator 2
	mv	a0,s0
.LVL9:
	.loc 1 1279 8 discriminator 2
	sw	a5,16(sp)
	.loc 1 1282 5 is_stmt 1 discriminator 2
	.loc 1 1282 10 discriminator 2
	.loc 1 1282 23 is_stmt 0 discriminator 2
	call	mbedtls_mpi_set_bit
.LVL10:
	.loc 1 1283 12 discriminator 2
	li	a5,8
	.loc 1 1282 12 discriminator 2
	beq	a0,zero,.L5
.LVL11:
.L3:
	.loc 1 1292 1
	lw	ra,76(sp)
	.cfi_remember_state
	.cfi_restore 1
	lw	s0,72(sp)
	.cfi_restore 8
	lw	s1,68(sp)
	.cfi_restore 9
	addi	sp,sp,80
	.cfi_def_cfa_offset 0
	jr	ra
.LVL12:
.L6:
	.cfi_restore_state
	.loc 1 1284 9 is_stmt 1 discriminator 3
	.loc 1 1284 17 is_stmt 0 discriminator 3
	lw	a4,8(s0)
	slli	a3,a5,2
	.loc 1 1283 71 discriminator 3
	addi	a5,a5,1
.LVL13:
	.loc 1 1284 17 discriminator 3
	add	a4,a4,a3
	sw	zero,0(a4)
	.loc 1 1283 70 is_stmt 1 discriminator 3
.LVL14:
.L5:
	.loc 1 1283 60 discriminator 1
	.loc 1 1283 5 is_stmt 0 discriminator 1
	lw	a4,4(s0)
	bgtu	a4,a5,.L6
	.loc 1 1287 5 is_stmt 1
	.loc 1 1287 10
	.loc 1 1287 23 is_stmt 0
	addi	a1,sp,12
	li	a2,19
	mv	a0,a1
.LVL15:
	call	mbedtls_mpi_mul_int
.LVL16:
	.loc 1 1287 12
	bne	a0,zero,.L3
	.loc 1 1287 88 is_stmt 1 discriminator 2
	.loc 1 1288 5 discriminator 2
	.loc 1 1288 10 discriminator 2
	.loc 1 1288 23 is_stmt 0 discriminator 2
	addi	a2,sp,12
	mv	a1,s0
	mv	a0,s0
.LVL17:
	call	mbedtls_mpi_add_abs
.LVL18:
	.loc 1 1290 1 discriminator 2
	j	.L3
.LVL19:
.L7:
	.cfi_def_cfa_offset 0
	.cfi_restore 1
	.cfi_restore 8
	.cfi_restore 9
	.loc 1 1268 15
	li	a0,0
.LVL20:
	.loc 1 1292 1
	ret
.LVL21:
.L8:
	.cfi_def_cfa_offset 80
	.cfi_offset 1, -4
	.cfi_offset 8, -8
	.cfi_offset 9, -12
	.loc 1 1274 15
	li	a0,-20480
.LVL22:
	addi	a0,a0,128
	j	.L3
	.cfi_endproc
.LFE14:
	.size	ecp_mod_p255, .-ecp_mod_p255
	.section	.text.ecp_mod_koblitz.constprop.0,"ax",@progbits
	.align	1
	.type	ecp_mod_koblitz.constprop.0, @function
ecp_mod_koblitz.constprop.0:
.LFB19:
	.loc 1 1378 19 is_stmt 1
	.cfi_startproc
.LVL23:
	.loc 1 1381 5
	.loc 1 1382 5
	.loc 1 1383 5
	.loc 1 1384 5
	.loc 1 1386 5
	.loc 1 1386 10 is_stmt 0
	lw	a5,4(a0)
	.loc 1 1386 7
	bltu	a5,a2,.L23
	.loc 1 1378 19
	addi	sp,sp,-112
	.cfi_def_cfa_offset 112
	.loc 1 1390 9
	li	a4,1
	.loc 1 1378 19
	sw	s2,96(sp)
	.loc 1 1392 9
	li	a3,2
	.cfi_offset 18, -16
	.loc 1 1396 9
	addi	s2,sp,36
	.loc 1 1378 19
	sw	s0,104(sp)
	sw	s1,100(sp)
	sw	ra,108(sp)
	sw	s3,92(sp)
	.cfi_offset 8, -8
	.cfi_offset 9, -12
	.cfi_offset 1, -4
	.cfi_offset 19, -20
	.loc 1 1390 9
	sw	a4,24(sp)
	.loc 1 1391 9
	sw	a1,32(sp)
	.loc 1 1392 9
	sw	a3,28(sp)
	.loc 1 1395 9
	sw	a4,12(sp)
	.loc 1 1396 9
	sw	s2,20(sp)
	sub	a5,a5,a2
	mv	s1,a0
	mv	s0,a2
	.loc 1 1390 5 is_stmt 1
	.loc 1 1391 5
	.loc 1 1392 5
	.loc 1 1395 5
	.loc 1 1396 5
	.loc 1 1399 5
	.loc 1 1400 5
	.loc 1 1400 7 is_stmt 0
	bltu	a2,a5,.L15
	.loc 1 1399 9
	sw	a5,16(sp)
.L16:
	.loc 1 1402 5 is_stmt 1
	li	a2,44
.LVL24:
	li	a1,0
.LVL25:
	mv	a0,s2
.LVL26:
	call	memset
.LVL27:
	.loc 1 1403 5
	lw	a2,16(sp)
	.loc 1 1403 32 is_stmt 0
	lw	a1,8(s1)
	slli	s3,s0,2
	.loc 1 1403 5
	slli	a2,a2,2
	add	a1,a1,s3
	mv	a0,s2
	call	memcpy
.LVL28:
	.loc 1 1404 5 is_stmt 1
	.loc 1 1405 91
	.loc 1 1406 5
	.loc 1 1406 9 is_stmt 0
	lw	a5,16(sp)
	lw	a4,28(sp)
	add	a5,a5,a4
	sw	a5,16(sp)
	.loc 1 1409 5 is_stmt 1
	.loc 1 1406 9 is_stmt 0
	mv	a5,s0
.L17:
.LVL29:
	.loc 1 1411 23 is_stmt 1
	.loc 1 1411 5 is_stmt 0
	lw	a4,4(s1)
	bltu	a5,a4,.L18
	.loc 1 1415 5 is_stmt 1
	.loc 1 1415 10
	.loc 1 1415 23 is_stmt 0
	addi	a1,sp,12
	addi	a2,sp,24
	mv	a0,a1
	call	mbedtls_mpi_mul_mpi
.LVL30:
	.loc 1 1415 12
	bne	a0,zero,.L13
	.loc 1 1415 88 is_stmt 1
	.loc 1 1416 5
	.loc 1 1416 10
	.loc 1 1416 23 is_stmt 0
	addi	a2,sp,12
	mv	a1,s1
	mv	a0,s1
.LVL31:
	call	mbedtls_mpi_add_abs
.LVL32:
	.loc 1 1416 12
	bne	a0,zero,.L13
	.loc 1 1416 86 is_stmt 1
	.loc 1 1421 5
	lw	a5,4(s1)
	sub	a5,a5,s0
	.loc 1 1422 5
	.loc 1 1422 7 is_stmt 0
	bltu	s0,a5,.L19
	.loc 1 1421 9
	sw	a5,16(sp)
.L20:
	.loc 1 1424 5 is_stmt 1
	li	a2,44
	li	a1,0
	mv	a0,s2
.LVL33:
	call	memset
.LVL34:
	.loc 1 1425 5
	lw	a2,16(sp)
	.loc 1 1425 32 is_stmt 0
	lw	a1,8(s1)
	.loc 1 1425 5
	mv	a0,s2
	slli	a2,a2,2
	add	a1,a1,s3
	call	memcpy
.LVL35:
	.loc 1 1426 5 is_stmt 1
	.loc 1 1427 91
	.loc 1 1428 5
	.loc 1 1428 9 is_stmt 0
	lw	a5,16(sp)
	lw	a4,28(sp)
	add	a5,a5,a4
	sw	a5,16(sp)
	.loc 1 1431 5 is_stmt 1
.LVL36:
.L21:
	.loc 1 1433 23
	.loc 1 1433 5 is_stmt 0
	lw	a5,4(s1)
	bltu	s0,a5,.L22
	.loc 1 1437 5 is_stmt 1
	.loc 1 1437 10
	.loc 1 1437 23 is_stmt 0
	addi	a1,sp,12
	addi	a2,sp,24
	mv	a0,a1
	call	mbedtls_mpi_mul_mpi
.LVL37:
	.loc 1 1437 12
	bne	a0,zero,.L13
	.loc 1 1437 88 is_stmt 1
	.loc 1 1438 5
	.loc 1 1438 10
	.loc 1 1438 23 is_stmt 0
	addi	a2,sp,12
	mv	a1,s1
	mv	a0,s1
.LVL38:
	call	mbedtls_mpi_add_abs
.LVL39:
.L13:
	.loc 1 1442 1
	lw	ra,108(sp)
	.cfi_remember_state
	.cfi_restore 1
	lw	s0,104(sp)
	.cfi_restore 8
	lw	s1,100(sp)
	.cfi_restore 9
.LVL40:
	lw	s2,96(sp)
	.cfi_restore 18
	lw	s3,92(sp)
	.cfi_restore 19
	addi	sp,sp,112
	.cfi_def_cfa_offset 0
	jr	ra
.LVL41:
.L15:
	.cfi_restore_state
	.loc 1 1401 9 is_stmt 1
	.loc 1 1401 13 is_stmt 0
	sw	a2,16(sp)
	j	.L16
.LVL42:
.L18:
	.loc 1 1412 9 is_stmt 1
	.loc 1 1412 17 is_stmt 0
	lw	a4,8(s1)
	slli	a3,a5,2
	.loc 1 1411 34
	addi	a5,a5,1
.LVL43:
	.loc 1 1412 17
	add	a4,a4,a3
	sw	zero,0(a4)
	.loc 1 1411 33 is_stmt 1
.LVL44:
	j	.L17
.LVL45:
.L19:
	.loc 1 1423 9
	.loc 1 1423 13 is_stmt 0
	sw	s0,16(sp)
	j	.L20
.LVL46:
.L22:
	.loc 1 1434 9 is_stmt 1
	.loc 1 1434 17 is_stmt 0
	lw	a5,8(s1)
	slli	a4,s0,2
	.loc 1 1433 34
	addi	s0,s0,1
.LVL47:
	.loc 1 1434 17
	add	a5,a5,a4
	sw	zero,0(a5)
	.loc 1 1433 33 is_stmt 1
.LVL48:
	j	.L21
.LVL49:
.L23:
	.cfi_def_cfa_offset 0
	.cfi_restore 1
	.cfi_restore 8
	.cfi_restore 9
	.cfi_restore 18
	.cfi_restore 19
	.loc 1 1387 15 is_stmt 0
	li	a0,0
.LVL50:
	.loc 1 1442 1
	ret
	.cfi_endproc
.LFE19:
	.size	ecp_mod_koblitz.constprop.0, .-ecp_mod_koblitz.constprop.0
	.section	.text.ecp_mod_p224k1,"ax",@progbits
	.align	1
	.type	ecp_mod_p224k1, @function
ecp_mod_p224k1:
.LFB16:
	.loc 1 1467 1 is_stmt 1
	.cfi_startproc
.LVL51:
	.loc 1 1468 5
	.loc 1 1474 5
	.loc 1 1474 13 is_stmt 0
	lui	a1,%hi(.LANCHOR0)
	li	a2,7
	addi	a1,a1,%lo(.LANCHOR0)
	tail	ecp_mod_koblitz.constprop.0
.LVL52:
	.cfi_endproc
.LFE16:
	.size	ecp_mod_p224k1, .-ecp_mod_p224k1
	.section	.text.ecp_mod_p256k1,"ax",@progbits
	.align	1
	.type	ecp_mod_p256k1, @function
ecp_mod_p256k1:
.LFB17:
	.loc 1 1486 1 is_stmt 1
	.cfi_startproc
.LVL53:
	.loc 1 1487 5
	.loc 1 1489 5
	.loc 1 1489 13 is_stmt 0
	lui	a1,%hi(.LANCHOR1)
	li	a2,8
	addi	a1,a1,%lo(.LANCHOR1)
	tail	ecp_mod_koblitz.constprop.0
.LVL54:
	.cfi_endproc
.LFE17:
	.size	ecp_mod_p256k1, .-ecp_mod_p256k1
	.section	.text.ecp_mod_p224,"ax",@progbits
	.align	1
	.type	ecp_mod_p224, @function
ecp_mod_p224:
.LFB12:
	.loc 1 1081 1 is_stmt 1
	.cfi_startproc
.LVL55:
	.loc 1 1082 5
	.loc 1 1082 14
	.loc 1 1081 1 is_stmt 0
	addi	sp,sp,-80
	.cfi_def_cfa_offset 80
	.loc 1 1082 164
	li	a5,1
	.loc 1 1081 1
	sw	s0,72(sp)
	.loc 1 1082 164
	sw	a5,20(sp)
	.cfi_offset 8, -8
	.loc 1 1081 1
	mv	s0,a0
	.loc 1 1082 173
	li	a5,8
	.loc 1 1082 222
	addi	a0,sp,32
.LVL56:
	.loc 1 1082 228
	li	a2,32
	li	a1,0
	.loc 1 1081 1
	sw	ra,76(sp)
	sw	s1,68(sp)
	.cfi_offset 1, -4
	.cfi_offset 9, -12
	.loc 1 1082 173
	sw	a5,24(sp)
	.loc 1 1082 26
	sb	zero,15(sp)
	.loc 1 1082 37 is_stmt 1
	.loc 1 1082 51
.LVL57:
	.loc 1 1082 79
	.loc 1 1082 94
	.loc 1 1082 160
	.loc 1 1082 169
	.loc 1 1082 218
	.loc 1 1082 222 is_stmt 0
	sw	a0,28(sp)
	.loc 1 1082 228 is_stmt 1
	call	memset
.LVL58:
	.loc 1 1082 279
	.loc 1 1082 284
	.loc 1 1082 297 is_stmt 0
	li	a1,14
	mv	a0,s0
	call	mbedtls_mpi_grow
.LVL59:
	mv	s1,a0
.LVL60:
	.loc 1 1082 286
	bne	a0,zero,.L30
	.loc 1 1082 394 is_stmt 1 discriminator 2
	.loc 1 1082 401 discriminator 2
	.loc 1 1082 408 is_stmt 0 discriminator 2
	lw	a5,8(s0)
	.loc 1 1084 5 discriminator 2
	addi	a2,sp,15
	addi	a0,sp,16
	.loc 1 1082 411 discriminator 2
	lw	a4,0(a5)
	.loc 1 1084 5 discriminator 2
	lw	a1,28(a5)
	.loc 1 1082 405 discriminator 2
	sw	a4,16(sp)
	.loc 1 1082 415 is_stmt 1 discriminator 2
	.loc 1 1082 416 discriminator 2
	.loc 1 1084 5 discriminator 2
	call	sub32
.LVL61:
	.loc 1 1084 32 discriminator 2
	.loc 1 1084 34 discriminator 2
	lw	a5,8(s0)
	addi	a2,sp,15
	addi	a0,sp,16
	lw	a1,44(a5)
	call	sub32
.LVL62:
	.loc 1 1084 62 discriminator 2
	.loc 1 1084 64 discriminator 2
	.loc 1 1084 65 is_stmt 0 discriminator 2
	lw	a5,8(s0)
	.loc 1 1084 72 discriminator 2
	lw	a4,16(sp)
	.loc 1 1084 129 discriminator 2
	addi	a2,sp,15
	.loc 1 1084 72 discriminator 2
	sw	a4,0(a5)
	.loc 1 1084 78 is_stmt 1 discriminator 2
	.loc 1 1084 80 discriminator 2
.LVL63:
	.loc 1 1084 85 discriminator 2
	.loc 1 1084 95 is_stmt 0 discriminator 2
	lw	a5,8(s0)
	.loc 1 1084 104 discriminator 2
	lb	a1,15(sp)
	.loc 1 1084 111 discriminator 2
	sb	zero,15(sp)
	.loc 1 1084 89 discriminator 2
	lw	a5,4(a5)
	sw	a5,16(sp)
	.loc 1 1084 99 is_stmt 1 discriminator 2
	.loc 1 1084 101 discriminator 2
.LVL64:
	.loc 1 1084 109 discriminator 2
	.loc 1 1084 116 discriminator 2
	.loc 1 1084 118 is_stmt 0 discriminator 2
	bge	a1,zero,.L32
	.loc 1 1084 129 is_stmt 1 discriminator 1
	neg	a1,a1
.LVL65:
	addi	a0,sp,16
	call	sub32
.LVL66:
.L33:
	.loc 1 1084 180 discriminator 4
	.loc 1 1085 5 discriminator 4
	lw	a5,8(s0)
	addi	a2,sp,15
	addi	a0,sp,16
	lw	a1,32(a5)
	call	sub32
.LVL67:
	.loc 1 1085 32 discriminator 4
	.loc 1 1085 34 discriminator 4
	lw	a5,8(s0)
	addi	a2,sp,15
	addi	a0,sp,16
	lw	a1,48(a5)
	call	sub32
.LVL68:
	.loc 1 1085 62 discriminator 4
	.loc 1 1085 64 discriminator 4
	.loc 1 1085 65 is_stmt 0 discriminator 4
	lw	a5,8(s0)
	.loc 1 1085 72 discriminator 4
	lw	a4,16(sp)
	.loc 1 1085 104 discriminator 4
	lb	a1,15(sp)
	.loc 1 1085 111 discriminator 4
	sb	zero,15(sp)
	.loc 1 1085 72 discriminator 4
	sw	a4,4(a5)
	.loc 1 1085 78 is_stmt 1 discriminator 4
	.loc 1 1085 80 discriminator 4
.LVL69:
	.loc 1 1085 85 discriminator 4
	.loc 1 1085 95 is_stmt 0 discriminator 4
	lw	a5,8(s0)
	.loc 1 1085 129 discriminator 4
	addi	a2,sp,15
	.loc 1 1085 89 discriminator 4
	lw	a5,8(a5)
	sw	a5,16(sp)
	.loc 1 1085 99 is_stmt 1 discriminator 4
	.loc 1 1085 101 discriminator 4
.LVL70:
	.loc 1 1085 109 discriminator 4
	.loc 1 1085 116 discriminator 4
	.loc 1 1085 118 is_stmt 0 discriminator 4
	bge	a1,zero,.L34
	.loc 1 1085 129 is_stmt 1 discriminator 1
	neg	a1,a1
.LVL71:
	addi	a0,sp,16
	call	sub32
.LVL72:
.L35:
	.loc 1 1085 180 discriminator 4
	.loc 1 1086 5 discriminator 4
	lw	a5,8(s0)
	addi	a2,sp,15
	addi	a0,sp,16
	lw	a1,36(a5)
	call	sub32
.LVL73:
	.loc 1 1086 32 discriminator 4
	.loc 1 1086 34 discriminator 4
	lw	a5,8(s0)
	addi	a2,sp,15
	addi	a0,sp,16
	lw	a1,52(a5)
	call	sub32
.LVL74:
	.loc 1 1086 62 discriminator 4
	.loc 1 1086 64 discriminator 4
	.loc 1 1086 65 is_stmt 0 discriminator 4
	lw	a5,8(s0)
	.loc 1 1086 72 discriminator 4
	lw	a4,16(sp)
	.loc 1 1086 104 discriminator 4
	lb	a1,15(sp)
	.loc 1 1086 111 discriminator 4
	sb	zero,15(sp)
	.loc 1 1086 72 discriminator 4
	sw	a4,8(a5)
	.loc 1 1086 78 is_stmt 1 discriminator 4
	.loc 1 1086 80 discriminator 4
.LVL75:
	.loc 1 1086 85 discriminator 4
	.loc 1 1086 95 is_stmt 0 discriminator 4
	lw	a5,8(s0)
	.loc 1 1086 129 discriminator 4
	addi	a2,sp,15
	.loc 1 1086 89 discriminator 4
	lw	a5,12(a5)
	sw	a5,16(sp)
	.loc 1 1086 99 is_stmt 1 discriminator 4
	.loc 1 1086 101 discriminator 4
.LVL76:
	.loc 1 1086 109 discriminator 4
	.loc 1 1086 116 discriminator 4
	.loc 1 1086 118 is_stmt 0 discriminator 4
	bge	a1,zero,.L36
	.loc 1 1086 129 is_stmt 1 discriminator 1
	neg	a1,a1
.LVL77:
	addi	a0,sp,16
	call	sub32
.LVL78:
.L37:
	.loc 1 1086 180 discriminator 4
	.loc 1 1087 5 discriminator 4
	lw	a5,8(s0)
	addi	a2,sp,15
	addi	a0,sp,16
	lw	a1,40(a5)
	call	sub32
.LVL79:
	.loc 1 1087 33 discriminator 4
	.loc 1 1087 35 discriminator 4
	lw	a5,8(s0)
	addi	a2,sp,15
	addi	a0,sp,16
	lw	a1,28(a5)
	call	add32
.LVL80:
	.loc 1 1087 62 discriminator 4
	.loc 1 1087 64 discriminator 4
	lw	a5,8(s0)
	addi	a2,sp,15
	addi	a0,sp,16
	lw	a1,44(a5)
	call	add32
.LVL81:
	.loc 1 1087 92 discriminator 4
	.loc 1 1087 94 discriminator 4
	.loc 1 1087 95 is_stmt 0 discriminator 4
	lw	a5,8(s0)
	.loc 1 1087 102 discriminator 4
	lw	a4,16(sp)
	.loc 1 1087 134 discriminator 4
	lb	a1,15(sp)
	.loc 1 1087 141 discriminator 4
	sb	zero,15(sp)
	.loc 1 1087 102 discriminator 4
	sw	a4,12(a5)
	.loc 1 1087 108 is_stmt 1 discriminator 4
	.loc 1 1087 110 discriminator 4
.LVL82:
	.loc 1 1087 115 discriminator 4
	.loc 1 1087 125 is_stmt 0 discriminator 4
	lw	a5,8(s0)
	.loc 1 1087 159 discriminator 4
	addi	a2,sp,15
	.loc 1 1087 119 discriminator 4
	lw	a5,16(a5)
	sw	a5,16(sp)
	.loc 1 1087 129 is_stmt 1 discriminator 4
	.loc 1 1087 131 discriminator 4
.LVL83:
	.loc 1 1087 139 discriminator 4
	.loc 1 1087 146 discriminator 4
	.loc 1 1087 148 is_stmt 0 discriminator 4
	bge	a1,zero,.L38
	.loc 1 1087 159 is_stmt 1 discriminator 1
	neg	a1,a1
.LVL84:
	addi	a0,sp,16
	call	sub32
.LVL85:
.L39:
	.loc 1 1087 210 discriminator 4
	.loc 1 1088 5 discriminator 4
	lw	a5,8(s0)
	addi	a2,sp,15
	addi	a0,sp,16
	lw	a1,44(a5)
	call	sub32
.LVL86:
	.loc 1 1088 33 discriminator 4
	.loc 1 1088 35 discriminator 4
	lw	a5,8(s0)
	addi	a2,sp,15
	addi	a0,sp,16
	lw	a1,32(a5)
	call	add32
.LVL87:
	.loc 1 1088 62 discriminator 4
	.loc 1 1088 64 discriminator 4
	lw	a5,8(s0)
	addi	a2,sp,15
	addi	a0,sp,16
	lw	a1,48(a5)
	call	add32
.LVL88:
	.loc 1 1088 92 discriminator 4
	.loc 1 1088 94 discriminator 4
	.loc 1 1088 95 is_stmt 0 discriminator 4
	lw	a5,8(s0)
	.loc 1 1088 102 discriminator 4
	lw	a4,16(sp)
	.loc 1 1088 134 discriminator 4
	lb	a1,15(sp)
	.loc 1 1088 141 discriminator 4
	sb	zero,15(sp)
	.loc 1 1088 102 discriminator 4
	sw	a4,16(a5)
	.loc 1 1088 108 is_stmt 1 discriminator 4
	.loc 1 1088 110 discriminator 4
.LVL89:
	.loc 1 1088 115 discriminator 4
	.loc 1 1088 125 is_stmt 0 discriminator 4
	lw	a5,8(s0)
	.loc 1 1088 159 discriminator 4
	addi	a2,sp,15
	.loc 1 1088 119 discriminator 4
	lw	a5,20(a5)
	sw	a5,16(sp)
	.loc 1 1088 129 is_stmt 1 discriminator 4
	.loc 1 1088 131 discriminator 4
.LVL90:
	.loc 1 1088 139 discriminator 4
	.loc 1 1088 146 discriminator 4
	.loc 1 1088 148 is_stmt 0 discriminator 4
	bge	a1,zero,.L40
	.loc 1 1088 159 is_stmt 1 discriminator 1
	neg	a1,a1
.LVL91:
	addi	a0,sp,16
	call	sub32
.LVL92:
.L41:
	.loc 1 1088 210 discriminator 4
	.loc 1 1089 5 discriminator 4
	lw	a5,8(s0)
	addi	a2,sp,15
	addi	a0,sp,16
	lw	a1,48(a5)
	call	sub32
.LVL93:
	.loc 1 1089 33 discriminator 4
	.loc 1 1089 35 discriminator 4
	lw	a5,8(s0)
	addi	a2,sp,15
	addi	a0,sp,16
	lw	a1,36(a5)
	call	add32
.LVL94:
	.loc 1 1089 62 discriminator 4
	.loc 1 1089 64 discriminator 4
	lw	a5,8(s0)
	addi	a2,sp,15
	addi	a0,sp,16
	lw	a1,52(a5)
	call	add32
.LVL95:
	.loc 1 1089 92 discriminator 4
	.loc 1 1089 94 discriminator 4
	.loc 1 1089 95 is_stmt 0 discriminator 4
	lw	a5,8(s0)
	.loc 1 1089 102 discriminator 4
	lw	a4,16(sp)
	.loc 1 1089 134 discriminator 4
	lb	a1,15(sp)
	.loc 1 1089 141 discriminator 4
	sb	zero,15(sp)
	.loc 1 1089 102 discriminator 4
	sw	a4,20(a5)
	.loc 1 1089 108 is_stmt 1 discriminator 4
	.loc 1 1089 110 discriminator 4
.LVL96:
	.loc 1 1089 115 discriminator 4
	.loc 1 1089 125 is_stmt 0 discriminator 4
	lw	a5,8(s0)
	.loc 1 1089 159 discriminator 4
	addi	a2,sp,15
	.loc 1 1089 119 discriminator 4
	lw	a5,24(a5)
	sw	a5,16(sp)
	.loc 1 1089 129 is_stmt 1 discriminator 4
	.loc 1 1089 131 discriminator 4
.LVL97:
	.loc 1 1089 139 discriminator 4
	.loc 1 1089 146 discriminator 4
	.loc 1 1089 148 is_stmt 0 discriminator 4
	bge	a1,zero,.L42
	.loc 1 1089 159 is_stmt 1 discriminator 1
	neg	a1,a1
.LVL98:
	addi	a0,sp,16
	call	sub32
.LVL99:
.L43:
	.loc 1 1089 210 discriminator 4
	.loc 1 1090 5 discriminator 4
	lw	a5,8(s0)
	addi	a2,sp,15
	addi	a0,sp,16
	lw	a1,52(a5)
	call	sub32
.LVL100:
	.loc 1 1090 33 discriminator 4
	.loc 1 1090 35 discriminator 4
	lw	a5,8(s0)
	addi	a2,sp,15
	addi	a0,sp,16
	lw	a1,40(a5)
	call	add32
.LVL101:
	.loc 1 1090 63 discriminator 4
	.loc 1 1090 65 discriminator 4
	.loc 1 1090 66 is_stmt 0 discriminator 4
	lw	a5,8(s0)
	.loc 1 1090 73 discriminator 4
	lw	a4,16(sp)
	sw	a4,24(a5)
	.loc 1 1090 79 is_stmt 1 discriminator 4
	.loc 1 1090 81 discriminator 4
.LVL102:
	.loc 1 1090 86 discriminator 4
	.loc 1 1090 107 discriminator 4
	.loc 1 1090 102 is_stmt 0 discriminator 4
	lbu	a5,15(sp)
	.loc 1 1090 108 discriminator 4
	lw	a4,8(s0)
	.loc 1 1090 102 discriminator 4
	slli	a3,a5,24
	srai	a3,a3,24
	bge	a3,zero,.L44
	li	a5,0
.L44:
	slli	a5,a5,24
	srai	a5,a5,24
	sw	a5,28(a4)
	.loc 1 1090 121 is_stmt 1 discriminator 4
	.loc 1 1090 123 discriminator 4
	.loc 1 1090 127 is_stmt 0 discriminator 4
	sw	zero,16(sp)
	.loc 1 1090 132 is_stmt 1 discriminator 4
	.loc 1 1090 82 is_stmt 0 discriminator 4
	li	a5,7
.LVL103:
.L45:
	.loc 1 1090 168 is_stmt 1 discriminator 1
	.loc 1 1090 137 discriminator 1
	lw	a4,4(s0)
	addi	a5,a5,1
.LVL104:
	bgtu	a4,a5,.L46
	.loc 1 1090 172 discriminator 4
	.loc 1 1090 178 is_stmt 0 discriminator 4
	lb	a5,15(sp)
.LVL105:
	.loc 1 1090 174 discriminator 4
	bge	a5,zero,.L30
	.loc 1 1090 184 is_stmt 1
	.loc 1 1090 189
.LVL106:
.LBB18:
.LBB19:
	.loc 1 1055 5
	.loc 1 1059 5
	.loc 1 1065 9
	.loc 1 1065 13 is_stmt 0
	lw	a4,24(sp)
	.loc 1 1065 47
	neg	a5,a5
.LVL107:
	.loc 1 1068 23
	mv	a2,s0
	.loc 1 1065 13
	slli	a3,a4,2
	.loc 1 1065 26
	lw	a4,28(sp)
	.loc 1 1068 23
	addi	a1,sp,20
.LVL108:
	mv	a0,s0
	.loc 1 1065 26
	add	a4,a4,a3
	sw	a5,-4(a4)
	.loc 1 1068 5 is_stmt 1
	.loc 1 1068 10
	.loc 1 1068 23 is_stmt 0
	call	mbedtls_mpi_sub_abs
.LVL109:
	mv	s1,a0
.LVL110:
	.loc 1 1068 12
	bne	a0,zero,.L30
	.loc 1 1068 85 is_stmt 1
	.loc 1 1069 5
	.loc 1 1069 10 is_stmt 0
	li	a5,-1
	sw	a5,0(s0)
.LVL111:
.LBE19:
.LBE18:
	.loc 1 1090 264 is_stmt 1
	.loc 1 1090 270
	.loc 1 1093 5
.L31:
.L30:
	.loc 1 1094 1 is_stmt 0
	lw	ra,76(sp)
	.cfi_remember_state
	.cfi_restore 1
	lw	s0,72(sp)
	.cfi_restore 8
.LVL112:
	mv	a0,s1
	lw	s1,68(sp)
	.cfi_restore 9
	addi	sp,sp,80
	.cfi_def_cfa_offset 0
	jr	ra
.LVL113:
.L32:
	.cfi_restore_state
	.loc 1 1084 158 is_stmt 1 discriminator 2
	addi	a0,sp,16
	call	add32
.LVL114:
	j	.L33
.LVL115:
.L34:
	.loc 1 1085 158 discriminator 2
	addi	a0,sp,16
	call	add32
.LVL116:
	j	.L35
.LVL117:
.L36:
	.loc 1 1086 158 discriminator 2
	addi	a0,sp,16
	call	add32
.LVL118:
	j	.L37
.LVL119:
.L38:
	.loc 1 1087 188 discriminator 2
	addi	a0,sp,16
	call	add32
.LVL120:
	j	.L39
.LVL121:
.L40:
	.loc 1 1088 188 discriminator 2
	addi	a0,sp,16
	call	add32
.LVL122:
	j	.L41
.LVL123:
.L42:
	.loc 1 1089 188 discriminator 2
	addi	a0,sp,16
	call	add32
.LVL124:
	j	.L43
.LVL125:
.L46:
	.loc 1 1090 154 discriminator 3
	.loc 1 1090 162 is_stmt 0 discriminator 3
	lw	a4,8(s0)
	slli	a3,a5,2
	add	a4,a4,a3
	lw	a3,16(sp)
	sw	a3,0(a4)
	j	.L45
	.cfi_endproc
.LFE12:
	.size	ecp_mod_p224, .-ecp_mod_p224
	.section	.text.ecp_mod_p256,"ax",@progbits
	.align	1
	.type	ecp_mod_p256, @function
ecp_mod_p256:
.LFB13:
	.loc 1 1102 1 is_stmt 1
	.cfi_startproc
.LVL126:
	.loc 1 1103 5
	.loc 1 1103 14
	.loc 1 1102 1 is_stmt 0
	addi	sp,sp,-80
	.cfi_def_cfa_offset 80
	.loc 1 1103 164
	li	a5,1
	.loc 1 1102 1
	sw	s0,72(sp)
	.loc 1 1103 164
	sw	a5,16(sp)
	.cfi_offset 8, -8
	.loc 1 1102 1
	mv	s0,a0
	.loc 1 1103 173
	li	a5,9
	.loc 1 1103 222
	addi	a0,sp,28
.LVL127:
	.loc 1 1103 228
	li	a2,36
	li	a1,0
	.loc 1 1102 1
	sw	ra,76(sp)
	sw	s1,68(sp)
	.cfi_offset 1, -4
	.cfi_offset 9, -12
	.loc 1 1103 173
	sw	a5,20(sp)
	.loc 1 1103 26
	sb	zero,11(sp)
	.loc 1 1103 37 is_stmt 1
	.loc 1 1103 51
.LVL128:
	.loc 1 1103 79
	.loc 1 1103 94
	.loc 1 1103 160
	.loc 1 1103 169
	.loc 1 1103 218
	.loc 1 1103 222 is_stmt 0
	sw	a0,24(sp)
	.loc 1 1103 228 is_stmt 1
	call	memset
.LVL129:
	.loc 1 1103 279
	.loc 1 1103 284
	.loc 1 1103 297 is_stmt 0
	li	a1,16
	mv	a0,s0
	call	mbedtls_mpi_grow
.LVL130:
	mv	s1,a0
.LVL131:
	.loc 1 1103 286
	bne	a0,zero,.L48
	.loc 1 1103 394 is_stmt 1 discriminator 2
	.loc 1 1103 401 discriminator 2
	.loc 1 1103 408 is_stmt 0 discriminator 2
	lw	a5,8(s0)
	.loc 1 1105 5 discriminator 2
	addi	a2,sp,11
	addi	a0,sp,12
	.loc 1 1103 411 discriminator 2
	lw	a4,0(a5)
	.loc 1 1105 5 discriminator 2
	lw	a1,32(a5)
	.loc 1 1103 405 discriminator 2
	sw	a4,12(sp)
	.loc 1 1103 415 is_stmt 1 discriminator 2
	.loc 1 1103 416 discriminator 2
	.loc 1 1105 5 discriminator 2
	call	add32
.LVL132:
	.loc 1 1105 32 discriminator 2
	.loc 1 1105 34 discriminator 2
	lw	a5,8(s0)
	addi	a2,sp,11
	addi	a0,sp,12
	lw	a1,36(a5)
	call	add32
.LVL133:
	.loc 1 1105 61 discriminator 2
	.loc 1 1106 5 discriminator 2
	lw	a5,8(s0)
	addi	a2,sp,11
	addi	a0,sp,12
	lw	a1,44(a5)
	call	sub32
.LVL134:
	.loc 1 1106 33 discriminator 2
	.loc 1 1106 35 discriminator 2
	lw	a5,8(s0)
	addi	a2,sp,11
	addi	a0,sp,12
	lw	a1,48(a5)
	call	sub32
.LVL135:
	.loc 1 1106 63 discriminator 2
	.loc 1 1106 65 discriminator 2
	lw	a5,8(s0)
	addi	a2,sp,11
	addi	a0,sp,12
	lw	a1,52(a5)
	call	sub32
.LVL136:
	.loc 1 1106 93 discriminator 2
	.loc 1 1106 95 discriminator 2
	lw	a5,8(s0)
	addi	a2,sp,11
	addi	a0,sp,12
	lw	a1,56(a5)
	call	sub32
.LVL137:
	.loc 1 1106 123 discriminator 2
	.loc 1 1106 125 discriminator 2
	.loc 1 1106 126 is_stmt 0 discriminator 2
	lw	a5,8(s0)
	.loc 1 1106 133 discriminator 2
	lw	a4,12(sp)
	.loc 1 1106 190 discriminator 2
	addi	a2,sp,11
	.loc 1 1106 133 discriminator 2
	sw	a4,0(a5)
	.loc 1 1106 139 is_stmt 1 discriminator 2
	.loc 1 1106 141 discriminator 2
.LVL138:
	.loc 1 1106 146 discriminator 2
	.loc 1 1106 156 is_stmt 0 discriminator 2
	lw	a5,8(s0)
	.loc 1 1106 165 discriminator 2
	lb	a1,11(sp)
	.loc 1 1106 172 discriminator 2
	sb	zero,11(sp)
	.loc 1 1106 150 discriminator 2
	lw	a5,4(a5)
	sw	a5,12(sp)
	.loc 1 1106 160 is_stmt 1 discriminator 2
	.loc 1 1106 162 discriminator 2
.LVL139:
	.loc 1 1106 170 discriminator 2
	.loc 1 1106 177 discriminator 2
	.loc 1 1106 179 is_stmt 0 discriminator 2
	bge	a1,zero,.L50
	.loc 1 1106 190 is_stmt 1 discriminator 1
	neg	a1,a1
.LVL140:
	addi	a0,sp,12
	call	sub32
.LVL141:
.L51:
	.loc 1 1106 241 discriminator 4
	.loc 1 1108 5 discriminator 4
	lw	a5,8(s0)
	addi	a2,sp,11
	addi	a0,sp,12
	lw	a1,36(a5)
	call	add32
.LVL142:
	.loc 1 1108 32 discriminator 4
	.loc 1 1108 34 discriminator 4
	lw	a5,8(s0)
	addi	a2,sp,11
	addi	a0,sp,12
	lw	a1,40(a5)
	call	add32
.LVL143:
	.loc 1 1108 62 discriminator 4
	.loc 1 1109 5 discriminator 4
	lw	a5,8(s0)
	addi	a2,sp,11
	addi	a0,sp,12
	lw	a1,48(a5)
	call	sub32
.LVL144:
	.loc 1 1109 33 discriminator 4
	.loc 1 1109 35 discriminator 4
	lw	a5,8(s0)
	addi	a2,sp,11
	addi	a0,sp,12
	lw	a1,52(a5)
	call	sub32
.LVL145:
	.loc 1 1109 63 discriminator 4
	.loc 1 1109 65 discriminator 4
	lw	a5,8(s0)
	addi	a2,sp,11
	addi	a0,sp,12
	lw	a1,56(a5)
	call	sub32
.LVL146:
	.loc 1 1109 93 discriminator 4
	.loc 1 1109 95 discriminator 4
	lw	a5,8(s0)
	addi	a2,sp,11
	addi	a0,sp,12
	lw	a1,60(a5)
	call	sub32
.LVL147:
	.loc 1 1109 123 discriminator 4
	.loc 1 1109 125 discriminator 4
	.loc 1 1109 126 is_stmt 0 discriminator 4
	lw	a5,8(s0)
	.loc 1 1109 133 discriminator 4
	lw	a4,12(sp)
	.loc 1 1109 165 discriminator 4
	lb	a1,11(sp)
	.loc 1 1109 172 discriminator 4
	sb	zero,11(sp)
	.loc 1 1109 133 discriminator 4
	sw	a4,4(a5)
	.loc 1 1109 139 is_stmt 1 discriminator 4
	.loc 1 1109 141 discriminator 4
.LVL148:
	.loc 1 1109 146 discriminator 4
	.loc 1 1109 156 is_stmt 0 discriminator 4
	lw	a5,8(s0)
	.loc 1 1109 190 discriminator 4
	addi	a2,sp,11
	.loc 1 1109 150 discriminator 4
	lw	a5,8(a5)
	sw	a5,12(sp)
	.loc 1 1109 160 is_stmt 1 discriminator 4
	.loc 1 1109 162 discriminator 4
.LVL149:
	.loc 1 1109 170 discriminator 4
	.loc 1 1109 177 discriminator 4
	.loc 1 1109 179 is_stmt 0 discriminator 4
	bge	a1,zero,.L52
	.loc 1 1109 190 is_stmt 1 discriminator 1
	neg	a1,a1
.LVL150:
	addi	a0,sp,12
	call	sub32
.LVL151:
.L53:
	.loc 1 1109 241 discriminator 4
	.loc 1 1111 5 discriminator 4
	lw	a5,8(s0)
	addi	a2,sp,11
	addi	a0,sp,12
	lw	a1,40(a5)
	call	add32
.LVL152:
	.loc 1 1111 33 discriminator 4
	.loc 1 1111 35 discriminator 4
	lw	a5,8(s0)
	addi	a2,sp,11
	addi	a0,sp,12
	lw	a1,44(a5)
	call	add32
.LVL153:
	.loc 1 1111 63 discriminator 4
	.loc 1 1112 5 discriminator 4
	lw	a5,8(s0)
	addi	a2,sp,11
	addi	a0,sp,12
	lw	a1,52(a5)
	call	sub32
.LVL154:
	.loc 1 1112 33 discriminator 4
	.loc 1 1112 35 discriminator 4
	lw	a5,8(s0)
	addi	a2,sp,11
	addi	a0,sp,12
	lw	a1,56(a5)
	call	sub32
.LVL155:
	.loc 1 1112 63 discriminator 4
	.loc 1 1112 65 discriminator 4
	lw	a5,8(s0)
	addi	a2,sp,11
	addi	a0,sp,12
	lw	a1,60(a5)
	call	sub32
.LVL156:
	.loc 1 1112 93 discriminator 4
	.loc 1 1112 95 discriminator 4
	.loc 1 1112 96 is_stmt 0 discriminator 4
	lw	a5,8(s0)
	.loc 1 1112 103 discriminator 4
	lw	a4,12(sp)
	.loc 1 1112 135 discriminator 4
	lb	a1,11(sp)
	.loc 1 1112 142 discriminator 4
	sb	zero,11(sp)
	.loc 1 1112 103 discriminator 4
	sw	a4,8(a5)
	.loc 1 1112 109 is_stmt 1 discriminator 4
	.loc 1 1112 111 discriminator 4
.LVL157:
	.loc 1 1112 116 discriminator 4
	.loc 1 1112 126 is_stmt 0 discriminator 4
	lw	a5,8(s0)
	.loc 1 1112 160 discriminator 4
	addi	a2,sp,11
	.loc 1 1112 120 discriminator 4
	lw	a5,12(a5)
	sw	a5,12(sp)
	.loc 1 1112 130 is_stmt 1 discriminator 4
	.loc 1 1112 132 discriminator 4
.LVL158:
	.loc 1 1112 140 discriminator 4
	.loc 1 1112 147 discriminator 4
	.loc 1 1112 149 is_stmt 0 discriminator 4
	bge	a1,zero,.L54
	.loc 1 1112 160 is_stmt 1 discriminator 1
	neg	a1,a1
.LVL159:
	addi	a0,sp,12
	call	sub32
.LVL160:
.L55:
	.loc 1 1112 211 discriminator 4
	.loc 1 1114 5 discriminator 4
	lw	a5,8(s0)
	addi	a2,sp,11
	addi	a0,sp,12
	lw	a1,44(a5)
	call	add32
.LVL161:
	.loc 1 1114 33 discriminator 4
	.loc 1 1114 35 discriminator 4
	lw	a5,8(s0)
	addi	a2,sp,11
	addi	a0,sp,12
	lw	a1,44(a5)
	call	add32
.LVL162:
	.loc 1 1114 63 discriminator 4
	.loc 1 1114 65 discriminator 4
	lw	a5,8(s0)
	addi	a2,sp,11
	addi	a0,sp,12
	lw	a1,48(a5)
	call	add32
.LVL163:
	.loc 1 1114 93 discriminator 4
	.loc 1 1114 95 discriminator 4
	lw	a5,8(s0)
	addi	a2,sp,11
	addi	a0,sp,12
	lw	a1,48(a5)
	call	add32
.LVL164:
	.loc 1 1114 123 discriminator 4
	.loc 1 1114 125 discriminator 4
	lw	a5,8(s0)
	addi	a2,sp,11
	addi	a0,sp,12
	lw	a1,52(a5)
	call	add32
.LVL165:
	.loc 1 1114 153 discriminator 4
	.loc 1 1115 5 discriminator 4
	lw	a5,8(s0)
	addi	a2,sp,11
	addi	a0,sp,12
	lw	a1,60(a5)
	call	sub32
.LVL166:
	.loc 1 1115 33 discriminator 4
	.loc 1 1115 35 discriminator 4
	lw	a5,8(s0)
	addi	a2,sp,11
	addi	a0,sp,12
	lw	a1,32(a5)
	call	sub32
.LVL167:
	.loc 1 1115 62 discriminator 4
	.loc 1 1115 64 discriminator 4
	lw	a5,8(s0)
	addi	a2,sp,11
	addi	a0,sp,12
	lw	a1,36(a5)
	call	sub32
.LVL168:
	.loc 1 1115 91 discriminator 4
	.loc 1 1115 93 discriminator 4
	.loc 1 1115 94 is_stmt 0 discriminator 4
	lw	a5,8(s0)
	.loc 1 1115 101 discriminator 4
	lw	a4,12(sp)
	.loc 1 1115 133 discriminator 4
	lb	a1,11(sp)
	.loc 1 1115 140 discriminator 4
	sb	zero,11(sp)
	.loc 1 1115 101 discriminator 4
	sw	a4,12(a5)
	.loc 1 1115 107 is_stmt 1 discriminator 4
	.loc 1 1115 109 discriminator 4
.LVL169:
	.loc 1 1115 114 discriminator 4
	.loc 1 1115 124 is_stmt 0 discriminator 4
	lw	a5,8(s0)
	.loc 1 1115 158 discriminator 4
	addi	a2,sp,11
	.loc 1 1115 118 discriminator 4
	lw	a5,16(a5)
	sw	a5,12(sp)
	.loc 1 1115 128 is_stmt 1 discriminator 4
	.loc 1 1115 130 discriminator 4
.LVL170:
	.loc 1 1115 138 discriminator 4
	.loc 1 1115 145 discriminator 4
	.loc 1 1115 147 is_stmt 0 discriminator 4
	bge	a1,zero,.L56
	.loc 1 1115 158 is_stmt 1 discriminator 1
	neg	a1,a1
.LVL171:
	addi	a0,sp,12
	call	sub32
.LVL172:
.L57:
	.loc 1 1115 209 discriminator 4
	.loc 1 1117 5 discriminator 4
	lw	a5,8(s0)
	addi	a2,sp,11
	addi	a0,sp,12
	lw	a1,48(a5)
	call	add32
.LVL173:
	.loc 1 1117 33 discriminator 4
	.loc 1 1117 35 discriminator 4
	lw	a5,8(s0)
	addi	a2,sp,11
	addi	a0,sp,12
	lw	a1,48(a5)
	call	add32
.LVL174:
	.loc 1 1117 63 discriminator 4
	.loc 1 1117 65 discriminator 4
	lw	a5,8(s0)
	addi	a2,sp,11
	addi	a0,sp,12
	lw	a1,52(a5)
	call	add32
.LVL175:
	.loc 1 1117 93 discriminator 4
	.loc 1 1117 95 discriminator 4
	lw	a5,8(s0)
	addi	a2,sp,11
	addi	a0,sp,12
	lw	a1,52(a5)
	call	add32
.LVL176:
	.loc 1 1117 123 discriminator 4
	.loc 1 1117 125 discriminator 4
	lw	a5,8(s0)
	addi	a2,sp,11
	addi	a0,sp,12
	lw	a1,56(a5)
	call	add32
.LVL177:
	.loc 1 1117 153 discriminator 4
	.loc 1 1118 5 discriminator 4
	lw	a5,8(s0)
	addi	a2,sp,11
	addi	a0,sp,12
	lw	a1,36(a5)
	call	sub32
.LVL178:
	.loc 1 1118 32 discriminator 4
	.loc 1 1118 34 discriminator 4
	lw	a5,8(s0)
	addi	a2,sp,11
	addi	a0,sp,12
	lw	a1,40(a5)
	call	sub32
.LVL179:
	.loc 1 1118 62 discriminator 4
	.loc 1 1118 64 discriminator 4
	.loc 1 1118 65 is_stmt 0 discriminator 4
	lw	a5,8(s0)
	.loc 1 1118 72 discriminator 4
	lw	a4,12(sp)
	.loc 1 1118 104 discriminator 4
	lb	a1,11(sp)
	.loc 1 1118 111 discriminator 4
	sb	zero,11(sp)
	.loc 1 1118 72 discriminator 4
	sw	a4,16(a5)
	.loc 1 1118 78 is_stmt 1 discriminator 4
	.loc 1 1118 80 discriminator 4
.LVL180:
	.loc 1 1118 85 discriminator 4
	.loc 1 1118 95 is_stmt 0 discriminator 4
	lw	a5,8(s0)
	.loc 1 1118 129 discriminator 4
	addi	a2,sp,11
	.loc 1 1118 89 discriminator 4
	lw	a5,20(a5)
	sw	a5,12(sp)
	.loc 1 1118 99 is_stmt 1 discriminator 4
	.loc 1 1118 101 discriminator 4
.LVL181:
	.loc 1 1118 109 discriminator 4
	.loc 1 1118 116 discriminator 4
	.loc 1 1118 118 is_stmt 0 discriminator 4
	bge	a1,zero,.L58
	.loc 1 1118 129 is_stmt 1 discriminator 1
	neg	a1,a1
.LVL182:
	addi	a0,sp,12
	call	sub32
.LVL183:
.L59:
	.loc 1 1118 180 discriminator 4
	.loc 1 1120 5 discriminator 4
	lw	a5,8(s0)
	addi	a2,sp,11
	addi	a0,sp,12
	lw	a1,52(a5)
	call	add32
.LVL184:
	.loc 1 1120 33 discriminator 4
	.loc 1 1120 35 discriminator 4
	lw	a5,8(s0)
	addi	a2,sp,11
	addi	a0,sp,12
	lw	a1,52(a5)
	call	add32
.LVL185:
	.loc 1 1120 63 discriminator 4
	.loc 1 1120 65 discriminator 4
	lw	a5,8(s0)
	addi	a2,sp,11
	addi	a0,sp,12
	lw	a1,56(a5)
	call	add32
.LVL186:
	.loc 1 1120 93 discriminator 4
	.loc 1 1120 95 discriminator 4
	lw	a5,8(s0)
	addi	a2,sp,11
	addi	a0,sp,12
	lw	a1,56(a5)
	call	add32
.LVL187:
	.loc 1 1120 123 discriminator 4
	.loc 1 1120 125 discriminator 4
	lw	a5,8(s0)
	addi	a2,sp,11
	addi	a0,sp,12
	lw	a1,60(a5)
	call	add32
.LVL188:
	.loc 1 1120 153 discriminator 4
	.loc 1 1121 5 discriminator 4
	lw	a5,8(s0)
	addi	a2,sp,11
	addi	a0,sp,12
	lw	a1,40(a5)
	call	sub32
.LVL189:
	.loc 1 1121 33 discriminator 4
	.loc 1 1121 35 discriminator 4
	lw	a5,8(s0)
	addi	a2,sp,11
	addi	a0,sp,12
	lw	a1,44(a5)
	call	sub32
.LVL190:
	.loc 1 1121 63 discriminator 4
	.loc 1 1121 65 discriminator 4
	.loc 1 1121 66 is_stmt 0 discriminator 4
	lw	a5,8(s0)
	.loc 1 1121 73 discriminator 4
	lw	a4,12(sp)
	.loc 1 1121 105 discriminator 4
	lb	a1,11(sp)
	.loc 1 1121 112 discriminator 4
	sb	zero,11(sp)
	.loc 1 1121 73 discriminator 4
	sw	a4,20(a5)
	.loc 1 1121 79 is_stmt 1 discriminator 4
	.loc 1 1121 81 discriminator 4
.LVL191:
	.loc 1 1121 86 discriminator 4
	.loc 1 1121 96 is_stmt 0 discriminator 4
	lw	a5,8(s0)
	.loc 1 1121 130 discriminator 4
	addi	a2,sp,11
	.loc 1 1121 90 discriminator 4
	lw	a5,24(a5)
	sw	a5,12(sp)
	.loc 1 1121 100 is_stmt 1 discriminator 4
	.loc 1 1121 102 discriminator 4
.LVL192:
	.loc 1 1121 110 discriminator 4
	.loc 1 1121 117 discriminator 4
	.loc 1 1121 119 is_stmt 0 discriminator 4
	bge	a1,zero,.L60
	.loc 1 1121 130 is_stmt 1 discriminator 1
	neg	a1,a1
.LVL193:
	addi	a0,sp,12
	call	sub32
.LVL194:
.L61:
	.loc 1 1121 181 discriminator 4
	.loc 1 1123 5 discriminator 4
	lw	a5,8(s0)
	addi	a2,sp,11
	addi	a0,sp,12
	lw	a1,56(a5)
	call	add32
.LVL195:
	.loc 1 1123 33 discriminator 4
	.loc 1 1123 35 discriminator 4
	lw	a5,8(s0)
	addi	a2,sp,11
	addi	a0,sp,12
	lw	a1,56(a5)
	call	add32
.LVL196:
	.loc 1 1123 63 discriminator 4
	.loc 1 1123 65 discriminator 4
	lw	a5,8(s0)
	addi	a2,sp,11
	addi	a0,sp,12
	lw	a1,60(a5)
	call	add32
.LVL197:
	.loc 1 1123 93 discriminator 4
	.loc 1 1123 95 discriminator 4
	lw	a5,8(s0)
	addi	a2,sp,11
	addi	a0,sp,12
	lw	a1,60(a5)
	call	add32
.LVL198:
	.loc 1 1123 123 discriminator 4
	.loc 1 1123 125 discriminator 4
	lw	a5,8(s0)
	addi	a2,sp,11
	addi	a0,sp,12
	lw	a1,56(a5)
	call	add32
.LVL199:
	.loc 1 1123 153 discriminator 4
	.loc 1 1123 155 discriminator 4
	lw	a5,8(s0)
	addi	a2,sp,11
	addi	a0,sp,12
	lw	a1,52(a5)
	call	add32
.LVL200:
	.loc 1 1123 183 discriminator 4
	.loc 1 1124 5 discriminator 4
	lw	a5,8(s0)
	addi	a2,sp,11
	addi	a0,sp,12
	lw	a1,32(a5)
	call	sub32
.LVL201:
	.loc 1 1124 32 discriminator 4
	.loc 1 1124 34 discriminator 4
	lw	a5,8(s0)
	addi	a2,sp,11
	addi	a0,sp,12
	lw	a1,36(a5)
	call	sub32
.LVL202:
	.loc 1 1124 61 discriminator 4
	.loc 1 1124 63 discriminator 4
	.loc 1 1124 64 is_stmt 0 discriminator 4
	lw	a5,8(s0)
	.loc 1 1124 71 discriminator 4
	lw	a4,12(sp)
	.loc 1 1124 103 discriminator 4
	lb	a1,11(sp)
	.loc 1 1124 110 discriminator 4
	sb	zero,11(sp)
	.loc 1 1124 71 discriminator 4
	sw	a4,24(a5)
	.loc 1 1124 77 is_stmt 1 discriminator 4
	.loc 1 1124 79 discriminator 4
.LVL203:
	.loc 1 1124 84 discriminator 4
	.loc 1 1124 94 is_stmt 0 discriminator 4
	lw	a5,8(s0)
	.loc 1 1124 128 discriminator 4
	addi	a2,sp,11
	.loc 1 1124 88 discriminator 4
	lw	a5,28(a5)
	sw	a5,12(sp)
	.loc 1 1124 98 is_stmt 1 discriminator 4
	.loc 1 1124 100 discriminator 4
.LVL204:
	.loc 1 1124 108 discriminator 4
	.loc 1 1124 115 discriminator 4
	.loc 1 1124 117 is_stmt 0 discriminator 4
	bge	a1,zero,.L62
	.loc 1 1124 128 is_stmt 1 discriminator 1
	neg	a1,a1
.LVL205:
	addi	a0,sp,12
	call	sub32
.LVL206:
.L63:
	.loc 1 1124 179 discriminator 4
	.loc 1 1126 5 discriminator 4
	lw	a5,8(s0)
	addi	a2,sp,11
	addi	a0,sp,12
	lw	a1,60(a5)
	call	add32
.LVL207:
	.loc 1 1126 33 discriminator 4
	.loc 1 1126 35 discriminator 4
	lw	a5,8(s0)
	addi	a2,sp,11
	addi	a0,sp,12
	lw	a1,60(a5)
	call	add32
.LVL208:
	.loc 1 1126 63 discriminator 4
	.loc 1 1126 65 discriminator 4
	lw	a5,8(s0)
	addi	a2,sp,11
	addi	a0,sp,12
	lw	a1,60(a5)
	call	add32
.LVL209:
	.loc 1 1126 93 discriminator 4
	.loc 1 1126 95 discriminator 4
	lw	a5,8(s0)
	addi	a2,sp,11
	addi	a0,sp,12
	lw	a1,32(a5)
	call	add32
.LVL210:
	.loc 1 1126 122 discriminator 4
	.loc 1 1127 5 discriminator 4
	lw	a5,8(s0)
	addi	a2,sp,11
	addi	a0,sp,12
	lw	a1,40(a5)
	call	sub32
.LVL211:
	.loc 1 1127 33 discriminator 4
	.loc 1 1127 35 discriminator 4
	lw	a5,8(s0)
	addi	a2,sp,11
	addi	a0,sp,12
	lw	a1,44(a5)
	call	sub32
.LVL212:
	.loc 1 1127 63 discriminator 4
	.loc 1 1127 65 discriminator 4
	lw	a5,8(s0)
	addi	a2,sp,11
	addi	a0,sp,12
	lw	a1,48(a5)
	call	sub32
.LVL213:
	.loc 1 1127 93 discriminator 4
	.loc 1 1127 95 discriminator 4
	lw	a5,8(s0)
	addi	a2,sp,11
	addi	a0,sp,12
	lw	a1,52(a5)
	call	sub32
.LVL214:
	.loc 1 1127 123 discriminator 4
	.loc 1 1127 125 discriminator 4
	.loc 1 1127 126 is_stmt 0 discriminator 4
	lw	a5,8(s0)
	.loc 1 1127 133 discriminator 4
	lw	a4,12(sp)
	sw	a4,28(a5)
	.loc 1 1127 139 is_stmt 1 discriminator 4
	.loc 1 1127 141 discriminator 4
.LVL215:
	.loc 1 1127 146 discriminator 4
	.loc 1 1127 167 discriminator 4
	.loc 1 1127 162 is_stmt 0 discriminator 4
	lbu	a5,11(sp)
	.loc 1 1127 168 discriminator 4
	lw	a4,8(s0)
	.loc 1 1127 162 discriminator 4
	slli	a3,a5,24
	srai	a3,a3,24
	bge	a3,zero,.L64
	li	a5,0
.L64:
	slli	a5,a5,24
	srai	a5,a5,24
	sw	a5,32(a4)
	.loc 1 1127 181 is_stmt 1 discriminator 4
	.loc 1 1127 183 discriminator 4
	.loc 1 1127 187 is_stmt 0 discriminator 4
	sw	zero,12(sp)
	.loc 1 1127 192 is_stmt 1 discriminator 4
	.loc 1 1127 142 is_stmt 0 discriminator 4
	li	a5,8
.LVL216:
.L65:
	.loc 1 1127 228 is_stmt 1 discriminator 1
	.loc 1 1127 197 discriminator 1
	lw	a4,4(s0)
	addi	a5,a5,1
.LVL217:
	bgtu	a4,a5,.L66
	.loc 1 1127 232 discriminator 4
	.loc 1 1127 238 is_stmt 0 discriminator 4
	lb	a5,11(sp)
.LVL218:
	.loc 1 1127 234 discriminator 4
	bge	a5,zero,.L48
	.loc 1 1127 244 is_stmt 1
	.loc 1 1127 249
.LVL219:
.LBB22:
.LBB23:
	.loc 1 1055 5
	.loc 1 1059 5
	.loc 1 1065 9
	.loc 1 1065 13 is_stmt 0
	lw	a4,20(sp)
	.loc 1 1065 47
	neg	a5,a5
.LVL220:
	.loc 1 1068 23
	mv	a2,s0
	.loc 1 1065 13
	slli	a3,a4,2
	.loc 1 1065 26
	lw	a4,24(sp)
	.loc 1 1068 23
	addi	a1,sp,16
.LVL221:
	mv	a0,s0
	.loc 1 1065 26
	add	a4,a4,a3
	sw	a5,-4(a4)
	.loc 1 1068 5 is_stmt 1
	.loc 1 1068 10
	.loc 1 1068 23 is_stmt 0
	call	mbedtls_mpi_sub_abs
.LVL222:
	mv	s1,a0
.LVL223:
	.loc 1 1068 12
	bne	a0,zero,.L48
	.loc 1 1068 85 is_stmt 1
	.loc 1 1069 5
	.loc 1 1069 10 is_stmt 0
	li	a5,-1
	sw	a5,0(s0)
.LVL224:
.LBE23:
.LBE22:
	.loc 1 1127 324 is_stmt 1
	.loc 1 1127 330
	.loc 1 1130 5
.L49:
.L48:
	.loc 1 1131 1 is_stmt 0
	lw	ra,76(sp)
	.cfi_remember_state
	.cfi_restore 1
	lw	s0,72(sp)
	.cfi_restore 8
.LVL225:
	mv	a0,s1
	lw	s1,68(sp)
	.cfi_restore 9
	addi	sp,sp,80
	.cfi_def_cfa_offset 0
	jr	ra
.LVL226:
.L50:
	.cfi_restore_state
	.loc 1 1106 219 is_stmt 1 discriminator 2
	addi	a0,sp,12
	call	add32
.LVL227:
	j	.L51
.LVL228:
.L52:
	.loc 1 1109 219 discriminator 2
	addi	a0,sp,12
	call	add32
.LVL229:
	j	.L53
.LVL230:
.L54:
	.loc 1 1112 189 discriminator 2
	addi	a0,sp,12
	call	add32
.LVL231:
	j	.L55
.LVL232:
.L56:
	.loc 1 1115 187 discriminator 2
	addi	a0,sp,12
	call	add32
.LVL233:
	j	.L57
.LVL234:
.L58:
	.loc 1 1118 158 discriminator 2
	addi	a0,sp,12
	call	add32
.LVL235:
	j	.L59
.LVL236:
.L60:
	.loc 1 1121 159 discriminator 2
	addi	a0,sp,12
	call	add32
.LVL237:
	j	.L61
.LVL238:
.L62:
	.loc 1 1124 157 discriminator 2
	addi	a0,sp,12
	call	add32
.LVL239:
	j	.L63
.LVL240:
.L66:
	.loc 1 1127 214 discriminator 3
	.loc 1 1127 222 is_stmt 0 discriminator 3
	lw	a4,8(s0)
	slli	a3,a5,2
	add	a4,a4,a3
	lw	a3,12(sp)
	sw	a3,0(a4)
	j	.L65
	.cfi_endproc
.LFE13:
	.size	ecp_mod_p256, .-ecp_mod_p256
	.section	.rodata.mbedtls_ecp_group_load.str1.4,"aMS",@progbits,1
	.align	2
.LC0:
	.string	"01DB42"
	.align	2
.LC1:
	.string	"14DEF9DEA2F79CD65812631A5CF5D3ED"
	.section	.text.mbedtls_ecp_group_load,"ax",@progbits
	.align	1
	.globl	mbedtls_ecp_group_load
	.type	mbedtls_ecp_group_load, @function
mbedtls_ecp_group_load:
.LFB8:
	.loc 1 780 1 is_stmt 1
	.cfi_startproc
.LVL241:
	.loc 1 781 5
	.loc 1 781 10
	.loc 1 781 17
	.loc 1 782 5
	.loc 1 780 1 is_stmt 0
	addi	sp,sp,-16
	.cfi_def_cfa_offset 16
	sw	s0,8(sp)
	sw	s1,4(sp)
	.cfi_offset 8, -8
	.cfi_offset 9, -12
	mv	s0,a0
	mv	s1,a1
	sw	ra,12(sp)
	sw	s2,0(sp)
	.cfi_offset 1, -4
	.cfi_offset 18, -16
	.loc 1 782 5
	call	mbedtls_ecp_group_free
.LVL242:
	.loc 1 784 5 is_stmt 1
	li	a5,10
	.loc 1 784 13 is_stmt 0
	sw	s1,0(s0)
	.loc 1 786 5 is_stmt 1
	addi	s1,s1,-2
.LVL243:
	bgtu	s1,a5,.L69
	lui	a5,%hi(.L71)
	addi	a5,a5,%lo(.L71)
	slli	s1,s1,2
	add	s1,s1,a5
	lw	a5,0(s1)
	jr	a5
	.section	.rodata.mbedtls_ecp_group_load,"a",@progbits
	.align	2
	.align	2
.L71:
	.word	.L76
	.word	.L75
	.word	.L69
	.word	.L69
	.word	.L74
	.word	.L69
	.word	.L69
	.word	.L73
	.word	.L69
	.word	.L72
	.word	.L70
	.section	.text.mbedtls_ecp_group_load
.L76:
	.loc 1 796 13
	.loc 1 796 23 is_stmt 0
	lui	a5,%hi(ecp_mod_p224)
	addi	a5,a5,%lo(ecp_mod_p224)
.LBB106:
.LBB107:
.LBB108:
.LBB109:
	.loc 1 592 10
	lui	a4,%hi(.LANCHOR3)
	addi	a4,a4,%lo(.LANCHOR3)
.LBE109:
.LBE108:
.LBE107:
.LBE106:
	.loc 1 796 23
	sw	a5,100(s0)
	.loc 1 796 38 is_stmt 1
	.loc 1 797 13
.LVL244:
.LBB151:
.LBB150:
	.loc 1 617 5
.LBB114:
.LBB115:
	.loc 1 590 5
	.loc 1 591 10 is_stmt 0
	li	a5,8
	sw	a5,8(s0)
.LBE115:
.LBE114:
.LBB121:
.LBB110:
	.loc 1 592 10
	sw	a4,36(s0)
.LBE110:
.LBE121:
.LBB122:
.LBB116:
	lui	a5,%hi(.LANCHOR2)
.LBE116:
.LBE122:
.LBB123:
.LBB124:
	lui	a4,%hi(.LANCHOR4)
.LBE124:
.LBE123:
.LBB129:
.LBB117:
	addi	a5,a5,%lo(.LANCHOR2)
.LBE117:
.LBE129:
.LBB130:
.LBB125:
	addi	a4,a4,%lo(.LANCHOR4)
.LBE125:
.LBE130:
.LBB131:
.LBB118:
	sw	a5,12(s0)
.LBE118:
.LBE131:
.LBB132:
.LBB126:
	sw	a4,84(s0)
.LBE126:
.LBE132:
.LBB133:
.LBB111:
	.loc 1 591 10
	li	a5,7
.LBE111:
.LBE133:
.LBB134:
.LBB135:
	.loc 1 592 10
	lui	a4,%hi(.LANCHOR5)
.LBE135:
.LBE134:
.LBB138:
.LBB119:
	.loc 1 590 10
	li	s1,1
.LBE119:
.LBE138:
.LBB139:
.LBB112:
	.loc 1 591 10
	sw	a5,32(s0)
.LBE112:
.LBE139:
.LBB140:
.LBB127:
	sw	a5,80(s0)
.LBE127:
.LBE140:
.LBB141:
.LBB136:
	sw	a5,44(s0)
	.loc 1 592 10
	addi	a4,a4,%lo(.LANCHOR5)
.LBE136:
.LBE141:
.LBB142:
.LBB143:
	.loc 1 591 10
	sw	a5,56(s0)
	.loc 1 592 10
	lui	a5,%hi(.LANCHOR6)
.LBE143:
.LBE142:
.LBB145:
.LBB120:
	.loc 1 590 10
	sw	s1,4(s0)
	.loc 1 591 5 is_stmt 1
	.loc 1 592 5
.LVL245:
.LBE120:
.LBE145:
	.loc 1 618 5
	.loc 1 620 5
.LBB146:
.LBB113:
	.loc 1 590 5
	.loc 1 590 10 is_stmt 0
	sw	s1,28(s0)
	.loc 1 591 5 is_stmt 1
	.loc 1 592 5
.LVL246:
.LBE113:
.LBE146:
	.loc 1 621 5
.LBB147:
.LBB128:
	.loc 1 590 5
	.loc 1 590 10 is_stmt 0
	sw	s1,76(s0)
	.loc 1 591 5 is_stmt 1
	.loc 1 592 5
.LVL247:
.LBE128:
.LBE147:
	.loc 1 623 5
.LBB148:
.LBB137:
	.loc 1 590 5
	.loc 1 590 10 is_stmt 0
	sw	s1,40(s0)
	.loc 1 591 5 is_stmt 1
	.loc 1 592 5
	.loc 1 592 10 is_stmt 0
	sw	a4,48(s0)
.LVL248:
.LBE137:
.LBE148:
	.loc 1 624 5 is_stmt 1
.LBB149:
.LBB144:
	.loc 1 590 5
	.loc 1 590 10 is_stmt 0
	sw	s1,52(s0)
	.loc 1 591 5 is_stmt 1
	.loc 1 592 5
	.loc 1 592 10 is_stmt 0
	addi	a5,a5,%lo(.LANCHOR6)
.LVL249:
.L80:
.LBE144:
.LBE149:
.LBE150:
.LBE151:
.LBB152:
.LBB153:
.LBB154:
.LBB155:
	sw	a5,60(s0)
.LBE155:
.LBE154:
	.loc 1 625 5 is_stmt 1
.LVL250:
.LBB158:
.LBB159:
	.loc 1 600 5
	.loc 1 601 5
	.loc 1 603 10 is_stmt 0
	lui	a5,%hi(.LANCHOR7)
	addi	a5,a5,%lo(.LANCHOR7)
	.loc 1 601 10
	sw	s1,64(s0)
	.loc 1 602 5 is_stmt 1
	.loc 1 602 10 is_stmt 0
	sw	s1,68(s0)
	.loc 1 603 5 is_stmt 1
	.loc 1 603 10 is_stmt 0
	sw	a5,72(s0)
.LVL251:
.LBE159:
.LBE158:
	.loc 1 627 5 is_stmt 1
	.loc 1 627 18 is_stmt 0
	addi	a0,s0,4
	call	mbedtls_mpi_bitlen
.LVL252:
	.loc 1 627 16
	sw	a0,88(s0)
	.loc 1 628 5 is_stmt 1
	.loc 1 628 18 is_stmt 0
	addi	a0,s0,76
	call	mbedtls_mpi_bitlen
.LVL253:
	.loc 1 628 16
	sw	a0,92(s0)
	.loc 1 630 5 is_stmt 1
	.loc 1 630 12 is_stmt 0
	sw	s1,96(s0)
	.loc 1 632 5 is_stmt 1
.LBE153:
.LBE152:
	.loc 1 803 21 is_stmt 0
	li	s1,0
.L68:
	.loc 1 867 1
	lw	ra,12(sp)
	.cfi_remember_state
	.cfi_restore 1
	lw	s0,8(sp)
	.cfi_restore 8
.LVL254:
	lw	s2,0(sp)
	.cfi_restore 18
	mv	a0,s1
	lw	s1,4(sp)
	.cfi_restore 9
	addi	sp,sp,16
	.cfi_def_cfa_offset 0
	jr	ra
.LVL255:
.L75:
	.cfi_restore_state
	.loc 1 802 13 is_stmt 1
.LBB200:
.LBB196:
.LBB160:
.LBB161:
	.loc 1 592 10 is_stmt 0
	lui	a4,%hi(.LANCHOR8)
	addi	a4,a4,%lo(.LANCHOR8)
	sw	a4,12(s0)
.LBE161:
.LBE160:
.LBB166:
.LBB167:
	lui	a4,%hi(.LANCHOR9)
	addi	a4,a4,%lo(.LANCHOR9)
.LBE167:
.LBE166:
.LBE196:
.LBE200:
	.loc 1 802 23
	lui	a5,%hi(ecp_mod_p256)
.LBB201:
.LBB197:
.LBB171:
.LBB168:
	.loc 1 592 10
	sw	a4,36(s0)
.LBE168:
.LBE171:
.LBB172:
.LBB173:
	lui	a4,%hi(.LANCHOR10)
.LBE173:
.LBE172:
.LBE197:
.LBE201:
	.loc 1 802 23
	addi	a5,a5,%lo(ecp_mod_p256)
.LBB202:
.LBB198:
.LBB178:
.LBB174:
	.loc 1 592 10
	addi	a4,a4,%lo(.LANCHOR10)
.LBE174:
.LBE178:
.LBE198:
.LBE202:
	.loc 1 802 23
	sw	a5,100(s0)
	.loc 1 802 38 is_stmt 1
	.loc 1 803 13
.LVL256:
.LBB203:
.LBB199:
	.loc 1 617 5
.LBB179:
.LBB162:
	.loc 1 590 5
.LBE162:
.LBE179:
.LBB180:
.LBB175:
	.loc 1 592 10 is_stmt 0
	sw	a4,84(s0)
.LBE175:
.LBE180:
.LBB181:
.LBB163:
	.loc 1 591 10
	li	a5,8
.LBE163:
.LBE181:
.LBB182:
.LBB183:
	.loc 1 592 10
	lui	a4,%hi(.LANCHOR11)
.LBE183:
.LBE182:
.LBB186:
.LBB164:
	.loc 1 590 10
	li	s1,1
	.loc 1 591 10
	sw	a5,8(s0)
.LBE164:
.LBE186:
.LBB187:
.LBB169:
	sw	a5,32(s0)
.LBE169:
.LBE187:
.LBB188:
.LBB176:
	sw	a5,80(s0)
.LBE176:
.LBE188:
.LBB189:
.LBB184:
	sw	a5,44(s0)
	.loc 1 592 10
	addi	a4,a4,%lo(.LANCHOR11)
.LBE184:
.LBE189:
.LBB190:
.LBB156:
	.loc 1 591 10
	sw	a5,56(s0)
	.loc 1 592 10
	lui	a5,%hi(.LANCHOR12)
.LBE156:
.LBE190:
.LBB191:
.LBB165:
	.loc 1 590 10
	sw	s1,4(s0)
	.loc 1 591 5 is_stmt 1
	.loc 1 592 5
.LVL257:
.LBE165:
.LBE191:
	.loc 1 618 5
	.loc 1 620 5
.LBB192:
.LBB170:
	.loc 1 590 5
	.loc 1 590 10 is_stmt 0
	sw	s1,28(s0)
	.loc 1 591 5 is_stmt 1
	.loc 1 592 5
.LVL258:
.LBE170:
.LBE192:
	.loc 1 621 5
.LBB193:
.LBB177:
	.loc 1 590 5
	.loc 1 590 10 is_stmt 0
	sw	s1,76(s0)
	.loc 1 591 5 is_stmt 1
	.loc 1 592 5
.LVL259:
.LBE177:
.LBE193:
	.loc 1 623 5
.LBB194:
.LBB185:
	.loc 1 590 5
	.loc 1 590 10 is_stmt 0
	sw	s1,40(s0)
	.loc 1 591 5 is_stmt 1
	.loc 1 592 5
	.loc 1 592 10 is_stmt 0
	sw	a4,48(s0)
.LVL260:
.LBE185:
.LBE194:
	.loc 1 624 5 is_stmt 1
.LBB195:
.LBB157:
	.loc 1 590 5
	.loc 1 590 10 is_stmt 0
	sw	s1,52(s0)
	.loc 1 591 5 is_stmt 1
	.loc 1 592 5
	.loc 1 592 10 is_stmt 0
	addi	a5,a5,%lo(.LANCHOR12)
	j	.L80
.LVL261:
.L72:
.LBE157:
.LBE195:
.LBE199:
.LBE203:
	.loc 1 826 13 is_stmt 1
.LBB204:
.LBB205:
.LBB206:
.LBB207:
	.loc 1 592 10 is_stmt 0
	lui	a4,%hi(.LANCHOR13)
	addi	a4,a4,%lo(.LANCHOR13)
	sw	a4,12(s0)
.LBE207:
.LBE206:
.LBB212:
.LBB213:
	lui	a4,%hi(.LANCHOR14)
	addi	a4,a4,%lo(.LANCHOR14)
	sw	a4,24(s0)
.LBE213:
.LBE212:
.LBB215:
.LBB216:
	lui	a4,%hi(.LANCHOR15)
	addi	a4,a4,%lo(.LANCHOR15)
	sw	a4,36(s0)
.LBE216:
.LBE215:
.LBB218:
.LBB219:
	.loc 1 591 10
	li	a4,8
.LBE219:
.LBE218:
.LBE205:
.LBE204:
	.loc 1 826 23
	lui	a5,%hi(ecp_mod_p224k1)
.LBB247:
.LBB244:
.LBB224:
.LBB220:
	.loc 1 591 10
	sw	a4,80(s0)
	.loc 1 592 10
	lui	a4,%hi(.LANCHOR16)
.LBE220:
.LBE224:
.LBE244:
.LBE247:
	.loc 1 826 23
	addi	a5,a5,%lo(ecp_mod_p224k1)
.LBB248:
.LBB245:
.LBB225:
.LBB221:
	.loc 1 592 10
	addi	a4,a4,%lo(.LANCHOR16)
.LBE221:
.LBE225:
.LBE245:
.LBE248:
	.loc 1 826 23
	sw	a5,100(s0)
	.loc 1 827 13 is_stmt 1
.LVL262:
.LBB249:
.LBB246:
	.loc 1 617 5
.LBB226:
.LBB208:
	.loc 1 590 5
.LBE208:
.LBE226:
.LBB227:
.LBB222:
	.loc 1 592 10 is_stmt 0
	sw	a4,84(s0)
.LBE222:
.LBE227:
.LBB228:
.LBB209:
	.loc 1 591 10
	li	a5,7
.LBE209:
.LBE228:
.LBB229:
.LBB230:
	.loc 1 592 10
	lui	a4,%hi(.LANCHOR17)
.LBE230:
.LBE229:
.LBB233:
.LBB210:
	.loc 1 590 10
	li	s1,1
	.loc 1 591 10
	sw	a5,8(s0)
.LBE210:
.LBE233:
.LBB234:
.LBB231:
	sw	a5,44(s0)
	.loc 1 592 10
	addi	a4,a4,%lo(.LANCHOR17)
.LBE231:
.LBE234:
.LBB235:
.LBB236:
	.loc 1 591 10
	sw	a5,56(s0)
	.loc 1 592 10
	lui	a5,%hi(.LANCHOR18)
.LBE236:
.LBE235:
.LBB238:
.LBB211:
	.loc 1 590 10
	sw	s1,4(s0)
	.loc 1 591 5 is_stmt 1
	.loc 1 592 5
.LVL263:
.LBE211:
.LBE238:
	.loc 1 618 5
	.loc 1 619 9
.LBB239:
.LBB214:
	.loc 1 590 5
	.loc 1 590 10 is_stmt 0
	sw	s1,16(s0)
	.loc 1 591 5 is_stmt 1
	.loc 1 591 10 is_stmt 0
	sw	s1,20(s0)
	.loc 1 592 5 is_stmt 1
.LVL264:
.LBE214:
.LBE239:
	.loc 1 620 5
.LBB240:
.LBB217:
	.loc 1 590 5
	.loc 1 590 10 is_stmt 0
	sw	s1,28(s0)
	.loc 1 591 5 is_stmt 1
	.loc 1 591 10 is_stmt 0
	sw	s1,32(s0)
	.loc 1 592 5 is_stmt 1
.LVL265:
.LBE217:
.LBE240:
	.loc 1 621 5
.LBB241:
.LBB223:
	.loc 1 590 5
	.loc 1 590 10 is_stmt 0
	sw	s1,76(s0)
	.loc 1 591 5 is_stmt 1
	.loc 1 592 5
.LVL266:
.LBE223:
.LBE241:
	.loc 1 623 5
.LBB242:
.LBB232:
	.loc 1 590 5
	.loc 1 590 10 is_stmt 0
	sw	s1,40(s0)
	.loc 1 591 5 is_stmt 1
	.loc 1 592 5
	.loc 1 592 10 is_stmt 0
	sw	a4,48(s0)
.LVL267:
.LBE232:
.LBE242:
	.loc 1 624 5 is_stmt 1
.LBB243:
.LBB237:
	.loc 1 590 5
	.loc 1 590 10 is_stmt 0
	sw	s1,52(s0)
	.loc 1 591 5 is_stmt 1
	.loc 1 592 5
	.loc 1 592 10 is_stmt 0
	addi	a5,a5,%lo(.LANCHOR18)
	j	.L80
.LVL268:
.L70:
.LBE237:
.LBE243:
.LBE246:
.LBE249:
	.loc 1 832 13 is_stmt 1
.LBB250:
.LBB251:
.LBB252:
.LBB253:
	.loc 1 592 10 is_stmt 0
	lui	a4,%hi(.LANCHOR19)
	addi	a4,a4,%lo(.LANCHOR19)
	sw	a4,12(s0)
.LBE253:
.LBE252:
.LBB258:
.LBB259:
	lui	a4,%hi(.LANCHOR20)
	addi	a4,a4,%lo(.LANCHOR20)
	sw	a4,24(s0)
.LBE259:
.LBE258:
.LBB261:
.LBB262:
	lui	a4,%hi(.LANCHOR21)
	addi	a4,a4,%lo(.LANCHOR21)
.LBE262:
.LBE261:
.LBE251:
.LBE250:
	.loc 1 832 23
	lui	a5,%hi(ecp_mod_p256k1)
.LBB295:
.LBB292:
.LBB265:
.LBB263:
	.loc 1 592 10
	sw	a4,36(s0)
.LBE263:
.LBE265:
.LBB266:
.LBB267:
	lui	a4,%hi(.LANCHOR22)
.LBE267:
.LBE266:
.LBE292:
.LBE295:
	.loc 1 832 23
	addi	a5,a5,%lo(ecp_mod_p256k1)
.LBB296:
.LBB293:
.LBB272:
.LBB268:
	.loc 1 592 10
	addi	a4,a4,%lo(.LANCHOR22)
.LBE268:
.LBE272:
.LBE293:
.LBE296:
	.loc 1 832 23
	sw	a5,100(s0)
	.loc 1 833 13 is_stmt 1
.LVL269:
.LBB297:
.LBB294:
	.loc 1 617 5
.LBB273:
.LBB254:
	.loc 1 590 5
.LBE254:
.LBE273:
.LBB274:
.LBB269:
	.loc 1 592 10 is_stmt 0
	sw	a4,84(s0)
.LBE269:
.LBE274:
.LBB275:
.LBB255:
	.loc 1 591 10
	li	a5,8
.LBE255:
.LBE275:
.LBB276:
.LBB277:
	.loc 1 592 10
	lui	a4,%hi(.LANCHOR23)
.LBE277:
.LBE276:
.LBB280:
.LBB256:
	.loc 1 590 10
	li	s1,1
	.loc 1 591 10
	sw	a5,8(s0)
.LBE256:
.LBE280:
.LBB281:
.LBB270:
	sw	a5,80(s0)
.LBE270:
.LBE281:
.LBB282:
.LBB278:
	sw	a5,44(s0)
	.loc 1 592 10
	addi	a4,a4,%lo(.LANCHOR23)
.LBE278:
.LBE282:
.LBB283:
.LBB284:
	.loc 1 591 10
	sw	a5,56(s0)
	.loc 1 592 10
	lui	a5,%hi(.LANCHOR24)
.LBE284:
.LBE283:
.LBB286:
.LBB257:
	.loc 1 590 10
	sw	s1,4(s0)
	.loc 1 591 5 is_stmt 1
	.loc 1 592 5
.LVL270:
.LBE257:
.LBE286:
	.loc 1 618 5
	.loc 1 619 9
.LBB287:
.LBB260:
	.loc 1 590 5
	.loc 1 590 10 is_stmt 0
	sw	s1,16(s0)
	.loc 1 591 5 is_stmt 1
	.loc 1 591 10 is_stmt 0
	sw	s1,20(s0)
	.loc 1 592 5 is_stmt 1
.LVL271:
.LBE260:
.LBE287:
	.loc 1 620 5
.LBB288:
.LBB264:
	.loc 1 590 5
	.loc 1 590 10 is_stmt 0
	sw	s1,28(s0)
	.loc 1 591 5 is_stmt 1
	.loc 1 591 10 is_stmt 0
	sw	s1,32(s0)
	.loc 1 592 5 is_stmt 1
.LVL272:
.LBE264:
.LBE288:
	.loc 1 621 5
.LBB289:
.LBB271:
	.loc 1 590 5
	.loc 1 590 10 is_stmt 0
	sw	s1,76(s0)
	.loc 1 591 5 is_stmt 1
	.loc 1 592 5
.LVL273:
.LBE271:
.LBE289:
	.loc 1 623 5
.LBB290:
.LBB279:
	.loc 1 590 5
	.loc 1 590 10 is_stmt 0
	sw	s1,40(s0)
	.loc 1 591 5 is_stmt 1
	.loc 1 592 5
	.loc 1 592 10 is_stmt 0
	sw	a4,48(s0)
.LVL274:
.LBE279:
.LBE290:
	.loc 1 624 5 is_stmt 1
.LBB291:
.LBB285:
	.loc 1 590 5
	.loc 1 590 10 is_stmt 0
	sw	s1,52(s0)
	.loc 1 591 5 is_stmt 1
	.loc 1 592 5
	.loc 1 592 10 is_stmt 0
	addi	a5,a5,%lo(.LANCHOR24)
	j	.L80
.LVL275:
.L74:
.LBE285:
.LBE291:
.LBE294:
.LBE297:
	.loc 1 838 13 is_stmt 1
.LBB298:
.LBB299:
	.loc 1 617 5
.LBB300:
.LBB301:
	.loc 1 590 5
	.loc 1 592 10 is_stmt 0
	lui	a4,%hi(.LANCHOR25)
	addi	a4,a4,%lo(.LANCHOR25)
	sw	a4,12(s0)
.LBE301:
.LBE300:
.LBB305:
.LBB306:
	lui	a4,%hi(.LANCHOR26)
	addi	a4,a4,%lo(.LANCHOR26)
	sw	a4,24(s0)
.LBE306:
.LBE305:
.LBB309:
.LBB310:
	lui	a4,%hi(.LANCHOR27)
	addi	a4,a4,%lo(.LANCHOR27)
	sw	a4,36(s0)
.LBE310:
.LBE309:
.LBB313:
.LBB314:
	lui	a4,%hi(.LANCHOR28)
	addi	a4,a4,%lo(.LANCHOR28)
.LBE314:
.LBE313:
.LBB318:
.LBB302:
	.loc 1 591 10
	li	a5,8
.LBE302:
.LBE318:
.LBB319:
.LBB315:
	.loc 1 592 10
	sw	a4,84(s0)
.LBE315:
.LBE319:
.LBB320:
.LBB321:
	lui	a4,%hi(.LANCHOR29)
.LBE321:
.LBE320:
.LBB324:
.LBB303:
	.loc 1 590 10
	li	s1,1
	.loc 1 591 10
	sw	a5,8(s0)
.LBE303:
.LBE324:
.LBB325:
.LBB307:
	sw	a5,20(s0)
.LBE307:
.LBE325:
.LBB326:
.LBB311:
	sw	a5,32(s0)
.LBE311:
.LBE326:
.LBB327:
.LBB316:
	sw	a5,80(s0)
.LBE316:
.LBE327:
.LBB328:
.LBB322:
	sw	a5,44(s0)
	.loc 1 592 10
	addi	a4,a4,%lo(.LANCHOR29)
.LBE322:
.LBE328:
.LBB329:
.LBB330:
	.loc 1 591 10
	sw	a5,56(s0)
	.loc 1 592 10
	lui	a5,%hi(.LANCHOR30)
.LBE330:
.LBE329:
.LBB332:
.LBB304:
	.loc 1 590 10
	sw	s1,4(s0)
	.loc 1 591 5 is_stmt 1
	.loc 1 592 5
.LVL276:
.LBE304:
.LBE332:
	.loc 1 618 5
	.loc 1 619 9
.LBB333:
.LBB308:
	.loc 1 590 5
	.loc 1 590 10 is_stmt 0
	sw	s1,16(s0)
	.loc 1 591 5 is_stmt 1
	.loc 1 592 5
.LVL277:
.LBE308:
.LBE333:
	.loc 1 620 5
.LBB334:
.LBB312:
	.loc 1 590 5
	.loc 1 590 10 is_stmt 0
	sw	s1,28(s0)
	.loc 1 591 5 is_stmt 1
	.loc 1 592 5
.LVL278:
.LBE312:
.LBE334:
	.loc 1 621 5
.LBB335:
.LBB317:
	.loc 1 590 5
	.loc 1 590 10 is_stmt 0
	sw	s1,76(s0)
	.loc 1 591 5 is_stmt 1
	.loc 1 592 5
.LVL279:
.LBE317:
.LBE335:
	.loc 1 623 5
.LBB336:
.LBB323:
	.loc 1 590 5
	.loc 1 590 10 is_stmt 0
	sw	s1,40(s0)
	.loc 1 591 5 is_stmt 1
	.loc 1 592 5
	.loc 1 592 10 is_stmt 0
	sw	a4,48(s0)
.LVL280:
.LBE323:
.LBE336:
	.loc 1 624 5 is_stmt 1
.LBB337:
.LBB331:
	.loc 1 590 5
	.loc 1 590 10 is_stmt 0
	sw	s1,52(s0)
	.loc 1 591 5 is_stmt 1
	.loc 1 592 5
	.loc 1 592 10 is_stmt 0
	addi	a5,a5,%lo(.LANCHOR30)
	j	.L80
.LVL281:
.L73:
.LBE331:
.LBE337:
.LBE299:
.LBE298:
	.loc 1 853 13 is_stmt 1
	.loc 1 853 23 is_stmt 0
	lui	a5,%hi(ecp_mod_p255)
	addi	a5,a5,%lo(ecp_mod_p255)
.LBB338:
.LBB339:
	.loc 1 700 23
	lui	a2,%hi(.LC0)
.LBE339:
.LBE338:
	.loc 1 853 23
	sw	a5,100(s0)
	.loc 1 854 13 is_stmt 1
.LVL282:
.LBB342:
.LBB340:
	.loc 1 697 5
	.loc 1 700 5
	.loc 1 700 10
	.loc 1 700 23 is_stmt 0
	addi	a2,a2,%lo(.LC0)
	li	a1,16
	addi	a0,s0,16
	call	mbedtls_mpi_read_string
.LVL283:
	mv	s1,a0
.LVL284:
	.loc 1 700 12
	bne	a0,zero,.L78
	.loc 1 700 103 is_stmt 1
	.loc 1 703 5
	.loc 1 703 10
	.loc 1 703 23 is_stmt 0
	addi	s2,s0,4
	li	a1,1
	mv	a0,s2
	call	mbedtls_mpi_lset
.LVL285:
	mv	s1,a0
.LVL286:
	.loc 1 703 12
	bne	a0,zero,.L78
	.loc 1 703 85 is_stmt 1
	.loc 1 704 5
	.loc 1 704 10
	.loc 1 704 23 is_stmt 0
	li	a1,255
	mv	a0,s2
	call	mbedtls_mpi_shift_l
.LVL287:
	mv	s1,a0
.LVL288:
	.loc 1 704 12
	bne	a0,zero,.L78
	.loc 1 704 90 is_stmt 1
	.loc 1 705 5
	.loc 1 705 10
	.loc 1 705 23 is_stmt 0
	li	a2,19
	mv	a1,s2
	mv	a0,s2
	call	mbedtls_mpi_sub_int
.LVL289:
	mv	s1,a0
.LVL290:
	.loc 1 705 12
	bne	a0,zero,.L78
	.loc 1 705 98 is_stmt 1
	.loc 1 706 5
	.loc 1 706 18 is_stmt 0
	mv	a0,s2
	call	mbedtls_mpi_bitlen
.LVL291:
	.loc 1 709 23
	addi	s2,s0,76
	lui	a2,%hi(.LC1)
	.loc 1 706 16
	sw	a0,88(s0)
	.loc 1 709 5 is_stmt 1
	.loc 1 709 10
	.loc 1 709 23 is_stmt 0
	addi	a2,a2,%lo(.LC1)
	li	a1,16
	mv	a0,s2
	call	mbedtls_mpi_read_string
.LVL292:
	mv	s1,a0
.LVL293:
	.loc 1 709 12
	bne	a0,zero,.L78
	.loc 1 709 129 is_stmt 1
	.loc 1 711 5
	.loc 1 711 10
	.loc 1 711 23 is_stmt 0
	li	a2,1
	li	a1,252
	mv	a0,s2
	call	mbedtls_mpi_set_bit
.LVL294:
	mv	s1,a0
.LVL295:
	.loc 1 711 12
	bne	a0,zero,.L78
	.loc 1 711 93 is_stmt 1
	.loc 1 715 5
	.loc 1 715 10
	.loc 1 715 23 is_stmt 0
	li	a1,9
	addi	a0,s0,40
	call	mbedtls_mpi_lset
.LVL296:
	mv	s1,a0
.LVL297:
	.loc 1 715 12
	bne	a0,zero,.L78
	.loc 1 715 87 is_stmt 1
	.loc 1 716 5
	.loc 1 716 10
	.loc 1 716 23 is_stmt 0
	li	a1,1
	addi	a0,s0,64
	call	mbedtls_mpi_lset
.LVL298:
	mv	s1,a0
.LVL299:
	.loc 1 716 12
	bne	a0,zero,.L78
	.loc 1 716 87 is_stmt 1
	.loc 1 717 5
	addi	a0,s0,52
	call	mbedtls_mpi_free
.LVL300:
	.loc 1 720 5
	.loc 1 720 16 is_stmt 0
	li	a5,254
	sw	a5,92(s0)
.LVL301:
	.loc 1 723 5 is_stmt 1
	j	.L68
.LVL302:
.L69:
.LBE340:
.LBE342:
	.loc 1 864 13
	mv	a0,s0
	call	mbedtls_ecp_group_free
.LVL303:
	.loc 1 865 13
	.loc 1 865 19 is_stmt 0
	li	a0,-20480
	addi	s1,a0,384
	j	.L68
.LVL304:
.L78:
.LBB343:
.LBB341:
	.loc 1 723 5 is_stmt 1
	.loc 1 724 9
	mv	a0,s0
	call	mbedtls_ecp_group_free
.LVL305:
	j	.L68
.LBE341:
.LBE343:
	.cfi_endproc
.LFE8:
	.size	mbedtls_ecp_group_load, .-mbedtls_ecp_group_load
	.section	.rodata.brainpoolP256r1_a,"a"
	.align	2
	.set	.LANCHOR26,. + 0
	.type	brainpoolP256r1_a, @object
	.size	brainpoolP256r1_a, 32
brainpoolP256r1_a:
	.word	-214911527
	.word	-381007036
	.word	651975788
	.word	-75475519
	.word	1098579943
	.word	-285838032
	.word	-64212905
	.word	2103052661
	.section	.rodata.brainpoolP256r1_b,"a"
	.align	2
	.set	.LANCHOR27,. + 0
	.type	brainpoolP256r1_b, @object
	.size	brainpoolP256r1_b, 32
brainpoolP256r1_b:
	.word	-7600202
	.word	1808587800
	.word	1559749070
	.word	-1786505687
	.word	-1143505729
	.word	-214911527
	.word	-381007036
	.word	651975788
	.section	.rodata.brainpoolP256r1_gx,"a"
	.align	2
	.set	.LANCHOR29,. + 0
	.type	brainpoolP256r1_gx, @object
	.size	brainpoolP256r1_gx, 32
brainpoolP256r1_gx:
	.word	-1697762718
	.word	977556413
	.word	-474143806
	.word	-1176623135
	.word	-58607697
	.word	743131183
	.word	-880912437
	.word	-1949126983
	.section	.rodata.brainpoolP256r1_gy,"a"
	.align	2
	.set	.LANCHOR30,. + 0
	.type	brainpoolP256r1_gy, @object
	.size	brainpoolP256r1_gy, 32
brainpoolP256r1_gy:
	.word	788818327
	.word	1545426119
	.word	770543188
	.word	-1032370925
	.word	341908937
	.word	-1745336806
	.word	-1009072899
	.word	1417607221
	.section	.rodata.brainpoolP256r1_n,"a"
	.align	2
	.set	.LANCHOR28,. + 0
	.type	brainpoolP256r1_n, @object
	.size	brainpoolP256r1_n, 32
brainpoolP256r1_n:
	.word	-1756866905
	.word	-1877078398
	.word	-1251891465
	.word	-1942390109
	.word	-1652322959
	.word	1046874768
	.word	-1578194500
	.word	-1443145765
	.section	.rodata.brainpoolP256r1_p,"a"
	.align	2
	.set	.LANCHOR25,. + 0
	.type	brainpoolP256r1_p, @object
	.size	brainpoolP256r1_p, 32
brainpoolP256r1_p:
	.word	527324023
	.word	538134557
	.word	-718921688
	.word	1849423395
	.word	-1652322958
	.word	1046874768
	.word	-1578194500
	.word	-1443145765
	.section	.rodata.secp224k1_gx,"a"
	.align	2
	.set	.LANCHOR17,. + 0
	.type	secp224k1_gx, @object
	.size	secp224k1_gx, 28
secp224k1_gx:
	.word	-1229478820
	.word	259941646
	.word	-462391895
	.word	1772382185
	.word	821831841
	.word	1307613663
	.word	-1589290189
	.section	.rodata.secp224k1_gy,"a"
	.align	2
	.set	.LANCHOR18,. + 0
	.type	secp224k1_gy, @object
	.size	secp224k1_gy, 28
secp224k1_gy:
	.word	1433231781
	.word	-490058789
	.word	-1062159015
	.word	-136111625
	.word	-2100626474
	.word	2142909506
	.word	2114494445
	.section	.rodata.secp224k1_n,"a"
	.align	2
	.set	.LANCHOR16,. + 0
	.type	secp224k1_n, @object
	.size	secp224k1_n, 32
secp224k1_n:
	.word	1990177271
	.word	-890197647
	.word	-756260476
	.word	122088
	.word	0
	.word	0
	.word	0
	.word	1
	.section	.rodata.secp224k1_p,"a"
	.align	2
	.set	.LANCHOR13,. + 0
	.type	secp224k1_p, @object
	.size	secp224k1_p, 28
secp224k1_p:
	.word	-6803
	.word	-2
	.word	-1
	.word	-1
	.word	-1
	.word	-1
	.word	-1
	.section	.rodata.secp224r1_b,"a"
	.align	2
	.set	.LANCHOR3,. + 0
	.type	secp224r1_b, @object
	.size	secp224r1_b, 28
secp224r1_b:
	.word	592838580
	.word	655046979
	.word	-675292998
	.word	1346678967
	.word	-180276650
	.word	201634731
	.word	-1274738043
	.section	.rodata.secp224r1_gx,"a"
	.align	2
	.set	.LANCHOR5,. + 0
	.type	secp224r1_gx, @object
	.size	secp224r1_gx, 28
secp224r1_gx:
	.word	291249441
	.word	875725014
	.word	1455558946
	.word	1241760211
	.word	840143033
	.word	1807007615
	.word	-1223816003
	.section	.rodata.secp224r1_gy,"a"
	.align	2
	.set	.LANCHOR6,. + 0
	.type	secp224r1_gy, @object
	.size	secp224r1_gy, 28
secp224r1_gy:
	.word	-2063565260
	.word	1154843033
	.word	1510426468
	.word	-851216992
	.word	1277353958
	.word	-1242094597
	.word	-1120443512
	.section	.rodata.secp224r1_n,"a"
	.align	2
	.set	.LANCHOR4,. + 0
	.type	secp224r1_n, @object
	.size	secp224r1_n, 28
secp224r1_n:
	.word	1549543997
	.word	333261125
	.word	-524750786
	.word	-59742
	.word	-1
	.word	-1
	.word	-1
	.section	.rodata.secp224r1_p,"a"
	.align	2
	.set	.LANCHOR2,. + 0
	.type	secp224r1_p, @object
	.size	secp224r1_p, 32
secp224r1_p:
	.word	1
	.word	0
	.word	0
	.word	-1
	.word	-1
	.word	-1
	.word	-1
	.word	0
	.section	.rodata.secp256k1_gx,"a"
	.align	2
	.set	.LANCHOR23,. + 0
	.type	secp256k1_gx, @object
	.size	secp256k1_gx, 32
secp256k1_gx:
	.word	385357720
	.word	1509065051
	.word	768485593
	.word	43777243
	.word	-830010617
	.word	1436574357
	.word	-102974548
	.word	2042521214
	.section	.rodata.secp256k1_gy,"a"
	.align	2
	.set	.LANCHOR24,. + 0
	.type	secp256k1_gy, @object
	.size	secp256k1_gy, 32
secp256k1_gy:
	.word	-82783048
	.word	-1673015153
	.word	-1501211623
	.word	-48778168
	.word	235997352
	.word	1571093500
	.word	648266853
	.word	1211816567
	.section	.rodata.secp256k1_n,"a"
	.align	2
	.set	.LANCHOR22,. + 0
	.type	secp256k1_n, @object
	.size	secp256k1_n, 32
secp256k1_n:
	.word	-801750719
	.word	-1076732276
	.word	-1354194885
	.word	-1162945306
	.word	-2
	.word	-1
	.word	-1
	.word	-1
	.section	.rodata.secp256k1_p,"a"
	.align	2
	.set	.LANCHOR19,. + 0
	.type	secp256k1_p, @object
	.size	secp256k1_p, 32
secp256k1_p:
	.word	-977
	.word	-2
	.word	-1
	.word	-1
	.word	-1
	.word	-1
	.word	-1
	.word	-1
	.section	.rodata.secp256r1_b,"a"
	.align	2
	.set	.LANCHOR9,. + 0
	.type	secp256r1_b, @object
	.size	secp256r1_b, 32
secp256r1_b:
	.word	668098635
	.word	1003371582
	.word	-866930442
	.word	1696401072
	.word	1989707452
	.word	-1276396203
	.word	-1439001625
	.word	1522939352
	.section	.rodata.secp256r1_gx,"a"
	.align	2
	.set	.LANCHOR11,. + 0
	.type	secp256r1_gx, @object
	.size	secp256r1_gx, 32
secp256r1_gx:
	.word	-661077354
	.word	-190760635
	.word	770388896
	.word	1996717441
	.word	1671708914
	.word	-121837851
	.word	-517193145
	.word	1796723186
	.section	.rodata.secp256r1_gy,"a"
	.align	2
	.set	.LANCHOR12,. + 0
	.type	secp256r1_gy, @object
	.size	secp256r1_gy, 32
secp256r1_gy:
	.word	935285237
	.word	-877248408
	.word	1798397646
	.word	734933847
	.word	2081398294
	.word	-1897403574
	.word	-31817829
	.word	1340293858
	.section	.rodata.secp256r1_n,"a"
	.align	2
	.set	.LANCHOR10,. + 0
	.type	secp256r1_n, @object
	.size	secp256r1_n, 32
secp256r1_n:
	.word	-60611247
	.word	-205927742
	.word	-1491624316
	.word	-1125713235
	.word	-1
	.word	-1
	.word	0
	.word	-1
	.section	.rodata.secp256r1_p,"a"
	.align	2
	.set	.LANCHOR8,. + 0
	.type	secp256r1_p, @object
	.size	secp256r1_p, 32
secp256r1_p:
	.word	-1
	.word	-1
	.word	-1
	.word	0
	.word	0
	.word	0
	.word	1
	.word	-1
	.section	.sdata.Rp.1,"aw"
	.align	2
	.set	.LANCHOR0,. + 0
	.type	Rp.1, @object
	.size	Rp.1, 8
Rp.1:
	.word	6803
	.word	1
	.section	.sdata.Rp.2,"aw"
	.align	2
	.set	.LANCHOR1,. + 0
	.type	Rp.2, @object
	.size	Rp.2, 8
Rp.2:
	.word	977
	.word	1
	.section	.sdata.one.0,"aw"
	.align	2
	.set	.LANCHOR7,. + 0
	.type	one.0, @object
	.size	one.0, 4
one.0:
	.word	1
	.section	.srodata.secp224k1_a,"a"
	.align	2
	.set	.LANCHOR14,. + 0
	.type	secp224k1_a, @object
	.size	secp224k1_a, 4
secp224k1_a:
	.zero	4
	.section	.srodata.secp224k1_b,"a"
	.align	2
	.set	.LANCHOR15,. + 0
	.type	secp224k1_b, @object
	.size	secp224k1_b, 4
secp224k1_b:
	.word	5
	.section	.srodata.secp256k1_a,"a"
	.align	2
	.set	.LANCHOR20,. + 0
	.type	secp256k1_a, @object
	.size	secp256k1_a, 4
secp256k1_a:
	.zero	4
	.section	.srodata.secp256k1_b,"a"
	.align	2
	.set	.LANCHOR21,. + 0
	.type	secp256k1_b, @object
	.size	secp256k1_b, 4
secp256k1_b:
	.word	7
	.text
.Letext0:
	.file 2 "/mnt/d/GitHub/bl_iot_sdk_for_aithinker/toolchain/riscv/Linux/lib/gcc/riscv64-unknown-elf/10.2.0/include/stddef.h"
	.file 3 "/mnt/d/GitHub/bl_iot_sdk_for_aithinker/toolchain/riscv/Linux/lib/gcc/riscv64-unknown-elf/10.2.0/include/stdint-gcc.h"
	.file 4 "/mnt/d/GitHub/bl_iot_sdk_for_aithinker/components/security/mbedtls_lts/mbedtls/include/mbedtls/bignum.h"
	.file 5 "/mnt/d/GitHub/bl_iot_sdk_for_aithinker/components/security/mbedtls_lts/mbedtls/include/mbedtls/ecp.h"
	.file 6 "/mnt/d/GitHub/bl_iot_sdk_for_aithinker/toolchain/riscv/Linux/riscv64-unknown-elf/include/string.h"