	.file	"entropy.c"
	.option nopic
	.attribute arch, "rv32i2p0_m2p0_f2p0_c2p0"
	.attribute unaligned_access, 0
	.attribute stack_align, 16
	.text
.Ltext0:
	.cfi_sections	.debug_frame
	.section	.text.entropy_update,"ax",@progbits
	.align	1
	.type	entropy_update, @function
entropy_update:
.LFB7:
	.file 1 "/mnt/d/GitHub/bl_iot_sdk_for_aithinker/components/security/mbedtls_lts/mbedtls/library/entropy.c"
	.loc 1 212 1
	.cfi_startproc
.LVL0:
	.loc 1 213 5
	.loc 1 214 5
	.loc 1 215 5
	.loc 1 216 5
	.loc 1 212 1 is_stmt 0
	addi	sp,sp,-112
	.cfi_def_cfa_offset 112
	sw	s1,100(sp)
	sw	s2,96(sp)
	sw	s3,92(sp)
	sw	s4,88(sp)
	sw	ra,108(sp)
	sw	s0,104(sp)
	.cfi_offset 9, -12
	.cfi_offset 18, -16
	.cfi_offset 19, -20
	.cfi_offset 20, -24
	.cfi_offset 1, -4
	.cfi_offset 8, -8
	.loc 1 219 7
	li	a5,64
	.loc 1 212 1
	mv	s3,a0
	mv	s4,a1
	mv	s2,a2
.LVL1:
	.loc 1 217 5 is_stmt 1
	.loc 1 219 5
	.loc 1 212 1 is_stmt 0
	mv	s1,a3
	.loc 1 219 7
	bleu	a3,a5,.L2
	.loc 1 222 9 is_stmt 1
	.loc 1 222 21 is_stmt 0
	li	a3,0
.LVL2:
	addi	a2,sp,16
.LVL3:
	mv	a1,s1
.LVL4:
	mv	a0,s2
.LVL5:
	call	mbedtls_sha512_ret
.LVL6:
	mv	s0,a0
.LVL7:
	.loc 1 222 11
	bne	a0,zero,.L3
	.loc 1 228 11
	addi	s2,sp,16
.LVL8:
	.loc 1 229 17
	li	s1,64
.LVL9:
.L2:
	.loc 1 232 5 is_stmt 1
	.loc 1 241 7 is_stmt 0
	lw	a5,0(s3)
	.loc 1 232 15
	sb	s4,12(sp)
	.loc 1 233 5 is_stmt 1
	.loc 1 233 15 is_stmt 0
	sb	s1,13(sp)
	.loc 1 241 5 is_stmt 1
	.loc 1 242 17 is_stmt 0
	addi	s4,s3,8
	.loc 1 241 7
	beq	a5,zero,.L4
.L6:
	.loc 1 245 9 is_stmt 1
	.loc 1 245 34 is_stmt 0
	li	a5,1
	sw	a5,0(s3)
	.loc 1 246 5 is_stmt 1
	.loc 1 246 17 is_stmt 0
	li	a2,2
	addi	a1,sp,12
	mv	a0,s4
	call	mbedtls_sha512_update_ret
.LVL10:
	mv	s0,a0
.LVL11:
	.loc 1 246 7
	bne	a0,zero,.L3
	.loc 1 248 5 is_stmt 1
	.loc 1 248 11 is_stmt 0
	mv	a2,s1
	mv	a1,s2
	mv	a0,s4
	call	mbedtls_sha512_update_ret
.LVL12:
	mv	s0,a0
.LVL13:
	j	.L3
.LVL14:
.L4:
	.loc 1 242 17 discriminator 1
	li	a1,0
	mv	a0,s4
	call	mbedtls_sha512_starts_ret
.LVL15:
	mv	s0,a0
.LVL16:
	.loc 1 241 39 discriminator 1
	beq	a0,zero,.L6
.L3:
	.loc 1 261 5 is_stmt 1
	addi	a0,sp,16
	li	a1,64
	call	mbedtls_platform_zeroize
.LVL17:
	.loc 1 263 5
	.loc 1 264 1 is_stmt 0
	lw	ra,108(sp)
	.cfi_restore 1
	mv	a0,s0
	lw	s0,104(sp)
	.cfi_restore 8
.LVL18:
	lw	s1,100(sp)
	.cfi_restore 9
.LVL19:
	lw	s2,96(sp)
	.cfi_restore 18
.LVL20:
	lw	s3,92(sp)
	.cfi_restore 19
.LVL21:
	lw	s4,88(sp)
	.cfi_restore 20
	addi	sp,sp,112
	.cfi_def_cfa_offset 0
	jr	ra
	.cfi_endproc
.LFE7:
	.size	entropy_update, .-entropy_update
	.section	.text.entropy_gather_internal,"ax",@progbits
	.align	1
	.type	entropy_gather_internal, @function
entropy_gather_internal:
.LFB9:
	.loc 1 290 1 is_stmt 1
	.cfi_startproc
.LVL22:
	.loc 1 291 5
	.loc 1 292 5
	.loc 1 293 5
	.loc 1 295 5
	.loc 1 290 1 is_stmt 0
	addi	sp,sp,-176
	.cfi_def_cfa_offset 176
	sw	s0,168(sp)
	sw	ra,172(sp)
	sw	s1,164(sp)
	sw	s2,160(sp)
	sw	s3,156(sp)
	sw	s4,152(sp)
	sw	s5,148(sp)
	.cfi_offset 8, -8
	.cfi_offset 1, -4
	.cfi_offset 9, -12
	.cfi_offset 18, -16
	.cfi_offset 19, -20
	.cfi_offset 20, -24
	.cfi_offset 21, -28
	.loc 1 295 7
	lw	a5,224(a0)
	.loc 1 296 15
	li	s0,-64
	.loc 1 295 7
	beq	a5,zero,.L9
	mv	s2,a0
	addi	s1,a0,228
	.loc 1 291 17
	li	s4,0
	.loc 1 301 12
	li	s3,0
	.loc 1 303 11
	li	s5,1
.LVL23:
.L11:
	.loc 1 301 17 is_stmt 1 discriminator 1
	.loc 1 301 5 is_stmt 0 discriminator 1
	lw	a5,224(s2)
	bgt	a5,s3,.L15
	.loc 1 325 5 is_stmt 1
	.loc 1 328 1 is_stmt 0
	li	s0,0
	.loc 1 325 7
	bne	s4,zero,.L13
	.loc 1 326 13
	li	s0,-61
.LVL24:
.L13:
	.loc 1 329 5 is_stmt 1
	li	a1,128
	addi	a0,sp,16
	call	mbedtls_platform_zeroize
.LVL25:
	.loc 1 331 5
.L9:
	.loc 1 332 1 is_stmt 0
	lw	ra,172(sp)
	.cfi_remember_state
	.cfi_restore 1
	mv	a0,s0
	lw	s0,168(sp)
	.cfi_restore 8
	lw	s1,164(sp)
	.cfi_restore 9
	lw	s2,160(sp)
	.cfi_restore 18
	lw	s3,156(sp)
	.cfi_restore 19
	lw	s4,152(sp)
	.cfi_restore 20
	lw	s5,148(sp)
	.cfi_restore 21
	addi	sp,sp,176
	.cfi_def_cfa_offset 0
	jr	ra
.LVL26:
.L15:
	.cfi_restore_state
	.loc 1 303 9 is_stmt 1
	.loc 1 303 27 is_stmt 0
	lw	a5,16(s1)
	.loc 1 303 11
	bne	a5,s5,.L12
	.loc 1 304 29
	li	s4,1
.LVL27:
.L12:
	.loc 1 306 9 is_stmt 1
	.loc 1 307 21 is_stmt 0
	lw	a5,0(s1)
	lw	a0,4(s1)
	.loc 1 306 14
	sw	zero,12(sp)
	.loc 1 307 9 is_stmt 1
	.loc 1 307 21 is_stmt 0
	addi	a3,sp,12
	li	a2,128
	addi	a1,sp,16
	jalr	a5
.LVL28:
	mv	s0,a0
.LVL29:
	.loc 1 307 11
	bne	a0,zero,.L13
	.loc 1 316 9 is_stmt 1
	.loc 1 316 18 is_stmt 0
	lw	a3,12(sp)
	.loc 1 316 11
	beq	a3,zero,.L14
	.loc 1 318 13 is_stmt 1
	.loc 1 318 25 is_stmt 0
	addi	a2,sp,16
	andi	a1,s3,0xff
	mv	a0,s2
	call	entropy_update
.LVL30:
	mv	s0,a0
.LVL31:
	.loc 1 318 15
	bne	a0,zero,.L9
	.loc 1 321 13 is_stmt 1
	.loc 1 321 33 is_stmt 0
	lw	a5,8(s1)
	lw	a4,12(sp)
	add	a5,a5,a4
	sw	a5,8(s1)
.L14:
.LVL32:
	.loc 1 301 40 is_stmt 1 discriminator 2
	.loc 1 301 41 is_stmt 0 discriminator 2
	addi	s3,s3,1
.LVL33:
	addi	s1,s1,20
	j	.L11
	.cfi_endproc
.LFE9:
	.size	entropy_gather_internal, .-entropy_gather_internal
	.section	.text.mbedtls_entropy_func.part.0,"ax",@progbits
	.align	1
	.type	mbedtls_entropy_func.part.0, @function
mbedtls_entropy_func.part.0:
.LFB14:
	.loc 1 356 5 is_stmt 1
	.cfi_startproc
.LVL34:
	addi	sp,sp,-96
	.cfi_def_cfa_offset 96
	sw	s1,84(sp)
	sw	s2,80(sp)
	sw	s4,72(sp)
	sw	s5,68(sp)
	sw	ra,92(sp)
	sw	s0,88(sp)
	sw	s3,76(sp)
	.cfi_offset 9, -12
	.cfi_offset 18, -16
	.cfi_offset 20, -24
	.cfi_offset 21, -28
	.cfi_offset 1, -4
	.cfi_offset 8, -8
	.cfi_offset 19, -20
	.loc 1 356 5 is_stmt 0
	mv	s1,a0
	mv	s4,a1
	mv	s5,a2
	li	s2,258
.LVL35:
.L27:
	.loc 1 385 5 is_stmt 1
	.loc 1 387 9
	.loc 1 387 11 is_stmt 0
	addi	s2,s2,-1
.LVL36:
	beq	s2,zero,.L30
.LVL37:
	.loc 1 393 9 is_stmt 1
	.loc 1 393 21 is_stmt 0
	mv	a0,s1
	call	entropy_gather_internal
.LVL38:
	mv	s0,a0
.LVL39:
	.loc 1 393 11
	bne	a0,zero,.L23
	.loc 1 397 28
	lw	a2,224(s1)
	addi	s3,s1,236
	mv	a5,s3
	.loc 1 397 16
	li	a4,0
	.loc 1 396 14
	li	a3,1
.L24:
.LVL40:
	.loc 1 397 21 is_stmt 1
	.loc 1 397 9 is_stmt 0
	blt	a4,a2,.L26
	.loc 1 401 10 is_stmt 1
	.loc 1 401 5 is_stmt 0
	beq	a3,zero,.L27
	.loc 1 403 5 is_stmt 1
	li	a2,64
	li	a1,0
	mv	a0,sp
	call	memset
.LVL41:
	.loc 1 411 5
	.loc 1 411 17 is_stmt 0
	addi	s2,s1,8
.LVL42:
	mv	a1,sp
	mv	a0,s2
	call	mbedtls_sha512_finish_ret
.LVL43:
	mv	s0,a0
.LVL44:
	.loc 1 411 7
	bne	a0,zero,.L23
	.loc 1 417 5 is_stmt 1
	mv	a0,s2
	call	mbedtls_sha512_free
.LVL45:
	.loc 1 418 5
	mv	a0,s2
	call	mbedtls_sha512_init
.LVL46:
	.loc 1 419 5
	.loc 1 419 17 is_stmt 0
	li	a1,0
	mv	a0,s2
	call	mbedtls_sha512_starts_ret
.LVL47:
	mv	s0,a0
.LVL48:
	.loc 1 419 7
	bne	a0,zero,.L23
	.loc 1 421 5 is_stmt 1
	.loc 1 421 17 is_stmt 0
	li	a2,64
	mv	a1,sp
	mv	a0,s2
	call	mbedtls_sha512_update_ret
.LVL49:
	mv	s0,a0
.LVL50:
	.loc 1 421 7
	bne	a0,zero,.L23
	.loc 1 428 5 is_stmt 1
	.loc 1 428 17 is_stmt 0
	li	a3,0
	mv	a2,sp
	li	a1,64
	mv	a0,sp
	call	mbedtls_sha512_ret
.LVL51:
	mv	s0,a0
.LVL52:
	.loc 1 428 7
	bne	a0,zero,.L23
	.loc 1 454 24
	lw	a4,224(s1)
	.loc 1 454 12
	li	a5,0
.L28:
.LVL53:
	.loc 1 454 17 is_stmt 1
	.loc 1 454 5 is_stmt 0
	blt	a5,a4,.L29
	.loc 1 457 5 is_stmt 1
	mv	a2,s5
	mv	a1,sp
	mv	a0,s4
	call	memcpy
.LVL54:
	.loc 1 459 5
.L23:
	.loc 1 462 5
	mv	a0,sp
	li	a1,64
	call	mbedtls_platform_zeroize
.LVL55:
	.loc 1 469 5
	.loc 1 470 1 is_stmt 0
	lw	ra,92(sp)
	.cfi_remember_state
	.cfi_restore 1
	mv	a0,s0
	lw	s0,88(sp)
	.cfi_restore 8
.LVL56:
	lw	s1,84(sp)
	.cfi_restore 9
.LVL57:
	lw	s2,80(sp)
	.cfi_restore 18
	lw	s3,76(sp)
	.cfi_restore 19
	lw	s4,72(sp)
	.cfi_restore 20
.LVL58:
	lw	s5,68(sp)
	.cfi_restore 21
.LVL59:
	addi	sp,sp,96
	.cfi_def_cfa_offset 0
	jr	ra
.LVL60:
.L26:
	.cfi_restore_state
	.loc 1 398 13 is_stmt 1
	.loc 1 398 15 is_stmt 0
	lw	a0,0(a5)
	lw	a1,4(a5)
	bgeu	a0,a1,.L25
	.loc 1 399 22
	li	a3,0
.LVL61:
.L25:
	.loc 1 397 44 is_stmt 1
	.loc 1 397 45 is_stmt 0
	addi	a4,a4,1
.LVL62:
	addi	a5,a5,20
	j	.L24
.LVL63:
.L29:
	.loc 1 455 9 is_stmt 1
	.loc 1 455 29 is_stmt 0
	sw	zero,0(s3)
	.loc 1 454 40 is_stmt 1
	.loc 1 454 41 is_stmt 0
	addi	a5,a5,1
.LVL64:
	addi	s3,s3,20
	j	.L28
.LVL65:
.L30:
	.loc 1 389 17
	li	s0,-60
	j	.L23
	.cfi_endproc
.LFE14:
	.size	mbedtls_entropy_func.part.0, .-mbedtls_entropy_func.part.0
	.section	.text.mbedtls_entropy_free,"ax",@progbits
	.align	1
	.globl	mbedtls_entropy_free
	.type	mbedtls_entropy_free, @function
mbedtls_entropy_free:
.LFB5:
	.loc 1 148 1 is_stmt 1
	.cfi_startproc
.LVL66:
	.loc 1 151 5
	.loc 1 148 1 is_stmt 0
	addi	sp,sp,-16
	.cfi_def_cfa_offset 16
	sw	s1,4(sp)
	sw	ra,12(sp)
	sw	s0,8(sp)
	.cfi_offset 9, -12
	.cfi_offset 1, -4
	.cfi_offset 8, -8
	.loc 1 151 7
	lw	a5,0(a0)
	li	s1,-1
	beq	a5,s1,.L34
	mv	s0,a0
	.loc 1 161 5 is_stmt 1
	addi	a0,a0,8
.LVL67:
	call	mbedtls_sha512_free
.LVL68:
	.loc 1 168 5
	.loc 1 169 5 is_stmt 0
	li	a1,400
	.loc 1 168 23
	sw	zero,224(s0)
	.loc 1 169 5 is_stmt 1
	addi	a0,s0,228
	call	mbedtls_platform_zeroize
.LVL69:
	.loc 1 170 5
	.loc 1 170 30 is_stmt 0
	sw	s1,0(s0)
.LVL70:
.L34:
	.loc 1 171 1
	lw	ra,12(sp)
	.cfi_restore 1
	lw	s0,8(sp)
	.cfi_restore 8
	lw	s1,4(sp)
	.cfi_restore 9
	addi	sp,sp,16
	.cfi_def_cfa_offset 0
	jr	ra
	.cfi_endproc
.LFE5:
	.size	mbedtls_entropy_free, .-mbedtls_entropy_free
	.section	.text.mbedtls_entropy_add_source,"ax",@progbits
	.align	1
	.globl	mbedtls_entropy_add_source
	.type	mbedtls_entropy_add_source, @function
mbedtls_entropy_add_source:
.LFB6:
	.loc 1 176 1 is_stmt 1
	.cfi_startproc
.LVL71:
	.loc 1 177 5
	.loc 1 184 5
	.loc 1 184 9 is_stmt 0
	lw	a6,224(a0)
.LVL72:
	.loc 1 185 5 is_stmt 1
	.loc 1 185 7 is_stmt 0
	li	a5,19
	bgt	a6,a5,.L39
	.loc 1 191 5 is_stmt 1
	.loc 1 191 31 is_stmt 0
	li	a5,20
	mul	a5,a6,a5
	.loc 1 196 22
	addi	a6,a6,1
.LVL73:
	.loc 1 191 31
	add	a5,a0,a5
	addi	a5,a5,128
	sw	a1,100(a5)
.LVL74:
	.loc 1 192 5 is_stmt 1
	.loc 1 192 31 is_stmt 0
	sw	a2,104(a5)
	.loc 1 193 5 is_stmt 1
	.loc 1 193 32 is_stmt 0
	sw	a3,112(a5)
	.loc 1 194 5 is_stmt 1
	.loc 1 194 29 is_stmt 0
	sw	a4,116(a5)
	.loc 1 196 5 is_stmt 1
	.loc 1 196 22 is_stmt 0
	sw	a6,224(a0)
	.loc 1 177 14
	li	a0,0
.LVL75:
	ret
.LVL76:
.L39:
.L38:
	.loc 1 204 5 is_stmt 1
	.loc 1 187 13 is_stmt 0
	li	a0,-62
.LVL77:
	.loc 1 205 1
	ret
	.cfi_endproc
.LFE6:
	.size	mbedtls_entropy_add_source, .-mbedtls_entropy_add_source
	.section	.text.mbedtls_entropy_init,"ax",@progbits
	.align	1
	.globl	mbedtls_entropy_init
	.type	mbedtls_entropy_init, @function
mbedtls_entropy_init:
.LFB4:
	.loc 1 91 1 is_stmt 1
	.cfi_startproc
.LVL78:
	.loc 1 92 5
	.loc 1 91 1 is_stmt 0
	addi	sp,sp,-16
	.cfi_def_cfa_offset 16
	sw	ra,12(sp)
	sw	s0,8(sp)
	.cfi_offset 1, -4
	.cfi_offset 8, -8
	.loc 1 93 5
	li	a2,400
	.loc 1 91 1
	mv	s0,a0
	.loc 1 93 5
	li	a1,0
	.loc 1 92 23
	sw	zero,224(a0)
	.loc 1 93 5 is_stmt 1
	addi	a0,a0,228
.LVL79:
	call	memset
.LVL80:
	.loc 1 99 5
	.loc 1 101 5 is_stmt 0
	addi	a0,s0,8
	.loc 1 99 30
	sw	zero,0(s0)
	.loc 1 101 5 is_stmt 1
	call	mbedtls_sha512_init
.LVL81:
	.loc 1 119 5
	mv	a0,s0
	.loc 1 145 1 is_stmt 0
	lw	s0,8(sp)
	.cfi_restore 8
.LVL82:
	lw	ra,12(sp)
	.cfi_restore 1
	.loc 1 119 5
	lui	a1,%hi(mbedtls_platform_entropy_poll)
	.loc 1 145 1
	.loc 1 119 5
	li	a4,1
	li	a3,32
	li	a2,0
	addi	a1,a1,%lo(mbedtls_platform_entropy_poll)
	.loc 1 145 1
	addi	sp,sp,16
	.cfi_def_cfa_offset 0
	.loc 1 119 5
	tail	mbedtls_entropy_add_source
.LVL83:
	.cfi_endproc
.LFE4:
	.size	mbedtls_entropy_init, .-mbedtls_entropy_init
	.section	.text.mbedtls_entropy_update_manual,"ax",@progbits
	.align	1
	.globl	mbedtls_entropy_update_manual
	.type	mbedtls_entropy_update_manual, @function
mbedtls_entropy_update_manual:
.LFB8:
	.loc 1 268 1 is_stmt 1
	.cfi_startproc
.LVL84:
	.loc 1 269 5
	.loc 1 276 5
	.loc 1 268 1 is_stmt 0
	mv	a3,a2
	.loc 1 276 11
	mv	a2,a1
.LVL85:
	li	a1,20
.LVL86:
	tail	entropy_update
.LVL87:
	.cfi_endproc
.LFE8:
	.size	mbedtls_entropy_update_manual, .-mbedtls_entropy_update_manual
	.section	.text.mbedtls_entropy_gather,"ax",@progbits
	.align	1
	.globl	mbedtls_entropy_gather
	.type	mbedtls_entropy_gather, @function
mbedtls_entropy_gather:
.LFB10:
	.loc 1 338 1 is_stmt 1
	.cfi_startproc
.LVL88:
	.loc 1 339 5
	.loc 1 346 5
	.loc 1 346 11 is_stmt 0
	tail	entropy_gather_internal
.LVL89:
	.cfi_endproc
.LFE10:
	.size	mbedtls_entropy_gather, .-mbedtls_entropy_gather
	.section	.text.mbedtls_entropy_func,"ax",@progbits
	.align	1
	.globl	mbedtls_entropy_func
	.type	mbedtls_entropy_func, @function
mbedtls_entropy_func:
.LFB11:
	.loc 1 357 1 is_stmt 1
	.cfi_startproc
.LVL90:
	.loc 1 358 5
	.loc 1 359 5
	.loc 1 360 5
	.loc 1 362 5
	.loc 1 362 7 is_stmt 0
	li	a5,64
	bgtu	a2,a5,.L45
	tail	mbedtls_entropy_func.part.0
.LVL91:
.L45:
	.loc 1 470 1
	li	a0,-60
.LVL92:
	ret
	.cfi_endproc
.LFE11:
	.size	mbedtls_entropy_func, .-mbedtls_entropy_func
	.section	.rodata.mbedtls_entropy_write_seed_file.str1.4,"aMS",@progbits,1
	.align	2
.LC0:
	.string	"wb"
	.section	.text.mbedtls_entropy_write_seed_file,"ax",@progbits
	.align	1
	.globl	mbedtls_entropy_write_seed_file
	.type	mbedtls_entropy_write_seed_file, @function
mbedtls_entropy_write_seed_file:
.LFB12:
	.loc 1 495 1 is_stmt 1
	.cfi_startproc
.LVL93:
	.loc 1 496 5
	.loc 1 497 5
	.loc 1 498 5
	.loc 1 500 5
	.loc 1 495 1 is_stmt 0
	addi	sp,sp,-80
	.cfi_def_cfa_offset 80
	sw	s0,72(sp)
	.cfi_offset 8, -8
	mv	s0,a0
	mv	a0,a1
.LVL94:
	.loc 1 500 15
	lui	a1,%hi(.LC0)
.LVL95:
	addi	a1,a1,%lo(.LC0)
	.loc 1 495 1
	sw	ra,76(sp)
	sw	s1,68(sp)
	.cfi_offset 1, -4
	.cfi_offset 9, -12
	.loc 1 500 15
	call	fopen
.LVL96:
	.loc 1 500 7
	beq	a0,zero,.L49
	mv	s1,a0
	.loc 1 503 5 is_stmt 1
.LVL97:
.LBB4:
.LBB5:
	.loc 1 358 5
	.loc 1 359 5
	.loc 1 360 5
	.loc 1 362 5
	li	a2,64
	mv	a0,s0
.LVL98:
	mv	a1,sp
	call	mbedtls_entropy_func.part.0
.LVL99:
	mv	s0,a0
.LVL100:
.LBE5:
.LBE4:
	.loc 1 503 7 is_stmt 0
	bne	a0,zero,.L48
	.loc 1 506 5 is_stmt 1
	.loc 1 506 9 is_stmt 0
	mv	a3,s1
	li	a2,64
	li	a1,1
	mv	a0,sp
	call	fwrite
.LVL101:
	.loc 1 506 7
	li	a5,64
	beq	a0,a5,.L48
	.loc 1 508 13
	li	s0,-63
.LVL102:
.L48:
	.loc 1 515 5 is_stmt 1
	mv	a0,sp
	li	a1,64
	call	mbedtls_platform_zeroize
.LVL103:
	.loc 1 517 5
	mv	a0,s1
	call	fclose
.LVL104:
	.loc 1 518 5
.L46:
	.loc 1 519 1 is_stmt 0
	lw	ra,76(sp)
	.cfi_remember_state
	.cfi_restore 1
	mv	a0,s0
	lw	s0,72(sp)
	.cfi_restore 8
	lw	s1,68(sp)
	.cfi_restore 9
	addi	sp,sp,80
	.cfi_def_cfa_offset 0
	jr	ra
.LVL105:
.L49:
	.cfi_restore_state
	.loc 1 501 15
	li	s0,-63
.LVL106:
	j	.L46
	.cfi_endproc
.LFE12:
	.size	mbedtls_entropy_write_seed_file, .-mbedtls_entropy_write_seed_file
	.section	.rodata.mbedtls_entropy_update_seed_file.str1.4,"aMS",@progbits,1
	.align	2
.LC1:
	.string	"rb"
	.section	.text.mbedtls_entropy_update_seed_file,"ax",@progbits
	.align	1
	.globl	mbedtls_entropy_update_seed_file
	.type	mbedtls_entropy_update_seed_file, @function
mbedtls_entropy_update_seed_file:
.LFB13:
	.loc 1 522 1 is_stmt 1
	.cfi_startproc
.LVL107:
	.loc 1 523 5
	.loc 1 524 5
	.loc 1 525 5
	.loc 1 526 5
	.loc 1 528 5
	.loc 1 522 1 is_stmt 0
	addi	sp,sp,-1072
	.cfi_def_cfa_offset 1072
	sw	s3,1052(sp)
	.cfi_offset 19, -20
	mv	s3,a1
	.loc 1 528 15
	lui	a1,%hi(.LC1)
.LVL108:
	.loc 1 522 1
	sw	s2,1056(sp)
	.loc 1 528 15
	addi	a1,a1,%lo(.LC1)
	.cfi_offset 18, -16
	.loc 1 522 1
	mv	s2,a0
	.loc 1 528 15
	mv	a0,s3
.LVL109:
	.loc 1 522 1
	sw	s0,1064(sp)
	sw	ra,1068(sp)
	sw	s1,1060(sp)
	.cfi_offset 8, -8
	.cfi_offset 1, -4
	.cfi_offset 9, -12
	.loc 1 528 15
	call	fopen
.LVL110:
	.loc 1 529 15
	li	s0,-63
	.loc 1 528 7
	beq	a0,zero,.L51
	.loc 1 531 5
	li	a2,2
	li	a1,0
	mv	s1,a0
	.loc 1 531 5 is_stmt 1
	call	fseek
.LVL111:
	.loc 1 532 5
	.loc 1 532 18 is_stmt 0
	mv	a0,s1
	call	ftell
.LVL112:
	mv	s0,a0
.LVL113:
	.loc 1 533 5 is_stmt 1
	li	a2,0
	li	a1,0
	mv	a0,s1
	call	fseek
.LVL114:
	.loc 1 535 5
	li	a5,1024
	mv	a2,s0
	bleu	s0,a5,.L53
	li	a2,1024
.L53:
.LVL115:
	.loc 1 538 5
	.loc 1 538 9 is_stmt 0
	mv	a3,s1
	li	a1,1
	addi	a0,sp,16
	sw	a2,12(sp)
	call	fread
.LVL116:
	.loc 1 538 7
	lw	a2,12(sp)
	.loc 1 539 13
	li	s0,-63
	.loc 1 538 7
	bne	a0,a2,.L54
	.loc 1 541 9 is_stmt 1
	.loc 1 541 15 is_stmt 0
	addi	a1,sp,16
	mv	a0,s2
	call	mbedtls_entropy_update_manual
.LVL117:
	mv	s0,a0
.LVL118:
.L54:
	.loc 1 543 5 is_stmt 1
	mv	a0,s1
	call	fclose
.LVL119:
	.loc 1 545 5
	li	a1,1024
	addi	a0,sp,16
	call	mbedtls_platform_zeroize
.LVL120:
	.loc 1 547 5
	.loc 1 547 7 is_stmt 0
	bne	s0,zero,.L51
	.loc 1 550 5 is_stmt 1
	.loc 1 550 13 is_stmt 0
	mv	a1,s3
	mv	a0,s2
	call	mbedtls_entropy_write_seed_file
.LVL121:
	mv	s0,a0
.LVL122:
.L51:
	.loc 1 551 1
	lw	ra,1068(sp)
	.cfi_restore 1
	mv	a0,s0
	lw	s0,1064(sp)
	.cfi_restore 8
	lw	s1,1060(sp)
	.cfi_restore 9
	lw	s2,1056(sp)
	.cfi_restore 18
.LVL123:
	lw	s3,1052(sp)
	.cfi_restore 19
.LVL124:
	addi	sp,sp,1072
	.cfi_def_cfa_offset 0
	jr	ra
	.cfi_endproc
.LFE13:
	.size	mbedtls_entropy_update_seed_file, .-mbedtls_entropy_update_seed_file
	.text
.Letext0:
	.file 2 "/mnt/d/GitHub/bl_iot_sdk_for_aithinker/toolchain/riscv/Linux/lib/gcc/riscv64-unknown-elf/10.2.0/include/stddef.h"
	.file 3 "/mnt/d/GitHub/bl_iot_sdk_for_aithinker/toolchain/riscv/Linux/lib/gcc/riscv64-unknown-elf/10.2.0/include/stdint-gcc.h"
	.file 4 "/mnt/d/GitHub/bl_iot_sdk_for_aithinker/components/security/mbedtls_lts/mbedtls/include/mbedtls/sha512.h"
	.file 5 "/mnt/d/GitHub/bl_iot_sdk_for_aithinker/components/security/mbedtls_lts/mbedtls/include/mbedtls/entropy.h"
	.file 6 "/mnt/d/GitHub/bl_iot_sdk_for_aithinker/toolchain/riscv/Linux/riscv64-unknown-elf/include/sys/_types.h"
	.file 7 "/mnt/d/GitHub/bl_iot_sdk_for_aithinker/toolchain/riscv/Linux/riscv64-unknown-elf/include/sys/reent.h"
	.file 8 "/mnt/d/GitHub/bl_iot_sdk_for_aithinker/toolchain/riscv/Linux/riscv64-unknown-elf/include/sys/lock.h"
	.file 9 "/mnt/d/GitHub/bl_iot_sdk_for_aithinker/toolchain/riscv/Linux/riscv64-unknown-elf/include/stdio.h"
	.file 10 "/mnt/d/GitHub/bl_iot_sdk_for_aithinker/components/security/mbedtls_lts/mbedtls/include/mbedtls/platform_util.h"
	.file 11 "/mnt/d/GitHub/bl_iot_sdk_for_aithinker/toolchain/riscv/Linux/riscv64-unknown-elf/include/string.h"