	.file	"error.c"
	.option nopic
	.attribute arch, "rv32i2p0_m2p0_f2p0_c2p0"
	.attribute unaligned_access, 0
	.attribute stack_align, 16
	.text
.Ltext0:
	.cfi_sections	.debug_frame
	.section	.rodata.mbedtls_strerror.str1.4,"aMS",@progbits,1
	.align	2
.LC0:
	.string	"CIPHER - The selected feature is not available"
	.align	2
.LC1:
	.string	"CIPHER - Bad input parameters"
	.align	2
.LC2:
	.string	"CIPHER - Failed to allocate memory"
	.align	2
.LC3:
	.string	"CIPHER - Input data contains invalid padding and is rejected"
	.align	2
.LC4:
	.string	"CIPHER - Decryption of block requires a full block"
	.align	2
.LC5:
	.string	"CIPHER - Authentication failed (for AEAD modes)"
	.align	2
.LC6:
	.string	"CIPHER - The context is invalid. For example, because it was freed"
	.align	2
.LC7:
	.string	"CIPHER - Cipher hardware accelerator failed"
	.align	2
.LC8:
	.string	"DHM - Bad input parameters"
	.align	2
.LC9:
	.string	"DHM - Reading of the DHM parameters failed"
	.align	2
.LC10:
	.string	"DHM - Making of the DHM parameters failed"
	.align	2
.LC11:
	.string	"DHM - Reading of the public values failed"
	.align	2
.LC12:
	.string	"DHM - Making of the public value failed"
	.align	2
.LC13:
	.string	"DHM - Calculation of the DHM secret failed"
	.align	2
.LC14:
	.string	"DHM - The ASN.1 data is not formatted correctly"
	.align	2
.LC15:
	.string	"DHM - Allocation of memory failed"
	.align	2
.LC16:
	.string	"DHM - Read or write of file failed"
	.align	2
.LC17:
	.string	"DHM - DHM hardware accelerator failed"
	.align	2
.LC18:
	.string	"DHM - Setting the modulus and generator failed"
	.align	2
.LC19:
	.string	"ECP - Bad input parameters to function"
	.align	2
.LC20:
	.string	"ECP - The buffer is too small to write to"
	.align	2
.LC21:
	.string	"ECP - The requested feature is not available, for example, the requested curve is not supported"
	.align	2
.LC22:
	.string	"ECP - The signature is not valid"
	.align	2
.LC23:
	.string	"ECP - Memory allocation failed"
	.align	2
.LC24:
	.string	"ECP - Generation of random value, such as ephemeral key, failed"
	.align	2
.LC25:
	.string	"ECP - Invalid private or public key"
	.align	2
.LC26:
	.string	"ECP - The buffer contains a valid signature followed by more data"
	.align	2
.LC27:
	.string	"ECP - The ECP hardware accelerator failed"
	.align	2
.LC28:
	.string	"ECP - Operation in progress, call again with the same parameters to continue"
	.align	2
.LC29:
	.string	"MD - The selected feature is not available"
	.align	2
.LC30:
	.string	"MD - Bad input parameters to function"
	.align	2
.LC31:
	.string	"MD - Failed to allocate memory"
	.align	2
.LC32:
	.string	"MD - Opening or reading of file failed"
	.align	2
.LC33:
	.string	"MD - MD hardware accelerator failed"
	.align	2
.LC34:
	.string	"PEM - No PEM header or footer found"
	.align	2
.LC35:
	.string	"PEM - PEM string is not as expected"
	.align	2
.LC36:
	.string	"PEM - Failed to allocate memory"
	.align	2
.LC37:
	.string	"PEM - RSA IV is not in hex-format"
	.align	2
.LC38:
	.string	"PEM - Unsupported key encryption algorithm"
	.align	2
.LC39:
	.string	"PEM - Private key password can't be empty"
	.align	2
.LC40:
	.string	"PEM - Given private key password does not allow for correct decryption"
	.align	2
.LC41:
	.string	"PEM - Unavailable feature, e.g. hashing/encryption combination"
	.align	2
.LC42:
	.string	"PEM - Bad input parameters to function"
	.align	2
.LC43:
	.string	"PK - Memory allocation failed"
	.align	2
.LC44:
	.string	"PK - Type mismatch, eg attempt to encrypt with an ECDSA key"
	.align	2
.LC45:
	.string	"PK - Bad input parameters to function"
	.align	2
.LC46:
	.string	"PK - Read/write of file failed"
	.align	2
.LC47:
	.string	"PK - Unsupported key version"
	.align	2
.LC48:
	.string	"PK - Invalid key tag or value"
	.align	2
.LC49:
	.string	"PK - Key algorithm is unsupported (only RSA and EC are supported)"
	.align	2
.LC50:
	.string	"PK - Private key password can't be empty"
	.align	2
.LC51:
	.string	"PK - Given private key password does not allow for correct decryption"
	.align	2
.LC52:
	.string	"PK - The pubkey tag or value is invalid (only RSA and EC are supported)"
	.align	2
.LC53:
	.string	"PK - The algorithm tag or value is invalid"
	.align	2
.LC54:
	.string	"PK - Elliptic curve is unsupported (only NIST curves are supported)"
	.align	2
.LC55:
	.string	"PK - Unavailable feature, e.g. RSA disabled for RSA key"
	.align	2
.LC56:
	.string	"PK - The buffer contains a valid signature followed by more data"
	.align	2
.LC57:
	.string	"PK - PK hardware accelerator failed"
	.align	2
.LC58:
	.string	"RSA - Bad input parameters to function"
	.align	2
.LC59:
	.string	"RSA - Input data contains invalid padding and is rejected"
	.align	2
.LC60:
	.string	"RSA - Something failed during generation of a key"
	.align	2
.LC61:
	.string	"RSA - Key failed to pass the validity check of the library"
	.align	2
.LC62:
	.string	"RSA - The public key operation failed"
	.align	2
.LC63:
	.string	"RSA - The private key operation failed"
	.align	2
.LC64:
	.string	"RSA - The PKCS#1 verification failed"
	.align	2
.LC65:
	.string	"RSA - The output buffer for decryption is not large enough"
	.align	2
.LC66:
	.string	"RSA - The random generator failed to generate non-zeros"
	.align	2
.LC67:
	.string	"RSA - The implementation does not offer the requested operation, for example, because of security violations or lack of functionality"
	.align	2
.LC68:
	.string	"RSA - RSA hardware accelerator failed"
	.align	2
.LC69:
	.string	"SSL - The requested feature is not available"
	.align	2
.LC70:
	.string	"SSL - Bad input parameters to function"
	.align	2
.LC71:
	.string	"SSL - Verification of the message MAC failed"
	.align	2
.LC72:
	.string	"SSL - An invalid SSL record was received"
	.align	2
.LC73:
	.string	"SSL - The connection indicated an EOF"
	.align	2
.LC74:
	.string	"SSL - An unknown cipher was received"
	.align	2
.LC75:
	.string	"SSL - The server has no ciphersuites in common with the client"
	.align	2
.LC76:
	.string	"SSL - No RNG was provided to the SSL module"
	.align	2
.LC77:
	.string	"SSL - No client certification received from the client, but required by the authentication mode"
	.align	2
.LC78:
	.string	"SSL - Our own certificate(s) is/are too large to send in an SSL message"
	.align	2
.LC79:
	.string	"SSL - The own certificate is not set, but needed by the server"
	.align	2
.LC80:
	.string	"SSL - The own private key or pre-shared key is not set, but needed"
	.align	2
.LC81:
	.string	"SSL - No CA Chain is set, but required to operate"
	.align	2
.LC82:
	.string	"SSL - An unexpected message was received from our peer"
	.align	2
.LC83:
	.string	"SSL - A fatal alert message was received from our peer"
	.align	2
.LC84:
	.string	"SSL - Verification of our peer failed"
	.align	2
.LC85:
	.string	"SSL - The peer notified us that the connection is going to be closed"
	.align	2
.LC86:
	.string	"SSL - Processing of the ClientHello handshake message failed"
	.align	2
.LC87:
	.string	"SSL - Processing of the ServerHello handshake message failed"
	.align	2
.LC88:
	.string	"SSL - Processing of the Certificate handshake message failed"
	.align	2
.LC89:
	.string	"SSL - Processing of the CertificateRequest handshake message failed"
	.align	2
.LC90:
	.string	"SSL - Processing of the ServerKeyExchange handshake message failed"
	.align	2
.LC91:
	.string	"SSL - Processing of the ServerHelloDone handshake message failed"
	.align	2
.LC92:
	.string	"SSL - Processing of the ClientKeyExchange handshake message failed"
	.align	2
.LC93:
	.string	"SSL - Processing of the ClientKeyExchange handshake message failed in DHM / ECDH Read Public"
	.align	2
.LC94:
	.string	"SSL - Processing of the ClientKeyExchange handshake message failed in DHM / ECDH Calculate Secret"
	.align	2
.LC95:
	.string	"SSL - Processing of the CertificateVerify handshake message failed"
	.align	2
.LC96:
	.string	"SSL - Processing of the ChangeCipherSpec handshake message failed"
	.align	2
.LC97:
	.string	"SSL - Processing of the Finished handshake message failed"
	.align	2
.LC98:
	.string	"SSL - Memory allocation failed"
	.align	2
.LC99:
	.string	"SSL - Hardware acceleration function returned with error"
	.align	2
.LC100:
	.string	"SSL - Hardware acceleration function skipped / left alone data"
	.align	2
.LC101:
	.string	"SSL - Processing of the compression / decompression failed"
	.align	2
.LC102:
	.string	"SSL - Handshake protocol not within min/max boundaries"
	.align	2
.LC103:
	.string	"SSL - Processing of the NewSessionTicket handshake message failed"
	.align	2
.LC104:
	.string	"SSL - Session ticket has expired"
	.align	2
.LC105:
	.string	"SSL - Public key type mismatch (eg, asked for RSA key exchange and presented EC key)"
	.align	2
.LC106:
	.string	"SSL - Unknown identity received (eg, PSK identity)"
	.align	2
.LC107:
	.string	"SSL - Internal error (eg, unexpected failure in lower-level module)"
	.align	2
.LC108:
	.string	"SSL - A counter would wrap (eg, too many messages exchanged)"
	.align	2
.LC109:
	.string	"SSL - Unexpected message at ServerHello in renegotiation"
	.align	2
.LC110:
	.string	"SSL - DTLS client must retry for hello verification"
	.align	2
.LC111:
	.string	"SSL - A buffer is too small to receive or write a message"
	.align	2
.LC112:
	.string	"SSL - None of the common ciphersuites is usable (eg, no suitable certificate, see debug messages)"
	.align	2
.LC113:
	.string	"SSL - No data of requested type currently available on underlying transport"
	.align	2
.LC114:
	.string	"SSL - Connection requires a write call"
	.align	2
.LC115:
	.string	"SSL - The operation timed out"
	.align	2
.LC116:
	.string	"SSL - The client initiated a reconnect from the same port"
	.align	2
.LC117:
	.string	"SSL - Record header looks valid but is not expected"
	.align	2
.LC118:
	.string	"SSL - The alert message received indicates a non-fatal error"
	.align	2
.LC119:
	.string	"SSL - Couldn't set the hash for verifying CertificateVerify"
	.align	2
.LC120:
	.string	"SSL - Internal-only message signaling that further message-processing should be done"
	.align	2
.LC121:
	.string	"SSL - The asynchronous operation is not completed yet"
	.align	2
.LC122:
	.string	"SSL - Internal-only message signaling that a message arrived early"
	.align	2
.LC123:
	.string	"SSL - A cryptographic operation is in progress. Try again later"
	.align	2
.LC124:
	.string	"SSL - Invalid value in SSL config"
	.align	2
.LC125:
	.string	"X509 - Unavailable feature, e.g. RSA hashing/encryption combination"
	.align	2
.LC126:
	.string	"X509 - Requested OID is unknown"
	.align	2
.LC127:
	.string	"X509 - The CRT/CRL/CSR format is invalid, e.g. different type expected"
	.align	2
.LC128:
	.string	"X509 - The CRT/CRL/CSR version element is invalid"
	.align	2
.LC129:
	.string	"X509 - The serial tag or value is invalid"
	.align	2
.LC130:
	.string	"X509 - The algorithm tag or value is invalid"
	.align	2
.LC131:
	.string	"X509 - The name tag or value is invalid"
	.align	2
.LC132:
	.string	"X509 - The date tag or value is invalid"
	.align	2
.LC133:
	.string	"X509 - The signature tag or value invalid"
	.align	2
.LC134:
	.string	"X509 - The extension tag or value is invalid"
	.align	2
.LC135:
	.string	"X509 - CRT/CRL/CSR has an unsupported version number"
	.align	2
.LC136:
	.string	"X509 - Signature algorithm (oid) is unsupported"
	.align	2
.LC137:
	.string	"X509 - Signature algorithms do not match. (see \\c ::mbedtls_x509_crt sig_oid)"
	.align	2
.LC138:
	.string	"X509 - Certificate verification failed, e.g. CRL, CA or signature check failed"
	.align	2
.LC139:
	.string	"X509 - Format not recognized as DER or PEM"
	.align	2
.LC140:
	.string	"X509 - Input invalid"
	.align	2
.LC141:
	.string	"X509 - Allocation of memory failed"
	.align	2
.LC142:
	.string	"X509 - Read/write of file failed"
	.align	2
.LC143:
	.string	"X509 - Destination buffer is too small"
	.align	2
.LC144:
	.string	"X509 - A fatal error occurred, eg the chain is too long or the vrfy callback failed"
	.align	2
.LC145:
	.string	"UNKNOWN ERROR CODE (%04X)"
	.align	2
.LC146:
	.string	" : "
	.align	2
.LC147:
	.string	"AES - Invalid key length"
	.align	2
.LC148:
	.string	"AES - Invalid data input length"
	.align	2
.LC149:
	.string	"AES - Invalid input data"
	.align	2
.LC150:
	.string	"AES - Feature not available. For example, an unsupported AES key size"
	.align	2
.LC151:
	.string	"AES - AES hardware accelerator failed"
	.align	2
.LC152:
	.string	"ASN1 - Out of data when parsing an ASN1 data structure"
	.align	2
.LC153:
	.string	"ASN1 - ASN1 tag was of an unexpected value"
	.align	2
.LC154:
	.string	"ASN1 - Error when trying to determine the length or invalid length"
	.align	2
.LC155:
	.string	"ASN1 - Actual length differs from expected length"
	.align	2
.LC156:
	.string	"ASN1 - Data is invalid. (not used)"
	.align	2
.LC157:
	.string	"ASN1 - Memory allocation failed"
	.align	2
.LC158:
	.string	"ASN1 - Buffer too small when writing ASN.1 data structure"
	.align	2
.LC159:
	.string	"BASE64 - Output buffer too small"
	.align	2
.LC160:
	.string	"BASE64 - Invalid character in input"
	.align	2
.LC161:
	.string	"BIGNUM - An error occurred while reading from or writing to a file"
	.align	2
.LC162:
	.string	"BIGNUM - Bad input parameters to function"
	.align	2
.LC163:
	.string	"BIGNUM - There is an invalid character in the digit string"
	.align	2
.LC164:
	.string	"BIGNUM - The buffer is too small to write to"
	.align	2
.LC165:
	.string	"BIGNUM - The input arguments are negative or result in illegal output"
	.align	2
.LC166:
	.string	"BIGNUM - The input argument for division is zero, which is not allowed"
	.align	2
.LC167:
	.string	"BIGNUM - The input arguments are not acceptable"
	.align	2
.LC168:
	.string	"BIGNUM - Memory allocation failed"
	.align	2
.LC169:
	.string	"CTR_DRBG - The entropy source failed"
	.align	2
.LC170:
	.string	"CTR_DRBG - The requested random buffer length is too big"
	.align	2
.LC171:
	.string	"CTR_DRBG - The input (entropy + additional data) is too large"
	.align	2
.LC172:
	.string	"CTR_DRBG - Read or write error in file"
	.align	2
.LC173:
	.string	"ENTROPY - Critical entropy source failure"
	.align	2
.LC174:
	.string	"ENTROPY - No more sources can be added"
	.align	2
.LC175:
	.string	"ENTROPY - No sources have been added to poll"
	.align	2
.LC176:
	.string	"ENTROPY - No strong sources have been added to poll"
	.align	2
.LC177:
	.string	"ENTROPY - Read/write error in file"
	.align	2
.LC178:
	.string	"GCM - Authenticated decryption failed"
	.align	2
.LC179:
	.string	"GCM - GCM hardware accelerator failed"
	.align	2
.LC180:
	.string	"GCM - Bad input parameters to function"
	.align	2
.LC181:
	.string	"MD5 - MD5 hardware accelerator failed"
	.align	2
.LC182:
	.string	"NET - Failed to open a socket"
	.align	2
.LC183:
	.string	"NET - The connection to the given server / port failed"
	.align	2
.LC184:
	.string	"NET - Binding of the socket failed"
	.align	2
.LC185:
	.string	"NET - Could not listen on the socket"
	.align	2
.LC186:
	.string	"NET - Could not accept the incoming connection"
	.align	2
.LC187:
	.string	"NET - Reading information from the socket failed"
	.align	2
.LC188:
	.string	"NET - Sending information through the socket failed"
	.align	2
.LC189:
	.string	"NET - Connection was reset by peer"
	.align	2
.LC190:
	.string	"NET - Failed to get an IP address for the given hostname"
	.align	2
.LC191:
	.string	"NET - Buffer is too small to hold the data"
	.align	2
.LC192:
	.string	"NET - The context is invalid, eg because it was free()ed"
	.align	2
.LC193:
	.string	"NET - Polling the net context failed"
	.align	2
.LC194:
	.string	"NET - Input invalid"
	.align	2
.LC195:
	.string	"OID - OID is not found"
	.align	2
.LC196:
	.string	"OID - output buffer is too small"
	.align	2
.LC197:
	.string	"PLATFORM - Hardware accelerator failed"
	.align	2
.LC198:
	.string	"PLATFORM - The requested feature is not supported by the platform"
	.align	2
.LC199:
	.string	"SHA1 - SHA-1 hardware accelerator failed"
	.align	2
.LC200:
	.string	"SHA1 - SHA-1 input data was malformed"
	.align	2
.LC201:
	.string	"SHA256 - SHA-256 hardware accelerator failed"
	.align	2
.LC202:
	.string	"SHA256 - SHA-256 input data was malformed"
	.align	2
.LC203:
	.string	"SHA512 - SHA-512 hardware accelerator failed"
	.align	2
.LC204:
	.string	"SHA512 - SHA-512 input data was malformed"
	.section	.text.mbedtls_strerror,"ax",@progbits
	.align	1
	.globl	mbedtls_strerror
	.type	mbedtls_strerror, @function
mbedtls_strerror:
.LFB21:
	.file 1 "/mnt/d/GitHub/bl_iot_sdk_for_aithinker/components/security/mbedtls_lts/mbedtls/library/error.c"
	.loc 1 242 1
	.cfi_startproc
.LVL0:
	.loc 1 243 5
	.loc 1 244 5
	.loc 1 246 5
	.loc 1 246 7 is_stmt 0
	beq	a2,zero,.L219
	.loc 1 242 1
	addi	sp,sp,-32
	.cfi_def_cfa_offset 32
	sw	s0,24(sp)
	.cfi_offset 8, -8
	mv	s0,a1
	sw	s3,12(sp)
	.loc 1 249 5
	li	a1,0
.LVL1:
	.cfi_offset 19, -20
	mv	s3,a0
	mv	a0,s0
.LVL2:
	.loc 1 242 1
	sw	s1,20(sp)
	sw	s2,16(sp)
	sw	ra,28(sp)
	.cfi_offset 9, -12
	.cfi_offset 18, -16
	.cfi_offset 1, -4
	mv	s1,a2
	.loc 1 249 5 is_stmt 1
	call	memset
.LVL3:
	.loc 1 251 5
	srai	a5,s3,31
	xor	s3,a5,s3
.LVL4:
	.loc 1 254 13 is_stmt 0
	li	s2,65536
	sub	s3,s3,a5
.LVL5:
	.loc 1 254 5 is_stmt 1
	.loc 1 254 13 is_stmt 0
	addi	s2,s2,-128
	and	s2,s3,s2
	.loc 1 254 7
	beq	s2,zero,.L5
	.loc 1 256 9 is_stmt 1
.LVL6:
	.loc 1 262 9
	.loc 1 262 11 is_stmt 0
	li	a5,24576
	addi	a4,a5,128
	bne	s2,a4,.L6
	.loc 1 263 13 is_stmt 1
	lui	a2,%hi(.LC0)
	addi	a2,a2,%lo(.LC0)
	mv	a1,s1
	mv	a0,s0
	call	snprintf
.LVL7:
	.loc 1 264 9
	.loc 1 266 9
.L7:
	.loc 1 268 9
	.loc 1 268 11 is_stmt 0
	li	a5,24576
	addi	a5,a5,512
	bne	s2,a5,.L9
	.loc 1 269 13 is_stmt 1
	lui	a2,%hi(.LC3)
	addi	a2,a2,%lo(.LC3)
	mv	a1,s1
	mv	a0,s0
	call	snprintf
.LVL8:
	.loc 1 270 9
	.loc 1 272 9
.L11:
	.loc 1 274 9
	.loc 1 274 11 is_stmt 0
	li	a5,24576
	addi	a5,a5,896
	bne	s2,a5,.L12
	.loc 1 275 13 is_stmt 1
	lui	a2,%hi(.LC6)
	addi	a2,a2,%lo(.LC6)
	mv	a1,s1
	mv	a0,s0
	call	snprintf
.LVL9:
	.loc 1 276 9
	.loc 1 281 9
.L14:
	.loc 1 283 9
	.loc 1 283 11 is_stmt 0
	li	a5,12288
	addi	a5,a5,256
	bne	s2,a5,.L15
	.loc 1 284 13 is_stmt 1
	lui	a2,%hi(.LC9)
	addi	a2,a2,%lo(.LC9)
	mv	a1,s1
	mv	a0,s0
	call	snprintf
.LVL10:
	.loc 1 285 9
	.loc 1 287 9
.L17:
	.loc 1 289 9
	.loc 1 289 11 is_stmt 0
	li	a5,12288
	addi	a5,a5,640
	bne	s2,a5,.L18
	.loc 1 290 13 is_stmt 1
	lui	a2,%hi(.LC12)
	addi	a2,a2,%lo(.LC12)
	mv	a1,s1
	mv	a0,s0
	call	snprintf
.LVL11:
	.loc 1 291 9
	.loc 1 293 9
.L20:
	.loc 1 295 9
	.loc 1 295 11 is_stmt 0
	li	a5,12288
	addi	a5,a5,1024
	bne	s2,a5,.L21
	.loc 1 296 13 is_stmt 1
	lui	a2,%hi(.LC15)
	addi	a2,a2,%lo(.LC15)
	mv	a1,s1
	mv	a0,s0
	call	snprintf
.LVL12:
	.loc 1 297 9
	.loc 1 299 9
.L23:
	.loc 1 301 9
	.loc 1 301 11 is_stmt 0
	li	a5,12288
	addi	a5,a5,1408
	bne	s2,a5,.L24
	.loc 1 302 13 is_stmt 1
	lui	a2,%hi(.LC18)
	addi	a2,a2,%lo(.LC18)
	mv	a1,s1
	mv	a0,s0
	call	snprintf
.LVL13:
	.loc 1 306 9
	.loc 1 308 9
.L26:
	.loc 1 310 9
	.loc 1 310 11 is_stmt 0
	li	a5,20480
	addi	a5,a5,-384
	bne	s2,a5,.L27
	.loc 1 311 13 is_stmt 1
	lui	a2,%hi(.LC21)
	addi	a2,a2,%lo(.LC21)
	mv	a1,s1
	mv	a0,s0
	call	snprintf
.LVL14:
	.loc 1 312 9
	.loc 1 314 9
.L29:
	.loc 1 316 9
	.loc 1 316 11 is_stmt 0
	li	a5,20480
	addi	a5,a5,-768
	bne	s2,a5,.L30
	.loc 1 317 13 is_stmt 1
	lui	a2,%hi(.LC24)
	addi	a2,a2,%lo(.LC24)
	mv	a1,s1
	mv	a0,s0
	call	snprintf
.LVL15:
	.loc 1 318 9
	.loc 1 320 9
.L32:
	.loc 1 322 9
	.loc 1 322 11 is_stmt 0
	li	a5,20480
	addi	a5,a5,-1152
	bne	s2,a5,.L33
	.loc 1 323 13 is_stmt 1
	lui	a2,%hi(.LC27)
	addi	a2,a2,%lo(.LC27)
	mv	a1,s1
	mv	a0,s0
	call	snprintf
.LVL16:
	.loc 1 324 9
	.loc 1 329 9
.L35:
	.loc 1 331 9
	.loc 1 331 11 is_stmt 0
	li	a5,20480
	addi	a5,a5,256
	bne	s2,a5,.L36
	.loc 1 332 13 is_stmt 1
	lui	a2,%hi(.LC30)
	addi	a2,a2,%lo(.LC30)
	mv	a1,s1
	mv	a0,s0
	call	snprintf
.LVL17:
	.loc 1 333 9
	.loc 1 335 9
.L38:
	.loc 1 337 9
	.loc 1 337 11 is_stmt 0
	li	a5,20480
	addi	a5,a5,640
	bne	s2,a5,.L39
	.loc 1 338 13 is_stmt 1
	lui	a2,%hi(.LC33)
	addi	a2,a2,%lo(.LC33)
	mv	a1,s1
	mv	a0,s0
	call	snprintf
.LVL18:
	.loc 1 342 9
	.loc 1 344 9
.L41:
	.loc 1 346 9
	.loc 1 346 11 is_stmt 0
	li	a5,4096
	addi	a5,a5,384
	bne	s2,a5,.L42
	.loc 1 347 13 is_stmt 1
	lui	a2,%hi(.LC36)
	addi	a2,a2,%lo(.LC36)
	mv	a1,s1
	mv	a0,s0
	call	snprintf
.LVL19:
	.loc 1 348 9
	.loc 1 350 9
.L44:
	.loc 1 352 9
	.loc 1 352 11 is_stmt 0
	li	a5,4096
	addi	a5,a5,768
	bne	s2,a5,.L45
	.loc 1 353 13 is_stmt 1
	lui	a2,%hi(.LC39)
	addi	a2,a2,%lo(.LC39)
	mv	a1,s1
	mv	a0,s0
	call	snprintf
.LVL20:
	.loc 1 354 9
	.loc 1 356 9
.L47:
	.loc 1 358 9
	.loc 1 358 11 is_stmt 0
	li	a5,4096
	addi	a5,a5,1152
	bne	s2,a5,.L48
	.loc 1 359 13 is_stmt 1
	lui	a2,%hi(.LC42)
	addi	a2,a2,%lo(.LC42)
	mv	a1,s1
	mv	a0,s0
	call	snprintf
.LVL21:
	.loc 1 363 9
	.loc 1 365 9
.L50:
	.loc 1 367 9
	.loc 1 367 11 is_stmt 0
	li	a5,16384
	addi	a5,a5,-384
	bne	s2,a5,.L51
	.loc 1 368 13 is_stmt 1
	lui	a2,%hi(.LC45)
	addi	a2,a2,%lo(.LC45)
	mv	a1,s1
	mv	a0,s0
	call	snprintf
.LVL22:
	.loc 1 369 9
	.loc 1 371 9
.L53:
	.loc 1 373 9
	.loc 1 373 11 is_stmt 0
	li	a5,16384
	addi	a5,a5,-768
	bne	s2,a5,.L54
	.loc 1 374 13 is_stmt 1
	lui	a2,%hi(.LC48)
	addi	a2,a2,%lo(.LC48)
	mv	a1,s1
	mv	a0,s0
	call	snprintf
.LVL23:
	.loc 1 375 9
	.loc 1 377 9
.L56:
	.loc 1 379 9
	.loc 1 379 11 is_stmt 0
	li	a5,16384
	addi	a5,a5,-1152
	bne	s2,a5,.L57
	.loc 1 380 13 is_stmt 1
	lui	a2,%hi(.LC51)
	addi	a2,a2,%lo(.LC51)
	mv	a1,s1
	mv	a0,s0
	call	snprintf
.LVL24:
	.loc 1 381 9
	.loc 1 383 9
.L59:
	.loc 1 385 9
	.loc 1 385 11 is_stmt 0
	li	a5,16384
	addi	a5,a5,-1536
	bne	s2,a5,.L60
	.loc 1 386 13 is_stmt 1
	lui	a2,%hi(.LC54)
	addi	a2,a2,%lo(.LC54)
	mv	a1,s1
	mv	a0,s0
	call	snprintf
.LVL25:
	.loc 1 387 9
	.loc 1 389 9
.L62:
	.loc 1 391 9
	.loc 1 391 11 is_stmt 0
	li	a5,16384
	addi	a5,a5,-1920
	bne	s2,a5,.L63
	.loc 1 392 13 is_stmt 1
	lui	a2,%hi(.LC57)
	addi	a2,a2,%lo(.LC57)
	mv	a1,s1
	mv	a0,s0
	call	snprintf
.LVL26:
	.loc 1 418 9
	.loc 1 420 9
.L65:
	.loc 1 422 9
	.loc 1 422 11 is_stmt 0
	li	a5,16384
	addi	a5,a5,384
	bne	s2,a5,.L66
	.loc 1 423 13 is_stmt 1
	lui	a2,%hi(.LC60)
	addi	a2,a2,%lo(.LC60)
	mv	a1,s1
	mv	a0,s0
	call	snprintf
.LVL27:
	.loc 1 424 9
	.loc 1 426 9
.L68:
	.loc 1 428 9
	.loc 1 428 11 is_stmt 0
	li	a5,16384
	addi	a5,a5,768
	bne	s2,a5,.L69
	.loc 1 429 13 is_stmt 1
	lui	a2,%hi(.LC63)
	addi	a2,a2,%lo(.LC63)
	mv	a1,s1
	mv	a0,s0
	call	snprintf
.LVL28:
	.loc 1 430 9
	.loc 1 432 9
.L71:
	.loc 1 434 9
	.loc 1 434 11 is_stmt 0
	li	a5,16384
	addi	a5,a5,1152
	bne	s2,a5,.L72
	.loc 1 435 13 is_stmt 1
	lui	a2,%hi(.LC66)
	addi	a2,a2,%lo(.LC66)
	mv	a1,s1
	mv	a0,s0
	call	snprintf
.LVL29:
	.loc 1 436 9
	.loc 1 438 9
.L74:
	.loc 1 443 9
	.loc 1 443 11 is_stmt 0
	li	a5,28672
	addi	a5,a5,128
	bne	s2,a5,.L75
	.loc 1 444 13 is_stmt 1
	lui	a2,%hi(.LC69)
	addi	a2,a2,%lo(.LC69)
	mv	a1,s1
	mv	a0,s0
	call	snprintf
.LVL30:
	.loc 1 445 9
	.loc 1 447 9
.L77:
	.loc 1 449 9
	.loc 1 449 11 is_stmt 0
	li	a5,28672
	addi	a5,a5,512
	bne	s2,a5,.L78
	.loc 1 450 13 is_stmt 1
	lui	a2,%hi(.LC72)
	addi	a2,a2,%lo(.LC72)
	mv	a1,s1
	mv	a0,s0
	call	snprintf
.LVL31:
	.loc 1 451 9
	.loc 1 453 9
.L80:
	.loc 1 455 9
	.loc 1 455 11 is_stmt 0
	li	a5,28672
	addi	a5,a5,896
	bne	s2,a5,.L81
	.loc 1 456 13 is_stmt 1
	lui	a2,%hi(.LC75)
	addi	a2,a2,%lo(.LC75)
	mv	a1,s1
	mv	a0,s0
	call	snprintf
.LVL32:
	.loc 1 457 9
	.loc 1 459 9
.L83:
	.loc 1 461 9
	.loc 1 461 11 is_stmt 0
	li	a5,28672
	addi	a5,a5,1280
	bne	s2,a5,.L84
	.loc 1 462 13 is_stmt 1
	lui	a2,%hi(.LC78)
	addi	a2,a2,%lo(.LC78)
	mv	a1,s1
	mv	a0,s0
	call	snprintf
.LVL33:
	.loc 1 463 9
	.loc 1 465 9
.L86:
	.loc 1 467 9
	.loc 1 467 11 is_stmt 0
	li	a5,28672
	addi	a5,a5,1664
	bne	s2,a5,.L87
	.loc 1 468 13 is_stmt 1
	lui	a2,%hi(.LC81)
	addi	a2,a2,%lo(.LC81)
	mv	a1,s1
	mv	a0,s0
	call	snprintf
.LVL34:
	.loc 1 469 9
	.loc 1 471 9
.L89:
	.loc 1 478 9
	.loc 1 478 11 is_stmt 0
	li	a5,32768
	addi	a5,a5,-1920
	bne	s2,a5,.L90
	.loc 1 479 13 is_stmt 1
	lui	a2,%hi(.LC85)
	addi	a2,a2,%lo(.LC85)
	mv	a1,s1
	mv	a0,s0
	call	snprintf
.LVL35:
	.loc 1 480 9
	.loc 1 482 9
.L93:
	.loc 1 484 9
	.loc 1 484 11 is_stmt 0
	li	a5,32768
	addi	a5,a5,-1536
	bne	s2,a5,.L94
	.loc 1 485 13 is_stmt 1
	lui	a2,%hi(.LC88)
	addi	a2,a2,%lo(.LC88)
	mv	a1,s1
	mv	a0,s0
	call	snprintf
.LVL36:
	.loc 1 486 9
	.loc 1 488 9
.L96:
	.loc 1 490 9
	.loc 1 490 11 is_stmt 0
	li	a5,32768
	addi	a5,a5,-1152
	bne	s2,a5,.L97
	.loc 1 491 13 is_stmt 1
	lui	a2,%hi(.LC91)
	addi	a2,a2,%lo(.LC91)
	mv	a1,s1
	mv	a0,s0
	call	snprintf
.LVL37:
	.loc 1 492 9
	.loc 1 494 9
.L99:
	.loc 1 496 9
	.loc 1 496 11 is_stmt 0
	li	a5,32768
	addi	a5,a5,-768
	bne	s2,a5,.L100
	.loc 1 497 13 is_stmt 1
	lui	a2,%hi(.LC94)
	addi	a2,a2,%lo(.LC94)
	mv	a1,s1
	mv	a0,s0
	call	snprintf
.LVL38:
	.loc 1 498 9
	.loc 1 500 9
.L102:
	.loc 1 502 9
	.loc 1 502 11 is_stmt 0
	li	a5,32768
	addi	a5,a5,-384
	bne	s2,a5,.L103
	.loc 1 503 13 is_stmt 1
	lui	a2,%hi(.LC97)
	addi	a2,a2,%lo(.LC97)
	mv	a1,s1
	mv	a0,s0
	call	snprintf
.LVL39:
	.loc 1 504 9
	.loc 1 506 9
.L105:
	.loc 1 508 9
	.loc 1 508 11 is_stmt 0
	li	a5,28672
	addi	a5,a5,-128
	bne	s2,a5,.L106
	.loc 1 509 13 is_stmt 1
	lui	a2,%hi(.LC100)
	addi	a2,a2,%lo(.LC100)
	mv	a1,s1
	mv	a0,s0
	call	snprintf
.LVL40:
	.loc 1 510 9
	.loc 1 512 9
.L108:
	.loc 1 514 9
	.loc 1 514 11 is_stmt 0
	li	a5,28672
	addi	a5,a5,-512
	bne	s2,a5,.L109
	.loc 1 515 13 is_stmt 1
	lui	a2,%hi(.LC103)
	addi	a2,a2,%lo(.LC103)
	mv	a1,s1
	mv	a0,s0
	call	snprintf
.LVL41:
	.loc 1 516 9
	.loc 1 518 9
.L111:
	.loc 1 520 9
	.loc 1 520 11 is_stmt 0
	li	a5,28672
	addi	a5,a5,-896
	bne	s2,a5,.L112
	.loc 1 521 13 is_stmt 1
	lui	a2,%hi(.LC106)
	addi	a2,a2,%lo(.LC106)
	mv	a1,s1
	mv	a0,s0
	call	snprintf
.LVL42:
	.loc 1 522 9
	.loc 1 524 9
.L114:
	.loc 1 526 9
	.loc 1 526 11 is_stmt 0
	li	a5,28672
	addi	a5,a5,-1280
	bne	s2,a5,.L115
	.loc 1 527 13 is_stmt 1
	lui	a2,%hi(.LC109)
	addi	a2,a2,%lo(.LC109)
	mv	a1,s1
	mv	a0,s0
	call	snprintf
.LVL43:
	.loc 1 528 9
	.loc 1 530 9
.L117:
	.loc 1 532 9
	.loc 1 532 11 is_stmt 0
	li	a5,28672
	addi	a5,a5,-1664
	bne	s2,a5,.L118
	.loc 1 533 13 is_stmt 1
	lui	a2,%hi(.LC112)
	addi	a2,a2,%lo(.LC112)
	mv	a1,s1
	mv	a0,s0
	call	snprintf
.LVL44:
	.loc 1 534 9
	.loc 1 536 9
.L120:
	.loc 1 538 9
	.loc 1 538 11 is_stmt 0
	li	a5,28672
	addi	a5,a5,-2048
	bne	s2,a5,.L121
	.loc 1 539 13 is_stmt 1
	lui	a2,%hi(.LC115)
	addi	a2,a2,%lo(.LC115)
	mv	a1,s1
	mv	a0,s0
	call	snprintf
.LVL45:
	.loc 1 540 9
	.loc 1 542 9
.L123:
	.loc 1 544 9
	.loc 1 544 11 is_stmt 0
	li	a5,24576
	addi	a5,a5,1664
	bne	s2,a5,.L124
	.loc 1 545 13 is_stmt 1
	lui	a2,%hi(.LC118)
	addi	a2,a2,%lo(.LC118)
	mv	a1,s1
	mv	a0,s0
	call	snprintf
.LVL46:
	.loc 1 546 9
	.loc 1 548 9
.L126:
	.loc 1 550 9
	.loc 1 550 11 is_stmt 0
	li	a5,24576
	addi	a5,a5,1280
	bne	s2,a5,.L127
	.loc 1 551 13 is_stmt 1
	lui	a2,%hi(.LC121)
	addi	a2,a2,%lo(.LC121)
	mv	a1,s1
	mv	a0,s0
	call	snprintf
.LVL47:
	.loc 1 552 9
	.loc 1 554 9
.L129:
	.loc 1 556 9
	.loc 1 556 11 is_stmt 0
	li	a5,24576
	addi	a5,a5,-384
	bne	s2,a5,.L130
	.loc 1 557 13 is_stmt 1
	lui	a2,%hi(.LC124)
	addi	a2,a2,%lo(.LC124)
	mv	a1,s1
	mv	a0,s0
	call	snprintf
.LVL48:
	.loc 1 561 9
	.loc 1 563 9
.L132:
	.loc 1 565 9
	.loc 1 565 11 is_stmt 0
	li	a5,8192
	addi	a5,a5,384
	bne	s2,a5,.L133
	.loc 1 566 13 is_stmt 1
	lui	a2,%hi(.LC127)
	addi	a2,a2,%lo(.LC127)
	mv	a1,s1
	mv	a0,s0
	call	snprintf
.LVL49:
	.loc 1 567 9
	.loc 1 569 9
.L135:
	.loc 1 571 9
	.loc 1 571 11 is_stmt 0
	li	a5,8192
	addi	a5,a5,768
	bne	s2,a5,.L136
	.loc 1 572 13 is_stmt 1
	lui	a2,%hi(.LC130)
	addi	a2,a2,%lo(.LC130)
	mv	a1,s1
	mv	a0,s0
	call	snprintf
.LVL50:
	.loc 1 573 9
	.loc 1 575 9
.L138:
	.loc 1 577 9
	.loc 1 577 11 is_stmt 0
	li	a5,8192
	addi	a5,a5,1152
	bne	s2,a5,.L139
	.loc 1 578 13 is_stmt 1
	lui	a2,%hi(.LC133)
	addi	a2,a2,%lo(.LC133)
	mv	a1,s1
	mv	a0,s0
	call	snprintf
.LVL51:
	.loc 1 579 9
	.loc 1 581 9
.L141:
	.loc 1 583 9
	.loc 1 583 11 is_stmt 0
	li	a5,8192
	addi	a5,a5,1536
	bne	s2,a5,.L142
	.loc 1 584 13 is_stmt 1
	lui	a2,%hi(.LC136)
	addi	a2,a2,%lo(.LC136)
	mv	a1,s1
	mv	a0,s0
	call	snprintf
.LVL52:
	.loc 1 585 9
	.loc 1 587 9
.L144:
	.loc 1 589 9
	.loc 1 589 11 is_stmt 0
	li	a5,8192
	addi	a5,a5,1920
	bne	s2,a5,.L145
	.loc 1 590 13 is_stmt 1
	lui	a2,%hi(.LC139)
	addi	a2,a2,%lo(.LC139)
	mv	a1,s1
	mv	a0,s0
	call	snprintf
.LVL53:
	.loc 1 591 9
	.loc 1 593 9
.L147:
	.loc 1 595 9
	.loc 1 595 11 is_stmt 0
	li	a5,12288
	addi	a5,a5,-1792
	bne	s2,a5,.L148
	.loc 1 596 13 is_stmt 1
	lui	a2,%hi(.LC142)
	addi	a2,a2,%lo(.LC142)
.L222:
	.loc 1 600 13 is_stmt 0
	mv	a1,s1
	mv	a0,s0
	call	snprintf
.LVL54:
.L150:
	.loc 1 604 9 is_stmt 1
	.loc 1 604 13 is_stmt 0
	mv	a0,s0
	call	strlen
.LVL55:
	.loc 1 604 11
	bne	a0,zero,.L5
	.loc 1 605 13 is_stmt 1
	lui	a2,%hi(.LC145)
	mv	a3,s2
	addi	a2,a2,%lo(.LC145)
	mv	a1,s1
	mv	a0,s0
	call	snprintf
.LVL56:
.L5:
	.loc 1 608 5
	.loc 1 608 13 is_stmt 0
	li	a0,-65536
	addi	a0,a0,127
	and	s2,s3,a0
.LVL57:
	.loc 1 610 5 is_stmt 1
	.loc 1 610 7 is_stmt 0
	beq	s2,zero,.L1
	.loc 1 616 5 is_stmt 1
	.loc 1 616 11 is_stmt 0
	mv	a0,s0
	call	strlen
.LVL58:
	mv	s3,a0
.LVL59:
	.loc 1 618 5 is_stmt 1
	.loc 1 618 7 is_stmt 0
	beq	a0,zero,.L153
	.loc 1 620 9 is_stmt 1
	.loc 1 620 20 is_stmt 0
	sub	s1,s1,a0
.LVL60:
	.loc 1 620 11
	li	a5,4
	bleu	s1,a5,.L1
	.loc 1 623 9 is_stmt 1
	lui	a2,%hi(.LC146)
	mv	a1,s1
	add	a0,s0,a0
.LVL61:
	addi	a2,a2,%lo(.LC146)
	.loc 1 625 13 is_stmt 0
	addi	s3,s3,3
.LVL62:
	.loc 1 623 9
	call	snprintf
.LVL63:
	.loc 1 625 9 is_stmt 1
	.loc 1 625 13 is_stmt 0
	add	s0,s0,s3
.LVL64:
	.loc 1 626 9 is_stmt 1
	.loc 1 626 16 is_stmt 0
	addi	s1,s1,-3
.LVL65:
.L153:
	.loc 1 633 5 is_stmt 1
	.loc 1 633 7 is_stmt 0
	li	a5,32
	bne	s2,a5,.L154
	.loc 1 634 9 is_stmt 1
	lui	a2,%hi(.LC147)
	addi	a2,a2,%lo(.LC147)
	mv	a1,s1
	mv	a0,s0
	call	snprintf
.LVL66:
	.loc 1 635 5
	.loc 1 637 5
.L155:
	.loc 1 639 5
	.loc 1 639 7 is_stmt 0
	li	a5,35
	bne	s2,a5,.L157
	.loc 1 640 9 is_stmt 1
	lui	a2,%hi(.LC150)
	addi	a2,a2,%lo(.LC150)
	mv	a1,s1
	mv	a0,s0
	call	snprintf
.LVL67:
	.loc 1 641 5
	.loc 1 662 5
.L159:
	.loc 1 664 5
	.loc 1 664 7 is_stmt 0
	li	a5,98
	bne	s2,a5,.L160
	.loc 1 665 9 is_stmt 1
	lui	a2,%hi(.LC153)
	addi	a2,a2,%lo(.LC153)
	mv	a1,s1
	mv	a0,s0
	call	snprintf
.LVL68:
	.loc 1 666 5
	.loc 1 668 5
.L162:
	.loc 1 670 5
	.loc 1 670 7 is_stmt 0
	li	a5,104
	bne	s2,a5,.L163
	.loc 1 671 9 is_stmt 1
	lui	a2,%hi(.LC156)
	addi	a2,a2,%lo(.LC156)
	mv	a1,s1
	mv	a0,s0
	call	snprintf
.LVL69:
	.loc 1 672 5
	.loc 1 674 5
.L165:
	.loc 1 679 5
	.loc 1 679 7 is_stmt 0
	li	a5,42
	bne	s2,a5,.L166
	.loc 1 680 9 is_stmt 1
	lui	a2,%hi(.LC159)
	addi	a2,a2,%lo(.LC159)
	mv	a1,s1
	mv	a0,s0
	call	snprintf
.LVL70:
	.loc 1 681 5
	.loc 1 686 5
.L168:
	.loc 1 688 5
	.loc 1 688 7 is_stmt 0
	li	a5,4
	bne	s2,a5,.L169
	.loc 1 689 9 is_stmt 1
	lui	a2,%hi(.LC162)
	addi	a2,a2,%lo(.LC162)
	mv	a1,s1
	mv	a0,s0
	call	snprintf
.LVL71:
	.loc 1 690 5
	.loc 1 692 5
.L171:
	.loc 1 694 5
	.loc 1 694 7 is_stmt 0
	li	a5,10
	bne	s2,a5,.L172
	.loc 1 695 9 is_stmt 1
	lui	a2,%hi(.LC165)
	addi	a2,a2,%lo(.LC165)
	mv	a1,s1
	mv	a0,s0
	call	snprintf
.LVL72:
	.loc 1 696 5
	.loc 1 698 5
.L174:
	.loc 1 700 5
	.loc 1 700 7 is_stmt 0
	li	a5,16
	bne	s2,a5,.L175
	.loc 1 701 9 is_stmt 1
	lui	a2,%hi(.LC168)
	addi	a2,a2,%lo(.LC168)
	mv	a1,s1
	mv	a0,s0
	call	snprintf
.LVL73:
	.loc 1 753 5
	.loc 1 755 5
.L177:
	.loc 1 757 5
	.loc 1 757 7 is_stmt 0
	li	a5,56
	bne	s2,a5,.L178
	.loc 1 758 9 is_stmt 1
	lui	a2,%hi(.LC171)
	addi	a2,a2,%lo(.LC171)
	mv	a1,s1
	mv	a0,s0
	call	snprintf
.LVL74:
	.loc 1 759 5
	.loc 1 771 5
.L180:
	.loc 1 773 5
	.loc 1 773 7 is_stmt 0
	li	a5,62
	bne	s2,a5,.L181
	.loc 1 774 9 is_stmt 1
	lui	a2,%hi(.LC174)
	addi	a2,a2,%lo(.LC174)
	mv	a1,s1
	mv	a0,s0
	call	snprintf
.LVL75:
	.loc 1 775 5
	.loc 1 777 5
.L183:
	.loc 1 779 5
	.loc 1 779 7 is_stmt 0
	li	a5,63
	bne	s2,a5,.L184
	.loc 1 780 9 is_stmt 1
	lui	a2,%hi(.LC177)
	addi	a2,a2,%lo(.LC177)
	mv	a1,s1
	mv	a0,s0
	call	snprintf
.LVL76:
	.loc 1 784 5
	.loc 1 786 5
.L186:
	.loc 1 788 5
	.loc 1 788 7 is_stmt 0
	li	a5,20
	bne	s2,a5,.L187
	.loc 1 789 9 is_stmt 1
	lui	a2,%hi(.LC180)
	addi	a2,a2,%lo(.LC180)
	mv	a1,s1
	mv	a0,s0
	call	snprintf
.LVL77:
	.loc 1 819 5
	.loc 1 824 5
.L189:
	.loc 1 826 5
	.loc 1 826 7 is_stmt 0
	li	a5,68
	bne	s2,a5,.L190
	.loc 1 827 9 is_stmt 1
	lui	a2,%hi(.LC183)
	addi	a2,a2,%lo(.LC183)
	mv	a1,s1
	mv	a0,s0
	call	snprintf
.LVL78:
	.loc 1 828 5
	.loc 1 830 5
.L192:
	.loc 1 832 5
	.loc 1 832 7 is_stmt 0
	li	a5,74
	bne	s2,a5,.L193
	.loc 1 833 9 is_stmt 1
	lui	a2,%hi(.LC186)
	addi	a2,a2,%lo(.LC186)
	mv	a1,s1
	mv	a0,s0
	call	snprintf
.LVL79:
	.loc 1 834 5
	.loc 1 836 5
.L195:
	.loc 1 838 5
	.loc 1 838 7 is_stmt 0
	li	a5,80
	bne	s2,a5,.L196
	.loc 1 839 9 is_stmt 1
	lui	a2,%hi(.LC189)
	addi	a2,a2,%lo(.LC189)
	mv	a1,s1
	mv	a0,s0
	call	snprintf
.LVL80:
	.loc 1 840 5
	.loc 1 842 5
.L198:
	.loc 1 844 5
	.loc 1 844 7 is_stmt 0
	li	a5,69
	bne	s2,a5,.L199
	.loc 1 845 9 is_stmt 1
	lui	a2,%hi(.LC192)
	addi	a2,a2,%lo(.LC192)
	mv	a1,s1
	mv	a0,s0
	call	snprintf
.LVL81:
	.loc 1 846 5
	.loc 1 848 5
.L201:
	.loc 1 853 5
	.loc 1 853 7 is_stmt 0
	li	a5,46
	bne	s2,a5,.L202
	.loc 1 854 9 is_stmt 1
	lui	a2,%hi(.LC195)
	addi	a2,a2,%lo(.LC195)
	mv	a1,s1
	mv	a0,s0
	call	snprintf
.LVL82:
	.loc 1 855 5
	.loc 1 865 5
.L204:
	.loc 1 867 5
	.loc 1 867 7 is_stmt 0
	li	a5,114
	bne	s2,a5,.L205
	.loc 1 868 9 is_stmt 1
	lui	a2,%hi(.LC198)
	addi	a2,a2,%lo(.LC198)
	mv	a1,s1
	mv	a0,s0
	call	snprintf
.LVL83:
	.loc 1 886 5
	.loc 1 888 5
.L207:
	.loc 1 893 5
	.loc 1 893 7 is_stmt 0
	li	a5,55
	bne	s2,a5,.L208
	.loc 1 894 9 is_stmt 1
	lui	a2,%hi(.LC201)
	addi	a2,a2,%lo(.LC201)
	mv	a1,s1
	mv	a0,s0
	call	snprintf
.LVL84:
	.loc 1 895 5
	.loc 1 900 5
.L210:
	.loc 1 902 5
	.loc 1 902 7 is_stmt 0
	li	a5,117
	bne	s2,a5,.L211
	.loc 1 903 9 is_stmt 1
	lui	a2,%hi(.LC204)
	addi	a2,a2,%lo(.LC204)
	j	.L223
.LVL85:
.L6:
	.loc 1 264 9
	.loc 1 264 11 is_stmt 0
	addi	a4,a5,256
	bne	s2,a4,.L8
	.loc 1 265 13 is_stmt 1
	lui	a2,%hi(.LC1)
	addi	a2,a2,%lo(.LC1)
	mv	a1,s1
	mv	a0,s0
	call	snprintf
.LVL86:
	.loc 1 266 9
	.loc 1 268 9
.L9:
	.loc 1 270 9
	.loc 1 270 11 is_stmt 0
	li	a5,24576
	addi	a5,a5,640
	bne	s2,a5,.L10
	.loc 1 271 13 is_stmt 1
	lui	a2,%hi(.LC4)
	addi	a2,a2,%lo(.LC4)
	mv	a1,s1
	mv	a0,s0
	call	snprintf
.LVL87:
	.loc 1 272 9
	.loc 1 274 9
.L12:
	.loc 1 276 9
	.loc 1 276 11 is_stmt 0
	li	a5,24576
	addi	a5,a5,1024
	bne	s2,a5,.L13
	.loc 1 277 13 is_stmt 1
	lui	a2,%hi(.LC7)
	addi	a2,a2,%lo(.LC7)
	mv	a1,s1
	mv	a0,s0
	call	snprintf
.LVL88:
	.loc 1 281 9
	.loc 1 283 9
.L15:
	.loc 1 285 9
	.loc 1 285 11 is_stmt 0
	li	a5,12288
	addi	a5,a5,384
	bne	s2,a5,.L16
	.loc 1 286 13 is_stmt 1
	lui	a2,%hi(.LC10)
	addi	a2,a2,%lo(.LC10)
	mv	a1,s1
	mv	a0,s0
	call	snprintf
.LVL89:
	.loc 1 287 9
	.loc 1 289 9
.L18:
	.loc 1 291 9
	.loc 1 291 11 is_stmt 0
	li	a5,12288
	addi	a5,a5,768
	bne	s2,a5,.L19
	.loc 1 292 13 is_stmt 1
	lui	a2,%hi(.LC13)
	addi	a2,a2,%lo(.LC13)
	mv	a1,s1
	mv	a0,s0
	call	snprintf
.LVL90:
	.loc 1 293 9
	.loc 1 295 9
.L21:
	.loc 1 297 9
	.loc 1 297 11 is_stmt 0
	li	a5,12288
	addi	a5,a5,1152
	bne	s2,a5,.L22
	.loc 1 298 13 is_stmt 1
	lui	a2,%hi(.LC16)
	addi	a2,a2,%lo(.LC16)
	mv	a1,s1
	mv	a0,s0
	call	snprintf
.LVL91:
	.loc 1 299 9
	.loc 1 301 9
.L24:
	.loc 1 306 9
	.loc 1 306 11 is_stmt 0
	li	a5,20480
	addi	a5,a5,-128
	bne	s2,a5,.L25
	.loc 1 307 13 is_stmt 1
	lui	a2,%hi(.LC19)
	addi	a2,a2,%lo(.LC19)
	mv	a1,s1
	mv	a0,s0
	call	snprintf
.LVL92:
	.loc 1 308 9
	.loc 1 310 9
.L27:
	.loc 1 312 9
	.loc 1 312 11 is_stmt 0
	li	a5,20480
	addi	a5,a5,-512
	bne	s2,a5,.L28
	.loc 1 313 13 is_stmt 1
	lui	a2,%hi(.LC22)
	addi	a2,a2,%lo(.LC22)
	mv	a1,s1
	mv	a0,s0
	call	snprintf
.LVL93:
	.loc 1 314 9
	.loc 1 316 9
.L30:
	.loc 1 318 9
	.loc 1 318 11 is_stmt 0
	li	a5,20480
	addi	a5,a5,-896
	bne	s2,a5,.L31
	.loc 1 319 13 is_stmt 1
	lui	a2,%hi(.LC25)
	addi	a2,a2,%lo(.LC25)
	mv	a1,s1
	mv	a0,s0
	call	snprintf
.LVL94:
	.loc 1 320 9
	.loc 1 322 9
.L33:
	.loc 1 324 9
	.loc 1 324 11 is_stmt 0
	li	a5,20480
	addi	a5,a5,-1280
	bne	s2,a5,.L34
	.loc 1 325 13 is_stmt 1
	lui	a2,%hi(.LC28)
	addi	a2,a2,%lo(.LC28)
	mv	a1,s1
	mv	a0,s0
	call	snprintf
.LVL95:
	.loc 1 329 9
	.loc 1 331 9
.L36:
	.loc 1 333 9
	.loc 1 333 11 is_stmt 0
	li	a5,20480
	addi	a5,a5,384
	bne	s2,a5,.L37
	.loc 1 334 13 is_stmt 1
	lui	a2,%hi(.LC31)
	addi	a2,a2,%lo(.LC31)
	mv	a1,s1
	mv	a0,s0
	call	snprintf
.LVL96:
	.loc 1 335 9
	.loc 1 337 9
.L39:
	.loc 1 342 9
	.loc 1 342 11 is_stmt 0
	li	a5,4096
	addi	a5,a5,128
	bne	s2,a5,.L40
	.loc 1 343 13 is_stmt 1
	lui	a2,%hi(.LC34)
	addi	a2,a2,%lo(.LC34)
	mv	a1,s1
	mv	a0,s0
	call	snprintf
.LVL97:
	.loc 1 344 9
	.loc 1 346 9
.L42:
	.loc 1 348 9
	.loc 1 348 11 is_stmt 0
	li	a5,4096
	addi	a5,a5,512
	bne	s2,a5,.L43
	.loc 1 349 13 is_stmt 1
	lui	a2,%hi(.LC37)
	addi	a2,a2,%lo(.LC37)
	mv	a1,s1
	mv	a0,s0
	call	snprintf
.LVL98:
	.loc 1 350 9
	.loc 1 352 9
.L45:
	.loc 1 354 9
	.loc 1 354 11 is_stmt 0
	li	a5,4096
	addi	a5,a5,896
	bne	s2,a5,.L46
	.loc 1 355 13 is_stmt 1
	lui	a2,%hi(.LC40)
	addi	a2,a2,%lo(.LC40)
	mv	a1,s1
	mv	a0,s0
	call	snprintf
.LVL99:
	.loc 1 356 9
	.loc 1 358 9
.L48:
	.loc 1 363 9
	.loc 1 363 11 is_stmt 0
	li	a5,16384
	addi	a5,a5,-128
	bne	s2,a5,.L49
	.loc 1 364 13 is_stmt 1
	lui	a2,%hi(.LC43)
	addi	a2,a2,%lo(.LC43)
	mv	a1,s1
	mv	a0,s0
	call	snprintf
.LVL100:
	.loc 1 365 9
	.loc 1 367 9
.L51:
	.loc 1 369 9
	.loc 1 369 11 is_stmt 0
	li	a5,16384
	addi	a5,a5,-512
	bne	s2,a5,.L52
	.loc 1 370 13 is_stmt 1
	lui	a2,%hi(.LC46)
	addi	a2,a2,%lo(.LC46)
	mv	a1,s1
	mv	a0,s0
	call	snprintf
.LVL101:
	.loc 1 371 9
	.loc 1 373 9
.L54:
	.loc 1 375 9
	.loc 1 375 11 is_stmt 0
	li	a5,16384
	addi	a5,a5,-896
	bne	s2,a5,.L55
	.loc 1 376 13 is_stmt 1
	lui	a2,%hi(.LC49)
	addi	a2,a2,%lo(.LC49)
	mv	a1,s1
	mv	a0,s0
	call	snprintf
.LVL102:
	.loc 1 377 9
	.loc 1 379 9
.L57:
	.loc 1 381 9
	.loc 1 381 11 is_stmt 0
	li	a5,16384
	addi	a5,a5,-1280
	bne	s2,a5,.L58
	.loc 1 382 13 is_stmt 1
	lui	a2,%hi(.LC52)
	addi	a2,a2,%lo(.LC52)
	mv	a1,s1
	mv	a0,s0
	call	snprintf
.LVL103:
	.loc 1 383 9
	.loc 1 385 9
.L60:
	.loc 1 387 9
	.loc 1 387 11 is_stmt 0
	li	a5,16384
	addi	a5,a5,-1664
	bne	s2,a5,.L61
	.loc 1 388 13 is_stmt 1
	lui	a2,%hi(.LC55)
	addi	a2,a2,%lo(.LC55)
	mv	a1,s1
	mv	a0,s0
	call	snprintf
.LVL104:
	.loc 1 389 9
	.loc 1 391 9
.L63:
	.loc 1 418 9
	.loc 1 418 11 is_stmt 0
	li	a5,16384
	addi	a5,a5,128
	bne	s2,a5,.L64
	.loc 1 419 13 is_stmt 1
	lui	a2,%hi(.LC58)
	addi	a2,a2,%lo(.LC58)
	mv	a1,s1
	mv	a0,s0
	call	snprintf
.LVL105:
	.loc 1 420 9
	.loc 1 422 9
.L66:
	.loc 1 424 9
	.loc 1 424 11 is_stmt 0
	li	a5,16384
	addi	a5,a5,512
	bne	s2,a5,.L67
	.loc 1 425 13 is_stmt 1
	lui	a2,%hi(.LC61)
	addi	a2,a2,%lo(.LC61)
	mv	a1,s1
	mv	a0,s0
	call	snprintf
.LVL106:
	.loc 1 426 9
	.loc 1 428 9
.L69:
	.loc 1 430 9
	.loc 1 430 11 is_stmt 0
	li	a5,16384
	addi	a5,a5,896
	bne	s2,a5,.L70
	.loc 1 431 13 is_stmt 1
	lui	a2,%hi(.LC64)
	addi	a2,a2,%lo(.LC64)
	mv	a1,s1
	mv	a0,s0
	call	snprintf
.LVL107:
	.loc 1 432 9
	.loc 1 434 9
.L72:
	.loc 1 436 9
	.loc 1 436 11 is_stmt 0
	li	a5,16384
	addi	a5,a5,1280
	bne	s2,a5,.L73
	.loc 1 437 13 is_stmt 1
	lui	a2,%hi(.LC67)
	addi	a2,a2,%lo(.LC67)
	mv	a1,s1
	mv	a0,s0
	call	snprintf
.LVL108:
	.loc 1 438 9
	.loc 1 443 9
.L75:
	.loc 1 445 9
	.loc 1 445 11 is_stmt 0
	li	a5,28672
	addi	a5,a5,256
	bne	s2,a5,.L76
	.loc 1 446 13 is_stmt 1
	lui	a2,%hi(.LC70)
	addi	a2,a2,%lo(.LC70)
	mv	a1,s1
	mv	a0,s0
	call	snprintf
.LVL109:
	.loc 1 447 9
	.loc 1 449 9
.L78:
	.loc 1 451 9
	.loc 1 451 11 is_stmt 0
	li	a5,28672
	addi	a5,a5,640
	bne	s2,a5,.L79
	.loc 1 452 13 is_stmt 1
	lui	a2,%hi(.LC73)
	addi	a2,a2,%lo(.LC73)
	mv	a1,s1
	mv	a0,s0
	call	snprintf
.LVL110:
	.loc 1 453 9
	.loc 1 455 9
.L81:
	.loc 1 457 9
	.loc 1 457 11 is_stmt 0
	li	a5,28672
	addi	a5,a5,1024
	bne	s2,a5,.L82
	.loc 1 458 13 is_stmt 1
	lui	a2,%hi(.LC76)
	addi	a2,a2,%lo(.LC76)
	mv	a1,s1
	mv	a0,s0
	call	snprintf
.LVL111:
	.loc 1 459 9
	.loc 1 461 9
.L84:
	.loc 1 463 9
	.loc 1 463 11 is_stmt 0
	li	a5,28672
	addi	a5,a5,1408
	bne	s2,a5,.L85
	.loc 1 464 13 is_stmt 1
	lui	a2,%hi(.LC79)
	addi	a2,a2,%lo(.LC79)
	mv	a1,s1
	mv	a0,s0
	call	snprintf
.LVL112:
	.loc 1 465 9
	.loc 1 467 9
.L87:
	.loc 1 469 9
	.loc 1 469 11 is_stmt 0
	li	a5,28672
	addi	a5,a5,1792
	bne	s2,a5,.L88
	.loc 1 470 13 is_stmt 1
	lui	a2,%hi(.LC82)
	addi	a2,a2,%lo(.LC82)
	mv	a1,s1
	mv	a0,s0
	call	snprintf
.LVL113:
	.loc 1 471 9
	.loc 1 478 9
.L90:
	.loc 1 480 9
	.loc 1 480 11 is_stmt 0
	li	a5,32768
	addi	a5,a5,-1792
	bne	s2,a5,.L92
	.loc 1 481 13 is_stmt 1
	lui	a2,%hi(.LC86)
	addi	a2,a2,%lo(.LC86)
	mv	a1,s1
	mv	a0,s0
	call	snprintf
.LVL114:
	.loc 1 482 9
	.loc 1 484 9
.L94:
	.loc 1 486 9
	.loc 1 486 11 is_stmt 0
	li	a5,32768
	addi	a5,a5,-1408
	bne	s2,a5,.L95
	.loc 1 487 13 is_stmt 1
	lui	a2,%hi(.LC89)
	addi	a2,a2,%lo(.LC89)
	mv	a1,s1
	mv	a0,s0
	call	snprintf
.LVL115:
	.loc 1 488 9
	.loc 1 490 9
.L97:
	.loc 1 492 9
	.loc 1 492 11 is_stmt 0
	li	a5,32768
	addi	a5,a5,-1024
	bne	s2,a5,.L98
	.loc 1 493 13 is_stmt 1
	lui	a2,%hi(.LC92)
	addi	a2,a2,%lo(.LC92)
	mv	a1,s1
	mv	a0,s0
	call	snprintf
.LVL116:
	.loc 1 494 9
	.loc 1 496 9
.L100:
	.loc 1 498 9
	.loc 1 498 11 is_stmt 0
	li	a5,32768
	addi	a5,a5,-640
	bne	s2,a5,.L101
	.loc 1 499 13 is_stmt 1
	lui	a2,%hi(.LC95)
	addi	a2,a2,%lo(.LC95)
	mv	a1,s1
	mv	a0,s0
	call	snprintf
.LVL117:
	.loc 1 500 9
	.loc 1 502 9
.L103:
	.loc 1 504 9
	.loc 1 504 11 is_stmt 0
	li	a5,32768
	addi	a5,a5,-256
	bne	s2,a5,.L104
	.loc 1 505 13 is_stmt 1
	lui	a2,%hi(.LC98)
	addi	a2,a2,%lo(.LC98)
	mv	a1,s1
	mv	a0,s0
	call	snprintf
.LVL118:
	.loc 1 506 9
	.loc 1 508 9
.L106:
	.loc 1 510 9
	.loc 1 510 11 is_stmt 0
	li	a5,28672
	addi	a5,a5,-256
	bne	s2,a5,.L107
	.loc 1 511 13 is_stmt 1
	lui	a2,%hi(.LC101)
	addi	a2,a2,%lo(.LC101)
	mv	a1,s1
	mv	a0,s0
	call	snprintf
.LVL119:
	.loc 1 512 9
	.loc 1 514 9
.L109:
	.loc 1 516 9
	.loc 1 516 11 is_stmt 0
	li	a5,28672
	addi	a5,a5,-640
	bne	s2,a5,.L110
	.loc 1 517 13 is_stmt 1
	lui	a2,%hi(.LC104)
	addi	a2,a2,%lo(.LC104)
	mv	a1,s1
	mv	a0,s0
	call	snprintf
.LVL120:
	.loc 1 518 9
	.loc 1 520 9
.L112:
	.loc 1 522 9
	.loc 1 522 11 is_stmt 0
	li	a5,28672
	addi	a5,a5,-1024
	bne	s2,a5,.L113
	.loc 1 523 13 is_stmt 1
	lui	a2,%hi(.LC107)
	addi	a2,a2,%lo(.LC107)
	mv	a1,s1
	mv	a0,s0
	call	snprintf
.LVL121:
	.loc 1 524 9
	.loc 1 526 9
.L115:
	.loc 1 528 9
	.loc 1 528 11 is_stmt 0
	li	a5,28672
	addi	a5,a5,-1408
	bne	s2,a5,.L116
	.loc 1 529 13 is_stmt 1
	lui	a2,%hi(.LC110)
	addi	a2,a2,%lo(.LC110)
	mv	a1,s1
	mv	a0,s0
	call	snprintf
.LVL122:
	.loc 1 530 9
	.loc 1 532 9
.L118:
	.loc 1 534 9
	.loc 1 534 11 is_stmt 0
	li	a5,28672
	addi	a5,a5,-1792
	bne	s2,a5,.L119
	.loc 1 535 13 is_stmt 1
	lui	a2,%hi(.LC113)
	addi	a2,a2,%lo(.LC113)
	mv	a1,s1
	mv	a0,s0
	call	snprintf
.LVL123:
	.loc 1 536 9
	.loc 1 538 9
.L121:
	.loc 1 540 9
	.loc 1 540 11 is_stmt 0
	li	a5,24576
	addi	a5,a5,1920
	bne	s2,a5,.L122
	.loc 1 541 13 is_stmt 1
	lui	a2,%hi(.LC116)
	addi	a2,a2,%lo(.LC116)
	mv	a1,s1
	mv	a0,s0
	call	snprintf
.LVL124:
	.loc 1 542 9
	.loc 1 544 9
.L124:
	.loc 1 546 9
	.loc 1 546 11 is_stmt 0
	li	a5,24576
	addi	a5,a5,1536
	bne	s2,a5,.L125
	.loc 1 547 13 is_stmt 1
	lui	a2,%hi(.LC119)
	addi	a2,a2,%lo(.LC119)
	mv	a1,s1
	mv	a0,s0
	call	snprintf
.LVL125:
	.loc 1 548 9
	.loc 1 550 9
.L127:
	.loc 1 552 9
	.loc 1 552 11 is_stmt 0
	li	a5,24576
	addi	a5,a5,1152
	bne	s2,a5,.L128
	.loc 1 553 13 is_stmt 1
	lui	a2,%hi(.LC122)
	addi	a2,a2,%lo(.LC122)
	mv	a1,s1
	mv	a0,s0
	call	snprintf
.LVL126:
	.loc 1 554 9
	.loc 1 556 9
.L130:
	.loc 1 561 9
	.loc 1 561 11 is_stmt 0
	li	a5,8192
	addi	a5,a5,128
	bne	s2,a5,.L131
	.loc 1 562 13 is_stmt 1
	lui	a2,%hi(.LC125)
	addi	a2,a2,%lo(.LC125)
	mv	a1,s1
	mv	a0,s0
	call	snprintf
.LVL127:
	.loc 1 563 9
	.loc 1 565 9
.L133:
	.loc 1 567 9
	.loc 1 567 11 is_stmt 0
	li	a5,8192
	addi	a5,a5,512
	bne	s2,a5,.L134
	.loc 1 568 13 is_stmt 1
	lui	a2,%hi(.LC128)
	addi	a2,a2,%lo(.LC128)
	mv	a1,s1
	mv	a0,s0
	call	snprintf
.LVL128:
	.loc 1 569 9
	.loc 1 571 9
.L136:
	.loc 1 573 9
	.loc 1 573 11 is_stmt 0
	li	a5,8192
	addi	a5,a5,896
	bne	s2,a5,.L137
	.loc 1 574 13 is_stmt 1
	lui	a2,%hi(.LC131)
	addi	a2,a2,%lo(.LC131)
	mv	a1,s1
	mv	a0,s0
	call	snprintf
.LVL129:
	.loc 1 575 9
	.loc 1 577 9
.L139:
	.loc 1 579 9
	.loc 1 579 11 is_stmt 0
	li	a5,8192
	addi	a5,a5,1280
	bne	s2,a5,.L140
	.loc 1 580 13 is_stmt 1
	lui	a2,%hi(.LC134)
	addi	a2,a2,%lo(.LC134)
	mv	a1,s1
	mv	a0,s0
	call	snprintf
.LVL130:
	.loc 1 581 9
	.loc 1 583 9
.L142:
	.loc 1 585 9
	.loc 1 585 11 is_stmt 0
	li	a5,8192
	addi	a5,a5,1664
	bne	s2,a5,.L143
	.loc 1 586 13 is_stmt 1
	lui	a2,%hi(.LC137)
	addi	a2,a2,%lo(.LC137)
	mv	a1,s1
	mv	a0,s0
	call	snprintf
.LVL131:
	.loc 1 587 9
	.loc 1 589 9
.L145:
	.loc 1 591 9
	.loc 1 591 11 is_stmt 0
	li	a5,12288
	addi	a5,a5,-2048
	bne	s2,a5,.L146
	.loc 1 592 13 is_stmt 1
	lui	a2,%hi(.LC140)
	addi	a2,a2,%lo(.LC140)
	mv	a1,s1
	mv	a0,s0
	call	snprintf
.LVL132:
	.loc 1 593 9
	.loc 1 595 9
.L148:
	.loc 1 597 9
	.loc 1 597 11 is_stmt 0
	li	a5,12288
	addi	a5,a5,-1664
	bne	s2,a5,.L149
	.loc 1 598 13 is_stmt 1
	lui	a2,%hi(.LC143)
	addi	a2,a2,%lo(.LC143)
	j	.L222
.L8:
	.loc 1 266 9
	.loc 1 266 11 is_stmt 0
	addi	a5,a5,384
	bne	s2,a5,.L7
	.loc 1 267 13 is_stmt 1
	lui	a2,%hi(.LC2)
	addi	a2,a2,%lo(.LC2)
	mv	a1,s1
	mv	a0,s0
	call	snprintf
.LVL133:
	.loc 1 268 9
	.loc 1 270 9
.L10:
	.loc 1 272 9
	.loc 1 272 11 is_stmt 0
	li	a5,24576
	addi	a5,a5,768
	bne	s2,a5,.L11
	.loc 1 273 13 is_stmt 1
	lui	a2,%hi(.LC5)
	addi	a2,a2,%lo(.LC5)
	mv	a1,s1
	mv	a0,s0
	call	snprintf
.LVL134:
	.loc 1 274 9
	.loc 1 276 9
.L13:
	.loc 1 281 9
	.loc 1 281 11 is_stmt 0
	li	a5,12288
	addi	a5,a5,128
	bne	s2,a5,.L14
	.loc 1 282 13 is_stmt 1
	lui	a2,%hi(.LC8)
	addi	a2,a2,%lo(.LC8)
	mv	a1,s1
	mv	a0,s0
	call	snprintf
.LVL135:
	.loc 1 283 9
	.loc 1 285 9
.L16:
	.loc 1 287 9
	.loc 1 287 11 is_stmt 0
	li	a5,12288
	addi	a5,a5,512
	bne	s2,a5,.L17
	.loc 1 288 13 is_stmt 1
	lui	a2,%hi(.LC11)
	addi	a2,a2,%lo(.LC11)
	mv	a1,s1
	mv	a0,s0
	call	snprintf
.LVL136:
	.loc 1 289 9
	.loc 1 291 9
.L19:
	.loc 1 293 9
	.loc 1 293 11 is_stmt 0
	li	a5,12288
	addi	a5,a5,896
	bne	s2,a5,.L20
	.loc 1 294 13 is_stmt 1
	lui	a2,%hi(.LC14)
	addi	a2,a2,%lo(.LC14)
	mv	a1,s1
	mv	a0,s0
	call	snprintf
.LVL137:
	.loc 1 295 9
	.loc 1 297 9
.L22:
	.loc 1 299 9
	.loc 1 299 11 is_stmt 0
	li	a5,12288
	addi	a5,a5,1280
	bne	s2,a5,.L23
	.loc 1 300 13 is_stmt 1
	lui	a2,%hi(.LC17)
	addi	a2,a2,%lo(.LC17)
	mv	a1,s1
	mv	a0,s0
	call	snprintf
.LVL138:
	.loc 1 301 9
	.loc 1 306 9
.L25:
	.loc 1 308 9
	.loc 1 308 11 is_stmt 0
	li	a5,20480
	addi	a5,a5,-256
	bne	s2,a5,.L26
	.loc 1 309 13 is_stmt 1
	lui	a2,%hi(.LC20)
	addi	a2,a2,%lo(.LC20)
	mv	a1,s1
	mv	a0,s0
	call	snprintf
.LVL139:
	.loc 1 310 9
	.loc 1 312 9
.L28:
	.loc 1 314 9
	.loc 1 314 11 is_stmt 0
	li	a5,20480
	addi	a5,a5,-640
	bne	s2,a5,.L29
	.loc 1 315 13 is_stmt 1
	lui	a2,%hi(.LC23)
	addi	a2,a2,%lo(.LC23)
	mv	a1,s1
	mv	a0,s0
	call	snprintf
.LVL140:
	.loc 1 316 9
	.loc 1 318 9
.L31:
	.loc 1 320 9
	.loc 1 320 11 is_stmt 0
	li	a5,20480
	addi	a5,a5,-1024
	bne	s2,a5,.L32
	.loc 1 321 13 is_stmt 1
	lui	a2,%hi(.LC26)
	addi	a2,a2,%lo(.LC26)
	mv	a1,s1
	mv	a0,s0
	call	snprintf
.LVL141:
	.loc 1 322 9
	.loc 1 324 9
.L34:
	.loc 1 329 9
	.loc 1 329 11 is_stmt 0
	li	a5,20480
	addi	a5,a5,128
	bne	s2,a5,.L35
	.loc 1 330 13 is_stmt 1
	lui	a2,%hi(.LC29)
	addi	a2,a2,%lo(.LC29)
	mv	a1,s1
	mv	a0,s0
	call	snprintf
.LVL142:
	.loc 1 331 9
	.loc 1 333 9
.L37:
	.loc 1 335 9
	.loc 1 335 11 is_stmt 0
	li	a5,20480
	addi	a5,a5,512
	bne	s2,a5,.L38
	.loc 1 336 13 is_stmt 1
	lui	a2,%hi(.LC32)
	addi	a2,a2,%lo(.LC32)
	mv	a1,s1
	mv	a0,s0
	call	snprintf
.LVL143:
	.loc 1 337 9
	.loc 1 342 9
.L40:
	.loc 1 344 9
	.loc 1 344 11 is_stmt 0
	li	a5,4096
	addi	a5,a5,256
	bne	s2,a5,.L41
	.loc 1 345 13 is_stmt 1
	lui	a2,%hi(.LC35)
	addi	a2,a2,%lo(.LC35)
	mv	a1,s1
	mv	a0,s0
	call	snprintf
.LVL144:
	.loc 1 346 9
	.loc 1 348 9
.L43:
	.loc 1 350 9
	.loc 1 350 11 is_stmt 0
	li	a5,4096
	addi	a5,a5,640
	bne	s2,a5,.L44
	.loc 1 351 13 is_stmt 1
	lui	a2,%hi(.LC38)
	addi	a2,a2,%lo(.LC38)
	mv	a1,s1
	mv	a0,s0
	call	snprintf
.LVL145:
	.loc 1 352 9
	.loc 1 354 9
.L46:
	.loc 1 356 9
	.loc 1 356 11 is_stmt 0
	li	a5,4096
	addi	a5,a5,1024
	bne	s2,a5,.L47
	.loc 1 357 13 is_stmt 1
	lui	a2,%hi(.LC41)
	addi	a2,a2,%lo(.LC41)
	mv	a1,s1
	mv	a0,s0
	call	snprintf
.LVL146:
	.loc 1 358 9
	.loc 1 363 9
.L49:
	.loc 1 365 9
	.loc 1 365 11 is_stmt 0
	li	a5,16384
	addi	a5,a5,-256
	bne	s2,a5,.L50
	.loc 1 366 13 is_stmt 1
	lui	a2,%hi(.LC44)
	addi	a2,a2,%lo(.LC44)
	mv	a1,s1
	mv	a0,s0
	call	snprintf
.LVL147:
	.loc 1 367 9
	.loc 1 369 9
.L52:
	.loc 1 371 9
	.loc 1 371 11 is_stmt 0
	li	a5,16384
	addi	a5,a5,-640
	bne	s2,a5,.L53
	.loc 1 372 13 is_stmt 1
	lui	a2,%hi(.LC47)
	addi	a2,a2,%lo(.LC47)
	mv	a1,s1
	mv	a0,s0
	call	snprintf
.LVL148:
	.loc 1 373 9
	.loc 1 375 9
.L55:
	.loc 1 377 9
	.loc 1 377 11 is_stmt 0
	li	a5,16384
	addi	a5,a5,-1024
	bne	s2,a5,.L56
	.loc 1 378 13 is_stmt 1
	lui	a2,%hi(.LC50)
	addi	a2,a2,%lo(.LC50)
	mv	a1,s1
	mv	a0,s0
	call	snprintf
.LVL149:
	.loc 1 379 9
	.loc 1 381 9
.L58:
	.loc 1 383 9
	.loc 1 383 11 is_stmt 0
	li	a5,16384
	addi	a5,a5,-1408
	bne	s2,a5,.L59
	.loc 1 384 13 is_stmt 1
	lui	a2,%hi(.LC53)
	addi	a2,a2,%lo(.LC53)
	mv	a1,s1
	mv	a0,s0
	call	snprintf
.LVL150:
	.loc 1 385 9
	.loc 1 387 9
.L61:
	.loc 1 389 9
	.loc 1 389 11 is_stmt 0
	li	a5,16384
	addi	a5,a5,-1792
	bne	s2,a5,.L62
	.loc 1 390 13 is_stmt 1
	lui	a2,%hi(.LC56)
	addi	a2,a2,%lo(.LC56)
	mv	a1,s1
	mv	a0,s0
	call	snprintf
.LVL151:
	.loc 1 391 9
	.loc 1 418 9
.L64:
	.loc 1 420 9
	.loc 1 420 11 is_stmt 0
	li	a5,16384
	addi	a5,a5,256
	bne	s2,a5,.L65
	.loc 1 421 13 is_stmt 1
	lui	a2,%hi(.LC59)
	addi	a2,a2,%lo(.LC59)
	mv	a1,s1
	mv	a0,s0
	call	snprintf
.LVL152:
	.loc 1 422 9
	.loc 1 424 9
.L67:
	.loc 1 426 9
	.loc 1 426 11 is_stmt 0
	li	a5,16384
	addi	a5,a5,640
	bne	s2,a5,.L68
	.loc 1 427 13 is_stmt 1
	lui	a2,%hi(.LC62)
	addi	a2,a2,%lo(.LC62)
	mv	a1,s1
	mv	a0,s0
	call	snprintf
.LVL153:
	.loc 1 428 9
	.loc 1 430 9
.L70:
	.loc 1 432 9
	.loc 1 432 11 is_stmt 0
	li	a5,16384
	addi	a5,a5,1024
	bne	s2,a5,.L71
	.loc 1 433 13 is_stmt 1
	lui	a2,%hi(.LC65)
	addi	a2,a2,%lo(.LC65)
	mv	a1,s1
	mv	a0,s0
	call	snprintf
.LVL154:
	.loc 1 434 9
	.loc 1 436 9
.L73:
	.loc 1 438 9
	.loc 1 438 11 is_stmt 0
	li	a5,16384
	addi	a5,a5,1408
	bne	s2,a5,.L74
	.loc 1 439 13 is_stmt 1
	lui	a2,%hi(.LC68)
	addi	a2,a2,%lo(.LC68)
	mv	a1,s1
	mv	a0,s0
	call	snprintf
.LVL155:
	.loc 1 443 9
	.loc 1 445 9
.L76:
	.loc 1 447 9
	.loc 1 447 11 is_stmt 0
	li	a5,28672
	addi	a5,a5,384
	bne	s2,a5,.L77
	.loc 1 448 13 is_stmt 1
	lui	a2,%hi(.LC71)
	addi	a2,a2,%lo(.LC71)
	mv	a1,s1
	mv	a0,s0
	call	snprintf
.LVL156:
	.loc 1 449 9
	.loc 1 451 9
.L79:
	.loc 1 453 9
	.loc 1 453 11 is_stmt 0
	li	a5,28672
	addi	a5,a5,768
	bne	s2,a5,.L80
	.loc 1 454 13 is_stmt 1
	lui	a2,%hi(.LC74)
	addi	a2,a2,%lo(.LC74)
	mv	a1,s1
	mv	a0,s0
	call	snprintf
.LVL157:
	.loc 1 455 9
	.loc 1 457 9
.L82:
	.loc 1 459 9
	.loc 1 459 11 is_stmt 0
	li	a5,28672
	addi	a5,a5,1152
	bne	s2,a5,.L83
	.loc 1 460 13 is_stmt 1
	lui	a2,%hi(.LC77)
	addi	a2,a2,%lo(.LC77)
	mv	a1,s1
	mv	a0,s0
	call	snprintf
.LVL158:
	.loc 1 461 9
	.loc 1 463 9
.L85:
	.loc 1 465 9
	.loc 1 465 11 is_stmt 0
	li	a5,28672
	addi	a5,a5,1536
	bne	s2,a5,.L86
	.loc 1 466 13 is_stmt 1
	lui	a2,%hi(.LC80)
	addi	a2,a2,%lo(.LC80)
	mv	a1,s1
	mv	a0,s0
	call	snprintf
.LVL159:
	.loc 1 467 9
	.loc 1 469 9
.L88:
	.loc 1 471 9
	.loc 1 471 11 is_stmt 0
	li	a5,28672
	addi	a5,a5,1920
	bne	s2,a5,.L91
	.loc 1 473 13 is_stmt 1
	mv	a0,s0
	.loc 1 927 1 is_stmt 0
	lw	s0,24(sp)
	.cfi_remember_state
	.cfi_restore 8
.LVL160:
	lw	ra,28(sp)
	.cfi_restore 1
	lw	s2,16(sp)
	.cfi_restore 18
.LVL161:
	lw	s3,12(sp)
	.cfi_restore 19
.LVL162:
	.loc 1 473 13
	mv	a1,s1
	.loc 1 927 1
	lw	s1,20(sp)
	.cfi_restore 9
.LVL163:
	.loc 1 473 13
	lui	a2,%hi(.LC83)
	.loc 1 927 1
	.loc 1 473 13
	addi	a2,a2,%lo(.LC83)
	.loc 1 927 1
	addi	sp,sp,32
	.cfi_def_cfa_offset 0
	.loc 1 473 13
	tail	snprintf
.LVL164:
.L91:
	.cfi_restore_state
	.loc 1 476 9 is_stmt 1
	.loc 1 476 11 is_stmt 0
	li	a5,32768
	addi	a5,a5,-2048
	bne	s2,a5,.L89
	.loc 1 477 13 is_stmt 1
	lui	a2,%hi(.LC84)
	addi	a2,a2,%lo(.LC84)
	mv	a1,s1
	mv	a0,s0
	call	snprintf
.LVL165:
	.loc 1 478 9
	.loc 1 480 9
.L92:
	.loc 1 482 9
	.loc 1 482 11 is_stmt 0
	li	a5,32768
	addi	a5,a5,-1664
	bne	s2,a5,.L93
	.loc 1 483 13 is_stmt 1
	lui	a2,%hi(.LC87)
	addi	a2,a2,%lo(.LC87)
	mv	a1,s1
	mv	a0,s0
	call	snprintf
.LVL166:
	.loc 1 484 9
	.loc 1 486 9
.L95:
	.loc 1 488 9
	.loc 1 488 11 is_stmt 0
	li	a5,32768
	addi	a5,a5,-1280
	bne	s2,a5,.L96
	.loc 1 489 13 is_stmt 1
	lui	a2,%hi(.LC90)
	addi	a2,a2,%lo(.LC90)
	mv	a1,s1
	mv	a0,s0
	call	snprintf
.LVL167:
	.loc 1 490 9
	.loc 1 492 9
.L98:
	.loc 1 494 9
	.loc 1 494 11 is_stmt 0
	li	a5,32768
	addi	a5,a5,-896
	bne	s2,a5,.L99
	.loc 1 495 13 is_stmt 1
	lui	a2,%hi(.LC93)
	addi	a2,a2,%lo(.LC93)
	mv	a1,s1
	mv	a0,s0
	call	snprintf
.LVL168:
	.loc 1 496 9
	.loc 1 498 9
.L101:
	.loc 1 500 9
	.loc 1 500 11 is_stmt 0
	li	a5,32768
	addi	a5,a5,-512
	bne	s2,a5,.L102
	.loc 1 501 13 is_stmt 1
	lui	a2,%hi(.LC96)
	addi	a2,a2,%lo(.LC96)
	mv	a1,s1
	mv	a0,s0
	call	snprintf
.LVL169:
	.loc 1 502 9
	.loc 1 504 9
.L104:
	.loc 1 506 9
	.loc 1 506 11 is_stmt 0
	li	a5,32768
	addi	a5,a5,-128
	bne	s2,a5,.L105
	.loc 1 507 13 is_stmt 1
	lui	a2,%hi(.LC99)
	addi	a2,a2,%lo(.LC99)
	mv	a1,s1
	mv	a0,s0
	call	snprintf
.LVL170:
	.loc 1 508 9
	.loc 1 510 9
.L107:
	.loc 1 512 9
	.loc 1 512 11 is_stmt 0
	li	a5,28672
	addi	a5,a5,-384
	bne	s2,a5,.L108
	.loc 1 513 13 is_stmt 1
	lui	a2,%hi(.LC102)
	addi	a2,a2,%lo(.LC102)
	mv	a1,s1
	mv	a0,s0
	call	snprintf
.LVL171:
	.loc 1 514 9
	.loc 1 516 9
.L110:
	.loc 1 518 9
	.loc 1 518 11 is_stmt 0
	li	a5,28672
	addi	a5,a5,-768
	bne	s2,a5,.L111
	.loc 1 519 13 is_stmt 1
	lui	a2,%hi(.LC105)
	addi	a2,a2,%lo(.LC105)
	mv	a1,s1
	mv	a0,s0
	call	snprintf
.LVL172:
	.loc 1 520 9
	.loc 1 522 9
.L113:
	.loc 1 524 9
	.loc 1 524 11 is_stmt 0
	li	a5,28672
	addi	a5,a5,-1152
	bne	s2,a5,.L114
	.loc 1 525 13 is_stmt 1
	lui	a2,%hi(.LC108)
	addi	a2,a2,%lo(.LC108)
	mv	a1,s1
	mv	a0,s0
	call	snprintf
.LVL173:
	.loc 1 526 9
	.loc 1 528 9
.L116:
	.loc 1 530 9
	.loc 1 530 11 is_stmt 0
	li	a5,28672
	addi	a5,a5,-1536
	bne	s2,a5,.L117
	.loc 1 531 13 is_stmt 1
	lui	a2,%hi(.LC111)
	addi	a2,a2,%lo(.LC111)
	mv	a1,s1
	mv	a0,s0
	call	snprintf
.LVL174:
	.loc 1 532 9
	.loc 1 534 9
.L119:
	.loc 1 536 9
	.loc 1 536 11 is_stmt 0
	li	a5,28672
	addi	a5,a5,-1920
	bne	s2,a5,.L120
	.loc 1 537 13 is_stmt 1
	lui	a2,%hi(.LC114)
	addi	a2,a2,%lo(.LC114)
	mv	a1,s1
	mv	a0,s0
	call	snprintf
.LVL175:
	.loc 1 538 9
	.loc 1 540 9
.L122:
	.loc 1 542 9
	.loc 1 542 11 is_stmt 0
	li	a5,24576
	addi	a5,a5,1792
	bne	s2,a5,.L123
	.loc 1 543 13 is_stmt 1
	lui	a2,%hi(.LC117)
	addi	a2,a2,%lo(.LC117)
	mv	a1,s1
	mv	a0,s0
	call	snprintf
.LVL176:
	.loc 1 544 9
	.loc 1 546 9
.L125:
	.loc 1 548 9
	.loc 1 548 11 is_stmt 0
	li	a5,24576
	addi	a5,a5,1408
	bne	s2,a5,.L126
	.loc 1 549 13 is_stmt 1
	lui	a2,%hi(.LC120)
	addi	a2,a2,%lo(.LC120)
	mv	a1,s1
	mv	a0,s0
	call	snprintf
.LVL177:
	.loc 1 550 9
	.loc 1 552 9
.L128:
	.loc 1 554 9
	.loc 1 554 11 is_stmt 0
	li	a5,28672
	bne	s2,a5,.L129
	.loc 1 555 13 is_stmt 1
	lui	a2,%hi(.LC123)
	addi	a2,a2,%lo(.LC123)
	mv	a1,s1
	mv	a0,s0
	call	snprintf
.LVL178:
	.loc 1 556 9
	.loc 1 561 9
.L131:
	.loc 1 563 9
	.loc 1 563 11 is_stmt 0
	li	a5,8192
	addi	a5,a5,256
	bne	s2,a5,.L132
	.loc 1 564 13 is_stmt 1
	lui	a2,%hi(.LC126)
	addi	a2,a2,%lo(.LC126)
	mv	a1,s1
	mv	a0,s0
	call	snprintf
.LVL179:
	.loc 1 565 9
	.loc 1 567 9
.L134:
	.loc 1 569 9
	.loc 1 569 11 is_stmt 0
	li	a5,8192
	addi	a5,a5,640
	bne	s2,a5,.L135
	.loc 1 570 13 is_stmt 1
	lui	a2,%hi(.LC129)
	addi	a2,a2,%lo(.LC129)
	mv	a1,s1
	mv	a0,s0
	call	snprintf
.LVL180:
	.loc 1 571 9
	.loc 1 573 9
.L137:
	.loc 1 575 9
	.loc 1 575 11 is_stmt 0
	li	a5,8192
	addi	a5,a5,1024
	bne	s2,a5,.L138
	.loc 1 576 13 is_stmt 1
	lui	a2,%hi(.LC132)
	addi	a2,a2,%lo(.LC132)
	mv	a1,s1
	mv	a0,s0
	call	snprintf
.LVL181:
	.loc 1 577 9
	.loc 1 579 9
.L140:
	.loc 1 581 9
	.loc 1 581 11 is_stmt 0
	li	a5,8192
	addi	a5,a5,1408
	bne	s2,a5,.L141
	.loc 1 582 13 is_stmt 1
	lui	a2,%hi(.LC135)
	addi	a2,a2,%lo(.LC135)
	mv	a1,s1
	mv	a0,s0
	call	snprintf
.LVL182:
	.loc 1 583 9
	.loc 1 585 9
.L143:
	.loc 1 587 9
	.loc 1 587 11 is_stmt 0
	li	a5,8192
	addi	a5,a5,1792
	bne	s2,a5,.L144
	.loc 1 588 13 is_stmt 1
	lui	a2,%hi(.LC138)
	addi	a2,a2,%lo(.LC138)
	mv	a1,s1
	mv	a0,s0
	call	snprintf
.LVL183:
	.loc 1 589 9
	.loc 1 591 9
.L146:
	.loc 1 593 9
	.loc 1 593 11 is_stmt 0
	li	a5,12288
	addi	a5,a5,-1920
	bne	s2,a5,.L147
	.loc 1 594 13 is_stmt 1
	lui	a2,%hi(.LC141)
	addi	a2,a2,%lo(.LC141)
	mv	a1,s1
	mv	a0,s0
	call	snprintf
.LVL184:
	.loc 1 595 9
	.loc 1 597 9
.L149:
	.loc 1 599 9
	.loc 1 599 11 is_stmt 0
	li	a5,12288
	bne	s2,a5,.L150
	.loc 1 600 13 is_stmt 1
	lui	a2,%hi(.LC144)
	addi	a2,a2,%lo(.LC144)
	j	.L222
.LVL185:
.L154:
	.loc 1 635 5
	.loc 1 635 7 is_stmt 0
	li	a5,34
	bne	s2,a5,.L156
	.loc 1 636 9 is_stmt 1
	lui	a2,%hi(.LC148)
	addi	a2,a2,%lo(.LC148)
	mv	a1,s1
	mv	a0,s0
	call	snprintf
.LVL186:
	.loc 1 637 5
	.loc 1 639 5
.L157:
	.loc 1 641 5
	.loc 1 641 7 is_stmt 0
	li	a5,37
	bne	s2,a5,.L158
	.loc 1 642 9 is_stmt 1
	lui	a2,%hi(.LC151)
	addi	a2,a2,%lo(.LC151)
	mv	a1,s1
	mv	a0,s0
	call	snprintf
.LVL187:
	.loc 1 662 5
	.loc 1 664 5
.L160:
	.loc 1 666 5
	.loc 1 666 7 is_stmt 0
	li	a5,100
	bne	s2,a5,.L161
	.loc 1 667 9 is_stmt 1
	lui	a2,%hi(.LC154)
	addi	a2,a2,%lo(.LC154)
	mv	a1,s1
	mv	a0,s0
	call	snprintf
.LVL188:
	.loc 1 668 5
	.loc 1 670 5
.L163:
	.loc 1 672 5
	.loc 1 672 7 is_stmt 0
	li	a5,106
	bne	s2,a5,.L164
	.loc 1 673 9 is_stmt 1
	lui	a2,%hi(.LC157)
	addi	a2,a2,%lo(.LC157)
	mv	a1,s1
	mv	a0,s0
	call	snprintf
.LVL189:
	.loc 1 674 5
	.loc 1 679 5
.L166:
	.loc 1 681 5
	.loc 1 681 7 is_stmt 0
	li	a5,44
	bne	s2,a5,.L167
	.loc 1 682 9 is_stmt 1
	lui	a2,%hi(.LC160)
	addi	a2,a2,%lo(.LC160)
	mv	a1,s1
	mv	a0,s0
	call	snprintf
.LVL190:
	.loc 1 686 5
	.loc 1 688 5
.L169:
	.loc 1 690 5
	.loc 1 690 7 is_stmt 0
	li	a5,6
	bne	s2,a5,.L170
	.loc 1 691 9 is_stmt 1
	lui	a2,%hi(.LC163)
	addi	a2,a2,%lo(.LC163)
	mv	a1,s1
	mv	a0,s0
	call	snprintf
.LVL191:
	.loc 1 692 5
	.loc 1 694 5
.L172:
	.loc 1 696 5
	.loc 1 696 7 is_stmt 0
	li	a5,12
	bne	s2,a5,.L173
	.loc 1 697 9 is_stmt 1
	lui	a2,%hi(.LC166)
	addi	a2,a2,%lo(.LC166)
	mv	a1,s1
	mv	a0,s0
	call	snprintf
.LVL192:
	.loc 1 698 5
	.loc 1 700 5
.L175:
	.loc 1 753 5
	.loc 1 753 7 is_stmt 0
	li	a5,52
	bne	s2,a5,.L176
	.loc 1 754 9 is_stmt 1
	lui	a2,%hi(.LC169)
	addi	a2,a2,%lo(.LC169)
	mv	a1,s1
	mv	a0,s0
	call	snprintf
.LVL193:
	.loc 1 755 5
	.loc 1 757 5
.L178:
	.loc 1 759 5
	.loc 1 759 7 is_stmt 0
	li	a5,58
	bne	s2,a5,.L179
	.loc 1 760 9 is_stmt 1
	lui	a2,%hi(.LC172)
	addi	a2,a2,%lo(.LC172)
	mv	a1,s1
	mv	a0,s0
	call	snprintf
.LVL194:
	.loc 1 771 5
	.loc 1 773 5
.L181:
	.loc 1 775 5
	.loc 1 775 7 is_stmt 0
	li	a5,64
	bne	s2,a5,.L182
	.loc 1 776 9 is_stmt 1
	lui	a2,%hi(.LC175)
	addi	a2,a2,%lo(.LC175)
	mv	a1,s1
	mv	a0,s0
	call	snprintf
.LVL195:
	.loc 1 777 5
	.loc 1 779 5
.L184:
	.loc 1 784 5
	.loc 1 784 7 is_stmt 0
	li	a5,18
	bne	s2,a5,.L185
	.loc 1 785 9 is_stmt 1
	lui	a2,%hi(.LC178)
	addi	a2,a2,%lo(.LC178)
	mv	a1,s1
	mv	a0,s0
	call	snprintf
.LVL196:
	.loc 1 786 5
	.loc 1 788 5
.L187:
	.loc 1 819 5
	.loc 1 819 7 is_stmt 0
	li	a5,47
	bne	s2,a5,.L188
	.loc 1 820 9 is_stmt 1
	lui	a2,%hi(.LC181)
	addi	a2,a2,%lo(.LC181)
	mv	a1,s1
	mv	a0,s0
	call	snprintf
.LVL197:
	.loc 1 824 5
	.loc 1 826 5
.L190:
	.loc 1 828 5
	.loc 1 828 7 is_stmt 0
	li	a5,70
	bne	s2,a5,.L191
	.loc 1 829 9 is_stmt 1
	lui	a2,%hi(.LC184)
	addi	a2,a2,%lo(.LC184)
	mv	a1,s1
	mv	a0,s0
	call	snprintf
.LVL198:
	.loc 1 830 5
	.loc 1 832 5
.L193:
	.loc 1 834 5
	.loc 1 834 7 is_stmt 0
	li	a5,76
	bne	s2,a5,.L194
	.loc 1 835 9 is_stmt 1
	lui	a2,%hi(.LC187)
	addi	a2,a2,%lo(.LC187)
	mv	a1,s1
	mv	a0,s0
	call	snprintf
.LVL199:
	.loc 1 836 5
	.loc 1 838 5
.L196:
	.loc 1 840 5
	.loc 1 840 7 is_stmt 0
	li	a5,82
	bne	s2,a5,.L197
	.loc 1 841 9 is_stmt 1
	lui	a2,%hi(.LC190)
	addi	a2,a2,%lo(.LC190)
	mv	a1,s1
	mv	a0,s0
	call	snprintf
.LVL200:
	.loc 1 842 5
	.loc 1 844 5
.L199:
	.loc 1 846 5
	.loc 1 846 7 is_stmt 0
	li	a5,71
	bne	s2,a5,.L200
	.loc 1 847 9 is_stmt 1
	lui	a2,%hi(.LC193)
	addi	a2,a2,%lo(.LC193)
	mv	a1,s1
	mv	a0,s0
	call	snprintf
.LVL201:
	.loc 1 848 5
	.loc 1 853 5
.L202:
	.loc 1 855 5
	.loc 1 855 7 is_stmt 0
	li	a5,11
	bne	s2,a5,.L203
	.loc 1 856 9 is_stmt 1
	lui	a2,%hi(.LC196)
	addi	a2,a2,%lo(.LC196)
	mv	a1,s1
	mv	a0,s0
	call	snprintf
.LVL202:
	.loc 1 865 5
	.loc 1 867 5
.L205:
	.loc 1 886 5
	.loc 1 886 7 is_stmt 0
	li	a5,53
	bne	s2,a5,.L206
	.loc 1 887 9 is_stmt 1
	lui	a2,%hi(.LC199)
	addi	a2,a2,%lo(.LC199)
	mv	a1,s1
	mv	a0,s0
	call	snprintf
.LVL203:
	.loc 1 888 5
	.loc 1 893 5
.L208:
	.loc 1 895 5
	.loc 1 895 7 is_stmt 0
	li	a5,116
	bne	s2,a5,.L209
	.loc 1 896 9 is_stmt 1
	lui	a2,%hi(.LC202)
	addi	a2,a2,%lo(.LC202)
.L223:
	.loc 1 903 9 is_stmt 0
	mv	a1,s1
	mv	a0,s0
	call	snprintf
.LVL204:
.L211:
	.loc 1 923 5 is_stmt 1
	.loc 1 923 9 is_stmt 0
	mv	a0,s0
	call	strlen
.LVL205:
	.loc 1 923 7
	bne	a0,zero,.L1
	.loc 1 926 5 is_stmt 1
	mv	a0,s0
	.loc 1 927 1 is_stmt 0
	lw	s0,24(sp)
	.cfi_remember_state
	.cfi_restore 8
.LVL206:
	lw	ra,28(sp)
	.cfi_restore 1
	lw	s3,12(sp)
	.cfi_restore 19
	.loc 1 926 5
	mv	a3,s2
	mv	a1,s1
	.loc 1 927 1
	lw	s2,16(sp)
	.cfi_restore 18
.LVL207:
	lw	s1,20(sp)
	.cfi_restore 9
.LVL208:
	.loc 1 926 5
	lui	a2,%hi(.LC145)
	.loc 1 927 1
	.loc 1 926 5
	addi	a2,a2,%lo(.LC145)
	.loc 1 927 1
	addi	sp,sp,32
	.cfi_def_cfa_offset 0
	.loc 1 926 5
	tail	snprintf
.LVL209:
.L156:
	.cfi_restore_state
	.loc 1 637 5 is_stmt 1
	.loc 1 637 7 is_stmt 0
	li	a5,33
	bne	s2,a5,.L155
	.loc 1 638 9 is_stmt 1
	lui	a2,%hi(.LC149)
	addi	a2,a2,%lo(.LC149)
	mv	a1,s1
	mv	a0,s0
	call	snprintf
.LVL210:
	.loc 1 639 5
	.loc 1 641 5
.L158:
	.loc 1 662 5
	.loc 1 662 7 is_stmt 0
	li	a5,96
	bne	s2,a5,.L159
	.loc 1 663 9 is_stmt 1
	lui	a2,%hi(.LC152)
	addi	a2,a2,%lo(.LC152)
	mv	a1,s1
	mv	a0,s0
	call	snprintf
.LVL211:
	.loc 1 664 5
	.loc 1 666 5
.L161:
	.loc 1 668 5
	.loc 1 668 7 is_stmt 0
	li	a5,102
	bne	s2,a5,.L162
	.loc 1 669 9 is_stmt 1
	lui	a2,%hi(.LC155)
	addi	a2,a2,%lo(.LC155)
	mv	a1,s1
	mv	a0,s0
	call	snprintf
.LVL212:
	.loc 1 670 5
	.loc 1 672 5
.L164:
	.loc 1 674 5
	.loc 1 674 7 is_stmt 0
	li	a5,108
	bne	s2,a5,.L165
	.loc 1 675 9 is_stmt 1
	lui	a2,%hi(.LC158)
	addi	a2,a2,%lo(.LC158)
	mv	a1,s1
	mv	a0,s0
	call	snprintf
.LVL213:
	.loc 1 679 5
	.loc 1 681 5
.L167:
	.loc 1 686 5
	.loc 1 686 7 is_stmt 0
	li	a5,2
	bne	s2,a5,.L168
	.loc 1 687 9 is_stmt 1
	lui	a2,%hi(.LC161)
	addi	a2,a2,%lo(.LC161)
	mv	a1,s1
	mv	a0,s0
	call	snprintf
.LVL214:
	.loc 1 688 5
	.loc 1 690 5
.L170:
	.loc 1 692 5
	.loc 1 692 7 is_stmt 0
	li	a5,8
	bne	s2,a5,.L171
	.loc 1 693 9 is_stmt 1
	lui	a2,%hi(.LC164)
	addi	a2,a2,%lo(.LC164)
	mv	a1,s1
	mv	a0,s0
	call	snprintf
.LVL215:
	.loc 1 694 5
	.loc 1 696 5
.L173:
	.loc 1 698 5
	.loc 1 698 7 is_stmt 0
	li	a5,14
	bne	s2,a5,.L174
	.loc 1 699 9 is_stmt 1
	lui	a2,%hi(.LC167)
	addi	a2,a2,%lo(.LC167)
	mv	a1,s1
	mv	a0,s0
	call	snprintf
.LVL216:
	.loc 1 700 5
	.loc 1 753 5
.L176:
	.loc 1 755 5
	.loc 1 755 7 is_stmt 0
	li	a5,54
	bne	s2,a5,.L177
	.loc 1 756 9 is_stmt 1
	lui	a2,%hi(.LC170)
	addi	a2,a2,%lo(.LC170)
	mv	a1,s1
	mv	a0,s0
	call	snprintf
.LVL217:
	.loc 1 757 5
	.loc 1 759 5
.L179:
	.loc 1 771 5
	.loc 1 771 7 is_stmt 0
	li	a5,60
	bne	s2,a5,.L180
	.loc 1 772 9 is_stmt 1
	lui	a2,%hi(.LC173)
	addi	a2,a2,%lo(.LC173)
	mv	a1,s1
	mv	a0,s0
	call	snprintf
.LVL218:
	.loc 1 773 5
	.loc 1 775 5
.L182:
	.loc 1 777 5
	.loc 1 777 7 is_stmt 0
	li	a5,61
	bne	s2,a5,.L183
	.loc 1 778 9 is_stmt 1
	lui	a2,%hi(.LC176)
	addi	a2,a2,%lo(.LC176)
	mv	a1,s1
	mv	a0,s0
	call	snprintf
.LVL219:
	.loc 1 779 5
	.loc 1 784 5
.L185:
	.loc 1 786 5
	.loc 1 786 7 is_stmt 0
	li	a5,19
	bne	s2,a5,.L186
	.loc 1 787 9 is_stmt 1
	lui	a2,%hi(.LC179)
	addi	a2,a2,%lo(.LC179)
	mv	a1,s1
	mv	a0,s0
	call	snprintf
.LVL220:
	.loc 1 788 5
	.loc 1 819 5
.L188:
	.loc 1 824 5
	.loc 1 824 7 is_stmt 0
	li	a5,66
	bne	s2,a5,.L189
	.loc 1 825 9 is_stmt 1
	lui	a2,%hi(.LC182)
	addi	a2,a2,%lo(.LC182)
	mv	a1,s1
	mv	a0,s0
	call	snprintf
.LVL221:
	.loc 1 826 5
	.loc 1 828 5
.L191:
	.loc 1 830 5
	.loc 1 830 7 is_stmt 0
	li	a5,72
	bne	s2,a5,.L192
	.loc 1 831 9 is_stmt 1
	lui	a2,%hi(.LC185)
	addi	a2,a2,%lo(.LC185)
	mv	a1,s1
	mv	a0,s0
	call	snprintf
.LVL222:
	.loc 1 832 5
	.loc 1 834 5
.L194:
	.loc 1 836 5
	.loc 1 836 7 is_stmt 0
	li	a5,78
	bne	s2,a5,.L195
	.loc 1 837 9 is_stmt 1
	lui	a2,%hi(.LC188)
	addi	a2,a2,%lo(.LC188)
	mv	a1,s1
	mv	a0,s0
	call	snprintf
.LVL223:
	.loc 1 838 5
	.loc 1 840 5
.L197:
	.loc 1 842 5
	.loc 1 842 7 is_stmt 0
	li	a5,67
	bne	s2,a5,.L198
	.loc 1 843 9 is_stmt 1
	lui	a2,%hi(.LC191)
	addi	a2,a2,%lo(.LC191)
	mv	a1,s1
	mv	a0,s0
	call	snprintf
.LVL224:
	.loc 1 844 5
	.loc 1 846 5
.L200:
	.loc 1 848 5
	.loc 1 848 7 is_stmt 0
	li	a5,73
	bne	s2,a5,.L201
	.loc 1 849 9 is_stmt 1
	lui	a2,%hi(.LC194)
	addi	a2,a2,%lo(.LC194)
	mv	a1,s1
	mv	a0,s0
	call	snprintf
.LVL225:
	.loc 1 853 5
	.loc 1 855 5
.L203:
	.loc 1 865 5
	.loc 1 865 7 is_stmt 0
	li	a5,112
	bne	s2,a5,.L204
	.loc 1 866 9 is_stmt 1
	lui	a2,%hi(.LC197)
	addi	a2,a2,%lo(.LC197)
	mv	a1,s1
	mv	a0,s0
	call	snprintf
.LVL226:
	.loc 1 867 5
	.loc 1 886 5
.L206:
	.loc 1 888 5
	.loc 1 888 7 is_stmt 0
	li	a5,115
	bne	s2,a5,.L207
	.loc 1 889 9 is_stmt 1
	lui	a2,%hi(.LC200)
	addi	a2,a2,%lo(.LC200)
	mv	a1,s1
	mv	a0,s0
	call	snprintf
.LVL227:
	.loc 1 893 5
	.loc 1 895 5
.L209:
	.loc 1 900 5
	.loc 1 900 7 is_stmt 0
	li	a5,57
	bne	s2,a5,.L210
	.loc 1 901 9 is_stmt 1
	lui	a2,%hi(.LC203)
	addi	a2,a2,%lo(.LC203)
	j	.L223
.LVL228:
.L1:
	.loc 1 927 1 is_stmt 0
	lw	ra,28(sp)
	.cfi_restore 1
	lw	s0,24(sp)
	.cfi_restore 8
.LVL229:
	lw	s1,20(sp)
	.cfi_restore 9
	lw	s2,16(sp)
	.cfi_restore 18
.LVL230:
	lw	s3,12(sp)
	.cfi_restore 19
	addi	sp,sp,32
	.cfi_def_cfa_offset 0
	jr	ra
.LVL231:
.L219:
	ret
	.cfi_endproc
.LFE21:
	.size	mbedtls_strerror, .-mbedtls_strerror
	.text
.Letext0:
	.file 2 "/mnt/d/GitHub/bl_iot_sdk_for_aithinker/toolchain/riscv/Linux/riscv64-unknown-elf/include/string.h"
	.file 3 "/mnt/d/GitHub/bl_iot_sdk_for_aithinker/toolchain/riscv/Linux/riscv64-unknown-elf/include/stdio.h"
	.file 4 "/mnt/d/GitHub/bl_iot_sdk_for_aithinker/toolchain/riscv/Linux/lib/gcc/riscv64-unknown-elf/10.2.0/include/stddef.h"