	.file	"gcm.c"
	.option nopic
	.attribute arch, "rv32i2p0_m2p0_f2p0_c2p0"
	.attribute unaligned_access, 0
	.attribute stack_align, 16
	.text
.Ltext0:
	.cfi_sections	.debug_frame
	.section	.text.gcm_mult,"ax",@progbits
	.align	1
	.type	gcm_mult, @function
gcm_mult:
.LFB11:
	.file 1 "/mnt/d/GitHub/bl_iot_sdk_for_aithinker/components/security/mbedtls_lts/mbedtls/library/gcm.c"
	.loc 1 246 1
	.cfi_startproc
.LVL0:
	.loc 1 247 5
	.loc 1 248 5
	.loc 1 249 5
	.loc 1 265 5
	.loc 1 267 5
	.loc 1 246 1 is_stmt 0
	addi	sp,sp,-16
	.cfi_def_cfa_offset 16
	sw	s0,12(sp)
.LVL1:
	sw	s1,8(sp)
	sw	s2,4(sp)
	.cfi_offset 8, -4
	.cfi_offset 9, -8
	.cfi_offset 18, -12
	.loc 1 265 8
	lbu	a3,15(a1)
	.loc 1 280 35
	lui	t5,%hi(.LANCHOR0)
	.loc 1 270 12
	li	t1,15
	andi	a3,a3,15
	slli	a3,a3,3
	add	a3,a0,a3
	.loc 1 267 8
	addi	a5,a3,128
	lw	t2,64(a5)
	lw	a4,68(a5)
.LVL2:
	.loc 1 268 5 is_stmt 1
	.loc 1 268 8 is_stmt 0
	lw	a5,64(a3)
	lw	a3,68(a3)
.LVL3:
	.loc 1 270 5 is_stmt 1
	.loc 1 270 18
	.loc 1 280 35 is_stmt 0
	addi	t5,t5,%lo(.LANCHOR0)
	.loc 1 275 11
	li	t0,15
	.loc 1 270 5
	li	t6,-1
.LVL4:
.L3:
	.loc 1 272 9 is_stmt 1
	.loc 1 280 19 is_stmt 0
	andi	t3,a5,15
	.loc 1 280 35
	slli	t3,t3,3
	add	t3,t5,t3
	.loc 1 272 19
	add	a6,a1,t1
	lbu	a6,0(a6)
	.loc 1 280 41
	lw	t4,0(t3)
	.loc 1 278 38
	slli	s0,a3,28
	srli	s2,a5,4
	.loc 1 278 23
	slli	t3,t2,28
	.loc 1 278 38
	or	s2,s0,s2
	srli	s0,a3,4
	.loc 1 279 16
	slli	s1,a4,28
	.loc 1 278 16
	or	t3,t3,s0
	.loc 1 279 16
	srli	s0,t2,4
	.loc 1 272 12
	andi	a7,a6,15
.LVL5:
	.loc 1 273 9 is_stmt 1
	.loc 1 279 16 is_stmt 0
	or	s0,s1,s0
	.loc 1 273 12
	srli	a6,a6,4
.LVL6:
	.loc 1 275 9 is_stmt 1
	.loc 1 280 41 is_stmt 0
	slli	t4,t4,16
	.loc 1 279 16
	srli	s1,a4,4
	.loc 1 275 11
	beq	t1,t0,.L2
	.loc 1 277 13 is_stmt 1
.LVL7:
	.loc 1 278 13
	.loc 1 279 13
	.loc 1 280 13
	slli	a3,a7,3
	add	a3,a0,a3
	.loc 1 281 16 is_stmt 0
	addi	a4,a3,128
	lw	t2,64(a4)
	lw	a4,68(a4)
	.loc 1 280 16
	xor	a5,t4,s1
.LVL8:
	.loc 1 281 13 is_stmt 1
	.loc 1 281 16 is_stmt 0
	xor	t2,t2,s0
	xor	a4,a4,a5
.LVL9:
	.loc 1 282 13 is_stmt 1
	.loc 1 282 16 is_stmt 0
	lw	a5,64(a3)
.LVL10:
	lw	a3,68(a3)
.LVL11:
	xor	a5,a5,s2
.LVL12:
	xor	a3,a3,t3
.LVL13:
.L2:
	.loc 1 286 9 is_stmt 1 discriminator 2
	.loc 1 287 9 discriminator 2
	.loc 1 287 34 is_stmt 0 discriminator 2
	srli	a7,a5,4
	.loc 1 289 15 discriminator 2
	andi	a5,a5,15
.LVL14:
	.loc 1 287 34 discriminator 2
	slli	t3,a3,28
	slli	a6,a6,3
	.loc 1 289 31 discriminator 2
	slli	a5,a5,3
	add	a6,a0,a6
	.loc 1 287 34 discriminator 2
	or	a7,t3,a7
	srli	a3,a3,4
	.loc 1 287 19 discriminator 2
	slli	t3,t2,28
	.loc 1 289 31 discriminator 2
	add	a5,t5,a5
	.loc 1 287 12 discriminator 2
	or	a3,t3,a3
.LVL15:
	.loc 1 288 9 is_stmt 1 discriminator 2
	.loc 1 289 9 discriminator 2
	.loc 1 290 9 discriminator 2
	.loc 1 288 12 is_stmt 0 discriminator 2
	srli	s0,a4,4
	slli	t3,a4,28
	.loc 1 289 37 discriminator 2
	lw	a5,0(a5)
	lw	a4,196(a6)
	lw	t4,192(a6)
	slli	a5,a5,16
	xor	a4,a4,s0
	.loc 1 290 12 discriminator 2
	xor	a4,a5,a4
	.loc 1 291 12 discriminator 2
	lw	a5,64(a6)
	lw	a6,68(a6)
	.loc 1 288 12 discriminator 2
	srli	t2,t2,4
	or	t2,t3,t2
	.loc 1 270 27 discriminator 2
	addi	t1,t1,-1
	.loc 1 290 12 discriminator 2
	xor	t2,t4,t2
	.loc 1 291 9 is_stmt 1 discriminator 2
.LVL16:
	.loc 1 291 12 is_stmt 0 discriminator 2
	xor	a5,a5,a7
.LVL17:
	xor	a3,a6,a3
.LVL18:
	.loc 1 270 26 is_stmt 1 discriminator 2
	.loc 1 270 18 discriminator 2
	.loc 1 270 5 is_stmt 0 discriminator 2
	bne	t1,t6,.L3
	.loc 1 294 7 is_stmt 1
	.loc 1 294 53 is_stmt 0
	srli	a1,a4,24
.LVL19:
	.loc 1 294 24
	sb	a1,0(a2)
	.loc 1 294 62 is_stmt 1
	.loc 1 294 111 is_stmt 0
	srli	a1,a4,16
	.loc 1 294 82
	sb	a1,1(a2)
	.loc 1 294 120 is_stmt 1
	.loc 1 294 197 is_stmt 0
	sb	a4,3(a2)
	.loc 1 294 169
	srli	a1,a4,8
	.loc 1 295 47
	srli	a4,t2,24
	.loc 1 295 24
	sb	a4,4(a2)
	.loc 1 295 99
	srli	a4,t2,16
	.loc 1 295 76
	sb	a4,5(a2)
	.loc 1 295 151
	srli	a4,t2,8
	.loc 1 295 128
	sb	a4,6(a2)
	.loc 1 296 53
	srli	a4,a3,24
	.loc 1 296 24
	sb	a4,8(a2)
	.loc 1 296 111
	srli	a4,a3,16
	.loc 1 296 82
	sb	a4,9(a2)
	.loc 1 296 169
	srli	a4,a3,8
	.loc 1 296 140
	sb	a4,10(a2)
	.loc 1 297 48
	srli	a4,a5,24
	.loc 1 298 1
	lw	s0,12(sp)
	.cfi_restore 8
	.loc 1 297 25
	sb	a4,12(a2)
	.loc 1 297 101
	srli	a4,a5,16
	.loc 1 297 78
	sb	a4,13(a2)
	.loc 1 297 154
	srli	a4,a5,8
	.loc 1 294 140
	sb	a1,2(a2)
	.loc 1 294 177 is_stmt 1
	.loc 1 294 230
	.loc 1 295 7
	.loc 1 295 56
	.loc 1 295 108
	.loc 1 295 159
	.loc 1 295 179 is_stmt 0
	sb	t2,7(a2)
	.loc 1 295 206 is_stmt 1
	.loc 1 296 7
	.loc 1 296 62
	.loc 1 296 120
	.loc 1 296 177
	.loc 1 296 197 is_stmt 0
	sb	a3,11(a2)
	.loc 1 296 230 is_stmt 1
	.loc 1 297 7
	.loc 1 297 57
	.loc 1 297 110
	.loc 1 297 131 is_stmt 0
	sb	a4,14(a2)
	.loc 1 297 162 is_stmt 1
	.loc 1 297 183 is_stmt 0
	sb	a5,15(a2)
	.loc 1 297 210 is_stmt 1
	.loc 1 298 1 is_stmt 0
	lw	s1,8(sp)
	.cfi_restore 9
	lw	s2,4(sp)
	.cfi_restore 18
	addi	sp,sp,16
	.cfi_def_cfa_offset 0
	jr	ra
	.cfi_endproc
.LFE11:
	.size	gcm_mult, .-gcm_mult
	.section	.text.mbedtls_gcm_init,"ax",@progbits
	.align	1
	.globl	mbedtls_gcm_init
	.type	mbedtls_gcm_init, @function
mbedtls_gcm_init:
.LFB8:
	.loc 1 118 1 is_stmt 1
	.cfi_startproc
.LVL20:
	.loc 1 119 5
	.loc 1 119 10
	.loc 1 119 17
	.loc 1 120 5
	li	a2,392
	li	a1,0
	tail	memset
.LVL21:
	.cfi_endproc
.LFE8:
	.size	mbedtls_gcm_init, .-mbedtls_gcm_init
	.section	.text.mbedtls_gcm_setkey,"ax",@progbits
	.align	1
	.globl	mbedtls_gcm_setkey
	.type	mbedtls_gcm_setkey, @function
mbedtls_gcm_setkey:
.LFB10:
	.loc 1 195 1
	.cfi_startproc
.LVL22:
	.loc 1 196 5
	.loc 1 197 5
	.loc 1 199 5
	.loc 1 199 10
	.loc 1 199 17
	.loc 1 200 5
	.loc 1 200 10
	.loc 1 200 17
	.loc 1 201 5
	.loc 1 201 10
	.loc 1 201 17
	.loc 1 203 5
	.loc 1 195 1 is_stmt 0
	addi	sp,sp,-64
	.cfi_def_cfa_offset 64
	sw	s0,56(sp)
	sw	s3,44(sp)
	.cfi_offset 8, -8
	.cfi_offset 19, -20
	mv	s0,a0
	mv	s3,a2
	mv	a0,a1
.LVL23:
	.loc 1 203 19
	li	a2,1
.LVL24:
	mv	a1,a3
.LVL25:
	.loc 1 195 1
	sw	s2,48(sp)
	sw	ra,60(sp)
	sw	s1,52(sp)
	.cfi_offset 18, -16
	.cfi_offset 1, -4
	.cfi_offset 9, -12
	.loc 1 195 1
	mv	s2,a3
	.loc 1 203 19
	call	mbedtls_cipher_info_from_values
.LVL26:
	.loc 1 204 5 is_stmt 1
	.loc 1 204 7 is_stmt 0
	beq	a0,zero,.L14
	.loc 1 207 7
	lw	a4,24(a0)
	li	a5,16
	mv	s1,a0
	.loc 1 207 5 is_stmt 1
	.loc 1 205 15 is_stmt 0
	li	a0,-20
.LVL27:
	.loc 1 207 7
	bne	a4,a5,.L7
	.loc 1 210 5 is_stmt 1
	mv	a0,s0
	call	mbedtls_cipher_free
.LVL28:
	.loc 1 212 5
	.loc 1 212 17 is_stmt 0
	mv	a1,s1
	mv	a0,s0
	call	mbedtls_cipher_setup
.LVL29:
	.loc 1 212 7
	bne	a0,zero,.L7
	.loc 1 215 5 is_stmt 1
	.loc 1 215 17 is_stmt 0
	li	a3,1
	mv	a2,s2
	mv	a1,s3
	mv	a0,s0
.LVL30:
	call	mbedtls_cipher_setkey
.LVL31:
	.loc 1 215 7
	bne	a0,zero,.L7
	.loc 1 221 5 is_stmt 1
.LVL32:
.LBB6:
.LBB7:
	.loc 1 133 5
	.loc 1 134 5
	.loc 1 135 5
	.loc 1 136 5
	.loc 1 137 5
	.loc 1 139 5 is_stmt 0
	li	a2,16
	li	a1,0
	addi	a0,sp,16
.LVL33:
	.loc 1 137 12
	sw	zero,12(sp)
	.loc 1 139 5 is_stmt 1
	call	memset
.LVL34:
	.loc 1 140 5
	.loc 1 140 17 is_stmt 0
	addi	a3,sp,16
	addi	a4,sp,12
	li	a2,16
	mv	a1,a3
	mv	a0,s0
	call	mbedtls_cipher_update
.LVL35:
	.loc 1 140 7
	bne	a0,zero,.L7
	.loc 1 144 7 is_stmt 1
.LVL36:
	.loc 1 144 148
	.loc 1 145 7
	.loc 1 145 148
	.loc 1 146 5
	.loc 1 144 16 is_stmt 0
	lbu	a5,16(sp)
	.loc 1 144 49
	lbu	a4,17(sp)
	.loc 1 145 16
	lbu	a1,20(sp)
	.loc 1 145 49
	lbu	a3,21(sp)
	.loc 1 144 73
	slli	a4,a4,16
.LVL37:
	.loc 1 144 37
	slli	a5,a5,24
.LVL38:
	.loc 1 145 73
	slli	a3,a3,16
.LVL39:
	.loc 1 145 37
	slli	a1,a1,24
.LVL40:
	.loc 1 144 45
	or	a5,a5,a4
.LVL41:
	.loc 1 145 45
	or	a1,a1,a3
.LVL42:
	.loc 1 144 120
	lbu	a4,19(sp)
.LVL43:
	.loc 1 145 120
	lbu	a3,23(sp)
.LVL44:
	.loc 1 149 50
	lbu	a6,29(sp)
	.loc 1 144 116
	or	a5,a5,a4
	.loc 1 145 116
	or	a1,a1,a3
	.loc 1 144 85
	lbu	a4,18(sp)
.LVL45:
	.loc 1 145 85
	lbu	a3,22(sp)
.LVL46:
	.loc 1 149 75
	slli	a6,a6,16
	.loc 1 144 109
	slli	a4,a4,8
.LVL47:
	.loc 1 145 109
	slli	a3,a3,8
.LVL48:
	.loc 1 145 116
	or	a1,a1,a3
	.loc 1 146 8
	or	a5,a5,a4
.LVL49:
	.loc 1 148 7 is_stmt 1
	.loc 1 148 148
	.loc 1 149 7
	.loc 1 149 152
	.loc 1 150 5
	.loc 1 148 49 is_stmt 0
	lbu	a3,25(sp)
	.loc 1 148 16
	lbu	a4,24(sp)
	.loc 1 148 85
	lbu	a2,26(sp)
.LVL50:
	.loc 1 148 73
	slli	a3,a3,16
.LVL51:
	.loc 1 148 37
	slli	a4,a4,24
.LVL52:
	.loc 1 148 45
	or	a4,a4,a3
.LVL53:
	.loc 1 148 120
	lbu	a3,27(sp)
.LVL54:
	.loc 1 148 109
	slli	a2,a2,8
.LVL55:
	.loc 1 163 16
	li	a7,0
	.loc 1 148 116
	or	a4,a4,a3
	.loc 1 149 16
	lbu	a3,28(sp)
	.loc 1 150 8
	or	a4,a4,a2
	.loc 1 153 16
	addi	a2,s0,128
	.loc 1 149 38
	slli	a3,a3,24
.LVL56:
	.loc 1 149 46
	or	a3,a3,a6
.LVL57:
	.loc 1 149 123
	lbu	a6,31(sp)
.LVL58:
	.loc 1 153 16
	sw	a4,4(a2)
.LBB8:
	.loc 1 168 18
	li	t4,-520093696
.LBE8:
	.loc 1 149 119
	or	a3,a3,a6
	.loc 1 149 87
	lbu	a6,30(sp)
.LVL59:
	.loc 1 149 112
	slli	a6,a6,8
.LVL60:
	.loc 1 149 119
	or	a3,a3,a6
.LVL61:
	.loc 1 153 5 is_stmt 1
	.loc 1 154 5
	.loc 1 153 16 is_stmt 0
	sw	a3,0(a2)
	.loc 1 154 16
	addi	a2,s0,256
	sw	a1,0(a2)
	sw	a5,4(a2)
	.loc 1 163 5 is_stmt 1
	.loc 1 163 16 is_stmt 0
	li	a6,0
	sw	a6,192(s0)
	sw	a7,196(s0)
	.loc 1 164 5 is_stmt 1
	.loc 1 164 16 is_stmt 0
	sw	a6,64(s0)
	sw	a7,68(s0)
	.loc 1 166 5 is_stmt 1
.LVL62:
	.loc 1 166 17
	.loc 1 164 16 is_stmt 0
	li	a6,3
	.loc 1 166 12
	li	a7,4
.LVL63:
.L10:
.LBB9:
	.loc 1 168 9 is_stmt 1
	.loc 1 168 18 is_stmt 0
	andi	a2,a3,1
	mul	a2,a2,t4
.LVL64:
	.loc 1 169 9 is_stmt 1
	.loc 1 169 19 is_stmt 0
	slli	t1,a1,31
	.loc 1 169 34
	slli	t3,a4,31
	srli	a4,a4,1
.LVL65:
	.loc 1 169 12
	or	a4,t1,a4
	.loc 1 170 19
	slli	t1,a5,31
	srli	a5,a5,1
.LVL66:
	.loc 1 169 34
	srli	a3,a3,1
	.loc 1 169 12
	or	a3,t3,a3
.LVL67:
	.loc 1 170 9 is_stmt 1
	.loc 1 170 19 is_stmt 0
	srli	a1,a1,1
	.loc 1 170 12
	xor	a5,a2,a5
	slli	a2,a7,3
.LVL68:
	add	a2,s0,a2
	.loc 1 172 20
	sw	a3,64(a2)
	sw	a4,68(a2)
	.loc 1 170 12
	or	a1,t1,a1
.LVL69:
	.loc 1 172 9 is_stmt 1
	.loc 1 173 9
	.loc 1 173 20 is_stmt 0
	addi	a2,a2,128
	sw	a1,64(a2)
	sw	a5,68(a2)
.LBE9:
	.loc 1 166 24 is_stmt 1
	.loc 1 166 5 is_stmt 0
	addi	a6,a6,-1
	.loc 1 166 26
	srai	a7,a7,1
.LVL70:
	.loc 1 166 17 is_stmt 1
	.loc 1 166 5 is_stmt 0
	bne	a6,zero,.L10
	li	a3,3
.LVL71:
	.loc 1 176 12
	li	a2,2
.LVL72:
.LBB10:
	.loc 1 178 25
	addi	t4,s0,64
	.loc 1 178 45
	addi	t5,s0,192
.LVL73:
.L12:
	.loc 1 178 9 is_stmt 1
	.loc 1 178 33 is_stmt 0
	slli	a1,a2,3
	.loc 1 178 19
	add	a7,t4,a1
.LVL74:
	.loc 1 178 39
	add	t1,t5,a1
.LVL75:
	.loc 1 179 9 is_stmt 1
	.loc 1 179 12 is_stmt 0
	lw	s1,0(t1)
	lw	t2,4(t1)
.LVL76:
	.loc 1 180 9 is_stmt 1
	.loc 1 180 12 is_stmt 0
	lw	t0,0(a7)
	lw	t6,4(a7)
.LVL77:
	.loc 1 181 9 is_stmt 1
	.loc 1 181 21
	addi	a5,s0,72
	.loc 1 180 12 is_stmt 0
	li	a4,8
.LVL78:
.L11:
	.loc 1 183 13 is_stmt 1
	.loc 1 183 25 is_stmt 0
	lw	a6,128(a5)
	.loc 1 183 20
	add	t3,t1,a4
	.loc 1 183 25
	xor	a6,a6,s1
	sw	a6,0(t3)
	lw	a6,132(a5)
	xor	a6,a6,t2
	sw	a6,4(t3)
	.loc 1 184 13 is_stmt 1
	.loc 1 184 25 is_stmt 0
	lw	a6,0(a5)
	.loc 1 184 20
	add	t3,a7,a4
	.loc 1 181 9
	addi	a4,a4,8
	.loc 1 184 25
	xor	a6,a6,t0
	sw	a6,0(t3)
	lw	a6,4(a5)
	.loc 1 181 9
	addi	a5,a5,8
	.loc 1 184 25
	xor	a6,a6,t6
	sw	a6,4(t3)
	.loc 1 181 28 is_stmt 1
	.loc 1 181 21
	.loc 1 181 9 is_stmt 0
	bne	a1,a4,.L11
.LBE10:
	.loc 1 176 25 is_stmt 1
	.loc 1 176 5 is_stmt 0
	addi	a3,a3,-1
	.loc 1 176 27
	slli	a2,a2,1
.LVL79:
	.loc 1 176 17 is_stmt 1
	.loc 1 176 5 is_stmt 0
	bne	a3,zero,.L12
.LVL80:
.L7:
.LBE7:
.LBE6:
	.loc 1 225 1
	lw	ra,60(sp)
	.cfi_remember_state
	.cfi_restore 1
	lw	s0,56(sp)
	.cfi_restore 8
.LVL81:
	lw	s1,52(sp)
	.cfi_restore 9
	lw	s2,48(sp)
	.cfi_restore 18
.LVL82:
	lw	s3,44(sp)
	.cfi_restore 19
.LVL83:
	addi	sp,sp,64
	.cfi_def_cfa_offset 0
	jr	ra
.LVL84:
.L14:
	.cfi_restore_state
	.loc 1 205 15
	li	a0,-20
.LVL85:
	j	.L7
	.cfi_endproc
.LFE10:
	.size	mbedtls_gcm_setkey, .-mbedtls_gcm_setkey
	.section	.text.mbedtls_gcm_starts,"ax",@progbits
	.align	1
	.globl	mbedtls_gcm_starts
	.type	mbedtls_gcm_starts, @function
mbedtls_gcm_starts:
.LFB12:
	.loc 1 306 1 is_stmt 1
	.cfi_startproc
.LVL86:
	.loc 1 307 5
	.loc 1 308 5
	.loc 1 309 5
	.loc 1 310 5
	.loc 1 311 5
	.loc 1 306 1 is_stmt 0
	addi	sp,sp,-80
	.cfi_def_cfa_offset 80
	sw	s1,68(sp)
	sw	ra,76(sp)
	sw	s0,72(sp)
	sw	s2,64(sp)
	sw	s3,60(sp)
	sw	s4,56(sp)
	sw	s5,52(sp)
	sw	s6,48(sp)
	sw	s7,44(sp)
	sw	s8,40(sp)
	sw	s9,36(sp)
	.cfi_offset 9, -12
	.cfi_offset 1, -4
	.cfi_offset 8, -8
	.cfi_offset 18, -16
	.cfi_offset 19, -20
	.cfi_offset 20, -24
	.cfi_offset 21, -28
	.cfi_offset 22, -32
	.cfi_offset 23, -36
	.cfi_offset 24, -40
	.cfi_offset 25, -44
	.loc 1 311 21
	sw	zero,12(sp)
	.loc 1 313 5 is_stmt 1
	.loc 1 313 10
	.loc 1 313 17
	.loc 1 314 5
	.loc 1 314 10
	.loc 1 314 17
	.loc 1 315 5
	.loc 1 315 10
	.loc 1 315 17
	.loc 1 319 5
	.loc 1 323 15 is_stmt 0
	li	s1,-20
	.loc 1 319 7
	beq	a3,zero,.L20
	.loc 1 326 16 discriminator 1
	addi	s2,a0,352
	mv	s0,a0
	mv	s7,a1
	mv	s4,a2
	.loc 1 326 5 discriminator 1
	li	a1,0
.LVL87:
	li	a2,16
.LVL88:
	mv	a0,s2
.LVL89:
	mv	s3,a5
	.loc 1 326 5 is_stmt 1 discriminator 1
	mv	s1,a3
	mv	s6,a4
	.loc 1 327 16 is_stmt 0 discriminator 1
	addi	s5,s0,368
	.loc 1 326 5 discriminator 1
	call	memset
.LVL90:
	.loc 1 327 5 is_stmt 1 discriminator 1
	li	a2,16
	li	a1,0
	mv	a0,s5
	call	memset
.LVL91:
	.loc 1 329 5 discriminator 1
	.loc 1 330 14 is_stmt 0 discriminator 1
	li	a5,0
	li	a6,0
	sw	a5,320(s0)
	.loc 1 331 18 discriminator 1
	sw	a5,328(s0)
	.loc 1 329 15 discriminator 1
	sw	s7,384(s0)
	.loc 1 330 5 is_stmt 1 discriminator 1
	.loc 1 330 14 is_stmt 0 discriminator 1
	sw	a6,324(s0)
	.loc 1 331 5 is_stmt 1 discriminator 1
	.loc 1 331 18 is_stmt 0 discriminator 1
	sw	a6,332(s0)
	.loc 1 333 5 is_stmt 1 discriminator 1
	.loc 1 333 7 is_stmt 0 discriminator 1
	li	a5,12
	bne	s1,a5,.L22
	.loc 1 335 9 is_stmt 1
	li	a2,12
	mv	a1,s4
	mv	a0,s2
	call	memcpy
.LVL92:
	.loc 1 336 9
	.loc 1 336 20 is_stmt 0
	li	a5,1
	sb	a5,367(s0)
.LVL93:
.L23:
	.loc 1 363 5 is_stmt 1
	.loc 1 363 17 is_stmt 0
	addi	a4,sp,12
	addi	a3,s0,336
	li	a2,16
	mv	a1,s2
	mv	a0,s0
	call	mbedtls_cipher_update
.LVL94:
	mv	s1,a0
.LVL95:
	.loc 1 363 7
	bne	a0,zero,.L20
	.loc 1 369 5 is_stmt 1
	.loc 1 321 9 is_stmt 0
	sw	s3,328(s0)
	sw	zero,332(s0)
	.loc 1 370 5 is_stmt 1
.LVL96:
	.loc 1 371 5
	.loc 1 373 17 is_stmt 0
	li	s4,16
.LVL97:
.L28:
	.loc 1 371 10 is_stmt 1
	bne	s3,zero,.L31
.LVL98:
.L20:
	.loc 1 385 1 is_stmt 0
	lw	ra,76(sp)
	.cfi_remember_state
	.cfi_restore 1
	lw	s0,72(sp)
	.cfi_restore 8
	lw	s2,64(sp)
	.cfi_restore 18
	lw	s3,60(sp)
	.cfi_restore 19
	lw	s4,56(sp)
	.cfi_restore 20
	lw	s5,52(sp)
	.cfi_restore 21
	lw	s6,48(sp)
	.cfi_restore 22
	lw	s7,44(sp)
	.cfi_restore 23
	lw	s8,40(sp)
	.cfi_restore 24
	lw	s9,36(sp)
	.cfi_restore 25
	mv	a0,s1
	lw	s1,68(sp)
	.cfi_restore 9
	addi	sp,sp,80
	.cfi_def_cfa_offset 0
	jr	ra
.LVL99:
.L22:
	.cfi_restore_state
	.loc 1 340 9 is_stmt 1
	li	a2,16
	li	a1,0
	addi	a0,sp,16
	call	memset
.LVL100:
	.loc 1 341 11
	.loc 1 341 57 is_stmt 0
	slli	a5,s1,3
	.loc 1 341 62
	srli	a4,a5,24
	.loc 1 341 31
	sb	a4,28(sp)
	.loc 1 341 71 is_stmt 1
	.loc 1 341 125 is_stmt 0
	srli	a4,a5,16
	.loc 1 341 94
	sb	a4,29(sp)
	.loc 1 341 134 is_stmt 1
	.loc 1 341 188 is_stmt 0
	srli	a4,a5,8
	.loc 1 341 157
	sb	a4,30(sp)
	.loc 1 341 196 is_stmt 1
	.loc 1 341 217 is_stmt 0
	sb	a5,31(sp)
	.loc 1 341 254 is_stmt 1
	.loc 1 343 9
.LVL101:
	.loc 1 344 9
	.loc 1 344 14
	.loc 1 346 21 is_stmt 0
	li	s9,16
.LVL102:
.L26:
	.loc 1 346 13 is_stmt 1
	.loc 1 346 21 is_stmt 0
	mv	s8,s1
	bleu	s1,s9,.L24
	li	s8,16
.L24:
.LVL103:
	.loc 1 348 13 is_stmt 1
	.loc 1 348 25
	mv	s7,s2
	.loc 1 346 21 is_stmt 0
	mv	a4,s2
	.loc 1 348 20
	li	a5,0
.LVL104:
.L25:
	.loc 1 349 17 is_stmt 1 discriminator 3
	.loc 1 349 31 is_stmt 0 discriminator 3
	add	a3,s4,a5
	.loc 1 349 27 discriminator 3
	lbu	a2,0(a4)
	lbu	a3,0(a3)
	.loc 1 348 39 discriminator 3
	addi	a5,a5,1
.LVL105:
	.loc 1 348 13 discriminator 3
	addi	a4,a4,1
	.loc 1 349 27 discriminator 3
	xor	a3,a3,a2
	sb	a3,-1(a4)
	.loc 1 348 38 is_stmt 1 discriminator 3
.LVL106:
	.loc 1 348 25 discriminator 3
	.loc 1 348 13 is_stmt 0 discriminator 3
	bne	s8,a5,.L25
	.loc 1 351 13 is_stmt 1
	mv	a2,s2
	mv	a1,s2
	mv	a0,s0
	.loc 1 353 20 is_stmt 0
	sub	s1,s1,s8
.LVL107:
	.loc 1 351 13
	call	gcm_mult
.LVL108:
	.loc 1 353 13 is_stmt 1
	.loc 1 354 13
	.loc 1 354 15 is_stmt 0
	add	s4,s4,s8
.LVL109:
	.loc 1 344 14 is_stmt 1
	bne	s1,zero,.L26
	addi	a5,sp,16
.L27:
.LVL110:
	.loc 1 358 13 discriminator 3
	.loc 1 358 23 is_stmt 0 discriminator 3
	lbu	a4,0(s7)
	lbu	a3,0(a5)
	.loc 1 357 9 discriminator 3
	addi	s7,s7,1
.LVL111:
	addi	a5,a5,1
	.loc 1 358 23 discriminator 3
	xor	a4,a4,a3
	sb	a4,-1(s7)
	.loc 1 357 29 is_stmt 1 discriminator 3
.LVL112:
	.loc 1 357 21 discriminator 3
	.loc 1 357 9 is_stmt 0 discriminator 3
	bne	s5,s7,.L27
	.loc 1 360 9 is_stmt 1
	mv	a2,s2
	mv	a1,s2
	mv	a0,s0
	call	gcm_mult
.LVL113:
	j	.L23
.LVL114:
.L31:
	.loc 1 373 9
	.loc 1 373 17 is_stmt 0
	mv	s2,s3
	bleu	s3,s4,.L29
.LVL115:
	li	s2,16
.LVL116:
.L29:
	.loc 1 375 9 is_stmt 1
	.loc 1 375 21
	mv	a4,s5
	.loc 1 375 16 is_stmt 0
	li	a5,0
.LVL117:
.L30:
	.loc 1 376 13 is_stmt 1 discriminator 3
	.loc 1 376 29 is_stmt 0 discriminator 3
	add	a3,s6,a5
	.loc 1 376 25 discriminator 3
	lbu	a2,0(a4)
	lbu	a3,0(a3)
	.loc 1 375 35 discriminator 3
	addi	a5,a5,1
.LVL118:
	.loc 1 375 9 discriminator 3
	addi	a4,a4,1
	.loc 1 376 25 discriminator 3
	xor	a3,a3,a2
	sb	a3,-1(a4)
	.loc 1 375 34 is_stmt 1 discriminator 3
.LVL119:
	.loc 1 375 21 discriminator 3
	.loc 1 375 9 is_stmt 0 discriminator 3
	bne	s2,a5,.L30
	.loc 1 378 9 is_stmt 1
	mv	a2,s5
	mv	a1,s5
	mv	a0,s0
	call	gcm_mult
.LVL120:
	.loc 1 380 9
	.loc 1 380 17 is_stmt 0
	sub	s3,s3,s2
.LVL121:
	.loc 1 381 9 is_stmt 1
	.loc 1 381 11 is_stmt 0
	add	s6,s6,s2
.LVL122:
	j	.L28
	.cfi_endproc
.LFE12:
	.size	mbedtls_gcm_starts, .-mbedtls_gcm_starts
	.section	.text.mbedtls_gcm_update,"ax",@progbits
	.align	1
	.globl	mbedtls_gcm_update
	.type	mbedtls_gcm_update, @function
mbedtls_gcm_update:
.LFB13:
	.loc 1 391 1 is_stmt 1
	.cfi_startproc
.LVL123:
	.loc 1 392 5
	.loc 1 393 5
	.loc 1 394 5
	.loc 1 395 5
	.loc 1 396 5
	.loc 1 397 5
	.loc 1 391 1 is_stmt 0
	addi	sp,sp,-80
	.cfi_def_cfa_offset 80
	sw	s0,72(sp)
	sw	s1,68(sp)
	sw	s6,48(sp)
	sw	s7,44(sp)
	sw	ra,76(sp)
	sw	s2,64(sp)
	sw	s3,60(sp)
	sw	s4,56(sp)
	sw	s5,52(sp)
	sw	s8,40(sp)
	.cfi_offset 8, -8
	.cfi_offset 9, -12
	.cfi_offset 22, -32
	.cfi_offset 23, -36
	.cfi_offset 1, -4
	.cfi_offset 18, -16
	.cfi_offset 19, -20
	.cfi_offset 20, -24
	.cfi_offset 21, -28
	.cfi_offset 24, -40
	.loc 1 397 21
	sw	zero,12(sp)
	.loc 1 399 5 is_stmt 1
	.loc 1 399 10
	.loc 1 399 17
	.loc 1 400 5
	.loc 1 400 10
	.loc 1 400 17
	.loc 1 401 5
	.loc 1 401 10
	.loc 1 401 17
	.loc 1 403 5
	.loc 1 391 1 is_stmt 0
	mv	s0,a0
	mv	s1,a1
	mv	s6,a2
	mv	s7,a3
	.loc 1 403 7
	bleu	a3,a2,.L39
	.loc 1 403 45 discriminator 1
	sub	a5,a3,a2
	.loc 1 404 15 discriminator 1
	li	a0,-20
.LVL124:
	.loc 1 403 24 discriminator 1
	bltu	a5,a1,.L38
.L39:
	.loc 1 408 5 is_stmt 1
	.loc 1 408 12 is_stmt 0
	lw	a2,320(s0)
.LVL125:
	lw	a3,324(s0)
.LVL126:
	.loc 1 408 18
	add	a4,s1,a2
	sltu	a5,a4,s1
	add	a5,a5,a3
	.loc 1 408 7
	bgtu	a3,a5,.L53
	bne	a3,a5,.L54
	bgtu	a2,a4,.L53
.L54:
	.loc 1 408 38 discriminator 1
	li	a3,15
	bgtu	a5,a3,.L53
	bne	a5,a3,.L55
	li	a3,-32
	bgtu	a4,a3,.L53
.L55:
	.loc 1 414 5 is_stmt 1
	.loc 1 414 14 is_stmt 0
	sw	a4,320(s0)
	sw	a5,324(s0)
	.loc 1 416 5 is_stmt 1
.LVL127:
	.loc 1 417 5
	.loc 1 419 17 is_stmt 0
	li	s2,16
	addi	s3,s0,363
	.loc 1 425 65
	addi	s4,s0,352
	.loc 1 436 15
	li	s5,1
.LVL128:
.L43:
	.loc 1 417 10 is_stmt 1
	bne	s1,zero,.L50
	.loc 1 447 11 is_stmt 0
	li	a0,0
.LVL129:
.L38:
	.loc 1 448 1
	lw	ra,76(sp)
	.cfi_remember_state
	.cfi_restore 1
	lw	s0,72(sp)
	.cfi_restore 8
.LVL130:
	lw	s1,68(sp)
	.cfi_restore 9
.LVL131:
	lw	s2,64(sp)
	.cfi_restore 18
	lw	s3,60(sp)
	.cfi_restore 19
	lw	s4,56(sp)
	.cfi_restore 20
	lw	s5,52(sp)
	.cfi_restore 21
	lw	s6,48(sp)
	.cfi_restore 22
	lw	s7,44(sp)
	.cfi_restore 23
.LVL132:
	lw	s8,40(sp)
	.cfi_restore 24
	addi	sp,sp,80
	.cfi_def_cfa_offset 0
	jr	ra
.LVL133:
.L50:
	.cfi_restore_state
	.loc 1 419 9 is_stmt 1
	.loc 1 419 17 is_stmt 0
	mv	s8,s1
	bleu	s1,s2,.L44
	li	s8,16
.L44:
.LVL134:
	.loc 1 421 9 is_stmt 1
	.loc 1 421 22
	addi	a4,s0,367
.LVL135:
.L46:
	.loc 1 422 13
	.loc 1 422 17 is_stmt 0
	lbu	a5,0(a4)
	addi	a5,a5,1
	andi	a5,a5,0xff
	.loc 1 422 15
	sb	a5,0(a4)
	bne	a5,zero,.L45
.LVL136:
	.loc 1 421 22 is_stmt 1 discriminator 1
	.loc 1 421 9 is_stmt 0 discriminator 1
	addi	a4,a4,-1
.LVL137:
	bne	a4,s3,.L46
.LVL138:
.L45:
	.loc 1 425 9 is_stmt 1
	.loc 1 425 21 is_stmt 0
	addi	a4,sp,12
	addi	a3,sp,16
	li	a2,16
	mv	a1,s4
	mv	a0,s0
	call	mbedtls_cipher_update
.LVL139:
	.loc 1 425 11
	bne	a0,zero,.L38
	addi	a4,s0,368
	.loc 1 431 16
	li	a3,0
	mv	a2,a4
.LVL140:
.L49:
	.loc 1 433 13 is_stmt 1
	.loc 1 433 15 is_stmt 0
	lw	a5,384(s0)
	add	a1,s6,a3
	bne	a5,zero,.L47
	.loc 1 434 17 is_stmt 1
	.loc 1 434 29 is_stmt 0
	lbu	a5,0(a1)
	lbu	a0,0(a4)
	xor	a5,a5,a0
	sb	a5,0(a4)
.L47:
	.loc 1 435 13 is_stmt 1
	.loc 1 435 28 is_stmt 0
	addi	a5,sp,16
	add	a5,a5,a3
	.loc 1 435 22
	lbu	a1,0(a1)
	lbu	a5,0(a5)
	xor	a5,a5,a1
	andi	a5,a5,0xff
	add	a1,s7,a3
	sb	a5,0(a1)
	.loc 1 436 13 is_stmt 1
	.loc 1 436 15 is_stmt 0
	lw	a1,384(s0)
	bne	a1,s5,.L48
	.loc 1 437 17 is_stmt 1
	.loc 1 437 29 is_stmt 0
	lbu	a1,0(a4)
	xor	a5,a5,a1
	sb	a5,0(a4)
.L48:
	.loc 1 431 34 is_stmt 1 discriminator 2
	.loc 1 431 35 is_stmt 0 discriminator 2
	addi	a3,a3,1
.LVL141:
	.loc 1 431 21 is_stmt 1 discriminator 2
	.loc 1 431 9 is_stmt 0 discriminator 2
	addi	a4,a4,1
	bne	s8,a3,.L49
	.loc 1 440 9 is_stmt 1
	mv	a1,a2
	mv	a0,s0
	call	gcm_mult
.LVL142:
	.loc 1 442 9
	.loc 1 442 16 is_stmt 0
	sub	s1,s1,s8
.LVL143:
	.loc 1 443 9 is_stmt 1
	.loc 1 443 11 is_stmt 0
	add	s6,s6,s8
.LVL144:
	.loc 1 444 9 is_stmt 1
	.loc 1 444 15 is_stmt 0
	add	s7,s7,s8
.LVL145:
	j	.L43
.LVL146:
.L53:
	.loc 1 404 15
	li	a0,-20
	j	.L38
	.cfi_endproc
.LFE13:
	.size	mbedtls_gcm_update, .-mbedtls_gcm_update
	.section	.text.mbedtls_gcm_finish,"ax",@progbits
	.align	1
	.globl	mbedtls_gcm_finish
	.type	mbedtls_gcm_finish, @function
mbedtls_gcm_finish:
.LFB14:
	.loc 1 453 1 is_stmt 1
	.cfi_startproc
.LVL147:
	.loc 1 454 5
	.loc 1 455 5
	.loc 1 456 5
	.loc 1 457 5
	.loc 1 459 5
	.loc 1 459 10
	.loc 1 459 17
	.loc 1 460 5
	.loc 1 460 10
	.loc 1 460 17
	.loc 1 462 5
	.loc 1 453 1 is_stmt 0
	addi	sp,sp,-64
	.cfi_def_cfa_offset 64
	.loc 1 462 14
	addi	a5,a0,256
	.loc 1 453 1
	sw	ra,60(sp)
	sw	s0,56(sp)
	sw	s1,52(sp)
	sw	s2,48(sp)
	sw	s3,44(sp)
	sw	s4,40(sp)
	sw	s5,36(sp)
	sw	s6,32(sp)
	sw	s7,28(sp)
	sw	s8,24(sp)
	.cfi_offset 1, -4
	.cfi_offset 8, -8
	.cfi_offset 9, -12
	.cfi_offset 18, -16
	.cfi_offset 19, -20
	.cfi_offset 20, -24
	.cfi_offset 21, -28
	.cfi_offset 22, -32
	.cfi_offset 23, -36
	.cfi_offset 24, -40
	.loc 1 462 14
	lw	s7,64(a5)
	lw	s1,68(a5)
	.loc 1 463 18
	lw	s8,72(a5)
	lw	s2,76(a5)
	.loc 1 462 14
	srli	a4,s7,29
	slli	s1,s1,3
	or	s1,a4,s1
.LVL148:
	.loc 1 463 5 is_stmt 1
	.loc 1 463 18 is_stmt 0
	slli	s2,s2,3
	srli	a4,s8,29
	or	s2,a4,s2
.LVL149:
	.loc 1 465 5 is_stmt 1
	.loc 1 465 7 is_stmt 0
	li	a5,12
	.loc 1 465 22
	addi	a4,a2,-4
	.loc 1 465 7
	bgtu	a4,a5,.L65
	mv	s0,a1
	mv	s6,a0
	.loc 1 468 5
	addi	a1,a0,336
.LVL150:
	mv	a0,s0
.LVL151:
	mv	s5,a2
	slli	s3,s7,3
.LVL152:
	call	memcpy
.LVL153:
	slli	s4,s8,3
.LVL154:
	.loc 1 468 5 is_stmt 1
	.loc 1 470 5
	.loc 1 470 18 is_stmt 0
	or	a5,s3,s4
	or	a4,s1,s2
	or	a5,a5,a4
	bne	a5,zero,.L61
.LVL155:
.L64:
	.loc 1 488 11
	li	a0,0
.LVL156:
.L59:
	.loc 1 489 1
	lw	ra,60(sp)
	.cfi_remember_state
	.cfi_restore 1
	lw	s0,56(sp)
	.cfi_restore 8
	lw	s1,52(sp)
	.cfi_restore 9
	lw	s2,48(sp)
	.cfi_restore 18
	lw	s3,44(sp)
	.cfi_restore 19
	lw	s4,40(sp)
	.cfi_restore 20
	lw	s5,36(sp)
	.cfi_restore 21
	lw	s6,32(sp)
	.cfi_restore 22
	lw	s7,28(sp)
	.cfi_restore 23
	lw	s8,24(sp)
	.cfi_restore 24
	addi	sp,sp,64
	.cfi_def_cfa_offset 0
	jr	ra
.LVL157:
.L61:
	.cfi_restore_state
	.loc 1 472 9 is_stmt 1
	li	a2,16
	li	a1,0
	mv	a0,sp
	call	memset
.LVL158:
	.loc 1 474 11
	.loc 1 474 73 is_stmt 0
	srli	a5,s2,24
	.loc 1 474 30
	sb	a5,0(sp)
	.loc 1 474 82 is_stmt 1
	.loc 1 474 147 is_stmt 0
	srli	a5,s2,16
	.loc 1 474 104
	sb	a5,1(sp)
	.loc 1 474 156 is_stmt 1
	.loc 1 474 221 is_stmt 0
	srli	a5,s2,8
	.loc 1 474 178
	sb	a5,2(sp)
	.loc 1 474 229 is_stmt 1
	.loc 1 475 67 is_stmt 0
	srli	a5,s4,24
	.loc 1 475 30
	sb	a5,4(sp)
	.loc 1 475 135
	srli	a5,s4,16
	.loc 1 475 98
	sb	a5,5(sp)
	.loc 1 476 69
	srli	a5,s1,24
	.loc 1 476 30
	sb	a5,8(sp)
	.loc 1 476 139
	srli	a5,s1,16
	.loc 1 476 100
	sb	a5,9(sp)
	.loc 1 476 209
	srli	a5,s1,8
	.loc 1 476 170
	sb	a5,10(sp)
	.loc 1 477 64
	srli	a5,s3,24
	.loc 1 475 164
	slli	s4,s4,16
.LVL159:
	.loc 1 477 31
	sb	a5,12(sp)
	.loc 1 477 129
	srli	a5,s3,16
	.loc 1 477 159
	slli	s3,s3,16
.LVL160:
	.loc 1 475 164
	srli	s4,s4,16
	.loc 1 477 159
	srli	s3,s3,16
	.loc 1 475 164
	slli	s8,s8,11
.LVL161:
	srli	s4,s4,8
	.loc 1 477 159
	slli	s7,s7,11
.LVL162:
	srli	s3,s3,8
	.loc 1 475 164
	or	s4,s8,s4
	.loc 1 476 239
	sb	s1,11(sp)
	.loc 1 477 159
	or	s3,s7,s3
	addi	s1,s6,368
	.loc 1 477 96
	sb	a5,13(sp)
	.loc 1 474 251
	sb	s2,3(sp)
	.loc 1 474 298 is_stmt 1
	.loc 1 475 11
	.loc 1 475 76
	.loc 1 475 144
	.loc 1 475 211
	.loc 1 475 164 is_stmt 0
	sh	s4,6(sp)
	.loc 1 475 274 is_stmt 1
	.loc 1 476 11
	.loc 1 476 78
	.loc 1 476 148
	.loc 1 476 217
	.loc 1 476 282
	.loc 1 477 11
	.loc 1 477 73
	.loc 1 477 138
	.loc 1 477 202
	.loc 1 477 159 is_stmt 0
	sh	s3,14(sp)
	.loc 1 477 262 is_stmt 1
	.loc 1 479 9
.LVL163:
	.loc 1 479 21
	mv	a5,sp
	addi	a2,s6,384
	.loc 1 477 159 is_stmt 0
	mv	a4,s1
.LVL164:
.L62:
	.loc 1 480 13 is_stmt 1 discriminator 3
	.loc 1 480 25 is_stmt 0 discriminator 3
	lbu	a3,0(a4)
	lbu	a1,0(a5)
	.loc 1 479 9 discriminator 3
	addi	a4,a4,1
.LVL165:
	addi	a5,a5,1
	.loc 1 480 25 discriminator 3
	xor	a3,a3,a1
	sb	a3,-1(a4)
	.loc 1 479 29 is_stmt 1 discriminator 3
.LVL166:
	.loc 1 479 21 discriminator 3
	.loc 1 479 9 is_stmt 0 discriminator 3
	bne	a4,a2,.L62
	.loc 1 482 9 is_stmt 1
	mv	a0,s6
	mv	a2,s1
	mv	a1,s1
	call	gcm_mult
.LVL167:
	.loc 1 484 9
	.loc 1 484 21
	mv	a0,s0
	add	s5,s0,s5
.LVL168:
.L63:
	.loc 1 485 13 discriminator 3
	.loc 1 485 20 is_stmt 0 discriminator 3
	lbu	a5,0(a0)
	lbu	a4,0(s1)
	.loc 1 484 9 discriminator 3
	addi	a0,a0,1
.LVL169:
	addi	s1,s1,1
	.loc 1 485 20 discriminator 3
	xor	a5,a5,a4
	sb	a5,-1(a0)
	.loc 1 484 34 is_stmt 1 discriminator 3
.LVL170:
	.loc 1 484 21 discriminator 3
	.loc 1 484 9 is_stmt 0 discriminator 3
	bne	s5,a0,.L63
	j	.L64
.LVL171:
.L65:
	.loc 1 466 15
	li	a0,-20
.LVL172:
	j	.L59
	.cfi_endproc
.LFE14:
	.size	mbedtls_gcm_finish, .-mbedtls_gcm_finish
	.section	.text.mbedtls_gcm_crypt_and_tag,"ax",@progbits
	.align	1
	.globl	mbedtls_gcm_crypt_and_tag
	.type	mbedtls_gcm_crypt_and_tag, @function
mbedtls_gcm_crypt_and_tag:
.LFB15:
	.loc 1 502 1 is_stmt 1
	.cfi_startproc
.LVL173:
	addi	sp,sp,-32
	.cfi_def_cfa_offset 32
	sw	s1,20(sp)
	.cfi_offset 9, -12
	mv	s1,a2
	mv	a2,a3
.LVL174:
	mv	a3,a4
.LVL175:
	mv	a4,a5
.LVL176:
	mv	a5,a6
.LVL177:
	sw	s0,24(sp)
	sw	s2,16(sp)
	sw	s3,12(sp)
	sw	s4,8(sp)
	sw	s5,4(sp)
	sw	ra,28(sp)
	.cfi_offset 8, -8
	.cfi_offset 18, -16
	.cfi_offset 19, -20
	.cfi_offset 20, -24
	.cfi_offset 21, -28
	.cfi_offset 1, -4
	.loc 1 502 1 is_stmt 0
	lw	s5,32(sp)
	lw	s4,36(sp)
	lw	s3,40(sp)
	mv	s0,a0
	mv	s2,a7
	.loc 1 503 5 is_stmt 1
	.loc 1 505 5
	.loc 1 505 10
	.loc 1 505 17
	.loc 1 506 5
	.loc 1 506 10
	.loc 1 506 17
	.loc 1 507 5
	.loc 1 507 10
	.loc 1 507 17
	.loc 1 508 5
	.loc 1 508 10
	.loc 1 508 17
	.loc 1 509 5
	.loc 1 509 10
	.loc 1 509 17
	.loc 1 510 5
	.loc 1 510 10
	.loc 1 510 17
	.loc 1 512 5
	.loc 1 512 17 is_stmt 0
	call	mbedtls_gcm_starts
.LVL178:
	.loc 1 512 7
	bne	a0,zero,.L69
	.loc 1 515 5 is_stmt 1
	.loc 1 515 17 is_stmt 0
	mv	a3,s5
	mv	a2,s2
	mv	a1,s1
	mv	a0,s0
.LVL179:
	call	mbedtls_gcm_update
.LVL180:
	.loc 1 515 7
	bne	a0,zero,.L69
.LVL181:
.LBB13:
.LBB14:
	.loc 1 518 5 is_stmt 1
	.loc 1 518 17 is_stmt 0
	mv	a0,s0
.LVL182:
.LBE14:
.LBE13:
	.loc 1 522 1
	lw	s0,24(sp)
	.cfi_remember_state
	.cfi_restore 8
.LVL183:
	lw	ra,28(sp)
	.cfi_restore 1
	lw	s1,20(sp)
	.cfi_restore 9
.LVL184:
	lw	s2,16(sp)
	.cfi_restore 18
.LVL185:
	lw	s5,4(sp)
	.cfi_restore 21
.LBB17:
.LBB15:
	.loc 1 518 17
	mv	a2,s4
	mv	a1,s3
.LBE15:
.LBE17:
	.loc 1 522 1
	lw	s4,8(sp)
	.cfi_restore 20
	lw	s3,12(sp)
	.cfi_restore 19
	addi	sp,sp,32
	.cfi_def_cfa_offset 0
.LVL186:
.LBB18:
.LBB16:
	.loc 1 518 17
	tail	mbedtls_gcm_finish
.LVL187:
.L69:
	.cfi_restore_state
.LBE16:
.LBE18:
	.loc 1 522 1
	lw	ra,28(sp)
	.cfi_restore 1
	lw	s0,24(sp)
	.cfi_restore 8
.LVL188:
	lw	s1,20(sp)
	.cfi_restore 9
.LVL189:
	lw	s2,16(sp)
	.cfi_restore 18
.LVL190:
	lw	s3,12(sp)
	.cfi_restore 19
	lw	s4,8(sp)
	.cfi_restore 20
	lw	s5,4(sp)
	.cfi_restore 21
	addi	sp,sp,32
	.cfi_def_cfa_offset 0
.LVL191:
	jr	ra
	.cfi_endproc
.LFE15:
	.size	mbedtls_gcm_crypt_and_tag, .-mbedtls_gcm_crypt_and_tag
	.section	.text.mbedtls_gcm_auth_decrypt,"ax",@progbits
	.align	1
	.globl	mbedtls_gcm_auth_decrypt
	.type	mbedtls_gcm_auth_decrypt, @function
mbedtls_gcm_auth_decrypt:
.LFB16:
	.loc 1 534 1 is_stmt 1
	.cfi_startproc
.LVL192:
	.loc 1 535 5
	.loc 1 536 5
	.loc 1 537 5
	.loc 1 538 5
	.loc 1 540 5
	.loc 1 540 10
	.loc 1 540 17
	.loc 1 541 5
	.loc 1 541 10
	.loc 1 541 17
	.loc 1 542 5
	.loc 1 542 10
	.loc 1 542 17
	.loc 1 543 5
	.loc 1 543 10
	.loc 1 543 17
	.loc 1 544 5
	.loc 1 544 10
	.loc 1 544 17
	.loc 1 545 5
	.loc 1 545 10
	.loc 1 545 17
	.loc 1 547 5
	.loc 1 534 1 is_stmt 0
	addi	sp,sp,-64
	.cfi_def_cfa_offset 64
	sw	s3,44(sp)
	.cfi_offset 19, -20
	lw	s3,68(sp)
	sw	s1,52(sp)
	.loc 1 547 17
	sw	a7,4(sp)
	.cfi_offset 9, -12
	.loc 1 534 1
	mv	s1,a7
	.loc 1 547 17
	lw	a7,64(sp)
.LVL193:
	.loc 1 534 1
	sw	s4,40(sp)
	.cfi_offset 20, -24
	.loc 1 547 17
	addi	s4,sp,16
	.loc 1 534 1
	sw	s0,56(sp)
	sw	s2,48(sp)
	.cfi_offset 8, -8
	.cfi_offset 18, -16
	mv	s0,a1
	mv	s2,a6
	.loc 1 547 17
	sw	s4,8(sp)
	mv	a6,a5
.LVL194:
	sw	s3,0(sp)
	mv	a5,a4
.LVL195:
	mv	a4,a3
.LVL196:
	mv	a3,a2
.LVL197:
	mv	a2,a1
.LVL198:
	li	a1,0
.LVL199:
	.loc 1 534 1
	sw	ra,60(sp)
	.cfi_offset 1, -4
	.loc 1 547 17
	call	mbedtls_gcm_crypt_and_tag
.LVL200:
	.loc 1 555 22
	li	a5,0
	.loc 1 547 7
	beq	a0,zero,.L74
.LVL201:
.L72:
	.loc 1 565 1
	lw	ra,60(sp)
	.cfi_remember_state
	.cfi_restore 1
	lw	s0,56(sp)
	.cfi_restore 8
.LVL202:
	lw	s1,52(sp)
	.cfi_restore 9
.LVL203:
	lw	s2,48(sp)
	.cfi_restore 18
.LVL204:
	lw	s3,44(sp)
	.cfi_restore 19
	lw	s4,40(sp)
	.cfi_restore 20
	addi	sp,sp,64
	.cfi_def_cfa_offset 0
.LVL205:
	jr	ra
.LVL206:
.L75:
	.cfi_restore_state
	.loc 1 556 9 is_stmt 1 discriminator 3
	.loc 1 556 20 is_stmt 0 discriminator 3
	add	a4,s2,a5
	.loc 1 556 35 discriminator 3
	add	a3,s4,a5
	.loc 1 556 24 discriminator 3
	lbu	a4,0(a4)
	lbu	a3,0(a3)
	.loc 1 555 41 discriminator 3
	addi	a5,a5,1
.LVL207:
	.loc 1 556 24 discriminator 3
	xor	a4,a4,a3
	andi	a4,a4,0xff
	.loc 1 556 14 discriminator 3
	or	a0,a0,a4
.LVL208:
	.loc 1 555 40 is_stmt 1 discriminator 3
.L74:
	.loc 1 555 27 discriminator 1
	.loc 1 555 5 is_stmt 0 discriminator 1
	bne	a5,s1,.L75
	.loc 1 558 5 is_stmt 1
	.loc 1 558 7 is_stmt 0
	beq	a0,zero,.L72
	.loc 1 560 9 is_stmt 1
	mv	a0,s3
.LVL209:
	mv	a1,s0
	call	mbedtls_platform_zeroize
.LVL210:
	.loc 1 561 9
	.loc 1 561 15 is_stmt 0
	li	a0,-18
	j	.L72
	.cfi_endproc
.LFE16:
	.size	mbedtls_gcm_auth_decrypt, .-mbedtls_gcm_auth_decrypt
	.section	.text.mbedtls_gcm_free,"ax",@progbits
	.align	1
	.globl	mbedtls_gcm_free
	.type	mbedtls_gcm_free, @function
mbedtls_gcm_free:
.LFB17:
	.loc 1 568 1 is_stmt 1
	.cfi_startproc
.LVL211:
	.loc 1 569 5
	.loc 1 569 7 is_stmt 0
	beq	a0,zero,.L80
	.loc 1 568 1
	addi	sp,sp,-16
	.cfi_def_cfa_offset 16
	sw	s0,8(sp)
	sw	ra,12(sp)
	.cfi_offset 8, -8
	.cfi_offset 1, -4
	mv	s0,a0
	.loc 1 571 5 is_stmt 1
	call	mbedtls_cipher_free
.LVL212:
	.loc 1 572 5
	mv	a0,s0
	.loc 1 573 1 is_stmt 0
	lw	s0,8(sp)
	.cfi_restore 8
.LVL213:
	lw	ra,12(sp)
	.cfi_restore 1
	.loc 1 572 5
	li	a1,392
	.loc 1 573 1
	addi	sp,sp,16
	.cfi_def_cfa_offset 0
	.loc 1 572 5
	tail	mbedtls_platform_zeroize
.LVL214:
.L80:
	ret
	.cfi_endproc
.LFE17:
	.size	mbedtls_gcm_free, .-mbedtls_gcm_free
	.section	.rodata.last4,"a"
	.align	3
	.set	.LANCHOR0,. + 0
	.type	last4, @object
	.size	last4, 128
last4:
	.word	0
	.word	0
	.word	7200
	.word	0
	.word	14400
	.word	0
	.word	9312
	.word	0
	.word	28800
	.word	0
	.word	27808
	.word	0
	.word	18624
	.word	0
	.word	21728
	.word	0
	.word	57600
	.word	0
	.word	64800
	.word	0
	.word	55616
	.word	0
	.word	50528
	.word	0
	.word	37248
	.word	0
	.word	36256
	.word	0
	.word	43456
	.word	0
	.word	46560
	.word	0
	.text
.Letext0:
	.file 2 "/mnt/d/GitHub/bl_iot_sdk_for_aithinker/toolchain/riscv/Linux/lib/gcc/riscv64-unknown-elf/10.2.0/include/stddef.h"
	.file 3 "/mnt/d/GitHub/bl_iot_sdk_for_aithinker/components/security/mbedtls_lts/mbedtls/include/mbedtls/cipher.h"
	.file 4 "/mnt/d/GitHub/bl_iot_sdk_for_aithinker/toolchain/riscv/Linux/lib/gcc/riscv64-unknown-elf/10.2.0/include/stdint-gcc.h"
	.file 5 "/mnt/d/GitHub/bl_iot_sdk_for_aithinker/components/security/mbedtls_lts/mbedtls/include/mbedtls/gcm.h"
	.file 6 "/mnt/d/GitHub/bl_iot_sdk_for_aithinker/components/security/mbedtls_lts/mbedtls/include/mbedtls/platform_util.h"
	.file 7 "/mnt/d/GitHub/bl_iot_sdk_for_aithinker/toolchain/riscv/Linux/riscv64-unknown-elf/include/string.h"