	.file	"md5.c"
	.option nopic
	.attribute arch, "rv32i2p0_m2p0_f2p0_c2p0"
	.attribute unaligned_access, 0
	.attribute stack_align, 16
	.text
.Ltext0:
	.cfi_sections	.debug_frame
	.section	.text.mbedtls_md5_init,"ax",@progbits
	.align	1
	.globl	mbedtls_md5_init
	.type	mbedtls_md5_init, @function
mbedtls_md5_init:
.LFB1:
	.file 1 "/mnt/d/GitHub/bl_iot_sdk_for_aithinker/components/security/mbedtls_lts/mbedtls/library/md5.c"
	.loc 1 100 1
	.cfi_startproc
.LVL0:
	.loc 1 101 5
	li	a2,88
	li	a1,0
	tail	memset
.LVL1:
	.cfi_endproc
.LFE1:
	.size	mbedtls_md5_init, .-mbedtls_md5_init
	.section	.text.mbedtls_md5_free,"ax",@progbits
	.align	1
	.globl	mbedtls_md5_free
	.type	mbedtls_md5_free, @function
mbedtls_md5_free:
.LFB2:
	.loc 1 105 1
	.cfi_startproc
.LVL2:
	.loc 1 106 5
	.loc 1 106 7 is_stmt 0
	beq	a0,zero,.L2
	.loc 1 109 5 is_stmt 1
	li	a1,88
	tail	mbedtls_platform_zeroize
.LVL3:
.L2:
	.loc 1 110 1 is_stmt 0
	ret
	.cfi_endproc
.LFE2:
	.size	mbedtls_md5_free, .-mbedtls_md5_free
	.section	.text.mbedtls_md5_clone,"ax",@progbits
	.align	1
	.globl	mbedtls_md5_clone
	.type	mbedtls_md5_clone, @function
mbedtls_md5_clone:
.LFB3:
	.loc 1 114 1 is_stmt 1
	.cfi_startproc
.LVL4:
	.loc 1 115 5
	.loc 1 114 1 is_stmt 0
	addi	sp,sp,-16
	.cfi_def_cfa_offset 16
	.loc 1 115 10
	li	a2,88
	.loc 1 114 1
	sw	ra,12(sp)
	.cfi_offset 1, -4
	.loc 1 115 10
	call	memcpy
.LVL5:
	.loc 1 116 1
	lw	ra,12(sp)
	.cfi_restore 1
	addi	sp,sp,16
	.cfi_def_cfa_offset 0
	jr	ra
	.cfi_endproc
.LFE3:
	.size	mbedtls_md5_clone, .-mbedtls_md5_clone
	.section	.text.mbedtls_md5_starts_ret,"ax",@progbits
	.align	1
	.globl	mbedtls_md5_starts_ret
	.type	mbedtls_md5_starts_ret, @function
mbedtls_md5_starts_ret:
.LFB4:
	.loc 1 122 1 is_stmt 1
	.cfi_startproc
.LVL6:
	.loc 1 123 5
	.loc 1 126 19 is_stmt 0
	li	a5,1732583424
	addi	a5,a5,769
	sw	a5,8(a0)
	.loc 1 127 19
	li	a5,-271732736
	addi	a5,a5,-1143
	sw	a5,12(a0)
	.loc 1 128 19
	li	a5,-1732583424
	addi	a5,a5,-770
	sw	a5,16(a0)
	.loc 1 129 19
	li	a5,271732736
	addi	a5,a5,1142
	.loc 1 123 19
	sw	zero,0(a0)
	.loc 1 124 5 is_stmt 1
	.loc 1 124 19 is_stmt 0
	sw	zero,4(a0)
	.loc 1 126 5 is_stmt 1
	.loc 1 127 5
	.loc 1 128 5
	.loc 1 129 5
	.loc 1 129 19 is_stmt 0
	sw	a5,20(a0)
	.loc 1 131 5 is_stmt 1
	.loc 1 132 1 is_stmt 0
	li	a0,0
.LVL7:
	ret
	.cfi_endproc
.LFE4:
	.size	mbedtls_md5_starts_ret, .-mbedtls_md5_starts_ret
	.section	.text.mbedtls_md5_starts,"ax",@progbits
	.align	1
	.globl	mbedtls_md5_starts
	.type	mbedtls_md5_starts, @function
mbedtls_md5_starts:
.LFB5:
	.loc 1 136 1 is_stmt 1
	.cfi_startproc
.LVL8:
	.loc 1 137 5
	tail	mbedtls_md5_starts_ret
.LVL9:
	.cfi_endproc
.LFE5:
	.size	mbedtls_md5_starts, .-mbedtls_md5_starts
	.section	.text.mbedtls_internal_md5_process,"ax",@progbits
	.align	1
	.globl	mbedtls_internal_md5_process
	.type	mbedtls_internal_md5_process, @function
mbedtls_internal_md5_process:
.LFB6:
	.loc 1 144 1
	.cfi_startproc
.LVL10:
	.loc 1 145 5
	.loc 1 150 7
	.loc 1 144 1 is_stmt 0
	addi	sp,sp,-144
	.cfi_def_cfa_offset 144
	sw	ra,140(sp)
	sw	s1,132(sp)
	sw	s2,128(sp)
	sw	s3,124(sp)
	sw	s4,120(sp)
	sw	s5,116(sp)
	sw	s6,112(sp)
	sw	s7,108(sp)
	sw	s8,104(sp)
	sw	s9,100(sp)
	sw	s10,96(sp)
	sw	s11,92(sp)
	sw	s0,136(sp)
	.cfi_offset 1, -4
	.cfi_offset 9, -12
	.cfi_offset 18, -16
	.cfi_offset 19, -20
	.cfi_offset 20, -24
	.cfi_offset 21, -28
	.cfi_offset 22, -32
	.cfi_offset 23, -36
	.cfi_offset 24, -40
	.cfi_offset 25, -44
	.cfi_offset 26, -48
	.cfi_offset 27, -52
	.cfi_offset 8, -8
	.loc 1 150 128
	lbu	a5,1(a1)
	lbu	s0,0(a1)
	.loc 1 151 128
	lbu	t3,4(a1)
	.loc 1 150 128
	slli	a5,a5,8
	or	a5,a5,s0
	lbu	s0,2(a1)
	.loc 1 152 128
	lbu	a4,8(a1)
	.loc 1 153 131
	lbu	t5,12(a1)
	.loc 1 150 128
	slli	s0,s0,16
	or	a5,s0,a5
	lbu	s0,3(a1)
	.loc 1 184 20
	li	s5,-680878080
	addi	s5,s5,1144
	.loc 1 150 128
	slli	s0,s0,24
	or	s0,s0,a5
	.loc 1 151 128
	lbu	a5,5(a1)
	.loc 1 150 21
	sw	s0,0(sp)
	.loc 1 150 169 is_stmt 1
	.loc 1 151 7
	.loc 1 185 20 is_stmt 0
	li	s3,-389566464
	.loc 1 151 128
	slli	a5,a5,8
	or	a5,a5,t3
	lbu	t3,6(a1)
	.loc 1 185 20
	addi	s3,s3,1878
	.loc 1 188 20
	li	s10,-176418816
	.loc 1 151 128
	slli	t3,t3,16
	or	a5,t3,a5
	lbu	t3,7(a1)
	.loc 1 188 20
	addi	s10,s10,-81
	.loc 1 220 20
	li	s11,-1926606848
	.loc 1 151 128
	slli	t3,t3,24
	or	t3,t3,a5
	.loc 1 152 128
	lbu	a5,9(a1)
	.loc 1 151 21
	sw	t3,4(sp)
	.loc 1 151 169 is_stmt 1
	.loc 1 152 7
	.loc 1 220 20 is_stmt 0
	addi	s11,s11,-886
	.loc 1 152 128
	slli	a5,a5,8
	or	a5,a5,a4
	lbu	a4,10(a1)
	slli	a4,a4,16
	or	a5,a4,a5
	lbu	a4,11(a1)
	slli	a4,a4,24
	or	a4,a4,a5
	.loc 1 153 131
	lbu	a5,13(a1)
	.loc 1 152 21
	sw	a4,8(sp)
	.loc 1 152 169 is_stmt 1
	.loc 1 153 7
	.loc 1 153 131 is_stmt 0
	slli	a5,a5,8
	or	a5,a5,t5
	lbu	t5,14(a1)
	slli	t5,t5,16
	or	a5,t5,a5
	lbu	t5,15(a1)
	slli	t5,t5,24
	or	t5,t5,a5
	.loc 1 153 21
	sw	t5,12(sp)
	.loc 1 153 173 is_stmt 1
	.loc 1 154 7
	.loc 1 154 131 is_stmt 0
	lbu	a5,17(a1)
	lbu	a2,16(a1)
	.loc 1 155 131
	lbu	t0,20(a1)
	.loc 1 154 131
	slli	a5,a5,8
	or	a5,a5,a2
	lbu	a2,18(a1)
	.loc 1 156 131
	lbu	a7,24(a1)
	.loc 1 157 131
	lbu	ra,28(a1)
	.loc 1 154 131
	slli	a2,a2,16
	or	a5,a2,a5
	lbu	a2,19(a1)
	.loc 1 158 131
	lbu	t1,32(a1)
	.loc 1 159 131
	lbu	a3,37(a1)
	.loc 1 154 131
	slli	a2,a2,24
	or	a2,a2,a5
	.loc 1 155 131
	lbu	a5,21(a1)
	.loc 1 159 131
	slli	a3,a3,8
	.loc 1 160 131
	lbu	t4,40(a1)
	.loc 1 155 131
	slli	a5,a5,8
	or	a5,a5,t0
	lbu	t0,22(a1)
	.loc 1 154 21
	sw	a2,16(sp)
	.loc 1 154 173 is_stmt 1
	.loc 1 155 7
	.loc 1 188 20 is_stmt 0
	add	s10,a2,s10
	.loc 1 155 131
	slli	t0,t0,16
	or	a5,t0,a5
	lbu	t0,23(a1)
	slli	t0,t0,24
	or	t0,t0,a5
	.loc 1 156 131
	lbu	a5,25(a1)
	.loc 1 155 21
	sw	t0,20(sp)
	.loc 1 155 173 is_stmt 1
	.loc 1 156 7
	.loc 1 156 131 is_stmt 0
	slli	a5,a5,8
	or	a5,a5,a7
	lbu	a7,26(a1)
	slli	a7,a7,16
	or	a5,a7,a5
	lbu	a7,27(a1)
	slli	a7,a7,24
	or	a7,a7,a5
	.loc 1 157 131
	lbu	a5,29(a1)
	.loc 1 156 21
	sw	a7,24(sp)
	.loc 1 156 173 is_stmt 1
	.loc 1 157 7
	.loc 1 157 131 is_stmt 0
	slli	a5,a5,8
	or	a5,a5,ra
	lbu	ra,30(a1)
	slli	ra,ra,16
	or	a5,ra,a5
	lbu	ra,31(a1)
	slli	ra,ra,24
	or	ra,ra,a5
	.loc 1 158 131
	lbu	a5,33(a1)
	.loc 1 157 21
	sw	ra,28(sp)
	.loc 1 157 173 is_stmt 1
	.loc 1 158 7
	.loc 1 158 131 is_stmt 0
	slli	a5,a5,8
	or	a5,a5,t1
	lbu	t1,34(a1)
	slli	t1,t1,16
	or	a5,t1,a5
	lbu	t1,35(a1)
	slli	t1,t1,24
	or	t1,t1,a5
	.loc 1 159 131
	lbu	a5,36(a1)
	.loc 1 158 21
	sw	t1,32(sp)
	.loc 1 158 173 is_stmt 1
	.loc 1 159 7
	.loc 1 159 131 is_stmt 0
	or	a3,a3,a5
	lbu	a5,38(a1)
	slli	a5,a5,16
	or	a3,a5,a3
	lbu	a5,39(a1)
	slli	a5,a5,24
	or	a5,a5,a3
	.loc 1 160 131
	lbu	a3,41(a1)
	.loc 1 159 21
	sw	a5,36(sp)
	.loc 1 159 173 is_stmt 1
	.loc 1 160 7
	.loc 1 160 131 is_stmt 0
	slli	a3,a3,8
	or	a3,a3,t4
	lbu	t4,42(a1)
	.loc 1 161 131
	lbu	a6,45(a1)
	.loc 1 162 131
	lbu	t6,48(a1)
	.loc 1 160 131
	slli	t4,t4,16
	or	a3,t4,a3
	lbu	t4,43(a1)
	.loc 1 161 131
	slli	a6,a6,8
	.loc 1 163 131
	lbu	t2,53(a1)
	.loc 1 160 131
	slli	t4,t4,24
	or	t4,t4,a3
	.loc 1 161 131
	lbu	a3,44(a1)
	.loc 1 163 131
	slli	t2,t2,8
	.loc 1 164 131
	lbu	s1,57(a1)
	.loc 1 161 131
	or	a6,a6,a3
	lbu	a3,46(a1)
	.loc 1 164 131
	slli	s1,s1,8
	.loc 1 165 131
	lbu	s2,60(a1)
	.loc 1 161 131
	slli	a3,a3,16
	or	a6,a3,a6
	lbu	a3,47(a1)
	.loc 1 179 25
	lw	s6,16(a0)
	.loc 1 180 25
	lw	s7,20(a0)
	.loc 1 161 131
	slli	a3,a3,24
	or	a3,a3,a6
	.loc 1 162 131
	lbu	a6,49(a1)
	.loc 1 177 25
	lw	s8,8(a0)
	.loc 1 185 20
	add	s3,s7,s3
	.loc 1 162 131
	slli	a6,a6,8
	or	a6,a6,t6
	lbu	t6,50(a1)
	.loc 1 184 20
	add	s5,s8,s5
	add	s5,s5,s0
	.loc 1 162 131
	slli	t6,t6,16
	or	a6,t6,a6
	lbu	t6,51(a1)
	.loc 1 185 20
	add	s3,s3,t3
	.loc 1 160 21
	sw	t4,40(sp)
	.loc 1 160 173 is_stmt 1
	.loc 1 161 7
	.loc 1 162 131 is_stmt 0
	slli	t6,t6,24
	or	t6,t6,a6
	.loc 1 163 131
	lbu	a6,52(a1)
	.loc 1 220 20
	add	s11,t6,s11
	.loc 1 162 21
	sw	t6,48(sp)
	.loc 1 163 131
	or	t2,t2,a6
	lbu	a6,54(a1)
	.loc 1 161 21
	sw	a3,44(sp)
	.loc 1 161 173 is_stmt 1
	.loc 1 162 7
	.loc 1 162 173
	.loc 1 163 7
	.loc 1 163 131 is_stmt 0
	slli	a6,a6,16
	or	t2,a6,t2
	lbu	a6,55(a1)
	slli	a6,a6,24
	or	a6,a6,t2
	.loc 1 164 131
	lbu	t2,56(a1)
	.loc 1 163 21
	sw	a6,52(sp)
	.loc 1 163 173 is_stmt 1
	.loc 1 164 7
	.loc 1 164 131 is_stmt 0
	or	s1,s1,t2
	lbu	t2,58(a1)
	slli	t2,t2,16
	or	s1,t2,s1
	lbu	t2,59(a1)
	slli	t2,t2,24
	or	t2,t2,s1
	.loc 1 165 131
	lbu	s1,61(a1)
	.loc 1 164 21
	sw	t2,56(sp)
	.loc 1 164 173 is_stmt 1
	.loc 1 165 7
	.loc 1 165 131 is_stmt 0
	slli	s1,s1,8
	or	s2,s1,s2
	lbu	s1,62(a1)
	lbu	a1,63(a1)
.LVL11:
	slli	s1,s1,16
	or	s1,s1,s2
	.loc 1 178 25
	lw	s2,12(a0)
	.loc 1 165 131
	slli	a1,a1,24
	or	a1,a1,s1
	.loc 1 184 66
	xor	s1,s6,s7
	.loc 1 184 51
	and	s1,s1,s2
	.loc 1 184 36
	xor	s1,s1,s7
	.loc 1 184 20
	add	s1,s1,s5
	.loc 1 184 153
	slli	s5,s1,7
	srli	s1,s1,25
	or	s1,s5,s1
	.loc 1 184 207
	add	s5,s1,s2
	.loc 1 185 66
	xor	s1,s2,s6
	.loc 1 185 51
	and	s1,s1,s5
	.loc 1 185 36
	xor	s1,s1,s6
	.loc 1 185 20
	add	s1,s1,s3
	.loc 1 185 154
	slli	s3,s1,12
	srli	s1,s1,20
	or	s1,s3,s1
	.loc 1 185 209
	add	s3,s1,s5
	.loc 1 186 20
	li	s1,606105600
	.loc 1 186 66
	xor	s4,s2,s5
	.loc 1 186 20
	addi	s1,s1,219
	.loc 1 186 51
	and	s4,s4,s3
	.loc 1 186 20
	add	s1,s6,s1
	add	s1,s1,a4
	.loc 1 186 36
	xor	s4,s4,s2
	.loc 1 186 20
	add	s4,s4,s1
	.loc 1 186 154
	srli	s1,s4,15
	slli	s4,s4,17
	or	s4,s1,s4
	.loc 1 186 209
	add	s1,s4,s3
	.loc 1 187 20
	li	s4,-1044525056
	.loc 1 187 66
	xor	s9,s5,s3
	.loc 1 187 20
	addi	s4,s4,-274
	.loc 1 187 51
	and	s9,s9,s1
	.loc 1 187 20
	add	s4,s2,s4
	.loc 1 187 36
	xor	s9,s9,s5
	.loc 1 187 20
	add	s4,s4,t5
	add	s4,s9,s4
	.loc 1 187 154
	srli	s9,s4,10
	slli	s4,s4,22
	or	s4,s9,s4
	.loc 1 187 209
	add	s9,s4,s1
	.loc 1 188 66
	xor	s4,s3,s1
	.loc 1 188 51
	and	s4,s4,s9
	.loc 1 188 36
	xor	s4,s4,s3
	.loc 1 188 20
	add	s5,s10,s5
	add	s5,s4,s5
	.loc 1 188 153
	slli	s4,s5,7
	srli	s5,s5,25
	or	s5,s4,s5
	.loc 1 189 20
	li	s10,1200078848
	.loc 1 188 207
	add	s4,s5,s9
	.loc 1 189 20
	addi	s10,s10,1578
	.loc 1 189 66
	xor	s5,s1,s9
	.loc 1 189 20
	add	s10,t0,s10
	.loc 1 189 51
	and	s5,s5,s4
	.loc 1 189 36
	xor	s5,s5,s1
	.loc 1 189 20
	add	s3,s10,s3
	add	s3,s5,s3
	.loc 1 189 154
	slli	s5,s3,12
	srli	s3,s3,20
	or	s3,s5,s3
	.loc 1 190 20
	li	s10,-1473232896
	.loc 1 189 209
	add	s5,s3,s4
	.loc 1 190 20
	addi	s10,s10,1555
	.loc 1 190 66
	xor	s3,s9,s4
	.loc 1 190 20
	add	s10,a7,s10
	.loc 1 190 51
	and	s3,s3,s5
	.loc 1 190 36
	xor	s3,s3,s9
	.loc 1 190 20
	add	s1,s10,s1
	add	s1,s3,s1
	.loc 1 190 154
	srli	s3,s1,15
	slli	s1,s1,17
	or	s1,s3,s1
	.loc 1 191 20
	li	s10,-45707264
	.loc 1 190 209
	add	s3,s1,s5
	.loc 1 191 20
	addi	s10,s10,1281
	.loc 1 191 66
	xor	s1,s4,s5
	.loc 1 191 20
	add	s10,ra,s10
	.loc 1 191 51
	and	s1,s1,s3
	.loc 1 191 36
	xor	s1,s1,s4
	.loc 1 191 20
	add	s9,s10,s9
	add	s9,s1,s9
	.loc 1 191 154
	srli	s1,s9,10
	slli	s9,s9,22
	or	s9,s1,s9
	.loc 1 192 20
	li	s10,1770037248
	.loc 1 191 209
	add	s1,s9,s3
	.loc 1 192 20
	addi	s10,s10,-1832
	.loc 1 192 66
	xor	s9,s5,s3
	.loc 1 192 20
	add	s10,t1,s10
	.loc 1 192 51
	and	s9,s9,s1
	.loc 1 192 36
	xor	s9,s9,s5
	.loc 1 192 20
	add	s4,s10,s4
	add	s4,s9,s4
	.loc 1 192 153
	slli	s9,s4,7
	srli	s4,s4,25
	or	s4,s9,s4
	.loc 1 193 20
	li	s10,-1958416384
	.loc 1 192 207
	add	s9,s4,s1
	.loc 1 193 20
	addi	s10,s10,1967
	.loc 1 193 66
	xor	s4,s3,s1
	.loc 1 193 20
	add	s10,a5,s10
	.loc 1 193 51
	and	s4,s4,s9
	.loc 1 193 36
	xor	s4,s4,s3
	.loc 1 193 20
	add	s5,s10,s5
	add	s5,s4,s5
	.loc 1 193 154
	slli	s4,s5,12
	srli	s5,s5,20
	or	s5,s4,s5
	.loc 1 194 20
	li	s10,-40960
	.loc 1 193 209
	add	s4,s5,s9
	.loc 1 194 20
	addi	s10,s10,-1103
	.loc 1 194 66
	xor	s5,s1,s9
	.loc 1 194 20
	add	s10,t4,s10
	.loc 1 194 51
	and	s5,s5,s4
	.loc 1 194 36
	xor	s5,s5,s1
	.loc 1 194 20
	add	s3,s10,s3
	add	s3,s5,s3
	.loc 1 194 155
	srli	s5,s3,15
	slli	s3,s3,17
	or	s3,s5,s3
	.loc 1 195 20
	li	s10,-1990406144
	.loc 1 194 210
	add	s5,s3,s4
	.loc 1 195 20
	addi	s10,s10,1982
	.loc 1 195 66
	xor	s3,s9,s4
	.loc 1 195 20
	add	s10,a3,s10
	.loc 1 195 51
	and	s3,s3,s5
	.loc 1 195 36
	xor	s3,s3,s9
	.loc 1 195 20
	add	s1,s10,s1
	add	s1,s3,s1
	.loc 1 195 155
	srli	s3,s1,10
	slli	s1,s1,22
	or	s1,s3,s1
	.loc 1 196 20
	li	s10,1804603392
	.loc 1 195 210
	add	s3,s1,s5
	.loc 1 196 20
	addi	s10,s10,290
	.loc 1 196 66
	xor	s1,s4,s5
	.loc 1 196 20
	add	s10,t6,s10
	.loc 1 196 51
	and	s1,s1,s3
	.loc 1 196 36
	xor	s1,s1,s4
	.loc 1 196 20
	add	s9,s10,s9
	add	s9,s1,s9
	.loc 1 196 154
	slli	s1,s9,7
	srli	s9,s9,25
	or	s9,s1,s9
	.loc 1 196 208
	add	s1,s9,s3
	.loc 1 197 20
	li	s9,-40341504
	.loc 1 197 66
	xor	s10,s5,s3
	.loc 1 197 20
	addi	s9,s9,403
	add	s9,a6,s9
	.loc 1 197 51
	and	s10,s10,s1
	.loc 1 197 36
	xor	s10,s10,s5
	.loc 1 197 20
	add	s4,s9,s4
	add	s4,s10,s4
	.loc 1 197 155
	slli	s10,s4,12
	srli	s4,s4,20
	or	s4,s10,s4
	.loc 1 198 20
	li	s9,-1502003200
	.loc 1 197 210
	add	s10,s4,s1
	.loc 1 198 20
	addi	s9,s9,910
	.loc 1 198 66
	xor	s4,s3,s1
	.loc 1 198 20
	add	s9,t2,s9
	.loc 1 198 51
	and	s4,s4,s10
	.loc 1 198 36
	xor	s4,s4,s3
	.loc 1 198 20
	add	s5,s9,s5
	add	s5,s4,s5
	.loc 1 198 155
	srli	s4,s5,15
	slli	s5,s5,17
	or	s5,s4,s5
	.loc 1 199 20
	li	s9,1236537344
	.loc 1 198 210
	add	s4,s5,s10
	.loc 1 199 20
	addi	s9,s9,-2015
	.loc 1 199 66
	xor	s5,s1,s10
	.loc 1 199 20
	add	s9,a1,s9
	.loc 1 199 51
	and	s5,s5,s4
	.loc 1 199 36
	xor	s5,s5,s1
	.loc 1 199 20
	add	s3,s9,s3
	add	s3,s5,s3
	.loc 1 199 155
	srli	s5,s3,10
	slli	s3,s3,22
	or	s3,s5,s3
	.loc 1 199 210
	add	s5,s3,s4
	.loc 1 205 20
	li	s3,-165797888
	.loc 1 205 66
	xor	s9,s4,s5
	.loc 1 205 20
	addi	s3,s3,1378
	add	s3,t3,s3
	.loc 1 205 51
	and	s9,s9,s10
	.loc 1 205 36
	xor	s9,s9,s4
	.loc 1 205 20
	add	s1,s3,s1
	add	s1,s9,s1
	.loc 1 205 153
	slli	s9,s1,5
	srli	s1,s1,27
	or	s1,s9,s1
	.loc 1 205 207
	add	s9,s1,s5
	.loc 1 206 20
	li	s1,-1069502464
	.loc 1 206 66
	xor	s3,s5,s9
	.loc 1 206 20
	addi	s1,s1,832
	add	s1,a7,s1
	.loc 1 206 51
	and	s3,s3,s4
	.loc 1 206 36
	xor	s3,s3,s5
	.loc 1 206 20
	add	s10,s1,s10
	add	s10,s3,s10
	.loc 1 206 153
	slli	s3,s10,9
	srli	s10,s10,23
	or	s10,s3,s10
	.loc 1 206 207
	add	s3,s10,s9
	.loc 1 207 20
	li	s10,643719168
	.loc 1 207 66
	xor	s1,s9,s3
	.loc 1 207 20
	addi	s10,s10,-1455
	add	s10,a3,s10
	.loc 1 207 51
	and	s1,s1,s5
	.loc 1 207 36
	xor	s1,s1,s9
	.loc 1 207 20
	add	s4,s10,s4
	add	s4,s1,s4
	.loc 1 207 155
	slli	s1,s4,14
	srli	s4,s4,18
	or	s4,s1,s4
	.loc 1 207 210
	add	s1,s4,s3
	.loc 1 208 20
	li	s10,-373899264
	.loc 1 208 66
	xor	s4,s3,s1
	.loc 1 208 20
	addi	s10,s10,1962
	add	s10,s0,s10
	.loc 1 208 51
	and	s4,s4,s9
	.loc 1 208 36
	xor	s4,s4,s3
	.loc 1 208 20
	add	s5,s10,s5
	add	s5,s4,s5
	.loc 1 208 154
	srli	s4,s5,12
	slli	s5,s5,20
	or	s5,s4,s5
	.loc 1 208 209
	add	s4,s5,s1
	.loc 1 209 20
	li	s10,-701558784
	.loc 1 209 66
	xor	s5,s1,s4
	.loc 1 209 20
	addi	s10,s10,93
	add	s10,t0,s10
	.loc 1 209 51
	and	s5,s5,s3
	.loc 1 209 36
	xor	s5,s5,s1
	.loc 1 209 20
	add	s9,s10,s9
	add	s9,s5,s9
	.loc 1 209 153
	slli	s5,s9,5
	srli	s9,s9,27
	or	s9,s5,s9
	.loc 1 209 207
	add	s5,s9,s4
	.loc 1 210 20
	li	s10,38014976
	.loc 1 210 66
	xor	s9,s4,s5
	.loc 1 210 20
	addi	s10,s10,1107
	add	s10,t4,s10
	.loc 1 210 51
	and	s9,s9,s1
	.loc 1 210 36
	xor	s9,s9,s4
	.loc 1 210 20
	add	s3,s10,s3
	add	s3,s9,s3
	.loc 1 210 154
	slli	s9,s3,9
	srli	s3,s3,23
	or	s3,s9,s3
	.loc 1 210 208
	add	s9,s3,s5
	.loc 1 211 20
	li	s10,-660480000
	.loc 1 211 66
	xor	s3,s5,s9
	.loc 1 211 20
	addi	s10,s10,1665
	add	s10,a1,s10
	.loc 1 211 51
	and	s3,s3,s4
	.loc 1 211 36
	xor	s3,s3,s5
	.loc 1 211 20
	add	s1,s10,s1
	add	s1,s3,s1
	.loc 1 211 155
	slli	s3,s1,14
	srli	s1,s1,18
	or	s1,s3,s1
	.loc 1 211 210
	add	s3,s1,s9
	.loc 1 212 20
	li	s10,-405536768
	.loc 1 212 66
	xor	s1,s9,s3
	.loc 1 212 20
	addi	s10,s10,-1080
	add	s10,a2,s10
	.loc 1 212 51
	and	s1,s1,s5
	.loc 1 212 36
	xor	s1,s1,s9
	.loc 1 212 20
	add	s4,s10,s4
	add	s4,s1,s4
	.loc 1 212 154
	srli	s1,s4,12
	slli	s4,s4,20
	or	s4,s1,s4
	.loc 1 212 209
	add	s1,s4,s3
	.loc 1 213 20
	li	s10,568446976
	.loc 1 213 66
	xor	s4,s3,s1
	.loc 1 213 20
	addi	s10,s10,-538
	add	s10,a5,s10
	.loc 1 213 51
	and	s4,s4,s9
	.loc 1 213 36
	xor	s4,s4,s3
	.loc 1 213 20
	add	s5,s10,s5
	add	s5,s4,s5
	.loc 1 213 153
	slli	s4,s5,5
	srli	s5,s5,27
	or	s5,s4,s5
	.loc 1 213 207
	add	s4,s5,s1
	.loc 1 214 20
	li	s10,-1019805696
	.loc 1 214 66
	xor	s5,s1,s4
	.loc 1 214 20
	addi	s10,s10,2006
	add	s10,t2,s10
	.loc 1 214 51
	and	s5,s5,s3
	.loc 1 214 36
	xor	s5,s5,s1
	.loc 1 214 20
	add	s9,s10,s9
	add	s9,s5,s9
	.loc 1 214 154
	slli	s5,s9,9
	srli	s9,s9,23
	or	s9,s5,s9
	.loc 1 214 208
	add	s5,s9,s4
	.loc 1 215 20
	li	s10,-187363328
	.loc 1 215 66
	xor	s9,s4,s5
	.loc 1 215 20
	addi	s10,s10,-633
	add	s10,t5,s10
	.loc 1 215 51
	and	s9,s9,s1
	.loc 1 215 36
	xor	s9,s9,s4
	.loc 1 215 20
	add	s3,s10,s3
	add	s3,s9,s3
	.loc 1 215 154
	slli	s9,s3,14
	srli	s3,s3,18
	or	s3,s9,s3
	.loc 1 215 209
	add	s9,s3,s5
	.loc 1 216 20
	li	s10,1163530240
	.loc 1 216 66
	xor	s3,s5,s9
	.loc 1 216 20
	addi	s10,s10,1261
	add	s10,t1,s10
	.loc 1 216 51
	and	s3,s3,s4
	.loc 1 216 36
	xor	s3,s3,s5
	.loc 1 216 20
	add	s1,s10,s1
	add	s1,s3,s1
	.loc 1 216 154
	srli	s3,s1,12
	slli	s1,s1,20
	or	s1,s3,s1
	.loc 1 216 209
	add	s3,s1,s9
	.loc 1 217 20
	li	s10,-1444679680
	.loc 1 217 66
	xor	s1,s9,s3
	.loc 1 217 20
	addi	s10,s10,-1787
	add	s10,a6,s10
	.loc 1 217 51
	and	s1,s1,s5
	.loc 1 217 36
	xor	s1,s1,s9
	.loc 1 217 20
	add	s4,s10,s4
	add	s4,s1,s4
	.loc 1 217 154
	slli	s10,s4,5
	srli	s4,s4,27
	or	s4,s10,s4
	.loc 1 217 208
	add	s10,s4,s3
	.loc 1 218 20
	li	s1,-51404800
	.loc 1 218 66
	xor	s4,s3,s10
	.loc 1 218 20
	addi	s1,s1,1016
	add	s1,a4,s1
	.loc 1 218 51
	and	s4,s4,s9
	.loc 1 218 36
	xor	s4,s4,s3
	.loc 1 218 20
	add	s5,s1,s5
	add	s5,s4,s5
	.loc 1 218 153
	slli	s4,s5,9
	srli	s5,s5,23
	or	s5,s4,s5
	.loc 1 218 207
	add	s4,s5,s10
	.loc 1 219 20
	li	s1,1735327744
	.loc 1 219 66
	xor	s5,s10,s4
	.loc 1 219 20
	addi	s1,s1,729
	add	s1,ra,s1
	.loc 1 219 51
	and	s5,s5,s3
	.loc 1 219 36
	xor	s5,s5,s10
	.loc 1 219 20
	add	s9,s1,s9
	add	s9,s5,s9
	.loc 1 219 154
	slli	s5,s9,14
	srli	s9,s9,18
	or	s9,s5,s9
	.loc 1 219 209
	add	s5,s9,s4
	.loc 1 220 66
	xor	s9,s4,s5
	.loc 1 220 51
	and	s1,s10,s9
	.loc 1 220 36
	xor	s1,s1,s4
	.loc 1 220 20
	add	s3,s11,s3
	add	s3,s1,s3
	.loc 1 220 155
	srli	s1,s3,12
	slli	s3,s3,20
	or	s3,s1,s3
	.loc 1 226 20
	li	s1,-376832
	addi	s1,s1,-1726
	.loc 1 220 210
	add	s3,s3,s5
	.loc 1 226 20
	add	s1,t0,s1
	.loc 1 226 50
	xor	s9,s9,s3
	.loc 1 226 20
	add	s1,s1,s10
	add	s1,s1,s9
	.loc 1 226 135
	slli	s9,s1,4
	.loc 1 227 20
	li	s10,-2022576128
	.loc 1 226 135
	srli	s1,s1,28
	or	s1,s9,s1
	.loc 1 227 20
	addi	s10,s10,1665
	.loc 1 226 189
	add	s1,s1,s3
	.loc 1 227 50
	xor	s9,s5,s3
	.loc 1 227 20
	add	s10,t1,s10
	.loc 1 227 50
	xor	s9,s9,s1
	.loc 1 227 20
	add	s4,s10,s4
	add	s4,s9,s4
	.loc 1 227 136
	slli	s9,s4,11
	.loc 1 228 20
	li	s10,1839030272
	.loc 1 227 136
	srli	s4,s4,21
	or	s4,s9,s4
	.loc 1 228 20
	addi	s10,s10,290
	.loc 1 227 191
	add	s4,s4,s1
	.loc 1 228 50
	xor	s9,s3,s1
	.loc 1 228 20
	add	s10,a3,s10
	.loc 1 228 50
	xor	s9,s9,s4
	.loc 1 228 20
	add	s5,s10,s5
	add	s5,s9,s5
	.loc 1 228 137
	slli	s9,s5,16
	srli	s5,s5,16
	or	s5,s9,s5
	.loc 1 228 192
	add	s9,s5,s4
	.loc 1 229 20
	li	s5,-35307520
	addi	s5,s5,-2036
	.loc 1 229 50
	xor	s10,s1,s4
	.loc 1 229 20
	add	s5,t2,s5
	.loc 1 229 50
	xor	s10,s10,s9
	.loc 1 229 20
	add	s3,s5,s3
	add	s3,s10,s3
	.loc 1 229 137
	srli	s10,s3,9
	slli	s3,s3,23
	or	s3,s10,s3
	.loc 1 229 192
	add	s10,s3,s9
	.loc 1 230 20
	li	s3,-1530990592
	addi	s3,s3,-1468
	.loc 1 230 50
	xor	s5,s4,s9
	.loc 1 230 20
	add	s3,t3,s3
	.loc 1 230 50
	xor	s5,s5,s10
	.loc 1 230 20
	add	s1,s3,s1
	add	s1,s5,s1
	.loc 1 230 135
	slli	s5,s1,4
	.loc 1 231 20
	li	s3,1272893440
	.loc 1 230 135
	srli	s1,s1,28
	or	s1,s5,s1
	.loc 1 231 20
	addi	s3,s3,-87
	.loc 1 230 189
	add	s5,s1,s10
	.loc 1 231 20
	add	s3,a2,s3
	.loc 1 231 50
	xor	s1,s9,s10
	xor	s1,s1,s5
	.loc 1 231 20
	add	s4,s3,s4
	add	s4,s1,s4
	.loc 1 231 136
	slli	s1,s4,11
	.loc 1 232 20
	li	s3,-155496448
	.loc 1 231 136
	srli	s4,s4,21
	or	s4,s1,s4
	.loc 1 232 20
	addi	s3,s3,-1184
	.loc 1 231 191
	add	s4,s4,s5
	.loc 1 232 50
	xor	s1,s10,s5
	.loc 1 232 20
	add	s3,ra,s3
	.loc 1 232 50
	xor	s1,s1,s4
	.loc 1 232 20
	add	s9,s3,s9
	add	s9,s1,s9
	.loc 1 232 136
	slli	s1,s9,16
	srli	s9,s9,16
	or	s9,s1,s9
	.loc 1 233 20
	li	s1,-1094729728
	addi	s1,s1,-912
	.loc 1 232 191
	add	s9,s9,s4
	.loc 1 233 50
	xor	s3,s5,s4
	.loc 1 233 20
	add	s1,t4,s1
	.loc 1 233 50
	xor	s3,s3,s9
	.loc 1 233 20
	add	s10,s1,s10
	add	s10,s3,s10
	.loc 1 233 137
	srli	s3,s10,9
	slli	s10,s10,23
	or	s10,s3,s10
	.loc 1 233 192
	add	s3,s10,s9
	.loc 1 234 20
	li	s10,681279488
	addi	s10,s10,-314
	.loc 1 234 50
	xor	s1,s4,s9
	.loc 1 234 20
	add	s10,a6,s10
	.loc 1 234 50
	xor	s1,s1,s3
	.loc 1 234 20
	add	s5,s10,s5
	add	s5,s1,s5
	.loc 1 234 136
	slli	s1,s5,4
	.loc 1 235 20
	li	s10,-358539264
	.loc 1 234 136
	srli	s5,s5,28
	or	s5,s1,s5
	.loc 1 235 20
	addi	s10,s10,2042
	.loc 1 234 190
	add	s1,s5,s3
	.loc 1 235 20
	add	s10,s0,s10
	.loc 1 235 50
	xor	s5,s9,s3
	xor	s5,s5,s1
	.loc 1 235 20
	add	s4,s10,s4
	add	s4,s5,s4
	.loc 1 235 136
	slli	s5,s4,11
	.loc 1 236 20
	li	s10,-722522112
	.loc 1 235 136
	srli	s4,s4,21
	or	s4,s5,s4
	.loc 1 236 20
	addi	s10,s10,133
	.loc 1 235 191
	add	s5,s4,s1
	.loc 1 236 20
	add	s10,t5,s10
	.loc 1 236 50
	xor	s4,s3,s1
	xor	s4,s4,s5
	.loc 1 236 20
	add	s9,s10,s9
	add	s9,s4,s9
	.loc 1 236 136
	slli	s4,s9,16
	.loc 1 237 20
	li	s10,76029952
	.loc 1 236 136
	srli	s9,s9,16
	or	s9,s4,s9
	.loc 1 237 20
	addi	s10,s10,-763
	.loc 1 236 191
	add	s4,s9,s5
	.loc 1 237 20
	add	s10,a7,s10
	.loc 1 237 50
	xor	s9,s1,s5
	xor	s9,s9,s4
	.loc 1 237 20
	add	s3,s10,s3
	add	s3,s9,s3
	.loc 1 237 136
	srli	s9,s3,9
	.loc 1 238 20
	li	s10,-640364544
	.loc 1 237 136
	slli	s3,s3,23
	or	s3,s9,s3
	.loc 1 238 20
	addi	s10,s10,57
	.loc 1 237 191
	add	s9,s3,s4
	.loc 1 238 20
	add	s10,a5,s10
	.loc 1 238 50
	xor	s3,s5,s4
	xor	s3,s3,s9
	.loc 1 238 20
	add	s1,s10,s1
	add	s1,s3,s1
	.loc 1 238 135
	slli	s3,s1,4
	.loc 1 239 20
	li	s10,-421814272
	.loc 1 238 135
	srli	s1,s1,28
	or	s1,s3,s1
	.loc 1 239 20
	addi	s10,s10,-1563
	.loc 1 238 189
	add	s3,s1,s9
	.loc 1 239 20
	add	s10,t6,s10
	.loc 1 239 50
	xor	s1,s4,s9
	xor	s1,s1,s3
	.loc 1 239 20
	add	s5,s10,s5
	add	s5,s1,s5
	.loc 1 239 137
	slli	s1,s5,11
	.loc 1 240 20
	li	s10,530743296
	.loc 1 239 137
	srli	s5,s5,21
	or	s5,s1,s5
	.loc 1 240 20
	addi	s10,s10,-776
	.loc 1 239 192
	add	s1,s5,s3
	.loc 1 240 20
	add	s10,a1,s10
	.loc 1 240 50
	xor	s5,s9,s3
	xor	s5,s5,s1
	.loc 1 240 20
	add	s4,s10,s4
	add	s4,s5,s4
	.loc 1 240 137
	slli	s5,s4,16
	.loc 1 241 20
	li	s10,-995340288
	.loc 1 240 137
	srli	s4,s4,16
	or	s4,s5,s4
	.loc 1 241 20
	addi	s10,s10,1637
	.loc 1 240 192
	add	s5,s4,s1
	.loc 1 241 20
	add	s10,a4,s10
	.loc 1 241 50
	xor	s4,s3,s1
	xor	s4,s4,s5
	.loc 1 241 20
	add	s9,s10,s9
	add	s9,s4,s9
	.loc 1 241 136
	srli	s4,s9,9
	slli	s9,s9,23
	or	s9,s4,s9
	.loc 1 247 20
	li	s10,-198631424
	.loc 1 241 191
	add	s4,s9,s5
	.loc 1 247 20
	addi	s10,s10,580
	.loc 1 247 53
	not	s9,s1
	.loc 1 247 51
	or	s9,s9,s4
	.loc 1 247 20
	add	s0,s0,s10
	.loc 1 247 36
	xor	s9,s9,s5
	.loc 1 247 20
	add	s0,s0,s3
	add	s0,s9,s0
	.loc 1 247 138
	slli	s3,s0,6
	srli	s0,s0,26
	or	s0,s3,s0
	.loc 1 248 20
	li	s9,1126891520
	.loc 1 247 192
	add	s3,s0,s4
	.loc 1 248 20
	addi	s9,s9,-105
	.loc 1 248 53
	not	s0,s5
	.loc 1 248 51
	or	s0,s0,s3
	.loc 1 248 20
	add	ra,ra,s9
	.loc 1 248 36
	xor	s0,s0,s4
	.loc 1 248 20
	add	ra,ra,s1
	add	ra,s0,ra
	.loc 1 248 139
	slli	s1,ra,10
	srli	ra,ra,22
	or	ra,s1,ra
	.loc 1 248 194
	add	s1,ra,s3
	.loc 1 249 20
	li	ra,-1416355840
	.loc 1 249 53
	not	s0,s4
	.loc 1 249 20
	addi	ra,ra,935
	.loc 1 249 51
	or	s0,s0,s1
	.loc 1 249 20
	add	t2,t2,ra
	.loc 1 249 36
	xor	s0,s0,s3
	.loc 1 249 20
	add	t2,t2,s5
	add	t2,s0,t2
	.loc 1 249 140
	slli	s0,t2,15
	srli	t2,t2,17
	or	t2,s0,t2
	.loc 1 249 195
	add	s0,t2,s1
	.loc 1 250 20
	li	t2,-57434112
	.loc 1 250 53
	not	ra,s3
	.loc 1 250 20
	addi	t2,t2,57
	.loc 1 250 51
	or	ra,ra,s0
	.loc 1 250 20
	add	t0,t0,t2
	.loc 1 250 36
	xor	ra,ra,s1
	.loc 1 250 20
	add	t0,t0,s4
	add	t0,ra,t0
	.loc 1 250 139
	srli	ra,t0,11
	slli	t0,t0,21
	or	t0,ra,t0
	.loc 1 250 194
	add	ra,t0,s0
	.loc 1 251 20
	li	t0,1700487168
	.loc 1 251 53
	not	t2,s1
	.loc 1 251 20
	addi	t0,t0,-1597
	.loc 1 251 51
	or	t2,t2,ra
	.loc 1 251 20
	add	t6,t6,t0
	.loc 1 251 36
	xor	t2,t2,s0
	.loc 1 251 20
	add	t6,t6,s3
	add	t6,t2,t6
	.loc 1 251 139
	slli	t2,t6,6
	srli	t6,t6,26
	or	t6,t2,t6
	.loc 1 251 193
	add	t2,t6,ra
	.loc 1 252 20
	li	t6,-1894985728
	.loc 1 252 53
	not	t0,s0
	.loc 1 252 20
	addi	t6,t6,-878
	.loc 1 252 51
	or	t0,t0,t2
	.loc 1 252 20
	add	t5,t5,t6
	.loc 1 252 36
	xor	t0,t0,ra
	.loc 1 252 20
	add	t5,t5,s1
	add	t5,t0,t5
	.loc 1 252 139
	slli	t0,t5,10
	srli	t5,t5,22
	or	t5,t0,t5
	.loc 1 252 194
	add	t0,t5,t2
	.loc 1 253 20
	li	t5,-1052672
	.loc 1 253 53
	not	t6,ra
	.loc 1 253 20
	addi	t5,t5,1149
	.loc 1 253 51
	or	t6,t6,t0
	.loc 1 253 20
	add	t4,t4,t5
	.loc 1 253 36
	xor	t6,t6,t2
	.loc 1 253 20
	add	t4,t4,s0
	add	t4,t6,t4
	.loc 1 253 140
	slli	t6,t4,15
	srli	t4,t4,17
	or	t4,t6,t4
	.loc 1 253 195
	add	t6,t4,t0
	.loc 1 254 20
	li	t4,-2054922240
	.loc 1 254 53
	not	t5,t2
	.loc 1 254 20
	addi	t4,t4,-559
	.loc 1 254 51
	or	t5,t5,t6
	.loc 1 254 20
	add	t3,t3,t4
	.loc 1 254 36
	xor	t5,t5,t0
	.loc 1 254 20
	add	t3,t3,ra
	add	t3,t5,t3
	.loc 1 254 139
	srli	t5,t3,11
	slli	t3,t3,21
	or	t3,t5,t3
	.loc 1 254 194
	add	t5,t3,t6
	.loc 1 255 20
	li	t3,1873313792
	.loc 1 255 53
	not	t4,t0
	.loc 1 255 20
	addi	t3,t3,-433
	.loc 1 255 51
	or	t4,t4,t5
	.loc 1 255 20
	add	t1,t1,t3
	.loc 1 255 36
	xor	t4,t4,t6
	.loc 1 255 20
	add	t1,t1,t2
	add	t1,t4,t1
	.loc 1 255 138
	slli	t4,t1,6
	srli	t1,t1,26
	or	t1,t4,t1
	.loc 1 255 192
	add	t4,t1,t5
	.loc 1 256 20
	li	t1,-30613504
	.loc 1 256 53
	not	t3,t6
	.loc 1 256 20
	addi	t1,t1,1760
	.loc 1 165 21
	sw	a1,60(sp)
	.loc 1 165 173 is_stmt 1
	.loc 1 177 5
	.loc 1 178 5
	.loc 1 179 5
	.loc 1 180 5
	.loc 1 184 5
	.loc 1 184 10
	.loc 1 184 114
	.loc 1 184 227
	.loc 1 185 5
	.loc 1 185 10
	.loc 1 185 114
	.loc 1 185 229
	.loc 1 186 5
	.loc 1 186 10
	.loc 1 186 114
	.loc 1 186 229
	.loc 1 187 5
	.loc 1 187 10
	.loc 1 187 114
	.loc 1 187 229
	.loc 1 188 5
	.loc 1 188 10
	.loc 1 188 114
	.loc 1 188 227
	.loc 1 189 5
	.loc 1 189 10
	.loc 1 189 114
	.loc 1 189 229
	.loc 1 190 5
	.loc 1 190 10
	.loc 1 190 114
	.loc 1 190 229
	.loc 1 191 5
	.loc 1 191 10
	.loc 1 191 114
	.loc 1 191 229
	.loc 1 192 5
	.loc 1 192 10
	.loc 1 192 114
	.loc 1 192 227
	.loc 1 193 5
	.loc 1 193 10
	.loc 1 193 114
	.loc 1 193 229
	.loc 1 194 5
	.loc 1 194 10
	.loc 1 194 115
	.loc 1 194 230
	.loc 1 195 5
	.loc 1 195 10
	.loc 1 195 115
	.loc 1 195 230
	.loc 1 196 5
	.loc 1 196 10
	.loc 1 196 115
	.loc 1 196 228
	.loc 1 197 5
	.loc 1 197 10
	.loc 1 197 115
	.loc 1 197 230
	.loc 1 198 5
	.loc 1 198 10
	.loc 1 198 115
	.loc 1 198 230
	.loc 1 199 5
	.loc 1 199 10
	.loc 1 199 115
	.loc 1 199 230
	.loc 1 205 5
	.loc 1 205 10
	.loc 1 205 114
	.loc 1 205 227
	.loc 1 206 5
	.loc 1 206 10
	.loc 1 206 114
	.loc 1 206 227
	.loc 1 207 5
	.loc 1 207 10
	.loc 1 207 115
	.loc 1 207 230
	.loc 1 208 5
	.loc 1 208 10
	.loc 1 208 114
	.loc 1 208 229
	.loc 1 209 5
	.loc 1 209 10
	.loc 1 209 114
	.loc 1 209 227
	.loc 1 210 5
	.loc 1 210 10
	.loc 1 210 115
	.loc 1 210 228
	.loc 1 211 5
	.loc 1 211 10
	.loc 1 211 115
	.loc 1 211 230
	.loc 1 212 5
	.loc 1 212 10
	.loc 1 212 114
	.loc 1 212 229
	.loc 1 213 5
	.loc 1 213 10
	.loc 1 213 114
	.loc 1 213 227
	.loc 1 214 5
	.loc 1 214 10
	.loc 1 214 115
	.loc 1 214 228
	.loc 1 215 5
	.loc 1 215 10
	.loc 1 215 114
	.loc 1 215 229
	.loc 1 216 5
	.loc 1 216 10
	.loc 1 216 114
	.loc 1 216 229
	.loc 1 217 5
	.loc 1 217 10
	.loc 1 217 115
	.loc 1 217 228
	.loc 1 218 5
	.loc 1 218 10
	.loc 1 218 114
	.loc 1 218 227
	.loc 1 219 5
	.loc 1 219 10
	.loc 1 219 114
	.loc 1 219 229
	.loc 1 220 5
	.loc 1 220 10
	.loc 1 220 115
	.loc 1 220 230
	.loc 1 226 5
	.loc 1 226 10
	.loc 1 226 96
	.loc 1 226 209
	.loc 1 227 5
	.loc 1 227 10
	.loc 1 227 96
	.loc 1 227 211
	.loc 1 228 5
	.loc 1 228 10
	.loc 1 228 97
	.loc 1 228 212
	.loc 1 229 5
	.loc 1 229 10
	.loc 1 229 97
	.loc 1 229 212
	.loc 1 230 5
	.loc 1 230 10
	.loc 1 230 96
	.loc 1 230 209
	.loc 1 231 5
	.loc 1 231 10
	.loc 1 231 96
	.loc 1 231 211
	.loc 1 232 5
	.loc 1 232 10
	.loc 1 232 96
	.loc 1 232 211
	.loc 1 233 5
	.loc 1 233 10
	.loc 1 233 97
	.loc 1 233 212
	.loc 1 234 5
	.loc 1 234 10
	.loc 1 234 97
	.loc 1 234 210
	.loc 1 235 5
	.loc 1 235 10
	.loc 1 235 96
	.loc 1 235 211
	.loc 1 236 5
	.loc 1 236 10
	.loc 1 236 96
	.loc 1 236 211
	.loc 1 237 5
	.loc 1 237 10
	.loc 1 237 96
	.loc 1 237 211
	.loc 1 238 5
	.loc 1 238 10
	.loc 1 238 96
	.loc 1 238 209
	.loc 1 239 5
	.loc 1 239 10
	.loc 1 239 97
	.loc 1 239 212
	.loc 1 240 5
	.loc 1 240 10
	.loc 1 240 97
	.loc 1 240 212
	.loc 1 241 5
	.loc 1 241 10
	.loc 1 241 96
	.loc 1 241 211
	.loc 1 247 5
	.loc 1 247 10
	.loc 1 247 99
	.loc 1 247 212
	.loc 1 248 5
	.loc 1 248 10
	.loc 1 248 99
	.loc 1 248 214
	.loc 1 249 5
	.loc 1 249 10
	.loc 1 249 100
	.loc 1 249 215
	.loc 1 250 5
	.loc 1 250 10
	.loc 1 250 99
	.loc 1 250 214
	.loc 1 251 5
	.loc 1 251 10
	.loc 1 251 100
	.loc 1 251 213
	.loc 1 252 5
	.loc 1 252 10
	.loc 1 252 99
	.loc 1 252 214
	.loc 1 253 5
	.loc 1 253 10
	.loc 1 253 100
	.loc 1 253 215
	.loc 1 254 5
	.loc 1 254 10
	.loc 1 254 99
	.loc 1 254 214
	.loc 1 255 5
	.loc 1 255 10
	.loc 1 255 99
	.loc 1 255 212
	.loc 1 256 5
	.loc 1 256 10
	.loc 1 256 100
	.loc 1 256 51 is_stmt 0
	or	t3,t3,t4
	.loc 1 256 20
	add	a1,a1,t1
	.loc 1 256 36
	xor	t3,t3,t5
	.loc 1 256 20
	add	a1,a1,t0
	add	a1,t3,a1
	.loc 1 256 140
	slli	t3,a1,10
	srli	a1,a1,22
	or	a1,t3,a1
	.loc 1 256 195
	add	t3,a1,t4
	.loc 1 256 215 is_stmt 1
	.loc 1 257 5
	.loc 1 257 10
	.loc 1 257 99
	.loc 1 257 20 is_stmt 0
	li	a1,-1560199168
	.loc 1 257 53
	not	t1,t5
	.loc 1 257 20
	addi	a1,a1,788
	.loc 1 257 51
	or	t1,t1,t3
	.loc 1 257 20
	add	a7,a7,a1
	.loc 1 257 36
	xor	t1,t1,t4
	.loc 1 257 20
	add	a7,a7,t6
	add	a7,t1,a7
	.loc 1 257 139
	slli	t1,a7,15
	srli	a7,a7,17
	or	a7,t1,a7
	.loc 1 258 20
	li	a1,1309151232
	.loc 1 257 194
	add	t1,a7,t3
	.loc 1 257 214 is_stmt 1
	.loc 1 258 5
	.loc 1 258 10
	.loc 1 258 100
	.loc 1 258 20 is_stmt 0
	addi	a1,a1,417
	.loc 1 258 53
	not	a7,t4
	.loc 1 258 20
	add	a6,a6,a1
	.loc 1 258 51
	or	a7,a7,t1
	.loc 1 258 20
	add	t5,a6,t5
	.loc 1 258 36
	xor	a7,a7,t3
	.loc 1 258 20
	add	a7,a7,t5
	.loc 1 258 140
	srli	a6,a7,11
	slli	a7,a7,21
	or	a7,a6,a7
	.loc 1 258 195
	add	a6,a7,t1
	.loc 1 258 215 is_stmt 1
	.loc 1 259 5
	.loc 1 259 10
	.loc 1 259 99
	.loc 1 259 20 is_stmt 0
	li	a7,-145522688
	.loc 1 259 53
	not	a1,t3
	.loc 1 259 20
	addi	a7,a7,-382
	add	a2,a2,a7
	.loc 1 259 51
	or	a1,a1,a6
	.loc 1 259 20
	add	t4,a2,t4
	.loc 1 259 36
	xor	a1,a1,t1
	.loc 1 259 20
	add	a1,a1,t4
	.loc 1 259 138
	slli	a2,a1,6
	srli	a1,a1,26
	or	a1,a2,a1
	.loc 1 260 20
	li	a7,-1120210944
	.loc 1 259 192
	add	a2,a1,a6
	.loc 1 260 20
	addi	a7,a7,565
	.loc 1 260 53
	not	a1,t1
	.loc 1 260 51
	or	a1,a1,a2
	.loc 1 260 20
	add	a3,a3,a7
	.loc 1 260 36
	xor	a1,a1,a6
	.loc 1 260 20
	add	a3,a3,t3
	add	a3,a1,a3
	.loc 1 260 140
	slli	a1,a3,10
	srli	a3,a3,22
	or	a3,a1,a3
	.loc 1 261 20
	li	a7,718786560
	.loc 1 260 195
	add	a1,a3,a2
	.loc 1 261 20
	addi	a7,a7,699
	.loc 1 261 53
	not	a3,a6
	.loc 1 261 51
	or	a3,a3,a1
	.loc 1 261 20
	add	a4,a4,a7
	.loc 1 261 36
	xor	a3,a3,a2
	.loc 1 261 20
	add	a4,a4,t1
	add	a4,a3,a4
	.loc 1 261 139
	slli	a3,a4,15
	srli	a4,a4,17
	or	a4,a3,a4
	.loc 1 262 20
	li	a7,-343486464
	.loc 1 261 194
	add	a3,a4,a1
	.loc 1 262 20
	addi	a7,a7,913
	.loc 1 262 53
	not	a4,a2
	.loc 1 262 51
	or	a4,a4,a3
	.loc 1 262 20
	add	a5,a5,a7
	.loc 1 262 36
	xor	a4,a4,a1
	.loc 1 262 20
	add	a5,a5,a6
	add	a5,a4,a5
	.loc 1 262 139
	srli	a4,a5,11
	slli	a5,a5,21
	or	a5,a4,a5
	.loc 1 262 194
	add	a5,a5,a3
	.loc 1 259 109
	sw	a2,64(sp)
	.loc 1 259 212 is_stmt 1
	.loc 1 260 5
	.loc 1 260 10
	.loc 1 260 100
	.loc 1 267 19 is_stmt 0
	add	s2,s2,a5
	.loc 1 260 110
	sw	a1,76(sp)
	.loc 1 260 215 is_stmt 1
	.loc 1 261 5
	.loc 1 261 10
	.loc 1 261 99
	.loc 1 261 109 is_stmt 0
	sw	a3,72(sp)
	.loc 1 261 214 is_stmt 1
	.loc 1 262 5
	.loc 1 262 10
	.loc 1 262 99
	.loc 1 266 19 is_stmt 0
	add	a2,s8,a2
	.loc 1 268 19
	add	a3,s6,a3
	.loc 1 269 19
	add	a1,s7,a1
	.loc 1 267 19
	sw	s2,12(a0)
	.loc 1 269 19
	sw	a1,20(a0)
	.loc 1 266 19
	sw	a2,8(a0)
	.loc 1 268 19
	sw	a3,16(a0)
	.loc 1 272 5
	li	a1,80
	mv	a0,sp
.LVL12:
	.loc 1 262 109
	sw	a5,68(sp)
	.loc 1 262 214 is_stmt 1
	.loc 1 266 5
	.loc 1 267 5
	.loc 1 268 5
	.loc 1 269 5
	.loc 1 272 5
	call	mbedtls_platform_zeroize
.LVL13:
	.loc 1 274 5
	.loc 1 275 1 is_stmt 0
	lw	ra,140(sp)
	.cfi_restore 1
	lw	s0,136(sp)
	.cfi_restore 8
	lw	s1,132(sp)
	.cfi_restore 9
	lw	s2,128(sp)
	.cfi_restore 18
	lw	s3,124(sp)
	.cfi_restore 19
	lw	s4,120(sp)
	.cfi_restore 20
	lw	s5,116(sp)
	.cfi_restore 21
	lw	s6,112(sp)
	.cfi_restore 22
	lw	s7,108(sp)
	.cfi_restore 23
	lw	s8,104(sp)
	.cfi_restore 24
	lw	s9,100(sp)
	.cfi_restore 25
	lw	s10,96(sp)
	.cfi_restore 26
	lw	s11,92(sp)
	.cfi_restore 27
	li	a0,0
	addi	sp,sp,144
	.cfi_def_cfa_offset 0
	jr	ra
	.cfi_endproc
.LFE6:
	.size	mbedtls_internal_md5_process, .-mbedtls_internal_md5_process
	.section	.text.mbedtls_md5_process,"ax",@progbits
	.align	1
	.globl	mbedtls_md5_process
	.type	mbedtls_md5_process, @function
mbedtls_md5_process:
.LFB7:
	.loc 1 280 1 is_stmt 1
	.cfi_startproc
.LVL14:
	.loc 1 281 5
	tail	mbedtls_internal_md5_process
.LVL15:
	.cfi_endproc
.LFE7:
	.size	mbedtls_md5_process, .-mbedtls_md5_process
	.section	.text.mbedtls_md5_update_ret,"ax",@progbits
	.align	1
	.globl	mbedtls_md5_update_ret
	.type	mbedtls_md5_update_ret, @function
mbedtls_md5_update_ret:
.LFB8:
	.loc 1 292 1
	.cfi_startproc
.LVL16:
	.loc 1 293 5
	.loc 1 294 5
	.loc 1 295 5
	.loc 1 297 5
	.loc 1 297 7 is_stmt 0
	bne	a2,zero,.L12
	.loc 1 298 15
	li	a0,0
.LVL17:
	.loc 1 335 1
	ret
.LVL18:
.L12:
	.loc 1 292 1
	addi	sp,sp,-32
	.cfi_def_cfa_offset 32
	sw	s0,24(sp)
	sw	s1,20(sp)
	sw	s2,16(sp)
	sw	s3,12(sp)
	sw	ra,28(sp)
	sw	s4,8(sp)
	sw	s5,4(sp)
	.cfi_offset 8, -8
	.cfi_offset 9, -12
	.cfi_offset 18, -16
	.cfi_offset 19, -20
	.cfi_offset 1, -4
	.cfi_offset 20, -24
	.cfi_offset 21, -28
.LBB6:
.LBB7:
	.loc 1 300 22
	lw	a5,0(a0)
	mv	s1,a0
	mv	s2,a1
	.loc 1 300 10
	andi	s3,a5,63
	.loc 1 303 19
	add	a5,a2,a5
	sw	a5,0(a0)
	mv	s0,a2
.LVL19:
	.loc 1 300 5 is_stmt 1
	.loc 1 301 5
	.loc 1 303 5
	.loc 1 304 5
	.loc 1 306 5
	.loc 1 306 7 is_stmt 0
	bleu	a2,a5,.L14
.LVL20:
	.loc 1 307 9 is_stmt 1
	.loc 1 307 22 is_stmt 0
	lw	a5,4(a0)
	addi	a5,a5,1
	sw	a5,4(a0)
.L14:
	.loc 1 309 5 is_stmt 1
	.loc 1 309 7 is_stmt 0
	beq	s3,zero,.L15
	.loc 1 301 10
	li	s4,64
	sub	s4,s4,s3
	.loc 1 309 14
	bltu	s0,s4,.L15
	.loc 1 311 9 is_stmt 1
	.loc 1 311 27 is_stmt 0
	addi	s5,s1,24
	.loc 1 311 9
	mv	a1,s2
.LVL21:
	mv	a2,s4
	add	a0,s5,s3
	call	memcpy
.LVL22:
	.loc 1 312 9 is_stmt 1
	.loc 1 312 21 is_stmt 0
	mv	a1,s5
	mv	a0,s1
	call	mbedtls_internal_md5_process
.LVL23:
	.loc 1 312 11
	bne	a0,zero,.L11
	.loc 1 315 9 is_stmt 1
.LVL24:
	.loc 1 316 14 is_stmt 0
	add	s0,s0,s3
.LVL25:
	.loc 1 315 15
	add	s2,s2,s4
.LVL26:
	.loc 1 316 9 is_stmt 1
	.loc 1 316 14 is_stmt 0
	addi	s0,s0,-64
.LVL27:
	.loc 1 317 9 is_stmt 1
	.loc 1 317 14 is_stmt 0
	li	s3,0
.LVL28:
.L15:
	add	s2,s2,s0
.LVL29:
	.loc 1 320 10
	li	s4,63
	j	.L16
.LVL30:
.L17:
	.loc 1 322 9 is_stmt 1
	.loc 1 322 21 is_stmt 0
	mv	a0,s1
	call	mbedtls_internal_md5_process
.LVL31:
	.loc 1 322 11
	bne	a0,zero,.L11
	.loc 1 325 9 is_stmt 1
.LVL32:
	.loc 1 326 9
	.loc 1 326 14 is_stmt 0
	addi	s0,s0,-64
.LVL33:
.L16:
	sub	a1,s2,s0
.LVL34:
	.loc 1 320 10 is_stmt 1
	bgtu	s0,s4,.L17
	.loc 1 329 5
	.loc 1 329 7 is_stmt 0
	beq	s0,zero,.L28
	.loc 1 331 9 is_stmt 1
	.loc 1 331 27 is_stmt 0
	addi	a0,s1,24
	.loc 1 331 9
	mv	a2,s0
	add	a0,a0,s3
	call	memcpy
.LVL35:
.L28:
	.loc 1 334 11
	li	a0,0
.LVL36:
.L11:
.LBE7:
.LBE6:
	.loc 1 335 1
	lw	ra,28(sp)
	.cfi_restore 1
	lw	s0,24(sp)
	.cfi_restore 8
	lw	s1,20(sp)
	.cfi_restore 9
.LVL37:
	lw	s2,16(sp)
	.cfi_restore 18
	lw	s3,12(sp)
	.cfi_restore 19
	lw	s4,8(sp)
	.cfi_restore 20
	lw	s5,4(sp)
	.cfi_restore 21
	addi	sp,sp,32
	.cfi_def_cfa_offset 0
	jr	ra
	.cfi_endproc
.LFE8:
	.size	mbedtls_md5_update_ret, .-mbedtls_md5_update_ret
	.section	.text.mbedtls_md5_update,"ax",@progbits
	.align	1
	.globl	mbedtls_md5_update
	.type	mbedtls_md5_update, @function
mbedtls_md5_update:
.LFB9:
	.loc 1 341 1 is_stmt 1
	.cfi_startproc
.LVL38:
	.loc 1 342 5
	tail	mbedtls_md5_update_ret
.LVL39:
	.cfi_endproc
.LFE9:
	.size	mbedtls_md5_update, .-mbedtls_md5_update
	.section	.text.mbedtls_md5_finish_ret,"ax",@progbits
	.align	1
	.globl	mbedtls_md5_finish_ret
	.type	mbedtls_md5_finish_ret, @function
mbedtls_md5_finish_ret:
.LFB10:
	.loc 1 351 1
	.cfi_startproc
.LVL40:
	.loc 1 352 5
	.loc 1 353 5
	.loc 1 354 5
	.loc 1 359 5
	.loc 1 351 1 is_stmt 0
	addi	sp,sp,-16
	.cfi_def_cfa_offset 16
	sw	s0,8(sp)
	sw	s1,4(sp)
	sw	s2,0(sp)
	sw	ra,12(sp)
	.cfi_offset 8, -8
	.cfi_offset 9, -12
	.cfi_offset 18, -16
	.cfi_offset 1, -4
	.loc 1 359 10
	lw	a5,0(a0)
	.loc 1 361 25
	li	a3,-128
	.loc 1 366 17
	addi	s2,a0,24
	.loc 1 359 10
	andi	a5,a5,63
.LVL41:
	.loc 1 361 5 is_stmt 1
	.loc 1 361 21 is_stmt 0
	addi	a4,a5,1
.LVL42:
	.loc 1 361 25
	add	a5,a0,a5
	sb	a3,24(a5)
	.loc 1 363 5 is_stmt 1
	.loc 1 363 7 is_stmt 0
	li	a2,56
	.loc 1 351 1
	mv	s0,a0
	mv	s1,a1
	.loc 1 366 9
	add	a0,s2,a4
.LVL43:
	.loc 1 363 7
	bgtu	a4,a2,.L31
	.loc 1 366 9 is_stmt 1
	sub	a2,a2,a4
	li	a1,0
.LVL44:
.L35:
	.loc 1 376 9 is_stmt 0
	call	memset
.LVL45:
	.loc 1 382 5 is_stmt 1
	.loc 1 382 24 is_stmt 0
	lw	a4,0(s0)
	.loc 1 383 28
	lw	a5,4(s0)
	.loc 1 389 17
	mv	a1,s2
	.loc 1 382 28
	srli	a3,a4,29
	.loc 1 383 28
	slli	a5,a5,3
	.loc 1 382 10
	or	a5,a5,a3
.LVL46:
	.loc 1 384 5 is_stmt 1
	.loc 1 386 7
	.loc 1 386 68
	.loc 1 386 137
	.loc 1 386 207
	.loc 1 384 9 is_stmt 0
	slli	a4,a4,3
.LVL47:
	.loc 1 386 28
	sw	a4,80(s0)
	.loc 1 386 278 is_stmt 1
	.loc 1 387 7
	.loc 1 387 69
	.loc 1 387 139
	.loc 1 387 210
	.loc 1 387 28 is_stmt 0
	sw	a5,84(s0)
	.loc 1 387 282 is_stmt 1
	.loc 1 389 5
	.loc 1 389 17 is_stmt 0
	mv	a0,s0
	call	mbedtls_internal_md5_process
.LVL48:
	.loc 1 389 7
	bne	a0,zero,.L30
	.loc 1 395 7 is_stmt 1
	.loc 1 395 24 is_stmt 0
	lw	a5,8(s0)
	sb	a5,0(s1)
	.loc 1 395 72 is_stmt 1
	.loc 1 395 128 is_stmt 0
	lw	a5,8(s0)
	srli	a5,a5,8
	.loc 1 395 92
	sb	a5,1(s1)
	.loc 1 395 145 is_stmt 1
	.loc 1 395 201 is_stmt 0
	lhu	a5,10(s0)
	.loc 1 395 165
	sb	a5,2(s1)
	.loc 1 395 219 is_stmt 1
	.loc 1 395 275 is_stmt 0
	lbu	a5,11(s0)
	.loc 1 395 239
	sb	a5,3(s1)
	.loc 1 395 294 is_stmt 1
	.loc 1 396 7
	.loc 1 396 24 is_stmt 0
	lw	a5,12(s0)
	sb	a5,4(s1)
	.loc 1 396 72 is_stmt 1
	.loc 1 396 128 is_stmt 0
	lw	a5,12(s0)
	srli	a5,a5,8
	.loc 1 396 92
	sb	a5,5(s1)
	.loc 1 396 145 is_stmt 1
	.loc 1 396 201 is_stmt 0
	lhu	a5,14(s0)
	.loc 1 396 165
	sb	a5,6(s1)
	.loc 1 396 219 is_stmt 1
	.loc 1 396 275 is_stmt 0
	lbu	a5,15(s0)
	.loc 1 396 239
	sb	a5,7(s1)
	.loc 1 396 294 is_stmt 1
	.loc 1 397 7
	.loc 1 397 24 is_stmt 0
	lw	a5,16(s0)
	sb	a5,8(s1)
	.loc 1 397 72 is_stmt 1
	.loc 1 397 128 is_stmt 0
	lw	a5,16(s0)
	srli	a5,a5,8
	.loc 1 397 92
	sb	a5,9(s1)
	.loc 1 397 145 is_stmt 1
	.loc 1 397 201 is_stmt 0
	lhu	a5,18(s0)
	.loc 1 397 165
	sb	a5,10(s1)
	.loc 1 397 219 is_stmt 1
	.loc 1 397 275 is_stmt 0
	lbu	a5,19(s0)
	.loc 1 397 239
	sb	a5,11(s1)
	.loc 1 397 294 is_stmt 1
	.loc 1 398 7
	.loc 1 398 25 is_stmt 0
	lw	a5,20(s0)
	sb	a5,12(s1)
	.loc 1 398 73 is_stmt 1
	.loc 1 398 130 is_stmt 0
	lw	a5,20(s0)
	srli	a5,a5,8
	.loc 1 398 94
	sb	a5,13(s1)
	.loc 1 398 147 is_stmt 1
	.loc 1 398 204 is_stmt 0
	lhu	a5,22(s0)
	.loc 1 398 168
	sb	a5,14(s1)
	.loc 1 398 222 is_stmt 1
	.loc 1 398 279 is_stmt 0
	lbu	a5,23(s0)
	.loc 1 398 243
	sb	a5,15(s1)
	.loc 1 398 298 is_stmt 1
	.loc 1 400 5
.L30:
	.loc 1 401 1 is_stmt 0
	lw	ra,12(sp)
	.cfi_remember_state
	.cfi_restore 1
	lw	s0,8(sp)
	.cfi_restore 8
.LVL49:
	lw	s1,4(sp)
	.cfi_restore 9
.LVL50:
	lw	s2,0(sp)
	.cfi_restore 18
.LVL51:
	addi	sp,sp,16
	.cfi_def_cfa_offset 0
	jr	ra
.LVL52:
.L31:
	.cfi_restore_state
	.loc 1 371 9 is_stmt 1
	li	a2,64
	li	a1,0
	sub	a2,a2,a4
	call	memset
.LVL53:
	.loc 1 373 9
	.loc 1 373 21 is_stmt 0
	mv	a1,s2
	mv	a0,s0
	call	mbedtls_internal_md5_process
.LVL54:
	.loc 1 373 11
	bne	a0,zero,.L30
	.loc 1 376 9 is_stmt 1
	li	a2,56
	li	a1,0
	mv	a0,s2
.LVL55:
	j	.L35
	.cfi_endproc
.LFE10:
	.size	mbedtls_md5_finish_ret, .-mbedtls_md5_finish_ret
	.section	.text.mbedtls_md5_finish,"ax",@progbits
	.align	1
	.globl	mbedtls_md5_finish
	.type	mbedtls_md5_finish, @function
mbedtls_md5_finish:
.LFB11:
	.loc 1 406 1
	.cfi_startproc
.LVL56:
	.loc 1 407 5
	tail	mbedtls_md5_finish_ret
.LVL57:
	.cfi_endproc
.LFE11:
	.size	mbedtls_md5_finish, .-mbedtls_md5_finish
	.section	.text.mbedtls_md5_ret,"ax",@progbits
	.align	1
	.globl	mbedtls_md5_ret
	.type	mbedtls_md5_ret, @function
mbedtls_md5_ret:
.LFB12:
	.loc 1 419 1
	.cfi_startproc
.LVL58:
	.loc 1 420 5
	.loc 1 421 5
	.loc 1 423 5
	.loc 1 419 1 is_stmt 0
	addi	sp,sp,-112
	.cfi_def_cfa_offset 112
	sw	s0,104(sp)
	.cfi_offset 8, -8
	mv	s0,a0
	.loc 1 423 5
	addi	a0,sp,8
.LVL59:
	.loc 1 419 1
	sw	s1,100(sp)
	sw	s2,96(sp)
	sw	ra,108(sp)
	.cfi_offset 9, -12
	.cfi_offset 18, -16
	.cfi_offset 1, -4
	.loc 1 419 1
	mv	s2,a1
	mv	s1,a2
	.loc 1 423 5
	call	mbedtls_md5_init
.LVL60:
	.loc 1 425 5 is_stmt 1
.LBB8:
.LBB9:
	.loc 1 123 5
	.loc 1 126 19 is_stmt 0
	li	a5,1732583424
	addi	a5,a5,769
	sw	a5,16(sp)
	.loc 1 127 19
	li	a5,-271732736
	addi	a5,a5,-1143
	sw	a5,20(sp)
	.loc 1 128 19
	li	a5,-1732583424
	addi	a5,a5,-770
	sw	a5,24(sp)
	.loc 1 129 19
	li	a5,271732736
	addi	a5,a5,1142
.LBE9:
.LBE8:
	.loc 1 428 17
	mv	a2,s2
	mv	a1,s0
	addi	a0,sp,8
.LVL61:
.LBB11:
.LBB10:
	.loc 1 123 19
	sw	zero,8(sp)
	.loc 1 124 5 is_stmt 1
	.loc 1 124 19 is_stmt 0
	sw	zero,12(sp)
	.loc 1 126 5 is_stmt 1
	.loc 1 127 5
	.loc 1 128 5
	.loc 1 129 5
	.loc 1 129 19 is_stmt 0
	sw	a5,28(sp)
	.loc 1 131 5 is_stmt 1
.LVL62:
.LBE10:
.LBE11:
	.loc 1 428 5
	.loc 1 428 17 is_stmt 0
	call	mbedtls_md5_update_ret
.LVL63:
	.loc 1 428 7
	bne	a0,zero,.L39
	.loc 1 431 5 is_stmt 1
	.loc 1 431 17 is_stmt 0
	mv	a1,s1
	addi	a0,sp,8
.LVL64:
	call	mbedtls_md5_finish_ret
.LVL65:
.L39:
.L38:
	mv	s0,a0
.LVL66:
	.loc 1 435 5 is_stmt 1
	addi	a0,sp,8
	call	mbedtls_md5_free
.LVL67:
	.loc 1 437 5
	.loc 1 438 1 is_stmt 0
	lw	ra,108(sp)
	.cfi_restore 1
	mv	a0,s0
	lw	s0,104(sp)
	.cfi_restore 8
.LVL68:
	lw	s1,100(sp)
	.cfi_restore 9
.LVL69:
	lw	s2,96(sp)
	.cfi_restore 18
.LVL70:
	addi	sp,sp,112
	.cfi_def_cfa_offset 0
	jr	ra
	.cfi_endproc
.LFE12:
	.size	mbedtls_md5_ret, .-mbedtls_md5_ret
	.section	.text.mbedtls_md5,"ax",@progbits
	.align	1
	.globl	mbedtls_md5
	.type	mbedtls_md5, @function
mbedtls_md5:
.LFB13:
	.loc 1 444 1 is_stmt 1
	.cfi_startproc
.LVL71:
	.loc 1 445 5
	tail	mbedtls_md5_ret
.LVL72:
	.cfi_endproc
.LFE13:
	.size	mbedtls_md5, .-mbedtls_md5
	.text
.Letext0:
	.file 2 "/mnt/d/GitHub/bl_iot_sdk_for_aithinker/toolchain/riscv/Linux/lib/gcc/riscv64-unknown-elf/10.2.0/include/stddef.h"
	.file 3 "/mnt/d/GitHub/bl_iot_sdk_for_aithinker/toolchain/riscv/Linux/lib/gcc/riscv64-unknown-elf/10.2.0/include/stdint-gcc.h"
	.file 4 "/mnt/d/GitHub/bl_iot_sdk_for_aithinker/components/security/mbedtls_lts/mbedtls/include/mbedtls/md5.h"
	.file 5 "/mnt/d/GitHub/bl_iot_sdk_for_aithinker/toolchain/riscv/Linux/riscv64-unknown-elf/include/string.h"
	.file 6 "/mnt/d/GitHub/bl_iot_sdk_for_aithinker/components/security/mbedtls_lts/mbedtls/include/mbedtls/platform_util.h"
	.file 7 "<built-in>"