	.file	"oid.c"
	.option nopic
	.attribute arch, "rv32i2p0_m2p0_f2p0_c2p0"
	.attribute unaligned_access, 0
	.attribute stack_align, 16
	.text
.Ltext0:
	.cfi_sections	.debug_frame
	.section	.text.oid_sig_alg_from_asn1.part.0,"ax",@progbits
	.align	1
	.type	oid_sig_alg_from_asn1.part.0, @function
oid_sig_alg_from_asn1.part.0:
.LFB38:
	.file 1 "/mnt/d/GitHub/bl_iot_sdk_for_aithinker/components/security/mbedtls_lts/mbedtls/library/oid.c"
	.loc 1 437 30
	.cfi_startproc
.LVL0:
	addi	sp,sp,-16
	.cfi_def_cfa_offset 16
	sw	s0,8(sp)
	.cfi_offset 8, -8
	.loc 1 437 106 is_stmt 0
	lui	s0,%hi(.LANCHOR0)
	.loc 1 437 30
	sw	s1,4(sp)
	sw	ra,12(sp)
	.cfi_offset 9, -12
	.cfi_offset 1, -4
	.loc 1 437 30
	mv	s1,a0
	.loc 1 437 106
	addi	s0,s0,%lo(.LANCHOR0)
.LVL1:
.L2:
	.loc 1 437 9 is_stmt 1
	.loc 1 437 14 is_stmt 0
	lw	a0,0(s0)
	.loc 1 437 9
	bne	a0,zero,.L6
	.loc 1 437 157
	li	s0,0
.LVL2:
	j	.L1
.LVL3:
.L6:
	.loc 1 437 5 is_stmt 1
	.loc 1 437 29 is_stmt 0
	lw	a5,4(s1)
	.loc 1 437 7
	lw	a2,4(s0)
	beq	a2,a5,.L3
.L5:
	.loc 1 437 100 is_stmt 1
	.loc 1 437 101 is_stmt 0
	addi	s0,s0,24
.LVL4:
	.loc 1 437 105 is_stmt 1
	j	.L2
.L3:
	.loc 1 437 38 is_stmt 0
	lw	a1,8(s1)
	call	memcmp
.LVL5:
	.loc 1 437 35
	bne	a0,zero,.L5
.LVL6:
.L1:
	.loc 1 437 4
	lw	ra,12(sp)
	.cfi_restore 1
	mv	a0,s0
	lw	s0,8(sp)
	.cfi_restore 8
	lw	s1,4(sp)
	.cfi_restore 9
.LVL7:
	addi	sp,sp,16
	.cfi_def_cfa_offset 0
	jr	ra
	.cfi_endproc
.LFE38:
	.size	oid_sig_alg_from_asn1.part.0, .-oid_sig_alg_from_asn1.part.0
	.section	.text.mbedtls_oid_get_attr_short_name,"ax",@progbits
	.align	1
	.globl	mbedtls_oid_get_attr_short_name
	.type	mbedtls_oid_get_attr_short_name, @function
mbedtls_oid_get_attr_short_name:
.LFB15:
	.loc 1 277 95 is_stmt 1
	.cfi_startproc
.LVL8:
	.loc 1 277 97
.LBB4:
.LBB5:
	.loc 1 276 89
	.loc 1 276 138
	.loc 1 276 214
	.loc 1 276 1 is_stmt 0
	bne	a0,zero,.L19
.LBE5:
.LBE4:
	.loc 1 277 9
	li	a0,-46
.LVL9:
	.loc 1 277 67
	ret
.LVL10:
.L17:
	.cfi_def_cfa_offset 16
	.cfi_offset 1, -4
	.cfi_offset 8, -8
	.cfi_offset 9, -12
	.cfi_offset 18, -16
.LBB10:
.LBB6:
	.loc 1 276 5 is_stmt 1
	.loc 1 276 29 is_stmt 0
	lw	a5,4(s1)
	.loc 1 276 7
	lw	a2,4(s0)
	beq	a2,a5,.L14
.L16:
	.loc 1 276 100 is_stmt 1
	.loc 1 276 101 is_stmt 0
	addi	s0,s0,20
.LVL11:
	.loc 1 276 105 is_stmt 1
.L12:
	.loc 1 276 9
	.loc 1 276 14 is_stmt 0
	lw	a0,0(s0)
	.loc 1 276 9
	bne	a0,zero,.L17
.LBE6:
.LBE10:
	.loc 1 277 9
	li	a0,-46
.LVL12:
.L11:
	.loc 1 277 67
	lw	ra,12(sp)
	.cfi_remember_state
	.cfi_restore 1
	lw	s0,8(sp)
	.cfi_restore 8
.LVL13:
	lw	s1,4(sp)
	.cfi_restore 9
.LVL14:
	lw	s2,0(sp)
	.cfi_restore 18
.LVL15:
	addi	sp,sp,16
	.cfi_def_cfa_offset 0
	jr	ra
.LVL16:
.L14:
	.cfi_restore_state
.LBB11:
.LBB7:
	.loc 1 276 38
	lw	a1,8(s1)
	call	memcmp
.LVL17:
	.loc 1 276 35
	bne	a0,zero,.L16
.LVL18:
.LBE7:
.LBE11:
	.loc 1 277 159 is_stmt 1
	.loc 1 277 22
	.loc 1 277 40 is_stmt 0
	lw	a5,16(s0)
	.loc 1 277 34
	sw	a5,0(s2)
	.loc 1 277 54 is_stmt 1
	.loc 1 277 60 is_stmt 0
	j	.L11
.LVL19:
.L19:
	.cfi_def_cfa_offset 0
	.cfi_restore 1
	.cfi_restore 8
	.cfi_restore 9
	.cfi_restore 18
	.loc 1 277 95
	addi	sp,sp,-16
	.cfi_def_cfa_offset 16
	sw	s0,8(sp)
	.cfi_offset 8, -8
.LBB12:
.LBB8:
	.loc 1 276 112
	lui	s0,%hi(.LANCHOR1)
.LBE8:
.LBE12:
	.loc 1 277 95
	sw	s1,4(sp)
	sw	s2,0(sp)
	sw	ra,12(sp)
	.cfi_offset 9, -12
	.cfi_offset 18, -16
	.cfi_offset 1, -4
	mv	s1,a0
	mv	s2,a1
.LBB13:
.LBB9:
	.loc 1 276 112
	addi	s0,s0,%lo(.LANCHOR1)
	j	.L12
.LBE9:
.LBE13:
	.cfi_endproc
.LFE15:
	.size	mbedtls_oid_get_attr_short_name, .-mbedtls_oid_get_attr_short_name
	.section	.text.mbedtls_oid_get_x509_ext_type,"ax",@progbits
	.align	1
	.globl	mbedtls_oid_get_x509_ext_type
	.type	mbedtls_oid_get_x509_ext_type, @function
mbedtls_oid_get_x509_ext_type:
.LFB17:
	.loc 1 316 82 is_stmt 1
	.cfi_startproc
.LVL20:
	.loc 1 316 84
.LBB16:
.LBB17:
	.loc 1 315 87
	.loc 1 315 129
	.loc 1 315 205
	.loc 1 315 1 is_stmt 0
	bne	a0,zero,.L31
.LBE17:
.LBE16:
	.loc 1 316 9
	li	a0,-46
.LVL21:
	.loc 1 316 63
	ret
.LVL22:
.L29:
	.cfi_def_cfa_offset 16
	.cfi_offset 1, -4
	.cfi_offset 8, -8
	.cfi_offset 9, -12
	.cfi_offset 18, -16
.LBB22:
.LBB18:
	.loc 1 315 5 is_stmt 1
	.loc 1 315 29 is_stmt 0
	lw	a5,4(s1)
	.loc 1 315 7
	lw	a2,4(s0)
	beq	a2,a5,.L26
.L28:
	.loc 1 315 100 is_stmt 1
	.loc 1 315 101 is_stmt 0
	addi	s0,s0,20
.LVL23:
	.loc 1 315 105 is_stmt 1
.L24:
	.loc 1 315 9
	.loc 1 315 14 is_stmt 0
	lw	a0,0(s0)
	.loc 1 315 9
	bne	a0,zero,.L29
.LBE18:
.LBE22:
	.loc 1 316 9
	li	a0,-46
.LVL24:
.L23:
	.loc 1 316 63
	lw	ra,12(sp)
	.cfi_remember_state
	.cfi_restore 1
	lw	s0,8(sp)
	.cfi_restore 8
.LVL25:
	lw	s1,4(sp)
	.cfi_restore 9
.LVL26:
	lw	s2,0(sp)
	.cfi_restore 18
.LVL27:
	addi	sp,sp,16
	.cfi_def_cfa_offset 0
	jr	ra
.LVL28:
.L26:
	.cfi_restore_state
.LBB23:
.LBB19:
	.loc 1 315 38
	lw	a1,8(s1)
	call	memcmp
.LVL29:
	.loc 1 315 35
	bne	a0,zero,.L28
.LVL30:
.LBE19:
.LBE23:
	.loc 1 316 144 is_stmt 1
	.loc 1 316 22
	.loc 1 316 38 is_stmt 0
	lw	a5,16(s0)
	.loc 1 316 32
	sw	a5,0(s2)
	.loc 1 316 50 is_stmt 1
	.loc 1 316 56 is_stmt 0
	j	.L23
.LVL31:
.L31:
	.cfi_def_cfa_offset 0
	.cfi_restore 1
	.cfi_restore 8
	.cfi_restore 9
	.cfi_restore 18
	.loc 1 316 82
	addi	sp,sp,-16
	.cfi_def_cfa_offset 16
	sw	s0,8(sp)
	.cfi_offset 8, -8
.LBB24:
.LBB20:
	.loc 1 315 109
	lui	s0,%hi(.LANCHOR2)
.LBE20:
.LBE24:
	.loc 1 316 82
	sw	s1,4(sp)
	sw	s2,0(sp)
	sw	ra,12(sp)
	.cfi_offset 9, -12
	.cfi_offset 18, -16
	.cfi_offset 1, -4
	mv	s1,a0
	mv	s2,a1
.LBB25:
.LBB21:
	.loc 1 315 109
	addi	s0,s0,%lo(.LANCHOR2)
	j	.L24
.LBE21:
.LBE25:
	.cfi_endproc
.LFE17:
	.size	mbedtls_oid_get_x509_ext_type, .-mbedtls_oid_get_x509_ext_type
	.section	.text.mbedtls_oid_get_extended_key_usage,"ax",@progbits
	.align	1
	.globl	mbedtls_oid_get_extended_key_usage
	.type	mbedtls_oid_get_extended_key_usage, @function
mbedtls_oid_get_extended_key_usage:
.LFB19:
	.loc 1 330 99 is_stmt 1
	.cfi_startproc
.LVL32:
	.loc 1 330 101
.LBB28:
.LBB29:
	.loc 1 329 102
	.loc 1 329 159
	.loc 1 329 235
	.loc 1 329 1 is_stmt 0
	bne	a0,zero,.L43
.LBE29:
.LBE28:
	.loc 1 330 9
	li	a0,-46
.LVL33:
	.loc 1 330 69
	ret
.LVL34:
.L41:
	.cfi_def_cfa_offset 16
	.cfi_offset 1, -4
	.cfi_offset 8, -8
	.cfi_offset 9, -12
	.cfi_offset 18, -16
.LBB34:
.LBB30:
	.loc 1 329 5 is_stmt 1
	.loc 1 329 29 is_stmt 0
	lw	a5,4(s1)
	.loc 1 329 7
	lw	a2,4(s0)
	beq	a2,a5,.L38
.L40:
	.loc 1 329 100 is_stmt 1
	.loc 1 329 101 is_stmt 0
	addi	s0,s0,16
.LVL35:
	.loc 1 329 105 is_stmt 1
.L36:
	.loc 1 329 9
	.loc 1 329 14 is_stmt 0
	lw	a0,0(s0)
	.loc 1 329 9
	bne	a0,zero,.L41
.LBE30:
.LBE34:
	.loc 1 330 9
	li	a0,-46
.LVL36:
.L35:
	.loc 1 330 69
	lw	ra,12(sp)
	.cfi_remember_state
	.cfi_restore 1
	lw	s0,8(sp)
	.cfi_restore 8
.LVL37:
	lw	s1,4(sp)
	.cfi_restore 9
.LVL38:
	lw	s2,0(sp)
	.cfi_restore 18
.LVL39:
	addi	sp,sp,16
	.cfi_def_cfa_offset 0
	jr	ra
.LVL40:
.L38:
	.cfi_restore_state
.LBB35:
.LBB31:
	.loc 1 329 38
	lw	a1,8(s1)
	call	memcmp
.LVL41:
	.loc 1 329 35
	bne	a0,zero,.L40
.LVL42:
.LBE31:
.LBE35:
	.loc 1 330 176 is_stmt 1
	.loc 1 330 22
	.loc 1 330 41 is_stmt 0
	lw	a5,12(s0)
	.loc 1 330 35
	sw	a5,0(s2)
	.loc 1 330 56 is_stmt 1
	.loc 1 330 62 is_stmt 0
	j	.L35
.LVL43:
.L43:
	.cfi_def_cfa_offset 0
	.cfi_restore 1
	.cfi_restore 8
	.cfi_restore 9
	.cfi_restore 18
	.loc 1 330 99
	addi	sp,sp,-16
	.cfi_def_cfa_offset 16
	sw	s0,8(sp)
	.cfi_offset 8, -8
.LBB36:
.LBB32:
	.loc 1 329 134
	lui	s0,%hi(.LANCHOR3)
.LBE32:
.LBE36:
	.loc 1 330 99
	sw	s1,4(sp)
	sw	s2,0(sp)
	sw	ra,12(sp)
	.cfi_offset 9, -12
	.cfi_offset 18, -16
	.cfi_offset 1, -4
	mv	s1,a0
	mv	s2,a1
.LBB37:
.LBB33:
	.loc 1 329 134
	addi	s0,s0,%lo(.LANCHOR3)
	j	.L36
.LBE33:
.LBE37:
	.cfi_endproc
.LFE19:
	.size	mbedtls_oid_get_extended_key_usage, .-mbedtls_oid_get_extended_key_usage
	.section	.text.mbedtls_oid_get_sig_alg_desc,"ax",@progbits
	.align	1
	.globl	mbedtls_oid_get_sig_alg_desc
	.type	mbedtls_oid_get_sig_alg_desc, @function
mbedtls_oid_get_sig_alg_desc:
.LFB21:
	.loc 1 438 93 is_stmt 1
	.cfi_startproc
.LVL44:
	.loc 1 438 95
.LBB40:
.LBB41:
	.loc 1 437 85
	.loc 1 437 125
	.loc 1 437 201
	.loc 1 437 1 is_stmt 0
	bne	a0,zero,.L48
.LBE41:
.LBE40:
	.loc 1 438 9
	li	a0,-46
.LVL45:
	.loc 1 438 80
	ret
.LVL46:
.L50:
	.cfi_def_cfa_offset 16
	.cfi_offset 1, -4
	.cfi_offset 8, -8
	.loc 1 438 9
	li	a0,-46
.LVL47:
.L47:
	.loc 1 438 80
	lw	ra,12(sp)
	.cfi_restore 1
	lw	s0,8(sp)
	.cfi_restore 8
.LVL48:
	addi	sp,sp,16
	.cfi_def_cfa_offset 0
	jr	ra
.LVL49:
.L48:
	.loc 1 438 93
	addi	sp,sp,-16
	.cfi_def_cfa_offset 16
	sw	s0,8(sp)
	sw	ra,12(sp)
	.cfi_offset 8, -8
	.cfi_offset 1, -4
	mv	s0,a1
.LBB43:
.LBB42:
	call	oid_sig_alg_from_asn1.part.0
.LVL50:
.LBE42:
.LBE43:
	.loc 1 438 153 is_stmt 1
	.loc 1 438 155 is_stmt 0
	beq	a0,zero,.L50
	.loc 1 438 22 is_stmt 1 discriminator 2
	.loc 1 438 53 is_stmt 0 discriminator 2
	lw	a5,12(a0)
	.loc 1 438 73 discriminator 2
	li	a0,0
.LVL51:
	.loc 1 438 35 discriminator 2
	sw	a5,0(s0)
	.loc 1 438 67 is_stmt 1 discriminator 2
	.loc 1 438 73 is_stmt 0 discriminator 2
	j	.L47
	.cfi_endproc
.LFE21:
	.size	mbedtls_oid_get_sig_alg_desc, .-mbedtls_oid_get_sig_alg_desc
	.section	.text.mbedtls_oid_get_sig_alg,"ax",@progbits
	.align	1
	.globl	mbedtls_oid_get_sig_alg
	.type	mbedtls_oid_get_sig_alg, @function
mbedtls_oid_get_sig_alg:
.LFB22:
	.loc 1 439 116 is_stmt 1
	.cfi_startproc
.LVL52:
	.loc 1 439 118
.LBB46:
.LBB47:
	.loc 1 437 85
	.loc 1 437 125
	.loc 1 437 201
	.loc 1 437 1 is_stmt 0
	bne	a0,zero,.L58
.LBE47:
.LBE46:
	.loc 1 439 9
	li	a0,-46
.LVL53:
	.loc 1 439 87
	ret
.LVL54:
.L60:
	.cfi_def_cfa_offset 16
	.cfi_offset 1, -4
	.cfi_offset 8, -8
	.cfi_offset 9, -12
	.loc 1 439 9
	li	a0,-46
.LVL55:
.L57:
	.loc 1 439 87
	lw	ra,12(sp)
	.cfi_restore 1
	lw	s0,8(sp)
	.cfi_restore 8
.LVL56:
	lw	s1,4(sp)
	.cfi_restore 9
.LVL57:
	addi	sp,sp,16
	.cfi_def_cfa_offset 0
	jr	ra
.LVL58:
.L58:
	.loc 1 439 116
	addi	sp,sp,-16
	.cfi_def_cfa_offset 16
	sw	s0,8(sp)
	sw	s1,4(sp)
	sw	ra,12(sp)
	.cfi_offset 8, -8
	.cfi_offset 9, -12
	.cfi_offset 1, -4
	mv	s1,a1
	mv	s0,a2
.LBB49:
.LBB48:
	call	oid_sig_alg_from_asn1.part.0
.LVL59:
.LBE48:
.LBE49:
	.loc 1 439 176 is_stmt 1
	.loc 1 439 178 is_stmt 0
	beq	a0,zero,.L60
	.loc 1 439 22 is_stmt 1 discriminator 2
	.loc 1 439 38 is_stmt 0 discriminator 2
	lw	a5,16(a0)
	.loc 1 439 32 discriminator 2
	sw	a5,0(s1)
	.loc 1 439 48 is_stmt 1 discriminator 2
	.loc 1 439 64 is_stmt 0 discriminator 2
	lw	a5,20(a0)
	.loc 1 439 80 discriminator 2
	li	a0,0
.LVL60:
	.loc 1 439 58 discriminator 2
	sw	a5,0(s0)
	.loc 1 439 74 is_stmt 1 discriminator 2
	.loc 1 439 80 is_stmt 0 discriminator 2
	j	.L57
	.cfi_endproc
.LFE22:
	.size	mbedtls_oid_get_sig_alg, .-mbedtls_oid_get_sig_alg
	.section	.text.mbedtls_oid_get_oid_by_sig_alg,"ax",@progbits
	.align	1
	.globl	mbedtls_oid_get_oid_by_sig_alg
	.type	mbedtls_oid_get_oid_by_sig_alg, @function
mbedtls_oid_get_oid_by_sig_alg:
.LFB23:
	.loc 1 440 123 is_stmt 1
	.cfi_startproc
.LVL61:
	.loc 1 440 125
	.loc 1 440 167
	.loc 1 440 146 is_stmt 0
	lui	a5,%hi(.LANCHOR0)
	addi	a5,a5,%lo(.LANCHOR0)
.LVL62:
.L68:
	.loc 1 440 172 is_stmt 1 discriminator 6
	.loc 1 440 189 is_stmt 0 discriminator 6
	lw	a4,0(a5)
	.loc 1 440 172 discriminator 6
	bne	a4,zero,.L71
	.loc 1 440 157
	li	a0,-46
.LVL63:
	.loc 1 440 170
	ret
.LVL64:
.L71:
	.loc 1 440 5 is_stmt 1 discriminator 7
	.loc 1 440 7 is_stmt 0 discriminator 7
	lw	a6,20(a5)
	bne	a6,a0,.L69
	.loc 1 440 33 discriminator 2
	lw	a6,16(a5)
	bne	a6,a1,.L69
	.loc 1 440 64 is_stmt 1 discriminator 4
	.loc 1 440 69 is_stmt 0 discriminator 4
	sw	a4,0(a2)
	.loc 1 440 93 is_stmt 1 discriminator 4
	.loc 1 440 116 is_stmt 0 discriminator 4
	lw	a5,4(a5)
.LVL65:
	.loc 1 440 133 discriminator 4
	li	a0,0
.LVL66:
	.loc 1 440 99 discriminator 4
	sw	a5,0(a3)
	.loc 1 440 127 is_stmt 1 discriminator 4
	.loc 1 440 133 is_stmt 0 discriminator 4
	ret
.LVL67:
.L69:
	.loc 1 440 142 is_stmt 1 discriminator 5
	.loc 1 440 145 is_stmt 0 discriminator 5
	addi	a5,a5,24
.LVL68:
	j	.L68
	.cfi_endproc
.LFE23:
	.size	mbedtls_oid_get_oid_by_sig_alg, .-mbedtls_oid_get_oid_by_sig_alg
	.section	.text.mbedtls_oid_get_pk_alg,"ax",@progbits
	.align	1
	.globl	mbedtls_oid_get_pk_alg
	.type	mbedtls_oid_get_pk_alg, @function
mbedtls_oid_get_pk_alg:
.LFB25:
	.loc 1 472 87 is_stmt 1
	.cfi_startproc
.LVL69:
	.loc 1 472 89
.LBB52:
.LBB53:
	.loc 1 471 83
	.loc 1 471 121
	.loc 1 471 197
	.loc 1 471 1 is_stmt 0
	bne	a0,zero,.L80
.LBE53:
.LBE52:
	.loc 1 472 9
	li	a0,-46
.LVL70:
	.loc 1 472 59
	ret
.LVL71:
.L78:
	.cfi_def_cfa_offset 16
	.cfi_offset 1, -4
	.cfi_offset 8, -8
	.cfi_offset 9, -12
	.cfi_offset 18, -16
.LBB58:
.LBB54:
	.loc 1 471 5 is_stmt 1
	.loc 1 471 29 is_stmt 0
	lw	a5,4(s1)
	.loc 1 471 7
	lw	a2,4(s0)
	beq	a2,a5,.L75
.L77:
	.loc 1 471 100 is_stmt 1
	.loc 1 471 101 is_stmt 0
	addi	s0,s0,20
.LVL72:
	.loc 1 471 105 is_stmt 1
.L73:
	.loc 1 471 9
	.loc 1 471 14 is_stmt 0
	lw	a0,0(s0)
	.loc 1 471 9
	bne	a0,zero,.L78
.LBE54:
.LBE58:
	.loc 1 472 9
	li	a0,-46
.LVL73:
.L72:
	.loc 1 472 59
	lw	ra,12(sp)
	.cfi_remember_state
	.cfi_restore 1
	lw	s0,8(sp)
	.cfi_restore 8
.LVL74:
	lw	s1,4(sp)
	.cfi_restore 9
.LVL75:
	lw	s2,0(sp)
	.cfi_restore 18
.LVL76:
	addi	sp,sp,16
	.cfi_def_cfa_offset 0
	jr	ra
.LVL77:
.L75:
	.cfi_restore_state
.LBB59:
.LBB55:
	.loc 1 471 38
	lw	a1,8(s1)
	call	memcmp
.LVL78:
	.loc 1 471 35
	bne	a0,zero,.L77
.LVL79:
.LBE55:
.LBE59:
	.loc 1 472 145 is_stmt 1
	.loc 1 472 22
	.loc 1 472 36 is_stmt 0
	lw	a5,16(s0)
	.loc 1 472 30
	sw	a5,0(s2)
	.loc 1 472 46 is_stmt 1
	.loc 1 472 52 is_stmt 0
	j	.L72
.LVL80:
.L80:
	.cfi_def_cfa_offset 0
	.cfi_restore 1
	.cfi_restore 8
	.cfi_restore 9
	.cfi_restore 18
	.loc 1 472 87
	addi	sp,sp,-16
	.cfi_def_cfa_offset 16
	sw	s0,8(sp)
	.cfi_offset 8, -8
.LBB60:
.LBB56:
	.loc 1 471 103
	lui	s0,%hi(.LANCHOR4)
.LBE56:
.LBE60:
	.loc 1 472 87
	sw	s1,4(sp)
	sw	s2,0(sp)
	sw	ra,12(sp)
	.cfi_offset 9, -12
	.cfi_offset 18, -16
	.cfi_offset 1, -4
	mv	s1,a0
	mv	s2,a1
.LBB61:
.LBB57:
	.loc 1 471 103
	addi	s0,s0,%lo(.LANCHOR4)
	j	.L73
.LBE57:
.LBE61:
	.cfi_endproc
.LFE25:
	.size	mbedtls_oid_get_pk_alg, .-mbedtls_oid_get_pk_alg
	.section	.text.mbedtls_oid_get_oid_by_pk_alg,"ax",@progbits
	.align	1
	.globl	mbedtls_oid_get_oid_by_pk_alg
	.type	mbedtls_oid_get_oid_by_pk_alg, @function
mbedtls_oid_get_oid_by_pk_alg:
.LFB26:
	.loc 1 473 95 is_stmt 1
	.cfi_startproc
.LVL81:
	.loc 1 473 97
	.loc 1 473 137
	.loc 1 473 117 is_stmt 0
	lui	a5,%hi(.LANCHOR4)
	addi	a5,a5,%lo(.LANCHOR4)
.LVL82:
.L85:
	.loc 1 473 142 is_stmt 1 discriminator 4
	.loc 1 473 159 is_stmt 0 discriminator 4
	lw	a4,0(a5)
	.loc 1 473 142 discriminator 4
	bne	a4,zero,.L88
	.loc 1 473 130
	li	a0,-46
.LVL83:
	.loc 1 473 143
	ret
.LVL84:
.L88:
	.loc 1 473 5 is_stmt 1 discriminator 5
	.loc 1 473 7 is_stmt 0 discriminator 5
	lw	a3,16(a5)
	bne	a3,a0,.L86
	.loc 1 473 37 is_stmt 1 discriminator 2
	.loc 1 473 42 is_stmt 0 discriminator 2
	sw	a4,0(a1)
	.loc 1 473 66 is_stmt 1 discriminator 2
	.loc 1 473 89 is_stmt 0 discriminator 2
	lw	a5,4(a5)
.LVL85:
	.loc 1 473 106 discriminator 2
	li	a0,0
.LVL86:
	.loc 1 473 72 discriminator 2
	sw	a5,0(a2)
	.loc 1 473 100 is_stmt 1 discriminator 2
	.loc 1 473 106 is_stmt 0 discriminator 2
	ret
.LVL87:
.L86:
	.loc 1 473 115 is_stmt 1 discriminator 3
	.loc 1 473 118 is_stmt 0 discriminator 3
	addi	a5,a5,20
.LVL88:
	j	.L85
	.cfi_endproc
.LFE26:
	.size	mbedtls_oid_get_oid_by_pk_alg, .-mbedtls_oid_get_oid_by_pk_alg
	.section	.text.mbedtls_oid_get_ec_grp,"ax",@progbits
	.align	1
	.globl	mbedtls_oid_get_ec_grp
	.type	mbedtls_oid_get_ec_grp, @function
mbedtls_oid_get_ec_grp:
.LFB28:
	.loc 1 559 90 is_stmt 1
	.cfi_startproc
.LVL89:
	.loc 1 559 92
.LBB64:
.LBB65:
	.loc 1 558 84
	.loc 1 558 124
	.loc 1 558 200
	.loc 1 558 1 is_stmt 0
	bne	a0,zero,.L97
.LBE65:
.LBE64:
	.loc 1 559 9
	li	a0,-46
.LVL90:
	.loc 1 559 59
	ret
.LVL91:
.L95:
	.cfi_def_cfa_offset 16
	.cfi_offset 1, -4
	.cfi_offset 8, -8
	.cfi_offset 9, -12
	.cfi_offset 18, -16
.LBB70:
.LBB66:
	.loc 1 558 5 is_stmt 1
	.loc 1 558 29 is_stmt 0
	lw	a5,4(s1)
	.loc 1 558 7
	lw	a2,4(s0)
	beq	a2,a5,.L92
.L94:
	.loc 1 558 100 is_stmt 1
	.loc 1 558 101 is_stmt 0
	addi	s0,s0,20
.LVL92:
	.loc 1 558 105 is_stmt 1
.L90:
	.loc 1 558 9
	.loc 1 558 14 is_stmt 0
	lw	a0,0(s0)
	.loc 1 558 9
	bne	a0,zero,.L95
.LBE66:
.LBE70:
	.loc 1 559 9
	li	a0,-46
.LVL93:
.L89:
	.loc 1 559 59
	lw	ra,12(sp)
	.cfi_remember_state
	.cfi_restore 1
	lw	s0,8(sp)
	.cfi_restore 8
.LVL94:
	lw	s1,4(sp)
	.cfi_restore 9
.LVL95:
	lw	s2,0(sp)
	.cfi_restore 18
.LVL96:
	addi	sp,sp,16
	.cfi_def_cfa_offset 0
	jr	ra
.LVL97:
.L92:
	.cfi_restore_state
.LBB71:
.LBB67:
	.loc 1 558 38
	lw	a1,8(s1)
	call	memcmp
.LVL98:
	.loc 1 558 35
	bne	a0,zero,.L94
.LVL99:
.LBE67:
.LBE71:
	.loc 1 559 149 is_stmt 1
	.loc 1 559 22
	.loc 1 559 36 is_stmt 0
	lw	a5,16(s0)
	.loc 1 559 30
	sw	a5,0(s2)
	.loc 1 559 46 is_stmt 1
	.loc 1 559 52 is_stmt 0
	j	.L89
.LVL100:
.L97:
	.cfi_def_cfa_offset 0
	.cfi_restore 1
	.cfi_restore 8
	.cfi_restore 9
	.cfi_restore 18
	.loc 1 559 90
	addi	sp,sp,-16
	.cfi_def_cfa_offset 16
	sw	s0,8(sp)
	.cfi_offset 8, -8
.LBB72:
.LBB68:
	.loc 1 558 105
	lui	s0,%hi(.LANCHOR5)
.LBE68:
.LBE72:
	.loc 1 559 90
	sw	s1,4(sp)
	sw	s2,0(sp)
	sw	ra,12(sp)
	.cfi_offset 9, -12
	.cfi_offset 18, -16
	.cfi_offset 1, -4
	mv	s1,a0
	mv	s2,a1
.LBB73:
.LBB69:
	.loc 1 558 105
	addi	s0,s0,%lo(.LANCHOR5)
	j	.L90
.LBE69:
.LBE73:
	.cfi_endproc
.LFE28:
	.size	mbedtls_oid_get_ec_grp, .-mbedtls_oid_get_ec_grp
	.section	.text.mbedtls_oid_get_oid_by_ec_grp,"ax",@progbits
	.align	1
	.globl	mbedtls_oid_get_oid_by_ec_grp
	.type	mbedtls_oid_get_oid_by_ec_grp, @function
mbedtls_oid_get_oid_by_ec_grp:
.LFB29:
	.loc 1 560 98 is_stmt 1
	.cfi_startproc
.LVL101:
	.loc 1 560 100
	.loc 1 560 142
	.loc 1 560 121 is_stmt 0
	lui	a5,%hi(.LANCHOR5)
	addi	a5,a5,%lo(.LANCHOR5)
.LVL102:
.L102:
	.loc 1 560 147 is_stmt 1 discriminator 4
	.loc 1 560 164 is_stmt 0 discriminator 4
	lw	a4,0(a5)
	.loc 1 560 147 discriminator 4
	bne	a4,zero,.L105
	.loc 1 560 130
	li	a0,-46
.LVL103:
	.loc 1 560 143
	ret
.LVL104:
.L105:
	.loc 1 560 5 is_stmt 1 discriminator 5
	.loc 1 560 7 is_stmt 0 discriminator 5
	lw	a3,16(a5)
	bne	a3,a0,.L103
	.loc 1 560 37 is_stmt 1 discriminator 2
	.loc 1 560 42 is_stmt 0 discriminator 2
	sw	a4,0(a1)
	.loc 1 560 66 is_stmt 1 discriminator 2
	.loc 1 560 89 is_stmt 0 discriminator 2
	lw	a5,4(a5)
.LVL105:
	.loc 1 560 106 discriminator 2
	li	a0,0
.LVL106:
	.loc 1 560 72 discriminator 2
	sw	a5,0(a2)
	.loc 1 560 100 is_stmt 1 discriminator 2
	.loc 1 560 106 is_stmt 0 discriminator 2
	ret
.LVL107:
.L103:
	.loc 1 560 115 is_stmt 1 discriminator 3
	.loc 1 560 118 is_stmt 0 discriminator 3
	addi	a5,a5,20
.LVL108:
	j	.L102
	.cfi_endproc
.LFE29:
	.size	mbedtls_oid_get_oid_by_ec_grp, .-mbedtls_oid_get_oid_by_ec_grp
	.section	.text.mbedtls_oid_get_cipher_alg,"ax",@progbits
	.align	1
	.globl	mbedtls_oid_get_cipher_alg
	.type	mbedtls_oid_get_cipher_alg, @function
mbedtls_oid_get_cipher_alg:
.LFB31:
	.loc 1 589 99 is_stmt 1
	.cfi_startproc
.LVL109:
	.loc 1 589 101
.LBB76:
.LBB77:
	.loc 1 588 91
	.loc 1 588 137
	.loc 1 588 213
	.loc 1 588 1 is_stmt 0
	bne	a0,zero,.L114
.LBE77:
.LBE76:
	.loc 1 589 9
	li	a0,-46
.LVL110:
	.loc 1 589 67
	ret
.LVL111:
.L112:
	.cfi_def_cfa_offset 16
	.cfi_offset 1, -4
	.cfi_offset 8, -8
	.cfi_offset 9, -12
	.cfi_offset 18, -16
.LBB82:
.LBB78:
	.loc 1 588 5 is_stmt 1
	.loc 1 588 29 is_stmt 0
	lw	a5,4(s1)
	.loc 1 588 7
	lw	a2,4(s0)
	beq	a2,a5,.L109
.L111:
	.loc 1 588 100 is_stmt 1
	.loc 1 588 101 is_stmt 0
	addi	s0,s0,20
.LVL112:
	.loc 1 588 105 is_stmt 1
.L107:
	.loc 1 588 9
	.loc 1 588 14 is_stmt 0
	lw	a0,0(s0)
	.loc 1 588 9
	bne	a0,zero,.L112
.LBE78:
.LBE82:
	.loc 1 589 9
	li	a0,-46
.LVL113:
.L106:
	.loc 1 589 67
	lw	ra,12(sp)
	.cfi_remember_state
	.cfi_restore 1
	lw	s0,8(sp)
	.cfi_restore 8
.LVL114:
	lw	s1,4(sp)
	.cfi_restore 9
.LVL115:
	lw	s2,0(sp)
	.cfi_restore 18
.LVL116:
	addi	sp,sp,16
	.cfi_def_cfa_offset 0
	jr	ra
.LVL117:
.L109:
	.cfi_restore_state
.LBB83:
.LBB79:
	.loc 1 588 38
	lw	a1,8(s1)
	call	memcmp
.LVL118:
	.loc 1 588 35
	bne	a0,zero,.L111
.LVL119:
.LBE79:
.LBE83:
	.loc 1 589 165 is_stmt 1
	.loc 1 589 22
	.loc 1 589 40 is_stmt 0
	lw	a5,16(s0)
	.loc 1 589 34
	sw	a5,0(s2)
	.loc 1 589 54 is_stmt 1
	.loc 1 589 60 is_stmt 0
	j	.L106
.LVL120:
.L114:
	.cfi_def_cfa_offset 0
	.cfi_restore 1
	.cfi_restore 8
	.cfi_restore 9
	.cfi_restore 18
	.loc 1 589 99
	addi	sp,sp,-16
	.cfi_def_cfa_offset 16
	sw	s0,8(sp)
	.cfi_offset 8, -8
.LBB84:
.LBB80:
	.loc 1 588 115
	lui	s0,%hi(.LANCHOR6)
.LBE80:
.LBE84:
	.loc 1 589 99
	sw	s1,4(sp)
	sw	s2,0(sp)
	sw	ra,12(sp)
	.cfi_offset 9, -12
	.cfi_offset 18, -16
	.cfi_offset 1, -4
	mv	s1,a0
	mv	s2,a1
.LBB85:
.LBB81:
	.loc 1 588 115
	addi	s0,s0,%lo(.LANCHOR6)
	j	.L107
.LBE81:
.LBE85:
	.cfi_endproc
.LFE31:
	.size	mbedtls_oid_get_cipher_alg, .-mbedtls_oid_get_cipher_alg
	.section	.text.mbedtls_oid_get_md_alg,"ax",@progbits
	.align	1
	.globl	mbedtls_oid_get_md_alg
	.type	mbedtls_oid_get_md_alg, @function
mbedtls_oid_get_md_alg:
.LFB33:
	.loc 1 654 87 is_stmt 1
	.cfi_startproc
.LVL121:
	.loc 1 654 89
.LBB88:
.LBB89:
	.loc 1 653 83
	.loc 1 653 121
	.loc 1 653 197
	.loc 1 653 1 is_stmt 0
	bne	a0,zero,.L126
.LBE89:
.LBE88:
	.loc 1 654 9
	li	a0,-46
.LVL122:
	.loc 1 654 59
	ret
.LVL123:
.L124:
	.cfi_def_cfa_offset 16
	.cfi_offset 1, -4
	.cfi_offset 8, -8
	.cfi_offset 9, -12
	.cfi_offset 18, -16
.LBB94:
.LBB90:
	.loc 1 653 5 is_stmt 1
	.loc 1 653 29 is_stmt 0
	lw	a5,4(s1)
	.loc 1 653 7
	lw	a2,4(s0)
	beq	a2,a5,.L121
.L123:
	.loc 1 653 100 is_stmt 1
	.loc 1 653 101 is_stmt 0
	addi	s0,s0,20
.LVL124:
	.loc 1 653 105 is_stmt 1
.L119:
	.loc 1 653 9
	.loc 1 653 14 is_stmt 0
	lw	a0,0(s0)
	.loc 1 653 9
	bne	a0,zero,.L124
.LBE90:
.LBE94:
	.loc 1 654 9
	li	a0,-46
.LVL125:
.L118:
	.loc 1 654 59
	lw	ra,12(sp)
	.cfi_remember_state
	.cfi_restore 1
	lw	s0,8(sp)
	.cfi_restore 8
.LVL126:
	lw	s1,4(sp)
	.cfi_restore 9
.LVL127:
	lw	s2,0(sp)
	.cfi_restore 18
.LVL128:
	addi	sp,sp,16
	.cfi_def_cfa_offset 0
	jr	ra
.LVL129:
.L121:
	.cfi_restore_state
.LBB95:
.LBB91:
	.loc 1 653 38
	lw	a1,8(s1)
	call	memcmp
.LVL130:
	.loc 1 653 35
	bne	a0,zero,.L123
.LVL131:
.LBE91:
.LBE95:
	.loc 1 654 145 is_stmt 1
	.loc 1 654 22
	.loc 1 654 36 is_stmt 0
	lw	a5,16(s0)
	.loc 1 654 30
	sw	a5,0(s2)
	.loc 1 654 46 is_stmt 1
	.loc 1 654 52 is_stmt 0
	j	.L118
.LVL132:
.L126:
	.cfi_def_cfa_offset 0
	.cfi_restore 1
	.cfi_restore 8
	.cfi_restore 9
	.cfi_restore 18
	.loc 1 654 87
	addi	sp,sp,-16
	.cfi_def_cfa_offset 16
	sw	s0,8(sp)
	.cfi_offset 8, -8
.LBB96:
.LBB92:
	.loc 1 653 103
	lui	s0,%hi(.LANCHOR7)
.LBE92:
.LBE96:
	.loc 1 654 87
	sw	s1,4(sp)
	sw	s2,0(sp)
	sw	ra,12(sp)
	.cfi_offset 9, -12
	.cfi_offset 18, -16
	.cfi_offset 1, -4
	mv	s1,a0
	mv	s2,a1
.LBB97:
.LBB93:
	.loc 1 653 103
	addi	s0,s0,%lo(.LANCHOR7)
	j	.L119
.LBE93:
.LBE97:
	.cfi_endproc
.LFE33:
	.size	mbedtls_oid_get_md_alg, .-mbedtls_oid_get_md_alg
	.section	.text.mbedtls_oid_get_oid_by_md,"ax",@progbits
	.align	1
	.globl	mbedtls_oid_get_oid_by_md
	.type	mbedtls_oid_get_oid_by_md, @function
mbedtls_oid_get_oid_by_md:
.LFB34:
	.loc 1 655 91 is_stmt 1
	.cfi_startproc
.LVL133:
	.loc 1 655 93
	.loc 1 655 133
	.loc 1 655 113 is_stmt 0
	lui	a5,%hi(.LANCHOR7)
	addi	a5,a5,%lo(.LANCHOR7)
.LVL134:
.L131:
	.loc 1 655 138 is_stmt 1 discriminator 4
	.loc 1 655 155 is_stmt 0 discriminator 4
	lw	a4,0(a5)
	.loc 1 655 138 discriminator 4
	bne	a4,zero,.L134
	.loc 1 655 130
	li	a0,-46
.LVL135:
	.loc 1 655 143
	ret
.LVL136:
.L134:
	.loc 1 655 5 is_stmt 1 discriminator 5
	.loc 1 655 7 is_stmt 0 discriminator 5
	lw	a3,16(a5)
	bne	a3,a0,.L132
	.loc 1 655 37 is_stmt 1 discriminator 2
	.loc 1 655 42 is_stmt 0 discriminator 2
	sw	a4,0(a1)
	.loc 1 655 66 is_stmt 1 discriminator 2
	.loc 1 655 89 is_stmt 0 discriminator 2
	lw	a5,4(a5)
.LVL137:
	.loc 1 655 106 discriminator 2
	li	a0,0
.LVL138:
	.loc 1 655 72 discriminator 2
	sw	a5,0(a2)
	.loc 1 655 100 is_stmt 1 discriminator 2
	.loc 1 655 106 is_stmt 0 discriminator 2
	ret
.LVL139:
.L132:
	.loc 1 655 115 is_stmt 1 discriminator 3
	.loc 1 655 118 is_stmt 0 discriminator 3
	addi	a5,a5,20
.LVL140:
	j	.L131
	.cfi_endproc
.LFE34:
	.size	mbedtls_oid_get_oid_by_md, .-mbedtls_oid_get_oid_by_md
	.section	.text.mbedtls_oid_get_md_hmac,"ax",@progbits
	.align	1
	.globl	mbedtls_oid_get_md_hmac
	.type	mbedtls_oid_get_md_hmac, @function
mbedtls_oid_get_md_hmac:
.LFB36:
	.loc 1 700 89 is_stmt 1
	.cfi_startproc
.LVL141:
	.loc 1 700 91
.LBB100:
.LBB101:
	.loc 1 699 85
	.loc 1 699 125
	.loc 1 699 201
	.loc 1 699 1 is_stmt 0
	bne	a0,zero,.L143
.LBE101:
.LBE100:
	.loc 1 700 9
	li	a0,-46
.LVL142:
	.loc 1 700 61
	ret
.LVL143:
.L141:
	.cfi_def_cfa_offset 16
	.cfi_offset 1, -4
	.cfi_offset 8, -8
	.cfi_offset 9, -12
	.cfi_offset 18, -16
.LBB106:
.LBB102:
	.loc 1 699 5 is_stmt 1
	.loc 1 699 29 is_stmt 0
	lw	a5,4(s1)
	.loc 1 699 7
	lw	a2,4(s0)
	beq	a2,a5,.L138
.L140:
	.loc 1 699 100 is_stmt 1
	.loc 1 699 101 is_stmt 0
	addi	s0,s0,20
.LVL144:
	.loc 1 699 105 is_stmt 1
.L136:
	.loc 1 699 9
	.loc 1 699 14 is_stmt 0
	lw	a0,0(s0)
	.loc 1 699 9
	bne	a0,zero,.L141
.LBE102:
.LBE106:
	.loc 1 700 9
	li	a0,-46
.LVL145:
.L135:
	.loc 1 700 61
	lw	ra,12(sp)
	.cfi_remember_state
	.cfi_restore 1
	lw	s0,8(sp)
	.cfi_restore 8
.LVL146:
	lw	s1,4(sp)
	.cfi_restore 9
.LVL147:
	lw	s2,0(sp)
	.cfi_restore 18
.LVL148:
	addi	sp,sp,16
	.cfi_def_cfa_offset 0
	jr	ra
.LVL149:
.L138:
	.cfi_restore_state
.LBB107:
.LBB103:
	.loc 1 699 38
	lw	a1,8(s1)
	call	memcmp
.LVL150:
	.loc 1 699 35
	bne	a0,zero,.L140
.LVL151:
.LBE103:
.LBE107:
	.loc 1 700 149 is_stmt 1
	.loc 1 700 22
	.loc 1 700 37 is_stmt 0
	lw	a5,16(s0)
	.loc 1 700 31
	sw	a5,0(s2)
	.loc 1 700 48 is_stmt 1
	.loc 1 700 54 is_stmt 0
	j	.L135
.LVL152:
.L143:
	.cfi_def_cfa_offset 0
	.cfi_restore 1
	.cfi_restore 8
	.cfi_restore 9
	.cfi_restore 18
	.loc 1 700 89
	addi	sp,sp,-16
	.cfi_def_cfa_offset 16
	sw	s0,8(sp)
	.cfi_offset 8, -8
.LBB108:
.LBB104:
	.loc 1 699 106
	lui	s0,%hi(.LANCHOR8)
.LBE104:
.LBE108:
	.loc 1 700 89
	sw	s1,4(sp)
	sw	s2,0(sp)
	sw	ra,12(sp)
	.cfi_offset 9, -12
	.cfi_offset 18, -16
	.cfi_offset 1, -4
	mv	s1,a0
	mv	s2,a1
.LBB109:
.LBB105:
	.loc 1 699 106
	addi	s0,s0,%lo(.LANCHOR8)
	j	.L136
.LBE105:
.LBE109:
	.cfi_endproc
.LFE36:
	.size	mbedtls_oid_get_md_hmac, .-mbedtls_oid_get_md_hmac
	.section	.rodata.mbedtls_oid_get_numeric_string.str1.4,"aMS",@progbits,1
	.align	2
.LC0:
	.string	"%d.%d"
	.align	2
.LC1:
	.string	".%d"
	.section	.text.mbedtls_oid_get_numeric_string,"ax",@progbits
	.align	1
	.globl	mbedtls_oid_get_numeric_string
	.type	mbedtls_oid_get_numeric_string, @function
mbedtls_oid_get_numeric_string:
.LFB37:
	.loc 1 745 1 is_stmt 1
	.cfi_startproc
.LVL153:
	.loc 1 746 5
	.loc 1 747 5
	.loc 1 748 5
	.loc 1 749 5
	.loc 1 751 5
	.loc 1 752 5
	.loc 1 755 5
	.loc 1 745 1 is_stmt 0
	addi	sp,sp,-32
	.cfi_def_cfa_offset 32
	sw	s0,24(sp)
	sw	s1,20(sp)
	sw	s2,16(sp)
	sw	s3,12(sp)
	sw	ra,28(sp)
	sw	s4,8(sp)
	sw	s5,4(sp)
	sw	s6,0(sp)
	.cfi_offset 8, -8
	.cfi_offset 9, -12
	.cfi_offset 18, -16
	.cfi_offset 19, -20
	.cfi_offset 1, -4
	.cfi_offset 20, -24
	.cfi_offset 21, -28
	.cfi_offset 22, -32
	.loc 1 755 7
	lw	a5,4(a2)
	.loc 1 745 1
	mv	s1,a0
	mv	s0,a1
	mv	s3,a2
	mv	s2,a1
	.loc 1 755 7
	beq	a5,zero,.L148
	.loc 1 757 9 is_stmt 1
	.loc 1 757 46 is_stmt 0
	lw	a5,8(a2)
	.loc 1 757 15
	lui	a2,%hi(.LC0)
.LVL154:
	addi	a2,a2,%lo(.LC0)
	.loc 1 757 46
	lbu	a3,0(a5)
	.loc 1 757 15
	li	a5,40
	remu	a4,a3,a5
	divu	a3,a3,a5
	call	snprintf
.LVL155:
	.loc 1 758 9 is_stmt 1
	.loc 1 758 14
	.loc 1 758 16 is_stmt 0
	bge	a0,zero,.L149
.LVL156:
.L151:
	.loc 1 758 55
	li	a0,-11
.L147:
	.loc 1 781 1
	lw	ra,28(sp)
	.cfi_remember_state
	.cfi_restore 1
	lw	s0,24(sp)
	.cfi_restore 8
.LVL157:
	lw	s1,20(sp)
	.cfi_restore 9
.LVL158:
	lw	s2,16(sp)
	.cfi_restore 18
.LVL159:
	lw	s3,12(sp)
	.cfi_restore 19
.LVL160:
	lw	s4,8(sp)
	.cfi_restore 20
	lw	s5,4(sp)
	.cfi_restore 21
	lw	s6,0(sp)
	.cfi_restore 22
	addi	sp,sp,32
	.cfi_def_cfa_offset 0
	jr	ra
.LVL161:
.L149:
	.cfi_restore_state
	.loc 1 758 26 discriminator 2
	bgeu	a0,s0,.L151
	.loc 1 758 68 is_stmt 1 discriminator 4
	.loc 1 758 70 is_stmt 0 discriminator 4
	sub	s2,s0,a0
.LVL162:
	.loc 1 758 87 is_stmt 1 discriminator 4
	.loc 1 758 89 is_stmt 0 discriminator 4
	add	s1,s1,a0
.LVL163:
.L148:
	.loc 1 765 30 discriminator 1
	li	s5,33554432
	.loc 1 776 19 discriminator 1
	li	a3,0
	li	s4,1
	.loc 1 765 30 discriminator 1
	addi	s5,s5,-1
	.loc 1 774 19 discriminator 1
	lui	s6,%hi(.LC1)
.L152:
.LVL164:
	.loc 1 762 17 is_stmt 1 discriminator 1
	.loc 1 762 5 is_stmt 0 discriminator 1
	lw	a5,4(s3)
	bgtu	a5,s4,.L154
	.loc 1 780 5 is_stmt 1
	.loc 1 780 26 is_stmt 0
	sub	a0,s0,s2
	.loc 1 780 13
	j	.L147
.L154:
	.loc 1 765 9 is_stmt 1
	.loc 1 765 30 is_stmt 0
	and	a5,a3,s5
	.loc 1 765 11
	bne	a5,a3,.L151
	.loc 1 768 9 is_stmt 1
	.loc 1 769 24 is_stmt 0
	lw	a5,8(s3)
	.loc 1 768 15
	slli	a3,a3,7
.LVL165:
	.loc 1 769 9 is_stmt 1
	.loc 1 769 24 is_stmt 0
	add	a5,a5,s4
	lbu	a5,0(a5)
	.loc 1 769 28
	andi	a4,a5,127
	.loc 1 771 11
	slli	a5,a5,24
	srai	a5,a5,24
	.loc 1 769 15
	add	a3,a4,a3
.LVL166:
	.loc 1 771 9 is_stmt 1
	.loc 1 771 11 is_stmt 0
	blt	a5,zero,.L153
	.loc 1 774 13 is_stmt 1
	.loc 1 774 19 is_stmt 0
	addi	a2,s6,%lo(.LC1)
	mv	a1,s2
	mv	a0,s1
	call	snprintf
.LVL167:
	.loc 1 775 13 is_stmt 1
	.loc 1 775 18
	.loc 1 775 20 is_stmt 0
	blt	a0,zero,.L151
	.loc 1 775 30 discriminator 2
	bgeu	a0,s2,.L151
	.loc 1 775 72 is_stmt 1 discriminator 4
	.loc 1 775 74 is_stmt 0 discriminator 4
	sub	s2,s2,a0
.LVL168:
	.loc 1 775 91 is_stmt 1 discriminator 4
	.loc 1 775 93 is_stmt 0 discriminator 4
	add	s1,s1,a0
.LVL169:
	.loc 1 775 117 is_stmt 1 discriminator 4
	.loc 1 776 13 discriminator 4
	.loc 1 776 19 is_stmt 0 discriminator 4
	li	a3,0
.LVL170:
.L153:
	.loc 1 762 31 is_stmt 1 discriminator 2
	.loc 1 762 32 is_stmt 0 discriminator 2
	addi	s4,s4,1
.LVL171:
	j	.L152
	.cfi_endproc
.LFE37:
	.size	mbedtls_oid_get_numeric_string, .-mbedtls_oid_get_numeric_string
	.section	.rodata.str1.4,"aMS",@progbits,1
	.align	2
.LC2:
	.string	"*\206H\206\367\r\002\007"
	.align	2
.LC3:
	.string	"hmacSHA1"
	.align	2
.LC4:
	.string	"HMAC-SHA-1"
	.align	2
.LC5:
	.string	"*\206H\206\367\r\002\b"
	.align	2
.LC6:
	.string	"hmacSHA224"
	.align	2
.LC7:
	.string	"HMAC-SHA-224"
	.align	2
.LC8:
	.string	"*\206H\206\367\r\002\t"
	.align	2
.LC9:
	.string	"hmacSHA256"
	.align	2
.LC10:
	.string	"HMAC-SHA-256"
	.align	2
.LC11:
	.string	"*\206H\206\367\r\002\n"
	.align	2
.LC12:
	.string	"hmacSHA384"
	.align	2
.LC13:
	.string	"HMAC-SHA-384"
	.align	2
.LC14:
	.string	"*\206H\206\367\r\002\013"
	.align	2
.LC15:
	.string	"hmacSHA512"
	.align	2
.LC16:
	.string	"HMAC-SHA-512"
	.align	2
.LC17:
	.string	"*\206H\206\367\r\002\005"
	.align	2
.LC18:
	.string	"id-md5"
	.align	2
.LC19:
	.string	"MD5"
	.align	2
.LC20:
	.string	"+\016\003\002\032"
	.align	2
.LC21:
	.string	"id-sha1"
	.align	2
.LC22:
	.string	"SHA-1"
	.align	2
.LC23:
	.string	"`\206H\001e\003\004\002\004"
	.align	2
.LC24:
	.string	"id-sha224"
	.align	2
.LC25:
	.string	"SHA-224"
	.align	2
.LC26:
	.string	"`\206H\001e\003\004\002\001"
	.align	2
.LC27:
	.string	"id-sha256"
	.align	2
.LC28:
	.string	"SHA-256"
	.align	2
.LC29:
	.string	"`\206H\001e\003\004\002\002"
	.align	2
.LC30:
	.string	"id-sha384"
	.align	2
.LC31:
	.string	"SHA-384"
	.align	2
.LC32:
	.string	"`\206H\001e\003\004\002\003"
	.align	2
.LC33:
	.string	"id-sha512"
	.align	2
.LC34:
	.string	"SHA-512"
	.align	2
.LC35:
	.string	"+\016\003\002\007"
	.align	2
.LC36:
	.string	"desCBC"
	.align	2
.LC37:
	.string	"DES-CBC"
	.align	2
.LC38:
	.string	"*\206H\206\367\r\003\007"
	.align	2
.LC39:
	.string	"des-ede3-cbc"
	.align	2
.LC40:
	.string	"DES-EDE3-CBC"
	.align	2
.LC42:
	.string	"secp224r1"
	.align	2
.LC43:
	.string	"*\206H\316=\003\001\007"
	.align	2
.LC44:
	.string	"secp256r1"
	.align	2
.LC46:
	.string	"secp224k1"
	.align	2
.LC48:
	.string	"secp256k1"
	.align	2
.LC49:
	.string	"+$\003\003\002\b\001\001\007"
	.align	2
.LC50:
	.string	"brainpoolP256r1"
	.align	2
.LC51:
	.string	"brainpool256r1"
	.align	2
.LC52:
	.string	"*\206H\206\367\r\001\001\001"
	.align	2
.LC53:
	.string	"rsaEncryption"
	.align	2
.LC54:
	.string	"RSA"
	.align	2
.LC55:
	.string	"*\206H\316=\002\001"
	.align	2
.LC56:
	.string	"id-ecPublicKey"
	.align	2
.LC57:
	.string	"Generic EC key"
	.align	2
.LC58:
	.string	"+\201\004\001\f"
	.align	2
.LC59:
	.string	"id-ecDH"
	.align	2
.LC60:
	.string	"EC key for ECDH"
	.align	2
.LC61:
	.string	"*\206H\206\367\r\001\001\004"
	.align	2
.LC62:
	.string	"md5WithRSAEncryption"
	.align	2
.LC63:
	.string	"RSA with MD5"
	.align	2
.LC64:
	.string	"*\206H\206\367\r\001\001\005"
	.align	2
.LC65:
	.string	"sha-1WithRSAEncryption"
	.align	2
.LC66:
	.string	"RSA with SHA1"
	.align	2
.LC67:
	.string	"*\206H\206\367\r\001\001\016"
	.align	2
.LC68:
	.string	"sha224WithRSAEncryption"
	.align	2
.LC69:
	.string	"RSA with SHA-224"
	.align	2
.LC70:
	.string	"*\206H\206\367\r\001\001\013"
	.align	2
.LC71:
	.string	"sha256WithRSAEncryption"
	.align	2
.LC72:
	.string	"RSA with SHA-256"
	.align	2
.LC73:
	.string	"*\206H\206\367\r\001\001\f"
	.align	2
.LC74:
	.string	"sha384WithRSAEncryption"
	.align	2
.LC75:
	.string	"RSA with SHA-384"
	.align	2
.LC76:
	.string	"*\206H\206\367\r\001\001\r"
	.align	2
.LC77:
	.string	"sha512WithRSAEncryption"
	.align	2
.LC78:
	.string	"RSA with SHA-512"
	.align	2
.LC79:
	.string	"+\016\003\002\035"
	.align	2
.LC80:
	.string	"*\206H\316=\004\001"
	.align	2
.LC81:
	.string	"ecdsa-with-SHA1"
	.align	2
.LC82:
	.string	"ECDSA with SHA1"
	.align	2
.LC83:
	.string	"*\206H\316=\004\003\001"
	.align	2
.LC84:
	.string	"ecdsa-with-SHA224"
	.align	2
.LC85:
	.string	"ECDSA with SHA224"
	.align	2
.LC86:
	.string	"*\206H\316=\004\003\002"
	.align	2
.LC87:
	.string	"ecdsa-with-SHA256"
	.align	2
.LC88:
	.string	"ECDSA with SHA256"
	.align	2
.LC89:
	.string	"*\206H\316=\004\003\003"
	.align	2
.LC90:
	.string	"ecdsa-with-SHA384"
	.align	2
.LC91:
	.string	"ECDSA with SHA384"
	.align	2
.LC92:
	.string	"*\206H\316=\004\003\004"
	.align	2
.LC93:
	.string	"ecdsa-with-SHA512"
	.align	2
.LC94:
	.string	"ECDSA with SHA512"
	.align	2
.LC95:
	.string	"*\206H\206\367\r\001\001\n"
	.align	2
.LC96:
	.string	"RSASSA-PSS"
	.align	2
.LC97:
	.string	"+\006\001\005\005\007\003\001"
	.align	2
.LC98:
	.string	"id-kp-serverAuth"
	.align	2
.LC99:
	.string	"TLS Web Server Authentication"
	.align	2
.LC100:
	.string	"+\006\001\005\005\007\003\002"
	.align	2
.LC101:
	.string	"id-kp-clientAuth"
	.align	2
.LC102:
	.string	"TLS Web Client Authentication"
	.align	2
.LC103:
	.string	"+\006\001\005\005\007\003\003"
	.align	2
.LC104:
	.string	"id-kp-codeSigning"
	.align	2
.LC105:
	.string	"Code Signing"
	.align	2
.LC106:
	.string	"+\006\001\005\005\007\003\004"
	.align	2
.LC107:
	.string	"id-kp-emailProtection"
	.align	2
.LC108:
	.string	"E-mail Protection"
	.align	2
.LC109:
	.string	"+\006\001\005\005\007\003\b"
	.align	2
.LC110:
	.string	"id-kp-timeStamping"
	.align	2
.LC111:
	.string	"Time Stamping"
	.align	2
.LC112:
	.string	"+\006\001\005\005\007\003\t"
	.align	2
.LC113:
	.string	"id-kp-OCSPSigning"
	.align	2
.LC114:
	.string	"OCSP Signing"
	.align	2
.LC115:
	.string	"U\035\023"
	.align	2
.LC116:
	.string	"id-ce-basicConstraints"
	.align	2
.LC117:
	.string	"Basic Constraints"
	.align	2
.LC118:
	.string	"U\035\017"
	.align	2
.LC119:
	.string	"id-ce-keyUsage"
	.align	2
.LC120:
	.string	"Key Usage"
	.align	2
.LC121:
	.string	"U\035%"
	.align	2
.LC122:
	.string	"id-ce-extKeyUsage"
	.align	2
.LC123:
	.string	"Extended Key Usage"
	.align	2
.LC124:
	.string	"U\035\021"
	.align	2
.LC125:
	.string	"id-ce-subjectAltName"
	.align	2
.LC126:
	.string	"Subject Alt Name"
	.align	2
.LC127:
	.string	"`\206H\001\206\370B\001\001"
	.align	2
.LC128:
	.string	"id-netscape-certtype"
	.align	2
.LC129:
	.string	"Netscape Certificate Type"
	.align	2
.LC130:
	.string	"U\004\003"
	.align	2
.LC131:
	.string	"id-at-commonName"
	.align	2
.LC132:
	.string	"Common Name"
	.align	2
.LC133:
	.string	"CN"
	.align	2
.LC134:
	.string	"U\004\006"
	.align	2
.LC135:
	.string	"id-at-countryName"
	.align	2
.LC136:
	.string	"Country"
	.align	2
.LC137:
	.string	"C"
	.align	2
.LC138:
	.string	"U\004\007"
	.align	2
.LC139:
	.string	"id-at-locality"
	.align	2
.LC140:
	.string	"Locality"
	.align	2
.LC141:
	.string	"L"
	.align	2
.LC142:
	.string	"U\004\b"
	.align	2
.LC143:
	.string	"id-at-state"
	.align	2
.LC144:
	.string	"State"
	.align	2
.LC145:
	.string	"ST"
	.align	2
.LC146:
	.string	"U\004\n"
	.align	2
.LC147:
	.string	"id-at-organizationName"
	.align	2
.LC148:
	.string	"Organization"
	.align	2
.LC149:
	.string	"O"
	.align	2
.LC150:
	.string	"U\004\013"
	.align	2
.LC151:
	.string	"id-at-organizationalUnitName"
	.align	2
.LC152:
	.string	"Org Unit"
	.align	2
.LC153:
	.string	"OU"
	.align	2
.LC154:
	.string	"*\206H\206\367\r\001\t\001"
	.align	2
.LC155:
	.string	"emailAddress"
	.align	2
.LC156:
	.string	"E-mail address"
	.align	2
.LC157:
	.string	"U\004\005"
	.align	2
.LC158:
	.string	"id-at-serialNumber"
	.align	2
.LC159:
	.string	"Serial number"
	.align	2
.LC160:
	.string	"serialNumber"
	.align	2
.LC161:
	.string	"U\004\020"
	.align	2
.LC162:
	.string	"id-at-postalAddress"
	.align	2
.LC163:
	.string	"Postal address"
	.align	2
.LC164:
	.string	"postalAddress"
	.align	2
.LC165:
	.string	"U\004\021"
	.align	2
.LC166:
	.string	"id-at-postalCode"
	.align	2
.LC167:
	.string	"Postal code"
	.align	2
.LC168:
	.string	"postalCode"
	.align	2
.LC169:
	.string	"U\004\004"
	.align	2
.LC170:
	.string	"id-at-surName"
	.align	2
.LC171:
	.string	"Surname"
	.align	2
.LC172:
	.string	"SN"
	.align	2
.LC173:
	.string	"U\004*"
	.align	2
.LC174:
	.string	"id-at-givenName"
	.align	2
.LC175:
	.string	"Given name"
	.align	2
.LC176:
	.string	"GN"
	.align	2
.LC177:
	.string	"U\004+"
	.align	2
.LC178:
	.string	"id-at-initials"
	.align	2
.LC179:
	.string	"Initials"
	.align	2
.LC180:
	.string	"initials"
	.align	2
.LC181:
	.string	"U\004,"
	.align	2
.LC182:
	.string	"id-at-generationQualifier"
	.align	2
.LC183:
	.string	"Generation qualifier"
	.align	2
.LC184:
	.string	"generationQualifier"
	.align	2
.LC185:
	.string	"U\004\f"
	.align	2
.LC186:
	.string	"id-at-title"
	.align	2
.LC187:
	.string	"Title"
	.align	2
.LC188:
	.string	"title"
	.align	2
.LC189:
	.string	"U\004."
	.align	2
.LC190:
	.string	"id-at-dnQualifier"
	.align	2
.LC191:
	.string	"Distinguished Name qualifier"
	.align	2
.LC192:
	.string	"dnQualifier"
	.align	2
.LC193:
	.string	"U\004A"
	.align	2
.LC194:
	.string	"id-at-pseudonym"
	.align	2
.LC195:
	.string	"Pseudonym"
	.align	2
.LC196:
	.string	"pseudonym"
	.align	2
.LC197:
	.string	"\t\222&\211\223\362,d\001\031"
	.align	2
.LC198:
	.string	"id-domainComponent"
	.align	2
.LC199:
	.string	"Domain component"
	.align	2
.LC200:
	.string	"DC"
	.align	2
.LC201:
	.string	"U\004-"
	.align	2
.LC202:
	.string	"id-at-uniqueIdentifier"
	.align	2
.LC203:
	.string	"Unique Identifier"
	.align	2
.LC204:
	.string	"uniqueIdentifier"
	.section	.rodata
	.align	2
.LC41:
	.string	"+\201\004"
	.string	"!"
	.zero	2
.LC45:
	.string	"+\201\004"
	.string	" "
	.zero	2
.LC47:
	.string	"+\201\004"
	.string	"\n"
	.section	.rodata.oid_cipher_alg,"a"
	.align	2
	.set	.LANCHOR6,. + 0
	.type	oid_cipher_alg, @object
	.size	oid_cipher_alg, 60
oid_cipher_alg:
	.word	.LC35
	.word	5
	.word	.LC36
	.word	.LC37
	.word	33
	.word	.LC38
	.word	8
	.word	.LC39
	.word	.LC40
	.word	37
	.word	0
	.word	0
	.word	0
	.word	0
	.word	0
	.section	.rodata.oid_ecp_grp,"a"
	.align	2
	.set	.LANCHOR5,. + 0
	.type	oid_ecp_grp, @object
	.size	oid_ecp_grp, 120
oid_ecp_grp:
	.word	.LC41
	.word	5
	.word	.LC42
	.word	.LC42
	.word	2
	.word	.LC43
	.word	8
	.word	.LC44
	.word	.LC44
	.word	3
	.word	.LC45
	.word	5
	.word	.LC46
	.word	.LC46
	.word	11
	.word	.LC47
	.word	5
	.word	.LC48
	.word	.LC48
	.word	12
	.word	.LC49
	.word	9
	.word	.LC50
	.word	.LC51
	.word	6
	.word	0
	.word	0
	.word	0
	.word	0
	.word	0
	.section	.rodata.oid_ext_key_usage,"a"
	.align	2
	.set	.LANCHOR3,. + 0
	.type	oid_ext_key_usage, @object
	.size	oid_ext_key_usage, 112
oid_ext_key_usage:
	.word	.LC97
	.word	8
	.word	.LC98
	.word	.LC99
	.word	.LC100
	.word	8
	.word	.LC101
	.word	.LC102
	.word	.LC103
	.word	8
	.word	.LC104
	.word	.LC105
	.word	.LC106
	.word	8
	.word	.LC107
	.word	.LC108
	.word	.LC109
	.word	8
	.word	.LC110
	.word	.LC111
	.word	.LC112
	.word	8
	.word	.LC113
	.word	.LC114
	.word	0
	.word	0
	.word	0
	.word	0
	.section	.rodata.oid_md_alg,"a"
	.align	2
	.set	.LANCHOR7,. + 0
	.type	oid_md_alg, @object
	.size	oid_md_alg, 140
oid_md_alg:
	.word	.LC17
	.word	8
	.word	.LC18
	.word	.LC19
	.word	3
	.word	.LC20
	.word	5
	.word	.LC21
	.word	.LC22
	.word	4
	.word	.LC23
	.word	9
	.word	.LC24
	.word	.LC25
	.word	5
	.word	.LC26
	.word	9
	.word	.LC27
	.word	.LC28
	.word	6
	.word	.LC29
	.word	9
	.word	.LC30
	.word	.LC31
	.word	7
	.word	.LC32
	.word	9
	.word	.LC33
	.word	.LC34
	.word	8
	.word	0
	.word	0
	.word	0
	.word	0
	.word	0
	.section	.rodata.oid_md_hmac,"a"
	.align	2
	.set	.LANCHOR8,. + 0
	.type	oid_md_hmac, @object
	.size	oid_md_hmac, 120
oid_md_hmac:
	.word	.LC2
	.word	8
	.word	.LC3
	.word	.LC4
	.word	4
	.word	.LC5
	.word	8
	.word	.LC6
	.word	.LC7
	.word	5
	.word	.LC8
	.word	8
	.word	.LC9
	.word	.LC10
	.word	6
	.word	.LC11
	.word	8
	.word	.LC12
	.word	.LC13
	.word	7
	.word	.LC14
	.word	8
	.word	.LC15
	.word	.LC16
	.word	8
	.word	0
	.word	0
	.word	0
	.word	0
	.word	0
	.section	.rodata.oid_pk_alg,"a"
	.align	2
	.set	.LANCHOR4,. + 0
	.type	oid_pk_alg, @object
	.size	oid_pk_alg, 80
oid_pk_alg:
	.word	.LC52
	.word	9
	.word	.LC53
	.word	.LC54
	.word	1
	.word	.LC55
	.word	7
	.word	.LC56
	.word	.LC57
	.word	2
	.word	.LC58
	.word	5
	.word	.LC59
	.word	.LC60
	.word	3
	.word	0
	.word	0
	.word	0
	.word	0
	.word	0
	.section	.rodata.oid_sig_alg,"a"
	.align	2
	.set	.LANCHOR0,. + 0
	.type	oid_sig_alg, @object
	.size	oid_sig_alg, 336
oid_sig_alg:
	.word	.LC61
	.word	9
	.word	.LC62
	.word	.LC63
	.word	3
	.word	1
	.word	.LC64
	.word	9
	.word	.LC65
	.word	.LC66
	.word	4
	.word	1
	.word	.LC67
	.word	9
	.word	.LC68
	.word	.LC69
	.word	5
	.word	1
	.word	.LC70
	.word	9
	.word	.LC71
	.word	.LC72
	.word	6
	.word	1
	.word	.LC73
	.word	9
	.word	.LC74
	.word	.LC75
	.word	7
	.word	1
	.word	.LC76
	.word	9
	.word	.LC77
	.word	.LC78
	.word	8
	.word	1
	.word	.LC79
	.word	5
	.word	.LC65
	.word	.LC66
	.word	4
	.word	1
	.word	.LC80
	.word	7
	.word	.LC81
	.word	.LC82
	.word	4
	.word	4
	.word	.LC83
	.word	8
	.word	.LC84
	.word	.LC85
	.word	5
	.word	4
	.word	.LC86
	.word	8
	.word	.LC87
	.word	.LC88
	.word	6
	.word	4
	.word	.LC89
	.word	8
	.word	.LC90
	.word	.LC91
	.word	7
	.word	4
	.word	.LC92
	.word	8
	.word	.LC93
	.word	.LC94
	.word	8
	.word	4
	.word	.LC95
	.word	9
	.word	.LC96
	.word	.LC96
	.word	0
	.word	6
	.word	0
	.word	0
	.word	0
	.word	0
	.word	0
	.word	0
	.section	.rodata.oid_x509_ext,"a"
	.align	2
	.set	.LANCHOR2,. + 0
	.type	oid_x509_ext, @object
	.size	oid_x509_ext, 120
oid_x509_ext:
	.word	.LC115
	.word	3
	.word	.LC116
	.word	.LC117
	.word	256
	.word	.LC118
	.word	3
	.word	.LC119
	.word	.LC120
	.word	4
	.word	.LC121
	.word	3
	.word	.LC122
	.word	.LC123
	.word	2048
	.word	.LC124
	.word	3
	.word	.LC125
	.word	.LC126
	.word	32
	.word	.LC127
	.word	9
	.word	.LC128
	.word	.LC129
	.word	65536
	.word	0
	.word	0
	.word	0
	.word	0
	.word	0
	.section	.rodata.oid_x520_attr_type,"a"
	.align	2
	.set	.LANCHOR1,. + 0
	.type	oid_x520_attr_type, @object
	.size	oid_x520_attr_type, 400
oid_x520_attr_type:
	.word	.LC130
	.word	3
	.word	.LC131
	.word	.LC132
	.word	.LC133
	.word	.LC134
	.word	3
	.word	.LC135
	.word	.LC136
	.word	.LC137
	.word	.LC138
	.word	3
	.word	.LC139
	.word	.LC140
	.word	.LC141
	.word	.LC142
	.word	3
	.word	.LC143
	.word	.LC144
	.word	.LC145
	.word	.LC146
	.word	3
	.word	.LC147
	.word	.LC148
	.word	.LC149
	.word	.LC150
	.word	3
	.word	.LC151
	.word	.LC152
	.word	.LC153
	.word	.LC154
	.word	9
	.word	.LC155
	.word	.LC156
	.word	.LC155
	.word	.LC157
	.word	3
	.word	.LC158
	.word	.LC159
	.word	.LC160
	.word	.LC161
	.word	3
	.word	.LC162
	.word	.LC163
	.word	.LC164
	.word	.LC165
	.word	3
	.word	.LC166
	.word	.LC167
	.word	.LC168
	.word	.LC169
	.word	3
	.word	.LC170
	.word	.LC171
	.word	.LC172
	.word	.LC173
	.word	3
	.word	.LC174
	.word	.LC175
	.word	.LC176
	.word	.LC177
	.word	3
	.word	.LC178
	.word	.LC179
	.word	.LC180
	.word	.LC181
	.word	3
	.word	.LC182
	.word	.LC183
	.word	.LC184
	.word	.LC185
	.word	3
	.word	.LC186
	.word	.LC187
	.word	.LC188
	.word	.LC189
	.word	3
	.word	.LC190
	.word	.LC191
	.word	.LC192
	.word	.LC193
	.word	3
	.word	.LC194
	.word	.LC195
	.word	.LC196
	.word	.LC197
	.word	10
	.word	.LC198
	.word	.LC199
	.word	.LC200
	.word	.LC201
	.word	3
	.word	.LC202
	.word	.LC203
	.word	.LC204
	.word	0
	.word	0
	.word	0
	.word	0
	.word	0
	.text
.Letext0:
	.file 2 "/mnt/d/GitHub/bl_iot_sdk_for_aithinker/components/security/mbedtls_lts/mbedtls/include/mbedtls/asn1.h"
	.file 3 "/mnt/d/GitHub/bl_iot_sdk_for_aithinker/toolchain/riscv/Linux/lib/gcc/riscv64-unknown-elf/10.2.0/include/stddef.h"
	.file 4 "/mnt/d/GitHub/bl_iot_sdk_for_aithinker/components/security/mbedtls_lts/mbedtls/include/mbedtls/md.h"
	.file 5 "/mnt/d/GitHub/bl_iot_sdk_for_aithinker/components/security/mbedtls_lts/mbedtls/include/mbedtls/ecp.h"
	.file 6 "/mnt/d/GitHub/bl_iot_sdk_for_aithinker/components/security/mbedtls_lts/mbedtls/include/mbedtls/pk.h"
	.file 7 "/mnt/d/GitHub/bl_iot_sdk_for_aithinker/components/security/mbedtls_lts/mbedtls/include/mbedtls/cipher.h"
	.file 8 "/mnt/d/GitHub/bl_iot_sdk_for_aithinker/components/security/mbedtls_lts/mbedtls/include/mbedtls/oid.h"
	.file 9 "/mnt/d/GitHub/bl_iot_sdk_for_aithinker/toolchain/riscv/Linux/riscv64-unknown-elf/include/stdio.h"
	.file 10 "/mnt/d/GitHub/bl_iot_sdk_for_aithinker/toolchain/riscv/Linux/riscv64-unknown-elf/include/string.h"