	.file	"pem.c"
	.option nopic
	.attribute arch, "rv32i2p0_m2p0_f2p0_c2p0"
	.attribute unaligned_access, 0
	.attribute stack_align, 16
	.text
.Ltext0:
	.cfi_sections	.debug_frame
	.section	.text.pem_aes_decrypt,"ax",@progbits
	.align	1
	.type	pem_aes_decrypt, @function
pem_aes_decrypt:
.LFB14:
	.file 1 "/mnt/d/GitHub/bl_iot_sdk_for_aithinker/components/security/mbedtls_lts/mbedtls/library/pem.c"
	.loc 1 229 1
	.cfi_startproc
.LVL0:
	.loc 1 230 5
	.loc 1 231 5
	.loc 1 232 5
	.loc 1 234 5
	.loc 1 229 1 is_stmt 0
	addi	sp,sp,-448
	.cfi_def_cfa_offset 448
	sw	s2,432(sp)
	.cfi_offset 18, -16
	mv	s2,a0
	.loc 1 234 5
	addi	a0,sp,136
.LVL1:
	.loc 1 229 1
	sw	ra,444(sp)
	sw	s0,440(sp)
	sw	s1,436(sp)
	sw	s3,428(sp)
	.cfi_offset 1, -4
	.cfi_offset 8, -8
	.cfi_offset 9, -12
	.cfi_offset 19, -20
	mv	s1,a1
	mv	s3,a3
	sw	s4,424(sp)
	sw	s5,420(sp)
	.cfi_offset 20, -24
	.cfi_offset 21, -28
	mv	s4,a2
	mv	s5,a4
	sw	s6,416(sp)
	.cfi_offset 22, -32
	.loc 1 229 1
	mv	s6,a5
	.loc 1 234 5
	call	mbedtls_aes_init
.LVL2:
	.loc 1 236 5 is_stmt 1
.LBB4:
.LBB5:
	.loc 1 110 5
	.loc 1 111 5
	.loc 1 112 5
	.loc 1 113 5
	.loc 1 115 5
	addi	a0,sp,48
	call	mbedtls_md5_init
.LVL3:
	.loc 1 120 5
	.loc 1 120 17 is_stmt 0
	addi	a0,sp,48
	call	mbedtls_md5_starts_ret
.LVL4:
	mv	s0,a0
.LVL5:
	.loc 1 120 7
	bne	a0,zero,.L2
	.loc 1 122 5 is_stmt 1
	.loc 1 122 17 is_stmt 0
	mv	a2,s6
	mv	a1,s5
	addi	a0,sp,48
	call	mbedtls_md5_update_ret
.LVL6:
	mv	s0,a0
.LVL7:
	.loc 1 122 7
	bne	a0,zero,.L2
	.loc 1 124 5 is_stmt 1
	.loc 1 124 17 is_stmt 0
	li	a2,8
	mv	a1,s2
	addi	a0,sp,48
	call	mbedtls_md5_update_ret
.LVL8:
	mv	s0,a0
.LVL9:
	.loc 1 124 7
	bne	a0,zero,.L2
	.loc 1 126 5 is_stmt 1
	.loc 1 126 17 is_stmt 0
	mv	a1,sp
	addi	a0,sp,48
	call	mbedtls_md5_finish_ret
.LVL10:
	mv	s0,a0
.LVL11:
	.loc 1 126 7
	bne	a0,zero,.L2
	.loc 1 129 5 is_stmt 1
	.loc 1 129 7 is_stmt 0
	li	a5,16
	.loc 1 131 9
	li	a2,16
	mv	a1,sp
	addi	a0,sp,16
.LVL12:
	.loc 1 129 7
	bne	s1,a5,.L3
.LVL13:
.L8:
	.loc 1 155 5
	call	memcpy
.LVL14:
.L2:
	.loc 1 158 5 is_stmt 1
	addi	a0,sp,48
	call	mbedtls_md5_free
.LVL15:
	.loc 1 159 5
	li	a1,16
	mv	a0,sp
	call	mbedtls_platform_zeroize
.LVL16:
	.loc 1 161 5
.LBE5:
.LBE4:
	.loc 1 236 7 is_stmt 0
	bne	s0,zero,.L5
.LVL17:
	.loc 1 239 5 is_stmt 1
	.loc 1 239 17 is_stmt 0
	slli	a2,s1,3
	addi	a1,sp,16
	addi	a0,sp,136
	call	mbedtls_aes_setkey_dec
.LVL18:
	mv	s0,a0
.LVL19:
	.loc 1 239 7
	bne	a0,zero,.L5
	.loc 1 241 5 is_stmt 1
	.loc 1 241 11 is_stmt 0
	mv	a5,s4
	mv	a4,s4
	mv	a3,s2
	mv	a2,s3
	li	a1,0
	addi	a0,sp,136
	call	mbedtls_aes_crypt_cbc
.LVL20:
	mv	s0,a0
.LVL21:
.L5:
	.loc 1 245 5 is_stmt 1
	addi	a0,sp,136
	call	mbedtls_aes_free
.LVL22:
	.loc 1 246 5
	addi	a0,sp,16
	mv	a1,s1
	call	mbedtls_platform_zeroize
.LVL23:
	.loc 1 248 5
	.loc 1 249 1 is_stmt 0
	lw	ra,444(sp)
	.cfi_remember_state
	.cfi_restore 1
	mv	a0,s0
	lw	s0,440(sp)
	.cfi_restore 8
.LVL24:
	lw	s1,436(sp)
	.cfi_restore 9
.LVL25:
	lw	s2,432(sp)
	.cfi_restore 18
.LVL26:
	lw	s3,428(sp)
	.cfi_restore 19
.LVL27:
	lw	s4,424(sp)
	.cfi_restore 20
.LVL28:
	lw	s5,420(sp)
	.cfi_restore 21
.LVL29:
	lw	s6,416(sp)
	.cfi_restore 22
.LVL30:
	addi	sp,sp,448
	.cfi_def_cfa_offset 0
	jr	ra
.LVL31:
.L3:
	.cfi_restore_state
.LBB7:
.LBB6:
	.loc 1 135 5 is_stmt 1
	call	memcpy
.LVL32:
	.loc 1 140 5
	.loc 1 140 17 is_stmt 0
	addi	a0,sp,48
	call	mbedtls_md5_starts_ret
.LVL33:
	mv	s0,a0
.LVL34:
	.loc 1 140 7
	bne	a0,zero,.L2
	.loc 1 142 5 is_stmt 1
	.loc 1 142 17 is_stmt 0
	li	a2,16
	mv	a1,sp
	addi	a0,sp,48
	call	mbedtls_md5_update_ret
.LVL35:
	mv	s0,a0
.LVL36:
	.loc 1 142 7
	bne	a0,zero,.L2
	.loc 1 144 5 is_stmt 1
	.loc 1 144 17 is_stmt 0
	mv	a2,s6
	mv	a1,s5
	addi	a0,sp,48
	call	mbedtls_md5_update_ret
.LVL37:
	mv	s0,a0
.LVL38:
	.loc 1 144 7
	bne	a0,zero,.L2
	.loc 1 146 5 is_stmt 1
	.loc 1 146 17 is_stmt 0
	li	a2,8
	mv	a1,s2
	addi	a0,sp,48
	call	mbedtls_md5_update_ret
.LVL39:
	mv	s0,a0
.LVL40:
	.loc 1 146 7
	bne	a0,zero,.L2
	.loc 1 148 5 is_stmt 1
	.loc 1 148 17 is_stmt 0
	mv	a1,sp
	addi	a0,sp,48
	call	mbedtls_md5_finish_ret
.LVL41:
	mv	s0,a0
.LVL42:
	.loc 1 148 7
	bne	a0,zero,.L2
	.loc 1 151 5 is_stmt 1
.LVL43:
	.loc 1 152 5
	.loc 1 152 7 is_stmt 0
	li	a5,32
	.loc 1 151 13
	li	a2,16
	.loc 1 152 7
	beq	s1,a5,.L4
	.loc 1 153 9 is_stmt 1
	.loc 1 153 17 is_stmt 0
	addi	a2,s1,-16
.LVL44:
.L4:
	.loc 1 155 5 is_stmt 1
	mv	a1,sp
	addi	a0,sp,32
	j	.L8
.LBE6:
.LBE7:
	.cfi_endproc
.LFE14:
	.size	pem_aes_decrypt, .-pem_aes_decrypt
	.section	.text.mbedtls_pem_init,"ax",@progbits
	.align	1
	.globl	mbedtls_pem_init
	.type	mbedtls_pem_init, @function
mbedtls_pem_init:
.LFB11:
	.loc 1 75 1
	.cfi_startproc
.LVL45:
	.loc 1 76 5
	li	a2,12
	li	a1,0
	tail	memset
.LVL46:
	.cfi_endproc
.LFE11:
	.size	mbedtls_pem_init, .-mbedtls_pem_init
	.section	.rodata.mbedtls_pem_read_buffer.str1.4,"aMS",@progbits,1
	.align	2
.LC0:
	.string	"Proc-Type: 4,ENCRYPTED"
	.align	2
.LC1:
	.string	"DEK-Info: AES-"
	.align	2
.LC2:
	.string	"DEK-Info: AES-128-CBC,"
	.align	2
.LC3:
	.string	"DEK-Info: AES-192-CBC,"
	.align	2
.LC4:
	.string	"DEK-Info: AES-256-CBC,"
	.section	.text.mbedtls_pem_read_buffer,"ax",@progbits
	.align	1
	.globl	mbedtls_pem_read_buffer
	.type	mbedtls_pem_read_buffer, @function
mbedtls_pem_read_buffer:
.LFB15:
	.loc 1 258 1
	.cfi_startproc
.LVL47:
	.loc 1 259 5
	.loc 1 260 5
	.loc 1 261 5
	.loc 1 262 5
	.loc 1 265 5
	.loc 1 266 5
	.loc 1 273 5
	.loc 1 258 1 is_stmt 0
	addi	sp,sp,-80
	.cfi_def_cfa_offset 80
	sw	ra,76(sp)
	sw	s0,72(sp)
	sw	s1,68(sp)
	sw	s2,64(sp)
	sw	s3,60(sp)
	sw	s4,56(sp)
	sw	s5,52(sp)
	sw	s6,48(sp)
	sw	s7,44(sp)
	sw	s8,40(sp)
	.cfi_offset 1, -4
	.cfi_offset 8, -8
	.cfi_offset 9, -12
	.cfi_offset 18, -16
	.cfi_offset 19, -20
	.cfi_offset 20, -24
	.cfi_offset 21, -28
	.cfi_offset 22, -32
	.cfi_offset 23, -36
	.cfi_offset 24, -40
	.loc 1 273 7
	beq	a0,zero,.L45
	mv	s2,a0
	.loc 1 276 28
	mv	a0,a3
.LVL48:
	mv	s6,a1
	mv	s8,a2
	mv	s7,a3
	mv	s3,a4
	mv	s4,a5
	mv	s5,a6
	.loc 1 276 5 is_stmt 1
	.loc 1 276 28 is_stmt 0
	call	strstr
.LVL49:
	mv	s0,a0
.LVL50:
	.loc 1 278 5 is_stmt 1
	.loc 1 278 7 is_stmt 0
	bne	a0,zero,.L12
.L13:
	.loc 1 279 15
	li	s0,-4096
.LVL51:
	addi	s0,s0,-128
.LVL52:
.L10:
	.loc 1 447 1
	lw	ra,76(sp)
	.cfi_remember_state
	.cfi_restore 1
	mv	a0,s0
	lw	s0,72(sp)
	.cfi_restore 8
	lw	s1,68(sp)
	.cfi_restore 9
	lw	s2,64(sp)
	.cfi_restore 18
	lw	s3,60(sp)
	.cfi_restore 19
	lw	s4,56(sp)
	.cfi_restore 20
	lw	s5,52(sp)
	.cfi_restore 21
	lw	s6,48(sp)
	.cfi_restore 22
	lw	s7,44(sp)
	.cfi_restore 23
	lw	s8,40(sp)
	.cfi_restore 24
	addi	sp,sp,80
	.cfi_def_cfa_offset 0
	jr	ra
.LVL53:
.L12:
	.cfi_restore_state
	.loc 1 281 5 is_stmt 1
	.loc 1 281 28 is_stmt 0
	mv	a1,s8
	mv	a0,s7
	call	strstr
.LVL54:
	mv	s1,a0
.LVL55:
	.loc 1 283 5 is_stmt 1
	.loc 1 283 7 is_stmt 0
	beq	a0,zero,.L13
	.loc 1 283 19 discriminator 1
	bgeu	s0,a0,.L13
	.loc 1 286 5 is_stmt 1
	.loc 1 286 11 is_stmt 0
	mv	a0,s6
	call	strlen
.LVL56:
	.loc 1 286 8
	add	s0,s0,a0
.LVL57:
	.loc 1 287 5 is_stmt 1
	.loc 1 287 7 is_stmt 0
	lbu	a4,0(s0)
	li	a5,32
	bne	a4,a5,.L14
	.loc 1 287 22 is_stmt 1 discriminator 1
	.loc 1 287 24 is_stmt 0 discriminator 1
	addi	s0,s0,1
.LVL58:
.L14:
	.loc 1 288 5 is_stmt 1
	.loc 1 288 7 is_stmt 0
	lbu	a4,0(s0)
	li	a5,13
	bne	a4,a5,.L15
	.loc 1 288 23 is_stmt 1 discriminator 1
	.loc 1 288 25 is_stmt 0 discriminator 1
	addi	s0,s0,1
.LVL59:
.L15:
	.loc 1 289 5 is_stmt 1
	.loc 1 289 7 is_stmt 0
	lbu	a4,0(s0)
	li	a5,10
	bne	a4,a5,.L13
	.loc 1 289 23 is_stmt 1 discriminator 1
	.loc 1 293 12 is_stmt 0 discriminator 1
	mv	a0,s8
	call	strlen
.LVL60:
	.loc 1 293 9 discriminator 1
	add	a2,s1,a0
	.loc 1 294 7 discriminator 1
	lbu	a4,0(a2)
	li	a5,32
	.loc 1 289 25 discriminator 1
	addi	s6,s0,1
.LVL61:
	.loc 1 292 5 is_stmt 1 discriminator 1
	.loc 1 293 5 discriminator 1
	.loc 1 294 5 discriminator 1
	.loc 1 294 7 is_stmt 0 discriminator 1
	bne	a4,a5,.L16
	.loc 1 294 23 is_stmt 1 discriminator 1
	.loc 1 294 26 is_stmt 0 discriminator 1
	addi	a2,a2,1
.LVL62:
.L16:
	.loc 1 295 5 is_stmt 1
	.loc 1 295 7 is_stmt 0
	lbu	a4,0(a2)
	li	a5,13
	bne	a4,a5,.L17
	.loc 1 295 24 is_stmt 1 discriminator 1
	.loc 1 295 27 is_stmt 0 discriminator 1
	addi	a2,a2,1
.LVL63:
.L17:
	.loc 1 296 5 is_stmt 1
	.loc 1 296 7 is_stmt 0
	lbu	a4,0(a2)
	li	a5,10
	bne	a4,a5,.L18
	.loc 1 296 24 is_stmt 1 discriminator 1
	.loc 1 296 27 is_stmt 0 discriminator 1
	addi	a2,a2,1
.LVL64:
.L18:
	.loc 1 297 5 is_stmt 1
	.loc 1 297 20 is_stmt 0
	sub	a2,a2,s7
.LVL65:
	.loc 1 297 14
	sw	a2,0(s5)
	.loc 1 299 5 is_stmt 1
.LVL66:
	.loc 1 301 5
	.loc 1 301 12 is_stmt 0
	sub	a5,s1,s6
	.loc 1 301 7
	li	a4,21
	ble	a5,a4,.L47
	.loc 1 301 26 discriminator 1
	lui	a1,%hi(.LC0)
	li	a2,22
	addi	a1,a1,%lo(.LC0)
	mv	a0,s6
	call	memcmp
.LVL67:
	.loc 1 301 23 discriminator 1
	bne	a0,zero,.L47
	.loc 1 305 9 is_stmt 1
.LVL68:
	.loc 1 307 9
	.loc 1 308 9
	.loc 1 308 13 is_stmt 0
	lbu	a5,23(s0)
	.loc 1 308 11
	li	a4,13
	.loc 1 307 12
	addi	s5,s0,23
.LVL69:
	.loc 1 308 11
	bne	a5,a4,.L21
	.loc 1 308 27 is_stmt 1 discriminator 1
	.loc 1 308 29 is_stmt 0 discriminator 1
	lbu	a5,24(s0)
	addi	s5,s0,24
.LVL70:
.L21:
	.loc 1 309 9 is_stmt 1
	.loc 1 309 11 is_stmt 0
	li	a4,10
	beq	a5,a4,.L22
.LVL71:
.L34:
	.loc 1 310 20
	li	s0,-4096
	addi	s0,s0,-256
	j	.L10
.LVL72:
.L22:
	.loc 1 309 27 is_stmt 1 discriminator 1
	.loc 1 309 29 is_stmt 0 discriminator 1
	addi	s0,s5,1
.LVL73:
	.loc 1 337 9 is_stmt 1 discriminator 1
	.loc 1 337 16 is_stmt 0 discriminator 1
	sub	s6,s1,s0
	.loc 1 337 11 discriminator 1
	li	a5,13
	bgt	s6,a5,.L23
.LVL74:
.L24:
	.loc 1 359 19
	li	s0,-4096
.LVL75:
	addi	s0,s0,-640
	j	.L10
.LVL76:
.L23:
	.loc 1 337 30 discriminator 1
	lui	a1,%hi(.LC1)
	li	a2,14
	addi	a1,a1,%lo(.LC1)
	mv	a0,s0
	call	memcmp
.LVL77:
	.loc 1 337 27 discriminator 1
	bne	a0,zero,.L24
	.loc 1 339 13 is_stmt 1
	.loc 1 339 15 is_stmt 0
	li	a5,21
	ble	s6,a5,.L24
	.loc 1 341 18 is_stmt 1
	.loc 1 341 22 is_stmt 0
	lui	a1,%hi(.LC2)
	li	a2,22
	addi	a1,a1,%lo(.LC2)
	mv	a0,s0
	call	memcmp
.LVL78:
	.loc 1 342 25
	li	s7,5
.LVL79:
	.loc 1 341 20
	beq	a0,zero,.L25
	.loc 1 343 18 is_stmt 1
	.loc 1 343 22 is_stmt 0
	lui	a1,%hi(.LC3)
	li	a2,22
	addi	a1,a1,%lo(.LC3)
	mv	a0,s0
	call	memcmp
.LVL80:
	.loc 1 344 25
	li	s7,6
	.loc 1 343 20
	beq	a0,zero,.L25
	.loc 1 345 18 is_stmt 1
	.loc 1 345 22 is_stmt 0
	lui	a1,%hi(.LC4)
	li	a2,22
	addi	a1,a1,%lo(.LC4)
	mv	a0,s0
	call	memcmp
.LVL81:
	.loc 1 345 20
	bne	a0,zero,.L24
	.loc 1 346 25
	li	s7,7
.L25:
.LVL82:
	.loc 1 350 13 is_stmt 1
	.loc 1 351 13
	.loc 1 350 16 is_stmt 0
	addi	a5,s5,23
.LVL83:
	.loc 1 351 20
	sub	a5,s1,a5
.LVL84:
	.loc 1 351 15
	li	a4,31
	bgt	a5,a4,.L26
.L30:
	.loc 1 352 23
	li	s0,-4096
	addi	s0,s0,-512
	j	.L10
.L26:
.LVL85:
.LBB10:
.LBB11:
	.loc 1 87 5 is_stmt 1
	.loc 1 89 5
	li	a2,16
	li	a1,0
	addi	a0,sp,16
.LVL86:
	call	memset
.LVL87:
	.loc 1 91 5
	.loc 1 91 17
	.loc 1 91 12 is_stmt 0
	li	a5,0
	.loc 1 93 11
	li	a6,9
	.loc 1 94 11
	li	a2,5
	.loc 1 91 5
	li	a1,32
.LVL88:
.L32:
	.loc 1 93 9 is_stmt 1
	.loc 1 93 13 is_stmt 0
	add	a4,s5,a5
	lbu	a4,23(a4)
	.loc 1 93 23
	addi	a3,a4,-48
	.loc 1 93 11
	andi	a0,a3,0xff
	bleu	a0,a6,.L28
	.loc 1 94 9 is_stmt 1
	.loc 1 94 23 is_stmt 0
	addi	a3,a4,-65
	.loc 1 94 11
	andi	a3,a3,0xff
	bgtu	a3,a2,.L29
	.loc 1 94 38 is_stmt 1
	.loc 1 94 45 is_stmt 0
	addi	a3,a4,-55
.LVL89:
.L28:
	.loc 1 98 9 is_stmt 1
	.loc 1 98 19 is_stmt 0
	andi	a4,a5,1
	.loc 1 98 36
	bne	a4,zero,.L31
	slli	a3,a3,4
.LVL90:
.L31:
	.loc 1 100 9 is_stmt 1
	.loc 1 100 44 is_stmt 0
	srli	a4,a5,1
	.loc 1 100 41
	addi	a0,sp,16
.LVL91:
	add	a4,a0,a4
	.loc 1 100 22
	lbu	a0,0(a4)
.LVL92:
	.loc 1 91 34
	addi	a5,a5,1
.LVL93:
	.loc 1 100 22
	or	a3,a3,a0
.LVL94:
	.loc 1 100 20
	sb	a3,0(a4)
	.loc 1 91 33 is_stmt 1
.LVL95:
	.loc 1 91 17
	.loc 1 91 5 is_stmt 0
	bne	a5,a1,.L32
.LVL96:
.LBE11:
.LBE10:
	.loc 1 354 13 is_stmt 1
	.loc 1 358 9
	.loc 1 361 9
	.loc 1 361 11 is_stmt 0
	lbu	a4,55(s5)
	li	a5,13
	.loc 1 361 29
	addi	a3,s5,56
	.loc 1 361 11
	beq	a4,a5,.L44
	.loc 1 354 16
	addi	a3,s5,55
.LVL97:
.L44:
	.loc 1 362 9 is_stmt 1
	.loc 1 362 11 is_stmt 0
	lbu	a4,0(a3)
	li	a5,10
	bne	a4,a5,.L34
	.loc 1 362 27 is_stmt 1 discriminator 1
	.loc 1 362 29 is_stmt 0 discriminator 1
	addi	s6,a3,1
.LVL98:
	.loc 1 305 12 discriminator 1
	li	s8,1
.LVL99:
.L19:
	.loc 1 370 5 is_stmt 1
	.loc 1 370 7 is_stmt 0
	bgeu	s6,s1,.L34
	.loc 1 373 5 is_stmt 1
	.loc 1 373 55 is_stmt 0
	sub	s1,s1,s6
.LVL100:
	.loc 1 373 11
	mv	a4,s1
	mv	a3,s6
	addi	a2,sp,12
	li	a1,0
	li	a0,0
	call	mbedtls_base64_decode
.LVL101:
	.loc 1 375 5 is_stmt 1
	.loc 1 375 7 is_stmt 0
	li	a5,-44
	beq	a0,a5,.L50
	.loc 1 378 5 is_stmt 1
	.loc 1 378 17 is_stmt 0
	lw	a1,12(sp)
	li	a0,1
.LVL102:
	call	mbedtls_calloc
.LVL103:
	mv	s5,a0
.LVL104:
	.loc 1 378 7
	beq	a0,zero,.L51
	.loc 1 381 5 is_stmt 1
	.loc 1 381 17 is_stmt 0
	lw	a1,12(sp)
	mv	a3,s6
	mv	a4,s1
	addi	a2,sp,12
	call	mbedtls_base64_decode
.LVL105:
	lw	a3,12(sp)
	mv	s0,a0
.LVL106:
	.loc 1 381 7
	beq	a0,zero,.L35
	.loc 1 383 9 is_stmt 1
	mv	a1,a3
	mv	a0,s5
	call	mbedtls_platform_zeroize
.LVL107:
	.loc 1 384 9
	mv	a0,s5
	call	mbedtls_free
.LVL108:
	.loc 1 385 9
	.loc 1 385 25 is_stmt 0
	li	a0,-4096
	addi	a0,a0,-256
	add	s0,s0,a0
.LVL109:
	j	.L10
.LVL110:
.L29:
.LBB13:
.LBB12:
	.loc 1 95 9 is_stmt 1
	.loc 1 95 23 is_stmt 0
	addi	a3,a4,-97
	.loc 1 95 11
	andi	a3,a3,0xff
	bgtu	a3,a2,.L30
	.loc 1 95 38 is_stmt 1
	.loc 1 95 45 is_stmt 0
	addi	a3,a4,-87
.LVL111:
	j	.L28
.LVL112:
.L47:
.LBE12:
.LBE13:
	.loc 1 266 27
	li	s7,0
.LVL113:
	.loc 1 299 9
	li	s8,0
.LVL114:
	j	.L19
.LVL115:
.L35:
	.loc 1 388 5 is_stmt 1
	.loc 1 388 7 is_stmt 0
	beq	s8,zero,.L36
	.loc 1 392 9 is_stmt 1
	.loc 1 392 11 is_stmt 0
	bne	s3,zero,.L37
	.loc 1 394 13 is_stmt 1
	mv	a1,a3
	mv	a0,s5
	call	mbedtls_platform_zeroize
.LVL116:
	.loc 1 395 13
	mv	a0,s5
	.loc 1 396 19 is_stmt 0
	li	s0,-4096
.LVL117:
	.loc 1 395 13
	call	mbedtls_free
.LVL118:
	.loc 1 396 13 is_stmt 1
	.loc 1 396 19 is_stmt 0
	addi	s0,s0,-768
	j	.L10
.LVL119:
.L37:
	.loc 1 399 9 is_stmt 1
	.loc 1 409 9
	.loc 1 409 11 is_stmt 0
	li	a5,5
	bne	s7,a5,.L38
	.loc 1 410 13 is_stmt 1
	.loc 1 410 19 is_stmt 0
	mv	a5,s4
	mv	a4,s3
	mv	a2,s5
	li	a1,16
.LVL120:
.L66:
	.loc 1 414 19
	addi	a0,sp,16
	call	pem_aes_decrypt
.LVL121:
	mv	s0,a0
.LVL122:
	.loc 1 417 9 is_stmt 1
	.loc 1 417 11 is_stmt 0
	beq	a0,zero,.L41
	.loc 1 419 13 is_stmt 1
	mv	a0,s5
	call	mbedtls_free
.LVL123:
	.loc 1 420 13
	.loc 1 420 19 is_stmt 0
	j	.L10
.LVL124:
.L38:
	.loc 1 411 14 is_stmt 1
	.loc 1 411 16 is_stmt 0
	li	a5,6
	bne	s7,a5,.L40
	.loc 1 412 13 is_stmt 1
	.loc 1 412 19 is_stmt 0
	mv	a5,s4
	mv	a4,s3
	mv	a2,s5
	li	a1,24
	j	.L66
.L40:
	.loc 1 413 14 is_stmt 1
	.loc 1 413 16 is_stmt 0
	li	a5,7
	bne	s7,a5,.L41
	.loc 1 414 13 is_stmt 1
	.loc 1 414 19 is_stmt 0
	mv	a5,s4
	mv	a4,s3
	mv	a2,s5
	li	a1,32
	j	.L66
.LVL125:
.L41:
	.loc 1 429 9 is_stmt 1
	.loc 1 429 17 is_stmt 0
	lw	a1,12(sp)
	.loc 1 429 11
	li	a5,2
	bleu	a1,a5,.L42
	.loc 1 429 22 discriminator 1
	lbu	a4,0(s5)
	li	a5,48
	bne	a4,a5,.L42
	.loc 1 429 40 discriminator 2
	lbu	a4,1(s5)
	li	a5,131
	bleu	a4,a5,.L36
.L42:
	.loc 1 431 13 is_stmt 1
	mv	a0,s5
	call	mbedtls_platform_zeroize
.LVL126:
	.loc 1 432 13
	mv	a0,s5
	.loc 1 433 19 is_stmt 0
	li	s0,-4096
	.loc 1 432 13
	call	mbedtls_free
.LVL127:
	.loc 1 433 13 is_stmt 1
	.loc 1 433 19 is_stmt 0
	addi	s0,s0,-896
	j	.L10
.L36:
	.loc 1 443 5 is_stmt 1
	.loc 1 444 17 is_stmt 0
	lw	a5,12(sp)
	.loc 1 443 14
	sw	s5,0(s2)
	.loc 1 444 5 is_stmt 1
	.loc 1 446 11 is_stmt 0
	li	s0,0
	.loc 1 444 17
	sw	a5,4(s2)
	.loc 1 446 5 is_stmt 1
	.loc 1 446 11 is_stmt 0
	j	.L10
.LVL128:
.L45:
	.loc 1 274 15
	li	s0,-4096
	addi	s0,s0,-1152
	j	.L10
.LVL129:
.L50:
	.loc 1 376 25
	li	s0,-4096
	addi	s0,s0,-300
	j	.L10
.LVL130:
.L51:
	.loc 1 379 15
	li	s0,-4096
	addi	s0,s0,-384
.LVL131:
	j	.L10
	.cfi_endproc
.LFE15:
	.size	mbedtls_pem_read_buffer, .-mbedtls_pem_read_buffer
	.section	.text.mbedtls_pem_free,"ax",@progbits
	.align	1
	.globl	mbedtls_pem_free
	.type	mbedtls_pem_free, @function
mbedtls_pem_free:
.LFB16:
	.loc 1 450 1 is_stmt 1
	.cfi_startproc
.LVL132:
	.loc 1 451 5
	.loc 1 450 1 is_stmt 0
	addi	sp,sp,-16
	.cfi_def_cfa_offset 16
	sw	s0,8(sp)
	sw	ra,12(sp)
	.cfi_offset 8, -8
	.cfi_offset 1, -4
	.loc 1 450 1
	mv	s0,a0
	.loc 1 451 13
	lw	a0,0(a0)
.LVL133:
	.loc 1 451 8
	beq	a0,zero,.L68
	.loc 1 453 9 is_stmt 1
	lw	a1,4(s0)
	call	mbedtls_platform_zeroize
.LVL134:
	.loc 1 454 9
	lw	a0,0(s0)
	call	mbedtls_free
.LVL135:
.L68:
	.loc 1 456 5
	lw	a0,8(s0)
	call	mbedtls_free
.LVL136:
	.loc 1 458 5
	mv	a0,s0
	.loc 1 459 1 is_stmt 0
	lw	s0,8(sp)
	.cfi_restore 8
.LVL137:
	lw	ra,12(sp)
	.cfi_restore 1
	.loc 1 458 5
	li	a1,12
	.loc 1 459 1
	addi	sp,sp,16
	.cfi_def_cfa_offset 0
	.loc 1 458 5
	tail	mbedtls_platform_zeroize
.LVL138:
	.cfi_endproc
.LFE16:
	.size	mbedtls_pem_free, .-mbedtls_pem_free
	.text
.Letext0:
	.file 2 "/mnt/d/GitHub/bl_iot_sdk_for_aithinker/components/security/mbedtls_lts/mbedtls/include/mbedtls/pem.h"
	.file 3 "/mnt/d/GitHub/bl_iot_sdk_for_aithinker/toolchain/riscv/Linux/lib/gcc/riscv64-unknown-elf/10.2.0/include/stddef.h"
	.file 4 "/mnt/d/GitHub/bl_iot_sdk_for_aithinker/toolchain/riscv/Linux/lib/gcc/riscv64-unknown-elf/10.2.0/include/stdint-gcc.h"
	.file 5 "/mnt/d/GitHub/bl_iot_sdk_for_aithinker/components/security/mbedtls_lts/mbedtls/include/mbedtls/aes.h"
	.file 6 "/mnt/d/GitHub/bl_iot_sdk_for_aithinker/components/security/mbedtls_lts/mbedtls/include/mbedtls/md5.h"
	.file 7 "/mnt/d/GitHub/bl_iot_sdk_for_aithinker/components/security/mbedtls_lts/mbedtls/include/mbedtls/cipher.h"
	.file 8 "/mnt/d/GitHub/bl_iot_sdk_for_aithinker/components/security/mbedtls_lts/mbedtls/include/mbedtls/platform_util.h"
	.file 9 "/mnt/d/GitHub/bl_iot_sdk_for_aithinker/components/security/mbedtls_lts/mbedtls/include/mbedtls/platform.h"
	.file 10 "/mnt/d/GitHub/bl_iot_sdk_for_aithinker/toolchain/riscv/Linux/riscv64-unknown-elf/include/string.h"
	.file 11 "/mnt/d/GitHub/bl_iot_sdk_for_aithinker/components/security/mbedtls_lts/mbedtls/include/mbedtls/base64.h"