	.file	"rsa.c"
	.option nopic
	.attribute arch, "rv32i2p0_m2p0_f2p0_c2p0"
	.attribute unaligned_access, 0
	.attribute stack_align, 16
	.text
.Ltext0:
	.cfi_sections	.debug_frame
	.section	.text.mgf_mask,"ax",@progbits
	.align	1
	.type	mgf_mask, @function
mgf_mask:
.LFB32:
	.file 1 "/mnt/d/GitHub/bl_iot_sdk_for_aithinker/components/security/mbedtls_lts/mbedtls/library/rsa.c"
	.loc 1 1135 1
	.cfi_startproc
.LVL0:
	.loc 1 1136 5
	.loc 1 1137 5
	.loc 1 1138 5
	.loc 1 1139 5
	.loc 1 1140 5
	.loc 1 1141 5
	.loc 1 1143 5
	.loc 1 1135 1 is_stmt 0
	addi	sp,sp,-128
	.cfi_def_cfa_offset 128
	sw	s1,116(sp)
	sw	s2,112(sp)
	sw	s5,100(sp)
	.cfi_offset 9, -12
	.cfi_offset 18, -16
	.cfi_offset 21, -28
	mv	s1,a0
	mv	s2,a1
	mv	s5,a2
	.loc 1 1143 5
	li	a1,0
.LVL1:
	li	a2,64
.LVL2:
	addi	a0,sp,16
.LVL3:
	.loc 1 1135 1
	sw	ra,124(sp)
	sw	s3,108(sp)
	sw	s4,104(sp)
	.cfi_offset 1, -4
	.cfi_offset 19, -20
	.cfi_offset 20, -24
	mv	s3,a4
	sw	s6,96(sp)
	sw	s0,120(sp)
	.cfi_offset 22, -32
	.cfi_offset 8, -8
	mv	s6,a3
	sw	s7,92(sp)
	.cfi_offset 23, -36
	.loc 1 1143 5
	call	memset
.LVL4:
	.loc 1 1144 5 is_stmt 1
	li	a2,4
	li	a1,0
	addi	a0,sp,12
	call	memset
.LVL5:
	.loc 1 1146 5
	.loc 1 1146 12 is_stmt 0
	lw	a0,0(s3)
	call	mbedtls_md_get_size
.LVL6:
	mv	s4,a0
.LVL7:
	.loc 1 1149 5 is_stmt 1
	.loc 1 1151 5
.L2:
	.loc 1 1151 10
	bne	s2,zero,.L7
	.loc 1 1174 1 is_stmt 0
	li	s0,0
.LVL8:
.L4:
	.loc 1 1175 5 is_stmt 1
	addi	a0,sp,16
	li	a1,64
	call	mbedtls_platform_zeroize
.LVL9:
	.loc 1 1177 5
	.loc 1 1178 1 is_stmt 0
	lw	ra,124(sp)
	.cfi_remember_state
	.cfi_restore 1
	mv	a0,s0
	lw	s0,120(sp)
	.cfi_restore 8
.LVL10:
	lw	s1,116(sp)
	.cfi_restore 9
.LVL11:
	lw	s2,112(sp)
	.cfi_restore 18
.LVL12:
	lw	s3,108(sp)
	.cfi_restore 19
.LVL13:
	lw	s4,104(sp)
	.cfi_restore 20
.LVL14:
	lw	s5,100(sp)
	.cfi_restore 21
.LVL15:
	lw	s6,96(sp)
	.cfi_restore 22
.LVL16:
	lw	s7,92(sp)
	.cfi_restore 23
	addi	sp,sp,128
	.cfi_def_cfa_offset 0
	jr	ra
.LVL17:
.L7:
	.cfi_restore_state
	.loc 1 1153 9 is_stmt 1
	.loc 1 1154 9
	mv	s7,s2
	bleu	s2,s4,.L3
	mv	s7,s4
.L3:
.LVL18:
	.loc 1 1157 9
	.loc 1 1157 21 is_stmt 0
	mv	a0,s3
	call	mbedtls_md_starts
.LVL19:
	mv	s0,a0
.LVL20:
	.loc 1 1157 11
	bne	a0,zero,.L4
	.loc 1 1159 9 is_stmt 1
	.loc 1 1159 21 is_stmt 0
	mv	a2,s6
	mv	a1,s5
	mv	a0,s3
	call	mbedtls_md_update
.LVL21:
	mv	s0,a0
.LVL22:
	.loc 1 1159 11
	bne	a0,zero,.L4
	.loc 1 1161 9 is_stmt 1
	.loc 1 1161 21 is_stmt 0
	li	a2,4
	addi	a1,sp,12
	mv	a0,s3
	call	mbedtls_md_update
.LVL23:
	mv	s0,a0
.LVL24:
	.loc 1 1161 11
	bne	a0,zero,.L4
	.loc 1 1163 9 is_stmt 1
	.loc 1 1163 21 is_stmt 0
	addi	a1,sp,16
	mv	a0,s3
	call	mbedtls_md_finish
.LVL25:
	mv	s0,a0
.LVL26:
	.loc 1 1163 11
	bne	a0,zero,.L4
	addi	a5,sp,16
	add	a3,s1,s7
.L5:
.LVL27:
	.loc 1 1166 21 is_stmt 1 discriminator 1
	.loc 1 1166 9 is_stmt 0 discriminator 1
	bne	s1,a3,.L6
	.loc 1 1169 9 is_stmt 1
	.loc 1 1169 19 is_stmt 0
	lbu	a5,15(sp)
	.loc 1 1171 14
	sub	s2,s2,s7
.LVL28:
	.loc 1 1169 19
	addi	a5,a5,1
	sb	a5,15(sp)
	.loc 1 1171 9 is_stmt 1
.LVL29:
	j	.L2
.L6:
	.loc 1 1167 13 discriminator 3
	.loc 1 1167 18 is_stmt 0 discriminator 3
	lbu	a2,0(a5)
	lbu	a4,0(s1)
	.loc 1 1167 15 discriminator 3
	addi	s1,s1,1
.LVL30:
	addi	a5,a5,1
	.loc 1 1167 18 discriminator 3
	xor	a4,a4,a2
	sb	a4,-1(s1)
	.loc 1 1166 34 is_stmt 1 discriminator 3
	j	.L5
	.cfi_endproc
.LFE32:
	.size	mgf_mask, .-mgf_mask
	.section	.text.rsa_rsassa_pkcs1_v15_encode,"ax",@progbits
	.align	1
	.type	rsa_rsassa_pkcs1_v15_encode, @function
rsa_rsassa_pkcs1_v15_encode:
.LFB44:
	.loc 1 1971 1
	.cfi_startproc
.LVL31:
	.loc 1 1972 5
	.loc 1 1971 1 is_stmt 0
	addi	sp,sp,-48
	.cfi_def_cfa_offset 48
	sw	s2,32(sp)
	sw	s4,24(sp)
	sw	s5,20(sp)
	sw	s6,16(sp)
	sw	ra,44(sp)
	sw	s0,40(sp)
	sw	s1,36(sp)
	sw	s3,28(sp)
	.cfi_offset 18, -16
	.cfi_offset 20, -24
	.cfi_offset 21, -28
	.cfi_offset 22, -32
	.cfi_offset 1, -4
	.cfi_offset 8, -8
	.cfi_offset 9, -12
	.cfi_offset 19, -20
	.loc 1 1972 12
	sw	zero,8(sp)
	.loc 1 1973 5 is_stmt 1
.LVL32:
	.loc 1 1974 5
	.loc 1 1975 17 is_stmt 0
	sw	zero,12(sp)
	.loc 1 1971 1
	mv	s6,a0
	mv	s5,a2
	mv	s2,a3
	mv	s4,a4
.LVL33:
	.loc 1 1975 5 is_stmt 1
	.loc 1 1978 5
	.loc 1 1978 7 is_stmt 0
	beq	a0,zero,.L10
.LBB32:
	.loc 1 1980 9 is_stmt 1
	.loc 1 1980 44 is_stmt 0
	call	mbedtls_md_info_from_type
.LVL34:
	mv	s0,a0
.LVL35:
	.loc 1 1981 9 is_stmt 1
	.loc 1 1981 11 is_stmt 0
	bne	a0,zero,.L11
.LVL36:
.L18:
.LBE32:
	.loc 1 2072 9 is_stmt 1
	.loc 1 2072 15 is_stmt 0
	li	a0,-16384
	addi	a0,a0,-128
	j	.L9
.LVL37:
.L11:
.LBB33:
	.loc 1 1984 9 is_stmt 1
	.loc 1 1984 13 is_stmt 0
	addi	a2,sp,8
	addi	a1,sp,12
	mv	a0,s6
	call	mbedtls_oid_get_oid_by_md
.LVL38:
	.loc 1 1984 11
	bne	a0,zero,.L18
	.loc 1 1987 9 is_stmt 1
	.loc 1 1987 19 is_stmt 0
	mv	a0,s0
	call	mbedtls_md_get_size
.LVL39:
	.loc 1 1991 25
	lw	a5,8(sp)
	.loc 1 1987 19
	mv	s1,a0
.LVL40:
	.loc 1 1991 9 is_stmt 1
	.loc 1 1991 25 is_stmt 0
	add	a2,a0,a5
	addi	a4,a2,8
	.loc 1 1991 11
	li	a5,127
	bgtu	a4,a5,.L18
	.loc 1 1993 26
	addi	a5,a2,10
	.loc 1 1993 42
	addi	a4,a0,10
	.loc 1 1992 36
	bltu	a5,a4,.L18
	.loc 1 2004 9 is_stmt 1
	.loc 1 2004 11 is_stmt 0
	bgtu	a5,s2,.L18
	.loc 1 2006 9 is_stmt 1
	.loc 1 2006 16 is_stmt 0
	addi	a5,s2,-10
	sub	a5,a5,a2
.LVL41:
.L14:
.LBE33:
	.loc 1 2018 5 is_stmt 1
	.loc 1 2018 7 is_stmt 0
	li	a4,10
	bleu	a5,a4,.L18
	.loc 1 2020 5 is_stmt 1
	.loc 1 2020 12 is_stmt 0
	addi	s3,a5,-3
.LVL42:
	.loc 1 2026 5 is_stmt 1
	.loc 1 2027 10 is_stmt 0
	li	a4,1
	.loc 1 2027 7
	addi	a5,s4,2
	.loc 1 2026 10
	sb	zero,0(s4)
	.loc 1 2027 5 is_stmt 1
.LVL43:
	.loc 1 2027 10 is_stmt 0
	sb	a4,1(s4)
	.loc 1 2028 5 is_stmt 1
	mv	a2,s3
	li	a1,255
	mv	a0,a5
	mv	s0,a5
	call	memset
.LVL44:
	.loc 1 2029 5
	.loc 1 2029 7 is_stmt 0
	add	a0,s0,s3
.LVL45:
	.loc 1 2030 5 is_stmt 1
	.loc 1 2030 10 is_stmt 0
	sb	zero,0(a0)
	.loc 1 2033 5 is_stmt 1
	.loc 1 2033 7 is_stmt 0
	bne	s6,zero,.L15
	.loc 1 2035 9 is_stmt 1
	mv	a2,s1
	mv	a1,s5
	addi	a0,a0,1
.LVL46:
	call	memcpy
.LVL47:
	.loc 1 2036 9
	.loc 1 2036 15 is_stmt 0
	li	a0,0
.LVL48:
.L9:
	.loc 1 2076 1
	lw	ra,44(sp)
	.cfi_remember_state
	.cfi_restore 1
	lw	s0,40(sp)
	.cfi_restore 8
	lw	s1,36(sp)
	.cfi_restore 9
	lw	s2,32(sp)
	.cfi_restore 18
.LVL49:
	lw	s3,28(sp)
	.cfi_restore 19
	lw	s4,24(sp)
	.cfi_restore 20
.LVL50:
	lw	s5,20(sp)
	.cfi_restore 21
.LVL51:
	lw	s6,16(sp)
	.cfi_restore 22
.LVL52:
	addi	sp,sp,48
	.cfi_def_cfa_offset 0
	jr	ra
.LVL53:
.L10:
	.cfi_restore_state
	mv	s1,a1
	.loc 1 2010 9 is_stmt 1
	.loc 1 2010 11 is_stmt 0
	bltu	a3,a1,.L18
.LVL54:
	.loc 1 2013 9 is_stmt 1
	.loc 1 2013 16 is_stmt 0
	sub	a5,a3,a1
.LVL55:
	j	.L14
.LVL56:
.L15:
	.loc 1 2052 5 is_stmt 1
	.loc 1 2053 45 is_stmt 0
	lw	a5,8(sp)
	andi	s3,s1,0xff
.LVL57:
	.loc 1 2058 5
	lw	a1,12(sp)
	.loc 1 2053 45
	andi	a4,a5,0xff
	.loc 1 2053 12
	addi	a3,a4,8
	add	a3,s3,a3
	.loc 1 2053 10
	sb	a3,2(a0)
	.loc 1 2055 12
	addi	a3,a4,4
	.loc 1 2052 10
	li	a2,48
	.loc 1 2055 10
	sb	a3,4(a0)
	.loc 1 2057 7
	addi	s0,a0,7
	.loc 1 2056 10
	li	a3,6
	.loc 1 2052 10
	sb	a2,1(a0)
	.loc 1 2053 5 is_stmt 1
.LVL58:
	.loc 1 2054 5
	.loc 1 2054 10 is_stmt 0
	sb	a2,3(a0)
	.loc 1 2055 5 is_stmt 1
.LVL59:
	.loc 1 2056 5
	.loc 1 2056 10 is_stmt 0
	sb	a3,5(a0)
	.loc 1 2057 5 is_stmt 1
.LVL60:
	.loc 1 2057 10 is_stmt 0
	sb	a4,6(a0)
	.loc 1 2058 5 is_stmt 1
	mv	a2,a5
	mv	a0,s0
	call	memcpy
.LVL61:
	.loc 1 2059 5
	.loc 1 2059 7 is_stmt 0
	lw	a5,8(sp)
	.loc 1 2060 10
	li	a4,5
	.loc 1 2064 5
	mv	a2,s1
	.loc 1 2059 7
	add	a5,s0,a5
.LVL62:
	.loc 1 2060 5 is_stmt 1
	.loc 1 2063 7 is_stmt 0
	addi	s0,a5,4
	.loc 1 2060 10
	sb	a4,0(a5)
	.loc 1 2061 5 is_stmt 1
.LVL63:
	.loc 1 2062 10 is_stmt 0
	li	a4,4
	.loc 1 2061 10
	sb	zero,1(a5)
	.loc 1 2062 5 is_stmt 1
.LVL64:
	.loc 1 2062 10 is_stmt 0
	sb	a4,2(a5)
	.loc 1 2063 5 is_stmt 1
.LVL65:
	.loc 1 2063 10 is_stmt 0
	sb	s3,3(a5)
	.loc 1 2064 5 is_stmt 1
	mv	a0,s0
	mv	a1,s5
	call	memcpy
.LVL66:
	.loc 1 2065 5
	.loc 1 2069 5
	.loc 1 2069 18 is_stmt 0
	add	a5,s4,s2
	.loc 1 2065 7
	add	s0,s0,s1
.LVL67:
	.loc 1 2075 11
	li	a0,0
	.loc 1 2069 7
	beq	a5,s0,.L9
	.loc 1 2071 9 is_stmt 1
	mv	a1,s2
	mv	a0,s4
	call	mbedtls_platform_zeroize
.LVL68:
	j	.L18
	.cfi_endproc
.LFE44:
	.size	rsa_rsassa_pkcs1_v15_encode, .-rsa_rsassa_pkcs1_v15_encode
	.section	.text.rsa_check_context.constprop.0,"ax",@progbits
	.align	1
	.type	rsa_check_context.constprop.0, @function
rsa_check_context.constprop.0:
.LFB55:
	.loc 1 185 12
	.cfi_startproc
.LVL69:
	.loc 1 191 5
	.loc 1 194 5
	.loc 1 185 12 is_stmt 0
	addi	sp,sp,-32
	.cfi_def_cfa_offset 32
	sw	s0,24(sp)
	sw	s1,20(sp)
	sw	s2,16(sp)
	sw	ra,28(sp)
	sw	s3,12(sp)
	.cfi_offset 8, -8
	.cfi_offset 9, -12
	.cfi_offset 18, -16
	.cfi_offset 1, -4
	.cfi_offset 19, -20
	.loc 1 194 12
	lw	s3,4(a0)
	.loc 1 194 21
	addi	s2,a0,8
	.loc 1 185 12
	mv	s0,a0
	.loc 1 194 21
	mv	a0,s2
.LVL70:
	.loc 1 185 12
	mv	s1,a1
	.loc 1 194 21
	call	mbedtls_mpi_size
.LVL71:
	.loc 1 194 7
	bne	s3,a0,.L20
	.loc 1 194 49
	lw	a4,4(s0)
	li	a5,1024
	bgtu	a4,a5,.L20
	.loc 1 206 5 is_stmt 1
	.loc 1 206 9 is_stmt 0
	li	a1,0
	mv	a0,s2
	call	mbedtls_mpi_cmp_int
.LVL72:
	.loc 1 206 7
	ble	a0,zero,.L20
	.loc 1 207 9
	li	a1,0
	mv	a0,s2
	call	mbedtls_mpi_get_bit
.LVL73:
	.loc 1 206 48
	beq	a0,zero,.L20
	.loc 1 216 5 is_stmt 1
	.loc 1 216 7 is_stmt 0
	bne	s1,zero,.L21
.L23:
	.loc 1 231 5 is_stmt 1
	.loc 1 231 9 is_stmt 0
	li	a1,0
	addi	a0,s0,20
	call	mbedtls_mpi_cmp_int
.LVL74:
	.loc 1 231 7
	bgt	a0,zero,.L37
.L20:
	.loc 1 266 9 is_stmt 1
	.loc 1 266 15 is_stmt 0
	li	a0,-16384
	addi	a0,a0,-128
	j	.L19
.L21:
	.loc 1 217 11
	addi	s2,s0,44
	li	a1,0
	mv	a0,s2
	call	mbedtls_mpi_cmp_int
.LVL75:
	.loc 1 216 17
	ble	a0,zero,.L20
	.loc 1 218 11
	li	a1,0
	mv	a0,s2
	call	mbedtls_mpi_get_bit
.LVL76:
	.loc 1 217 50
	beq	a0,zero,.L20
	.loc 1 219 11
	addi	s2,s0,56
	li	a1,0
	mv	a0,s2
	call	mbedtls_mpi_cmp_int
.LVL77:
	.loc 1 218 50
	ble	a0,zero,.L20
	.loc 1 220 11
	li	a1,0
	mv	a0,s2
	call	mbedtls_mpi_get_bit
.LVL78:
	.loc 1 219 50
	bne	a0,zero,.L23
	j	.L20
.L37:
	.loc 1 240 5 is_stmt 1
	.loc 1 240 7 is_stmt 0
	bne	s1,zero,.L24
.L27:
	.loc 1 270 11
	li	a0,0
.L19:
	.loc 1 271 1
	lw	ra,28(sp)
	.cfi_remember_state
	.cfi_restore 1
	lw	s0,24(sp)
	.cfi_restore 8
.LVL79:
	lw	s1,20(sp)
	.cfi_restore 9
.LVL80:
	lw	s2,16(sp)
	.cfi_restore 18
	lw	s3,12(sp)
	.cfi_restore 19
	addi	sp,sp,32
	.cfi_def_cfa_offset 0
	jr	ra
.LVL81:
.L24:
	.cfi_restore_state
	.loc 1 241 11
	li	a1,0
	addi	a0,s0,68
	call	mbedtls_mpi_cmp_int
.LVL82:
	.loc 1 240 17
	ble	a0,zero,.L20
	.loc 1 242 11
	li	a1,0
	addi	a0,s0,80
	call	mbedtls_mpi_cmp_int
.LVL83:
	.loc 1 241 51
	ble	a0,zero,.L20
	.loc 1 263 5 is_stmt 1
	.loc 1 264 9 is_stmt 0
	li	a1,0
	addi	a0,s0,92
	call	mbedtls_mpi_cmp_int
.LVL84:
	.loc 1 263 17
	bgt	a0,zero,.L27
	j	.L20
	.cfi_endproc
.LFE55:
	.size	rsa_check_context.constprop.0, .-rsa_check_context.constprop.0
	.section	.text.mbedtls_rsa_import,"ax",@progbits
	.align	1
	.globl	mbedtls_rsa_import
	.type	mbedtls_rsa_import, @function
mbedtls_rsa_import:
.LFB15:
	.loc 1 125 1 is_stmt 1
	.cfi_startproc
.LVL85:
	.loc 1 126 5
	.loc 1 127 5
	.loc 1 127 10
	.loc 1 127 17
	.loc 1 129 5
	.loc 1 125 1 is_stmt 0
	addi	sp,sp,-32
	.cfi_def_cfa_offset 32
	sw	s0,24(sp)
	sw	s1,20(sp)
	sw	s2,16(sp)
	sw	s3,12(sp)
	sw	s4,8(sp)
	sw	s5,4(sp)
	sw	ra,28(sp)
	.cfi_offset 8, -8
	.cfi_offset 9, -12
	.cfi_offset 18, -16
	.cfi_offset 19, -20
	.cfi_offset 20, -24
	.cfi_offset 21, -28
	.cfi_offset 1, -4
	.loc 1 125 1
	mv	s1,a0
	mv	s2,a1
	mv	s5,a2
	mv	s4,a3
	mv	s3,a4
	mv	s0,a5
	.loc 1 129 7
	bne	a1,zero,.L40
.LVL86:
.L44:
	.loc 1 129 71
	bne	s5,zero,.L41
.L42:
	.loc 1 130 71
	bne	s4,zero,.L45
.L46:
	.loc 1 131 71
	bne	s3,zero,.L47
.L48:
	.loc 1 132 71
	bne	s0,zero,.L49
.L50:
	.loc 1 138 5 is_stmt 1
	.loc 1 141 11 is_stmt 0
	li	s0,0
.LVL87:
	.loc 1 138 7
	beq	s2,zero,.L39
	.loc 1 139 9 is_stmt 1
	.loc 1 139 20 is_stmt 0
	addi	a0,s1,8
	call	mbedtls_mpi_size
.LVL88:
	.loc 1 139 18
	sw	a0,4(s1)
	j	.L39
.LVL89:
.L40:
	.loc 1 129 31 discriminator 1
	addi	a0,a0,8
	call	mbedtls_mpi_copy
.LVL90:
	.loc 1 129 20 discriminator 1
	beq	a0,zero,.L44
.L43:
	.loc 1 135 9 is_stmt 1
	.loc 1 135 25 is_stmt 0
	li	s0,-16384
.LVL91:
	addi	s0,s0,-128
	add	s0,a0,s0
.LVL92:
.L39:
	.loc 1 142 1
	lw	ra,28(sp)
	.cfi_remember_state
	.cfi_restore 1
	mv	a0,s0
	lw	s0,24(sp)
	.cfi_restore 8
	lw	s1,20(sp)
	.cfi_restore 9
.LVL93:
	lw	s2,16(sp)
	.cfi_restore 18
.LVL94:
	lw	s3,12(sp)
	.cfi_restore 19
.LVL95:
	lw	s4,8(sp)
	.cfi_restore 20
.LVL96:
	lw	s5,4(sp)
	.cfi_restore 21
.LVL97:
	addi	sp,sp,32
	.cfi_def_cfa_offset 0
	jr	ra
.LVL98:
.L41:
	.cfi_restore_state
	.loc 1 130 31
	mv	a1,s5
	addi	a0,s1,44
	call	mbedtls_mpi_copy
.LVL99:
	.loc 1 130 20
	beq	a0,zero,.L42
	j	.L43
.LVL100:
.L45:
	.loc 1 131 31
	mv	a1,s4
	addi	a0,s1,56
	call	mbedtls_mpi_copy
.LVL101:
	.loc 1 131 20
	beq	a0,zero,.L46
	j	.L43
.LVL102:
.L47:
	.loc 1 132 31
	mv	a1,s3
	addi	a0,s1,32
	call	mbedtls_mpi_copy
.LVL103:
	.loc 1 132 20
	beq	a0,zero,.L48
	j	.L43
.LVL104:
.L49:
	.loc 1 133 31
	mv	a1,s0
	addi	a0,s1,20
	call	mbedtls_mpi_copy
.LVL105:
	.loc 1 133 20
	beq	a0,zero,.L50
	j	.L43
	.cfi_endproc
.LFE15:
	.size	mbedtls_rsa_import, .-mbedtls_rsa_import
	.section	.text.mbedtls_rsa_import_raw,"ax",@progbits
	.align	1
	.globl	mbedtls_rsa_import_raw
	.type	mbedtls_rsa_import_raw, @function
mbedtls_rsa_import_raw:
.LFB16:
	.loc 1 150 1 is_stmt 1
	.cfi_startproc
.LVL106:
	.loc 1 151 5
	.loc 1 152 5
	.loc 1 152 10
	.loc 1 152 17
	.loc 1 154 5
	.loc 1 150 1 is_stmt 0
	addi	sp,sp,-48
	.cfi_def_cfa_offset 48
	sw	s0,40(sp)
	sw	s1,36(sp)
	sw	s2,32(sp)
	sw	s3,28(sp)
	sw	s4,24(sp)
	sw	s5,20(sp)
	sw	s6,16(sp)
	sw	ra,44(sp)
	sw	s7,12(sp)
	.cfi_offset 8, -8
	.cfi_offset 9, -12
	.cfi_offset 18, -16
	.cfi_offset 19, -20
	.cfi_offset 20, -24
	.cfi_offset 21, -28
	.cfi_offset 22, -32
	.cfi_offset 1, -4
	.cfi_offset 23, -36
	.loc 1 150 1
	lw	s6,52(sp)
	mv	s0,a0
	mv	s3,a3
	mv	s5,a4
	mv	s2,a5
	mv	s4,a6
	mv	s1,a7
	.loc 1 154 7
	beq	a1,zero,.L59
	.loc 1 156 9 is_stmt 1
	.loc 1 156 14
	.loc 1 156 27 is_stmt 0
	addi	s7,a0,8
	mv	a0,s7
.LVL107:
	call	mbedtls_mpi_read_binary
.LVL108:
	.loc 1 156 16
	bne	a0,zero,.L60
	.loc 1 156 103 is_stmt 1 discriminator 2
	.loc 1 157 9 discriminator 2
	.loc 1 157 20 is_stmt 0 discriminator 2
	mv	a0,s7
.LVL109:
	call	mbedtls_mpi_size
.LVL110:
	.loc 1 157 18 discriminator 2
	sw	a0,4(s0)
.L59:
.LVL111:
	.loc 1 160 5 is_stmt 1
	.loc 1 160 7 is_stmt 0
	bne	s3,zero,.L61
.LVL112:
.L64:
	.loc 1 161 103 is_stmt 1
	.loc 1 163 5
	.loc 1 163 7 is_stmt 0
	bne	s2,zero,.L62
.LVL113:
.L63:
	.loc 1 164 103 is_stmt 1
	.loc 1 166 5
	.loc 1 166 7 is_stmt 0
	bne	s1,zero,.L65
.LVL114:
.L66:
	.loc 1 167 103 is_stmt 1
	.loc 1 169 5
	.loc 1 169 7 is_stmt 0
	bne	s6,zero,.L67
.LVL115:
.L68:
	.loc 1 177 11
	li	a0,0
.L58:
	.loc 1 178 1
	lw	ra,44(sp)
	.cfi_remember_state
	.cfi_restore 1
	lw	s0,40(sp)
	.cfi_restore 8
.LVL116:
	lw	s1,36(sp)
	.cfi_restore 9
.LVL117:
	lw	s2,32(sp)
	.cfi_restore 18
.LVL118:
	lw	s3,28(sp)
	.cfi_restore 19
.LVL119:
	lw	s4,24(sp)
	.cfi_restore 20
.LVL120:
	lw	s5,20(sp)
	.cfi_restore 21
.LVL121:
	lw	s6,16(sp)
	.cfi_restore 22
	lw	s7,12(sp)
	.cfi_restore 23
	addi	sp,sp,48
	.cfi_def_cfa_offset 0
.LVL122:
	jr	ra
.LVL123:
.L61:
	.cfi_restore_state
	.loc 1 161 9 is_stmt 1
	.loc 1 161 14
	.loc 1 161 27 is_stmt 0
	mv	a2,s5
	mv	a1,s3
	addi	a0,s0,44
	call	mbedtls_mpi_read_binary
.LVL124:
	.loc 1 161 16
	beq	a0,zero,.L64
.L60:
	.loc 1 175 9 is_stmt 1
	.loc 1 175 25 is_stmt 0
	li	a5,-16384
	addi	a5,a5,-128
	add	a0,a0,a5
.LVL125:
	j	.L58
.LVL126:
.L62:
	.loc 1 164 9 is_stmt 1
	.loc 1 164 14
	.loc 1 164 27 is_stmt 0
	mv	a2,s4
	mv	a1,s2
	addi	a0,s0,56
	call	mbedtls_mpi_read_binary
.LVL127:
	.loc 1 164 16
	beq	a0,zero,.L63
	j	.L60
.LVL128:
.L65:
	.loc 1 167 9 is_stmt 1
	.loc 1 167 14
	.loc 1 167 27 is_stmt 0
	lw	a2,48(sp)
	mv	a1,s1
	addi	a0,s0,32
	call	mbedtls_mpi_read_binary
.LVL129:
	.loc 1 167 16
	beq	a0,zero,.L66
	j	.L60
.LVL130:
.L67:
	.loc 1 170 9 is_stmt 1
	.loc 1 170 14
	.loc 1 170 27 is_stmt 0
	lw	a2,56(sp)
	mv	a1,s6
	addi	a0,s0,20
	call	mbedtls_mpi_read_binary
.LVL131:
.LDL1:
	.loc 1 170 103 is_stmt 1
	.loc 1 174 5
	.loc 1 174 7 is_stmt 0
	beq	a0,zero,.L68
	j	.L60
	.cfi_endproc
.LFE16:
	.size	mbedtls_rsa_import_raw, .-mbedtls_rsa_import_raw
	.section	.text.mbedtls_rsa_complete,"ax",@progbits
	.align	1
	.globl	mbedtls_rsa_complete
	.type	mbedtls_rsa_complete, @function
mbedtls_rsa_complete:
.LFB18:
	.loc 1 274 1 is_stmt 1
	.cfi_startproc
.LVL132:
	.loc 1 275 5
	.loc 1 276 5
	.loc 1 278 5
	.loc 1 280 5
	.loc 1 282 5
	.loc 1 282 10
	.loc 1 282 17
	.loc 1 284 5
	.loc 1 274 1 is_stmt 0
	addi	sp,sp,-96
	.cfi_def_cfa_offset 96
	sw	s4,72(sp)
	.cfi_offset 20, -24
	.loc 1 284 37
	addi	s4,a0,8
	.loc 1 274 1
	sw	s0,88(sp)
	.loc 1 284 16
	li	a1,0
	.cfi_offset 8, -8
	.loc 1 274 1
	mv	s0,a0
	.loc 1 284 16
	mv	a0,s4
.LVL133:
	.loc 1 274 1
	sw	ra,92(sp)
	sw	s1,84(sp)
	sw	s2,80(sp)
	sw	s3,76(sp)
	sw	s5,68(sp)
	sw	s6,64(sp)
	sw	s7,60(sp)
	sw	s8,56(sp)
	sw	s9,52(sp)
	sw	s10,48(sp)
	sw	s11,44(sp)
	.cfi_offset 1, -4
	.cfi_offset 9, -12
	.cfi_offset 18, -16
	.cfi_offset 19, -20
	.cfi_offset 21, -28
	.cfi_offset 22, -32
	.cfi_offset 23, -36
	.cfi_offset 24, -40
	.cfi_offset 25, -44
	.cfi_offset 26, -48
	.cfi_offset 27, -52
	.loc 1 285 37
	addi	s1,s0,44
	.loc 1 284 16
	call	mbedtls_mpi_cmp_int
.LVL134:
	.loc 1 285 16
	li	a1,0
	.loc 1 284 16
	mv	s11,a0
.LVL135:
	.loc 1 285 5 is_stmt 1
	.loc 1 285 16 is_stmt 0
	mv	a0,s1
.LVL136:
	call	mbedtls_mpi_cmp_int
.LVL137:
	.loc 1 286 37
	addi	s2,s0,56
	.loc 1 285 16
	sw	a0,28(sp)
.LVL138:
	.loc 1 286 5 is_stmt 1
	.loc 1 286 16 is_stmt 0
	li	a1,0
	mv	a0,s2
.LVL139:
	call	mbedtls_mpi_cmp_int
.LVL140:
	.loc 1 287 37
	addi	s3,s0,32
	.loc 1 286 16
	sw	a0,24(sp)
.LVL141:
	.loc 1 287 5 is_stmt 1
	.loc 1 287 16 is_stmt 0
	li	a1,0
	mv	a0,s3
.LVL142:
	call	mbedtls_mpi_cmp_int
.LVL143:
	.loc 1 288 37
	addi	s10,s0,20
	.loc 1 287 16
	sw	a0,20(sp)
.LVL144:
	.loc 1 288 5 is_stmt 1
	.loc 1 288 16 is_stmt 0
	li	a1,0
	mv	a0,s10
.LVL145:
	call	mbedtls_mpi_cmp_int
.LVL146:
	.loc 1 291 38
	addi	s7,s0,68
	.loc 1 288 16
	sw	a0,16(sp)
.LVL147:
	.loc 1 291 5 is_stmt 1
	.loc 1 291 17 is_stmt 0
	li	a1,0
	mv	a0,s7
.LVL148:
	call	mbedtls_mpi_cmp_int
.LVL149:
	.loc 1 292 38
	addi	s8,s0,80
	.loc 1 291 17
	sw	a0,12(sp)
.LVL150:
	.loc 1 292 5 is_stmt 1
	.loc 1 292 17 is_stmt 0
	li	a1,0
	mv	a0,s8
.LVL151:
	call	mbedtls_mpi_cmp_int
.LVL152:
	.loc 1 293 38
	addi	s9,s0,92
	.loc 1 292 17
	mv	s5,a0
.LVL153:
	.loc 1 293 5 is_stmt 1
	.loc 1 293 17 is_stmt 0
	li	a1,0
	mv	a0,s9
.LVL154:
	call	mbedtls_mpi_cmp_int
.LVL155:
	.loc 1 306 44
	lw	a2,28(sp)
	lw	a3,16(sp)
	lw	a4,20(sp)
	lw	a5,24(sp)
	.loc 1 293 17
	mv	s6,a0
.LVL156:
	.loc 1 306 5 is_stmt 1
	.loc 1 306 44 is_stmt 0
	beq	a2,zero,.L78
	.loc 1 306 24 discriminator 1
	beq	a5,zero,.L79
	.loc 1 306 34 discriminator 3
	beq	a4,zero,.L79
	.loc 1 306 44 discriminator 5
	bne	a3,zero,.L80
.L79:
.LVL157:
	.loc 1 307 5 is_stmt 1
	.loc 1 307 57 is_stmt 0
	bne	s11,zero,.L100
.LVL158:
	.loc 1 308 5 is_stmt 1 discriminator 10
	.loc 1 308 45 is_stmt 0 discriminator 10
	beq	a2,zero,.L117
.LVL159:
.L100:
	.loc 1 308 24 discriminator 1
	beq	a5,zero,.L117
	.loc 1 308 34 discriminator 3
	bne	a4,zero,.L117
	.loc 1 308 45 discriminator 5
	bne	a3,zero,.L85
.LVL160:
.L117:
	.loc 1 315 15
	li	a0,-16384
.LVL161:
	addi	a0,a0,-128
	j	.L77
.LVL162:
.L80:
	.loc 1 309 5 is_stmt 1 discriminator 8
	.loc 1 309 54 is_stmt 0 discriminator 8
	beq	s11,zero,.L87
.LVL163:
.L94:
	.loc 1 361 17 discriminator 1
	lw	a5,12(sp)
	beq	a5,zero,.L95
	.loc 1 361 32 discriminator 2
	beq	s5,zero,.L95
	.loc 1 361 20 discriminator 3
	beq	s6,zero,.L95
.L97:
	li	a1,1
.L96:
	.loc 1 374 5 is_stmt 1
	.loc 1 374 13 is_stmt 0
	mv	a0,s0
	.loc 1 375 1
	lw	s0,88(sp)
	.cfi_remember_state
	.cfi_restore 8
.LVL164:
	lw	ra,92(sp)
	.cfi_restore 1
	lw	s1,84(sp)
	.cfi_restore 9
	lw	s2,80(sp)
	.cfi_restore 18
	lw	s3,76(sp)
	.cfi_restore 19
	lw	s4,72(sp)
	.cfi_restore 20
	lw	s5,68(sp)
	.cfi_restore 21
.LVL165:
	lw	s6,64(sp)
	.cfi_restore 22
.LVL166:
	lw	s7,60(sp)
	.cfi_restore 23
	lw	s8,56(sp)
	.cfi_restore 24
	lw	s9,52(sp)
	.cfi_restore 25
	lw	s10,48(sp)
	.cfi_restore 26
	lw	s11,44(sp)
	.cfi_restore 27
	addi	sp,sp,96
	.cfi_def_cfa_offset 0
.LVL167:
	.loc 1 374 13
	tail	rsa_check_context.constprop.0
.LVL168:
.L91:
	.cfi_restore_state
	.loc 1 329 9 is_stmt 1
	.loc 1 329 20 is_stmt 0
	mv	a0,s4
.LVL169:
	call	mbedtls_mpi_size
.LVL170:
	.loc 1 329 18
	sw	a0,4(s0)
	.loc 1 336 5 is_stmt 1
	.loc 1 344 10
	.loc 1 344 12 is_stmt 0
	beq	s11,zero,.L94
.L92:
	.loc 1 346 9 is_stmt 1
	.loc 1 346 21 is_stmt 0
	mv	a3,s3
	mv	a2,s10
	mv	a1,s2
	mv	a0,s1
	call	mbedtls_rsa_deduce_private_exponent
.LVL171:
	j	.L147
.LVL172:
.L82:
	.loc 1 312 5 is_stmt 1
	.loc 1 321 5
	.loc 1 338 9
	.loc 1 338 15 is_stmt 0
	mv	a4,s2
	mv	a3,s1
	mv	a2,s3
	mv	a1,s10
	mv	a0,s4
.LVL173:
	call	mbedtls_rsa_deduce_primes
.LVL174:
.L147:
	.loc 1 346 21
	mv	a5,a0
.LVL175:
	.loc 1 346 11
	beq	a0,zero,.L94
	.loc 1 351 13 is_stmt 1
	.loc 1 351 29 is_stmt 0
	li	a0,-16384
.LVL176:
	addi	a0,a0,-128
.LVL177:
.L144:
	.loc 1 366 29
	add	a0,a0,a5
.L77:
	.loc 1 375 1
	lw	ra,92(sp)
	.cfi_remember_state
	.cfi_restore 1
	lw	s0,88(sp)
	.cfi_restore 8
.LVL178:
	lw	s1,84(sp)
	.cfi_restore 9
	lw	s2,80(sp)
	.cfi_restore 18
	lw	s3,76(sp)
	.cfi_restore 19
	lw	s4,72(sp)
	.cfi_restore 20
	lw	s5,68(sp)
	.cfi_restore 21
.LVL179:
	lw	s6,64(sp)
	.cfi_restore 22
.LVL180:
	lw	s7,60(sp)
	.cfi_restore 23
	lw	s8,56(sp)
	.cfi_restore 24
	lw	s9,52(sp)
	.cfi_restore 25
.LVL181:
	lw	s10,48(sp)
	.cfi_restore 26
.LVL182:
	lw	s11,44(sp)
	.cfi_restore 27
	addi	sp,sp,96
	.cfi_def_cfa_offset 0
.LVL183:
	jr	ra
.LVL184:
.L95:
	.cfi_restore_state
	.loc 1 363 9 is_stmt 1
	.loc 1 363 15 is_stmt 0
	mv	a5,s9
	mv	a4,s8
	mv	a3,s7
	mv	a2,s3
	mv	a1,s2
	mv	a0,s1
	call	mbedtls_rsa_deduce_crt
.LVL185:
	.loc 1 365 9 is_stmt 1
	.loc 1 365 11 is_stmt 0
	beq	a0,zero,.L97
	j	.L143
.LVL186:
.L85:
	.loc 1 312 5 is_stmt 1
	.loc 1 321 5
	.loc 1 321 7 is_stmt 0
	bne	s11,zero,.L92
	li	s11,1
.LVL187:
.L87:
	.loc 1 323 9 is_stmt 1
	.loc 1 323 21 is_stmt 0
	mv	a2,s2
	mv	a1,s1
	mv	a0,s4
.LVL188:
	call	mbedtls_mpi_mul_mpi
.LVL189:
	.loc 1 323 11
	beq	a0,zero,.L91
.L143:
	.loc 1 366 13 is_stmt 1
	.loc 1 366 29 is_stmt 0
	li	a5,-16384
	addi	a5,a5,-128
	j	.L144
.LVL190:
.L78:
	.loc 1 307 5 is_stmt 1
	.loc 1 307 57 is_stmt 0
	beq	s11,zero,.L117
	.loc 1 307 36 discriminator 3
	bne	a5,zero,.L81
	.loc 1 307 47 discriminator 5
	beq	a4,zero,.L81
	.loc 1 307 57 discriminator 7
	bne	a3,zero,.L82
.L81:
.LVL191:
	.loc 1 309 43 discriminator 3
	or	a5,a5,a4
	bne	a5,zero,.L117
	.loc 1 309 54 discriminator 7
	beq	a3,zero,.L117
	li	a1,0
	j	.L96
	.cfi_endproc
.LFE18:
	.size	mbedtls_rsa_complete, .-mbedtls_rsa_complete
	.section	.text.mbedtls_rsa_export_raw,"ax",@progbits
	.align	1
	.globl	mbedtls_rsa_export_raw
	.type	mbedtls_rsa_export_raw, @function
mbedtls_rsa_export_raw:
.LFB19:
	.loc 1 383 1 is_stmt 1
	.cfi_startproc
.LVL192:
	.loc 1 384 5
	.loc 1 385 5
	.loc 1 386 5
	.loc 1 386 10
	.loc 1 386 17
	.loc 1 389 5
	.loc 1 383 1 is_stmt 0
	addi	sp,sp,-64
	.cfi_def_cfa_offset 64
	sw	s11,12(sp)
	.cfi_offset 27, -52
	.loc 1 390 9
	addi	s11,a0,8
	.loc 1 383 1
	sw	s0,56(sp)
	sw	s1,52(sp)
	.cfi_offset 8, -8
	.cfi_offset 9, -12
	mv	s0,a0
	mv	s1,a1
	.loc 1 390 9
	mv	a0,s11
.LVL193:
	li	a1,0
.LVL194:
	.loc 1 383 1
	sw	s2,48(sp)
	sw	s3,44(sp)
	sw	s4,40(sp)
	sw	s5,36(sp)
	sw	s6,32(sp)
	sw	s7,28(sp)
	sw	s8,24(sp)
	sw	s9,20(sp)
	sw	s10,16(sp)
	sw	ra,60(sp)
	.cfi_offset 18, -16
	.cfi_offset 19, -20
	.cfi_offset 20, -24
	.cfi_offset 21, -28
	.cfi_offset 22, -32
	.cfi_offset 23, -36
	.cfi_offset 24, -40
	.cfi_offset 25, -44
	.cfi_offset 26, -48
	.cfi_offset 1, -4
	.loc 1 383 1
	lw	s7,64(sp)
	lw	s5,68(sp)
	lw	s6,72(sp)
	mv	s10,a2
	mv	s2,a3
	mv	s9,a4
	mv	s3,a5
	mv	s8,a6
	mv	s4,a7
	.loc 1 390 9
	call	mbedtls_mpi_cmp_int
.LVL195:
	.loc 1 393 48
	bne	a0,zero,.L149
.L152:
.LVL196:
	.loc 1 396 5 is_stmt 1
	.loc 1 400 9
	.loc 1 400 11 is_stmt 0
	beq	s2,zero,.L176
.L166:
	.loc 1 401 19
	li	a0,-16384
	addi	a0,a0,-128
.LVL197:
	j	.L148
.LVL198:
.L149:
	.loc 1 391 9
	li	a1,0
	addi	a0,s0,44
	call	mbedtls_mpi_cmp_int
.LVL199:
	.loc 1 390 48
	beq	a0,zero,.L152
	.loc 1 392 9
	li	a1,0
	addi	a0,s0,56
	call	mbedtls_mpi_cmp_int
.LVL200:
	.loc 1 391 48
	beq	a0,zero,.L152
	.loc 1 393 9
	li	a1,0
	addi	a0,s0,32
	call	mbedtls_mpi_cmp_int
.LVL201:
	.loc 1 392 48
	beq	a0,zero,.L152
	.loc 1 394 9 discriminator 3
	li	a1,0
	addi	a0,s0,20
	call	mbedtls_mpi_cmp_int
.LVL202:
	.loc 1 393 48 discriminator 3
	beq	a0,zero,.L152
	.loc 1 405 5 is_stmt 1
	.loc 1 405 7 is_stmt 0
	bne	s1,zero,.L155
.LVL203:
.L158:
	.loc 1 406 104 is_stmt 1
	.loc 1 408 5
	.loc 1 408 7 is_stmt 0
	bne	s2,zero,.L156
.LVL204:
.L157:
	.loc 1 409 104 is_stmt 1
	.loc 1 411 5
	.loc 1 411 7 is_stmt 0
	bne	s3,zero,.L159
.LVL205:
.L160:
	.loc 1 412 104 is_stmt 1
	.loc 1 414 5
	.loc 1 414 7 is_stmt 0
	bne	s4,zero,.L161
.LVL206:
.L162:
	.loc 1 415 104 is_stmt 1
	.loc 1 417 5
	.loc 1 420 1 is_stmt 0
	li	a0,0
	.loc 1 417 7
	beq	s5,zero,.L148
	.loc 1 418 9 is_stmt 1
	.loc 1 418 14
	.loc 1 418 27 is_stmt 0
	addi	a0,s0,20
	.loc 1 423 1
	lw	s0,56(sp)
	.cfi_remember_state
	.cfi_restore 8
.LVL207:
	lw	ra,60(sp)
	.cfi_restore 1
	lw	s1,52(sp)
	.cfi_restore 9
.LVL208:
	lw	s2,48(sp)
	.cfi_restore 18
.LVL209:
	lw	s3,44(sp)
	.cfi_restore 19
.LVL210:
	lw	s4,40(sp)
	.cfi_restore 20
.LVL211:
	lw	s7,28(sp)
	.cfi_restore 23
	lw	s8,24(sp)
	.cfi_restore 24
.LVL212:
	lw	s9,20(sp)
	.cfi_restore 25
.LVL213:
	lw	s10,16(sp)
	.cfi_restore 26
.LVL214:
	lw	s11,12(sp)
	.cfi_restore 27
	.loc 1 418 27
	mv	a2,s6
	mv	a1,s5
	.loc 1 423 1
	lw	s6,32(sp)
	.cfi_restore 22
	lw	s5,36(sp)
	.cfi_restore 21
	addi	sp,sp,64
	.cfi_def_cfa_offset 0
.LVL215:
	.loc 1 418 27
	tail	mbedtls_mpi_write_binary
.LVL216:
.L176:
	.cfi_restore_state
	.loc 1 400 22 discriminator 1
	bne	s3,zero,.L166
	.loc 1 400 35 discriminator 2
	bne	s4,zero,.L166
.LVL217:
	.loc 1 405 5 is_stmt 1
	.loc 1 405 7 is_stmt 0
	beq	s1,zero,.L162
.L155:
	.loc 1 406 9 is_stmt 1
	.loc 1 406 14
	.loc 1 406 27 is_stmt 0
	mv	a2,s10
	mv	a1,s1
	mv	a0,s11
	call	mbedtls_mpi_write_binary
.LVL218:
	.loc 1 406 16
	beq	a0,zero,.L158
.LVL219:
.L148:
	.loc 1 423 1
	lw	ra,60(sp)
	.cfi_remember_state
	.cfi_restore 1
	lw	s0,56(sp)
	.cfi_restore 8
.LVL220:
	lw	s1,52(sp)
	.cfi_restore 9
.LVL221:
	lw	s2,48(sp)
	.cfi_restore 18
.LVL222:
	lw	s3,44(sp)
	.cfi_restore 19
.LVL223:
	lw	s4,40(sp)
	.cfi_restore 20
.LVL224:
	lw	s5,36(sp)
	.cfi_restore 21
	lw	s6,32(sp)
	.cfi_restore 22
	lw	s7,28(sp)
	.cfi_restore 23
	lw	s8,24(sp)
	.cfi_restore 24
.LVL225:
	lw	s9,20(sp)
	.cfi_restore 25
.LVL226:
	lw	s10,16(sp)
	.cfi_restore 26
.LVL227:
	lw	s11,12(sp)
	.cfi_restore 27
.LVL228:
	addi	sp,sp,64
	.cfi_def_cfa_offset 0
.LVL229:
	jr	ra
.LVL230:
.L156:
	.cfi_restore_state
	.loc 1 409 9 is_stmt 1
	.loc 1 409 14
	.loc 1 409 27 is_stmt 0
	mv	a2,s9
	mv	a1,s2
	addi	a0,s0,44
	call	mbedtls_mpi_write_binary
.LVL231:
	.loc 1 409 16
	beq	a0,zero,.L157
	j	.L148
.LVL232:
.L159:
	.loc 1 412 9 is_stmt 1
	.loc 1 412 14
	.loc 1 412 27 is_stmt 0
	mv	a2,s8
	mv	a1,s3
	addi	a0,s0,56
	call	mbedtls_mpi_write_binary
.LVL233:
	.loc 1 412 16
	beq	a0,zero,.L160
	j	.L148
.LVL234:
.L161:
	.loc 1 415 9 is_stmt 1
	.loc 1 415 14
	.loc 1 415 27 is_stmt 0
	mv	a2,s7
	mv	a1,s4
	addi	a0,s0,32
	call	mbedtls_mpi_write_binary
.LVL235:
	.loc 1 415 16
	beq	a0,zero,.L162
	j	.L148
	.cfi_endproc
.LFE19:
	.size	mbedtls_rsa_export_raw, .-mbedtls_rsa_export_raw
	.section	.text.mbedtls_rsa_export,"ax",@progbits
	.align	1
	.globl	mbedtls_rsa_export
	.type	mbedtls_rsa_export, @function
mbedtls_rsa_export:
.LFB20:
	.loc 1 428 1 is_stmt 1
	.cfi_startproc
.LVL236:
	.loc 1 429 5
	.loc 1 430 5
	.loc 1 431 5
	.loc 1 431 10
	.loc 1 431 17
	.loc 1 434 5
	.loc 1 428 1 is_stmt 0
	addi	sp,sp,-32
	.cfi_def_cfa_offset 32
	sw	s6,0(sp)
	.cfi_offset 22, -32
	.loc 1 435 9
	addi	s6,a0,8
	.loc 1 428 1
	sw	s0,24(sp)
	sw	s1,20(sp)
	.cfi_offset 8, -8
	.cfi_offset 9, -12
	mv	s0,a0
	mv	s1,a1
	.loc 1 435 9
	mv	a0,s6
.LVL237:
	li	a1,0
.LVL238:
	.loc 1 428 1
	sw	s2,16(sp)
	sw	s3,12(sp)
	sw	s4,8(sp)
	sw	s5,4(sp)
	sw	ra,28(sp)
	.cfi_offset 18, -16
	.cfi_offset 19, -20
	.cfi_offset 20, -24
	.cfi_offset 21, -28
	.cfi_offset 1, -4
	.loc 1 428 1
	mv	s2,a2
	mv	s3,a3
	mv	s4,a4
	mv	s5,a5
	.loc 1 435 9
	call	mbedtls_mpi_cmp_int
.LVL239:
	.loc 1 438 48
	bne	a0,zero,.L180
.L183:
.LVL240:
	.loc 1 441 5 is_stmt 1
	.loc 1 445 9
	.loc 1 445 11 is_stmt 0
	beq	s2,zero,.L207
.L197:
	.loc 1 446 19
	li	a0,-16384
	addi	a0,a0,-128
	j	.L179
.LVL241:
.L180:
	.loc 1 436 9
	li	a1,0
	addi	a0,s0,44
	call	mbedtls_mpi_cmp_int
.LVL242:
	.loc 1 435 48
	beq	a0,zero,.L183
	.loc 1 437 9
	li	a1,0
	addi	a0,s0,56
	call	mbedtls_mpi_cmp_int
.LVL243:
	.loc 1 436 48
	beq	a0,zero,.L183
	.loc 1 438 9
	li	a1,0
	addi	a0,s0,32
	call	mbedtls_mpi_cmp_int
.LVL244:
	.loc 1 437 48
	beq	a0,zero,.L183
	.loc 1 439 9 discriminator 3
	li	a1,0
	addi	a0,s0,20
	call	mbedtls_mpi_cmp_int
.LVL245:
	.loc 1 438 48 discriminator 3
	beq	a0,zero,.L183
	.loc 1 452 5 is_stmt 1
	.loc 1 452 7 is_stmt 0
	bne	s1,zero,.L186
.L189:
	.loc 1 452 71
	bne	s2,zero,.L187
.L188:
	.loc 1 453 71
	bne	s3,zero,.L190
.L191:
	.loc 1 454 71
	bne	s4,zero,.L192
.L193:
	.loc 1 461 11
	li	a0,0
	.loc 1 455 71
	beq	s5,zero,.L179
	.loc 1 456 31
	addi	a1,s0,20
	.loc 1 462 1
	lw	s0,24(sp)
	.cfi_remember_state
	.cfi_restore 8
.LVL246:
	lw	ra,28(sp)
	.cfi_restore 1
	lw	s1,20(sp)
	.cfi_restore 9
.LVL247:
	lw	s2,16(sp)
	.cfi_restore 18
.LVL248:
	lw	s3,12(sp)
	.cfi_restore 19
.LVL249:
	lw	s4,8(sp)
	.cfi_restore 20
.LVL250:
	lw	s6,0(sp)
	.cfi_restore 22
	.loc 1 456 31
	mv	a0,s5
	.loc 1 462 1
	lw	s5,4(sp)
	.cfi_restore 21
.LVL251:
	addi	sp,sp,32
	.cfi_def_cfa_offset 0
	.loc 1 456 31
	tail	mbedtls_mpi_copy
.LVL252:
.L207:
	.cfi_restore_state
	.loc 1 445 22 discriminator 1
	bne	s3,zero,.L197
	.loc 1 445 35 discriminator 2
	bne	s4,zero,.L197
.LVL253:
	.loc 1 452 5 is_stmt 1
	.loc 1 452 7 is_stmt 0
	beq	s1,zero,.L193
.L186:
	.loc 1 452 31
	mv	a1,s6
	mv	a0,s1
	call	mbedtls_mpi_copy
.LVL254:
	.loc 1 452 20
	beq	a0,zero,.L189
.LVL255:
.L179:
	.loc 1 462 1
	lw	ra,28(sp)
	.cfi_remember_state
	.cfi_restore 1
	lw	s0,24(sp)
	.cfi_restore 8
.LVL256:
	lw	s1,20(sp)
	.cfi_restore 9
.LVL257:
	lw	s2,16(sp)
	.cfi_restore 18
.LVL258:
	lw	s3,12(sp)
	.cfi_restore 19
.LVL259:
	lw	s4,8(sp)
	.cfi_restore 20
.LVL260:
	lw	s5,4(sp)
	.cfi_restore 21
.LVL261:
	lw	s6,0(sp)
	.cfi_restore 22
.LVL262:
	addi	sp,sp,32
	.cfi_def_cfa_offset 0
	jr	ra
.LVL263:
.L187:
	.cfi_restore_state
	.loc 1 453 31
	addi	a1,s0,44
	mv	a0,s2
	call	mbedtls_mpi_copy
.LVL264:
	.loc 1 453 20
	beq	a0,zero,.L188
	j	.L179
.LVL265:
.L190:
	.loc 1 454 31
	addi	a1,s0,56
	mv	a0,s3
	call	mbedtls_mpi_copy
.LVL266:
	.loc 1 454 20
	beq	a0,zero,.L191
	j	.L179
.LVL267:
.L192:
	.loc 1 455 31
	addi	a1,s0,32
	mv	a0,s4
	call	mbedtls_mpi_copy
.LVL268:
	.loc 1 455 20
	beq	a0,zero,.L193
	j	.L179
	.cfi_endproc
.LFE20:
	.size	mbedtls_rsa_export, .-mbedtls_rsa_export
	.section	.text.mbedtls_rsa_export_crt,"ax",@progbits
	.align	1
	.globl	mbedtls_rsa_export_crt
	.type	mbedtls_rsa_export_crt, @function
mbedtls_rsa_export_crt:
.LFB21:
	.loc 1 472 1 is_stmt 1
	.cfi_startproc
.LVL269:
	.loc 1 473 5
	.loc 1 474 5
	.loc 1 475 5
	.loc 1 475 10
	.loc 1 475 17
	.loc 1 478 5
	.loc 1 472 1 is_stmt 0
	addi	sp,sp,-32
	.cfi_def_cfa_offset 32
	sw	s0,24(sp)
	sw	s3,12(sp)
	.cfi_offset 8, -8
	.cfi_offset 19, -20
	mv	s0,a0
	mv	s3,a1
	.loc 1 479 9
	addi	a0,a0,8
.LVL270:
	li	a1,0
.LVL271:
	.loc 1 472 1
	sw	s1,20(sp)
	sw	s2,16(sp)
	sw	ra,28(sp)
	.cfi_offset 9, -12
	.cfi_offset 18, -16
	.cfi_offset 1, -4
	.loc 1 472 1
	mv	s2,a2
	mv	s1,a3
	.loc 1 479 9
	call	mbedtls_mpi_cmp_int
.LVL272:
	.loc 1 482 48
	bne	a0,zero,.L211
.L213:
	.loc 1 486 15
	li	a0,-16384
	addi	a0,a0,-128
.L210:
	.loc 1 505 1
	lw	ra,28(sp)
	.cfi_remember_state
	.cfi_restore 1
	lw	s0,24(sp)
	.cfi_restore 8
.LVL273:
	lw	s1,20(sp)
	.cfi_restore 9
.LVL274:
	lw	s2,16(sp)
	.cfi_restore 18
.LVL275:
	lw	s3,12(sp)
	.cfi_restore 19
.LVL276:
	addi	sp,sp,32
	.cfi_def_cfa_offset 0
	jr	ra
.LVL277:
.L211:
	.cfi_restore_state
	.loc 1 480 9
	li	a1,0
	addi	a0,s0,44
	call	mbedtls_mpi_cmp_int
.LVL278:
	.loc 1 479 48
	beq	a0,zero,.L213
	.loc 1 481 9
	li	a1,0
	addi	a0,s0,56
	call	mbedtls_mpi_cmp_int
.LVL279:
	.loc 1 480 48
	beq	a0,zero,.L213
	.loc 1 482 9
	li	a1,0
	addi	a0,s0,32
	call	mbedtls_mpi_cmp_int
.LVL280:
	.loc 1 481 48
	beq	a0,zero,.L213
	.loc 1 483 9 discriminator 3
	li	a1,0
	addi	a0,s0,20
	call	mbedtls_mpi_cmp_int
.LVL281:
	.loc 1 482 48 discriminator 3
	beq	a0,zero,.L213
.LVL282:
	.loc 1 485 5 is_stmt 1
	.loc 1 490 5
	.loc 1 490 7 is_stmt 0
	bne	s3,zero,.L214
.L218:
	.loc 1 490 74
	bne	s2,zero,.L215
.L216:
	.loc 1 491 74
	bne	s1,zero,.L219
.L220:
	.loc 1 504 11
	li	a0,0
	j	.L210
.L214:
	.loc 1 490 32 discriminator 1
	addi	a1,s0,68
	mv	a0,s3
	call	mbedtls_mpi_copy
.LVL283:
	.loc 1 490 21 discriminator 1
	beq	a0,zero,.L218
.L217:
	.loc 1 494 9 is_stmt 1
	.loc 1 494 25 is_stmt 0
	li	a5,-16384
	addi	a5,a5,-128
	add	a0,a0,a5
.LVL284:
	j	.L210
.LVL285:
.L215:
	.loc 1 491 32
	addi	a1,s0,80
	mv	a0,s2
	call	mbedtls_mpi_copy
.LVL286:
	.loc 1 491 21
	beq	a0,zero,.L216
	j	.L217
.LVL287:
.L219:
	.loc 1 492 32
	addi	a1,s0,92
	mv	a0,s1
	call	mbedtls_mpi_copy
.LVL288:
	.loc 1 492 21
	beq	a0,zero,.L220
	j	.L217
	.cfi_endproc
.LFE21:
	.size	mbedtls_rsa_export_crt, .-mbedtls_rsa_export_crt
	.section	.text.mbedtls_rsa_init,"ax",@progbits
	.align	1
	.globl	mbedtls_rsa_init
	.type	mbedtls_rsa_init, @function
mbedtls_rsa_init:
.LFB22:
	.loc 1 513 1 is_stmt 1
	.cfi_startproc
.LVL289:
	.loc 1 514 5
	.loc 1 514 10
	.loc 1 514 17
	.loc 1 515 5
	.loc 1 515 10
	.loc 1 515 17
	.loc 1 518 5
	.loc 1 513 1 is_stmt 0
	addi	sp,sp,-16
	.cfi_def_cfa_offset 16
	sw	s1,4(sp)
	sw	s2,0(sp)
	.cfi_offset 9, -12
	.cfi_offset 18, -16
	mv	s1,a2
	mv	s2,a1
	.loc 1 518 5
	li	a2,172
.LVL290:
	li	a1,0
.LVL291:
	.loc 1 513 1
	sw	s0,8(sp)
	sw	ra,12(sp)
	.cfi_offset 8, -8
	.cfi_offset 1, -4
	.loc 1 513 1
	mv	s0,a0
	.loc 1 518 5
	call	memset
.LVL292:
	.loc 1 520 5 is_stmt 1
.LBB34:
.LBB35:
	.loc 1 536 5
	.loc 1 536 10
	.loc 1 536 17
	.loc 1 537 5
	.loc 1 537 10
	.loc 1 537 17
	.loc 1 540 5
.LBE35:
.LBE34:
	.loc 1 528 1 is_stmt 0
	lw	ra,12(sp)
	.cfi_restore 1
.LBB37:
.LBB36:
	.loc 1 540 18
	sw	s2,164(s0)
	.loc 1 541 5 is_stmt 1
	.loc 1 541 18 is_stmt 0
	sw	s1,168(s0)
.LVL293:
.LBE36:
.LBE37:
	.loc 1 528 1
	lw	s0,8(sp)
	.cfi_restore 8
.LVL294:
	lw	s1,4(sp)
	.cfi_restore 9
.LVL295:
	lw	s2,0(sp)
	.cfi_restore 18
.LVL296:
	addi	sp,sp,16
	.cfi_def_cfa_offset 0
	jr	ra
	.cfi_endproc
.LFE22:
	.size	mbedtls_rsa_init, .-mbedtls_rsa_init
	.section	.text.mbedtls_rsa_set_padding,"ax",@progbits
	.align	1
	.globl	mbedtls_rsa_set_padding
	.type	mbedtls_rsa_set_padding, @function
mbedtls_rsa_set_padding:
.LFB23:
	.loc 1 535 1 is_stmt 1
	.cfi_startproc
.LVL297:
	.loc 1 536 5
	.loc 1 536 10
	.loc 1 536 17
	.loc 1 537 5
	.loc 1 537 10
	.loc 1 537 17
	.loc 1 540 5
	.loc 1 540 18 is_stmt 0
	sw	a1,164(a0)
	.loc 1 541 5 is_stmt 1
	.loc 1 541 18 is_stmt 0
	sw	a2,168(a0)
	.loc 1 542 1
	ret
	.cfi_endproc
.LFE23:
	.size	mbedtls_rsa_set_padding, .-mbedtls_rsa_set_padding
	.section	.text.mbedtls_rsa_get_len,"ax",@progbits
	.align	1
	.globl	mbedtls_rsa_get_len
	.type	mbedtls_rsa_get_len, @function
mbedtls_rsa_get_len:
.LFB24:
	.loc 1 549 1 is_stmt 1
	.cfi_startproc
.LVL298:
	.loc 1 550 5
	.loc 1 551 1 is_stmt 0
	lw	a0,4(a0)
.LVL299:
	ret
	.cfi_endproc
.LFE24:
	.size	mbedtls_rsa_get_len, .-mbedtls_rsa_get_len
	.section	.text.mbedtls_rsa_check_pubkey,"ax",@progbits
	.align	1
	.globl	mbedtls_rsa_check_pubkey
	.type	mbedtls_rsa_check_pubkey, @function
mbedtls_rsa_check_pubkey:
.LFB26:
	.loc 1 682 1 is_stmt 1
	.cfi_startproc
.LVL300:
	.loc 1 683 5
	.loc 1 683 10
	.loc 1 683 17
	.loc 1 685 5
	.loc 1 682 1 is_stmt 0
	addi	sp,sp,-16
	.cfi_def_cfa_offset 16
	.loc 1 685 9
	li	a1,0
	.loc 1 682 1
	sw	s0,8(sp)
	sw	ra,12(sp)
	sw	s1,4(sp)
	sw	s2,0(sp)
	.cfi_offset 8, -8
	.cfi_offset 1, -4
	.cfi_offset 9, -12
	.cfi_offset 18, -16
	.loc 1 682 1
	mv	s0,a0
	.loc 1 685 9
	call	rsa_check_context.constprop.0
.LVL301:
	.loc 1 685 7
	bne	a0,zero,.L242
	.loc 1 688 9
	addi	s2,s0,8
	mv	s1,a0
	.loc 1 688 5 is_stmt 1
	.loc 1 688 9 is_stmt 0
	mv	a0,s2
	call	mbedtls_mpi_bitlen
.LVL302:
	.loc 1 688 7
	li	a5,127
	bleu	a0,a5,.L242
	.loc 1 693 5 is_stmt 1
	.loc 1 693 9 is_stmt 0
	addi	s0,s0,20
.LVL303:
	li	a1,0
	mv	a0,s0
	call	mbedtls_mpi_get_bit
.LVL304:
	.loc 1 693 7
	beq	a0,zero,.L242
	.loc 1 694 9 discriminator 1
	mv	a0,s0
	call	mbedtls_mpi_bitlen
.LVL305:
	.loc 1 693 48 discriminator 1
	li	a5,1
	bleu	a0,a5,.L242
	.loc 1 695 9
	mv	a1,s2
	mv	a0,s0
	call	mbedtls_mpi_cmp_mpi
.LVL306:
	.loc 1 694 43
	blt	a0,zero,.L241
.LVL307:
.L242:
	.loc 1 697 15
	li	s1,-16384
	addi	s1,s1,-512
.L241:
	.loc 1 701 1
	lw	ra,12(sp)
	.cfi_restore 1
	lw	s0,8(sp)
	.cfi_restore 8
	lw	s2,0(sp)
	.cfi_restore 18
	mv	a0,s1
	lw	s1,4(sp)
	.cfi_restore 9
	addi	sp,sp,16
	.cfi_def_cfa_offset 0
	jr	ra
	.cfi_endproc
.LFE26:
	.size	mbedtls_rsa_check_pubkey, .-mbedtls_rsa_check_pubkey
	.section	.text.mbedtls_rsa_check_privkey,"ax",@progbits
	.align	1
	.globl	mbedtls_rsa_check_privkey
	.type	mbedtls_rsa_check_privkey, @function
mbedtls_rsa_check_privkey:
.LFB27:
	.loc 1 707 1 is_stmt 1
	.cfi_startproc
.LVL308:
	.loc 1 708 5
	.loc 1 708 10
	.loc 1 708 17
	.loc 1 710 5
	.loc 1 707 1 is_stmt 0
	addi	sp,sp,-32
	.cfi_def_cfa_offset 32
	sw	s0,24(sp)
	sw	ra,28(sp)
	sw	s1,20(sp)
	sw	s2,16(sp)
	sw	s3,12(sp)
	.cfi_offset 8, -8
	.cfi_offset 1, -4
	.cfi_offset 9, -12
	.cfi_offset 18, -16
	.cfi_offset 19, -20
	.loc 1 707 1
	mv	s0,a0
	.loc 1 710 9
	call	mbedtls_rsa_check_pubkey
.LVL309:
	.loc 1 710 7
	bne	a0,zero,.L249
	.loc 1 711 9 discriminator 1
	li	a1,1
	mv	a0,s0
	call	rsa_check_context.constprop.0
.LVL310:
	.loc 1 710 46 discriminator 1
	bne	a0,zero,.L249
	.loc 1 716 5 is_stmt 1
	.loc 1 716 9 is_stmt 0
	addi	s1,s0,44
	addi	s2,s0,56
	addi	s3,s0,32
	li	a6,0
	li	a5,0
	addi	a4,s0,20
	mv	a3,s3
	mv	a2,s2
	mv	a1,s1
	addi	a0,s0,8
	call	mbedtls_rsa_validate_params
.LVL311:
	.loc 1 716 7
	bne	a0,zero,.L249
	.loc 1 723 10 is_stmt 1
	.loc 1 723 14 is_stmt 0
	addi	a5,s0,92
	addi	a4,s0,80
	addi	a3,s0,68
	mv	a2,s3
	mv	a1,s2
	mv	a0,s1
	call	mbedtls_rsa_validate_crt
.LVL312:
	.loc 1 723 12
	beq	a0,zero,.L248
.L249:
	.loc 1 726 9 is_stmt 1
	.loc 1 726 15 is_stmt 0
	li	a0,-16384
	addi	a0,a0,-512
.L248:
	.loc 1 731 1
	lw	ra,28(sp)
	.cfi_restore 1
	lw	s0,24(sp)
	.cfi_restore 8
.LVL313:
	lw	s1,20(sp)
	.cfi_restore 9
	lw	s2,16(sp)
	.cfi_restore 18
	lw	s3,12(sp)
	.cfi_restore 19
	addi	sp,sp,32
	.cfi_def_cfa_offset 0
	jr	ra
	.cfi_endproc
.LFE27:
	.size	mbedtls_rsa_check_privkey, .-mbedtls_rsa_check_privkey
	.section	.text.mbedtls_rsa_check_pub_priv,"ax",@progbits
	.align	1
	.globl	mbedtls_rsa_check_pub_priv
	.type	mbedtls_rsa_check_pub_priv, @function
mbedtls_rsa_check_pub_priv:
.LFB28:
	.loc 1 738 1 is_stmt 1
	.cfi_startproc
.LVL314:
	.loc 1 739 5
	.loc 1 739 10
	.loc 1 739 17
	.loc 1 740 5
	.loc 1 740 10
	.loc 1 740 17
	.loc 1 742 5
	.loc 1 738 1 is_stmt 0
	addi	sp,sp,-16
	.cfi_def_cfa_offset 16
	sw	s0,8(sp)
	sw	s1,4(sp)
	sw	ra,12(sp)
	.cfi_offset 8, -8
	.cfi_offset 9, -12
	.cfi_offset 1, -4
	.loc 1 738 1
	mv	s1,a0
	mv	s0,a1
	.loc 1 742 9
	call	mbedtls_rsa_check_pubkey
.LVL315:
	.loc 1 742 7
	bne	a0,zero,.L256
	.loc 1 743 9 discriminator 1
	mv	a0,s0
	call	mbedtls_rsa_check_privkey
.LVL316:
	.loc 1 742 46 discriminator 1
	bne	a0,zero,.L256
	.loc 1 748 5 is_stmt 1
	.loc 1 748 9 is_stmt 0
	addi	a1,s0,8
	addi	a0,s1,8
	call	mbedtls_mpi_cmp_mpi
.LVL317:
	.loc 1 748 7
	bne	a0,zero,.L256
	.loc 1 749 9 discriminator 1
	addi	a1,s0,20
	addi	a0,s1,20
	call	mbedtls_mpi_cmp_mpi
.LVL318:
	.loc 1 748 54 discriminator 1
	beq	a0,zero,.L255
.L256:
	.loc 1 751 15
	li	a0,-16384
	addi	a0,a0,-512
.L255:
	.loc 1 755 1
	lw	ra,12(sp)
	.cfi_restore 1
	lw	s0,8(sp)
	.cfi_restore 8
.LVL319:
	lw	s1,4(sp)
	.cfi_restore 9
.LVL320:
	addi	sp,sp,16
	.cfi_def_cfa_offset 0
	jr	ra
	.cfi_endproc
.LFE28:
	.size	mbedtls_rsa_check_pub_priv, .-mbedtls_rsa_check_pub_priv
	.section	.text.mbedtls_rsa_public,"ax",@progbits
	.align	1
	.globl	mbedtls_rsa_public
	.type	mbedtls_rsa_public, @function
mbedtls_rsa_public:
.LFB29:
	.loc 1 763 1 is_stmt 1
	.cfi_startproc
.LVL321:
	.loc 1 764 5
	.loc 1 765 5
	.loc 1 766 5
	.loc 1 767 5
	.loc 1 767 10
	.loc 1 767 17
	.loc 1 768 5
	.loc 1 768 10
	.loc 1 768 17
	.loc 1 769 5
	.loc 1 769 10
	.loc 1 769 17
	.loc 1 771 5
	.loc 1 763 1 is_stmt 0
	addi	sp,sp,-64
	.cfi_def_cfa_offset 64
	sw	s0,56(sp)
	.cfi_offset 8, -8
	mv	s0,a1
	.loc 1 771 9
	li	a1,0
.LVL322:
	.loc 1 763 1
	sw	s1,52(sp)
	sw	s2,48(sp)
	sw	ra,60(sp)
	sw	s3,44(sp)
	.cfi_offset 9, -12
	.cfi_offset 18, -16
	.cfi_offset 1, -4
	.cfi_offset 19, -20
	.loc 1 763 1
	mv	s1,a0
	mv	s2,a2
	.loc 1 771 9
	call	rsa_check_context.constprop.0
.LVL323:
	.loc 1 771 7
	bne	a0,zero,.L265
	.loc 1 774 5 is_stmt 1
	addi	a0,sp,20
	call	mbedtls_mpi_init
.LVL324:
	.loc 1 781 5
	.loc 1 781 10
	.loc 1 781 23 is_stmt 0
	lw	a2,4(s1)
	mv	a1,s0
	addi	a0,sp,20
	call	mbedtls_mpi_read_binary
.LVL325:
	mv	s0,a0
.LVL326:
	.loc 1 781 12
	bne	a0,zero,.L264
	.loc 1 781 101 is_stmt 1 discriminator 2
	.loc 1 783 5 discriminator 2
	.loc 1 783 34 is_stmt 0 discriminator 2
	addi	a3,s1,8
	.loc 1 783 9 discriminator 2
	mv	a1,a3
	addi	a0,sp,20
	sw	a3,12(sp)
	call	mbedtls_mpi_cmp_mpi
.LVL327:
	.loc 1 783 7 discriminator 2
	lw	a3,12(sp)
	.loc 1 785 13 discriminator 2
	li	s0,-4
.LVL328:
	.loc 1 783 7 discriminator 2
	bge	a0,zero,.L264
	.loc 1 789 5 is_stmt 1
	.loc 1 790 23 is_stmt 0
	addi	a1,sp,20
	addi	a4,s1,104
	addi	a2,s1,20
	mv	a0,a1
	.loc 1 789 10
	lw	s3,4(s1)
.LVL329:
	.loc 1 790 5 is_stmt 1
	.loc 1 790 10
	.loc 1 790 23 is_stmt 0
	call	mbedtls_mpi_exp_mod
.LVL330:
	mv	s0,a0
.LVL331:
	.loc 1 790 12
	bne	a0,zero,.L264
	.loc 1 790 112 is_stmt 1 discriminator 2
	.loc 1 791 5 discriminator 2
	.loc 1 791 10 discriminator 2
	.loc 1 791 23 is_stmt 0 discriminator 2
	mv	a2,s3
	mv	a1,s2
	addi	a0,sp,20
	call	mbedtls_mpi_write_binary
.LVL332:
	mv	s0,a0
.LVL333:
.L264:
	.loc 1 791 99 is_stmt 1 discriminator 3
	.loc 1 799 5 discriminator 3
	addi	a0,sp,20
	call	mbedtls_mpi_free
.LVL334:
	.loc 1 801 5 discriminator 3
	.loc 1 801 7 is_stmt 0 discriminator 3
	beq	s0,zero,.L262
	.loc 1 802 9 is_stmt 1
	.loc 1 802 25 is_stmt 0
	li	a5,-16384
	addi	a5,a5,-640
	add	s0,s0,a5
.LVL335:
.L262:
	.loc 1 805 1
	lw	ra,60(sp)
	.cfi_remember_state
	.cfi_restore 1
	mv	a0,s0
	lw	s0,56(sp)
	.cfi_restore 8
	lw	s1,52(sp)
	.cfi_restore 9
.LVL336:
	lw	s2,48(sp)
	.cfi_restore 18
.LVL337:
	lw	s3,44(sp)
	.cfi_restore 19
	addi	sp,sp,64
	.cfi_def_cfa_offset 0
	jr	ra
.LVL338:
.L265:
	.cfi_restore_state
	.loc 1 772 15
	li	s0,-16384
.LVL339:
	addi	s0,s0,-128
	j	.L262
	.cfi_endproc
.LFE29:
	.size	mbedtls_rsa_public, .-mbedtls_rsa_public
	.section	.text.mbedtls_rsa_private,"ax",@progbits
	.align	1
	.globl	mbedtls_rsa_private
	.type	mbedtls_rsa_private, @function
mbedtls_rsa_private:
.LFB31:
	.loc 1 901 1 is_stmt 1
	.cfi_startproc
.LVL340:
	.loc 1 902 5
	.loc 1 903 5
	.loc 1 906 5
	.loc 1 910 5
	.loc 1 914 5
	.loc 1 918 5
	.loc 1 922 5
	.loc 1 901 1 is_stmt 0
	addi	sp,sp,-224
	.cfi_def_cfa_offset 224
	sw	s1,212(sp)
	.cfi_offset 9, -12
	mv	s1,a1
	.loc 1 941 9
	li	a1,1
.LVL341:
	.loc 1 901 1
	sw	s0,216(sp)
	sw	s2,208(sp)
	sw	s3,204(sp)
	sw	s6,192(sp)
	sw	ra,220(sp)
	sw	s4,200(sp)
	sw	s5,196(sp)
	sw	s7,188(sp)
	sw	s8,184(sp)
	sw	s9,180(sp)
	sw	s10,176(sp)
	sw	s11,172(sp)
	.cfi_offset 8, -8
	.cfi_offset 18, -16
	.cfi_offset 19, -20
	.cfi_offset 22, -32
	.cfi_offset 1, -4
	.cfi_offset 20, -24
	.cfi_offset 21, -28
	.cfi_offset 23, -36
	.cfi_offset 24, -40
	.cfi_offset 25, -44
	.cfi_offset 26, -48
	.cfi_offset 27, -52
	.loc 1 901 1
	mv	s2,a0
.LVL342:
	.loc 1 923 5 is_stmt 1
	.loc 1 935 5
	.loc 1 937 5
	.loc 1 937 10
	.loc 1 937 17
	.loc 1 938 5
	.loc 1 938 10
	.loc 1 938 17
	.loc 1 939 5
	.loc 1 939 10
	.loc 1 939 17
	.loc 1 941 5
	.loc 1 901 1 is_stmt 0
	mv	s6,a2
	mv	s0,a3
	mv	s3,a4
	.loc 1 941 9
	call	rsa_check_context.constprop.0
.LVL343:
	.loc 1 941 7
	bne	a0,zero,.L283
	.loc 1 953 5 is_stmt 1
	addi	a0,sp,28
	call	mbedtls_mpi_init
.LVL344:
	.loc 1 955 5
	addi	a0,sp,40
	call	mbedtls_mpi_init
.LVL345:
	.loc 1 956 5
	addi	a0,sp,52
	call	mbedtls_mpi_init
.LVL346:
	.loc 1 957 5
	addi	a0,sp,64
	call	mbedtls_mpi_init
.LVL347:
	.loc 1 959 5
	.loc 1 959 7 is_stmt 0
	beq	s1,zero,.L273
	.loc 1 964 9 is_stmt 1
	addi	a0,sp,100
	call	mbedtls_mpi_init
.LVL348:
	.loc 1 965 9
	addi	a0,sp,112
	call	mbedtls_mpi_init
.LVL349:
.L273:
	.loc 1 970 5
	addi	a0,sp,76
	call	mbedtls_mpi_init
.LVL350:
	.loc 1 970 30
	addi	a0,sp,88
	call	mbedtls_mpi_init
.LVL351:
	.loc 1 973 5
	addi	a0,sp,124
	call	mbedtls_mpi_init
.LVL352:
	.loc 1 974 5
	addi	a0,sp,136
	call	mbedtls_mpi_init
.LVL353:
	.loc 1 978 5
	.loc 1 978 10
	.loc 1 978 23 is_stmt 0
	lw	a2,4(s2)
	mv	a1,s0
	addi	a0,sp,28
	call	mbedtls_mpi_read_binary
.LVL354:
	mv	s0,a0
.LVL355:
	.loc 1 978 12
	bne	a0,zero,.L274
	.loc 1 978 101 is_stmt 1 discriminator 2
	.loc 1 979 5 discriminator 2
	.loc 1 979 34 is_stmt 0 discriminator 2
	addi	s4,s2,8
	.loc 1 979 9 discriminator 2
	mv	a1,s4
	addi	a0,sp,28
	call	mbedtls_mpi_cmp_mpi
.LVL356:
	.loc 1 981 13 discriminator 2
	li	s0,-4
.LVL357:
	.loc 1 979 7 discriminator 2
	bge	a0,zero,.L274
	.loc 1 985 5 is_stmt 1
	.loc 1 985 10
	.loc 1 985 23 is_stmt 0
	addi	a1,sp,28
	addi	a0,sp,124
	call	mbedtls_mpi_copy
.LVL358:
	mv	s0,a0
.LVL359:
	.loc 1 985 12
	bne	a0,zero,.L274
	.loc 1 922 18 discriminator 2
	addi	s7,s2,68
	.loc 1 923 18 discriminator 2
	addi	s5,s2,80
	.loc 1 985 81 is_stmt 1 discriminator 2
	.loc 1 987 5 discriminator 2
	.loc 1 987 7 is_stmt 0 discriminator 2
	beq	s1,zero,.L275
	.loc 1 993 9 is_stmt 1
	.loc 1 993 14
.LVL360:
.LBB40:
.LBB41:
	.loc 1 816 5
	.loc 1 817 5
	.loc 1 819 5
	addi	a0,sp,148
	call	mbedtls_mpi_init
.LVL361:
	.loc 1 821 5
	.loc 1 821 7 is_stmt 0
	lw	a5,160(s2)
	beq	a5,zero,.L285
	.loc 1 824 9 is_stmt 1
	.loc 1 824 14
	.loc 1 824 27 is_stmt 0
	addi	a1,s2,140
	mv	a2,a1
	mv	a0,a1
	sw	a1,12(sp)
	call	mbedtls_mpi_mul_mpi
.LVL362:
	mv	s0,a0
.LVL363:
	.loc 1 824 16
	bne	a0,zero,.L277
	.loc 1 824 110 is_stmt 1
	.loc 1 825 9
	.loc 1 825 14
	.loc 1 825 27 is_stmt 0
	lw	a1,12(sp)
	mv	a2,s4
	mv	a0,a1
	call	mbedtls_mpi_mod_mpi
.LVL364:
	mv	s0,a0
.LVL365:
	.loc 1 825 16
	bne	a0,zero,.L277
	.loc 1 825 109 is_stmt 1
	.loc 1 826 9
	.loc 1 826 14
	.loc 1 826 27 is_stmt 0
	addi	a1,s2,152
	mv	a2,a1
	mv	a0,a1
	sw	a1,12(sp)
	call	mbedtls_mpi_mul_mpi
.LVL366:
	mv	s0,a0
.LVL367:
	.loc 1 826 16
	bne	a0,zero,.L277
	.loc 1 826 110 is_stmt 1
	.loc 1 827 9
	.loc 1 827 14
	.loc 1 827 27 is_stmt 0
	lw	a1,12(sp)
	mv	a2,s4
	mv	a0,a1
	call	mbedtls_mpi_mod_mpi
.LVL368:
.L302:
	.loc 1 863 23
	mv	s0,a0
.LVL369:
	.loc 1 866 1
	j	.L277
.LVL370:
.L285:
	li	s9,12
	.loc 1 840 27
	addi	s10,s2,152
	.loc 1 844 27
	addi	s8,s2,140
	.loc 1 852 22
	li	s11,-14
.LVL371:
.L276:
	.loc 1 833 5 is_stmt 1
	.loc 1 834 9
	.loc 1 834 11 is_stmt 0
	addi	s9,s9,-1
.LVL372:
	beq	s9,zero,.L286
.LVL373:
	.loc 1 840 9 is_stmt 1
	.loc 1 840 14
	.loc 1 840 27 is_stmt 0
	lw	a1,4(s2)
	mv	a3,s6
	mv	a2,s1
	addi	a1,a1,-1
	mv	a0,s10
	call	mbedtls_mpi_fill_random
.LVL374:
	mv	s0,a0
.LVL375:
	.loc 1 840 16
	bne	a0,zero,.L277
	.loc 1 840 122 is_stmt 1
	.loc 1 843 9
	.loc 1 843 14
	.loc 1 843 27 is_stmt 0
	lw	a1,4(s2)
	mv	a3,s6
	mv	a2,s1
	addi	a1,a1,-1
	addi	a0,sp,148
	call	mbedtls_mpi_fill_random
.LVL376:
	mv	s0,a0
.LVL377:
	.loc 1 843 16
	bne	a0,zero,.L277
	.loc 1 843 116 is_stmt 1
	.loc 1 844 9
	.loc 1 844 14
	.loc 1 844 27 is_stmt 0
	addi	a2,sp,148
	mv	a1,s10
	mv	a0,s8
	call	mbedtls_mpi_mul_mpi
.LVL378:
	mv	s0,a0
.LVL379:
	.loc 1 844 16
	bne	a0,zero,.L277
	.loc 1 844 104 is_stmt 1
	.loc 1 845 9
	.loc 1 845 14
	.loc 1 845 27 is_stmt 0
	mv	a2,s4
	mv	a1,s8
	mv	a0,s8
	call	mbedtls_mpi_mod_mpi
.LVL380:
	mv	s0,a0
.LVL381:
	.loc 1 845 16
	bne	a0,zero,.L277
	.loc 1 845 109 is_stmt 1
	.loc 1 851 9
	.loc 1 851 15 is_stmt 0
	mv	a2,s4
	mv	a1,s8
	mv	a0,s8
	call	mbedtls_mpi_inv_mod
.LVL382:
	mv	s0,a0
.LVL383:
	.loc 1 852 9 is_stmt 1
	.loc 1 852 11 is_stmt 0
	beq	a0,zero,.L278
	.loc 1 852 22
	beq	a0,s11,.L276
.LVL384:
.L277:
	.loc 1 863 124 is_stmt 1
	.loc 1 867 5
	addi	a0,sp,148
	call	mbedtls_mpi_free
.LVL385:
	.loc 1 869 5
.LBE41:
.LBE40:
	.loc 1 993 16 is_stmt 0
	bne	s0,zero,.L274
.LVL386:
	.loc 1 993 100 is_stmt 1 discriminator 2
	.loc 1 994 9 discriminator 2
	.loc 1 994 14 discriminator 2
	.loc 1 994 27 is_stmt 0 discriminator 2
	addi	a1,sp,28
	addi	a2,s2,140
	mv	a0,a1
	call	mbedtls_mpi_mul_mpi
.LVL387:
	mv	s0,a0
.LVL388:
	.loc 1 994 16 discriminator 2
	bne	a0,zero,.L274
	.loc 1 994 98 is_stmt 1 discriminator 2
	.loc 1 995 9 discriminator 2
	.loc 1 995 14 discriminator 2
	.loc 1 995 27 is_stmt 0 discriminator 2
	addi	a1,sp,28
	mv	a2,s4
	mv	a0,a1
	call	mbedtls_mpi_mod_mpi
.LVL389:
	mv	s0,a0
.LVL390:
	.loc 1 995 16 discriminator 2
	bne	a0,zero,.L274
	.loc 1 995 97 is_stmt 1 discriminator 2
	.loc 1 1000 9 discriminator 2
	.loc 1 1000 14 discriminator 2
	.loc 1 1000 27 is_stmt 0 discriminator 2
	li	a2,1
	addi	a1,s2,44
	addi	a0,sp,40
	call	mbedtls_mpi_sub_int
.LVL391:
	mv	s0,a0
.LVL392:
	.loc 1 1000 16 discriminator 2
	bne	a0,zero,.L274
	.loc 1 1000 97 is_stmt 1 discriminator 2
	.loc 1 1001 9 discriminator 2
	.loc 1 1001 14 discriminator 2
	.loc 1 1001 27 is_stmt 0 discriminator 2
	li	a2,1
	addi	a1,s2,56
	addi	a0,sp,52
	call	mbedtls_mpi_sub_int
.LVL393:
	mv	s0,a0
.LVL394:
	.loc 1 1001 16 discriminator 2
	bne	a0,zero,.L274
	.loc 1 1001 97 is_stmt 1 discriminator 2
	.loc 1 1018 9 discriminator 2
	.loc 1 1018 14 discriminator 2
	.loc 1 1018 27 is_stmt 0 discriminator 2
	mv	a3,s6
	mv	a2,s1
	li	a1,28
	addi	a0,sp,64
	call	mbedtls_mpi_fill_random
.LVL395:
	mv	s0,a0
.LVL396:
	.loc 1 1018 16 discriminator 2
	bne	a0,zero,.L274
	.loc 1 1018 106 is_stmt 1 discriminator 2
	.loc 1 1020 9 discriminator 2
	.loc 1 1020 14 discriminator 2
	.loc 1 1020 27 is_stmt 0 discriminator 2
	addi	a2,sp,64
	addi	a1,sp,40
	addi	a0,sp,100
	call	mbedtls_mpi_mul_mpi
.LVL397:
	mv	s0,a0
.LVL398:
	.loc 1 1020 16 discriminator 2
	bne	a0,zero,.L274
	.loc 1 1020 100 is_stmt 1 discriminator 2
	.loc 1 1021 9 discriminator 2
	.loc 1 1021 14 discriminator 2
	.loc 1 1021 27 is_stmt 0 discriminator 2
	addi	a1,sp,100
	mv	a2,s7
	mv	a0,a1
	call	mbedtls_mpi_add_mpi
.LVL399:
	mv	s0,a0
.LVL400:
	.loc 1 1021 16 discriminator 2
	bne	a0,zero,.L274
	.loc 1 1021 112 is_stmt 1 discriminator 2
	.loc 1 1024 9 discriminator 2
.LVL401:
	.loc 1 1029 9 discriminator 2
	.loc 1 1029 14 discriminator 2
	.loc 1 1029 27 is_stmt 0 discriminator 2
	mv	a3,s6
	mv	a2,s1
	li	a1,28
	addi	a0,sp,64
	call	mbedtls_mpi_fill_random
.LVL402:
	mv	s0,a0
.LVL403:
	.loc 1 1029 16 discriminator 2
	bne	a0,zero,.L274
	.loc 1 1029 106 is_stmt 1 discriminator 2
	.loc 1 1031 9 discriminator 2
	.loc 1 1031 14 discriminator 2
	.loc 1 1031 27 is_stmt 0 discriminator 2
	addi	a2,sp,64
	addi	a1,sp,52
	addi	a0,sp,112
	call	mbedtls_mpi_mul_mpi
.LVL404:
	mv	s0,a0
.LVL405:
	.loc 1 1031 16 discriminator 2
	bne	a0,zero,.L274
	.loc 1 1031 100 is_stmt 1 discriminator 2
	.loc 1 1032 9 discriminator 2
	.loc 1 1032 14 discriminator 2
	.loc 1 1032 27 is_stmt 0 discriminator 2
	addi	a1,sp,112
	mv	a2,s5
	mv	a0,a1
	call	mbedtls_mpi_add_mpi
.LVL406:
	mv	s0,a0
.LVL407:
	.loc 1 1032 16 discriminator 2
	bne	a0,zero,.L274
	.loc 1 1035 12
	addi	s5,sp,112
	.loc 1 1024 12
	addi	s7,sp,100
.LVL408:
.L275:
	.loc 1 1049 5 is_stmt 1
	.loc 1 1049 10
	.loc 1 1049 57 is_stmt 0
	addi	s6,s2,44
.LVL409:
	.loc 1 1049 23
	addi	a4,s2,116
	mv	a3,s6
	mv	a2,s7
	addi	a1,sp,28
	addi	a0,sp,76
	call	mbedtls_mpi_exp_mod
.LVL410:
	mv	s0,a0
.LVL411:
	.loc 1 1049 12
	bne	a0,zero,.L274
	.loc 1 1049 108 is_stmt 1 discriminator 2
	.loc 1 1050 5 discriminator 2
	.loc 1 1050 10 discriminator 2
	.loc 1 1050 57 is_stmt 0 discriminator 2
	addi	s7,s2,56
.LVL412:
	.loc 1 1050 23 discriminator 2
	addi	a4,s2,128
	mv	a3,s7
	mv	a2,s5
	addi	a1,sp,28
	addi	a0,sp,88
	call	mbedtls_mpi_exp_mod
.LVL413:
	mv	s0,a0
.LVL414:
	.loc 1 1050 12 discriminator 2
	bne	a0,zero,.L274
	.loc 1 1050 108 is_stmt 1 discriminator 2
	.loc 1 1055 5 discriminator 2
	.loc 1 1055 10 discriminator 2
	.loc 1 1055 23 is_stmt 0 discriminator 2
	addi	a2,sp,88
	addi	a1,sp,76
	addi	a0,sp,28
	call	mbedtls_mpi_sub_mpi
.LVL415:
	mv	s0,a0
.LVL416:
	.loc 1 1055 12 discriminator 2
	bne	a0,zero,.L274
	.loc 1 1055 90 is_stmt 1 discriminator 2
	.loc 1 1056 5 discriminator 2
	.loc 1 1056 10 discriminator 2
	.loc 1 1056 23 is_stmt 0 discriminator 2
	addi	a2,s2,92
	addi	a1,sp,28
	addi	a0,sp,76
	call	mbedtls_mpi_mul_mpi
.LVL417:
	mv	s0,a0
.LVL418:
	.loc 1 1056 12 discriminator 2
	bne	a0,zero,.L274
	.loc 1 1056 95 is_stmt 1 discriminator 2
	.loc 1 1057 5 discriminator 2
	.loc 1 1057 10 discriminator 2
	.loc 1 1057 23 is_stmt 0 discriminator 2
	mv	a2,s6
	addi	a1,sp,76
	addi	a0,sp,28
	call	mbedtls_mpi_mod_mpi
.LVL419:
	mv	s0,a0
.LVL420:
	.loc 1 1057 12 discriminator 2
	bne	a0,zero,.L274
	.loc 1 1057 94 is_stmt 1 discriminator 2
	.loc 1 1062 5 discriminator 2
	.loc 1 1062 10 discriminator 2
	.loc 1 1062 23 is_stmt 0 discriminator 2
	mv	a2,s7
	addi	a1,sp,28
	addi	a0,sp,76
	call	mbedtls_mpi_mul_mpi
.LVL421:
	mv	s0,a0
.LVL422:
	.loc 1 1062 12 discriminator 2
	bne	a0,zero,.L274
	.loc 1 1062 94 is_stmt 1 discriminator 2
	.loc 1 1063 5 discriminator 2
	.loc 1 1063 10 discriminator 2
	.loc 1 1063 23 is_stmt 0 discriminator 2
	addi	a2,sp,76
	addi	a1,sp,88
	addi	a0,sp,28
	call	mbedtls_mpi_add_mpi
.LVL423:
	mv	s0,a0
.LVL424:
	.loc 1 1063 12 discriminator 2
	bne	a0,zero,.L274
	.loc 1 1063 90 is_stmt 1 discriminator 2
	.loc 1 1066 5 discriminator 2
	.loc 1 1066 7 is_stmt 0 discriminator 2
	bne	s1,zero,.L279
.L281:
	.loc 1 1073 97 is_stmt 1
	.loc 1 1077 5
	.loc 1 1077 10
	.loc 1 1077 23 is_stmt 0
	addi	a4,s2,104
	mv	a3,s4
	addi	a2,s2,20
	addi	a1,sp,28
	addi	a0,sp,136
	call	mbedtls_mpi_exp_mod
.LVL425:
	mv	s0,a0
.LVL426:
	.loc 1 1077 12
	bne	a0,zero,.L274
	.loc 1 1077 112 is_stmt 1 discriminator 2
	.loc 1 1079 5 discriminator 2
	.loc 1 1079 9 is_stmt 0 discriminator 2
	addi	a1,sp,124
	addi	a0,sp,136
	call	mbedtls_mpi_cmp_mpi
.LVL427:
	.loc 1 1079 7 discriminator 2
	bne	a0,zero,.L287
	.loc 1 1085 5 is_stmt 1
.LVL428:
	.loc 1 1086 5
	.loc 1 1086 10
	.loc 1 1086 23 is_stmt 0
	lw	a2,4(s2)
	mv	a1,s3
	addi	a0,sp,28
	call	mbedtls_mpi_write_binary
.LVL429:
	mv	s0,a0
.LVL430:
	.loc 1 1088 1
	j	.L274
.LVL431:
.L278:
.LBB43:
.LBB42:
	.loc 1 858 5 is_stmt 1
	.loc 1 858 10
	.loc 1 858 23 is_stmt 0
	addi	a2,sp,148
	mv	a1,s8
	mv	a0,s8
	call	mbedtls_mpi_mul_mpi
.LVL432:
	mv	s0,a0
.LVL433:
	.loc 1 858 12
	bne	a0,zero,.L277
	.loc 1 858 100 is_stmt 1
	.loc 1 859 5
	.loc 1 859 10
	.loc 1 859 23 is_stmt 0
	mv	a2,s4
	mv	a1,s8
	mv	a0,s8
	call	mbedtls_mpi_mod_mpi
.LVL434:
	mv	s0,a0
.LVL435:
	.loc 1 859 12
	bne	a0,zero,.L277
	.loc 1 859 105 is_stmt 1
	.loc 1 863 5
	.loc 1 863 10
	.loc 1 863 23 is_stmt 0
	addi	a4,s2,104
	mv	a3,s4
	addi	a2,s2,20
	mv	a1,s8
	mv	a0,s8
	call	mbedtls_mpi_exp_mod
.LVL436:
	j	.L302
.LVL437:
.L286:
	.loc 1 836 17
	li	a0,-16384
	addi	s0,a0,-1152
	j	.L277
.LVL438:
.L279:
.LBE42:
.LBE43:
	.loc 1 1072 9 is_stmt 1
	.loc 1 1072 14
	.loc 1 1072 27 is_stmt 0
	addi	a1,sp,28
	addi	a2,s2,152
	mv	a0,a1
	call	mbedtls_mpi_mul_mpi
.LVL439:
	mv	s0,a0
.LVL440:
	.loc 1 1072 16
	bne	a0,zero,.L274
	.loc 1 1072 98 is_stmt 1 discriminator 2
	.loc 1 1073 9 discriminator 2
	.loc 1 1073 14 discriminator 2
	.loc 1 1073 27 is_stmt 0 discriminator 2
	addi	a1,sp,28
	mv	a2,s4
	mv	a0,a1
	call	mbedtls_mpi_mod_mpi
.LVL441:
	mv	s0,a0
.LVL442:
	.loc 1 1073 16 discriminator 2
	beq	a0,zero,.L281
.LVL443:
.L274:
	.loc 1 1086 99 is_stmt 1 discriminator 3
	.loc 1 1094 5 discriminator 3
	addi	a0,sp,40
	call	mbedtls_mpi_free
.LVL444:
	.loc 1 1095 5 discriminator 3
	addi	a0,sp,52
	call	mbedtls_mpi_free
.LVL445:
	.loc 1 1096 5 discriminator 3
	addi	a0,sp,64
	call	mbedtls_mpi_free
.LVL446:
	.loc 1 1098 5 discriminator 3
	.loc 1 1098 7 is_stmt 0 discriminator 3
	beq	s1,zero,.L282
	.loc 1 1103 9 is_stmt 1
	addi	a0,sp,100
	call	mbedtls_mpi_free
.LVL447:
	.loc 1 1104 9
	addi	a0,sp,112
	call	mbedtls_mpi_free
.LVL448:
.L282:
	.loc 1 1108 5
	addi	a0,sp,28
	call	mbedtls_mpi_free
.LVL449:
	.loc 1 1111 5
	addi	a0,sp,76
	call	mbedtls_mpi_free
.LVL450:
	.loc 1 1111 30
	addi	a0,sp,88
	call	mbedtls_mpi_free
.LVL451:
	.loc 1 1114 5
	addi	a0,sp,136
	call	mbedtls_mpi_free
.LVL452:
	.loc 1 1115 5
	addi	a0,sp,124
	call	mbedtls_mpi_free
.LVL453:
	.loc 1 1117 5
	.loc 1 1117 7 is_stmt 0
	beq	s0,zero,.L271
	.loc 1 1117 18 discriminator 1
	li	a5,-127
	blt	s0,a5,.L271
	.loc 1 1118 9 is_stmt 1
	.loc 1 1118 25 is_stmt 0
	li	a5,-16384
	addi	a5,a5,-768
	add	s0,s0,a5
.LVL454:
.L271:
	.loc 1 1121 1
	lw	ra,220(sp)
	.cfi_remember_state
	.cfi_restore 1
	mv	a0,s0
	lw	s0,216(sp)
	.cfi_restore 8
	lw	s1,212(sp)
	.cfi_restore 9
.LVL455:
	lw	s2,208(sp)
	.cfi_restore 18
.LVL456:
	lw	s3,204(sp)
	.cfi_restore 19
.LVL457:
	lw	s4,200(sp)
	.cfi_restore 20
	lw	s5,196(sp)
	.cfi_restore 21
	lw	s6,192(sp)
	.cfi_restore 22
	lw	s7,188(sp)
	.cfi_restore 23
	lw	s8,184(sp)
	.cfi_restore 24
	lw	s9,180(sp)
	.cfi_restore 25
	lw	s10,176(sp)
	.cfi_restore 26
	lw	s11,172(sp)
	.cfi_restore 27
	addi	sp,sp,224
	.cfi_def_cfa_offset 0
	jr	ra
.LVL458:
.L287:
	.cfi_restore_state
	.loc 1 1081 13
	li	a0,-16384
	addi	s0,a0,-896
.LVL459:
	j	.L274
.LVL460:
.L283:
	.loc 1 944 15
	li	a0,-16384
	addi	s0,a0,-128
.LVL461:
	j	.L271
	.cfi_endproc
.LFE31:
	.size	mbedtls_rsa_private, .-mbedtls_rsa_private
	.section	.text.mbedtls_rsa_rsaes_oaep_encrypt,"ax",@progbits
	.align	1
	.globl	mbedtls_rsa_rsaes_oaep_encrypt
	.type	mbedtls_rsa_rsaes_oaep_encrypt, @function
mbedtls_rsa_rsaes_oaep_encrypt:
.LFB33:
	.loc 1 1193 1 is_stmt 1
	.cfi_startproc
.LVL462:
	.loc 1 1194 5
	.loc 1 1195 5
	.loc 1 1196 5
	.loc 1 1193 1 is_stmt 0
	addi	sp,sp,-96
	.cfi_def_cfa_offset 96
	sw	s2,80(sp)
	sw	s3,76(sp)
	sw	s4,72(sp)
	sw	s5,68(sp)
	sw	s7,60(sp)
	sw	s9,52(sp)
	sw	s10,48(sp)
	sw	a5,4(sp)
	sw	ra,92(sp)
	sw	s0,88(sp)
	sw	s1,84(sp)
	sw	s6,64(sp)
	sw	s8,56(sp)
	sw	s11,44(sp)
	.cfi_offset 18, -16
	.cfi_offset 19, -20
	.cfi_offset 20, -24
	.cfi_offset 21, -28
	.cfi_offset 23, -36
	.cfi_offset 25, -44
	.cfi_offset 26, -48
	.cfi_offset 1, -4
	.cfi_offset 8, -8
	.cfi_offset 9, -12
	.cfi_offset 22, -32
	.cfi_offset 24, -40
	.cfi_offset 27, -52
	.loc 1 1193 1
	sw	a7,8(sp)
	.loc 1 1208 7
	li	a5,1
.LVL463:
	.loc 1 1193 1
	lw	s3,96(sp)
.LVL464:
	.loc 1 1197 5 is_stmt 1
	.loc 1 1198 5
	.loc 1 1199 5
	.loc 1 1201 5
	.loc 1 1201 10
	.loc 1 1201 17
	.loc 1 1202 5
	.loc 1 1202 10
	.loc 1 1202 17
	.loc 1 1204 5
	.loc 1 1204 10
	.loc 1 1204 17
	.loc 1 1205 5
	.loc 1 1205 10
	.loc 1 1205 17
	.loc 1 1206 5
	.loc 1 1206 10
	.loc 1 1206 17
	.loc 1 1208 5
	.loc 1 1193 1 is_stmt 0
	mv	s2,a0
	mv	s5,a1
	mv	s7,a2
	mv	s9,a3
	mv	s10,a4
	mv	s4,a6
	.loc 1 1208 7
	bne	a3,a5,.L304
	.loc 1 1208 19 discriminator 1
	lw	a5,164(a0)
	beq	a5,a3,.L304
.LVL465:
.L306:
	.loc 1 1209 15
	li	a0,-16384
	addi	s10,a0,-128
.LVL466:
.L303:
	.loc 1 1266 1
	lw	ra,92(sp)
	.cfi_remember_state
	.cfi_restore 1
	lw	s0,88(sp)
	.cfi_restore 8
	lw	s1,84(sp)
	.cfi_restore 9
	lw	s2,80(sp)
	.cfi_restore 18
.LVL467:
	lw	s3,76(sp)
	.cfi_restore 19
	lw	s4,72(sp)
	.cfi_restore 20
	lw	s5,68(sp)
	.cfi_restore 21
.LVL468:
	lw	s6,64(sp)
	.cfi_restore 22
	lw	s7,60(sp)
	.cfi_restore 23
.LVL469:
	lw	s8,56(sp)
	.cfi_restore 24
	lw	s9,52(sp)
	.cfi_restore 25
.LVL470:
	lw	s11,44(sp)
	.cfi_restore 27
	mv	a0,s10
	lw	s10,48(sp)
	.cfi_restore 26
	addi	sp,sp,96
	.cfi_def_cfa_offset 0
.LVL471:
	jr	ra
.LVL472:
.L304:
	.cfi_restore_state
	.loc 1 1211 5 is_stmt 1
	.loc 1 1211 7 is_stmt 0
	beq	s5,zero,.L306
	.loc 1 1214 5 is_stmt 1
	.loc 1 1214 15 is_stmt 0
	lw	a0,168(s2)
.LVL473:
	call	mbedtls_md_info_from_type
.LVL474:
	mv	s6,a0
.LVL475:
	.loc 1 1215 5 is_stmt 1
	.loc 1 1215 7 is_stmt 0
	beq	a0,zero,.L306
	.loc 1 1218 5 is_stmt 1
	.loc 1 1218 10 is_stmt 0
	lw	s1,4(s2)
.LVL476:
	.loc 1 1219 5 is_stmt 1
	.loc 1 1219 12 is_stmt 0
	call	mbedtls_md_get_size
.LVL477:
	.loc 1 1222 18
	slli	s11,a0,1
	.loc 1 1222 25
	addi	a5,s4,2
	add	a5,a5,s11
	.loc 1 1219 12
	mv	s0,a0
.LVL478:
	.loc 1 1222 5 is_stmt 1
	.loc 1 1222 7 is_stmt 0
	bltu	a5,s4,.L306
	.loc 1 1222 36 discriminator 1
	bgtu	a5,s1,.L306
	.loc 1 1225 5 is_stmt 1
	mv	a2,s1
	li	a1,0
	mv	a0,s3
	call	memset
.LVL479:
	.loc 1 1227 5
	.loc 1 1227 7 is_stmt 0
	addi	s8,s3,1
.LVL480:
	.loc 1 1227 10
	sb	zero,0(s3)
	.loc 1 1230 5 is_stmt 1
	.loc 1 1230 17 is_stmt 0
	mv	a2,s0
	mv	a1,s8
	mv	a0,s7
	jalr	s5
.LVL481:
	.loc 1 1230 7
	beq	a0,zero,.L307
	.loc 1 1231 9 is_stmt 1
	.loc 1 1231 25 is_stmt 0
	li	s10,-16384
.LVL482:
	addi	s10,s10,-1152
	add	s10,a0,s10
	j	.L303
.LVL483:
.L307:
	.loc 1 1233 5 is_stmt 1
	.loc 1 1236 17 is_stmt 0
	lw	a2,4(sp)
	.loc 1 1233 7
	add	a3,s8,s0
.LVL484:
	.loc 1 1236 5 is_stmt 1
	.loc 1 1236 17 is_stmt 0
	mv	a1,s10
	mv	a0,s6
.LVL485:
	sw	a3,12(sp)
	call	mbedtls_md
.LVL486:
	mv	s10,a0
.LVL487:
	.loc 1 1236 7
	bne	a0,zero,.L303
	.loc 1 1238 5 is_stmt 1
.LVL488:
	.loc 1 1239 5
	.loc 1 1239 7 is_stmt 0
	sub	a0,s1,s4
.LVL489:
	lw	a3,12(sp)
	addi	a0,a0,-2
	add	a0,a0,s0
	.loc 1 1241 5
	lw	a1,8(sp)
	.loc 1 1239 7
	sub	a0,a0,s11
	add	a0,a3,a0
.LVL490:
	.loc 1 1240 5 is_stmt 1
	.loc 1 1240 10 is_stmt 0
	li	a5,1
	sb	a5,0(a0)
	.loc 1 1241 5 is_stmt 1
	mv	a2,s4
	addi	a0,a0,1
.LVL491:
	call	memcpy
.LVL492:
	.loc 1 1243 5
	addi	a0,sp,20
	call	mbedtls_md_init
.LVL493:
	.loc 1 1244 5
	.loc 1 1244 17 is_stmt 0
	li	a2,0
	mv	a1,s6
	addi	a0,sp,20
	call	mbedtls_md_setup
.LVL494:
	mv	s10,a0
.LVL495:
	.loc 1 1244 7
	bne	a0,zero,.L308
	.loc 1 1248 5 is_stmt 1
	.loc 1 1248 41 is_stmt 0
	addi	s4,s0,1
.LVL496:
	.loc 1 1248 17
	addi	s1,s1,-1
.LVL497:
	add	s4,s3,s4
	sub	s1,s1,s0
.LVL498:
	addi	a4,sp,20
	mv	a3,s0
	mv	a2,s8
	mv	a1,s1
	mv	a0,s4
.LVL499:
	call	mgf_mask
.LVL500:
	mv	s10,a0
.LVL501:
	.loc 1 1248 7
	bne	a0,zero,.L308
	.loc 1 1253 5 is_stmt 1
	.loc 1 1253 17 is_stmt 0
	addi	a4,sp,20
	mv	a3,s1
	mv	a2,s4
	mv	a1,s0
	mv	a0,s8
.LVL502:
	call	mgf_mask
.LVL503:
	mv	s10,a0
.LVL504:
.L308:
	.loc 1 1258 5 is_stmt 1
	addi	a0,sp,20
.LVL505:
	call	mbedtls_md_free
.LVL506:
	.loc 1 1260 5
	.loc 1 1260 7 is_stmt 0
	bne	s10,zero,.L303
	.loc 1 1263 5 is_stmt 1
	.loc 1 1265 13 is_stmt 0
	bne	s9,zero,.L309
	.loc 1 1264 15
	mv	a2,s3
	mv	a1,s3
	mv	a0,s2
	call	mbedtls_rsa_public
.LVL507:
.L317:
	.loc 1 1265 15 discriminator 1
	mv	s10,a0
.LVL508:
	j	.L303
.LVL509:
.L309:
	mv	a4,s3
	mv	a3,s3
	mv	a2,s7
	mv	a1,s5
	mv	a0,s2
	call	mbedtls_rsa_private
.LVL510:
	j	.L317
	.cfi_endproc
.LFE33:
	.size	mbedtls_rsa_rsaes_oaep_encrypt, .-mbedtls_rsa_rsaes_oaep_encrypt
	.section	.text.mbedtls_rsa_rsaes_pkcs1_v15_encrypt,"ax",@progbits
	.align	1
	.globl	mbedtls_rsa_rsaes_pkcs1_v15_encrypt
	.type	mbedtls_rsa_rsaes_pkcs1_v15_encrypt, @function
mbedtls_rsa_rsaes_pkcs1_v15_encrypt:
.LFB34:
	.loc 1 1279 1 is_stmt 1
	.cfi_startproc
.LVL511:
	.loc 1 1280 5
	.loc 1 1281 5
	.loc 1 1282 5
	.loc 1 1279 1 is_stmt 0
	addi	sp,sp,-48
	.cfi_def_cfa_offset 48
	sw	s0,40(sp)
	sw	s2,32(sp)
	sw	s3,28(sp)
	sw	s4,24(sp)
	sw	s6,16(sp)
	sw	s7,12(sp)
	sw	s8,8(sp)
	sw	ra,44(sp)
	.cfi_offset 8, -8
	.cfi_offset 18, -16
	.cfi_offset 19, -20
	.cfi_offset 20, -24
	.cfi_offset 22, -32
	.cfi_offset 23, -36
	.cfi_offset 24, -40
	.cfi_offset 1, -4
	mv	s8,a5
	sw	s1,36(sp)
	sw	s5,20(sp)
	sw	s9,4(sp)
	.cfi_offset 9, -12
	.cfi_offset 21, -28
	.cfi_offset 25, -44
	.loc 1 1290 7
	li	a5,1
.LVL512:
	.loc 1 1279 1
	mv	s2,a0
	mv	s6,a1
	mv	s4,a2
	mv	s7,a3
	mv	s3,a4
	mv	s0,a6
.LVL513:
	.loc 1 1284 5 is_stmt 1
	.loc 1 1284 10
	.loc 1 1284 17
	.loc 1 1285 5
	.loc 1 1285 10
	.loc 1 1285 17
	.loc 1 1287 5
	.loc 1 1287 10
	.loc 1 1287 17
	.loc 1 1288 5
	.loc 1 1288 10
	.loc 1 1288 17
	.loc 1 1290 5
	.loc 1 1290 7 is_stmt 0
	bne	a3,a5,.L319
	.loc 1 1290 19 discriminator 1
	lw	a5,164(a0)
	beq	a5,zero,.L319
.LVL514:
.L321:
	.loc 1 1291 15
	li	a0,-16384
.LVL515:
	addi	a0,a0,-128
.LVL516:
.L318:
	.loc 1 1338 1
	lw	ra,44(sp)
	.cfi_remember_state
	.cfi_restore 1
	lw	s0,40(sp)
	.cfi_restore 8
.LVL517:
	lw	s1,36(sp)
	.cfi_restore 9
	lw	s2,32(sp)
	.cfi_restore 18
.LVL518:
	lw	s3,28(sp)
	.cfi_restore 19
.LVL519:
	lw	s4,24(sp)
	.cfi_restore 20
.LVL520:
	lw	s5,20(sp)
	.cfi_restore 21
	lw	s6,16(sp)
	.cfi_restore 22
.LVL521:
	lw	s7,12(sp)
	.cfi_restore 23
.LVL522:
	lw	s8,8(sp)
	.cfi_restore 24
.LVL523:
	lw	s9,4(sp)
	.cfi_restore 25
	addi	sp,sp,48
	.cfi_def_cfa_offset 0
	jr	ra
.LVL524:
.L319:
	.cfi_restore_state
	.loc 1 1293 5 is_stmt 1
	.loc 1 1296 7 is_stmt 0
	li	a5,-12
	.loc 1 1293 10
	lw	a6,4(s2)
.LVL525:
	.loc 1 1296 5 is_stmt 1
	.loc 1 1296 7 is_stmt 0
	bgtu	s3,a5,.L321
	.loc 1 1296 41 discriminator 1
	addi	a5,s3,11
	.loc 1 1296 26 discriminator 1
	bgtu	a5,a6,.L321
	.loc 1 1299 5 is_stmt 1
	.loc 1 1299 12 is_stmt 0
	sub	a6,a6,s3
.LVL526:
	.loc 1 1301 10
	sb	zero,0(s0)
.LVL527:
	.loc 1 1299 12
	addi	a6,a6,-3
.LVL528:
	.loc 1 1301 5 is_stmt 1
	.loc 1 1302 5
	.loc 1 1302 7 is_stmt 0
	bne	s7,zero,.L322
	.loc 1 1304 9 is_stmt 1
	.loc 1 1304 11 is_stmt 0
	beq	s6,zero,.L321
	.loc 1 1307 9 is_stmt 1
	.loc 1 1307 14 is_stmt 0
	li	a5,2
	addi	a6,a6,2
	.loc 1 1307 11
	addi	s5,s0,2
.LVL529:
	.loc 1 1307 14
	sb	a5,1(s0)
	.loc 1 1309 9 is_stmt 1
	add	s1,s0,a6
.LVL530:
.L323:
	.loc 1 1309 14
	bne	s5,s1,.L332
.LVL531:
.L327:
	.loc 1 1332 5
	.loc 1 1332 10 is_stmt 0
	sb	zero,0(s1)
	.loc 1 1333 5 is_stmt 1
	mv	a2,s3
	mv	a1,s8
	addi	a0,s1,1
.LVL532:
	call	memcpy
.LVL533:
	.loc 1 1335 5
	.loc 1 1337 13 is_stmt 0
	bne	s7,zero,.L330
	.loc 1 1336 15
	mv	a2,s0
	mv	a1,s0
	.loc 1 1338 1
	lw	s0,40(sp)
	.cfi_remember_state
	.cfi_restore 8
.LVL534:
	lw	ra,44(sp)
	.cfi_restore 1
	lw	s1,36(sp)
	.cfi_restore 9
.LVL535:
	lw	s3,28(sp)
	.cfi_restore 19
.LVL536:
	lw	s4,24(sp)
	.cfi_restore 20
.LVL537:
	lw	s5,20(sp)
	.cfi_restore 21
	lw	s6,16(sp)
	.cfi_restore 22
.LVL538:
	lw	s7,12(sp)
	.cfi_restore 23
.LVL539:
	lw	s8,8(sp)
	.cfi_restore 24
.LVL540:
	lw	s9,4(sp)
	.cfi_restore 25
	.loc 1 1336 15
	mv	a0,s2
	.loc 1 1338 1
	lw	s2,32(sp)
	.cfi_restore 18
.LVL541:
	addi	sp,sp,48
	.cfi_def_cfa_offset 0
	.loc 1 1336 15
	tail	mbedtls_rsa_public
.LVL542:
.L332:
	.cfi_restore_state
	li	s9,100
.L326:
.LVL543:
.LBB44:
	.loc 1 1313 13 is_stmt 1 discriminator 3
	.loc 1 1314 17 discriminator 3
	.loc 1 1314 23 is_stmt 0 discriminator 3
	li	a2,1
	mv	a1,s5
	mv	a0,s4
	jalr	s6
.LVL544:
	.loc 1 1315 20 is_stmt 1 discriminator 3
	.loc 1 1315 13 is_stmt 0 discriminator 3
	lbu	a5,0(s5)
	bne	a5,zero,.L324
.LVL545:
	.loc 1 1315 30 discriminator 1
	addi	s9,s9,-1
.LVL546:
	beq	s9,zero,.L325
.LVL547:
	.loc 1 1315 42 discriminator 2
	beq	a0,zero,.L326
.LVL548:
.L325:
	.loc 1 1319 17 is_stmt 1
	.loc 1 1319 33 is_stmt 0
	li	a5,-16384
	addi	a5,a5,-1152
	add	a0,a0,a5
.LVL549:
	j	.L318
.LVL550:
.L322:
.LBE44:
	.loc 1 1326 9 is_stmt 1
	.loc 1 1326 14 is_stmt 0
	li	a5,1
	sb	a5,1(s0)
	.loc 1 1326 11
	addi	s1,s0,2
.LVL551:
	.loc 1 1328 9 is_stmt 1
	mv	a4,s0
.LVL552:
	add	a5,a6,s0
	.loc 1 1329 18 is_stmt 0
	li	a3,-1
.LVL553:
.L328:
	.loc 1 1328 14 is_stmt 1
	bne	a4,a5,.L329
	add	s1,s1,a6
	j	.L327
.L329:
	.loc 1 1329 13
.LVL554:
	.loc 1 1329 18 is_stmt 0
	sb	a3,2(a4)
	addi	a4,a4,1
.LVL555:
	j	.L328
.LVL556:
.L330:
	.loc 1 1337 15 discriminator 1
	mv	a4,s0
	mv	a3,s0
	.loc 1 1338 1 discriminator 1
	lw	s0,40(sp)
	.cfi_remember_state
	.cfi_restore 8
.LVL557:
	lw	ra,44(sp)
	.cfi_restore 1
	lw	s1,36(sp)
	.cfi_restore 9
.LVL558:
	lw	s3,28(sp)
	.cfi_restore 19
.LVL559:
	lw	s5,20(sp)
	.cfi_restore 21
	lw	s7,12(sp)
	.cfi_restore 23
.LVL560:
	lw	s8,8(sp)
	.cfi_restore 24
.LVL561:
	lw	s9,4(sp)
	.cfi_restore 25
	.loc 1 1337 15 discriminator 1
	mv	a2,s4
	mv	a1,s6
	.loc 1 1338 1 discriminator 1
	lw	s4,24(sp)
	.cfi_restore 20
.LVL562:
	lw	s6,16(sp)
	.cfi_restore 22
.LVL563:
	.loc 1 1337 15 discriminator 1
	mv	a0,s2
	.loc 1 1338 1 discriminator 1
	lw	s2,32(sp)
	.cfi_restore 18
.LVL564:
	addi	sp,sp,48
	.cfi_def_cfa_offset 0
	.loc 1 1337 15 discriminator 1
	tail	mbedtls_rsa_private
.LVL565:
.L324:
	.cfi_restore_state
.LBB45:
	.loc 1 1318 13 is_stmt 1
	.loc 1 1318 29 is_stmt 0
	bne	a0,zero,.L325
	.loc 1 1321 13 is_stmt 1
	.loc 1 1321 14 is_stmt 0
	addi	s5,s5,1
.LVL566:
	j	.L323
.LBE45:
	.cfi_endproc
.LFE34:
	.size	mbedtls_rsa_rsaes_pkcs1_v15_encrypt, .-mbedtls_rsa_rsaes_pkcs1_v15_encrypt
	.section	.text.mbedtls_rsa_pkcs1_encrypt,"ax",@progbits
	.align	1
	.globl	mbedtls_rsa_pkcs1_encrypt
	.type	mbedtls_rsa_pkcs1_encrypt, @function
mbedtls_rsa_pkcs1_encrypt:
.LFB35:
	.loc 1 1350 1 is_stmt 1
	.cfi_startproc
.LVL567:
	.loc 1 1351 5
	.loc 1 1351 10
	.loc 1 1351 17
	.loc 1 1352 5
	.loc 1 1352 10
	.loc 1 1352 17
	.loc 1 1354 5
	.loc 1 1354 10
	.loc 1 1354 17
	.loc 1 1355 5
	.loc 1 1355 10
	.loc 1 1355 17
	.loc 1 1357 5
	.loc 1 1357 16 is_stmt 0
	lw	t4,164(a0)
	.loc 1 1357 5
	beq	t4,zero,.L347
	mv	a7,a5
	li	a5,1
.LVL568:
	beq	t4,a5,.L348
	li	a0,-16384
.LVL569:
	addi	a0,a0,-256
	.loc 1 1374 1
	ret
.LVL570:
.L347:
	.loc 1 1361 13 is_stmt 1
	.loc 1 1361 20 is_stmt 0
	tail	mbedtls_rsa_rsaes_pkcs1_v15_encrypt
.LVL571:
.L348:
	.loc 1 1367 13 is_stmt 1
	.loc 1 1350 1 is_stmt 0
	addi	sp,sp,-32
	.cfi_def_cfa_offset 32
	.loc 1 1367 20
	sw	a6,0(sp)
	li	a5,0
	mv	a6,a4
.LVL572:
	li	a4,0
.LVL573:
	.loc 1 1350 1
	sw	ra,28(sp)
	.cfi_offset 1, -4
	.loc 1 1367 20
	call	mbedtls_rsa_rsaes_oaep_encrypt
.LVL574:
	.loc 1 1374 1
	lw	ra,28(sp)
	.cfi_restore 1
	addi	sp,sp,32
	.cfi_def_cfa_offset 0
	jr	ra
	.cfi_endproc
.LFE35:
	.size	mbedtls_rsa_pkcs1_encrypt, .-mbedtls_rsa_pkcs1_encrypt
	.section	.text.mbedtls_rsa_rsaes_oaep_decrypt,"ax",@progbits
	.align	1
	.globl	mbedtls_rsa_rsaes_oaep_decrypt
	.type	mbedtls_rsa_rsaes_oaep_decrypt, @function
mbedtls_rsa_rsaes_oaep_decrypt:
.LFB36:
	.loc 1 1389 1 is_stmt 1
	.cfi_startproc
.LVL575:
	.loc 1 1390 5
	.loc 1 1391 5
	.loc 1 1392 5
	.loc 1 1393 5
	.loc 1 1394 5
	.loc 1 1395 5
	.loc 1 1396 5
	.loc 1 1397 5
	.loc 1 1399 5
	.loc 1 1399 10
	.loc 1 1399 17
	.loc 1 1400 5
	.loc 1 1400 10
	.loc 1 1400 17
	.loc 1 1402 5
	.loc 1 1402 10
	.loc 1 1402 17
	.loc 1 1403 5
	.loc 1 1403 10
	.loc 1 1403 17
	.loc 1 1404 5
	.loc 1 1404 10
	.loc 1 1404 17
	.loc 1 1405 5
	.loc 1 1405 10
	.loc 1 1405 17
	.loc 1 1410 5
	.loc 1 1389 1 is_stmt 0
	addi	sp,sp,-1184
	.cfi_def_cfa_offset 1184
	sw	s0,1176(sp)
	sw	s3,1164(sp)
	sw	s8,1144(sp)
	sw	s9,1140(sp)
	sw	s10,1136(sp)
	sw	s11,1132(sp)
	.cfi_offset 8, -8
	.cfi_offset 19, -20
	.cfi_offset 24, -40
	.cfi_offset 25, -44
	.cfi_offset 26, -48
	.cfi_offset 27, -52
	mv	s9,a5
	sw	ra,1180(sp)
	sw	s1,1172(sp)
	sw	s2,1168(sp)
	sw	s4,1160(sp)
	sw	s5,1156(sp)
	sw	s6,1152(sp)
	sw	s7,1148(sp)
	.cfi_offset 1, -4
	.cfi_offset 9, -12
	.cfi_offset 18, -16
	.cfi_offset 20, -24
	.cfi_offset 21, -28
	.cfi_offset 22, -32
	.cfi_offset 23, -36
	.loc 1 1389 1
	sw	a6,8(sp)
	.loc 1 1410 7
	li	a5,1
.LVL576:
	.loc 1 1389 1
	mv	s0,a0
	mv	s11,a1
	mv	s3,a3
	mv	s8,a4
	mv	s10,a7
	.loc 1 1410 7
	bne	a3,a5,.L354
	.loc 1 1410 19 discriminator 1
	lw	a5,164(a0)
	beq	a5,a3,.L354
.LVL577:
.L356:
	.loc 1 1411 15
	li	a0,-16384
	addi	s0,a0,-128
.LVL578:
.L353:
	.loc 1 1519 1
	lw	ra,1180(sp)
	.cfi_remember_state
	.cfi_restore 1
	mv	a0,s0
	lw	s0,1176(sp)
	.cfi_restore 8
	lw	s1,1172(sp)
	.cfi_restore 9
	lw	s2,1168(sp)
	.cfi_restore 18
	lw	s3,1164(sp)
	.cfi_restore 19
.LVL579:
	lw	s4,1160(sp)
	.cfi_restore 20
	lw	s5,1156(sp)
	.cfi_restore 21
	lw	s6,1152(sp)
	.cfi_restore 22
	lw	s7,1148(sp)
	.cfi_restore 23
	lw	s8,1144(sp)
	.cfi_restore 24
.LVL580:
	lw	s9,1140(sp)
	.cfi_restore 25
.LVL581:
	lw	s10,1136(sp)
	.cfi_restore 26
	lw	s11,1132(sp)
	.cfi_restore 27
.LVL582:
	addi	sp,sp,1184
	.cfi_def_cfa_offset 0
.LVL583:
	jr	ra
.LVL584:
.L354:
	.cfi_restore_state
	.loc 1 1413 10
	lw	s1,4(s0)
	sw	a2,12(sp)
	.loc 1 1413 5 is_stmt 1
.LVL585:
	.loc 1 1415 5
	.loc 1 1415 7 is_stmt 0
	li	a5,1008
	.loc 1 1415 19
	addi	a4,s1,-16
.LVL586:
	.loc 1 1415 7
	bgtu	a4,a5,.L356
	.loc 1 1418 5 is_stmt 1
	.loc 1 1418 15 is_stmt 0
	lw	a0,168(s0)
	call	mbedtls_md_info_from_type
.LVL587:
	mv	s6,a0
.LVL588:
	.loc 1 1419 5 is_stmt 1
	.loc 1 1419 7 is_stmt 0
	beq	a0,zero,.L356
	.loc 1 1422 5 is_stmt 1
	.loc 1 1422 12 is_stmt 0
	call	mbedtls_md_get_size
.LVL589:
	.loc 1 1425 18
	addi	s7,a0,1
	slli	s5,s7,1
	.loc 1 1422 12
	mv	s4,a0
.LVL590:
	.loc 1 1425 5 is_stmt 1
	.loc 1 1425 7 is_stmt 0
	bgtu	s5,s1,.L356
	.loc 1 1431 5 is_stmt 1
	.loc 1 1433 11 is_stmt 0
	lw	a2,12(sp)
	addi	s2,sp,96
	bne	s3,zero,.L357
	.loc 1 1432 13
	mv	a2,s2
	mv	a1,s10
	mv	a0,s0
.LVL591:
	call	mbedtls_rsa_public
.LVL592:
.L373:
	.loc 1 1433 13 discriminator 1
	mv	s0,a0
.LVL593:
	.loc 1 1435 5 is_stmt 1 discriminator 1
	.loc 1 1435 7 is_stmt 0 discriminator 1
	bne	a0,zero,.L359
	.loc 1 1441 5 is_stmt 1
	addi	a0,sp,20
	call	mbedtls_md_init
.LVL594:
	.loc 1 1442 5
	.loc 1 1442 17 is_stmt 0
	li	a2,0
	mv	a1,s6
	addi	a0,sp,20
	call	mbedtls_md_setup
.LVL595:
	mv	s0,a0
.LVL596:
	.loc 1 1442 7
	beq	a0,zero,.L360
.LVL597:
.L361:
	.loc 1 1455 9 is_stmt 1
	addi	a0,sp,20
	call	mbedtls_md_free
.LVL598:
	.loc 1 1456 9
.L359:
	.loc 1 1515 5
	mv	a0,s2
	li	a1,1024
	call	mbedtls_platform_zeroize
.LVL599:
	.loc 1 1516 5
	li	a1,64
	addi	a0,sp,32
	call	mbedtls_platform_zeroize
.LVL600:
	.loc 1 1518 5
	.loc 1 1518 11 is_stmt 0
	j	.L353
.LVL601:
.L357:
	.loc 1 1433 13 discriminator 1
	mv	a4,s2
	mv	a3,s10
	mv	a1,s11
	mv	a0,s0
.LVL602:
	call	mbedtls_rsa_private
.LVL603:
	j	.L373
.LVL604:
.L360:
	.loc 1 1449 5 is_stmt 1
	.loc 1 1449 17 is_stmt 0
	addi	s10,s1,-1
.LVL605:
	add	s7,s2,s7
	sub	s10,s10,s4
	addi	a4,sp,20
	mv	a3,s10
	mv	a2,s7
	mv	a1,s4
	addi	a0,sp,97
	call	mgf_mask
.LVL606:
	mv	s0,a0
.LVL607:
	.loc 1 1449 7
	bne	a0,zero,.L361
	.loc 1 1452 17
	addi	a4,sp,20
	mv	a3,s4
	addi	a2,sp,97
	mv	a1,s10
	mv	a0,s7
	call	mgf_mask
.LVL608:
	mv	s0,a0
.LVL609:
	.loc 1 1450 44
	bne	a0,zero,.L361
	.loc 1 1459 5 is_stmt 1
	addi	a0,sp,20
	call	mbedtls_md_free
.LVL610:
	.loc 1 1462 5
	.loc 1 1462 17 is_stmt 0
	addi	a3,sp,32
	mv	a2,s9
	mv	a1,s8
	mv	a0,s6
	call	mbedtls_md
.LVL611:
	mv	s0,a0
.LVL612:
	.loc 1 1462 7
	bne	a0,zero,.L359
	.loc 1 1468 5 is_stmt 1
.LVL613:
	.loc 1 1469 5
	.loc 1 1471 5
	.loc 1 1471 12 is_stmt 0
	lbu	a5,96(sp)
.LVL614:
	.loc 1 1473 5 is_stmt 1
	.loc 1 1473 7 is_stmt 0
	addi	a4,sp,97
.LVL615:
	add	a1,a4,s4
.LVL616:
	.loc 1 1476 5 is_stmt 1
	.loc 1 1476 12 is_stmt 0
	li	a3,0
.LVL617:
.L363:
	.loc 1 1476 17 is_stmt 1 discriminator 1
	.loc 1 1477 13 is_stmt 0 discriminator 1
	slli	a4,a5,24
	srai	a4,a4,24
	.loc 1 1476 5 discriminator 1
	bltu	a3,s4,.L364
	add	a1,a1,s4
.LVL618:
	.loc 1 1483 37
	sub	s5,s1,s5
	.loc 1 1482 14
	li	a2,0
	.loc 1 1481 13
	li	a0,0
	.loc 1 1483 12
	li	a3,0
.LVL619:
.L365:
	.loc 1 1483 17 is_stmt 1 discriminator 1
	.loc 1 1483 5 is_stmt 0 discriminator 1
	bne	s5,a3,.L366
	.loc 1 1489 5 is_stmt 1
	.loc 1 1489 7 is_stmt 0
	add	a1,a1,a0
.LVL620:
	.loc 1 1490 5 is_stmt 1
	.loc 1 1498 5
	.loc 1 1490 17 is_stmt 0
	lbu	a5,0(a1)
	xori	a5,a5,1
	.loc 1 1490 9
	or	a5,a4,a5
	.loc 1 1498 7
	slli	a5,a5,24
	srai	a5,a5,24
	bne	a5,zero,.L367
	.loc 1 1490 14
	addi	a1,a1,1
.LVL621:
	.loc 1 1504 5 is_stmt 1
	.loc 1 1504 7 is_stmt 0
	lw	a5,1188(sp)
	.loc 1 1504 20
	sub	a2,a1,s2
.LVL622:
	.loc 1 1504 14
	sub	a2,s1,a2
	.loc 1 1504 7
	bgtu	a2,a5,.L368
	.loc 1 1510 5 is_stmt 1
	.loc 1 1510 11 is_stmt 0
	lw	a5,8(sp)
	.loc 1 1511 5
	lw	a0,1184(sp)
.LVL623:
	.loc 1 1510 11
	sw	a2,0(a5)
	.loc 1 1511 5 is_stmt 1
	call	memcpy
.LVL624:
	.loc 1 1512 5
	j	.L359
.LVL625:
.L364:
	.loc 1 1477 9 discriminator 3
	.loc 1 1477 21 is_stmt 0 discriminator 3
	addi	a5,sp,32
.LVL626:
	add	a5,a5,a3
	.loc 1 1477 27 discriminator 3
	add	a2,a1,a3
	.loc 1 1477 25 discriminator 3
	lbu	a5,0(a5)
	lbu	a2,0(a2)
	.loc 1 1476 28 discriminator 3
	addi	a3,a3,1
.LVL627:
	.loc 1 1477 25 discriminator 3
	xor	a5,a5,a2
	.loc 1 1477 13 discriminator 3
	or	a5,a4,a5
	andi	a5,a5,0xff
.LVL628:
	.loc 1 1476 27 is_stmt 1 discriminator 3
	j	.L363
.LVL629:
.L366:
	.loc 1 1485 9 discriminator 3
	.loc 1 1485 22 is_stmt 0 discriminator 3
	add	a5,a1,a3
	.loc 1 1485 18 discriminator 3
	lbu	a5,0(a5)
	.loc 1 1483 43 discriminator 3
	addi	a3,a3,1
.LVL630:
	.loc 1 1485 18 discriminator 3
	or	a2,a2,a5
.LVL631:
	.loc 1 1486 9 is_stmt 1 discriminator 3
	.loc 1 1486 33 is_stmt 0 discriminator 3
	neg	a5,a2
	.loc 1 1486 65 discriminator 3
	or	a5,a2,a5
	andi	a5,a5,0xff
	srli	a5,a5,7
	xori	a5,a5,1
	.loc 1 1486 17 discriminator 3
	add	a0,a0,a5
.LVL632:
	.loc 1 1483 42 is_stmt 1 discriminator 3
	j	.L365
.LVL633:
.L367:
	.loc 1 1500 13 is_stmt 0
	li	a0,-16384
.LVL634:
	addi	s0,a0,-256
.LVL635:
	j	.L359
.LVL636:
.L368:
	.loc 1 1506 13
	li	a0,-16384
.LVL637:
	addi	s0,a0,-1024
.LVL638:
	j	.L359
	.cfi_endproc
.LFE36:
	.size	mbedtls_rsa_rsaes_oaep_decrypt, .-mbedtls_rsa_rsaes_oaep_decrypt
	.section	.text.mbedtls_rsa_rsaes_pkcs1_v15_decrypt,"ax",@progbits
	.align	1
	.globl	mbedtls_rsa_rsaes_pkcs1_v15_decrypt
	.type	mbedtls_rsa_rsaes_pkcs1_v15_decrypt, @function
mbedtls_rsa_rsaes_pkcs1_v15_decrypt:
.LFB41:
	.loc 1 1624 1 is_stmt 1
	.cfi_startproc
.LVL639:
	.loc 1 1625 5
	.loc 1 1626 5
	.loc 1 1627 5
	.loc 1 1638 5
	.loc 1 1639 5
	.loc 1 1640 5
	.loc 1 1641 5
	.loc 1 1642 5
	.loc 1 1644 5
	.loc 1 1644 10
	.loc 1 1644 17
	.loc 1 1645 5
	.loc 1 1645 10
	.loc 1 1645 17
	.loc 1 1647 5
	.loc 1 1647 10
	.loc 1 1647 17
	.loc 1 1648 5
	.loc 1 1648 10
	.loc 1 1648 17
	.loc 1 1649 5
	.loc 1 1649 10
	.loc 1 1649 17
	.loc 1 1651 5
	.loc 1 1624 1 is_stmt 0
	addi	sp,sp,-1056
	.cfi_def_cfa_offset 1056
	sw	s1,1044(sp)
	sw	s2,1040(sp)
	sw	s4,1032(sp)
	sw	s5,1028(sp)
	sw	ra,1052(sp)
	sw	s0,1048(sp)
	sw	s3,1036(sp)
	.cfi_offset 9, -12
	.cfi_offset 18, -16
	.cfi_offset 20, -24
	.cfi_offset 21, -28
	.cfi_offset 1, -4
	.cfi_offset 8, -8
	.cfi_offset 19, -20
	.loc 1 1624 1
	mv	s5,a3
	mv	a3,a5
.LVL640:
	.loc 1 1656 7
	li	a5,1
.LVL641:
	.loc 1 1651 10
	lw	s3,4(a0)
.LVL642:
	.loc 1 1652 5 is_stmt 1
	.loc 1 1624 1 is_stmt 0
	mv	s1,a4
	mv	s2,a6
	mv	s4,a7
.LVL643:
	.loc 1 1656 5 is_stmt 1
	.loc 1 1656 7 is_stmt 0
	bne	s5,a5,.L375
	.loc 1 1656 19 discriminator 1
	lw	a5,164(a0)
	bne	a5,zero,.L392
.L375:
	.loc 1 1659 5 is_stmt 1
	.loc 1 1659 19 is_stmt 0
	addi	a5,s3,-16
	.loc 1 1659 7
	li	a4,1008
.LVL644:
	bgtu	a5,a4,.L392
	.loc 1 1662 5 is_stmt 1
	.loc 1 1664 11 is_stmt 0
	bne	s5,zero,.L377
	.loc 1 1663 13
	mv	a2,sp
.LVL645:
	mv	a1,a3
.LVL646:
	call	mbedtls_rsa_public
.LVL647:
.L398:
	.loc 1 1664 13 discriminator 1
	mv	s0,a0
.LVL648:
	.loc 1 1666 5 is_stmt 1 discriminator 1
	.loc 1 1666 7 is_stmt 0 discriminator 1
	bne	a0,zero,.L379
	.loc 1 1671 5 is_stmt 1
	.loc 1 1673 7 is_stmt 0
	li	a5,1
	.loc 1 1671 15
	lbu	a1,0(sp)
.LVL649:
	.loc 1 1673 5 is_stmt 1
	.loc 1 1677 19 is_stmt 0
	lbu	a4,1(sp)
	.loc 1 1673 7
	bne	s5,a5,.L380
	.loc 1 1677 9 is_stmt 1
	.loc 1 1677 23 is_stmt 0
	xori	a4,a4,2
	.loc 1 1677 13
	or	a1,a1,a4
.LVL650:
	.loc 1 1681 9 is_stmt 1
	.loc 1 1681 21
	.loc 1 1640 19 is_stmt 0
	li	a5,0
	.loc 1 1638 12
	li	a3,0
	.loc 1 1681 16
	li	a2,2
.LVL651:
.L381:
	.loc 1 1683 13 is_stmt 1 discriminator 3
	.loc 1 1683 30 is_stmt 0 discriminator 3
	add	a4,sp,a2
	lbu	a4,0(a4)
	.loc 1 1681 32 discriminator 3
	addi	a2,a2,1
.LVL652:
	.loc 1 1683 36 discriminator 3
	neg	a0,a4
	.loc 1 1683 22 discriminator 3
	or	a4,a4,a0
	andi	a4,a4,0xff
	srli	a4,a4,7
	xori	a4,a4,1
	or	a5,a5,a4
.LVL653:
	.loc 1 1684 13 is_stmt 1 discriminator 3
	.loc 1 1684 39 is_stmt 0 discriminator 3
	neg	a4,a5
	.loc 1 1684 71 discriminator 3
	or	a4,a5,a4
	andi	a4,a4,0xff
	srli	a4,a4,7
	xori	a4,a4,1
	.loc 1 1684 23 discriminator 3
	add	a3,a3,a4
.LVL654:
	.loc 1 1681 31 is_stmt 1 discriminator 3
	.loc 1 1681 21 discriminator 3
	.loc 1 1681 9 is_stmt 0 discriminator 3
	bne	s3,a2,.L381
.LVL655:
.L382:
	.loc 1 1652 50
	addi	a2,s3,-11
	.loc 1 1652 24
	bleu	a2,s4,.L384
	mv	a2,s4
.L384:
	.loc 1 1705 5 is_stmt 1
.LVL656:
.LBB98:
.LBB99:
	.loc 1 1570 5
.LBB100:
.LBB101:
	.loc 1 1536 5
.LBE101:
.LBE100:
	.loc 1 1571 5
.LBE99:
.LBE98:
	.loc 1 1708 5
.LBB103:
.LBB104:
	.loc 1 1555 5
	.loc 1 1555 19 is_stmt 0
	addi	a4,a3,-8
	.loc 1 1555 28
	srli	a4,a4,31
	or	a1,a4,a1
.LVL657:
.LBE104:
.LBE103:
.LBB105:
.LBB102:
	.loc 1 1571 28
	seqz	a5,a5
.LVL658:
.LBE102:
.LBE105:
	.loc 1 1708 9
	or	a5,a5,a1
.LVL659:
	.loc 1 1717 5 is_stmt 1
	.loc 1 1719 60 is_stmt 0
	addi	s4,s3,-3
.LVL660:
.LBB106:
.LBB107:
.LBB108:
.LBB109:
	.loc 1 1536 27
	neg	s0,a5
.LVL661:
.LBE109:
.LBE108:
.LBE107:
.LBE106:
	.loc 1 1719 60
	sub	a3,s4,a3
.LVL662:
.LBB113:
.LBB112:
	.loc 1 1570 5 is_stmt 1
.LBB111:
.LBB110:
	.loc 1 1536 5
	.loc 1 1536 25 is_stmt 0
	or	s0,s0,a5
	.loc 1 1536 13
	srai	a1,s0,31
.LVL663:
.LBE110:
.LBE111:
	.loc 1 1571 5 is_stmt 1
	.loc 1 1571 28 is_stmt 0
	xor	s4,a3,a2
	and	s4,s4,a1
	xor	a6,s4,a3
.LVL664:
.LBE112:
.LBE113:
	.loc 1 1723 5 is_stmt 1
.LBB114:
.LBB115:
	.loc 1 1555 5
	.loc 1 1555 19 is_stmt 0
	sub	a4,a2,a6
	.loc 1 1555 28
	srli	a7,a4,31
.LVL665:
.LBE115:
.LBE114:
	.loc 1 1731 5 is_stmt 1
.LBB116:
.LBB117:
	.loc 1 1570 5
.LBB118:
.LBB119:
	.loc 1 1536 5
	.loc 1 1536 27 is_stmt 0
	srai	a4,a4,31
	li	a3,16384
	.loc 1 1536 25
	or	a4,a4,a7
	addi	s0,a3,1024
	.loc 1 1536 13
	srai	a4,a4,31
.LVL666:
.LBE119:
.LBE118:
	.loc 1 1571 5 is_stmt 1
	and	a0,a4,s0
.LVL667:
.LBE117:
.LBE116:
.LBB120:
.LBB121:
	.loc 1 1570 5
.LBE121:
.LBE120:
	.loc 1 1536 5
.LBB126:
.LBB122:
	.loc 1 1571 5
.LBE122:
.LBE126:
	.loc 1 1741 11 is_stmt 0
	or	a5,a5,a7
.LVL668:
.LBB127:
.LBB123:
	.loc 1 1571 28
	addi	s0,a3,256
	xor	s0,a0,s0
.LBE123:
.LBE127:
.LBB128:
.LBB129:
	.loc 1 1536 27
	neg	a3,a5
.LBE129:
.LBE128:
.LBB133:
.LBB124:
	.loc 1 1571 28
	and	s0,s0,a1
.LBE124:
.LBE133:
.LBB134:
.LBB130:
	.loc 1 1536 25
	or	a5,a3,a5
.LBE130:
.LBE134:
.LBB135:
.LBB125:
	.loc 1 1571 28
	xor	s0,s0,a0
.LBE125:
.LBE135:
.LBB136:
.LBB131:
	.loc 1 1536 13
	srai	a5,a5,31
.LBE131:
.LBE136:
	.loc 1 1731 9
	neg	s0,s0
.LVL669:
	.loc 1 1741 5 is_stmt 1
.LBB137:
.LBB132:
	.loc 1 1536 5
.LBE132:
.LBE137:
	.loc 1 1742 5
	.loc 1 1742 18
	mv	a1,sp
.LVL670:
	.loc 1 1742 12 is_stmt 0
	li	a3,11
	.loc 1 1743 16
	not	a5,a5
.LVL671:
.L385:
	.loc 1 1743 9 is_stmt 1 discriminator 3
	.loc 1 1743 16 is_stmt 0 discriminator 3
	lbu	a0,11(a1)
	.loc 1 1742 29 discriminator 3
	addi	a3,a3,1
.LVL672:
	.loc 1 1742 5 discriminator 3
	addi	a1,a1,1
	.loc 1 1743 16 discriminator 3
	and	a0,a5,a0
	sb	a0,10(a1)
	.loc 1 1742 28 is_stmt 1 discriminator 3
.LVL673:
	.loc 1 1742 18 discriminator 3
	.loc 1 1742 5 is_stmt 0 discriminator 3
	bne	s3,a3,.L385
	.loc 1 1749 5 is_stmt 1
.LVL674:
.LBB138:
.LBB139:
	.loc 1 1570 5
.LBE139:
.LBE138:
	.loc 1 1536 5
.LBB142:
.LBB140:
	.loc 1 1571 5
	.loc 1 1571 28 is_stmt 0
	xor	s4,a2,a6
	and	a4,s4,a4
.LVL675:
.LBE140:
.LBE142:
	.loc 1 1759 34
	sub	a1,s3,a2
.LBB143:
.LBB141:
	.loc 1 1571 28
	xor	s4,a4,a6
.LVL676:
.LBE141:
.LBE143:
	.loc 1 1759 5 is_stmt 1
	add	a1,sp,a1
.LVL677:
.LBB144:
.LBB145:
	.loc 1 1594 5
	.loc 1 1595 5
	.loc 1 1596 5
	.loc 1 1596 7 is_stmt 0
	bne	a2,zero,.L386
.LVL678:
.L390:
.LBE145:
.LBE144:
	.loc 1 1765 5 is_stmt 1
	mv	a0,s2
	call	memcpy
.LVL679:
	.loc 1 1771 5
	.loc 1 1771 11 is_stmt 0
	sw	s4,0(s1)
.LVL680:
.L379:
	.loc 1 1774 5 is_stmt 1
	li	a1,1024
	mv	a0,sp
	call	mbedtls_platform_zeroize
.LVL681:
	.loc 1 1776 5
.L374:
	.loc 1 1777 1 is_stmt 0
	lw	ra,1052(sp)
	.cfi_remember_state
	.cfi_restore 1
	mv	a0,s0
	lw	s0,1048(sp)
	.cfi_restore 8
	lw	s1,1044(sp)
	.cfi_restore 9
.LVL682:
	lw	s2,1040(sp)
	.cfi_restore 18
.LVL683:
	lw	s3,1036(sp)
	.cfi_restore 19
.LVL684:
	lw	s4,1032(sp)
	.cfi_restore 20
	lw	s5,1028(sp)
	.cfi_restore 21
.LVL685:
	addi	sp,sp,1056
	.cfi_def_cfa_offset 0
	jr	ra
.LVL686:
.L377:
	.cfi_restore_state
	.loc 1 1664 13 discriminator 1
	mv	a4,sp
	call	mbedtls_rsa_private
.LVL687:
	j	.L398
.LVL688:
.L380:
	.loc 1 1691 9 is_stmt 1
	.loc 1 1691 23 is_stmt 0
	xori	a4,a4,1
	.loc 1 1691 13
	or	a1,a1,a4
.LVL689:
	.loc 1 1696 9 is_stmt 1
	.loc 1 1696 21
	.loc 1 1640 19 is_stmt 0
	li	a5,0
	.loc 1 1638 12
	li	a3,0
	.loc 1 1696 16
	li	a0,2
.LVL690:
.L383:
	.loc 1 1698 13 is_stmt 1 discriminator 3
	.loc 1 1698 36 is_stmt 0 discriminator 3
	add	a4,sp,a0
	lbu	a2,0(a4)
.LVL691:
.LBB164:
.LBB165:
	.loc 1 1570 5 is_stmt 1 discriminator 3
.LBB166:
.LBB167:
	.loc 1 1536 5 discriminator 3
.LBE167:
.LBE166:
	.loc 1 1571 5 discriminator 3
.LBE165:
.LBE164:
	.loc 1 1696 32 is_stmt 0 discriminator 3
	addi	a0,a0,1
.LVL692:
.LBB169:
.LBB168:
	.loc 1 1571 28 discriminator 3
	seqz	a4,a2
.LBE168:
.LBE169:
	.loc 1 1698 22 discriminator 3
	or	a5,a5,a4
.LVL693:
	.loc 1 1699 13 is_stmt 1 discriminator 3
.LBB170:
.LBB171:
	.loc 1 1570 5 discriminator 3
.LBB172:
.LBB173:
	.loc 1 1536 5 discriminator 3
	.loc 1 1536 27 is_stmt 0 discriminator 3
	neg	a4,a5
	.loc 1 1536 25 discriminator 3
	or	a4,a4,a5
.LVL694:
.LBE173:
.LBE172:
	.loc 1 1571 5 is_stmt 1 discriminator 3
	.loc 1 1571 28 is_stmt 0 discriminator 3
	srli	a6,a4,31
.LBE171:
.LBE170:
	.loc 1 1700 20 discriminator 3
	not	a2,a2
.LVL695:
.LBB175:
.LBB176:
.LBB177:
.LBB178:
	.loc 1 1536 13 discriminator 3
	srai	a4,a4,31
.LVL696:
.LBE178:
.LBE177:
	.loc 1 1571 28 discriminator 3
	not	a4,a4
.LBE176:
.LBE175:
	.loc 1 1700 20 discriminator 3
	andi	a2,a2,0xff
.LVL697:
.LBB183:
.LBB174:
	.loc 1 1571 28 discriminator 3
	xori	a6,a6,1
.LBE174:
.LBE183:
.LBB184:
.LBB181:
	and	a4,a4,a2
.LBE181:
.LBE184:
	.loc 1 1699 23 discriminator 3
	add	a3,a3,a6
.LVL698:
	.loc 1 1700 13 is_stmt 1 discriminator 3
.LBB185:
.LBB182:
	.loc 1 1570 5 discriminator 3
.LBB180:
.LBB179:
	.loc 1 1536 5 discriminator 3
.LBE179:
.LBE180:
	.loc 1 1571 5 discriminator 3
.LBE182:
.LBE185:
	.loc 1 1700 17 is_stmt 0 discriminator 3
	or	a1,a1,a4
.LVL699:
	.loc 1 1696 31 is_stmt 1 discriminator 3
	.loc 1 1696 21 discriminator 3
	.loc 1 1696 9 is_stmt 0 discriminator 3
	bne	s3,a0,.L383
	j	.L382
.LVL700:
.L386:
.LBB186:
.LBB162:
.LBB146:
	.loc 1 1604 31
	addi	t1,a2,-1
	neg	a3,s4
.LVL701:
	sub	t4,a2,s4
	.loc 1 1610 42
	add	a6,a1,t1
.LVL702:
.L389:
	.loc 1 1600 9 is_stmt 1
.LBB147:
.LBB148:
	.loc 1 1555 5
.LBE148:
.LBE147:
	.loc 1 1604 9
.LBB149:
.LBB150:
.LBB151:
.LBB152:
.LBB153:
	.loc 1 1536 13 is_stmt 0
	srai	a7,a3,31
.LBE153:
.LBE152:
.LBE151:
.LBE150:
.LBE149:
	.loc 1 1604 16
	li	a4,0
.LVL703:
.L387:
	.loc 1 1604 21 is_stmt 1
	.loc 1 1604 9 is_stmt 0
	bltu	a4,t1,.L388
	.loc 1 1610 9 is_stmt 1
	.loc 1 1610 42 is_stmt 0
	lbu	a5,0(a6)
.LBE146:
	.loc 1 1598 5
	addi	a3,a3,1
.LVL704:
.LBB159:
	.loc 1 1610 42
	andi	a5,a5,0xff
.LVL705:
.LBE159:
.LBE162:
.LBE186:
	.loc 1 1570 5 is_stmt 1
	.loc 1 1536 5
	.loc 1 1571 5
.LBB187:
.LBB163:
.LBB160:
	.loc 1 1610 22 is_stmt 0
	and	a5,a5,a7
	sb	a5,0(a6)
.LBE160:
	.loc 1 1598 28 is_stmt 1
.LVL706:
	.loc 1 1598 17
	.loc 1 1598 5 is_stmt 0
	bne	t4,a3,.L389
	j	.L390
.LVL707:
.L388:
.LBB161:
.LBB158:
	.loc 1 1606 13 is_stmt 1
	add	t3,a4,a1
	.loc 1 1607 37 is_stmt 0
	addi	a4,a4,1
.LVL708:
	add	a0,a4,a1
	.loc 1 1606 27
	lbu	a5,0(t3)
	.loc 1 1607 27
	lbu	a0,0(a0)
	.loc 1 1606 27
	andi	a5,a5,0xff
.LVL709:
	.loc 1 1607 13 is_stmt 1
	.loc 1 1607 27 is_stmt 0
	andi	a0,a0,0xff
.LVL710:
	.loc 1 1608 13 is_stmt 1
.LBB157:
.LBB156:
	.loc 1 1570 5
.LBB155:
.LBB154:
	.loc 1 1536 5
.LBE154:
.LBE155:
	.loc 1 1571 5
	.loc 1 1571 28 is_stmt 0
	xor	a5,a5,a0
.LVL711:
	and	a5,a5,a7
.LBE156:
.LBE157:
	.loc 1 1608 20
	xor	a5,a5,a0
	sb	a5,0(t3)
.LBE158:
	.loc 1 1604 36 is_stmt 1
.LVL712:
	j	.L387
.LVL713:
.L392:
.LBE161:
.LBE163:
.LBE187:
	.loc 1 1657 15 is_stmt 0
	li	s0,-16384
	addi	s0,s0,-128
	j	.L374
	.cfi_endproc
.LFE41:
	.size	mbedtls_rsa_rsaes_pkcs1_v15_decrypt, .-mbedtls_rsa_rsaes_pkcs1_v15_decrypt
	.section	.text.mbedtls_rsa_pkcs1_decrypt,"ax",@progbits
	.align	1
	.globl	mbedtls_rsa_pkcs1_decrypt
	.type	mbedtls_rsa_pkcs1_decrypt, @function
mbedtls_rsa_pkcs1_decrypt:
.LFB42:
	.loc 1 1790 1 is_stmt 1
	.cfi_startproc
.LVL714:
	.loc 1 1791 5
	.loc 1 1791 10
	.loc 1 1791 17
	.loc 1 1792 5
	.loc 1 1792 10
	.loc 1 1792 17
	.loc 1 1794 5
	.loc 1 1794 10
	.loc 1 1794 17
	.loc 1 1795 5
	.loc 1 1795 10
	.loc 1 1795 17
	.loc 1 1796 5
	.loc 1 1796 10
	.loc 1 1796 17
	.loc 1 1798 5
	.loc 1 1798 16 is_stmt 0
	lw	t6,164(a0)
	.loc 1 1798 5
	beq	t6,zero,.L400
	mv	t3,a5
	li	a5,1
.LVL715:
	beq	t6,a5,.L401
	li	a0,-16384
.LVL716:
	addi	a0,a0,-256
	.loc 1 1816 1
	ret
.LVL717:
.L400:
	.loc 1 1802 13 is_stmt 1
	.loc 1 1802 20 is_stmt 0
	tail	mbedtls_rsa_rsaes_pkcs1_v15_decrypt
.LVL718:
.L401:
	.loc 1 1808 13 is_stmt 1
	.loc 1 1790 1 is_stmt 0
	addi	sp,sp,-32
	.cfi_def_cfa_offset 32
	.loc 1 1808 20
	sw	a7,4(sp)
	sw	a6,0(sp)
	mv	a7,t3
.LVL719:
	mv	a6,a4
.LVL720:
	li	a5,0
	li	a4,0
.LVL721:
	.loc 1 1790 1
	sw	ra,28(sp)
	.cfi_offset 1, -4
	.loc 1 1808 20
	call	mbedtls_rsa_rsaes_oaep_decrypt
.LVL722:
	.loc 1 1816 1
	lw	ra,28(sp)
	.cfi_restore 1
	addi	sp,sp,32
	.cfi_def_cfa_offset 0
	jr	ra
	.cfi_endproc
.LFE42:
	.size	mbedtls_rsa_pkcs1_decrypt, .-mbedtls_rsa_pkcs1_decrypt
	.section	.text.mbedtls_rsa_rsassa_pss_sign,"ax",@progbits
	.align	1
	.globl	mbedtls_rsa_rsassa_pss_sign
	.type	mbedtls_rsa_rsassa_pss_sign, @function
mbedtls_rsa_rsassa_pss_sign:
.LFB43:
	.loc 1 1830 1 is_stmt 1
	.cfi_startproc
.LVL723:
	.loc 1 1831 5
	.loc 1 1832 5
	.loc 1 1830 1 is_stmt 0
	addi	sp,sp,-160
	.cfi_def_cfa_offset 160
	sw	s1,148(sp)
	sw	s2,144(sp)
	sw	s5,132(sp)
	sw	s6,128(sp)
	sw	s7,124(sp)
	sw	s8,120(sp)
	.cfi_offset 9, -12
	.cfi_offset 18, -16
	.cfi_offset 21, -28
	.cfi_offset 22, -32
	.cfi_offset 23, -36
	.cfi_offset 24, -40
	mv	s5,a5
	sw	ra,156(sp)
	sw	s0,152(sp)
	sw	s3,140(sp)
	sw	s4,136(sp)
	sw	s9,116(sp)
	sw	s10,112(sp)
	sw	s11,108(sp)
	.cfi_offset 1, -4
	.cfi_offset 8, -8
	.cfi_offset 19, -20
	.cfi_offset 20, -24
	.cfi_offset 25, -44
	.cfi_offset 26, -48
	.cfi_offset 27, -52
	.loc 1 1830 1
	sw	a6,8(sp)
	.loc 1 1847 7
	li	a5,1
.LVL724:
	.loc 1 1830 1
	mv	s2,a0
	mv	s6,a1
	mv	s8,a2
	mv	s7,a3
	mv	a0,a4
.LVL725:
	mv	s1,a7
.LVL726:
	.loc 1 1833 5 is_stmt 1
	.loc 1 1834 5
	.loc 1 1835 5
	.loc 1 1836 5
	.loc 1 1837 5
	.loc 1 1838 5
	.loc 1 1839 5
	.loc 1 1839 10
	.loc 1 1839 17
	.loc 1 1840 5
	.loc 1 1840 10
	.loc 1 1840 17
	.loc 1 1842 5
	.loc 1 1842 10
	.loc 1 1842 17
	.loc 1 1845 5
	.loc 1 1845 10
	.loc 1 1845 17
	.loc 1 1847 5
	.loc 1 1847 7 is_stmt 0
	bne	a3,a5,.L407
	.loc 1 1847 19 discriminator 1
	lw	a5,164(s2)
	beq	a5,a3,.L407
.LVL727:
.L409:
	.loc 1 1848 15
	li	a0,-16384
	addi	s10,a0,-128
.LVL728:
.L406:
	.loc 1 1940 1
	lw	ra,156(sp)
	.cfi_remember_state
	.cfi_restore 1
	lw	s0,152(sp)
	.cfi_restore 8
	lw	s1,148(sp)
	.cfi_restore 9
.LVL729:
	lw	s2,144(sp)
	.cfi_restore 18
.LVL730:
	lw	s3,140(sp)
	.cfi_restore 19
	lw	s4,136(sp)
	.cfi_restore 20
	lw	s5,132(sp)
	.cfi_restore 21
.LVL731:
	lw	s6,128(sp)
	.cfi_restore 22
.LVL732:
	lw	s7,124(sp)
	.cfi_restore 23
.LVL733:
	lw	s8,120(sp)
	.cfi_restore 24
.LVL734:
	lw	s9,116(sp)
	.cfi_restore 25
	lw	s11,108(sp)
	.cfi_restore 27
	mv	a0,s10
	lw	s10,112(sp)
	.cfi_restore 26
	addi	sp,sp,160
	.cfi_def_cfa_offset 0
.LVL735:
	jr	ra
.LVL736:
.L407:
	.cfi_restore_state
	.loc 1 1850 5 is_stmt 1
	.loc 1 1850 7 is_stmt 0
	beq	s6,zero,.L409
	.loc 1 1853 5 is_stmt 1
	.loc 1 1853 10 is_stmt 0
	lw	s0,4(s2)
.LVL737:
	.loc 1 1855 5 is_stmt 1
	.loc 1 1855 7 is_stmt 0
	beq	a0,zero,.L410
	.loc 1 1858 9 is_stmt 1
	.loc 1 1858 19 is_stmt 0
	call	mbedtls_md_info_from_type
.LVL738:
	.loc 1 1859 9 is_stmt 1
	.loc 1 1859 11 is_stmt 0
	beq	a0,zero,.L409
	.loc 1 1862 9 is_stmt 1
	.loc 1 1862 19 is_stmt 0
	call	mbedtls_md_get_size
.LVL739:
	mv	s5,a0
.LVL740:
.L410:
	.loc 1 1865 5 is_stmt 1
	.loc 1 1865 15 is_stmt 0
	lw	a0,168(s2)
	call	mbedtls_md_info_from_type
.LVL741:
	mv	s10,a0
.LVL742:
	.loc 1 1866 5 is_stmt 1
	.loc 1 1866 7 is_stmt 0
	beq	a0,zero,.L409
	.loc 1 1869 5 is_stmt 1
	.loc 1 1869 12 is_stmt 0
	call	mbedtls_md_get_size
.LVL743:
	slli	a5,a0,1
	mv	s3,a0
.LVL744:
	.loc 1 1877 5 is_stmt 1
	.loc 1 1878 5
	.loc 1 1878 7 is_stmt 0
	bltu	s0,a5,.L409
	.loc 1 1880 10 is_stmt 1
	.loc 1 1880 34 is_stmt 0
	addi	a5,a5,2
	.loc 1 1881 14
	mv	s4,a0
	.loc 1 1880 12
	bleu	a5,s0,.L411
	.loc 1 1883 9 is_stmt 1
	.loc 1 1883 14 is_stmt 0
	addi	s4,s0,-2
	sub	s4,s4,a0
.LVL745:
.L411:
	.loc 1 1885 5 is_stmt 1
	mv	a2,s0
	li	a1,0
	mv	a0,s1
.LVL746:
	call	memset
.LVL747:
	.loc 1 1888 5
	.loc 1 1888 17 is_stmt 0
	mv	a2,s4
	addi	a1,sp,32
	mv	a0,s8
	jalr	s6
.LVL748:
	.loc 1 1888 7
	beq	a0,zero,.L412
	.loc 1 1889 9 is_stmt 1
	.loc 1 1889 25 is_stmt 0
	li	a5,-16384
	addi	a5,a5,-1152
	add	s10,a0,a5
.LVL749:
	j	.L406
.LVL750:
.L412:
	.loc 1 1892 5 is_stmt 1
	.loc 1 1892 31 is_stmt 0
	addi	s11,s2,8
	.loc 1 1892 11
	mv	a0,s11
.LVL751:
	call	mbedtls_mpi_bitlen
.LVL752:
	.loc 1 1893 15
	sub	a5,s0,s3
	sw	a5,12(sp)
	.loc 1 1893 7
	addi	a5,a5,-2
	sub	a5,a5,s4
	add	a5,s1,a5
	.loc 1 1894 7
	addi	s9,a5,1
	.loc 1 1894 10
	li	a4,1
	sb	a4,0(a5)
	.loc 1 1895 5
	mv	a2,s4
	addi	a1,sp,32
	.loc 1 1892 11
	sw	a0,4(sp)
.LVL753:
	.loc 1 1893 5 is_stmt 1
	.loc 1 1894 5
	.loc 1 1895 5
	mv	a0,s9
.LVL754:
	call	memcpy
.LVL755:
	.loc 1 1896 5
	.loc 1 1898 5
	addi	a0,sp,20
	call	mbedtls_md_init
.LVL756:
	.loc 1 1899 5
	.loc 1 1899 17 is_stmt 0
	mv	a1,s10
	li	a2,0
	addi	a0,sp,20
	call	mbedtls_md_setup
.LVL757:
	mv	s10,a0
.LVL758:
	.loc 1 1899 7
	bne	a0,zero,.L413
	.loc 1 1903 5 is_stmt 1
	.loc 1 1903 17 is_stmt 0
	addi	a0,sp,20
.LVL759:
	call	mbedtls_md_starts
.LVL760:
	mv	s10,a0
.LVL761:
	.loc 1 1903 7
	bne	a0,zero,.L413
	.loc 1 1896 7
	add	s9,s9,s4
.LVL762:
	.loc 1 1905 5 is_stmt 1
	.loc 1 1905 17 is_stmt 0
	li	a2,8
	mv	a1,s9
	addi	a0,sp,20
.LVL763:
	call	mbedtls_md_update
.LVL764:
	mv	s10,a0
.LVL765:
	.loc 1 1905 7
	bne	a0,zero,.L413
	.loc 1 1907 5 is_stmt 1
	.loc 1 1907 17 is_stmt 0
	lw	a1,8(sp)
	mv	a2,s5
	addi	a0,sp,20
.LVL766:
	call	mbedtls_md_update
.LVL767:
	mv	s10,a0
.LVL768:
	.loc 1 1907 7
	bne	a0,zero,.L413
	.loc 1 1909 5 is_stmt 1
	.loc 1 1909 17 is_stmt 0
	mv	a2,s4
	addi	a1,sp,32
	addi	a0,sp,20
.LVL769:
	call	mbedtls_md_update
.LVL770:
	mv	s10,a0
.LVL771:
	.loc 1 1909 7
	bne	a0,zero,.L413
	.loc 1 1911 5 is_stmt 1
	.loc 1 1911 17 is_stmt 0
	mv	a1,s9
	addi	a0,sp,20
.LVL772:
	call	mbedtls_md_finish
.LVL773:
	mv	s10,a0
.LVL774:
	.loc 1 1911 7
	bne	a0,zero,.L413
	.loc 1 1915 5 is_stmt 1
	.loc 1 1892 9 is_stmt 0
	lw	a5,4(sp)
	.loc 1 1919 17
	addi	a4,sp,20
	mv	a3,s3
	.loc 1 1892 9
	addi	a0,a5,-1
.LVL775:
	.loc 1 1915 13
	andi	a0,a0,7
	.loc 1 1919 17
	sub	a5,s0,s3
	.loc 1 1915 7
	seqz	a0,a0
.LVL776:
	.loc 1 1919 5 is_stmt 1
	.loc 1 1919 17 is_stmt 0
	addi	a1,a5,-1
	sub	a1,a1,a0
	mv	a2,s9
	add	a0,s1,a0
.LVL777:
	call	mgf_mask
.LVL778:
	mv	s10,a0
.LVL779:
	.loc 1 1919 7
	bne	a0,zero,.L413
	.loc 1 1923 5 is_stmt 1
	.loc 1 1923 11 is_stmt 0
	mv	a0,s11
.LVL780:
	.loc 1 1924 30
	slli	s0,s0,3
.LVL781:
	.loc 1 1923 11
	call	mbedtls_mpi_bitlen
.LVL782:
	.loc 1 1924 5 is_stmt 1
	.loc 1 1924 34 is_stmt 0
	addi	s0,s0,1
	sub	s0,s0,a0
	.loc 1 1924 20
	li	a0,255
.LVL783:
	sra	s0,a0,s0
	.loc 1 1924 12
	lbu	a0,0(s1)
	.loc 1 1927 10
	add	s3,s9,s3
.LVL784:
	li	a4,-68
	.loc 1 1924 12
	and	s0,s0,a0
	sb	s0,0(s1)
	.loc 1 1926 5 is_stmt 1
.LVL785:
	.loc 1 1927 5
	.loc 1 1927 10 is_stmt 0
	sb	a4,0(s3)
	.loc 1 1929 5 is_stmt 1
	li	a1,64
	addi	a0,sp,32
	call	mbedtls_platform_zeroize
.LVL786:
.L413:
	.loc 1 1932 5
	addi	a0,sp,20
	call	mbedtls_md_free
.LVL787:
	.loc 1 1934 5
	.loc 1 1934 7 is_stmt 0
	bne	s10,zero,.L406
.LVL788:
	.loc 1 1937 5 is_stmt 1
	.loc 1 1939 13 is_stmt 0
	bne	s7,zero,.L414
	.loc 1 1938 15
	mv	a2,s1
	mv	a1,s1
	mv	a0,s2
	call	mbedtls_rsa_public
.LVL789:
.L429:
	.loc 1 1939 15 discriminator 1
	mv	s10,a0
.LVL790:
	j	.L406
.LVL791:
.L414:
	mv	a4,s1
	mv	a3,s1
	mv	a2,s8
	mv	a1,s6
	mv	a0,s2
	call	mbedtls_rsa_private
.LVL792:
	j	.L429
	.cfi_endproc
.LFE43:
	.size	mbedtls_rsa_rsassa_pss_sign, .-mbedtls_rsa_rsassa_pss_sign
	.section	.text.mbedtls_rsa_rsassa_pkcs1_v15_sign,"ax",@progbits
	.align	1
	.globl	mbedtls_rsa_rsassa_pkcs1_v15_sign
	.type	mbedtls_rsa_rsassa_pkcs1_v15_sign, @function
mbedtls_rsa_rsassa_pkcs1_v15_sign:
.LFB45:
	.loc 1 2089 1 is_stmt 1
	.cfi_startproc
.LVL793:
	addi	sp,sp,-32
	.cfi_def_cfa_offset 32
	sw	s1,20(sp)
	sw	s2,16(sp)
	sw	s3,12(sp)
	sw	s5,4(sp)
	sw	s6,0(sp)
	.cfi_offset 9, -12
	.cfi_offset 18, -16
	.cfi_offset 19, -20
	.cfi_offset 21, -28
	.cfi_offset 22, -32
	mv	s5,a1
	sw	ra,28(sp)
	mv	a1,a5
.LVL794:
	sw	s0,24(sp)
	sw	s4,8(sp)
	.cfi_offset 1, -4
	.cfi_offset 8, -8
	.cfi_offset 20, -24
	.loc 1 2101 7 is_stmt 0
	li	a5,1
.LVL795:
	.loc 1 2089 1
	mv	s1,a0
	mv	s6,a2
	mv	s2,a3
	mv	a0,a4
.LVL796:
	.loc 1 2090 5 is_stmt 1
	.loc 1 2091 5
	.loc 1 2093 5
	.loc 1 2093 10
	.loc 1 2093 17
	.loc 1 2094 5
	.loc 1 2094 10
	.loc 1 2094 17
	.loc 1 2096 5
	.loc 1 2096 10
	.loc 1 2096 17
	.loc 1 2099 5
	.loc 1 2099 10
	.loc 1 2099 17
	.loc 1 2101 5
	.loc 1 2089 1 is_stmt 0
	mv	a2,a6
.LVL797:
	mv	s3,a7
	.loc 1 2101 7
	bne	a3,a5,.L431
	.loc 1 2101 19 discriminator 1
	lw	a5,164(s1)
	bne	a5,zero,.L438
.L431:
	.loc 1 2108 5 is_stmt 1
	.loc 1 2108 17 is_stmt 0
	lw	a3,4(s1)
.LVL798:
	mv	a4,s3
.LVL799:
	call	rsa_rsassa_pkcs1_v15_encode
.LVL800:
	mv	s0,a0
.LVL801:
	.loc 1 2108 7
	bne	a0,zero,.L430
.LVL802:
.LBB192:
.LBB193:
	.loc 1 2116 5 is_stmt 1
	.loc 1 2116 7 is_stmt 0
	bne	s2,zero,.L433
	.loc 1 2119 9 is_stmt 1
.LBE193:
.LBE192:
	.loc 1 2155 1 is_stmt 0
	lw	s0,24(sp)
	.cfi_remember_state
	.cfi_restore 8
.LVL803:
	lw	ra,28(sp)
	.cfi_restore 1
	lw	s2,16(sp)
	.cfi_restore 18
.LVL804:
	lw	s4,8(sp)
	.cfi_restore 20
	lw	s5,4(sp)
	.cfi_restore 21
.LVL805:
	lw	s6,0(sp)
	.cfi_restore 22
.LVL806:
.LBB201:
.LBB198:
	.loc 1 2119 17
	mv	a2,s3
	mv	a1,s3
	mv	a0,s1
.LVL807:
.LBE198:
.LBE201:
	.loc 1 2155 1
	lw	s3,12(sp)
	.cfi_restore 19
.LVL808:
	lw	s1,20(sp)
	.cfi_restore 9
.LVL809:
	addi	sp,sp,32
	.cfi_def_cfa_offset 0
.LBB202:
.LBB199:
	.loc 1 2119 17
	tail	mbedtls_rsa_public
.LVL810:
.L433:
	.cfi_restore_state
	.loc 1 2128 5 is_stmt 1
	.loc 1 2128 15 is_stmt 0
	lw	a1,4(s1)
	li	a0,1
	.loc 1 2130 15
	li	s0,-16
.LVL811:
	.loc 1 2128 15
	call	mbedtls_calloc
.LVL812:
	mv	s2,a0
.LVL813:
	.loc 1 2129 5 is_stmt 1
	.loc 1 2129 7 is_stmt 0
	beq	a0,zero,.L430
	.loc 1 2132 5 is_stmt 1
	.loc 1 2132 13 is_stmt 0
	lw	a1,4(s1)
	li	a0,1
.LVL814:
	call	mbedtls_calloc
.LVL815:
	mv	s4,a0
.LVL816:
	.loc 1 2133 5 is_stmt 1
	.loc 1 2135 9 is_stmt 0
	mv	a0,s2
.LVL817:
	.loc 1 2133 7
	beq	s4,zero,.L442
	.loc 1 2139 5 is_stmt 1
	.loc 1 2139 10
	.loc 1 2139 23 is_stmt 0
	mv	a4,s2
	mv	a3,s3
	mv	a2,s6
	mv	a1,s5
	mv	a0,s1
	call	mbedtls_rsa_private
.LVL818:
	mv	s0,a0
.LVL819:
	.loc 1 2139 12
	bne	a0,zero,.L435
	.loc 1 2139 109 is_stmt 1
	.loc 1 2140 5
	.loc 1 2140 10
	.loc 1 2140 23 is_stmt 0
	mv	a2,s4
	mv	a1,s2
	mv	a0,s1
	call	mbedtls_rsa_public
.LVL820:
	mv	s0,a0
.LVL821:
	.loc 1 2140 12
	bne	a0,zero,.L435
	.loc 1 2140 96 is_stmt 1
	.loc 1 2142 5
	.loc 1 2142 9 is_stmt 0
	lw	a2,4(s1)
.LVL822:
.LBB194:
.LBB195:
	.loc 1 109 5 is_stmt 1
	.loc 1 110 5
	.loc 1 111 5
	.loc 1 112 5
	.loc 1 114 5
	.loc 1 112 19 is_stmt 0
	li	a5,0
	.loc 1 114 12
	li	a4,0
.LVL823:
.L436:
	.loc 1 114 17 is_stmt 1
	.loc 1 114 5 is_stmt 0
	bne	a2,a4,.L437
	.loc 1 117 5 is_stmt 1
.LVL824:
.LBE195:
.LBE194:
	.loc 1 2142 7 is_stmt 0
	bne	a5,zero,.L440
	.loc 1 2148 5 is_stmt 1
	mv	a1,s2
	mv	a0,s3
	call	memcpy
.LVL825:
.L435:
	.loc 1 2151 5
	mv	a0,s2
	call	mbedtls_free
.LVL826:
	.loc 1 2152 5
	mv	a0,s4
.LVL827:
.L442:
	call	mbedtls_free
.LVL828:
	.loc 1 2154 5
.L430:
.LBE199:
.LBE202:
	.loc 1 2155 1 is_stmt 0
	lw	ra,28(sp)
	.cfi_remember_state
	.cfi_restore 1
	mv	a0,s0
	lw	s0,24(sp)
	.cfi_restore 8
	lw	s1,20(sp)
	.cfi_restore 9
.LVL829:
	lw	s2,16(sp)
	.cfi_restore 18
	lw	s3,12(sp)
	.cfi_restore 19
.LVL830:
	lw	s4,8(sp)
	.cfi_restore 20
	lw	s5,4(sp)
	.cfi_restore 21
.LVL831:
	lw	s6,0(sp)
	.cfi_restore 22
.LVL832:
	addi	sp,sp,32
	.cfi_def_cfa_offset 0
	jr	ra
.LVL833:
.L437:
	.cfi_restore_state
.LBB203:
.LBB200:
.LBB197:
.LBB196:
	.loc 1 115 9 is_stmt 1
	.loc 1 115 18 is_stmt 0
	add	a3,s4,a4
	.loc 1 115 25
	add	a1,s3,a4
	.loc 1 115 14
	lbu	a3,0(a3)
	lbu	a1,0(a1)
	.loc 1 114 25
	addi	a4,a4,1
.LVL834:
	.loc 1 115 14
	xor	a3,a3,a1
	or	a5,a5,a3
.LVL835:
	andi	a5,a5,0xff
.LVL836:
	.loc 1 114 24 is_stmt 1
	j	.L436
.LVL837:
.L440:
.LBE196:
.LBE197:
	.loc 1 2144 13 is_stmt 0
	li	s0,-16384
.LVL838:
	addi	s0,s0,-768
	j	.L435
.LVL839:
.L438:
.LBE200:
.LBE203:
	.loc 1 2102 15
	li	s0,-16384
	addi	s0,s0,-128
	j	.L430
	.cfi_endproc
.LFE45:
	.size	mbedtls_rsa_rsassa_pkcs1_v15_sign, .-mbedtls_rsa_rsassa_pkcs1_v15_sign
	.section	.text.mbedtls_rsa_pkcs1_sign,"ax",@progbits
	.align	1
	.globl	mbedtls_rsa_pkcs1_sign
	.type	mbedtls_rsa_pkcs1_sign, @function
mbedtls_rsa_pkcs1_sign:
.LFB46:
	.loc 1 2169 1 is_stmt 1
	.cfi_startproc
.LVL840:
	.loc 1 2170 5
	.loc 1 2170 10
	.loc 1 2170 17
	.loc 1 2171 5
	.loc 1 2171 10
	.loc 1 2171 17
	.loc 1 2173 5
	.loc 1 2173 10
	.loc 1 2173 17
	.loc 1 2176 5
	.loc 1 2176 10
	.loc 1 2176 17
	.loc 1 2178 5
	.loc 1 2178 16 is_stmt 0
	lw	t1,164(a0)
	.loc 1 2178 5
	beq	t1,zero,.L444
	li	t3,1
	beq	t1,t3,.L445
	li	a0,-16384
.LVL841:
	.loc 1 2195 1
	addi	a0,a0,-256
	ret
.LVL842:
.L444:
	.loc 1 2182 13 is_stmt 1
	.loc 1 2182 20 is_stmt 0
	tail	mbedtls_rsa_rsassa_pkcs1_v15_sign
.LVL843:
.L445:
	.loc 1 2188 13 is_stmt 1
	.loc 1 2188 20 is_stmt 0
	tail	mbedtls_rsa_rsassa_pss_sign
.LVL844:
	.cfi_endproc
.LFE46:
	.size	mbedtls_rsa_pkcs1_sign, .-mbedtls_rsa_pkcs1_sign
	.section	.text.mbedtls_rsa_rsassa_pss_verify_ext,"ax",@progbits
	.align	1
	.globl	mbedtls_rsa_rsassa_pss_verify_ext
	.type	mbedtls_rsa_rsassa_pss_verify_ext, @function
mbedtls_rsa_rsassa_pss_verify_ext:
.LFB47:
	.loc 1 2211 1 is_stmt 1
	.cfi_startproc
.LVL845:
	.loc 1 2212 5
	.loc 1 2213 5
	.loc 1 2214 5
	.loc 1 2215 5
	.loc 1 2216 5
	.loc 1 2217 5
	.loc 1 2218 5
	.loc 1 2219 5
	.loc 1 2220 5
	.loc 1 2221 5
	.loc 1 2222 5
	.loc 1 2224 5
	.loc 1 2224 10
	.loc 1 2224 17
	.loc 1 2225 5
	.loc 1 2225 10
	.loc 1 2225 17
	.loc 1 2227 5
	.loc 1 2227 10
	.loc 1 2227 17
	.loc 1 2228 5
	.loc 1 2228 10
	.loc 1 2228 17
	.loc 1 2232 5
	.loc 1 2211 1 is_stmt 0
	addi	sp,sp,-1168
	.cfi_def_cfa_offset 1168
	sw	s1,1156(sp)
	sw	s2,1152(sp)
	sw	s3,1148(sp)
	sw	s5,1140(sp)
	sw	s7,1132(sp)
	sw	s8,1128(sp)
	.cfi_offset 9, -12
	.cfi_offset 18, -16
	.cfi_offset 19, -20
	.cfi_offset 21, -28
	.cfi_offset 23, -36
	.cfi_offset 24, -40
	mv	s3,a5
	sw	ra,1164(sp)
	sw	s0,1160(sp)
	sw	s4,1144(sp)
	sw	s6,1136(sp)
	.cfi_offset 1, -4
	.cfi_offset 8, -8
	.cfi_offset 20, -24
	.cfi_offset 22, -32
	.loc 1 2232 7
	li	a5,1
.LVL846:
	.loc 1 2211 1
	lw	s7,1168(sp)
	mv	s1,a0
	mv	s2,a4
	mv	s5,a6
	mv	s8,a7
	.loc 1 2232 7
	bne	a3,a5,.L450
	.loc 1 2232 19 discriminator 1
	lw	a5,164(a0)
	beq	a5,a3,.L450
.LVL847:
.L452:
	.loc 1 2233 15
	li	a0,-16384
	addi	s0,a0,-128
.L449:
	.loc 1 2346 1
	lw	ra,1164(sp)
	.cfi_remember_state
	.cfi_restore 1
	mv	a0,s0
	lw	s0,1160(sp)
	.cfi_restore 8
	lw	s1,1156(sp)
	.cfi_restore 9
	lw	s2,1152(sp)
	.cfi_restore 18
	lw	s3,1148(sp)
	.cfi_restore 19
.LVL848:
	lw	s4,1144(sp)
	.cfi_restore 20
	lw	s5,1140(sp)
	.cfi_restore 21
.LVL849:
	lw	s6,1136(sp)
	.cfi_restore 22
	lw	s7,1132(sp)
	.cfi_restore 23
	lw	s8,1128(sp)
	.cfi_restore 24
	addi	sp,sp,1168
	.cfi_def_cfa_offset 0
.LVL850:
	jr	ra
.LVL851:
.L450:
	.cfi_restore_state
	.loc 1 2235 5 is_stmt 1
	.loc 1 2235 12 is_stmt 0
	lw	s6,4(s1)
.LVL852:
	.loc 1 2237 5 is_stmt 1
	.loc 1 2237 7 is_stmt 0
	li	a5,1008
	.loc 1 2237 21
	addi	a4,s6,-16
.LVL853:
	.loc 1 2237 7
	bgtu	a4,a5,.L452
	.loc 1 2240 5 is_stmt 1
	.loc 1 2242 11 is_stmt 0
	bne	a3,zero,.L453
	.loc 1 2241 13
	lw	a1,1172(sp)
.LVL854:
	addi	a2,sp,96
.LVL855:
	mv	a0,s1
	call	mbedtls_rsa_public
.LVL856:
.L480:
	.loc 1 2242 13 discriminator 1
	mv	s0,a0
.LVL857:
	.loc 1 2244 5 is_stmt 1 discriminator 1
	.loc 1 2244 7 is_stmt 0 discriminator 1
	bne	a0,zero,.L449
	.loc 1 2247 5 is_stmt 1
.LVL858:
	.loc 1 2249 5
	.loc 1 2249 20 is_stmt 0
	addi	s4,s6,-1
	.loc 1 2249 12
	addi	a5,sp,1120
	add	a5,a5,s4
	.loc 1 2249 7
	lbu	a4,-1024(a5)
	li	a5,188
	bne	a4,a5,.L461
	.loc 1 2252 5 is_stmt 1
	.loc 1 2252 7 is_stmt 0
	beq	s2,zero,.L455
	.loc 1 2255 9 is_stmt 1
	.loc 1 2255 19 is_stmt 0
	mv	a0,s2
	call	mbedtls_md_info_from_type
.LVL859:
	.loc 1 2256 9 is_stmt 1
	.loc 1 2256 11 is_stmt 0
	beq	a0,zero,.L452
	.loc 1 2259 9 is_stmt 1
	.loc 1 2259 19 is_stmt 0
	call	mbedtls_md_get_size
.LVL860:
	mv	s3,a0
.LVL861:
.L455:
	.loc 1 2262 5 is_stmt 1
	.loc 1 2262 15 is_stmt 0
	mv	a0,s8
	call	mbedtls_md_info_from_type
.LVL862:
	mv	s0,a0
.LVL863:
	.loc 1 2263 5 is_stmt 1
	.loc 1 2263 7 is_stmt 0
	beq	a0,zero,.L452
	.loc 1 2266 5 is_stmt 1
	.loc 1 2266 12 is_stmt 0
	call	mbedtls_md_get_size
.LVL864:
	.loc 1 2268 5
	li	a2,8
	li	a1,0
	.loc 1 2266 12
	mv	s2,a0
.LVL865:
	.loc 1 2268 5 is_stmt 1
	addi	a0,sp,12
.LVL866:
	call	memset
.LVL867:
	.loc 1 2273 5
	.loc 1 2273 11 is_stmt 0
	addi	a0,s1,8
	call	mbedtls_mpi_bitlen
.LVL868:
	.loc 1 2275 23
	li	a5,1
	.loc 1 2275 12
	lbu	a4,96(sp)
	.loc 1 2275 23
	sub	a5,a5,s6
	.loc 1 2273 9
	addi	s8,a0,-1
.LVL869:
	.loc 1 2275 5 is_stmt 1
	.loc 1 2275 23 is_stmt 0
	slli	a5,a5,3
	.loc 1 2275 36
	add	a5,a5,s8
	.loc 1 2275 16
	sra	a5,a4,a5
	.loc 1 2275 7
	bne	a5,zero,.L452
	.loc 1 2279 5 is_stmt 1
	.loc 1 2279 13 is_stmt 0
	andi	a5,s8,7
	.loc 1 2247 7
	addi	s1,sp,96
.LVL870:
	.loc 1 2279 7
	bne	a5,zero,.L456
	.loc 1 2282 16
	mv	s6,s4
.LVL871:
	.loc 1 2281 10
	addi	s1,sp,97
.LVL872:
.L456:
	.loc 1 2285 5 is_stmt 1
	.loc 1 2285 23 is_stmt 0
	addi	a5,s2,2
	.loc 1 2285 7
	bgtu	a5,s6,.L452
	.loc 1 2287 5 is_stmt 1
.LVL873:
	.loc 1 2289 5
	addi	a0,sp,20
	call	mbedtls_md_init
.LVL874:
	.loc 1 2290 5
	.loc 1 2290 17 is_stmt 0
	mv	a1,s0
	li	a2,0
	addi	a0,sp,20
	call	mbedtls_md_setup
.LVL875:
	mv	s0,a0
.LVL876:
	.loc 1 2290 7
	bne	a0,zero,.L457
	.loc 1 2287 36
	not	a1,s2
.LVL877:
	add	a1,a1,s6
.LVL878:
	.loc 1 2287 16
	add	s4,s1,a1
	.loc 1 2293 5 is_stmt 1
	.loc 1 2293 11 is_stmt 0
	addi	a4,sp,20
	mv	a3,s2
	mv	a2,s4
	mv	a0,s1
	call	mgf_mask
.LVL879:
	mv	s0,a0
.LVL880:
	.loc 1 2294 5 is_stmt 1
	.loc 1 2294 7 is_stmt 0
	bne	a0,zero,.L457
	.loc 1 2297 5 is_stmt 1
	.loc 1 2297 12 is_stmt 0
	lbu	a5,96(sp)
	.loc 1 2297 32
	slli	s6,s6,3
.LVL881:
	.loc 1 2297 36
	sub	s6,s6,s8
	.loc 1 2297 20
	li	a0,255
	sra	s6,a0,s6
	.loc 1 2297 12
	and	s6,s6,a5
	sb	s6,96(sp)
	.loc 1 2299 5 is_stmt 1
	.loc 1 2299 27 is_stmt 0
	addi	a4,s4,-1
.LVL882:
.L459:
	.loc 1 2299 10 is_stmt 1
	.loc 1 2299 34 is_stmt 0
	lbu	a5,0(s1)
	.loc 1 2300 10
	addi	s1,s1,1
.LVL883:
	.loc 1 2299 10
	addi	a3,s1,-1
	bleu	a4,a3,.L458
	.loc 1 2299 31 discriminator 1
	beq	a5,zero,.L459
.L458:
	.loc 1 2302 5 is_stmt 1
.LVL884:
	.loc 1 2302 7 is_stmt 0
	li	a4,1
	bne	a5,a4,.L464
	.loc 1 2308 5 is_stmt 1
	.loc 1 2310 7 is_stmt 0
	li	a5,-1
	.loc 1 2308 36
	sub	s6,s4,s1
.LVL885:
	.loc 1 2310 5 is_stmt 1
	.loc 1 2310 7 is_stmt 0
	beq	s7,a5,.L460
	.loc 1 2310 33 discriminator 1
	bne	s6,s7,.L464
.L460:
	.loc 1 2320 5 is_stmt 1
	.loc 1 2320 11 is_stmt 0
	addi	a0,sp,20
	call	mbedtls_md_starts
.LVL886:
	mv	s0,a0
.LVL887:
	.loc 1 2321 5 is_stmt 1
	.loc 1 2321 8 is_stmt 0
	bne	a0,zero,.L457
	.loc 1 2323 5 is_stmt 1
	.loc 1 2323 11 is_stmt 0
	li	a2,8
	addi	a1,sp,12
	addi	a0,sp,20
	call	mbedtls_md_update
.LVL888:
	mv	s0,a0
.LVL889:
	.loc 1 2324 5 is_stmt 1
	.loc 1 2324 8 is_stmt 0
	bne	a0,zero,.L457
	.loc 1 2326 5 is_stmt 1
	.loc 1 2326 11 is_stmt 0
	mv	a2,s3
	mv	a1,s5
	addi	a0,sp,20
	call	mbedtls_md_update
.LVL890:
	mv	s0,a0
.LVL891:
	.loc 1 2327 5 is_stmt 1
	.loc 1 2327 8 is_stmt 0
	bne	a0,zero,.L457
	.loc 1 2329 5 is_stmt 1
	.loc 1 2329 11 is_stmt 0
	mv	a2,s6
	mv	a1,s1
	addi	a0,sp,20
	call	mbedtls_md_update
.LVL892:
	mv	s0,a0
.LVL893:
	.loc 1 2330 5 is_stmt 1
	.loc 1 2330 8 is_stmt 0
	bne	a0,zero,.L457
	.loc 1 2332 5 is_stmt 1
	.loc 1 2332 11 is_stmt 0
	addi	a1,sp,32
	addi	a0,sp,20
	call	mbedtls_md_finish
.LVL894:
	mv	s0,a0
.LVL895:
	.loc 1 2333 5 is_stmt 1
	.loc 1 2333 8 is_stmt 0
	bne	a0,zero,.L457
	.loc 1 2336 5 is_stmt 1
	.loc 1 2336 9 is_stmt 0
	mv	a2,s2
	addi	a1,sp,32
	mv	a0,s4
	call	memcmp
.LVL896:
	mv	s0,a0
.LVL897:
	.loc 1 2336 7
	beq	a0,zero,.L457
	.loc 1 2338 13
	li	a0,-16384
	addi	s0,a0,-896
.LVL898:
.L457:
	.loc 1 2343 5 is_stmt 1
	addi	a0,sp,20
	call	mbedtls_md_free
.LVL899:
	.loc 1 2345 5
	.loc 1 2345 11 is_stmt 0
	j	.L449
.LVL900:
.L453:
	.loc 1 2242 13 discriminator 1
	lw	a3,1172(sp)
.LVL901:
	addi	a4,sp,96
	mv	a0,s1
	call	mbedtls_rsa_private
.LVL902:
	j	.L480
.LVL903:
.L464:
	.loc 1 2304 13
	li	a0,-16384
	addi	s0,a0,-256
.LVL904:
	j	.L457
.LVL905:
.L461:
	.loc 1 2250 15
	li	a0,-16384
	addi	s0,a0,-256
.LVL906:
	j	.L449
	.cfi_endproc
.LFE47:
	.size	mbedtls_rsa_rsassa_pss_verify_ext, .-mbedtls_rsa_rsassa_pss_verify_ext
	.section	.text.mbedtls_rsa_rsassa_pss_verify,"ax",@progbits
	.align	1
	.globl	mbedtls_rsa_rsassa_pss_verify
	.type	mbedtls_rsa_rsassa_pss_verify, @function
mbedtls_rsa_rsassa_pss_verify:
.LFB48:
	.loc 1 2359 1 is_stmt 1
	.cfi_startproc
.LVL907:
	.loc 1 2360 5
	.loc 1 2361 5
	.loc 1 2361 10
	.loc 1 2361 17
	.loc 1 2362 5
	.loc 1 2362 10
	.loc 1 2362 17
	.loc 1 2364 5
	.loc 1 2364 10
	.loc 1 2364 17
	.loc 1 2365 5
	.loc 1 2365 10
	.loc 1 2365 17
	.loc 1 2369 5
	.loc 1 2359 1 is_stmt 0
	addi	sp,sp,-32
	.cfi_def_cfa_offset 32
	sw	ra,28(sp)
	.cfi_offset 1, -4
	.loc 1 2359 1
	mv	t1,a7
	.loc 1 2369 25
	lw	a7,168(a0)
.LVL908:
	.loc 1 2371 30
	bne	a7,zero,.L482
	mv	a7,a4
.L482:
.LVL909:
	.loc 1 2373 5 is_stmt 1
	.loc 1 2373 13 is_stmt 0
	sw	t1,4(sp)
	li	t1,-1
.LVL910:
	sw	t1,0(sp)
	call	mbedtls_rsa_rsassa_pss_verify_ext
.LVL911:
	.loc 1 2378 1
	lw	ra,28(sp)
	.cfi_restore 1
	addi	sp,sp,32
	.cfi_def_cfa_offset 0
	jr	ra
	.cfi_endproc
.LFE48:
	.size	mbedtls_rsa_rsassa_pss_verify, .-mbedtls_rsa_rsassa_pss_verify
	.section	.text.mbedtls_rsa_rsassa_pkcs1_v15_verify,"ax",@progbits
	.align	1
	.globl	mbedtls_rsa_rsassa_pkcs1_v15_verify
	.type	mbedtls_rsa_rsassa_pkcs1_v15_verify, @function
mbedtls_rsa_rsassa_pkcs1_v15_verify:
.LFB49:
	.loc 1 2393 1 is_stmt 1
	.cfi_startproc
.LVL912:
	.loc 1 2394 5
	.loc 1 2395 5
	.loc 1 2396 5
	.loc 1 2398 5
	.loc 1 2398 10
	.loc 1 2398 17
	.loc 1 2399 5
	.loc 1 2399 10
	.loc 1 2399 17
	.loc 1 2401 5
	.loc 1 2401 10
	.loc 1 2401 17
	.loc 1 2402 5
	.loc 1 2402 10
	.loc 1 2402 17
	.loc 1 2406 5
	.loc 1 2393 1 is_stmt 0
	addi	sp,sp,-64
	.cfi_def_cfa_offset 64
	sw	s4,40(sp)
	sw	s5,36(sp)
	sw	s6,32(sp)
	sw	s7,28(sp)
	sw	s8,24(sp)
	sw	s9,20(sp)
	sw	s10,16(sp)
	sw	s11,12(sp)
	sw	ra,60(sp)
	sw	s0,56(sp)
	sw	s1,52(sp)
	sw	s2,48(sp)
	sw	s3,44(sp)
	.cfi_offset 20, -24
	.cfi_offset 21, -28
	.cfi_offset 22, -32
	.cfi_offset 23, -36
	.cfi_offset 24, -40
	.cfi_offset 25, -44
	.cfi_offset 26, -48
	.cfi_offset 27, -52
	.cfi_offset 1, -4
	.cfi_offset 8, -8
	.cfi_offset 9, -12
	.cfi_offset 18, -16
	.cfi_offset 19, -20
	.loc 1 2393 1
	mv	s10,a5
	.loc 1 2408 7
	li	a5,1
.LVL913:
	.loc 1 2406 13
	lw	s3,4(a0)
.LVL914:
	.loc 1 2408 5 is_stmt 1
	.loc 1 2393 1 is_stmt 0
	mv	s4,a0
	mv	s7,a1
	mv	s8,a2
	mv	s6,a3
	mv	s9,a4
	mv	s11,a6
	mv	s5,a7
	.loc 1 2408 7
	bne	a3,a5,.L486
	.loc 1 2408 19 discriminator 1
	lw	a5,164(a0)
	bne	a5,zero,.L494
.L486:
	.loc 1 2415 5 is_stmt 1
	.loc 1 2415 21 is_stmt 0
	mv	a1,s3
.LVL915:
	li	a0,1
.LVL916:
	call	mbedtls_calloc
.LVL917:
	mv	s2,a0
.LVL918:
	.loc 1 2418 13
	li	s0,-16
	.loc 1 2415 7
	beq	a0,zero,.L485
	.loc 1 2416 30 discriminator 1
	mv	a1,s3
	li	a0,1
.LVL919:
	call	mbedtls_calloc
.LVL920:
	mv	s1,a0
.LVL921:
	.loc 1 2415 68 discriminator 1
	beq	a0,zero,.L488
	.loc 1 2422 5 is_stmt 1
	.loc 1 2422 17 is_stmt 0
	mv	a4,a0
	mv	a3,s3
	mv	a2,s11
	mv	a1,s10
	mv	a0,s9
	call	rsa_rsassa_pkcs1_v15_encode
.LVL922:
	mv	s0,a0
.LVL923:
	.loc 1 2422 7
	bne	a0,zero,.L488
	.loc 1 2430 5 is_stmt 1
	.loc 1 2432 11 is_stmt 0
	bne	s6,zero,.L489
	.loc 1 2431 13
	mv	a2,s2
	mv	a1,s5
	mv	a0,s4
	call	mbedtls_rsa_public
.LVL924:
.L499:
	.loc 1 2432 13 discriminator 1
	mv	s0,a0
.LVL925:
	.loc 1 2433 5 is_stmt 1 discriminator 1
	.loc 1 2433 7 is_stmt 0 discriminator 1
	bne	a0,zero,.L488
.LBB206:
.LBB207:
	.loc 1 112 19
	li	a5,0
	.loc 1 114 12
	li	a4,0
.L491:
.LVL926:
	.loc 1 114 17 is_stmt 1
	.loc 1 114 5 is_stmt 0
	bne	s3,a4,.L492
	.loc 1 117 5 is_stmt 1
.LVL927:
.LBE207:
.LBE206:
	.loc 1 2440 7 is_stmt 0
	beq	a5,zero,.L488
	.loc 1 2443 13
	li	s0,-16384
	addi	s0,s0,-896
.LVL928:
.L488:
	.loc 1 2449 5 is_stmt 1
	.loc 1 2451 9
	mv	a0,s2
	mv	a1,s3
	call	mbedtls_platform_zeroize
.LVL929:
	.loc 1 2452 9
	mv	a0,s2
	call	mbedtls_free
.LVL930:
	.loc 1 2455 5
	.loc 1 2455 7 is_stmt 0
	beq	s1,zero,.L485
	.loc 1 2457 9 is_stmt 1
	mv	a0,s1
	mv	a1,s3
	call	mbedtls_platform_zeroize
.LVL931:
	.loc 1 2458 9
	mv	a0,s1
	call	mbedtls_free
.LVL932:
.L485:
	.loc 1 2462 1 is_stmt 0
	lw	ra,60(sp)
	.cfi_remember_state
	.cfi_restore 1
	mv	a0,s0
	lw	s0,56(sp)
	.cfi_restore 8
	lw	s1,52(sp)
	.cfi_restore 9
	lw	s2,48(sp)
	.cfi_restore 18
	lw	s3,44(sp)
	.cfi_restore 19
.LVL933:
	lw	s4,40(sp)
	.cfi_restore 20
.LVL934:
	lw	s5,36(sp)
	.cfi_restore 21
.LVL935:
	lw	s6,32(sp)
	.cfi_restore 22
.LVL936:
	lw	s7,28(sp)
	.cfi_restore 23
.LVL937:
	lw	s8,24(sp)
	.cfi_restore 24
.LVL938:
	lw	s9,20(sp)
	.cfi_restore 25
.LVL939:
	lw	s10,16(sp)
	.cfi_restore 26
.LVL940:
	lw	s11,12(sp)
	.cfi_restore 27
.LVL941:
	addi	sp,sp,64
	.cfi_def_cfa_offset 0
	jr	ra
.LVL942:
.L489:
	.cfi_restore_state
	.loc 1 2432 13 discriminator 1
	mv	a4,s2
	mv	a3,s5
	mv	a2,s8
	mv	a1,s7
	mv	a0,s4
	call	mbedtls_rsa_private
.LVL943:
	j	.L499
.LVL944:
.L492:
.LBB209:
.LBB208:
	.loc 1 115 9 is_stmt 1
	.loc 1 115 18 is_stmt 0
	add	a3,s2,a4
	.loc 1 115 25
	add	a2,s1,a4
	.loc 1 115 14
	lbu	a3,0(a3)
	lbu	a2,0(a2)
	.loc 1 114 25
	addi	a4,a4,1
.LVL945:
	.loc 1 115 14
	xor	a3,a3,a2
	or	a5,a5,a3
.LVL946:
	andi	a5,a5,0xff
.LVL947:
	.loc 1 114 24 is_stmt 1
	j	.L491
.LVL948:
.L494:
.LBE208:
.LBE209:
	.loc 1 2409 15 is_stmt 0
	li	s0,-16384
	addi	s0,s0,-128
	j	.L485
	.cfi_endproc
.LFE49:
	.size	mbedtls_rsa_rsassa_pkcs1_v15_verify, .-mbedtls_rsa_rsassa_pkcs1_v15_verify
	.section	.text.mbedtls_rsa_pkcs1_verify,"ax",@progbits
	.align	1
	.globl	mbedtls_rsa_pkcs1_verify
	.type	mbedtls_rsa_pkcs1_verify, @function
mbedtls_rsa_pkcs1_verify:
.LFB50:
	.loc 1 2476 1 is_stmt 1
	.cfi_startproc
.LVL949:
	.loc 1 2477 5
	.loc 1 2477 10
	.loc 1 2477 17
	.loc 1 2478 5
	.loc 1 2478 10
	.loc 1 2478 17
	.loc 1 2480 5
	.loc 1 2480 10
	.loc 1 2480 17
	.loc 1 2481 5
	.loc 1 2481 10
	.loc 1 2481 17
	.loc 1 2485 5
	.loc 1 2485 16 is_stmt 0
	lw	t1,164(a0)
	.loc 1 2485 5
	beq	t1,zero,.L501
	li	t3,1
	beq	t1,t3,.L502
	li	a0,-16384
.LVL950:
	.loc 1 2502 1
	addi	a0,a0,-256
	ret
.LVL951:
.L501:
	.loc 1 2489 13 is_stmt 1
	.loc 1 2489 20 is_stmt 0
	tail	mbedtls_rsa_rsassa_pkcs1_v15_verify
.LVL952:
.L502:
	.loc 1 2495 13 is_stmt 1
	.loc 1 2495 20 is_stmt 0
	tail	mbedtls_rsa_rsassa_pss_verify
.LVL953:
	.cfi_endproc
.LFE50:
	.size	mbedtls_rsa_pkcs1_verify, .-mbedtls_rsa_pkcs1_verify
	.section	.text.mbedtls_rsa_free,"ax",@progbits
	.align	1
	.globl	mbedtls_rsa_free
	.type	mbedtls_rsa_free, @function
mbedtls_rsa_free:
.LFB52:
	.loc 1 2549 1 is_stmt 1
	.cfi_startproc
.LVL954:
	.loc 1 2550 5
	.loc 1 2550 7 is_stmt 0
	beq	a0,zero,.L506
	.loc 1 2549 1
	addi	sp,sp,-16
	.cfi_def_cfa_offset 16
	sw	s0,8(sp)
	.cfi_offset 8, -8
	mv	s0,a0
.LVL955:
.LBB212:
.LBB213:
	.loc 1 2553 5 is_stmt 1
	addi	a0,a0,140
.LVL956:
.LBE213:
.LBE212:
	.loc 1 2549 1 is_stmt 0
	sw	ra,12(sp)
	.cfi_offset 1, -4
.LBB216:
.LBB214:
	.loc 1 2553 5
	call	mbedtls_mpi_free
.LVL957:
	.loc 1 2554 5 is_stmt 1
	addi	a0,s0,152
	call	mbedtls_mpi_free
.LVL958:
	.loc 1 2555 5
	addi	a0,s0,104
	call	mbedtls_mpi_free
.LVL959:
	.loc 1 2556 5
	addi	a0,s0,32
	call	mbedtls_mpi_free
.LVL960:
	.loc 1 2557 5
	addi	a0,s0,56
	call	mbedtls_mpi_free
.LVL961:
	.loc 1 2558 5
	addi	a0,s0,44
	call	mbedtls_mpi_free
.LVL962:
	.loc 1 2559 5
	addi	a0,s0,20
	call	mbedtls_mpi_free
.LVL963:
	.loc 1 2560 5
	addi	a0,s0,8
	call	mbedtls_mpi_free
.LVL964:
	.loc 1 2563 5
	addi	a0,s0,128
	call	mbedtls_mpi_free
.LVL965:
	.loc 1 2564 5
	addi	a0,s0,116
	call	mbedtls_mpi_free
.LVL966:
	.loc 1 2565 5
	addi	a0,s0,92
	call	mbedtls_mpi_free
.LVL967:
	.loc 1 2566 5
	addi	a0,s0,80
	call	mbedtls_mpi_free
.LVL968:
	.loc 1 2567 5
	addi	a0,s0,68
.LBE214:
.LBE216:
	.loc 1 2578 1 is_stmt 0
	lw	s0,8(sp)
	.cfi_restore 8
.LVL969:
	lw	ra,12(sp)
	.cfi_restore 1
	addi	sp,sp,16
	.cfi_def_cfa_offset 0
.LBB217:
.LBB215:
	.loc 1 2567 5
	tail	mbedtls_mpi_free
.LVL970:
.L506:
	ret
.LBE215:
.LBE217:
	.cfi_endproc
.LFE52:
	.size	mbedtls_rsa_free, .-mbedtls_rsa_free
	.section	.text.mbedtls_rsa_gen_key,"ax",@progbits
	.align	1
	.globl	mbedtls_rsa_gen_key
	.type	mbedtls_rsa_gen_key, @function
mbedtls_rsa_gen_key:
.LFB25:
	.loc 1 566 1 is_stmt 1
	.cfi_startproc
.LVL971:
	.loc 1 567 5
	.loc 1 568 5
	.loc 1 569 5
	.loc 1 570 5
	.loc 1 570 10
	.loc 1 570 17
	.loc 1 571 5
	.loc 1 571 10
	.loc 1 571 17
	.loc 1 578 5
	.loc 1 566 1 is_stmt 0
	addi	sp,sp,-128
	.cfi_def_cfa_offset 128
	sw	s1,116(sp)
	sw	s5,100(sp)
	.cfi_offset 9, -12
	.cfi_offset 21, -28
	mv	s1,a0
	.loc 1 578 7
	li	s5,1024
	.loc 1 581 5
	addi	a0,sp,28
.LVL972:
	.loc 1 566 1
	sw	ra,124(sp)
	sw	a4,12(sp)
	.loc 1 579 23
	sgtu	s5,a3,s5
.LVL973:
	.loc 1 581 5 is_stmt 1
	.loc 1 566 1 is_stmt 0
	sw	s2,112(sp)
	sw	s6,96(sp)
	.cfi_offset 1, -4
	.cfi_offset 18, -16
	.cfi_offset 22, -32
	mv	s2,a3
	mv	s6,a1
	sw	s7,92(sp)
	sw	s0,120(sp)
	.cfi_offset 23, -36
	.cfi_offset 8, -8
	mv	s7,a2
	sw	s3,108(sp)
	sw	s4,104(sp)
	sw	s8,88(sp)
	sw	s9,84(sp)
	sw	s10,80(sp)
	sw	s11,76(sp)
	.cfi_offset 19, -20
	.cfi_offset 20, -24
	.cfi_offset 24, -40
	.cfi_offset 25, -44
	.cfi_offset 26, -48
	.cfi_offset 27, -52
	.loc 1 581 5
	call	mbedtls_mpi_init
.LVL974:
	.loc 1 582 5 is_stmt 1
	addi	a0,sp,40
	call	mbedtls_mpi_init
.LVL975:
	.loc 1 583 5
	addi	a0,sp,52
	call	mbedtls_mpi_init
.LVL976:
	.loc 1 585 5
	.loc 1 585 7 is_stmt 0
	li	a5,127
	bleu	s2,a5,.L524
	.loc 1 585 21 discriminator 1
	lw	a1,12(sp)
	li	a5,2
	ble	a1,a5,.L524
	.loc 1 585 46 discriminator 2
	andi	a5,s2,1
	.loc 1 585 37 discriminator 2
	bne	a5,zero,.L524
	.loc 1 597 5 is_stmt 1
	.loc 1 597 10
	.loc 1 597 23 is_stmt 0
	addi	s9,s1,20
	mv	a0,s9
	call	mbedtls_mpi_lset
.LVL977:
	mv	s0,a0
.LVL978:
	.loc 1 597 12
	bne	a0,zero,.L513
	li	a5,199
	slli	s5,s5,1
.LVL979:
	.loc 1 601 27
	srli	s10,s2,1
	li	s11,0
	bleu	s2,a5,.L515
	.loc 1 609 86
	addi	s11,s10,-99
.L515:
	.loc 1 631 56
	addi	s2,s2,1
.LVL980:
	.loc 1 631 62
	srli	s2,s2,1
.LVL981:
	.loc 1 601 27
	addi	s3,s1,44
	.loc 1 604 27
	addi	s4,s1,56
	.loc 1 629 27
	addi	s8,s1,32
.L516:
	.loc 1 597 92 is_stmt 1 discriminator 2
	.loc 1 599 5 discriminator 2
	.loc 1 601 9 discriminator 2
	.loc 1 601 14 discriminator 2
	.loc 1 601 27 is_stmt 0 discriminator 2
	mv	a4,s7
	mv	a3,s6
	mv	a2,s5
	mv	a1,s10
	mv	a0,s3
	call	mbedtls_mpi_gen_prime
.LVL982:
	mv	s0,a0
.LVL983:
	.loc 1 601 16 discriminator 2
	bne	a0,zero,.L513
	.loc 1 601 132 is_stmt 1 discriminator 2
	.loc 1 604 9 discriminator 2
	.loc 1 604 14 discriminator 2
	.loc 1 604 27 is_stmt 0 discriminator 2
	mv	a4,s7
	mv	a3,s6
	mv	a2,s5
	mv	a1,s10
	mv	a0,s4
	call	mbedtls_mpi_gen_prime
.LVL984:
	mv	s0,a0
.LVL985:
	.loc 1 604 16 discriminator 2
	bne	a0,zero,.L513
	.loc 1 604 132 is_stmt 1 discriminator 2
	.loc 1 608 9 discriminator 2
	.loc 1 608 14 discriminator 2
	.loc 1 608 27 is_stmt 0 discriminator 2
	mv	a2,s4
	mv	a1,s3
	addi	a0,sp,28
	call	mbedtls_mpi_sub_mpi
.LVL986:
	mv	s0,a0
.LVL987:
	.loc 1 608 16 discriminator 2
	bne	a0,zero,.L513
	.loc 1 608 102 is_stmt 1 discriminator 2
	.loc 1 609 9 discriminator 2
	.loc 1 609 13 is_stmt 0 discriminator 2
	addi	a0,sp,28
	call	mbedtls_mpi_bitlen
.LVL988:
	.loc 1 609 11 discriminator 2
	bleu	a0,s11,.L516
	.loc 1 613 9 is_stmt 1
	.loc 1 613 11 is_stmt 0
	lw	a5,28(sp)
	bge	a5,zero,.L517
	.loc 1 614 13 is_stmt 1
	mv	a1,s4
	mv	a0,s3
	call	mbedtls_mpi_swap
.LVL989:
.L517:
	.loc 1 617 9
	.loc 1 617 14
	.loc 1 617 27 is_stmt 0
	li	a2,1
	mv	a1,s3
	mv	a0,s3
	call	mbedtls_mpi_sub_int
.LVL990:
	mv	s0,a0
.LVL991:
	.loc 1 617 16
	bne	a0,zero,.L513
	.loc 1 617 101 is_stmt 1 discriminator 2
	.loc 1 618 9 discriminator 2
	.loc 1 618 14 discriminator 2
	.loc 1 618 27 is_stmt 0 discriminator 2
	li	a2,1
	mv	a1,s4
	mv	a0,s4
	call	mbedtls_mpi_sub_int
.LVL992:
	mv	s0,a0
.LVL993:
	.loc 1 618 16 discriminator 2
	bne	a0,zero,.L513
	.loc 1 618 101 is_stmt 1 discriminator 2
	.loc 1 619 9 discriminator 2
	.loc 1 619 14 discriminator 2
	.loc 1 619 27 is_stmt 0 discriminator 2
	mv	a2,s4
	mv	a1,s3
	addi	a0,sp,28
	call	mbedtls_mpi_mul_mpi
.LVL994:
	mv	s0,a0
.LVL995:
	.loc 1 619 16 discriminator 2
	bne	a0,zero,.L513
	.loc 1 619 102 is_stmt 1 discriminator 2
	.loc 1 622 9 discriminator 2
	.loc 1 622 14 discriminator 2
	.loc 1 622 27 is_stmt 0 discriminator 2
	addi	a2,sp,28
	mv	a1,s9
	addi	a0,sp,40
	call	mbedtls_mpi_gcd
.LVL996:
	mv	s0,a0
.LVL997:
	.loc 1 622 16 discriminator 2
	bne	a0,zero,.L513
	.loc 1 622 93 is_stmt 1 discriminator 2
	.loc 1 623 9 discriminator 2
	.loc 1 623 13 is_stmt 0 discriminator 2
	li	a1,1
	addi	a0,sp,40
	call	mbedtls_mpi_cmp_int
.LVL998:
	.loc 1 623 11 discriminator 2
	bne	a0,zero,.L516
	.loc 1 627 9 is_stmt 1
	.loc 1 627 14
	.loc 1 627 27 is_stmt 0
	mv	a2,s4
	mv	a1,s3
	addi	a0,sp,40
	call	mbedtls_mpi_gcd
.LVL999:
	mv	s0,a0
.LVL1000:
	.loc 1 627 16
	bne	a0,zero,.L513
	.loc 1 627 98 is_stmt 1 discriminator 2
	.loc 1 628 9 discriminator 2
	.loc 1 628 14 discriminator 2
	.loc 1 628 27 is_stmt 0 discriminator 2
	addi	a3,sp,40
	addi	a2,sp,28
	li	a1,0
	addi	a0,sp,52
	call	mbedtls_mpi_div_mpi
.LVL1001:
	mv	s0,a0
.LVL1002:
	.loc 1 628 16 discriminator 2
	bne	a0,zero,.L513
	.loc 1 628 50 is_stmt 1 discriminator 2
	.loc 1 629 9 discriminator 2
	.loc 1 629 14 discriminator 2
	.loc 1 629 27 is_stmt 0 discriminator 2
	addi	a2,sp,52
	mv	a1,s9
	mv	a0,s8
	call	mbedtls_mpi_inv_mod
.LVL1003:
	mv	s0,a0
.LVL1004:
	.loc 1 629 16 discriminator 2
	bne	a0,zero,.L513
	.loc 1 629 102 is_stmt 1 discriminator 2
	.loc 1 631 9 discriminator 2
	.loc 1 631 13 is_stmt 0 discriminator 2
	mv	a0,s8
	call	mbedtls_mpi_bitlen
.LVL1005:
	.loc 1 631 11 discriminator 2
	bleu	a0,s2,.L516
	.loc 1 634 9 is_stmt 1
	.loc 1 639 5
	.loc 1 639 10
	.loc 1 639 23 is_stmt 0
	li	a2,1
	mv	a1,s3
	mv	a0,s3
	call	mbedtls_mpi_add_int
.LVL1006:
	mv	s0,a0
.LVL1007:
	.loc 1 639 12
	bne	a0,zero,.L513
	.loc 1 639 97 is_stmt 1 discriminator 2
	.loc 1 640 5 discriminator 2
	.loc 1 640 10 discriminator 2
	.loc 1 640 23 is_stmt 0 discriminator 2
	li	a2,1
	mv	a1,s4
	mv	a0,s4
	call	mbedtls_mpi_add_int
.LVL1008:
	mv	s0,a0
.LVL1009:
	.loc 1 640 12 discriminator 2
	bne	a0,zero,.L513
	.loc 1 640 97 is_stmt 1 discriminator 2
	.loc 1 642 5 discriminator 2
	.loc 1 642 10 discriminator 2
	.loc 1 642 23 is_stmt 0 discriminator 2
	addi	s2,s1,8
	mv	a2,s4
	mv	a1,s3
	mv	a0,s2
	call	mbedtls_mpi_mul_mpi
.LVL1010:
	mv	s0,a0
.LVL1011:
	.loc 1 642 12 discriminator 2
	bne	a0,zero,.L513
	.loc 1 642 103 is_stmt 1 discriminator 2
	.loc 1 644 5 discriminator 2
	.loc 1 644 16 is_stmt 0 discriminator 2
	mv	a0,s2
	call	mbedtls_mpi_size
.LVL1012:
	.loc 1 644 14 discriminator 2
	sw	a0,4(s1)
	.loc 1 652 5 is_stmt 1 discriminator 2
	.loc 1 652 10 discriminator 2
	.loc 1 652 23 is_stmt 0 discriminator 2
	addi	a5,s1,92
	addi	a4,s1,80
	addi	a3,s1,68
	mv	a2,s8
	mv	a1,s4
	mv	a0,s3
	call	mbedtls_rsa_deduce_crt
.LVL1013:
	mv	s0,a0
.LVL1014:
	.loc 1 652 12 discriminator 2
	bne	a0,zero,.L513
	.loc 1 652 136 is_stmt 1 discriminator 2
	.loc 1 657 5 discriminator 2
	.loc 1 657 10 discriminator 2
	.loc 1 657 23 is_stmt 0 discriminator 2
	mv	a0,s1
	call	mbedtls_rsa_check_privkey
.LVL1015:
	mv	s0,a0
.LVL1016:
.L513:
	.loc 1 657 87 is_stmt 1 discriminator 3
	.loc 1 661 5 discriminator 3
	addi	a0,sp,28
	call	mbedtls_mpi_free
.LVL1017:
	.loc 1 662 5 discriminator 3
	addi	a0,sp,40
	call	mbedtls_mpi_free
.LVL1018:
	.loc 1 663 5 discriminator 3
	addi	a0,sp,52
	call	mbedtls_mpi_free
.LVL1019:
	.loc 1 665 5 discriminator 3
	.loc 1 665 7 is_stmt 0 discriminator 3
	beq	s0,zero,.L511
	.loc 1 667 9 is_stmt 1
	mv	a0,s1
	call	mbedtls_rsa_free
.LVL1020:
	.loc 1 668 9
	.loc 1 668 15 is_stmt 0
	neg	a5,s0
	.loc 1 668 20
	andi	a5,a5,-128
	.loc 1 668 11
	bne	a5,zero,.L511
	.loc 1 669 13 is_stmt 1
	.loc 1 669 17 is_stmt 0
	li	a5,-16384
	addi	a5,a5,-384
	add	s0,s0,a5
.LVL1021:
.L511:
	.loc 1 674 1
	lw	ra,124(sp)
	.cfi_remember_state
	.cfi_restore 1
	mv	a0,s0
	lw	s0,120(sp)
	.cfi_restore 8
	lw	s1,116(sp)
	.cfi_restore 9
.LVL1022:
	lw	s2,112(sp)
	.cfi_restore 18
	lw	s3,108(sp)
	.cfi_restore 19
	lw	s4,104(sp)
	.cfi_restore 20
	lw	s5,100(sp)
	.cfi_restore 21
	lw	s6,96(sp)
	.cfi_restore 22
.LVL1023:
	lw	s7,92(sp)
	.cfi_restore 23
.LVL1024:
	lw	s8,88(sp)
	.cfi_restore 24
	lw	s9,84(sp)
	.cfi_restore 25
	lw	s10,80(sp)
	.cfi_restore 26
	lw	s11,76(sp)
	.cfi_restore 27
	addi	sp,sp,128
	.cfi_def_cfa_offset 0
.LVL1025:
	jr	ra
.LVL1026:
.L524:
	.cfi_restore_state
	.loc 1 587 13
	li	a0,-16384
	addi	s0,a0,-128
	j	.L513
	.cfi_endproc
.LFE25:
	.size	mbedtls_rsa_gen_key, .-mbedtls_rsa_gen_key
	.section	.text.mbedtls_rsa_copy,"ax",@progbits
	.align	1
	.globl	mbedtls_rsa_copy
	.type	mbedtls_rsa_copy, @function
mbedtls_rsa_copy:
.LFB51:
	.loc 1 2508 1 is_stmt 1
	.cfi_startproc
.LVL1027:
	.loc 1 2509 5
	.loc 1 2510 5
	.loc 1 2510 10
	.loc 1 2510 17
	.loc 1 2511 5
	.loc 1 2511 10
	.loc 1 2511 17
	.loc 1 2513 5
	.loc 1 2508 1 is_stmt 0
	addi	sp,sp,-16
	.cfi_def_cfa_offset 16
	sw	s0,8(sp)
	sw	s1,4(sp)
	sw	s2,0(sp)
	sw	ra,12(sp)
	.cfi_offset 8, -8
	.cfi_offset 9, -12
	.cfi_offset 18, -16
	.cfi_offset 1, -4
	.loc 1 2513 19
	lw	a5,4(a1)
	.loc 1 2508 1
	mv	s1,a0
	mv	s2,a1
	.loc 1 2513 14
	sw	a5,4(a0)
	.loc 1 2515 5 is_stmt 1
	.loc 1 2515 10
	.loc 1 2515 23 is_stmt 0
	addi	a1,a1,8
.LVL1028:
	addi	a0,a0,8
.LVL1029:
	call	mbedtls_mpi_copy
.LVL1030:
	mv	s0,a0
.LVL1031:
	.loc 1 2515 12
	bne	a0,zero,.L533
	.loc 1 2515 91 is_stmt 1 discriminator 2
	.loc 1 2516 5 discriminator 2
	.loc 1 2516 10 discriminator 2
	.loc 1 2516 23 is_stmt 0 discriminator 2
	addi	a1,s2,20
	addi	a0,s1,20
	call	mbedtls_mpi_copy
.LVL1032:
	mv	s0,a0
.LVL1033:
	.loc 1 2516 12 discriminator 2
	bne	a0,zero,.L533
	.loc 1 2516 91 is_stmt 1 discriminator 2
	.loc 1 2518 5 discriminator 2
	.loc 1 2518 10 discriminator 2
	.loc 1 2518 23 is_stmt 0 discriminator 2
	addi	a1,s2,32
	addi	a0,s1,32
	call	mbedtls_mpi_copy
.LVL1034:
	mv	s0,a0
.LVL1035:
	.loc 1 2518 12 discriminator 2
	bne	a0,zero,.L533
	.loc 1 2518 91 is_stmt 1 discriminator 2
	.loc 1 2519 5 discriminator 2
	.loc 1 2519 10 discriminator 2
	.loc 1 2519 23 is_stmt 0 discriminator 2
	addi	a1,s2,44
	addi	a0,s1,44
	call	mbedtls_mpi_copy
.LVL1036:
	mv	s0,a0
.LVL1037:
	.loc 1 2519 12 discriminator 2
	bne	a0,zero,.L533
	.loc 1 2519 91 is_stmt 1 discriminator 2
	.loc 1 2520 5 discriminator 2
	.loc 1 2520 10 discriminator 2
	.loc 1 2520 23 is_stmt 0 discriminator 2
	addi	a1,s2,56
	addi	a0,s1,56
	call	mbedtls_mpi_copy
.LVL1038:
	mv	s0,a0
.LVL1039:
	.loc 1 2520 12 discriminator 2
	bne	a0,zero,.L533
	.loc 1 2520 91 is_stmt 1 discriminator 2
	.loc 1 2523 5 discriminator 2
	.loc 1 2523 10 discriminator 2
	.loc 1 2523 23 is_stmt 0 discriminator 2
	addi	a1,s2,68
	addi	a0,s1,68
	call	mbedtls_mpi_copy
.LVL1040:
	mv	s0,a0
.LVL1041:
	.loc 1 2523 12 discriminator 2
	bne	a0,zero,.L533
	.loc 1 2523 93 is_stmt 1 discriminator 2
	.loc 1 2524 5 discriminator 2
	.loc 1 2524 10 discriminator 2
	.loc 1 2524 23 is_stmt 0 discriminator 2
	addi	a1,s2,80
	addi	a0,s1,80
	call	mbedtls_mpi_copy
.LVL1042:
	mv	s0,a0
.LVL1043:
	.loc 1 2524 12 discriminator 2
	bne	a0,zero,.L533
	.loc 1 2524 93 is_stmt 1 discriminator 2
	.loc 1 2525 5 discriminator 2
	.loc 1 2525 10 discriminator 2
	.loc 1 2525 23 is_stmt 0 discriminator 2
	addi	a1,s2,92
	addi	a0,s1,92
	call	mbedtls_mpi_copy
.LVL1044:
	mv	s0,a0
.LVL1045:
	.loc 1 2525 12 discriminator 2
	bne	a0,zero,.L533
	.loc 1 2525 93 is_stmt 1 discriminator 2
	.loc 1 2526 5 discriminator 2
	.loc 1 2526 10 discriminator 2
	.loc 1 2526 23 is_stmt 0 discriminator 2
	addi	a1,s2,116
	addi	a0,s1,116
	call	mbedtls_mpi_copy
.LVL1046:
	mv	s0,a0
.LVL1047:
	.loc 1 2526 12 discriminator 2
	bne	a0,zero,.L533
	.loc 1 2526 93 is_stmt 1 discriminator 2
	.loc 1 2527 5 discriminator 2
	.loc 1 2527 10 discriminator 2
	.loc 1 2527 23 is_stmt 0 discriminator 2
	addi	a1,s2,128
	addi	a0,s1,128
	call	mbedtls_mpi_copy
.LVL1048:
	mv	s0,a0
.LVL1049:
	.loc 1 2527 12 discriminator 2
	bne	a0,zero,.L533
	.loc 1 2527 93 is_stmt 1 discriminator 2
	.loc 1 2530 5 discriminator 2
	.loc 1 2530 10 discriminator 2
	.loc 1 2530 23 is_stmt 0 discriminator 2
	addi	a1,s2,104
	addi	a0,s1,104
	call	mbedtls_mpi_copy
.LVL1050:
	mv	s0,a0
.LVL1051:
	.loc 1 2530 12 discriminator 2
	bne	a0,zero,.L533
	.loc 1 2530 93 is_stmt 1 discriminator 2
	.loc 1 2532 5 discriminator 2
	.loc 1 2532 10 discriminator 2
	.loc 1 2532 23 is_stmt 0 discriminator 2
	addi	a1,s2,140
	addi	a0,s1,140
	call	mbedtls_mpi_copy
.LVL1052:
	mv	s0,a0
.LVL1053:
	.loc 1 2532 12 discriminator 2
	bne	a0,zero,.L533
	.loc 1 2532 93 is_stmt 1 discriminator 2
	.loc 1 2533 5 discriminator 2
	.loc 1 2533 10 discriminator 2
	.loc 1 2533 23 is_stmt 0 discriminator 2
	addi	a1,s2,152
	addi	a0,s1,152
	call	mbedtls_mpi_copy
.LVL1054:
	mv	s0,a0
.LVL1055:
	.loc 1 2533 12 discriminator 2
	bne	a0,zero,.L533
	.loc 1 2533 93 is_stmt 1 discriminator 2
	.loc 1 2535 5 discriminator 2
	.loc 1 2535 23 is_stmt 0 discriminator 2
	lw	a5,164(s2)
	.loc 1 2535 18 discriminator 2
	sw	a5,164(s1)
	.loc 1 2536 5 is_stmt 1 discriminator 2
	.loc 1 2536 23 is_stmt 0 discriminator 2
	lw	a5,168(s2)
	.loc 1 2536 18 discriminator 2
	sw	a5,168(s1)
.LVL1056:
	.loc 1 2539 5 is_stmt 1 discriminator 2
	.loc 1 2542 5 discriminator 2
.L532:
	.loc 1 2543 1 is_stmt 0
	lw	ra,12(sp)
	.cfi_remember_state
	.cfi_restore 1
	mv	a0,s0
	lw	s0,8(sp)
	.cfi_restore 8
	lw	s1,4(sp)
	.cfi_restore 9
.LVL1057:
	lw	s2,0(sp)
	.cfi_restore 18
.LVL1058:
	addi	sp,sp,16
	.cfi_def_cfa_offset 0
	jr	ra
.LVL1059:
.L533:
	.cfi_restore_state
	.loc 1 2539 5 is_stmt 1
	.loc 1 2540 9
	mv	a0,s1
	call	mbedtls_rsa_free
.LVL1060:
	j	.L532
	.cfi_endproc
.LFE51:
	.size	mbedtls_rsa_copy, .-mbedtls_rsa_copy
	.text
.Letext0:
	.file 2 "/mnt/d/GitHub/bl_iot_sdk_for_aithinker/toolchain/riscv/Linux/lib/gcc/riscv64-unknown-elf/10.2.0/include/stddef.h"
	.file 3 "/mnt/d/GitHub/bl_iot_sdk_for_aithinker/toolchain/riscv/Linux/lib/gcc/riscv64-unknown-elf/10.2.0/include/stdint-gcc.h"
	.file 4 "/mnt/d/GitHub/bl_iot_sdk_for_aithinker/components/security/mbedtls_lts/mbedtls/include/mbedtls/bignum.h"
	.file 5 "/mnt/d/GitHub/bl_iot_sdk_for_aithinker/components/security/mbedtls_lts/mbedtls/include/mbedtls/md.h"
	.file 6 "/mnt/d/GitHub/bl_iot_sdk_for_aithinker/components/security/mbedtls_lts/mbedtls/include/mbedtls/rsa.h"
	.file 7 "/mnt/d/GitHub/bl_iot_sdk_for_aithinker/components/security/mbedtls_lts/mbedtls/include/mbedtls/platform.h"
	.file 8 "/mnt/d/GitHub/bl_iot_sdk_for_aithinker/components/security/mbedtls_lts/mbedtls/include/mbedtls/platform_util.h"
	.file 9 "/mnt/d/GitHub/bl_iot_sdk_for_aithinker/toolchain/riscv/Linux/riscv64-unknown-elf/include/string.h"
	.file 10 "/mnt/d/GitHub/bl_iot_sdk_for_aithinker/components/security/mbedtls_lts/mbedtls/include/mbedtls/oid.h"
	.file 11 "/mnt/d/GitHub/bl_iot_sdk_for_aithinker/components/security/mbedtls_lts/mbedtls/include/mbedtls/rsa_internal.h"