	.file	"rsa_internal.c"
	.option nopic
	.attribute arch, "rv32i2p0_m2p0_f2p0_c2p0"
	.attribute unaligned_access, 0
	.attribute stack_align, 16
	.text
.Ltext0:
	.cfi_sections	.debug_frame
	.section	.rodata.mbedtls_rsa_deduce_primes.str1.4,"aMS",@progbits,1
	.align	2
.LC0:
	.string	"\002\003\005\007\013\r\021\023\027\035\037%)+/5;=CGIOSYaegkmq\177\203\211\213\225\227\235\243\247\255\263\265\277\301\305\307\323\337\343\345\351\357\361\373"
	.section	.text.mbedtls_rsa_deduce_primes,"ax",@progbits
	.align	1
	.globl	mbedtls_rsa_deduce_primes
	.type	mbedtls_rsa_deduce_primes, @function
mbedtls_rsa_deduce_primes:
.LFB3:
	.file 1 "/mnt/d/GitHub/bl_iot_sdk_for_aithinker/components/security/mbedtls_lts/mbedtls/library/rsa_internal.c"
	.loc 1 96 1
	.cfi_startproc
.LVL0:
	.loc 1 97 5
	.loc 1 99 5
	.loc 1 100 5
	.loc 1 102 5
	.loc 1 104 5
	.loc 1 105 5
	.loc 1 107 5
	.loc 1 96 1 is_stmt 0
	addi	sp,sp,-128
	.cfi_def_cfa_offset 128
	sw	s2,112(sp)
	.cfi_offset 18, -16
	mv	s2,a1
	.loc 1 107 25
	lui	a1,%hi(.LC0)
.LVL1:
	.loc 1 96 1
	sw	s0,120(sp)
	sw	s1,116(sp)
	sw	s3,108(sp)
	.cfi_offset 8, -8
	.cfi_offset 9, -12
	.cfi_offset 19, -20
	mv	s1,a0
	mv	s0,a2
	mv	s3,a3
	.loc 1 107 25
	li	a2,54
.LVL2:
	addi	a1,a1,%lo(.LC0)
	addi	a0,sp,24
.LVL3:
	.loc 1 96 1
	sw	s4,104(sp)
	sw	ra,124(sp)
	sw	s5,100(sp)
	sw	s6,96(sp)
	sw	s7,92(sp)
	sw	s8,88(sp)
	.cfi_offset 20, -24
	.cfi_offset 1, -4
	.cfi_offset 21, -28
	.cfi_offset 22, -32
	.cfi_offset 23, -36
	.cfi_offset 24, -40
	.loc 1 96 1
	mv	s4,a4
	.loc 1 107 25
	call	memcpy
.LVL4:
	.loc 1 117 5 is_stmt 1
	.loc 1 119 5
	.loc 1 119 7 is_stmt 0
	bne	s3,zero,.L2
.L4:
	.loc 1 120 15
	li	s0,-4
.LVL5:
.L1:
	.loc 1 222 1
	lw	ra,124(sp)
	.cfi_remember_state
	.cfi_restore 1
	mv	a0,s0
	lw	s0,120(sp)
	.cfi_restore 8
	lw	s1,116(sp)
	.cfi_restore 9
.LVL6:
	lw	s2,112(sp)
	.cfi_restore 18
	lw	s3,108(sp)
	.cfi_restore 19
.LVL7:
	lw	s4,104(sp)
	.cfi_restore 20
.LVL8:
	lw	s5,100(sp)
	.cfi_restore 21
	lw	s6,96(sp)
	.cfi_restore 22
	lw	s7,92(sp)
	.cfi_restore 23
	lw	s8,88(sp)
	.cfi_restore 24
	addi	sp,sp,128
	.cfi_def_cfa_offset 0
	jr	ra
.LVL9:
.L2:
	.cfi_restore_state
	.loc 1 119 18 discriminator 1
	beq	s4,zero,.L4
	.loc 1 119 31 discriminator 2
	lw	a5,8(s3)
	bne	a5,zero,.L4
	.loc 1 119 47 discriminator 3
	lw	a5,8(s4)
	bne	a5,zero,.L4
	.loc 1 122 5 is_stmt 1
	.loc 1 122 9 is_stmt 0
	li	a1,0
	mv	a0,s1
	call	mbedtls_mpi_cmp_int
.LVL10:
	.loc 1 122 7
	ble	a0,zero,.L4
	.loc 1 123 9 discriminator 1
	li	a1,1
	mv	a0,s0
	call	mbedtls_mpi_cmp_int
.LVL11:
	.loc 1 122 42 discriminator 1
	ble	a0,zero,.L4
	.loc 1 124 9
	mv	a1,s1
	mv	a0,s0
	call	mbedtls_mpi_cmp_mpi
.LVL12:
	.loc 1 123 42
	bge	a0,zero,.L4
	.loc 1 125 9
	li	a1,1
	mv	a0,s2
	call	mbedtls_mpi_cmp_int
.LVL13:
	.loc 1 124 42
	ble	a0,zero,.L4
	.loc 1 126 9
	mv	a1,s1
	mv	a0,s2
	call	mbedtls_mpi_cmp_mpi
.LVL14:
	.loc 1 125 42
	bge	a0,zero,.L4
	.loc 1 135 5 is_stmt 1
	addi	a0,sp,12
	call	mbedtls_mpi_init
.LVL15:
	.loc 1 136 5
	mv	a0,sp
	call	mbedtls_mpi_init
.LVL16:
	.loc 1 139 5
	.loc 1 139 10
	.loc 1 139 23 is_stmt 0
	mv	a1,s0
	mv	a2,s2
	mv	a0,sp
	call	mbedtls_mpi_mul_mpi
.LVL17:
	mv	s0,a0
.LVL18:
	.loc 1 139 12
	bne	a0,zero,.L5
	.loc 1 139 86 is_stmt 1 discriminator 2
	.loc 1 140 5 discriminator 2
	.loc 1 140 10 discriminator 2
	.loc 1 140 23 is_stmt 0 discriminator 2
	li	a2,1
	mv	a1,sp
	mv	a0,sp
	call	mbedtls_mpi_sub_int
.LVL19:
	mv	s0,a0
.LVL20:
	.loc 1 140 12 discriminator 2
	bne	a0,zero,.L5
	.loc 1 140 87 is_stmt 1 discriminator 2
	.loc 1 142 5 discriminator 2
	.loc 1 142 30 is_stmt 0 discriminator 2
	mv	a0,sp
	call	mbedtls_mpi_lsb
.LVL21:
	.loc 1 142 17 discriminator 2
	slli	s6,a0,16
	srli	s6,s6,16
.LVL22:
	.loc 1 142 7 discriminator 2
	bne	s6,zero,.L6
.LVL23:
.L9:
	.loc 1 144 13
	li	s0,-4
.LVL24:
.L5:
	.loc 1 219 5 is_stmt 1
	addi	a0,sp,12
	call	mbedtls_mpi_free
.LVL25:
	.loc 1 220 5
	mv	a0,sp
	call	mbedtls_mpi_free
.LVL26:
	.loc 1 221 5
	.loc 1 221 11 is_stmt 0
	j	.L1
.LVL27:
.L6:
	.loc 1 149 5 is_stmt 1
	.loc 1 149 10
	.loc 1 149 23 is_stmt 0
	slli	a1,a0,16
	srli	a1,a1,16
	mv	a0,sp
	call	mbedtls_mpi_shift_r
.LVL28:
	mv	s0,a0
.LVL29:
	.loc 1 149 12
	bne	a0,zero,.L5
	.loc 1 149 87 is_stmt 1 discriminator 2
	.loc 1 156 5 discriminator 2
.LVL30:
	.loc 1 157 5 discriminator 2
	.loc 1 157 13 is_stmt 0 discriminator 2
	lw	a5,8(s1)
	.loc 1 185 50 discriminator 2
	li	s7,-1
	.loc 1 160 5 discriminator 2
	li	s8,53
	.loc 1 157 17 discriminator 2
	lw	s2,0(a5)
.LVL31:
	andi	s2,s2,7
	.loc 1 157 7 discriminator 2
	addi	s2,s2,-1
	seqz	s2,s2
.LVL32:
.L8:
	.loc 1 162 9 is_stmt 1
	.loc 1 162 37 is_stmt 0
	addi	a5,sp,24
	add	a5,a5,s2
	.loc 1 162 9
	lbu	a1,0(a5)
	addi	a0,sp,12
	call	mbedtls_mpi_lset
.LVL33:
	.loc 1 165 9 is_stmt 1
	.loc 1 165 14
	.loc 1 165 27 is_stmt 0
	mv	a2,s1
	addi	a1,sp,12
	mv	a0,s3
	call	mbedtls_mpi_gcd
.LVL34:
	mv	s0,a0
.LVL35:
	.loc 1 165 16
	bne	a0,zero,.L5
	.loc 1 165 86 is_stmt 1 discriminator 2
	.loc 1 166 9 discriminator 2
	.loc 1 166 13 is_stmt 0 discriminator 2
	li	a1,1
	mv	a0,s3
	call	mbedtls_mpi_cmp_int
.LVL36:
	.loc 1 166 11 discriminator 2
	beq	a0,zero,.L7
.L13:
	.loc 1 160 34 is_stmt 1
.LVL37:
	.loc 1 160 12
	.loc 1 160 5 is_stmt 0
	addi	s2,s2,1
.LVL38:
	slli	a5,s2,16
	srli	a5,a5,16
	bleu	a5,s8,.L8
	j	.L9
.LVL39:
.L7:
	.loc 1 171 9 is_stmt 1
	.loc 1 171 14
	.loc 1 171 27 is_stmt 0
	addi	a1,sp,12
	mv	a4,s4
	mv	a3,s1
	mv	a2,sp
	mv	a0,a1
	call	mbedtls_mpi_exp_mod
.LVL40:
	mv	s0,a0
.LVL41:
	.loc 1 171 16
	bne	a0,zero,.L5
	.loc 1 175 19
	li	s5,1
.L12:
.LVL42:
	.loc 1 179 13 is_stmt 1
	.loc 1 179 17 is_stmt 0
	li	a1,1
	addi	a0,sp,12
	call	mbedtls_mpi_cmp_int
.LVL43:
	.loc 1 179 15
	beq	a0,zero,.L10
	.loc 1 182 13 is_stmt 1
	.loc 1 182 18
	.loc 1 182 31 is_stmt 0
	addi	a1,sp,12
	li	a2,1
	mv	a0,a1
	call	mbedtls_mpi_add_int
.LVL44:
	mv	s0,a0
.LVL45:
	.loc 1 182 20
	bne	a0,zero,.L5
	.loc 1 182 95 is_stmt 1 discriminator 2
	.loc 1 183 13 discriminator 2
	.loc 1 183 18 discriminator 2
	.loc 1 183 31 is_stmt 0 discriminator 2
	mv	a2,s1
	addi	a1,sp,12
	mv	a0,s3
	call	mbedtls_mpi_gcd
.LVL46:
	mv	s0,a0
.LVL47:
	.loc 1 183 20 discriminator 2
	bne	a0,zero,.L5
	.loc 1 183 90 is_stmt 1 discriminator 2
	.loc 1 185 13 discriminator 2
	.loc 1 185 17 is_stmt 0 discriminator 2
	li	a1,1
	mv	a0,s3
	call	mbedtls_mpi_cmp_int
.LVL48:
	.loc 1 185 15 discriminator 2
	li	a5,1
	bne	a0,a5,.L11
	.loc 1 186 17 discriminator 1
	mv	a1,s1
	mv	a0,s3
	call	mbedtls_mpi_cmp_mpi
.LVL49:
	.loc 1 185 50 discriminator 1
	bne	a0,s7,.L11
	.loc 1 193 17 is_stmt 1
	.loc 1 193 22
	.loc 1 193 35 is_stmt 0
	mv	a3,s3
	mv	a2,s1
	li	a1,0
	mv	a0,s4
	call	mbedtls_mpi_div_mpi
.LVL50:
	mv	s0,a0
.LVL51:
	j	.L5
.L11:
	.loc 1 197 13 is_stmt 1
	.loc 1 197 18
	.loc 1 197 31 is_stmt 0
	addi	a1,sp,12
	li	a2,1
	mv	a0,a1
	call	mbedtls_mpi_sub_int
.LVL52:
	mv	s0,a0
.LVL53:
	.loc 1 197 20
	bne	a0,zero,.L5
	.loc 1 197 95 is_stmt 1 discriminator 2
	.loc 1 198 13 discriminator 2
	.loc 1 198 18 discriminator 2
	.loc 1 198 31 is_stmt 0 discriminator 2
	addi	a2,sp,12
	mv	a1,a2
	mv	a0,a2
	call	mbedtls_mpi_mul_mpi
.LVL54:
	mv	s0,a0
.LVL55:
	.loc 1 198 20 discriminator 2
	bne	a0,zero,.L5
	.loc 1 198 96 is_stmt 1 discriminator 2
	.loc 1 199 13 discriminator 2
	.loc 1 199 18 discriminator 2
	.loc 1 199 31 is_stmt 0 discriminator 2
	addi	a1,sp,12
	mv	a2,s1
	mv	a0,a1
	call	mbedtls_mpi_mod_mpi
.LVL56:
	mv	s0,a0
.LVL57:
	.loc 1 199 20 discriminator 2
	bne	a0,zero,.L5
	.loc 1 199 95 is_stmt 1 discriminator 2
	.loc 1 175 39 discriminator 2
	addi	s5,s5,1
.LVL58:
	slli	s5,s5,16
	srli	s5,s5,16
.LVL59:
	.loc 1 175 24 discriminator 2
	.loc 1 175 9 is_stmt 0 discriminator 2
	bgeu	s6,s5,.L12
.L10:
	.loc 1 209 9 is_stmt 1
	.loc 1 209 13 is_stmt 0
	li	a1,1
	addi	a0,sp,12
	call	mbedtls_mpi_cmp_int
.LVL60:
	.loc 1 209 11
	beq	a0,zero,.L13
	j	.L9
	.cfi_endproc
.LFE3:
	.size	mbedtls_rsa_deduce_primes, .-mbedtls_rsa_deduce_primes
	.section	.text.mbedtls_rsa_deduce_private_exponent,"ax",@progbits
	.align	1
	.globl	mbedtls_rsa_deduce_private_exponent
	.type	mbedtls_rsa_deduce_private_exponent, @function
mbedtls_rsa_deduce_private_exponent:
.LFB4:
	.loc 1 232 1 is_stmt 1
	.cfi_startproc
.LVL61:
	.loc 1 233 5
	.loc 1 234 5
	.loc 1 236 5
	.loc 1 232 1 is_stmt 0
	addi	sp,sp,-64
	.cfi_def_cfa_offset 64
	sw	ra,60(sp)
	sw	s0,56(sp)
	sw	s1,52(sp)
	sw	s2,48(sp)
	sw	s3,44(sp)
	.cfi_offset 1, -4
	.cfi_offset 8, -8
	.cfi_offset 9, -12
	.cfi_offset 18, -16
	.cfi_offset 19, -20
	.loc 1 236 7
	bne	a3,zero,.L24
.LVL62:
.L26:
	.loc 1 237 15
	li	s0,-4
.LVL63:
.L23:
	.loc 1 269 1
	lw	ra,60(sp)
	.cfi_remember_state
	.cfi_restore 1
	mv	a0,s0
	lw	s0,56(sp)
	.cfi_restore 8
	lw	s1,52(sp)
	.cfi_restore 9
	lw	s2,48(sp)
	.cfi_restore 18
	lw	s3,44(sp)
	.cfi_restore 19
	addi	sp,sp,64
	.cfi_def_cfa_offset 0
	jr	ra
.LVL64:
.L24:
	.cfi_restore_state
	mv	s0,a0
	mv	s3,a1
	.loc 1 236 21 discriminator 1
	mv	a0,a3
.LVL65:
	li	a1,0
.LVL66:
	mv	s2,a2
	mv	s1,a3
	call	mbedtls_mpi_cmp_int
.LVL67:
	.loc 1 236 18 discriminator 1
	bne	a0,zero,.L26
	.loc 1 239 5 is_stmt 1
	.loc 1 239 9 is_stmt 0
	li	a1,1
	mv	a0,s0
	call	mbedtls_mpi_cmp_int
.LVL68:
	.loc 1 239 7
	ble	a0,zero,.L26
	.loc 1 240 9 discriminator 1
	li	a1,1
	mv	a0,s3
	call	mbedtls_mpi_cmp_int
.LVL69:
	.loc 1 239 42 discriminator 1
	ble	a0,zero,.L26
	.loc 1 241 9
	li	a1,0
	mv	a0,s2
	call	mbedtls_mpi_cmp_int
.LVL70:
	.loc 1 240 42
	beq	a0,zero,.L26
	.loc 1 246 5 is_stmt 1
	addi	a0,sp,8
	call	mbedtls_mpi_init
.LVL71:
	.loc 1 247 5
	addi	a0,sp,20
	call	mbedtls_mpi_init
.LVL72:
	.loc 1 250 5
	.loc 1 250 10
	.loc 1 250 23 is_stmt 0
	mv	a1,s0
	li	a2,1
	addi	a0,sp,8
	call	mbedtls_mpi_sub_int
.LVL73:
	mv	s0,a0
.LVL74:
	.loc 1 250 12
	bne	a0,zero,.L27
	.loc 1 250 86 is_stmt 1 discriminator 2
	.loc 1 251 5 discriminator 2
	.loc 1 251 10 discriminator 2
	.loc 1 251 23 is_stmt 0 discriminator 2
	li	a2,1
	mv	a1,s3
	addi	a0,sp,20
	call	mbedtls_mpi_sub_int
.LVL75:
	mv	s0,a0
.LVL76:
	.loc 1 251 12 discriminator 2
	bne	a0,zero,.L27
	.loc 1 251 86 is_stmt 1 discriminator 2
	.loc 1 254 5 discriminator 2
	.loc 1 254 10 discriminator 2
	.loc 1 254 23 is_stmt 0 discriminator 2
	addi	a2,sp,20
	addi	a1,sp,8
	mv	a0,s1
	call	mbedtls_mpi_gcd
.LVL77:
	mv	s0,a0
.LVL78:
	.loc 1 254 12 discriminator 2
	bne	a0,zero,.L27
	.loc 1 254 83 is_stmt 1 discriminator 2
	.loc 1 257 5 discriminator 2
	.loc 1 257 10 discriminator 2
	.loc 1 257 23 is_stmt 0 discriminator 2
	addi	a1,sp,8
	addi	a2,sp,20
	mv	a0,a1
	call	mbedtls_mpi_mul_mpi
.LVL79:
	mv	s0,a0
.LVL80:
	.loc 1 257 12 discriminator 2
	bne	a0,zero,.L27
	.loc 1 257 88 is_stmt 1 discriminator 2
	.loc 1 258 5 discriminator 2
	.loc 1 258 10 discriminator 2
	.loc 1 258 23 is_stmt 0 discriminator 2
	addi	a2,sp,8
	mv	a3,s1
	li	a1,0
	mv	a0,a2
	call	mbedtls_mpi_div_mpi
.LVL81:
	mv	s0,a0
.LVL82:
	.loc 1 258 12 discriminator 2
	bne	a0,zero,.L27
	.loc 1 258 45 is_stmt 1 discriminator 2
	.loc 1 261 5 discriminator 2
	.loc 1 261 10 discriminator 2
	.loc 1 261 23 is_stmt 0 discriminator 2
	addi	a2,sp,8
	mv	a1,s2
	mv	a0,s1
	call	mbedtls_mpi_inv_mod
.LVL83:
	mv	s0,a0
.LVL84:
.L27:
	.loc 1 261 86 is_stmt 1 discriminator 3
	.loc 1 265 5 discriminator 3
	addi	a0,sp,8
	call	mbedtls_mpi_free
.LVL85:
	.loc 1 266 5 discriminator 3
	addi	a0,sp,20
	call	mbedtls_mpi_free
.LVL86:
	.loc 1 268 5 discriminator 3
	.loc 1 268 11 is_stmt 0 discriminator 3
	j	.L23
	.cfi_endproc
.LFE4:
	.size	mbedtls_rsa_deduce_private_exponent, .-mbedtls_rsa_deduce_private_exponent
	.section	.text.mbedtls_rsa_validate_crt,"ax",@progbits
	.align	1
	.globl	mbedtls_rsa_validate_crt
	.type	mbedtls_rsa_validate_crt, @function
mbedtls_rsa_validate_crt:
.LFB5:
	.loc 1 277 1 is_stmt 1
	.cfi_startproc
.LVL87:
	.loc 1 278 5
	.loc 1 280 5
	.loc 1 281 5
	.loc 1 277 1 is_stmt 0
	addi	sp,sp,-64
	.cfi_def_cfa_offset 64
	sw	s0,56(sp)
	.cfi_offset 8, -8
	mv	s0,a0
	.loc 1 281 5
	addi	a0,sp,8
.LVL88:
	.loc 1 277 1
	sw	s1,52(sp)
	sw	s2,48(sp)
	sw	s3,44(sp)
	sw	s4,40(sp)
	sw	s5,36(sp)
	sw	ra,60(sp)
	.cfi_offset 9, -12
	.cfi_offset 18, -16
	.cfi_offset 19, -20
	.cfi_offset 20, -24
	.cfi_offset 21, -28
	.cfi_offset 1, -4
	.loc 1 277 1
	mv	s5,a3
	mv	s1,a1
	mv	s4,a2
	mv	s3,a4
	mv	s2,a5
	.loc 1 281 5
	call	mbedtls_mpi_init
.LVL89:
	.loc 1 282 5 is_stmt 1
	addi	a0,sp,20
	call	mbedtls_mpi_init
.LVL90:
	.loc 1 285 5
	.loc 1 285 7 is_stmt 0
	bne	s5,zero,.L33
.LVL91:
.L39:
	.loc 1 305 5 is_stmt 1
	.loc 1 305 7 is_stmt 0
	bne	s3,zero,.L34
.LVL92:
.L35:
	.loc 1 325 5 is_stmt 1
	.loc 1 325 7 is_stmt 0
	bne	s2,zero,.L40
.LVL93:
.L41:
	.loc 1 346 5 is_stmt 1
	.loc 1 335 27 is_stmt 0
	li	s0,0
.LVL94:
	j	.L37
.LVL95:
.L33:
	.loc 1 287 9 is_stmt 1
	.loc 1 287 11 is_stmt 0
	bne	s0,zero,.L36
.LVL96:
.L42:
	.loc 1 299 17
	li	a0,-16384
	addi	s0,a0,-128
.L37:
.LVL97:
	.loc 1 353 5 is_stmt 1
	addi	a0,sp,8
	call	mbedtls_mpi_free
.LVL98:
	.loc 1 354 5
	addi	a0,sp,20
	call	mbedtls_mpi_free
.LVL99:
	.loc 1 356 5
	.loc 1 357 1 is_stmt 0
	lw	ra,60(sp)
	.cfi_remember_state
	.cfi_restore 1
	mv	a0,s0
	lw	s0,56(sp)
	.cfi_restore 8
.LVL100:
	lw	s1,52(sp)
	.cfi_restore 9
.LVL101:
	lw	s2,48(sp)
	.cfi_restore 18
.LVL102:
	lw	s3,44(sp)
	.cfi_restore 19
.LVL103:
	lw	s4,40(sp)
	.cfi_restore 20
.LVL104:
	lw	s5,36(sp)
	.cfi_restore 21
.LVL105:
	addi	sp,sp,64
	.cfi_def_cfa_offset 0
	jr	ra
.LVL106:
.L36:
	.cfi_restore_state
	.loc 1 293 9 is_stmt 1
	.loc 1 293 14
	.loc 1 293 27 is_stmt 0
	li	a2,1
	mv	a1,s0
	addi	a0,sp,8
	call	mbedtls_mpi_sub_int
.LVL107:
	.loc 1 293 16
	bne	a0,zero,.L38
	.loc 1 293 90 is_stmt 1 discriminator 2
	.loc 1 294 9 discriminator 2
	.loc 1 294 14 discriminator 2
	.loc 1 294 27 is_stmt 0 discriminator 2
	mv	a2,s4
	mv	a1,s5
	addi	a0,sp,20
.LVL108:
	call	mbedtls_mpi_sub_mpi
.LVL109:
	.loc 1 294 16 discriminator 2
	bne	a0,zero,.L38
	.loc 1 294 91 is_stmt 1 discriminator 2
	.loc 1 295 9 discriminator 2
	.loc 1 295 14 discriminator 2
	.loc 1 295 27 is_stmt 0 discriminator 2
	addi	a1,sp,20
	addi	a2,sp,8
	mv	a0,a1
.LVL110:
	call	mbedtls_mpi_mod_mpi
.LVL111:
	.loc 1 295 16 discriminator 2
	bne	a0,zero,.L38
	.loc 1 295 92 is_stmt 1 discriminator 2
	.loc 1 297 9 discriminator 2
	.loc 1 297 13 is_stmt 0 discriminator 2
	li	a1,0
	addi	a0,sp,20
.LVL112:
	call	mbedtls_mpi_cmp_int
.LVL113:
	.loc 1 297 11 discriminator 2
	beq	a0,zero,.L39
.LVL114:
.L43:
	.loc 1 299 17
	li	a0,-16384
	addi	s0,a0,-512
	j	.L37
.LVL115:
.L34:
	.loc 1 307 9 is_stmt 1
	.loc 1 307 11 is_stmt 0
	beq	s1,zero,.L42
	.loc 1 313 9 is_stmt 1
	.loc 1 313 14
	.loc 1 313 27 is_stmt 0
	li	a2,1
	mv	a1,s1
	addi	a0,sp,8
	call	mbedtls_mpi_sub_int
.LVL116:
	.loc 1 313 16
	bne	a0,zero,.L38
	.loc 1 313 90 is_stmt 1 discriminator 2
	.loc 1 314 9 discriminator 2
	.loc 1 314 14 discriminator 2
	.loc 1 314 27 is_stmt 0 discriminator 2
	mv	a2,s4
	mv	a1,s3
	addi	a0,sp,20
.LVL117:
	call	mbedtls_mpi_sub_mpi
.LVL118:
	.loc 1 314 16 discriminator 2
	bne	a0,zero,.L38
	.loc 1 314 91 is_stmt 1 discriminator 2
	.loc 1 315 9 discriminator 2
	.loc 1 315 14 discriminator 2
	.loc 1 315 27 is_stmt 0 discriminator 2
	addi	a1,sp,20
	addi	a2,sp,8
	mv	a0,a1
.LVL119:
	call	mbedtls_mpi_mod_mpi
.LVL120:
	.loc 1 315 16 discriminator 2
	bne	a0,zero,.L38
	.loc 1 315 92 is_stmt 1 discriminator 2
	.loc 1 317 9 discriminator 2
	.loc 1 317 13 is_stmt 0 discriminator 2
	li	a1,0
	addi	a0,sp,20
.LVL121:
	call	mbedtls_mpi_cmp_int
.LVL122:
	.loc 1 317 11 discriminator 2
	beq	a0,zero,.L35
	j	.L43
.LVL123:
.L40:
	.loc 1 327 9 is_stmt 1
	.loc 1 327 11 is_stmt 0
	beq	s0,zero,.L42
	.loc 1 327 22 discriminator 1
	beq	s1,zero,.L42
	.loc 1 333 9 is_stmt 1
	.loc 1 333 14
	.loc 1 333 27 is_stmt 0
	mv	a2,s1
	mv	a1,s2
	addi	a0,sp,8
	call	mbedtls_mpi_mul_mpi
.LVL124:
	.loc 1 333 16
	bne	a0,zero,.L38
	.loc 1 333 91 is_stmt 1 discriminator 2
	.loc 1 334 9 discriminator 2
	.loc 1 334 14 discriminator 2
	.loc 1 334 27 is_stmt 0 discriminator 2
	addi	a1,sp,8
	li	a2,1
	mv	a0,a1
.LVL125:
	call	mbedtls_mpi_sub_int
.LVL126:
	.loc 1 334 16 discriminator 2
	bne	a0,zero,.L38
	.loc 1 334 91 is_stmt 1 discriminator 2
	.loc 1 335 9 discriminator 2
	.loc 1 335 14 discriminator 2
	.loc 1 335 27 is_stmt 0 discriminator 2
	addi	a1,sp,8
	mv	a2,s0
	mv	a0,a1
.LVL127:
	call	mbedtls_mpi_mod_mpi
.LVL128:
	.loc 1 335 16 discriminator 2
	bne	a0,zero,.L38
	.loc 1 335 91 is_stmt 1 discriminator 2
	.loc 1 336 9 discriminator 2
	.loc 1 336 13 is_stmt 0 discriminator 2
	li	a1,0
	addi	a0,sp,8
.LVL129:
	call	mbedtls_mpi_cmp_int
.LVL130:
	.loc 1 336 11 discriminator 2
	beq	a0,zero,.L41
	j	.L43
.LVL131:
.L38:
	.loc 1 346 5 is_stmt 1
	.loc 1 346 18 is_stmt 0
	li	a5,-16384
	addi	s0,a5,-512
.LVL132:
	beq	a0,s0,.L43
	.loc 1 347 24
	addi	a5,a5,-128
	.loc 1 350 13
	add	s0,a0,s0
	.loc 1 347 24
	bne	a0,a5,.L37
	j	.L42
	.cfi_endproc
.LFE5:
	.size	mbedtls_rsa_validate_crt, .-mbedtls_rsa_validate_crt
	.section	.text.mbedtls_rsa_validate_params,"ax",@progbits
	.align	1
	.globl	mbedtls_rsa_validate_params
	.type	mbedtls_rsa_validate_params, @function
mbedtls_rsa_validate_params:
.LFB6:
	.loc 1 367 1 is_stmt 1
	.cfi_startproc
.LVL133:
	.loc 1 368 5
	.loc 1 369 5
	.loc 1 371 5
	.loc 1 367 1 is_stmt 0
	addi	sp,sp,-64
	.cfi_def_cfa_offset 64
	sw	s1,52(sp)
	.cfi_offset 9, -12
	mv	s1,a0
	.loc 1 371 5
	addi	a0,sp,8
.LVL134:
	.loc 1 367 1
	sw	s0,56(sp)
	sw	s2,48(sp)
	sw	s3,44(sp)
	sw	s4,40(sp)
	sw	s5,36(sp)
	sw	s6,32(sp)
	sw	ra,60(sp)
	.cfi_offset 8, -8
	.cfi_offset 18, -16
	.cfi_offset 19, -20
	.cfi_offset 20, -24
	.cfi_offset 21, -28
	.cfi_offset 22, -32
	.cfi_offset 1, -4
	.loc 1 367 1
	mv	s0,a5
	mv	s2,a1
	mv	s3,a2
	mv	s4,a3
	mv	s5,a4
	mv	s6,a6
	.loc 1 371 5
	call	mbedtls_mpi_init
.LVL135:
	.loc 1 372 5 is_stmt 1
	addi	a0,sp,20
	call	mbedtls_mpi_init
.LVL136:
	.loc 1 384 5
	.loc 1 384 7 is_stmt 0
	beq	s0,zero,.L60
	.loc 1 384 22 discriminator 1
	beq	s2,zero,.L61
	.loc 1 385 17 discriminator 2
	mv	a3,s6
	mv	a2,s0
	li	a1,50
	mv	a0,s2
	call	mbedtls_mpi_is_prime_ext
.LVL137:
	.loc 1 384 35 discriminator 2
	beq	a0,zero,.L61
.LVL138:
.L64:
	.loc 1 387 13
	li	a0,-16384
	addi	s0,a0,-512
.L63:
.LVL139:
	.loc 1 471 5 is_stmt 1
	addi	a0,sp,8
	call	mbedtls_mpi_free
.LVL140:
	.loc 1 472 5
	addi	a0,sp,20
	call	mbedtls_mpi_free
.LVL141:
	.loc 1 475 5
	.loc 1 475 7 is_stmt 0
	beq	s0,zero,.L59
	.loc 1 475 18 discriminator 1
	li	a5,-16384
	addi	a5,a5,-512
	beq	s0,a5,.L59
	.loc 1 477 9 is_stmt 1
	.loc 1 477 13 is_stmt 0
	add	s0,s0,a5
.LVL142:
	.loc 1 480 5 is_stmt 1
.L59:
	.loc 1 481 1 is_stmt 0
	lw	ra,60(sp)
	.cfi_remember_state
	.cfi_restore 1
	mv	a0,s0
	lw	s0,56(sp)
	.cfi_restore 8
.LVL143:
	lw	s1,52(sp)
	.cfi_restore 9
.LVL144:
	lw	s2,48(sp)
	.cfi_restore 18
.LVL145:
	lw	s3,44(sp)
	.cfi_restore 19
.LVL146:
	lw	s4,40(sp)
	.cfi_restore 20
.LVL147:
	lw	s5,36(sp)
	.cfi_restore 21
.LVL148:
	lw	s6,32(sp)
	.cfi_restore 22
.LVL149:
	addi	sp,sp,64
	.cfi_def_cfa_offset 0
	jr	ra
.LVL150:
.L78:
	.cfi_restore_state
	.loc 1 408 9 is_stmt 1
	.loc 1 408 14
	.loc 1 408 27 is_stmt 0
	mv	a2,s3
	mv	a1,s2
	addi	a0,sp,8
	call	mbedtls_mpi_mul_mpi
.LVL151:
	mv	s0,a0
.LVL152:
	.loc 1 408 16
	bne	a0,zero,.L63
	.loc 1 408 90 is_stmt 1 discriminator 2
	.loc 1 409 9 discriminator 2
	.loc 1 409 13 is_stmt 0 discriminator 2
	li	a1,1
	mv	a0,s1
	call	mbedtls_mpi_cmp_int
.LVL153:
	.loc 1 409 11 discriminator 2
	ble	a0,zero,.L64
	.loc 1 410 13 discriminator 1
	mv	a1,s1
	addi	a0,sp,8
	call	mbedtls_mpi_cmp_mpi
.LVL154:
	.loc 1 409 46 discriminator 1
	bne	a0,zero,.L64
.LVL155:
.L66:
	.loc 1 421 18
	bne	s4,zero,.L69
.L70:
.LVL156:
	.loc 1 437 5 is_stmt 1
	.loc 1 437 7 is_stmt 0
	bne	s2,zero,.L67
.L68:
	.loc 1 461 27
	li	s0,0
	j	.L63
.LVL157:
.L69:
	.loc 1 421 31 discriminator 2
	beq	s5,zero,.L70
	.loc 1 423 9 is_stmt 1
	.loc 1 423 14 is_stmt 0
	li	a1,1
	mv	a0,s4
	call	mbedtls_mpi_cmp_int
.LVL158:
	.loc 1 423 12
	ble	a0,zero,.L64
	.loc 1 424 14 discriminator 1
	li	a1,1
	mv	a0,s5
	call	mbedtls_mpi_cmp_int
.LVL159:
	.loc 1 423 47 discriminator 1
	ble	a0,zero,.L64
	.loc 1 425 14
	mv	a1,s1
	mv	a0,s4
	call	mbedtls_mpi_cmp_mpi
.LVL160:
	.loc 1 424 47
	bge	a0,zero,.L64
	.loc 1 426 14
	mv	a1,s1
	mv	a0,s5
	call	mbedtls_mpi_cmp_mpi
.LVL161:
	.loc 1 425 47
	blt	a0,zero,.L70
	j	.L64
.LVL162:
.L60:
	.loc 1 391 5 is_stmt 1
	.loc 1 406 5
	.loc 1 406 7 is_stmt 0
	beq	s2,zero,.L92
	.loc 1 406 18 discriminator 1
	bne	s3,zero,.L71
.L92:
	.loc 1 421 5 is_stmt 1
	.loc 1 421 7 is_stmt 0
	bne	s1,zero,.L66
	j	.L68
.LVL163:
.L61:
	.loc 1 391 5 is_stmt 1
	.loc 1 391 22 is_stmt 0
	beq	s3,zero,.L92
	.loc 1 392 17
	mv	a3,s6
	mv	a2,s0
	li	a1,50
	mv	a0,s3
	call	mbedtls_mpi_is_prime_ext
.LVL164:
	.loc 1 391 35
	bne	a0,zero,.L64
.LVL165:
	.loc 1 406 5 is_stmt 1
	.loc 1 406 7 is_stmt 0
	beq	s2,zero,.L92
.L71:
.LVL166:
	.loc 1 406 31
	bne	s1,zero,.L78
.LVL167:
.L67:
	.loc 1 437 18
	beq	s3,zero,.L68
	.loc 1 437 31 discriminator 2
	beq	s4,zero,.L68
	.loc 1 437 44 discriminator 3
	beq	s5,zero,.L68
	.loc 1 439 9 is_stmt 1
	.loc 1 439 13 is_stmt 0
	li	a1,1
	mv	a0,s2
	call	mbedtls_mpi_cmp_int
.LVL168:
	.loc 1 439 11
	ble	a0,zero,.L64
	.loc 1 440 13 discriminator 1
	li	a1,1
	mv	a0,s3
	call	mbedtls_mpi_cmp_int
.LVL169:
	.loc 1 439 46 discriminator 1
	ble	a0,zero,.L64
	.loc 1 447 9 is_stmt 1
	.loc 1 447 14
	.loc 1 447 27 is_stmt 0
	mv	a2,s5
	mv	a1,s4
	addi	a0,sp,8
	call	mbedtls_mpi_mul_mpi
.LVL170:
	mv	s0,a0
.LVL171:
	.loc 1 447 16
	bne	a0,zero,.L63
	.loc 1 447 90 is_stmt 1 discriminator 2
	.loc 1 448 9 discriminator 2
	.loc 1 448 14 discriminator 2
	.loc 1 448 27 is_stmt 0 discriminator 2
	addi	a1,sp,8
	li	a2,1
	mv	a0,a1
	call	mbedtls_mpi_sub_int
.LVL172:
	mv	s0,a0
.LVL173:
	.loc 1 448 16 discriminator 2
	bne	a0,zero,.L63
	.loc 1 448 91 is_stmt 1 discriminator 2
	.loc 1 449 9 discriminator 2
	.loc 1 449 14 discriminator 2
	.loc 1 449 27 is_stmt 0 discriminator 2
	li	a2,1
	mv	a1,s2
	addi	a0,sp,20
	call	mbedtls_mpi_sub_int
.LVL174:
	mv	s0,a0
.LVL175:
	.loc 1 449 16 discriminator 2
	bne	a0,zero,.L63
	.loc 1 449 90 is_stmt 1 discriminator 2
	.loc 1 450 9 discriminator 2
	.loc 1 450 14 discriminator 2
	.loc 1 450 27 is_stmt 0 discriminator 2
	addi	a1,sp,8
	addi	a2,sp,20
	mv	a0,a1
	call	mbedtls_mpi_mod_mpi
.LVL176:
	mv	s0,a0
.LVL177:
	.loc 1 450 16 discriminator 2
	bne	a0,zero,.L63
	.loc 1 450 92 is_stmt 1 discriminator 2
	.loc 1 451 9 discriminator 2
	.loc 1 451 13 is_stmt 0 discriminator 2
	li	a1,0
	addi	a0,sp,8
	call	mbedtls_mpi_cmp_int
.LVL178:
	.loc 1 451 11 discriminator 2
	bne	a0,zero,.L64
	.loc 1 458 9 is_stmt 1
	.loc 1 458 14
	.loc 1 458 27 is_stmt 0
	mv	a2,s5
	mv	a1,s4
	addi	a0,sp,8
	call	mbedtls_mpi_mul_mpi
.LVL179:
	mv	s0,a0
.LVL180:
	.loc 1 458 16
	bne	a0,zero,.L63
	.loc 1 458 90 is_stmt 1 discriminator 2
	.loc 1 459 9 discriminator 2
	.loc 1 459 14 discriminator 2
	.loc 1 459 27 is_stmt 0 discriminator 2
	addi	a1,sp,8
	li	a2,1
	mv	a0,a1
	call	mbedtls_mpi_sub_int
.LVL181:
	mv	s0,a0
.LVL182:
	.loc 1 459 16 discriminator 2
	bne	a0,zero,.L63
	.loc 1 459 91 is_stmt 1 discriminator 2
	.loc 1 460 9 discriminator 2
	.loc 1 460 14 discriminator 2
	.loc 1 460 27 is_stmt 0 discriminator 2
	li	a2,1
	mv	a1,s3
	addi	a0,sp,20
	call	mbedtls_mpi_sub_int
.LVL183:
	mv	s0,a0
.LVL184:
	.loc 1 460 16 discriminator 2
	bne	a0,zero,.L63
	.loc 1 460 90 is_stmt 1 discriminator 2
	.loc 1 461 9 discriminator 2
	.loc 1 461 14 discriminator 2
	.loc 1 461 27 is_stmt 0 discriminator 2
	addi	a1,sp,8
	addi	a2,sp,20
	mv	a0,a1
	call	mbedtls_mpi_mod_mpi
.LVL185:
	mv	s0,a0
.LVL186:
	.loc 1 461 16 discriminator 2
	bne	a0,zero,.L63
	.loc 1 461 92 is_stmt 1 discriminator 2
	.loc 1 462 9 discriminator 2
	.loc 1 462 13 is_stmt 0 discriminator 2
	li	a1,0
	addi	a0,sp,8
	call	mbedtls_mpi_cmp_int
.LVL187:
	.loc 1 462 11 discriminator 2
	beq	a0,zero,.L68
	j	.L64
	.cfi_endproc
.LFE6:
	.size	mbedtls_rsa_validate_params, .-mbedtls_rsa_validate_params
	.section	.text.mbedtls_rsa_deduce_crt,"ax",@progbits
	.align	1
	.globl	mbedtls_rsa_deduce_crt
	.type	mbedtls_rsa_deduce_crt, @function
mbedtls_rsa_deduce_crt:
.LFB7:
	.loc 1 486 1 is_stmt 1
	.cfi_startproc
.LVL188:
	.loc 1 487 5
	.loc 1 488 5
	.loc 1 489 5
	.loc 1 486 1 is_stmt 0
	addi	sp,sp,-48
	.cfi_def_cfa_offset 48
	sw	s3,28(sp)
	sw	s6,16(sp)
	.cfi_offset 19, -20
	.cfi_offset 22, -32
	mv	s3,a0
	mv	s6,a3
	.loc 1 489 5
	addi	a0,sp,4
.LVL189:
	.loc 1 486 1
	sw	s1,36(sp)
	sw	s2,32(sp)
	sw	s4,24(sp)
	sw	s5,20(sp)
	sw	ra,44(sp)
	sw	s0,40(sp)
	.cfi_offset 9, -12
	.cfi_offset 18, -16
	.cfi_offset 20, -24
	.cfi_offset 21, -28
	.cfi_offset 1, -4
	.cfi_offset 8, -8
	.loc 1 486 1
	mv	s2,a1
	mv	s5,a2
	mv	s4,a4
	mv	s1,a5
	.loc 1 489 5
	call	mbedtls_mpi_init
.LVL190:
	.loc 1 492 5 is_stmt 1
	.loc 1 492 7 is_stmt 0
	bne	s6,zero,.L96
.LVL191:
.L100:
	.loc 1 495 91 is_stmt 1
	.loc 1 499 5
	.loc 1 499 7 is_stmt 0
	bne	s4,zero,.L97
.LVL192:
.L98:
	.loc 1 502 91 is_stmt 1
	.loc 1 506 5
	.loc 1 511 1 is_stmt 0
	li	s0,0
	.loc 1 506 7
	beq	s1,zero,.L99
	.loc 1 508 9 is_stmt 1
	.loc 1 508 14
	.loc 1 508 27 is_stmt 0
	mv	a2,s3
	mv	a1,s2
	mv	a0,s1
	call	mbedtls_mpi_inv_mod
.LVL193:
	mv	s0,a0
.LVL194:
	.loc 1 511 1
	j	.L99
.LVL195:
.L96:
	.loc 1 494 9 is_stmt 1
	.loc 1 494 14
	.loc 1 494 27 is_stmt 0
	li	a2,1
	mv	a1,s3
	addi	a0,sp,4
	call	mbedtls_mpi_sub_int
.LVL196:
	mv	s0,a0
.LVL197:
	.loc 1 494 16
	bne	a0,zero,.L99
	.loc 1 494 90 is_stmt 1 discriminator 2
	.loc 1 495 9 discriminator 2
	.loc 1 495 14 discriminator 2
	.loc 1 495 27 is_stmt 0 discriminator 2
	addi	a2,sp,4
	mv	a1,s5
	mv	a0,s6
	call	mbedtls_mpi_mod_mpi
.LVL198:
	mv	s0,a0
.LVL199:
	.loc 1 495 16 discriminator 2
	beq	a0,zero,.L100
.LVL200:
.L99:
	.loc 1 508 90 is_stmt 1 discriminator 3
	.loc 1 512 5 discriminator 3
	addi	a0,sp,4
	call	mbedtls_mpi_free
.LVL201:
	.loc 1 514 5 discriminator 3
	.loc 1 515 1 is_stmt 0 discriminator 3
	lw	ra,44(sp)
	.cfi_remember_state
	.cfi_restore 1
	mv	a0,s0
	lw	s0,40(sp)
	.cfi_restore 8
.LVL202:
	lw	s1,36(sp)
	.cfi_restore 9
.LVL203:
	lw	s2,32(sp)
	.cfi_restore 18
.LVL204:
	lw	s3,28(sp)
	.cfi_restore 19
.LVL205:
	lw	s4,24(sp)
	.cfi_restore 20
.LVL206:
	lw	s5,20(sp)
	.cfi_restore 21
.LVL207:
	lw	s6,16(sp)
	.cfi_restore 22
.LVL208:
	addi	sp,sp,48
	.cfi_def_cfa_offset 0
	jr	ra
.LVL209:
.L97:
	.cfi_restore_state
	.loc 1 501 9 is_stmt 1
	.loc 1 501 14
	.loc 1 501 27 is_stmt 0
	li	a2,1
	mv	a1,s2
	addi	a0,sp,4
	call	mbedtls_mpi_sub_int
.LVL210:
	mv	s0,a0
.LVL211:
	.loc 1 501 16
	bne	a0,zero,.L99
	.loc 1 501 90 is_stmt 1 discriminator 2
	.loc 1 502 9 discriminator 2
	.loc 1 502 14 discriminator 2
	.loc 1 502 27 is_stmt 0 discriminator 2
	addi	a2,sp,4
	mv	a1,s5
	mv	a0,s4
	call	mbedtls_mpi_mod_mpi
.LVL212:
	mv	s0,a0
.LVL213:
	.loc 1 502 16 discriminator 2
	beq	a0,zero,.L98
	j	.L99
	.cfi_endproc
.LFE7:
	.size	mbedtls_rsa_deduce_crt, .-mbedtls_rsa_deduce_crt
	.text
.Letext0:
	.file 2 "/mnt/d/GitHub/bl_iot_sdk_for_aithinker/toolchain/riscv/Linux/lib/gcc/riscv64-unknown-elf/10.2.0/include/stddef.h"
	.file 3 "/mnt/d/GitHub/bl_iot_sdk_for_aithinker/toolchain/riscv/Linux/lib/gcc/riscv64-unknown-elf/10.2.0/include/stdint-gcc.h"
	.file 4 "/mnt/d/GitHub/bl_iot_sdk_for_aithinker/components/security/mbedtls_lts/mbedtls/include/mbedtls/bignum.h"
	.file 5 "<built-in>"