	.file	"sha1.c"
	.option nopic
	.attribute arch, "rv32i2p0_m2p0_f2p0_c2p0"
	.attribute unaligned_access, 0
	.attribute stack_align, 16
	.text
.Ltext0:
	.cfi_sections	.debug_frame
	.section	.text.mbedtls_sha1_init,"ax",@progbits
	.align	1
	.globl	mbedtls_sha1_init
	.type	mbedtls_sha1_init, @function
mbedtls_sha1_init:
.LFB1:
	.file 1 "/mnt/d/GitHub/bl_iot_sdk_for_aithinker/components/security/mbedtls_lts/mbedtls/library/sha1.c"
	.loc 1 105 1
	.cfi_startproc
.LVL0:
	.loc 1 106 5
	.loc 1 106 10
	.loc 1 106 17
	.loc 1 108 5
	li	a2,92
	li	a1,0
	tail	memset
.LVL1:
	.cfi_endproc
.LFE1:
	.size	mbedtls_sha1_init, .-mbedtls_sha1_init
	.section	.text.mbedtls_sha1_free,"ax",@progbits
	.align	1
	.globl	mbedtls_sha1_free
	.type	mbedtls_sha1_free, @function
mbedtls_sha1_free:
.LFB2:
	.loc 1 112 1
	.cfi_startproc
.LVL2:
	.loc 1 113 5
	.loc 1 113 7 is_stmt 0
	beq	a0,zero,.L2
	.loc 1 116 5 is_stmt 1
	li	a1,92
	tail	mbedtls_platform_zeroize
.LVL3:
.L2:
	.loc 1 117 1 is_stmt 0
	ret
	.cfi_endproc
.LFE2:
	.size	mbedtls_sha1_free, .-mbedtls_sha1_free
	.section	.text.mbedtls_sha1_clone,"ax",@progbits
	.align	1
	.globl	mbedtls_sha1_clone
	.type	mbedtls_sha1_clone, @function
mbedtls_sha1_clone:
.LFB3:
	.loc 1 121 1 is_stmt 1
	.cfi_startproc
.LVL4:
	.loc 1 122 5
	.loc 1 122 10
	.loc 1 122 17
	.loc 1 123 5
	.loc 1 123 10
	.loc 1 123 17
	.loc 1 125 5
	.loc 1 121 1 is_stmt 0
	addi	sp,sp,-16
	.cfi_def_cfa_offset 16
	.loc 1 125 10
	li	a2,92
	.loc 1 121 1
	sw	ra,12(sp)
	.cfi_offset 1, -4
	.loc 1 125 10
	call	memcpy
.LVL5:
	.loc 1 126 1
	lw	ra,12(sp)
	.cfi_restore 1
	addi	sp,sp,16
	.cfi_def_cfa_offset 0
	jr	ra
	.cfi_endproc
.LFE3:
	.size	mbedtls_sha1_clone, .-mbedtls_sha1_clone
	.section	.text.mbedtls_sha1_starts_ret,"ax",@progbits
	.align	1
	.globl	mbedtls_sha1_starts_ret
	.type	mbedtls_sha1_starts_ret, @function
mbedtls_sha1_starts_ret:
.LFB4:
	.loc 1 132 1 is_stmt 1
	.cfi_startproc
.LVL6:
	.loc 1 133 5
	.loc 1 133 10
	.loc 1 133 17
	.loc 1 135 5
	.loc 1 138 19 is_stmt 0
	li	a5,1732583424
	addi	a5,a5,769
	sw	a5,8(a0)
	.loc 1 139 19
	li	a5,-271732736
	addi	a5,a5,-1143
	sw	a5,12(a0)
	.loc 1 140 19
	li	a5,-1732583424
	addi	a5,a5,-770
	sw	a5,16(a0)
	.loc 1 141 19
	li	a5,271732736
	addi	a5,a5,1142
	sw	a5,20(a0)
	.loc 1 142 19
	li	a5,-1009590272
	addi	a5,a5,496
	.loc 1 135 19
	sw	zero,0(a0)
	.loc 1 136 5 is_stmt 1
	.loc 1 136 19 is_stmt 0
	sw	zero,4(a0)
	.loc 1 138 5 is_stmt 1
	.loc 1 139 5
	.loc 1 140 5
	.loc 1 141 5
	.loc 1 142 5
	.loc 1 142 19 is_stmt 0
	sw	a5,24(a0)
	.loc 1 144 5 is_stmt 1
	.loc 1 145 1 is_stmt 0
	li	a0,0
.LVL7:
	ret
	.cfi_endproc
.LFE4:
	.size	mbedtls_sha1_starts_ret, .-mbedtls_sha1_starts_ret
	.section	.text.mbedtls_sha1_starts,"ax",@progbits
	.align	1
	.globl	mbedtls_sha1_starts
	.type	mbedtls_sha1_starts, @function
mbedtls_sha1_starts:
.LFB5:
	.loc 1 149 1 is_stmt 1
	.cfi_startproc
.LVL8:
	.loc 1 150 5
	tail	mbedtls_sha1_starts_ret
.LVL9:
	.cfi_endproc
.LFE5:
	.size	mbedtls_sha1_starts, .-mbedtls_sha1_starts
	.section	.text.mbedtls_internal_sha1_process,"ax",@progbits
	.align	1
	.globl	mbedtls_internal_sha1_process
	.type	mbedtls_internal_sha1_process, @function
mbedtls_internal_sha1_process:
.LFB6:
	.loc 1 157 1
	.cfi_startproc
.LVL10:
	.loc 1 158 5
	.loc 1 163 5
	.loc 1 163 10
	.loc 1 163 17
	.loc 1 164 5
	.loc 1 164 10
	.loc 1 164 17
	.loc 1 166 7
	.loc 1 157 1 is_stmt 0
	addi	sp,sp,-160
	.cfi_def_cfa_offset 160
	sw	ra,156(sp)
	sw	s0,152(sp)
	sw	s1,148(sp)
	sw	s2,144(sp)
	sw	s3,140(sp)
	sw	s4,136(sp)
	sw	s5,132(sp)
	sw	s6,128(sp)
	sw	s7,124(sp)
	sw	s8,120(sp)
	sw	s9,116(sp)
	sw	s10,112(sp)
	sw	s11,108(sp)
	.cfi_offset 1, -4
	.cfi_offset 8, -8
	.cfi_offset 9, -12
	.cfi_offset 18, -16
	.cfi_offset 19, -20
	.cfi_offset 20, -24
	.cfi_offset 21, -28
	.cfi_offset 22, -32
	.cfi_offset 23, -36
	.cfi_offset 24, -40
	.cfi_offset 25, -44
	.cfi_offset 26, -48
	.cfi_offset 27, -52
	.loc 1 166 25
	lbu	a2,0(a1)
	.loc 1 166 61
	lbu	a5,1(a1)
	.loc 1 167 25
	lbu	a3,4(a1)
	.loc 1 166 49
	slli	a2,a2,24
	.loc 1 166 88
	slli	a5,a5,16
	.loc 1 166 57
	or	a2,a2,a5
	.loc 1 166 138
	lbu	a5,3(a1)
	.loc 1 167 49
	slli	a3,a3,24
	.loc 1 168 25
	lbu	a4,8(a1)
	.loc 1 166 134
	or	a2,a2,a5
	.loc 1 166 100
	lbu	a5,2(a1)
	.loc 1 168 49
	slli	a4,a4,24
	.loc 1 169 62
	lbu	a6,13(a1)
	.loc 1 166 127
	slli	a5,a5,8
	.loc 1 166 134
	or	a2,a2,a5
	.loc 1 166 169 is_stmt 1
	.loc 1 167 7
	.loc 1 167 61 is_stmt 0
	lbu	a5,5(a1)
	.loc 1 169 90
	slli	a6,a6,16
	.loc 1 170 25
	lbu	t3,16(a1)
	.loc 1 167 88
	slli	a5,a5,16
	.loc 1 167 57
	or	a3,a3,a5
	.loc 1 167 138
	lbu	a5,7(a1)
	.loc 1 170 50
	slli	t3,t3,24
	.loc 1 167 134
	or	a3,a3,a5
	.loc 1 167 100
	lbu	a5,6(a1)
	.loc 1 167 127
	slli	a5,a5,8
	.loc 1 167 134
	or	a3,a3,a5
	.loc 1 167 169 is_stmt 1
	.loc 1 168 7
	.loc 1 168 61 is_stmt 0
	lbu	a5,9(a1)
	.loc 1 168 88
	slli	a5,a5,16
	.loc 1 168 57
	or	a4,a4,a5
	.loc 1 168 138
	lbu	a5,11(a1)
	.loc 1 168 134
	or	a4,a4,a5
	.loc 1 168 100
	lbu	a5,10(a1)
	.loc 1 168 127
	slli	a5,a5,8
	.loc 1 168 134
	or	a4,a4,a5
	.loc 1 168 169 is_stmt 1
	.loc 1 169 7
	.loc 1 169 25 is_stmt 0
	lbu	a5,12(a1)
	.loc 1 169 50
	slli	a5,a5,24
	.loc 1 169 58
	or	a5,a5,a6
	.loc 1 169 141
	lbu	a6,15(a1)
	.loc 1 169 137
	or	a5,a5,a6
	.loc 1 169 102
	lbu	a6,14(a1)
	.loc 1 169 130
	slli	a6,a6,8
	.loc 1 169 137
	or	a5,a5,a6
	.loc 1 169 173 is_stmt 1
	.loc 1 170 7
	.loc 1 170 62 is_stmt 0
	lbu	a6,17(a1)
	.loc 1 170 90
	slli	a6,a6,16
	.loc 1 170 58
	or	t3,t3,a6
	.loc 1 170 141
	lbu	a6,19(a1)
	.loc 1 170 137
	or	t3,t3,a6
	.loc 1 170 102
	lbu	a6,18(a1)
	.loc 1 171 25
	lbu	t2,20(a1)
	.loc 1 172 25
	lbu	t6,24(a1)
	.loc 1 170 130
	slli	a6,a6,8
	.loc 1 170 137
	or	t3,t3,a6
	.loc 1 170 173 is_stmt 1
	.loc 1 171 7
	.loc 1 171 62 is_stmt 0
	lbu	a6,21(a1)
	.loc 1 171 50
	slli	t2,t2,24
	.loc 1 172 50
	slli	t6,t6,24
	.loc 1 171 90
	slli	a6,a6,16
	.loc 1 171 58
	or	t2,t2,a6
	.loc 1 171 141
	lbu	a6,23(a1)
	.loc 1 173 25
	lbu	t4,28(a1)
	.loc 1 174 25
	lbu	s3,32(a1)
	.loc 1 171 137
	or	t2,t2,a6
	.loc 1 171 102
	lbu	a6,22(a1)
	.loc 1 173 50
	slli	t4,t4,24
	.loc 1 174 50
	slli	s3,s3,24
	.loc 1 171 130
	slli	a6,a6,8
	.loc 1 171 137
	or	t2,t2,a6
	.loc 1 171 173 is_stmt 1
	.loc 1 172 7
	.loc 1 172 62 is_stmt 0
	lbu	a6,25(a1)
	.loc 1 175 25
	lbu	s2,36(a1)
	.loc 1 176 25
	lbu	t0,40(a1)
	.loc 1 172 90
	slli	a6,a6,16
	.loc 1 172 58
	or	t6,t6,a6
	.loc 1 172 141
	lbu	a6,27(a1)
	.loc 1 175 50
	slli	s2,s2,24
	.loc 1 176 50
	slli	t0,t0,24
	.loc 1 172 137
	or	t6,t6,a6
	.loc 1 172 102
	lbu	a6,26(a1)
	.loc 1 177 25
	lbu	t5,44(a1)
	.loc 1 178 25
	lbu	t1,48(a1)
	.loc 1 172 130
	slli	a6,a6,8
	.loc 1 172 137
	or	t6,t6,a6
	.loc 1 172 173 is_stmt 1
	.loc 1 173 7
	.loc 1 173 62 is_stmt 0
	lbu	a6,29(a1)
	.loc 1 177 50
	slli	t5,t5,24
	.loc 1 178 50
	slli	t1,t1,24
	.loc 1 173 90
	slli	a6,a6,16
	.loc 1 173 58
	or	t4,t4,a6
	.loc 1 173 141
	lbu	a6,31(a1)
	.loc 1 173 137
	or	t4,t4,a6
	.loc 1 173 102
	lbu	a6,30(a1)
	.loc 1 173 130
	slli	a6,a6,8
	.loc 1 173 137
	or	t4,t4,a6
	.loc 1 173 173 is_stmt 1
	.loc 1 174 7
	.loc 1 174 62 is_stmt 0
	lbu	a6,33(a1)
	.loc 1 174 90
	slli	a6,a6,16
	.loc 1 174 58
	or	s3,s3,a6
	.loc 1 174 141
	lbu	a6,35(a1)
	.loc 1 174 137
	or	s3,s3,a6
	.loc 1 174 102
	lbu	a6,34(a1)
	.loc 1 174 130
	slli	a6,a6,8
	.loc 1 174 137
	or	s3,s3,a6
	.loc 1 174 173 is_stmt 1
	.loc 1 175 7
	.loc 1 175 62 is_stmt 0
	lbu	a6,37(a1)
	.loc 1 175 90
	slli	a6,a6,16
	.loc 1 175 58
	or	s2,s2,a6
	.loc 1 175 141
	lbu	a6,39(a1)
	.loc 1 175 137
	or	s2,s2,a6
	.loc 1 175 102
	lbu	a6,38(a1)
	.loc 1 175 130
	slli	a6,a6,8
	.loc 1 175 137
	or	s2,s2,a6
	.loc 1 175 173 is_stmt 1
	.loc 1 176 7
	.loc 1 176 62 is_stmt 0
	lbu	a6,41(a1)
	.loc 1 176 90
	slli	a6,a6,16
	.loc 1 176 58
	or	t0,t0,a6
	.loc 1 176 141
	lbu	a6,43(a1)
	.loc 1 176 137
	or	t0,t0,a6
	.loc 1 176 102
	lbu	a6,42(a1)
	.loc 1 176 130
	slli	a6,a6,8
	.loc 1 176 137
	or	t0,t0,a6
	.loc 1 176 173 is_stmt 1
	.loc 1 177 7
	.loc 1 177 62 is_stmt 0
	lbu	a6,45(a1)
	.loc 1 177 90
	slli	a6,a6,16
	.loc 1 177 58
	or	t5,t5,a6
	.loc 1 177 141
	lbu	a6,47(a1)
	.loc 1 177 137
	or	t5,t5,a6
	.loc 1 177 102
	lbu	a6,46(a1)
	.loc 1 177 130
	slli	a6,a6,8
	.loc 1 177 137
	or	t5,t5,a6
	.loc 1 177 173 is_stmt 1
	.loc 1 178 7
	.loc 1 178 62 is_stmt 0
	lbu	a6,49(a1)
	.loc 1 178 90
	slli	a6,a6,16
	.loc 1 178 58
	or	t1,t1,a6
	.loc 1 178 141
	lbu	a6,51(a1)
	.loc 1 178 137
	or	t1,t1,a6
	.loc 1 178 102
	lbu	a6,50(a1)
	.loc 1 179 25
	lbu	a7,52(a1)
	.loc 1 180 62
	lbu	ra,57(a1)
	.loc 1 178 130
	slli	a6,a6,8
	.loc 1 178 137
	or	t1,t1,a6
	.loc 1 178 173 is_stmt 1
	.loc 1 179 7
	.loc 1 179 62 is_stmt 0
	lbu	a6,53(a1)
	.loc 1 179 50
	slli	a7,a7,24
	.loc 1 180 90
	slli	ra,ra,16
	.loc 1 179 90
	slli	a6,a6,16
	.loc 1 179 58
	or	a7,a7,a6
	.loc 1 179 141
	lbu	a6,55(a1)
	.loc 1 181 25
	lbu	s11,60(a1)
	.loc 1 203 25
	lw	s0,16(a0)
	.loc 1 179 137
	or	a7,a7,a6
	.loc 1 179 102
	lbu	a6,54(a1)
	.loc 1 181 50
	slli	s11,s11,24
	.loc 1 202 25
	lw	s1,12(a0)
	.loc 1 179 130
	slli	a6,a6,8
	.loc 1 179 137
	or	a7,a7,a6
	.loc 1 179 173 is_stmt 1
	.loc 1 180 7
	.loc 1 180 25 is_stmt 0
	lbu	a6,56(a1)
	.loc 1 210 20
	lw	s6,24(a0)
	.loc 1 211 20
	lw	s7,20(a0)
	.loc 1 180 50
	slli	a6,a6,24
	.loc 1 180 58
	or	a6,a6,ra
	.loc 1 180 141
	lbu	ra,59(a1)
	.loc 1 180 137
	or	a6,a6,ra
	.loc 1 180 102
	lbu	ra,58(a1)
	.loc 1 180 130
	slli	ra,ra,8
	.loc 1 180 137
	or	a6,a6,ra
	.loc 1 180 173 is_stmt 1
	.loc 1 181 7
	.loc 1 181 62 is_stmt 0
	lbu	ra,61(a1)
	.loc 1 181 90
	slli	ra,ra,16
	.loc 1 181 58
	or	s11,s11,ra
	.loc 1 181 141
	lbu	ra,63(a1)
	.loc 1 181 102
	lbu	a1,62(a1)
.LVL11:
	.loc 1 181 137
	or	s11,s11,ra
	.loc 1 181 130
	slli	a1,a1,8
	.loc 1 181 137
	or	s11,s11,a1
	.loc 1 181 173 is_stmt 1
	.loc 1 201 5
	.loc 1 210 136 is_stmt 0
	lw	a1,20(a0)
	.loc 1 201 25
	lw	ra,8(a0)
	.loc 1 202 5 is_stmt 1
	.loc 1 203 5
	.loc 1 204 5
	.loc 1 205 5
	.loc 1 210 5
	.loc 1 210 10
	.loc 1 210 136 is_stmt 0
	xor	s5,s0,a1
	.loc 1 210 121
	and	s5,s5,s1
	.loc 1 210 106
	xor	s5,s5,a1
	.loc 1 210 45
	slli	s4,ra,5
	srli	a1,ra,27
	or	s4,s4,a1
	.loc 1 210 20
	li	a1,1518501888
	addi	a1,a1,-1639
	add	s6,s6,a1
	add	s4,s4,s6
	add	s5,s5,s4
	.loc 1 210 217
	slli	s6,s1,30
	srli	s4,s1,2
	or	s6,s6,s4
	.loc 1 211 136
	xor	s4,s0,s6
	.loc 1 211 121
	and	s4,s4,ra
	.loc 1 210 20
	add	s5,s5,a2
	.loc 1 210 182 is_stmt 1
	.loc 1 210 272
	.loc 1 211 5
	.loc 1 211 10
	.loc 1 211 20 is_stmt 0
	add	s7,s7,a1
	.loc 1 211 106
	xor	s4,s4,s0
	.loc 1 211 45
	srli	s8,s5,27
	.loc 1 211 20
	add	s4,s4,s7
	.loc 1 211 45
	slli	s7,s5,5
	or	s7,s7,s8
	.loc 1 211 20
	add	s4,s4,a3
	add	s4,s4,s7
	.loc 1 211 182 is_stmt 1
	.loc 1 211 217 is_stmt 0
	slli	s9,ra,30
	srli	s7,ra,2
	or	s9,s9,s7
	.loc 1 211 272 is_stmt 1
	.loc 1 212 5
	.loc 1 212 10
	.loc 1 212 136 is_stmt 0
	xor	s8,s6,s9
	.loc 1 212 20
	add	s7,s0,a1
	.loc 1 212 121
	and	s8,s8,s5
	.loc 1 212 20
	add	s7,s7,a4
	.loc 1 212 106
	xor	s8,s8,s6
	.loc 1 212 45
	srli	s10,s4,27
	.loc 1 212 20
	add	s8,s8,s7
	.loc 1 212 45
	slli	s7,s4,5
	or	s7,s7,s10
	.loc 1 212 20
	add	s8,s8,s7
	.loc 1 212 182 is_stmt 1
	.loc 1 212 217 is_stmt 0
	srli	s7,s5,2
	slli	s5,s5,30
	or	s5,s5,s7
	.loc 1 212 272 is_stmt 1
	.loc 1 213 5
	.loc 1 213 10
	.loc 1 213 136 is_stmt 0
	xor	s7,s9,s5
	.loc 1 213 121
	and	s7,s7,s4
	.loc 1 213 20
	add	s6,s6,a1
	add	s6,s6,a5
	.loc 1 213 106
	xor	s7,s7,s9
	.loc 1 213 45
	srli	s10,s8,27
	.loc 1 213 20
	add	s7,s7,s6
	.loc 1 213 45
	slli	s6,s8,5
	or	s6,s6,s10
	.loc 1 213 20
	add	s7,s7,s6
	.loc 1 213 182 is_stmt 1
	.loc 1 213 217 is_stmt 0
	srli	s6,s4,2
	slli	s4,s4,30
	or	s4,s4,s6
	.loc 1 213 272 is_stmt 1
	.loc 1 214 5
	.loc 1 214 10
	.loc 1 214 136 is_stmt 0
	xor	s6,s5,s4
	.loc 1 214 121
	and	s6,s6,s8
	.loc 1 214 20
	add	s9,s9,a1
	add	s9,s9,t3
	.loc 1 214 106
	xor	s6,s6,s5
	.loc 1 214 45
	srli	s10,s7,27
	.loc 1 214 20
	add	s6,s6,s9
	.loc 1 214 45
	slli	s9,s7,5
	or	s9,s9,s10
	.loc 1 214 20
	add	s6,s6,s9
	.loc 1 214 182 is_stmt 1
	.loc 1 214 217 is_stmt 0
	srli	s9,s8,2
	slli	s8,s8,30
	or	s8,s8,s9
	.loc 1 214 272 is_stmt 1
	.loc 1 215 5
	.loc 1 215 10
	.loc 1 215 136 is_stmt 0
	xor	s9,s4,s8
	.loc 1 215 20
	add	s10,t2,a1
	.loc 1 215 121
	and	s9,s9,s7
	.loc 1 215 20
	add	s5,s10,s5
	.loc 1 215 106
	xor	s9,s9,s4
	.loc 1 215 45
	srli	s10,s6,27
	.loc 1 215 20
	add	s9,s9,s5
	.loc 1 215 45
	slli	s5,s6,5
	or	s5,s5,s10
	.loc 1 215 20
	add	s9,s9,s5
	.loc 1 215 182 is_stmt 1
	.loc 1 215 217 is_stmt 0
	srli	s5,s7,2
	slli	s7,s7,30
	or	s7,s7,s5
	.loc 1 215 272 is_stmt 1
	.loc 1 216 5
	.loc 1 216 10
	.loc 1 216 136 is_stmt 0
	xor	s10,s8,s7
	.loc 1 216 20
	add	s5,t6,a1
	.loc 1 216 121
	and	s10,s10,s6
	.loc 1 216 106
	xor	s10,s10,s8
	.loc 1 216 20
	add	s4,s5,s4
	add	s4,s10,s4
	.loc 1 216 45
	slli	s5,s9,5
	srli	s10,s9,27
	or	s5,s5,s10
	.loc 1 216 20
	add	s4,s4,s5
	.loc 1 216 182 is_stmt 1
	.loc 1 216 217 is_stmt 0
	srli	s5,s6,2
	slli	s6,s6,30
	or	s6,s6,s5
	.loc 1 216 272 is_stmt 1
	.loc 1 217 5
	.loc 1 217 10
	.loc 1 217 136 is_stmt 0
	xor	s10,s7,s6
	.loc 1 217 20
	add	s5,t4,a1
	.loc 1 217 121
	and	s10,s10,s9
	.loc 1 217 106
	xor	s10,s10,s7
	.loc 1 217 20
	add	s8,s5,s8
	add	s8,s10,s8
	.loc 1 217 45
	slli	s5,s4,5
	srli	s10,s4,27
	or	s5,s5,s10
	.loc 1 217 20
	add	s8,s8,s5
	.loc 1 217 182 is_stmt 1
	.loc 1 217 217 is_stmt 0
	srli	s5,s9,2
	slli	s9,s9,30
	or	s9,s9,s5
	.loc 1 217 272 is_stmt 1
	.loc 1 218 5
	.loc 1 218 10
	.loc 1 218 136 is_stmt 0
	xor	s10,s6,s9
	.loc 1 218 20
	add	s5,s3,a1
	.loc 1 218 121
	and	s10,s10,s4
	.loc 1 218 20
	add	s7,s5,s7
	.loc 1 218 106
	xor	s10,s10,s6
	.loc 1 218 45
	slli	s5,s8,5
	.loc 1 218 20
	add	s10,s10,s7
	.loc 1 218 45
	srli	s7,s8,27
	or	s7,s5,s7
	.loc 1 218 217
	srli	s5,s4,2
	slli	s4,s4,30
	or	s4,s4,s5
	.loc 1 218 20
	add	s10,s10,s7
	.loc 1 218 182 is_stmt 1
	.loc 1 218 272
	.loc 1 219 5
	.loc 1 219 10
	.loc 1 219 136 is_stmt 0
	xor	s7,s9,s4
	.loc 1 219 20
	add	s5,s2,a1
	.loc 1 219 121
	and	s7,s7,s8
	.loc 1 219 20
	add	s6,s5,s6
	.loc 1 219 106
	xor	s7,s7,s9
	.loc 1 219 45
	slli	s5,s10,5
	.loc 1 219 20
	add	s7,s7,s6
	.loc 1 219 45
	srli	s6,s10,27
	or	s6,s5,s6
	.loc 1 219 217
	srli	s5,s8,2
	slli	s8,s8,30
	or	s8,s8,s5
	.loc 1 219 20
	add	s7,s7,s6
	.loc 1 219 182 is_stmt 1
	.loc 1 219 272
	.loc 1 220 5
	.loc 1 220 10
	.loc 1 220 136 is_stmt 0
	xor	s6,s4,s8
	.loc 1 220 20
	add	s5,t0,a1
	.loc 1 220 121
	and	s6,s6,s10
	.loc 1 220 20
	add	s9,s5,s9
	.loc 1 220 106
	xor	s6,s6,s4
	.loc 1 220 45
	srli	s5,s7,27
	.loc 1 220 20
	add	s6,s6,s9
	.loc 1 220 45
	slli	s9,s7,5
	or	s9,s9,s5
	.loc 1 220 218
	srli	s5,s10,2
	slli	s10,s10,30
	or	s10,s10,s5
	.loc 1 220 20
	add	s6,s6,s9
	.loc 1 220 183 is_stmt 1
	.loc 1 220 273
	.loc 1 221 5
	.loc 1 221 10
	.loc 1 221 136 is_stmt 0
	xor	s9,s8,s10
	.loc 1 221 20
	add	s5,t5,a1
	.loc 1 221 121
	and	s9,s9,s7
	.loc 1 221 106
	xor	s9,s9,s8
	.loc 1 221 20
	add	s4,s5,s4
	add	s4,s9,s4
	.loc 1 221 45
	slli	s5,s6,5
	srli	s9,s6,27
	or	s5,s5,s9
	.loc 1 221 20
	add	s4,s4,s5
	.loc 1 221 183 is_stmt 1
	.loc 1 221 218 is_stmt 0
	srli	s5,s7,2
	slli	s7,s7,30
	or	s7,s7,s5
	.loc 1 221 273 is_stmt 1
	.loc 1 222 5
	.loc 1 222 10
	.loc 1 222 136 is_stmt 0
	xor	s9,s10,s7
	.loc 1 222 20
	add	s5,t1,a1
	.loc 1 222 121
	and	s9,s9,s6
	.loc 1 222 20
	add	s8,s5,s8
	.loc 1 222 106
	xor	s9,s9,s10
	.loc 1 222 45
	srli	s5,s4,27
	.loc 1 222 20
	add	s9,s9,s8
	.loc 1 222 45
	slli	s8,s4,5
	or	s8,s8,s5
	.loc 1 222 218
	srli	s5,s6,2
	slli	s6,s6,30
	or	s6,s6,s5
	.loc 1 222 20
	add	s9,s9,s8
	.loc 1 222 183 is_stmt 1
	.loc 1 222 273
	.loc 1 223 5
	.loc 1 223 10
	.loc 1 223 136 is_stmt 0
	xor	s8,s7,s6
	.loc 1 223 20
	add	s5,a7,a1
	.loc 1 223 121
	and	s8,s8,s4
	.loc 1 223 20
	add	s10,s5,s10
	.loc 1 223 106
	xor	s8,s8,s7
	.loc 1 223 45
	srli	s5,s9,27
	.loc 1 223 20
	add	s8,s8,s10
	.loc 1 223 45
	slli	s10,s9,5
	or	s10,s10,s5
	.loc 1 223 218
	srli	s5,s4,2
	slli	s4,s4,30
	or	s4,s4,s5
	.loc 1 224 136
	xor	s5,s6,s4
	.loc 1 223 20
	add	s8,s8,s10
	.loc 1 223 183 is_stmt 1
	.loc 1 223 273
	.loc 1 224 5
	.loc 1 224 10
	.loc 1 224 121 is_stmt 0
	and	s5,s5,s9
	.loc 1 224 20
	add	s10,a6,a1
	add	s7,s10,s7
	.loc 1 224 106
	xor	s5,s5,s6
	.loc 1 224 45
	srli	s10,s8,27
	.loc 1 224 20
	add	s5,s5,s7
	.loc 1 224 45
	slli	s7,s8,5
	or	s7,s7,s10
	.loc 1 224 20
	add	s5,s5,s7
	.loc 1 224 183 is_stmt 1
	.loc 1 224 218 is_stmt 0
	srli	s7,s9,2
	slli	s9,s9,30
	or	s9,s9,s7
	.loc 1 224 273 is_stmt 1
	.loc 1 225 5
	.loc 1 225 10
	.loc 1 225 136 is_stmt 0
	xor	s7,s4,s9
	.loc 1 225 20
	add	s10,s11,a1
	.loc 1 225 121
	and	s7,s7,s8
	.loc 1 225 20
	add	s6,s10,s6
	.loc 1 225 106
	xor	s7,s7,s4
	.loc 1 225 45
	srli	s10,s5,27
	.loc 1 225 20
	add	s7,s7,s6
	.loc 1 226 276
	xor	a2,a2,a4
	.loc 1 225 45
	slli	s6,s5,5
	or	s6,s6,s10
	.loc 1 226 276
	xor	a2,a2,s3
	.loc 1 225 20
	add	s7,s7,s6
	.loc 1 225 183 is_stmt 1
	.loc 1 226 276 is_stmt 0
	xor	a2,a2,a7
	.loc 1 225 218
	srli	s6,s8,2
	slli	s8,s8,30
	or	s8,s8,s6
	.loc 1 225 273 is_stmt 1
	.loc 1 226 5
	.loc 1 226 10
	.loc 1 226 349 is_stmt 0
	slli	s6,a2,1
	srli	a2,a2,31
	or	a2,a2,s6
	.loc 1 226 136
	xor	s6,s9,s8
	.loc 1 226 20
	add	s10,a2,a1
	.loc 1 226 121
	and	s6,s6,s5
	.loc 1 226 20
	add	s4,s10,s4
	.loc 1 226 106
	xor	s6,s6,s9
	.loc 1 226 45
	srli	s10,s7,27
	.loc 1 226 20
	add	s6,s6,s4
	.loc 1 227 276
	xor	a3,a3,a5
	.loc 1 226 45
	slli	s4,s7,5
	or	s4,s4,s10
	.loc 1 227 276
	xor	a3,a3,s2
	.loc 1 226 20
	add	s6,s6,s4
	.loc 1 226 402 is_stmt 1
	.loc 1 227 276 is_stmt 0
	xor	a3,a3,a6
	.loc 1 226 437
	srli	s4,s5,2
	slli	s5,s5,30
	or	s5,s5,s4
	.loc 1 226 492 is_stmt 1
	.loc 1 227 5
	.loc 1 227 10
	.loc 1 227 349 is_stmt 0
	slli	s4,a3,1
	srli	a3,a3,31
	or	a3,a3,s4
	.loc 1 227 136
	xor	s4,s8,s5
	.loc 1 227 20
	add	s10,a3,a1
	.loc 1 227 121
	and	s4,s4,s7
	.loc 1 227 20
	add	s9,s10,s9
	.loc 1 227 106
	xor	s4,s4,s8
	.loc 1 227 45
	srli	s10,s6,27
	.loc 1 227 20
	add	s4,s4,s9
	.loc 1 228 276
	xor	a4,a4,t3
	.loc 1 227 45
	slli	s9,s6,5
	or	s9,s9,s10
	.loc 1 228 276
	xor	a4,a4,t0
	.loc 1 227 20
	add	s4,s4,s9
	.loc 1 227 402 is_stmt 1
	.loc 1 228 276 is_stmt 0
	xor	a4,a4,s11
	.loc 1 227 437
	srli	s9,s7,2
	slli	s7,s7,30
	or	s7,s7,s9
	.loc 1 227 492 is_stmt 1
	.loc 1 228 5
	.loc 1 228 10
	.loc 1 228 349 is_stmt 0
	slli	s9,a4,1
	srli	a4,a4,31
	or	a4,a4,s9
	.loc 1 228 136
	xor	s10,s5,s7
	.loc 1 228 20
	add	s9,a4,a1
	.loc 1 228 121
	and	s10,s10,s6
	.loc 1 228 20
	add	s8,s9,s8
	.loc 1 228 106
	xor	s10,s10,s5
	.loc 1 228 45
	srli	s9,s4,27
	.loc 1 228 20
	add	s10,s10,s8
	.loc 1 229 276
	xor	a5,a5,t2
	.loc 1 228 45
	slli	s8,s4,5
	or	s8,s8,s9
	.loc 1 229 276
	xor	a5,a5,t5
	.loc 1 228 20
	add	s10,s10,s8
	.loc 1 228 402 is_stmt 1
	.loc 1 229 276 is_stmt 0
	xor	a5,a5,a2
	.loc 1 228 437
	srli	s8,s6,2
	slli	s6,s6,30
	or	s6,s6,s8
	.loc 1 228 492 is_stmt 1
	.loc 1 229 5
	.loc 1 229 10
	.loc 1 229 349 is_stmt 0
	slli	s8,a5,1
	srli	a5,a5,31
	or	a5,a5,s8
	.loc 1 229 136
	xor	s8,s7,s6
	.loc 1 229 121
	and	s8,s8,s4
	.loc 1 229 20
	add	a1,a5,a1
	.loc 1 229 106
	xor	s8,s8,s7
	.loc 1 229 20
	add	a1,a1,s5
	add	a1,s8,a1
	.loc 1 229 45
	slli	s5,s10,5
	srli	s8,s10,27
	.loc 1 237 258
	xor	t3,t3,t6
	.loc 1 229 45
	or	s5,s5,s8
	.loc 1 237 258
	xor	t3,t3,t1
	.loc 1 229 20
	add	a1,a1,s5
	.loc 1 229 402 is_stmt 1
	.loc 1 237 258 is_stmt 0
	xor	t3,t3,a3
	.loc 1 229 437
	srli	s5,s4,2
	slli	s4,s4,30
	or	s4,s4,s5
	.loc 1 229 492 is_stmt 1
	.loc 1 237 5
	.loc 1 237 10
	.loc 1 237 331 is_stmt 0
	slli	s5,t3,1
	srli	t3,t3,31
	or	t3,t3,s5
	.loc 1 237 20
	li	s5,1859776512
	addi	s5,s5,-1119
	add	s8,t3,s5
	.loc 1 237 120
	xor	s9,s6,s4
	.loc 1 237 20
	add	s7,s8,s7
	.loc 1 237 120
	xor	s9,s9,s10
	.loc 1 237 45
	srli	s8,a1,27
	.loc 1 237 20
	add	s9,s9,s7
	.loc 1 238 258
	xor	t2,t2,t4
	.loc 1 237 45
	slli	s7,a1,5
	or	s7,s7,s8
	.loc 1 238 258
	xor	t2,t2,a7
	.loc 1 237 20
	add	s9,s9,s7
	.loc 1 237 384 is_stmt 1
	.loc 1 238 258 is_stmt 0
	xor	t2,t2,a4
	.loc 1 237 419
	srli	s7,s10,2
	slli	s10,s10,30
	or	s10,s10,s7
	.loc 1 237 474 is_stmt 1
	.loc 1 238 5
	.loc 1 238 10
	.loc 1 238 331 is_stmt 0
	slli	s7,t2,1
	srli	t2,t2,31
	or	t2,t2,s7
	.loc 1 238 20
	add	s7,t2,s5
	.loc 1 238 120
	xor	s8,s4,s10
	.loc 1 238 20
	add	s6,s7,s6
	.loc 1 238 120
	xor	s8,s8,a1
	.loc 1 238 45
	srli	s7,s9,27
	.loc 1 238 20
	add	s8,s8,s6
	.loc 1 239 258
	xor	t6,t6,s3
	.loc 1 238 45
	slli	s6,s9,5
	or	s6,s6,s7
	.loc 1 239 258
	xor	t6,t6,a6
	.loc 1 238 20
	add	s8,s8,s6
	.loc 1 238 384 is_stmt 1
	.loc 1 239 258 is_stmt 0
	xor	t6,t6,a5
	.loc 1 238 419
	srli	s6,a1,2
	slli	a1,a1,30
	or	a1,a1,s6
	.loc 1 238 474 is_stmt 1
	.loc 1 239 5
	.loc 1 239 10
	.loc 1 239 331 is_stmt 0
	slli	s6,t6,1
	srli	t6,t6,31
	or	t6,t6,s6
	.loc 1 239 20
	add	s6,t6,s5
	.loc 1 239 120
	xor	s7,s10,a1
	.loc 1 239 20
	add	s4,s6,s4
	.loc 1 239 120
	xor	s7,s7,s9
	.loc 1 239 45
	srli	s6,s8,27
	.loc 1 239 20
	add	s7,s7,s4
	.loc 1 240 258
	xor	t4,t4,s2
	.loc 1 239 45
	slli	s4,s8,5
	or	s4,s4,s6
	.loc 1 240 258
	xor	t4,t4,s11
	.loc 1 239 20
	add	s7,s7,s4
	.loc 1 239 384 is_stmt 1
	.loc 1 240 258 is_stmt 0
	xor	t4,t4,t3
	.loc 1 239 419
	srli	s4,s9,2
	slli	s9,s9,30
	or	s9,s9,s4
	.loc 1 239 474 is_stmt 1
	.loc 1 240 5
	.loc 1 240 10
	.loc 1 240 331 is_stmt 0
	slli	s4,t4,1
	srli	t4,t4,31
	or	t4,t4,s4
	.loc 1 240 20
	add	s4,t4,s5
	.loc 1 240 120
	xor	s6,a1,s9
	.loc 1 240 20
	add	s10,s4,s10
	.loc 1 240 120
	xor	s6,s6,s8
	.loc 1 240 20
	add	s6,s6,s10
	.loc 1 240 45
	slli	s4,s7,5
	srli	s10,s7,27
	.loc 1 241 258
	xor	s3,s3,t0
	.loc 1 240 45
	or	s4,s4,s10
	.loc 1 241 258
	xor	s3,s3,a2
	.loc 1 240 20
	add	s6,s6,s4
	.loc 1 240 384 is_stmt 1
	.loc 1 241 258 is_stmt 0
	xor	s3,s3,t2
	.loc 1 240 419
	srli	s4,s8,2
	slli	s8,s8,30
	or	s8,s8,s4
	.loc 1 240 474 is_stmt 1
	.loc 1 241 5
	.loc 1 241 10
	.loc 1 241 331 is_stmt 0
	slli	s4,s3,1
	srli	s3,s3,31
	or	s3,s3,s4
	.loc 1 241 20
	add	s4,s3,s5
	.loc 1 241 120
	xor	s10,s9,s8
	xor	s10,s10,s7
	.loc 1 241 20
	add	a1,s4,a1
	add	a1,s10,a1
	.loc 1 241 45
	slli	s4,s6,5
	srli	s10,s6,27
	.loc 1 242 258
	xor	s2,s2,t5
	.loc 1 241 45
	or	s4,s4,s10
	.loc 1 242 258
	xor	s2,s2,a3
	.loc 1 241 20
	add	a1,a1,s4
	.loc 1 241 384 is_stmt 1
	.loc 1 242 258 is_stmt 0
	xor	s2,s2,t6
	.loc 1 241 419
	srli	s4,s7,2
	slli	s7,s7,30
	or	s7,s7,s4
	.loc 1 241 474 is_stmt 1
	.loc 1 242 5
	.loc 1 242 10
	.loc 1 242 331 is_stmt 0
	slli	s4,s2,1
	srli	s2,s2,31
	or	s2,s2,s4
	.loc 1 242 20
	add	s10,s2,s5
	.loc 1 242 120
	xor	s4,s8,s7
	.loc 1 242 20
	add	s9,s10,s9
	.loc 1 242 120
	xor	s4,s4,s6
	.loc 1 242 45
	srli	s10,a1,27
	.loc 1 242 20
	add	s4,s4,s9
	.loc 1 243 258
	xor	t0,t0,t1
	.loc 1 242 45
	slli	s9,a1,5
	or	s9,s9,s10
	.loc 1 243 258
	xor	t0,t0,a4
	.loc 1 242 20
	add	s4,s4,s9
	.loc 1 242 384 is_stmt 1
	.loc 1 243 258 is_stmt 0
	xor	t0,t0,t4
	.loc 1 242 419
	srli	s9,s6,2
	slli	s6,s6,30
	or	s6,s6,s9
	.loc 1 242 474 is_stmt 1
	.loc 1 243 5
	.loc 1 243 10
	.loc 1 243 331 is_stmt 0
	slli	s9,t0,1
	srli	t0,t0,31
	or	t0,t0,s9
	.loc 1 243 20
	add	s9,t0,s5
	.loc 1 243 120
	xor	s10,s7,s6
	.loc 1 243 20
	add	s8,s9,s8
	.loc 1 243 120
	xor	s10,s10,a1
	.loc 1 243 45
	srli	s9,s4,27
	.loc 1 243 20
	add	s10,s10,s8
	.loc 1 244 258
	xor	t5,t5,a7
	.loc 1 243 45
	slli	s8,s4,5
	or	s8,s8,s9
	.loc 1 244 258
	xor	t5,t5,a5
	.loc 1 243 20
	add	s10,s10,s8
	.loc 1 243 384 is_stmt 1
	.loc 1 244 258 is_stmt 0
	xor	t5,t5,s3
	.loc 1 243 419
	srli	s8,a1,2
	slli	a1,a1,30
	or	a1,a1,s8
	.loc 1 243 474 is_stmt 1
	.loc 1 244 5
	.loc 1 244 10
	.loc 1 244 331 is_stmt 0
	slli	s8,t5,1
	srli	t5,t5,31
	or	t5,t5,s8
	.loc 1 244 20
	add	s9,t5,s5
	.loc 1 244 120
	xor	s8,s6,a1
	.loc 1 244 20
	add	s7,s9,s7
	.loc 1 244 120
	xor	s8,s8,s4
	.loc 1 244 45
	srli	s9,s10,27
	.loc 1 244 20
	add	s8,s8,s7
	.loc 1 245 258
	xor	t1,t1,a6
	.loc 1 244 45
	slli	s7,s10,5
	or	s7,s7,s9
	.loc 1 245 258
	xor	t1,t1,t3
	.loc 1 244 20
	add	s8,s8,s7
	.loc 1 244 384 is_stmt 1
	.loc 1 245 258 is_stmt 0
	xor	t1,t1,s2
	.loc 1 244 419
	srli	s7,s4,2
	slli	s4,s4,30
	or	s4,s4,s7
	.loc 1 244 474 is_stmt 1
	.loc 1 245 5
	.loc 1 245 10
	.loc 1 245 331 is_stmt 0
	slli	s7,t1,1
	srli	t1,t1,31
	or	t1,t1,s7
	.loc 1 245 20
	add	s7,t1,s5
	.loc 1 245 120
	xor	s9,a1,s4
	.loc 1 245 20
	add	s6,s7,s6
	.loc 1 245 120
	xor	s9,s9,s10
	.loc 1 245 45
	srli	s7,s8,27
	.loc 1 245 20
	add	s9,s9,s6
	.loc 1 246 258
	xor	a7,a7,s11
	.loc 1 245 45
	slli	s6,s8,5
	or	s6,s6,s7
	.loc 1 246 258
	xor	a7,a7,t2
	.loc 1 245 20
	add	s9,s9,s6
	.loc 1 245 384 is_stmt 1
	.loc 1 246 258 is_stmt 0
	xor	a7,a7,t0
	.loc 1 245 419
	srli	s6,s10,2
	slli	s10,s10,30
	or	s10,s10,s6
	.loc 1 245 474 is_stmt 1
	.loc 1 246 5
	.loc 1 246 10
	.loc 1 246 331 is_stmt 0
	slli	s6,a7,1
	srli	a7,a7,31
	or	a7,a7,s6
	.loc 1 246 20
	add	s6,a7,s5
	.loc 1 246 120
	xor	s7,s4,s10
	.loc 1 246 20
	add	a1,s6,a1
	.loc 1 246 120
	xor	s7,s7,s8
	.loc 1 246 45
	srli	s6,s9,27
	.loc 1 246 20
	add	s7,s7,a1
	.loc 1 247 258
	xor	a6,a6,a2
	.loc 1 246 45
	slli	a1,s9,5
	or	a1,a1,s6
	.loc 1 247 258
	xor	a6,a6,t6
	.loc 1 246 20
	add	s7,s7,a1
	.loc 1 246 384 is_stmt 1
	.loc 1 247 258 is_stmt 0
	xor	a6,a6,t5
	.loc 1 246 419
	srli	a1,s8,2
	slli	s8,s8,30
	or	s8,s8,a1
	.loc 1 246 474 is_stmt 1
	.loc 1 247 5
	.loc 1 247 10
	.loc 1 247 331 is_stmt 0
	slli	a1,a6,1
	srli	a6,a6,31
	or	a6,a6,a1
	.loc 1 247 20
	add	a1,a6,s5
	.loc 1 247 120
	xor	s6,s10,s8
	.loc 1 247 20
	add	s4,a1,s4
	.loc 1 247 120
	xor	s6,s6,s9
	.loc 1 248 258
	xor	s11,s11,a3
	.loc 1 247 20
	add	s6,s6,s4
	.loc 1 247 45
	slli	a1,s7,5
	srli	s4,s7,27
	.loc 1 248 258
	xor	s11,s11,t4
	.loc 1 247 45
	or	a1,a1,s4
	.loc 1 248 258
	xor	s11,s11,t1
	.loc 1 247 20
	add	s6,s6,a1
	.loc 1 247 384 is_stmt 1
	.loc 1 248 331 is_stmt 0
	slli	s4,s11,1
	.loc 1 247 419
	srli	a1,s9,2
	.loc 1 248 331
	srli	s11,s11,31
	.loc 1 247 419
	slli	s9,s9,30
	.loc 1 248 331
	or	s11,s11,s4
	.loc 1 247 419
	or	s9,s9,a1
	.loc 1 247 474 is_stmt 1
	.loc 1 248 5
	.loc 1 248 10
	.loc 1 248 120 is_stmt 0
	xor	s4,s8,s9
	.loc 1 248 20
	add	a1,s11,s5
	add	s10,a1,s10
	.loc 1 248 120
	xor	s4,s4,s7
	.loc 1 248 20
	add	s4,s4,s10
	.loc 1 248 45
	slli	a1,s6,5
	srli	s10,s6,27
	.loc 1 249 258
	xor	a2,a2,a4
	.loc 1 248 45
	or	a1,a1,s10
	.loc 1 249 258
	xor	a2,a2,s3
	.loc 1 248 20
	add	s4,s4,a1
	.loc 1 248 384 is_stmt 1
	.loc 1 249 258 is_stmt 0
	xor	a2,a2,a7
	.loc 1 248 419
	srli	a1,s7,2
	slli	s7,s7,30
	or	s7,s7,a1
	.loc 1 248 474 is_stmt 1
	.loc 1 249 5
	.loc 1 249 10
	.loc 1 249 331 is_stmt 0
	slli	a1,a2,1
	srli	a2,a2,31
	or	a2,a2,a1
	.loc 1 249 20
	add	s10,a2,s5
	.loc 1 249 120
	xor	a1,s9,s7
	.loc 1 249 20
	add	s8,s10,s8
	.loc 1 249 120
	xor	a1,a1,s6
	.loc 1 249 45
	srli	s10,s4,27
	.loc 1 249 20
	add	a1,a1,s8
	.loc 1 250 258
	xor	a3,a3,a5
	.loc 1 249 45
	slli	s8,s4,5
	or	s8,s8,s10
	.loc 1 250 258
	xor	a3,a3,s2
	.loc 1 249 20
	add	a1,a1,s8
	.loc 1 249 384 is_stmt 1
	.loc 1 250 258 is_stmt 0
	xor	a3,a3,a6
	.loc 1 249 419
	srli	s8,s6,2
	slli	s6,s6,30
	or	s6,s6,s8
	.loc 1 249 474 is_stmt 1
	.loc 1 250 5
	.loc 1 250 10
	.loc 1 250 331 is_stmt 0
	slli	s8,a3,1
	srli	a3,a3,31
	or	a3,a3,s8
	.loc 1 250 20
	add	s10,a3,s5
	.loc 1 250 120
	xor	s8,s7,s6
	.loc 1 250 20
	add	s9,s10,s9
	.loc 1 250 120
	xor	s8,s8,s4
	.loc 1 250 45
	srli	s10,a1,27
	.loc 1 250 20
	add	s8,s8,s9
	.loc 1 251 258
	xor	a4,a4,t3
	.loc 1 250 45
	slli	s9,a1,5
	or	s9,s9,s10
	.loc 1 251 258
	xor	a4,a4,t0
	.loc 1 250 20
	add	s8,s8,s9
	.loc 1 250 384 is_stmt 1
	.loc 1 251 258 is_stmt 0
	xor	a4,a4,s11
	.loc 1 250 419
	srli	s9,s4,2
	slli	s4,s4,30
	or	s4,s4,s9
	.loc 1 250 474 is_stmt 1
	.loc 1 251 5
	.loc 1 251 10
	.loc 1 251 331 is_stmt 0
	slli	s9,a4,1
	srli	a4,a4,31
	or	a4,a4,s9
	.loc 1 251 20
	add	s9,a4,s5
	.loc 1 251 120
	xor	s10,s6,s4
	.loc 1 251 20
	add	s7,s9,s7
	.loc 1 251 120
	xor	s10,s10,a1
	.loc 1 251 45
	srli	s9,s8,27
	.loc 1 251 20
	add	s10,s10,s7
	.loc 1 252 258
	xor	a5,a5,t2
	.loc 1 251 45
	slli	s7,s8,5
	or	s7,s7,s9
	.loc 1 252 258
	xor	a5,a5,t5
	.loc 1 251 20
	add	s10,s10,s7
	.loc 1 251 384 is_stmt 1
	.loc 1 252 258 is_stmt 0
	xor	a5,a5,a2
	.loc 1 251 419
	srli	s7,a1,2
	slli	a1,a1,30
	or	a1,a1,s7
	.loc 1 251 474 is_stmt 1
	.loc 1 252 5
	.loc 1 252 10
	.loc 1 252 331 is_stmt 0
	slli	s7,a5,1
	srli	a5,a5,31
	or	a5,a5,s7
	.loc 1 252 20
	add	s9,a5,s5
	.loc 1 252 120
	xor	s7,s4,a1
	.loc 1 252 20
	add	s6,s9,s6
	.loc 1 252 120
	xor	s7,s7,s8
	.loc 1 252 45
	srli	s9,s10,27
	.loc 1 252 20
	add	s7,s7,s6
	.loc 1 253 258
	xor	t3,t3,t6
	.loc 1 252 45
	slli	s6,s10,5
	or	s6,s6,s9
	.loc 1 253 258
	xor	t3,t3,t1
	.loc 1 252 20
	add	s7,s7,s6
	.loc 1 252 384 is_stmt 1
	.loc 1 253 258 is_stmt 0
	xor	t3,t3,a3
	.loc 1 252 419
	srli	s6,s8,2
	slli	s8,s8,30
	or	s8,s8,s6
	.loc 1 252 474 is_stmt 1
	.loc 1 253 5
	.loc 1 253 10
	.loc 1 253 331 is_stmt 0
	slli	s6,t3,1
	srli	t3,t3,31
	or	t3,t3,s6
	.loc 1 253 20
	add	s6,t3,s5
	.loc 1 253 120
	xor	s9,a1,s8
	.loc 1 253 20
	add	s4,s6,s4
	.loc 1 253 120
	xor	s9,s9,s10
	.loc 1 253 45
	srli	s6,s7,27
	.loc 1 253 20
	add	s9,s9,s4
	.loc 1 254 258
	xor	t2,t2,t4
	.loc 1 253 45
	slli	s4,s7,5
	or	s4,s4,s6
	.loc 1 254 258
	xor	t2,t2,a7
	.loc 1 253 20
	add	s9,s9,s4
	.loc 1 253 384 is_stmt 1
	.loc 1 254 258 is_stmt 0
	xor	t2,t2,a4
	.loc 1 253 419
	srli	s4,s10,2
	slli	s10,s10,30
	or	s10,s10,s4
	.loc 1 253 474 is_stmt 1
	.loc 1 254 5
	.loc 1 254 10
	.loc 1 254 331 is_stmt 0
	slli	s4,t2,1
	srli	t2,t2,31
	or	t2,t2,s4
	.loc 1 254 20
	add	s4,t2,s5
	.loc 1 254 120
	xor	s6,s8,s10
	.loc 1 254 20
	add	a1,s4,a1
	.loc 1 254 120
	xor	s6,s6,s7
	.loc 1 254 45
	srli	s4,s9,27
	.loc 1 254 20
	add	s6,s6,a1
	.loc 1 255 258
	xor	t6,t6,s3
	.loc 1 254 45
	slli	a1,s9,5
	or	a1,a1,s4
	.loc 1 255 258
	xor	t6,t6,a6
	.loc 1 254 20
	add	s6,s6,a1
	.loc 1 254 384 is_stmt 1
	.loc 1 255 258 is_stmt 0
	xor	t6,t6,a5
	.loc 1 254 419
	srli	a1,s7,2
	slli	s7,s7,30
	or	s7,s7,a1
	.loc 1 254 474 is_stmt 1
	.loc 1 255 5
	.loc 1 255 10
	.loc 1 255 331 is_stmt 0
	slli	a1,t6,1
	srli	t6,t6,31
	or	t6,t6,a1
	.loc 1 255 20
	add	a1,t6,s5
	.loc 1 255 120
	xor	s4,s10,s7
	.loc 1 255 20
	add	s8,a1,s8
	.loc 1 255 120
	xor	s4,s4,s9
	.loc 1 255 20
	add	s4,s4,s8
	.loc 1 255 45
	slli	a1,s6,5
	srli	s8,s6,27
	.loc 1 256 258
	xor	t4,t4,s2
	.loc 1 255 45
	or	a1,a1,s8
	.loc 1 256 258
	xor	t4,t4,s11
	.loc 1 255 20
	add	s4,s4,a1
	.loc 1 255 384 is_stmt 1
	.loc 1 256 258 is_stmt 0
	xor	t4,t4,t3
	.loc 1 255 419
	srli	a1,s9,2
	slli	s9,s9,30
	or	s9,s9,a1
	.loc 1 255 474 is_stmt 1
	.loc 1 256 5
	.loc 1 256 10
	.loc 1 256 331 is_stmt 0
	slli	a1,t4,1
	srli	t4,t4,31
	or	t4,t4,a1
	.loc 1 256 20
	add	s5,t4,s5
	.loc 1 256 120
	xor	a1,s7,s9
	xor	s8,a1,s6
	.loc 1 256 20
	add	a1,s5,s10
	add	a1,s8,a1
	.loc 1 256 45
	slli	s5,s4,5
	srli	s8,s4,27
	.loc 1 264 292
	xor	s3,s3,t0
	.loc 1 256 45
	or	s5,s5,s8
	.loc 1 264 292
	xor	s3,s3,a2
	.loc 1 256 20
	add	a1,a1,s5
	.loc 1 256 384 is_stmt 1
	.loc 1 264 292 is_stmt 0
	xor	s3,s3,t2
	.loc 1 256 419
	srli	s5,s6,2
	slli	s6,s6,30
	or	s6,s6,s5
	.loc 1 256 474 is_stmt 1
	.loc 1 264 5
	.loc 1 264 10
	.loc 1 264 365 is_stmt 0
	slli	s5,s3,1
	srli	s3,s3,31
	or	s3,s3,s5
	.loc 1 264 20
	li	s5,-1894006784
	addi	s5,s5,-804
	add	s8,s3,s5
	.loc 1 264 45
	srli	s10,a1,27
	.loc 1 264 20
	add	s7,s8,s7
	.loc 1 264 45
	slli	s8,a1,5
	or	s8,s8,s10
	.loc 1 264 20
	add	s7,s7,s8
	.loc 1 264 152
	or	s8,s4,s6
	.loc 1 264 107
	and	s10,s4,s6
	.loc 1 264 137
	and	s8,s8,s9
	.loc 1 265 292
	xor	s2,s2,t5
	.loc 1 264 122
	or	s8,s8,s10
	.loc 1 265 292
	xor	s2,s2,a3
	.loc 1 264 20
	add	s7,s7,s8
	.loc 1 264 418 is_stmt 1
	.loc 1 265 292 is_stmt 0
	xor	s2,s2,t6
	.loc 1 264 453
	srli	s8,s4,2
	slli	s4,s4,30
	or	s4,s4,s8
	.loc 1 264 508 is_stmt 1
	.loc 1 265 5
	.loc 1 265 10
	.loc 1 265 365 is_stmt 0
	slli	s8,s2,1
	srli	s2,s2,31
	or	s2,s2,s8
	.loc 1 265 152
	or	s8,a1,s4
	.loc 1 265 137
	and	s10,s8,s6
	.loc 1 265 107
	and	s8,a1,s4
	.loc 1 265 122
	or	s8,s10,s8
	.loc 1 265 20
	add	s10,s2,s5
	add	s9,s10,s9
	add	s8,s8,s9
	.loc 1 265 45
	srli	s10,s7,27
	slli	s9,s7,5
	.loc 1 266 292
	xor	t0,t0,t1
	.loc 1 265 45
	or	s9,s9,s10
	.loc 1 266 292
	xor	t0,t0,a4
	.loc 1 265 20
	add	s8,s8,s9
	.loc 1 265 418 is_stmt 1
	.loc 1 266 292 is_stmt 0
	xor	t0,t0,t4
	.loc 1 265 453
	srli	s9,a1,2
	slli	a1,a1,30
	or	a1,a1,s9
	.loc 1 265 508 is_stmt 1
	.loc 1 266 5
	.loc 1 266 10
	.loc 1 266 365 is_stmt 0
	slli	s9,t0,1
	srli	t0,t0,31
	or	t0,t0,s9
	.loc 1 266 20
	add	s9,t0,s5
	.loc 1 266 45
	srli	s10,s8,27
	.loc 1 266 20
	add	s6,s9,s6
	.loc 1 266 45
	slli	s9,s8,5
	or	s9,s9,s10
	.loc 1 266 20
	add	s6,s6,s9
	.loc 1 266 152
	or	s9,s7,a1
	.loc 1 266 107
	and	s10,s7,a1
	.loc 1 266 137
	and	s9,s9,s4
	.loc 1 266 122
	or	s9,s9,s10
	.loc 1 267 292
	xor	t5,t5,a7
	.loc 1 266 20
	add	s6,s6,s9
	.loc 1 266 418 is_stmt 1
	.loc 1 267 292 is_stmt 0
	xor	t5,t5,a5
	.loc 1 266 453
	srli	s9,s7,2
	slli	s7,s7,30
	or	s7,s7,s9
	.loc 1 266 508 is_stmt 1
	.loc 1 267 5
	.loc 1 267 10
	.loc 1 267 292 is_stmt 0
	xor	t5,t5,s3
	.loc 1 267 152
	or	s10,s8,s7
	.loc 1 267 365
	slli	s9,t5,1
	srli	t5,t5,31
	or	t5,t5,s9
	.loc 1 267 137
	and	s9,s10,a1
	.loc 1 267 107
	and	s10,s8,s7
	.loc 1 267 122
	or	s10,s9,s10
	.loc 1 267 20
	add	s9,t5,s5
	add	s4,s9,s4
	add	s10,s10,s4
	.loc 1 267 45
	srli	s9,s6,27
	slli	s4,s6,5
	.loc 1 268 292
	xor	t1,t1,a6
	.loc 1 267 45
	or	s4,s4,s9
	.loc 1 268 292
	xor	t1,t1,t3
	.loc 1 267 20
	add	s10,s10,s4
	.loc 1 267 418 is_stmt 1
	.loc 1 268 292 is_stmt 0
	xor	t1,t1,s2
	.loc 1 267 453
	srli	s4,s8,2
	slli	s8,s8,30
	or	s8,s8,s4
	.loc 1 267 508 is_stmt 1
	.loc 1 268 5
	.loc 1 268 10
	.loc 1 268 365 is_stmt 0
	slli	s4,t1,1
	srli	t1,t1,31
	or	t1,t1,s4
	.loc 1 268 20
	add	s4,t1,s5
	add	a1,s4,a1
	.loc 1 268 45
	slli	s9,s10,5
	srli	s4,s10,27
	or	s4,s9,s4
	.loc 1 268 152
	or	s9,s6,s8
	.loc 1 268 137
	and	s9,s9,s7
	.loc 1 268 20
	add	s4,a1,s4
	.loc 1 268 107
	and	a1,s6,s8
	.loc 1 268 122
	or	a1,s9,a1
	.loc 1 269 292
	xor	a7,a7,s11
	.loc 1 268 20
	add	s4,s4,a1
	.loc 1 268 418 is_stmt 1
	.loc 1 269 292 is_stmt 0
	xor	a7,a7,t2
	.loc 1 268 453
	srli	a1,s6,2
	slli	s6,s6,30
	or	s6,s6,a1
	.loc 1 268 508 is_stmt 1
	.loc 1 269 5
	.loc 1 269 10
	.loc 1 269 292 is_stmt 0
	xor	a7,a7,t0
	.loc 1 269 152
	or	s9,s10,s6
	.loc 1 269 365
	slli	a1,a7,1
	srli	a7,a7,31
	or	a7,a7,a1
	.loc 1 269 137
	and	a1,s9,s8
	.loc 1 269 107
	and	s9,s10,s6
	.loc 1 269 122
	or	s9,a1,s9
	.loc 1 269 20
	add	a1,a7,s5
	add	s7,a1,s7
	add	s9,s9,s7
	.loc 1 269 45
	slli	a1,s4,5
	srli	s7,s4,27
	.loc 1 270 292
	xor	a6,a6,a2
	.loc 1 269 45
	or	a1,a1,s7
	.loc 1 270 292
	xor	a6,a6,t6
	.loc 1 269 20
	add	s9,s9,a1
	.loc 1 269 418 is_stmt 1
	.loc 1 270 292 is_stmt 0
	xor	a6,a6,t5
	.loc 1 269 453
	srli	a1,s10,2
	slli	s10,s10,30
	or	s10,s10,a1
	.loc 1 269 508 is_stmt 1
	.loc 1 270 5
	.loc 1 270 10
	.loc 1 270 365 is_stmt 0
	slli	a1,a6,1
	srli	a6,a6,31
	or	a6,a6,a1
	.loc 1 270 20
	add	a1,a6,s5
	.loc 1 270 45
	srli	s7,s9,27
	.loc 1 270 20
	add	s8,a1,s8
	.loc 1 270 45
	slli	a1,s9,5
	or	a1,a1,s7
	.loc 1 270 20
	add	s8,s8,a1
	.loc 1 270 152
	or	a1,s4,s10
	.loc 1 270 107
	and	s7,s4,s10
	.loc 1 270 137
	and	a1,a1,s6
	.loc 1 270 122
	or	a1,a1,s7
	.loc 1 270 20
	add	s8,s8,a1
	.loc 1 270 418 is_stmt 1
	.loc 1 270 453 is_stmt 0
	srli	a1,s4,2
	slli	s4,s4,30
	or	s4,s4,a1
	.loc 1 270 508 is_stmt 1
	.loc 1 271 5
	.loc 1 271 10
	.loc 1 271 292 is_stmt 0
	xor	a1,s11,a3
	xor	a1,a1,t4
	xor	a1,a1,t1
	.loc 1 271 365
	slli	s7,a1,1
	srli	a1,a1,31
	or	a1,a1,s7
	.loc 1 271 152
	or	s7,s9,s4
	.loc 1 271 137
	and	s11,s7,s10
	.loc 1 271 107
	and	s7,s9,s4
	.loc 1 271 122
	or	s7,s11,s7
	.loc 1 271 20
	add	s11,a1,s5
	add	s6,s11,s6
	add	s7,s7,s6
	.loc 1 271 45
	srli	s11,s8,27
	slli	s6,s8,5
	.loc 1 272 292
	xor	a2,a2,a4
	.loc 1 271 45
	or	s6,s6,s11
	.loc 1 272 292
	xor	a2,a2,s3
	.loc 1 271 20
	add	s7,s7,s6
	.loc 1 271 418 is_stmt 1
	.loc 1 272 292 is_stmt 0
	xor	a2,a2,a7
	.loc 1 271 453
	srli	s6,s9,2
	slli	s9,s9,30
	or	s9,s9,s6
	.loc 1 271 508 is_stmt 1
	.loc 1 272 5
	.loc 1 272 10
	.loc 1 272 365 is_stmt 0
	slli	s6,a2,1
	srli	a2,a2,31
	or	a2,a2,s6
	.loc 1 272 20
	add	s6,a2,s5
	.loc 1 272 45
	srli	s11,s7,27
	.loc 1 272 20
	add	s10,s6,s10
	.loc 1 272 45
	slli	s6,s7,5
	or	s6,s6,s11
	.loc 1 272 20
	add	s10,s10,s6
	.loc 1 272 152
	or	s6,s8,s9
	.loc 1 272 107
	and	s11,s8,s9
	.loc 1 272 137
	and	s6,s6,s4
	.loc 1 273 292
	xor	a3,a3,a5
	.loc 1 272 122
	or	s6,s6,s11
	.loc 1 273 292
	xor	a3,a3,s2
	.loc 1 272 20
	add	s10,s10,s6
	.loc 1 272 418 is_stmt 1
	.loc 1 273 292 is_stmt 0
	xor	a3,a3,a6
	.loc 1 272 453
	srli	s6,s8,2
	slli	s8,s8,30
	or	s8,s8,s6
	.loc 1 272 508 is_stmt 1
	.loc 1 273 5
	.loc 1 273 10
	.loc 1 273 365 is_stmt 0
	slli	s6,a3,1
	srli	a3,a3,31
	or	a3,a3,s6
	.loc 1 273 152
	or	s6,s7,s8
	.loc 1 273 137
	and	s11,s6,s9
	.loc 1 273 107
	and	s6,s7,s8
	.loc 1 273 122
	or	s6,s11,s6
	.loc 1 273 20
	add	s11,a3,s5
	add	s4,s11,s4
	add	s6,s6,s4
	.loc 1 273 45
	srli	s11,s10,27
	slli	s4,s10,5
	or	s4,s4,s11
	.loc 1 273 20
	add	s6,s6,s4
	.loc 1 273 418 is_stmt 1
	.loc 1 273 453 is_stmt 0
	srli	s4,s7,2
	slli	s7,s7,30
	or	s7,s7,s4
	.loc 1 273 508 is_stmt 1
	.loc 1 274 5
	.loc 1 274 10
	.loc 1 274 292 is_stmt 0
	xor	s4,a4,t3
	xor	s4,s4,t0
	xor	s4,s4,a1
	.loc 1 274 365
	slli	s11,s4,1
	srli	s4,s4,31
	or	s4,s4,s11
	.loc 1 274 20
	add	a4,s4,s5
	.loc 1 274 45
	srli	s11,s6,27
	.loc 1 274 20
	add	s9,a4,s9
	.loc 1 274 45
	slli	a4,s6,5
	or	a4,a4,s11
	.loc 1 274 20
	add	s9,s9,a4
	.loc 1 274 152
	or	a4,s10,s7
	.loc 1 274 107
	and	s11,s10,s7
	.loc 1 274 137
	and	a4,a4,s8
	.loc 1 274 122
	or	a4,a4,s11
	.loc 1 275 292
	xor	a5,a5,t2
	.loc 1 274 20
	add	s9,s9,a4
	.loc 1 274 418 is_stmt 1
	.loc 1 275 292 is_stmt 0
	xor	a5,a5,t5
	.loc 1 274 453
	srli	a4,s10,2
	slli	s10,s10,30
	or	s10,s10,a4
	.loc 1 274 508 is_stmt 1
	.loc 1 275 5
	.loc 1 275 10
	.loc 1 275 292 is_stmt 0
	xor	a5,a5,a2
	.loc 1 275 152
	or	s11,s6,s10
	.loc 1 275 365
	slli	a4,a5,1
	srli	a5,a5,31
	or	a5,a5,a4
	.loc 1 275 137
	and	a4,s11,s7
	.loc 1 275 107
	and	s11,s6,s10
	.loc 1 275 122
	or	s11,a4,s11
	.loc 1 275 20
	add	a4,a5,s5
	add	s8,a4,s8
	add	s8,s11,s8
	.loc 1 275 45
	slli	a4,s9,5
	srli	s11,s9,27
	or	a4,a4,s11
	.loc 1 275 20
	add	s8,s8,a4
	.loc 1 275 418 is_stmt 1
	.loc 1 275 453 is_stmt 0
	srli	a4,s6,2
	slli	s6,s6,30
	or	s6,s6,a4
	.loc 1 275 508 is_stmt 1
	.loc 1 276 5
	.loc 1 276 10
	.loc 1 276 292 is_stmt 0
	xor	a4,t3,t6
	xor	a4,a4,t1
	xor	a4,a4,a3
	.loc 1 276 365
	slli	s11,a4,1
	srli	a4,a4,31
	or	a4,a4,s11
	.loc 1 276 20
	add	t3,a4,s5
	.loc 1 276 45
	srli	s11,s8,27
	.loc 1 276 20
	add	s7,t3,s7
	.loc 1 276 45
	slli	t3,s8,5
	or	t3,t3,s11
	.loc 1 276 20
	add	s7,s7,t3
	.loc 1 276 152
	or	t3,s9,s6
	.loc 1 276 107
	and	s11,s9,s6
	.loc 1 276 137
	and	t3,t3,s10
	.loc 1 276 122
	or	t3,t3,s11
	.loc 1 277 292
	xor	t2,t2,t4
	.loc 1 276 20
	add	s7,s7,t3
	.loc 1 276 418 is_stmt 1
	.loc 1 277 292 is_stmt 0
	xor	t2,t2,a7
	.loc 1 276 453
	srli	t3,s9,2
	slli	s9,s9,30
	or	s9,s9,t3
	.loc 1 276 508 is_stmt 1
	.loc 1 277 5
	.loc 1 277 10
	.loc 1 277 292 is_stmt 0
	xor	t2,t2,s4
	.loc 1 277 152
	or	s11,s8,s9
	.loc 1 277 365
	slli	t3,t2,1
	srli	t2,t2,31
	or	t2,t2,t3
	.loc 1 277 137
	and	t3,s11,s6
	.loc 1 277 107
	and	s11,s8,s9
	.loc 1 277 122
	or	s11,t3,s11
	.loc 1 277 20
	add	t3,t2,s5
	add	s10,t3,s10
	add	s10,s11,s10
	.loc 1 277 45
	slli	t3,s7,5
	srli	s11,s7,27
	.loc 1 278 292
	xor	t6,t6,s3
	.loc 1 277 45
	or	t3,t3,s11
	.loc 1 278 292
	xor	t6,t6,a6
	.loc 1 277 20
	add	s10,s10,t3
	.loc 1 277 418 is_stmt 1
	.loc 1 278 292 is_stmt 0
	xor	t6,t6,a5
	.loc 1 277 453
	srli	t3,s8,2
	slli	s8,s8,30
	or	s8,s8,t3
	.loc 1 277 508 is_stmt 1
	.loc 1 278 5
	.loc 1 278 10
	.loc 1 278 365 is_stmt 0
	slli	t3,t6,1
	srli	t6,t6,31
	or	t6,t6,t3
	.loc 1 278 20
	add	t3,t6,s5
	.loc 1 278 45
	srli	s11,s10,27
	.loc 1 278 20
	add	s6,t3,s6
	.loc 1 278 45
	slli	t3,s10,5
	or	t3,t3,s11
	.loc 1 278 152
	or	s11,s7,s8
	.loc 1 278 137
	and	s11,s11,s9
	.loc 1 278 20
	add	s6,s6,t3
	.loc 1 278 107
	and	t3,s7,s8
	.loc 1 278 122
	or	t3,s11,t3
	.loc 1 279 292
	xor	t4,t4,s2
	.loc 1 278 20
	add	s6,s6,t3
	.loc 1 278 418 is_stmt 1
	.loc 1 279 292 is_stmt 0
	xor	t4,t4,a1
	.loc 1 278 453
	srli	t3,s7,2
	slli	s7,s7,30
	or	s7,s7,t3
	.loc 1 278 508 is_stmt 1
	.loc 1 279 5
	.loc 1 279 10
	.loc 1 279 292 is_stmt 0
	xor	t4,t4,a4
	.loc 1 279 152
	or	s11,s10,s7
	.loc 1 279 365
	slli	t3,t4,1
	srli	t4,t4,31
	or	t4,t4,t3
	.loc 1 279 137
	and	t3,s11,s8
	.loc 1 279 107
	and	s11,s10,s7
	.loc 1 279 122
	or	s11,t3,s11
	.loc 1 279 20
	add	t3,t4,s5
	add	s9,t3,s9
	add	s9,s11,s9
	.loc 1 279 45
	slli	t3,s6,5
	srli	s11,s6,27
	.loc 1 280 292
	xor	s3,s3,t0
	.loc 1 279 45
	or	t3,t3,s11
	.loc 1 280 292
	xor	s3,s3,a2
	.loc 1 279 20
	add	s9,s9,t3
	.loc 1 279 418 is_stmt 1
	.loc 1 280 292 is_stmt 0
	xor	s3,s3,t2
	.loc 1 279 453
	srli	t3,s10,2
	slli	s10,s10,30
	or	s10,s10,t3
	.loc 1 279 508 is_stmt 1
	.loc 1 280 5
	.loc 1 280 10
	.loc 1 280 365 is_stmt 0
	slli	t3,s3,1
	srli	s3,s3,31
	or	s3,s3,t3
	.loc 1 280 20
	add	t3,s3,s5
	.loc 1 280 45
	srli	s11,s9,27
	.loc 1 280 20
	add	s8,t3,s8
	.loc 1 280 45
	slli	t3,s9,5
	or	t3,t3,s11
	.loc 1 280 20
	add	s8,s8,t3
	.loc 1 280 152
	or	t3,s6,s10
	.loc 1 280 107
	and	s11,s6,s10
	.loc 1 280 137
	and	t3,t3,s7
	.loc 1 280 122
	or	t3,t3,s11
	.loc 1 281 292
	xor	s2,s2,t5
	.loc 1 280 20
	add	s8,s8,t3
	.loc 1 280 418 is_stmt 1
	.loc 1 281 292 is_stmt 0
	xor	s2,s2,a3
	.loc 1 280 453
	srli	t3,s6,2
	slli	s6,s6,30
	or	s6,s6,t3
	.loc 1 280 508 is_stmt 1
	.loc 1 281 5
	.loc 1 281 10
	.loc 1 281 292 is_stmt 0
	xor	s2,s2,t6
	.loc 1 281 152
	or	s11,s9,s6
	.loc 1 281 365
	slli	t3,s2,1
	srli	s2,s2,31
	or	s2,s2,t3
	.loc 1 281 137
	and	t3,s11,s10
	.loc 1 281 107
	and	s11,s9,s6
	.loc 1 281 122
	or	s11,t3,s11
	.loc 1 281 20
	add	t3,s2,s5
	add	s7,t3,s7
	add	s7,s11,s7
	.loc 1 281 45
	slli	t3,s8,5
	srli	s11,s8,27
	.loc 1 282 292
	xor	t0,t0,t1
	.loc 1 281 45
	or	t3,t3,s11
	.loc 1 282 292
	xor	t0,t0,s4
	.loc 1 281 20
	add	s7,s7,t3
	.loc 1 281 418 is_stmt 1
	.loc 1 282 292 is_stmt 0
	xor	t0,t0,t4
	.loc 1 281 453
	srli	t3,s9,2
	slli	s9,s9,30
	or	s9,s9,t3
	.loc 1 281 508 is_stmt 1
	.loc 1 282 5
	.loc 1 282 10
	.loc 1 282 365 is_stmt 0
	slli	t3,t0,1
	srli	t0,t0,31
	or	t0,t0,t3
	.loc 1 282 20
	add	t3,t0,s5
	.loc 1 282 45
	srli	s11,s7,27
	.loc 1 282 20
	add	s10,t3,s10
	.loc 1 282 45
	slli	t3,s7,5
	or	t3,t3,s11
	.loc 1 282 20
	add	s10,s10,t3
	.loc 1 282 152
	or	t3,s8,s9
	.loc 1 282 107
	and	s11,s8,s9
	.loc 1 282 137
	and	t3,t3,s6
	.loc 1 283 292
	xor	t5,t5,a7
	.loc 1 282 122
	or	t3,t3,s11
	.loc 1 283 292
	xor	t5,t5,a5
	.loc 1 282 20
	add	s10,s10,t3
	.loc 1 282 418 is_stmt 1
	.loc 1 283 292 is_stmt 0
	xor	t5,t5,s3
	.loc 1 282 453
	srli	t3,s8,2
	slli	s8,s8,30
	or	s8,s8,t3
	.loc 1 282 508 is_stmt 1
	.loc 1 283 5
	.loc 1 283 10
	.loc 1 283 365 is_stmt 0
	slli	t3,t5,1
	srli	t5,t5,31
	or	t5,t5,t3
	.loc 1 283 152
	or	s11,s7,s8
	.loc 1 283 107
	and	t3,s7,s8
	.loc 1 283 20
	add	s5,t5,s5
	.loc 1 283 137
	and	s11,s11,s9
	.loc 1 283 122
	or	s11,s11,t3
	.loc 1 291 258
	xor	t1,t1,a6
	.loc 1 283 20
	add	t3,s5,s6
	.loc 1 283 45
	srli	s6,s10,27
	slli	s5,s10,5
	or	s5,s5,s6
	.loc 1 283 20
	add	t3,s11,t3
	.loc 1 291 258
	xor	t1,t1,a4
	.loc 1 283 20
	add	t3,t3,s5
	.loc 1 283 418 is_stmt 1
	.loc 1 291 258 is_stmt 0
	xor	t1,t1,s2
	.loc 1 283 453
	srli	s5,s7,2
	slli	s7,s7,30
	or	s7,s7,s5
	.loc 1 283 508 is_stmt 1
	.loc 1 291 5
	.loc 1 291 10
	.loc 1 291 331 is_stmt 0
	slli	s5,t1,1
	srli	t1,t1,31
	or	t1,t1,s5
	.loc 1 291 20
	li	s5,-899497984
	addi	s5,s5,470
	add	s6,t1,s5
	.loc 1 291 120
	xor	s11,s8,s7
	xor	s11,s11,s10
	.loc 1 291 20
	add	s9,s6,s9
	add	s9,s11,s9
	.loc 1 291 45
	slli	s6,t3,5
	srli	s11,t3,27
	.loc 1 292 258
	xor	a7,a7,a1
	.loc 1 291 45
	or	s6,s6,s11
	.loc 1 292 258
	xor	a7,a7,t2
	.loc 1 291 20
	add	s9,s9,s6
	.loc 1 291 384 is_stmt 1
	.loc 1 292 258 is_stmt 0
	xor	a7,a7,t0
	.loc 1 291 419
	srli	s6,s10,2
	slli	s10,s10,30
	or	s10,s10,s6
	.loc 1 291 474 is_stmt 1
	.loc 1 292 5
	.loc 1 292 10
	.loc 1 292 331 is_stmt 0
	slli	s6,a7,1
	srli	a7,a7,31
	or	a7,a7,s6
	.loc 1 292 20
	add	s6,a7,s5
	.loc 1 292 120
	xor	s11,s7,s10
	xor	s11,s11,t3
	.loc 1 292 20
	add	s8,s6,s8
	add	s8,s11,s8
	.loc 1 292 45
	slli	s6,s9,5
	srli	s11,s9,27
	.loc 1 293 258
	xor	a6,a6,a2
	.loc 1 292 45
	or	s6,s6,s11
	.loc 1 293 258
	xor	a6,a6,t6
	.loc 1 292 20
	add	s8,s8,s6
	.loc 1 292 384 is_stmt 1
	.loc 1 293 258 is_stmt 0
	xor	a6,a6,t5
	.loc 1 292 419
	srli	s6,t3,2
	slli	t3,t3,30
	or	t3,t3,s6
	.loc 1 292 474 is_stmt 1
	.loc 1 293 5
	.loc 1 293 10
	.loc 1 293 331 is_stmt 0
	slli	s6,a6,1
	srli	a6,a6,31
	or	a6,a6,s6
	.loc 1 293 20
	add	s6,a6,s5
	.loc 1 293 120
	xor	s11,s10,t3
	xor	s11,s11,s9
	.loc 1 293 20
	add	s7,s6,s7
	add	s7,s11,s7
	.loc 1 293 45
	slli	s6,s8,5
	srli	s11,s8,27
	.loc 1 294 258
	xor	a1,a1,a3
	.loc 1 293 45
	or	s6,s6,s11
	.loc 1 294 258
	xor	a1,a1,t4
	.loc 1 293 20
	add	s7,s7,s6
	.loc 1 293 384 is_stmt 1
	.loc 1 294 258 is_stmt 0
	xor	a1,a1,t1
	.loc 1 293 419
	srli	s6,s9,2
	slli	s9,s9,30
	or	s9,s9,s6
	.loc 1 293 474 is_stmt 1
	.loc 1 294 5
	.loc 1 294 10
	.loc 1 294 331 is_stmt 0
	slli	s6,a1,1
	srli	a1,a1,31
	or	a1,a1,s6
	.loc 1 294 20
	add	s6,a1,s5
	.loc 1 294 120
	xor	s11,t3,s9
	xor	s11,s11,s8
	.loc 1 294 20
	add	s10,s6,s10
	add	s10,s11,s10
	.loc 1 294 45
	slli	s6,s7,5
	srli	s11,s7,27
	.loc 1 295 258
	xor	a2,a2,s4
	.loc 1 294 45
	or	s6,s6,s11
	.loc 1 295 258
	xor	a2,a2,s3
	.loc 1 294 20
	add	s10,s10,s6
	.loc 1 294 384 is_stmt 1
	.loc 1 295 258 is_stmt 0
	xor	a2,a2,a7
	.loc 1 294 419
	srli	s6,s8,2
	slli	s8,s8,30
	or	s8,s8,s6
	.loc 1 294 474 is_stmt 1
	.loc 1 295 5
	.loc 1 295 10
	.loc 1 295 331 is_stmt 0
	slli	s6,a2,1
	srli	a2,a2,31
	or	a2,a2,s6
	.loc 1 295 20
	add	s6,a2,s5
	.loc 1 295 120
	xor	s11,s9,s8
	xor	s11,s11,s7
	.loc 1 295 20
	add	t3,s6,t3
	add	t3,s11,t3
	.loc 1 295 45
	slli	s6,s10,5
	srli	s11,s10,27
	.loc 1 296 258
	xor	a3,a3,a5
	.loc 1 295 45
	or	s6,s6,s11
	.loc 1 296 258
	xor	a3,a3,s2
	.loc 1 295 20
	add	t3,t3,s6
	.loc 1 295 384 is_stmt 1
	.loc 1 296 258 is_stmt 0
	xor	a3,a3,a6
	.loc 1 295 419
	srli	s6,s7,2
	slli	s7,s7,30
	or	s7,s7,s6
	.loc 1 295 474 is_stmt 1
	.loc 1 296 5
	.loc 1 296 10
	.loc 1 296 331 is_stmt 0
	slli	s6,a3,1
	srli	a3,a3,31
	or	a3,a3,s6
	.loc 1 296 20
	add	s6,a3,s5
	.loc 1 296 120
	xor	s11,s8,s7
	xor	s11,s11,s10
	.loc 1 296 20
	add	s9,s6,s9
	add	s9,s11,s9
	.loc 1 296 45
	slli	s6,t3,5
	srli	s11,t3,27
	.loc 1 297 258
	xor	s4,s4,a4
	.loc 1 296 45
	or	s6,s6,s11
	.loc 1 297 258
	xor	s4,s4,t0
	.loc 1 296 20
	add	s9,s9,s6
	.loc 1 296 384 is_stmt 1
	.loc 1 297 258 is_stmt 0
	xor	s4,s4,a1
	.loc 1 296 419
	srli	s6,s10,2
	slli	s10,s10,30
	or	s10,s10,s6
	.loc 1 296 474 is_stmt 1
	.loc 1 297 5
	.loc 1 297 10
	.loc 1 297 331 is_stmt 0
	slli	s6,s4,1
	srli	s4,s4,31
	or	s4,s4,s6
	.loc 1 297 20
	add	s6,s4,s5
	.loc 1 297 120
	xor	s11,s7,s10
	xor	s11,s11,t3
	.loc 1 297 20
	add	s8,s6,s8
	add	s8,s11,s8
	.loc 1 297 45
	slli	s6,s9,5
	srli	s11,s9,27
	.loc 1 298 258
	xor	a5,a5,t2
	.loc 1 297 45
	or	s6,s6,s11
	.loc 1 298 258
	xor	a5,a5,t5
	.loc 1 297 20
	add	s8,s8,s6
	.loc 1 297 384 is_stmt 1
	.loc 1 298 258 is_stmt 0
	xor	a5,a5,a2
	.loc 1 297 419
	srli	s6,t3,2
	slli	t3,t3,30
	or	t3,t3,s6
	.loc 1 297 474 is_stmt 1
	.loc 1 298 5
	.loc 1 298 10
	.loc 1 298 331 is_stmt 0
	slli	s6,a5,1
	srli	a5,a5,31
	or	a5,a5,s6
	.loc 1 298 20
	add	s6,a5,s5
	.loc 1 298 120
	xor	s11,s10,t3
	xor	s11,s11,s9
	.loc 1 298 20
	add	s7,s6,s7
	add	s7,s11,s7
	.loc 1 298 45
	slli	s6,s8,5
	srli	s11,s8,27
	.loc 1 299 258
	xor	a4,a4,t6
	.loc 1 298 45
	or	s6,s6,s11
	.loc 1 299 258
	xor	a4,a4,t1
	.loc 1 298 20
	add	s7,s7,s6
	.loc 1 298 384 is_stmt 1
	.loc 1 299 258 is_stmt 0
	xor	a4,a4,a3
	.loc 1 298 419
	srli	s6,s9,2
	slli	s9,s9,30
	or	s9,s9,s6
	.loc 1 298 474 is_stmt 1
	.loc 1 299 5
	.loc 1 299 10
	.loc 1 299 331 is_stmt 0
	slli	s6,a4,1
	srli	a4,a4,31
	or	a4,a4,s6
	.loc 1 299 20
	add	s6,a4,s5
	.loc 1 299 120
	xor	s11,t3,s9
	xor	s11,s11,s8
	.loc 1 299 20
	add	s10,s6,s10
	add	s10,s11,s10
	.loc 1 299 45
	slli	s6,s7,5
	srli	s11,s7,27
	.loc 1 300 258
	xor	t2,t2,t4
	.loc 1 299 45
	or	s6,s6,s11
	.loc 1 300 258
	xor	t2,t2,a7
	.loc 1 299 20
	add	s10,s10,s6
	.loc 1 299 384 is_stmt 1
	.loc 1 300 258 is_stmt 0
	xor	t2,t2,s4
	.loc 1 299 419
	srli	s6,s8,2
	slli	s8,s8,30
	or	s8,s8,s6
	.loc 1 299 474 is_stmt 1
	.loc 1 300 5
	.loc 1 300 10
	.loc 1 300 331 is_stmt 0
	slli	s6,t2,1
	srli	t2,t2,31
	or	t2,t2,s6
	.loc 1 300 20
	add	s6,t2,s5
	.loc 1 300 120
	xor	s11,s9,s8
	xor	s11,s11,s7
	.loc 1 300 20
	add	t3,s6,t3
	add	t3,s11,t3
	.loc 1 300 45
	slli	s6,s10,5
	srli	s11,s10,27
	.loc 1 301 258
	xor	t6,t6,s3
	.loc 1 300 45
	or	s6,s6,s11
	.loc 1 301 258
	xor	t6,t6,a6
	.loc 1 300 20
	add	t3,t3,s6
	.loc 1 300 384 is_stmt 1
	.loc 1 301 258 is_stmt 0
	xor	t6,t6,a5
	.loc 1 300 419
	srli	s6,s7,2
	slli	s7,s7,30
	or	s7,s7,s6
	.loc 1 300 474 is_stmt 1
	.loc 1 301 5
	.loc 1 301 10
	.loc 1 301 331 is_stmt 0
	slli	s6,t6,1
	srli	t6,t6,31
	or	t6,t6,s6
	.loc 1 301 20
	add	s6,t6,s5
	.loc 1 301 120
	xor	s11,s8,s7
	xor	s11,s11,s10
	.loc 1 301 20
	add	s9,s6,s9
	add	s9,s11,s9
	.loc 1 301 45
	slli	s6,t3,5
	srli	s11,t3,27
	.loc 1 302 258
	xor	t4,t4,s2
	.loc 1 301 45
	or	s6,s6,s11
	.loc 1 302 258
	xor	t4,t4,a1
	.loc 1 301 20
	add	s9,s9,s6
	.loc 1 301 384 is_stmt 1
	.loc 1 302 258 is_stmt 0
	xor	t4,t4,a4
	.loc 1 301 419
	srli	s6,s10,2
	slli	s10,s10,30
	or	s10,s10,s6
	.loc 1 301 474 is_stmt 1
	.loc 1 302 5
	.loc 1 302 10
	.loc 1 302 331 is_stmt 0
	slli	s6,t4,1
	srli	t4,t4,31
	or	t4,t4,s6
	.loc 1 302 20
	add	s6,t4,s5
	.loc 1 302 120
	xor	s11,s7,s10
	xor	s11,s11,t3
	.loc 1 302 20
	add	s8,s6,s8
	add	s8,s11,s8
	.loc 1 302 45
	slli	s6,s9,5
	srli	s11,s9,27
	.loc 1 303 258
	xor	s3,s3,t0
	.loc 1 302 45
	or	s6,s6,s11
	.loc 1 303 258
	xor	s3,s3,a2
	.loc 1 302 20
	add	s8,s8,s6
	.loc 1 302 384 is_stmt 1
	.loc 1 303 258 is_stmt 0
	xor	s3,s3,t2
	.loc 1 302 419
	srli	s6,t3,2
	slli	t3,t3,30
	or	t3,t3,s6
	.loc 1 302 474 is_stmt 1
	.loc 1 303 5
	.loc 1 303 10
	.loc 1 303 331 is_stmt 0
	slli	s6,s3,1
	srli	s3,s3,31
	or	s3,s3,s6
	.loc 1 303 20
	add	s6,s3,s5
	.loc 1 303 120
	xor	s11,s10,t3
	xor	s11,s11,s9
	.loc 1 303 20
	add	s7,s6,s7
	add	s7,s11,s7
	.loc 1 303 45
	slli	s6,s8,5
	srli	s11,s8,27
	.loc 1 304 258
	xor	s2,s2,t5
	.loc 1 303 45
	or	s6,s6,s11
	.loc 1 304 258
	xor	s2,s2,a3
	.loc 1 303 20
	add	s7,s7,s6
	.loc 1 303 384 is_stmt 1
	.loc 1 304 258 is_stmt 0
	xor	s2,s2,t6
	.loc 1 303 419
	srli	s6,s9,2
	slli	s9,s9,30
	or	s9,s9,s6
	.loc 1 303 474 is_stmt 1
	.loc 1 304 5
	.loc 1 304 10
	.loc 1 304 331 is_stmt 0
	slli	s6,s2,1
	srli	s2,s2,31
	or	s2,s2,s6
	.loc 1 304 20
	add	s6,s2,s5
	.loc 1 304 120
	xor	s11,t3,s9
	xor	s11,s11,s8
	.loc 1 304 20
	add	s10,s6,s10
	.loc 1 305 258
	xor	t0,t0,t1
	.loc 1 304 20
	add	s10,s11,s10
	.loc 1 304 45
	slli	s6,s7,5
	srli	s11,s7,27
	.loc 1 297 306
	sw	s4,20(sp)
	.loc 1 304 45
	or	s6,s6,s11
	.loc 1 305 258
	xor	s4,t0,s4
	.loc 1 304 20
	add	s10,s10,s6
	.loc 1 304 384 is_stmt 1
	.loc 1 305 258 is_stmt 0
	xor	s4,s4,t4
	.loc 1 304 419
	srli	s6,s8,2
	slli	s8,s8,30
	or	s8,s8,s6
	.loc 1 304 474 is_stmt 1
	.loc 1 305 5
	.loc 1 305 10
	.loc 1 305 331 is_stmt 0
	slli	s6,s4,1
	srli	s4,s4,31
	or	s4,s4,s6
	.loc 1 305 20
	add	t0,s4,s5
	.loc 1 305 120
	xor	s6,s9,s8
	xor	s6,s6,s7
	.loc 1 306 258
	xor	t5,t5,a7
	.loc 1 305 20
	add	t3,t0,t3
	.loc 1 298 306
	sw	a5,24(sp)
	.loc 1 305 20
	add	t3,s6,t3
	.loc 1 306 258
	xor	a5,t5,a5
	.loc 1 305 45
	srli	s6,s10,27
	slli	t0,s10,5
	.loc 1 303 306
	sw	s3,44(sp)
	.loc 1 305 45
	or	t0,t0,s6
	.loc 1 306 258
	xor	s3,a5,s3
	.loc 1 305 20
	add	t3,t3,t0
	.loc 1 305 384 is_stmt 1
	.loc 1 306 331 is_stmt 0
	slli	a5,s3,1
	.loc 1 305 419
	srli	t0,s7,2
	.loc 1 306 331
	srli	s3,s3,31
	.loc 1 305 419
	slli	s7,s7,30
	.loc 1 306 331
	or	s3,s3,a5
	.loc 1 305 419
	or	s7,s7,t0
	.loc 1 305 474 is_stmt 1
	.loc 1 306 5
	.loc 1 306 10
	.loc 1 306 20 is_stmt 0
	add	t5,s3,s5
	.loc 1 306 120
	xor	a5,s8,s7
	xor	a5,a5,s10
	.loc 1 306 20
	add	s9,t5,s9
	add	s9,a5,s9
	.loc 1 306 45
	srli	t5,t3,27
	slli	a5,t3,5
	.loc 1 307 258
	xor	t1,t1,a6
	.loc 1 299 306
	sw	a4,28(sp)
	.loc 1 306 45
	or	a5,a5,t5
	.loc 1 307 258
	xor	a4,t1,a4
	.loc 1 306 20
	add	s9,s9,a5
	.loc 1 306 384 is_stmt 1
	.loc 1 304 306 is_stmt 0
	sw	s2,48(sp)
	.loc 1 306 419
	srli	a5,s10,2
	.loc 1 307 258
	xor	s2,a4,s2
	.loc 1 306 419
	slli	s10,s10,30
	or	s10,s10,a5
	.loc 1 306 474 is_stmt 1
	.loc 1 307 5
	.loc 1 307 10
	.loc 1 307 331 is_stmt 0
	slli	a5,s2,1
	srli	s2,s2,31
	or	s2,s2,a5
	.loc 1 307 20
	add	a4,s2,s5
	.loc 1 307 120
	xor	a5,s7,s10
	xor	a5,a5,t3
	.loc 1 307 20
	add	s8,a4,s8
	.loc 1 308 258
	xor	a7,a7,a1
	.loc 1 307 45
	srli	a4,s9,27
	.loc 1 307 20
	add	s8,a5,s8
	.loc 1 307 45
	slli	a5,s9,5
	.loc 1 300 306
	sw	t2,32(sp)
	.loc 1 307 45
	or	a5,a5,a4
	.loc 1 308 258
	xor	t2,a7,t2
	.loc 1 307 20
	add	s8,s8,a5
	.loc 1 307 384 is_stmt 1
	.loc 1 305 306 is_stmt 0
	sw	s4,52(sp)
	.loc 1 307 419
	srli	a5,t3,2
	.loc 1 308 258
	xor	s4,t2,s4
	.loc 1 307 419
	slli	t3,t3,30
	or	t3,t3,a5
	.loc 1 307 474 is_stmt 1
	.loc 1 308 5
	.loc 1 308 10
	.loc 1 308 331 is_stmt 0
	slli	a5,s4,1
	srli	s4,s4,31
	.loc 1 295 306
	sw	a2,12(sp)
	.loc 1 296 306
	sw	a3,16(sp)
	.loc 1 301 306
	sw	t6,36(sp)
	.loc 1 302 306
	sw	t4,40(sp)
	.loc 1 306 306
	sw	s3,56(sp)
	.loc 1 307 306
	sw	s2,60(sp)
	.loc 1 308 331
	or	s4,s4,a5
	.loc 1 308 306
	sw	s4,64(sp)
	.loc 1 308 120
	xor	a5,s10,t3
	.loc 1 308 20
	add	s4,s4,s5
	.loc 1 308 120
	xor	a5,a5,s9
	.loc 1 308 20
	add	s7,s4,s7
	.loc 1 308 45
	srli	a4,s8,27
	.loc 1 308 20
	add	s7,a5,s7
	.loc 1 309 258
	xor	a2,a6,a2
	.loc 1 308 45
	slli	a5,s8,5
	or	a5,a5,a4
	.loc 1 309 258
	xor	t6,a2,t6
	.loc 1 308 20
	add	s7,s7,a5
	.loc 1 308 384 is_stmt 1
	.loc 1 309 258 is_stmt 0
	xor	t6,t6,s3
	.loc 1 308 419
	srli	a5,s9,2
	slli	s9,s9,30
	or	s9,s9,a5
	.loc 1 309 331
	slli	a5,t6,1
	srli	t6,t6,31
	or	t6,t6,a5
	.loc 1 309 306
	sw	t6,68(sp)
	.loc 1 309 120
	xor	a5,t3,s9
	.loc 1 309 20
	add	t6,t6,s5
	.loc 1 309 120
	xor	a5,a5,s8
	.loc 1 310 258
	xor	a3,a1,a3
	.loc 1 309 20
	add	s10,t6,s10
	add	s10,a5,s10
	.loc 1 309 45
	slli	t6,s7,5
	srli	a5,s7,27
	.loc 1 310 258
	xor	t4,a3,t4
	xor	t4,t4,s2
	.loc 1 309 45
	or	t6,t6,a5
	.loc 1 309 419
	srli	a5,s8,2
	slli	s8,s8,30
	or	s8,s8,a5
	.loc 1 310 164
	sw	t4,8(sp)
	.loc 1 310 331
	slli	a5,t4,1
	srli	t4,t4,31
	or	t4,t4,a5
	.loc 1 310 306
	sw	t4,72(sp)
	.loc 1 310 120
	xor	a5,s9,s8
	.loc 1 310 20
	add	t4,t4,s5
	.loc 1 309 20
	add	s10,s10,t6
	.loc 1 310 120
	xor	a5,a5,s7
	.loc 1 310 20
	add	t4,t4,t3
	add	t4,a5,t4
	.loc 1 310 45
	slli	s5,s10,5
	srli	a5,s10,27
	or	s5,s5,a5
	.loc 1 310 419
	srli	a5,s7,2
	slli	s7,s7,30
	or	s7,s7,a5
	.loc 1 318 19
	lw	a5,20(a0)
	.loc 1 309 394
	sw	s8,88(sp)
	.loc 1 310 20
	add	t4,t4,s5
	.loc 1 318 19
	add	s8,a5,s8
	.loc 1 319 19
	lw	a5,24(a0)
	.loc 1 308 394
	sw	s9,92(sp)
	.loc 1 308 474 is_stmt 1
	.loc 1 309 5
	.loc 1 309 10
	.loc 1 309 20 is_stmt 0
	sw	s10,80(sp)
	.loc 1 309 384 is_stmt 1
	.loc 1 309 474
	.loc 1 310 5
	.loc 1 310 10
	.loc 1 310 394 is_stmt 0
	sw	s7,84(sp)
	.loc 1 315 19
	add	ra,ra,t4
	.loc 1 316 19
	add	s10,s1,s10
	.loc 1 317 19
	add	s7,s0,s7
	.loc 1 319 19
	add	s9,a5,s9
	.loc 1 315 19
	sw	ra,8(a0)
	.loc 1 316 19
	sw	s10,12(a0)
	.loc 1 317 19
	sw	s7,16(a0)
	.loc 1 318 19
	sw	s8,20(a0)
	.loc 1 319 19
	sw	s9,24(a0)
	.loc 1 322 5
	li	a1,88
	addi	a0,sp,8
.LVL12:
	.loc 1 310 20
	sw	t4,76(sp)
	.loc 1 310 384 is_stmt 1
	.loc 1 310 474
	.loc 1 315 5
	.loc 1 316 5
	.loc 1 317 5
	.loc 1 318 5
	.loc 1 319 5
	.loc 1 322 5
	call	mbedtls_platform_zeroize
.LVL13:
	.loc 1 324 5
	.loc 1 325 1 is_stmt 0
	lw	ra,156(sp)
	.cfi_restore 1
	lw	s0,152(sp)
	.cfi_restore 8
	lw	s1,148(sp)
	.cfi_restore 9
	lw	s2,144(sp)
	.cfi_restore 18
	lw	s3,140(sp)
	.cfi_restore 19
	lw	s4,136(sp)
	.cfi_restore 20
	lw	s5,132(sp)
	.cfi_restore 21
	lw	s6,128(sp)
	.cfi_restore 22
	lw	s7,124(sp)
	.cfi_restore 23
	lw	s8,120(sp)
	.cfi_restore 24
	lw	s9,116(sp)
	.cfi_restore 25
	lw	s10,112(sp)
	.cfi_restore 26
	lw	s11,108(sp)
	.cfi_restore 27
	li	a0,0
	addi	sp,sp,160
	.cfi_def_cfa_offset 0
	jr	ra
	.cfi_endproc
.LFE6:
	.size	mbedtls_internal_sha1_process, .-mbedtls_internal_sha1_process
	.section	.text.mbedtls_sha1_process,"ax",@progbits
	.align	1
	.globl	mbedtls_sha1_process
	.type	mbedtls_sha1_process, @function
mbedtls_sha1_process:
.LFB7:
	.loc 1 330 1 is_stmt 1
	.cfi_startproc
.LVL14:
	.loc 1 331 5
	tail	mbedtls_internal_sha1_process
.LVL15:
	.cfi_endproc
.LFE7:
	.size	mbedtls_sha1_process, .-mbedtls_sha1_process
	.section	.text.mbedtls_sha1_update_ret,"ax",@progbits
	.align	1
	.globl	mbedtls_sha1_update_ret
	.type	mbedtls_sha1_update_ret, @function
mbedtls_sha1_update_ret:
.LFB8:
	.loc 1 342 1
	.cfi_startproc
.LVL16:
	.loc 1 343 5
	.loc 1 344 5
	.loc 1 345 5
	.loc 1 347 5
	.loc 1 347 10
	.loc 1 347 17
	.loc 1 348 5
	.loc 1 348 10
	.loc 1 348 17
	.loc 1 350 5
	.loc 1 350 7 is_stmt 0
	bne	a2,zero,.L12
	.loc 1 351 15
	li	a0,0
.LVL17:
	.loc 1 387 1
	ret
.LVL18:
.L12:
	.loc 1 342 1
	addi	sp,sp,-32
	.cfi_def_cfa_offset 32
	sw	s0,24(sp)
	sw	s1,20(sp)
	sw	s2,16(sp)
	sw	s3,12(sp)
	sw	ra,28(sp)
	sw	s4,8(sp)
	sw	s5,4(sp)
	.cfi_offset 8, -8
	.cfi_offset 9, -12
	.cfi_offset 18, -16
	.cfi_offset 19, -20
	.cfi_offset 1, -4
	.cfi_offset 20, -24
	.cfi_offset 21, -28
.LBB4:
.LBB5:
	.loc 1 353 22
	lw	a5,0(a0)
	mv	s1,a0
	mv	s2,a1
	.loc 1 353 10
	andi	s3,a5,63
	.loc 1 356 19
	add	a5,a2,a5
	sw	a5,0(a0)
	mv	s0,a2
.LVL19:
	.loc 1 353 5 is_stmt 1
	.loc 1 354 5
	.loc 1 356 5
	.loc 1 357 5
	.loc 1 359 5
	.loc 1 359 7 is_stmt 0
	bleu	a2,a5,.L14
.LVL20:
	.loc 1 360 9 is_stmt 1
	.loc 1 360 22 is_stmt 0
	lw	a5,4(a0)
	addi	a5,a5,1
	sw	a5,4(a0)
.L14:
	.loc 1 362 5 is_stmt 1
	.loc 1 362 7 is_stmt 0
	beq	s3,zero,.L15
	.loc 1 354 10
	li	s4,64
	sub	s4,s4,s3
	.loc 1 362 14
	bltu	s0,s4,.L15
	.loc 1 364 9 is_stmt 1
	.loc 1 364 27 is_stmt 0
	addi	s5,s1,28
	.loc 1 364 9
	mv	a1,s2
.LVL21:
	mv	a2,s4
	add	a0,s5,s3
	call	memcpy
.LVL22:
	.loc 1 366 9 is_stmt 1
	.loc 1 366 21 is_stmt 0
	mv	a1,s5
	mv	a0,s1
	call	mbedtls_internal_sha1_process
.LVL23:
	.loc 1 366 11
	bne	a0,zero,.L11
	.loc 1 369 9 is_stmt 1
.LVL24:
	.loc 1 370 14 is_stmt 0
	add	s0,s0,s3
.LVL25:
	.loc 1 369 15
	add	s2,s2,s4
.LVL26:
	.loc 1 370 9 is_stmt 1
	.loc 1 370 14 is_stmt 0
	addi	s0,s0,-64
.LVL27:
	.loc 1 371 9 is_stmt 1
	.loc 1 371 14 is_stmt 0
	li	s3,0
.LVL28:
.L15:
	add	s2,s2,s0
.LVL29:
	.loc 1 374 10
	li	s4,63
	j	.L16
.LVL30:
.L17:
	.loc 1 376 9 is_stmt 1
	.loc 1 376 21 is_stmt 0
	mv	a0,s1
	call	mbedtls_internal_sha1_process
.LVL31:
	.loc 1 376 11
	bne	a0,zero,.L11
	.loc 1 379 9 is_stmt 1
.LVL32:
	.loc 1 380 9
	.loc 1 380 14 is_stmt 0
	addi	s0,s0,-64
.LVL33:
.L16:
	sub	a1,s2,s0
.LVL34:
	.loc 1 374 10 is_stmt 1
	bgtu	s0,s4,.L17
	.loc 1 383 5
	.loc 1 383 7 is_stmt 0
	beq	s0,zero,.L28
	.loc 1 384 9 is_stmt 1
	.loc 1 384 27 is_stmt 0
	addi	a0,s1,28
	.loc 1 384 9
	mv	a2,s0
	add	a0,a0,s3
	call	memcpy
.LVL35:
.L28:
	.loc 1 386 11
	li	a0,0
.LVL36:
.L11:
.LBE5:
.LBE4:
	.loc 1 387 1
	lw	ra,28(sp)
	.cfi_restore 1
	lw	s0,24(sp)
	.cfi_restore 8
	lw	s1,20(sp)
	.cfi_restore 9
.LVL37:
	lw	s2,16(sp)
	.cfi_restore 18
	lw	s3,12(sp)
	.cfi_restore 19
	lw	s4,8(sp)
	.cfi_restore 20
	lw	s5,4(sp)
	.cfi_restore 21
	addi	sp,sp,32
	.cfi_def_cfa_offset 0
	jr	ra
	.cfi_endproc
.LFE8:
	.size	mbedtls_sha1_update_ret, .-mbedtls_sha1_update_ret
	.section	.text.mbedtls_sha1_update,"ax",@progbits
	.align	1
	.globl	mbedtls_sha1_update
	.type	mbedtls_sha1_update, @function
mbedtls_sha1_update:
.LFB9:
	.loc 1 393 1 is_stmt 1
	.cfi_startproc
.LVL38:
	.loc 1 394 5
	tail	mbedtls_sha1_update_ret
.LVL39:
	.cfi_endproc
.LFE9:
	.size	mbedtls_sha1_update, .-mbedtls_sha1_update
	.section	.text.mbedtls_sha1_finish_ret,"ax",@progbits
	.align	1
	.globl	mbedtls_sha1_finish_ret
	.type	mbedtls_sha1_finish_ret, @function
mbedtls_sha1_finish_ret:
.LFB10:
	.loc 1 403 1
	.cfi_startproc
.LVL40:
	.loc 1 404 5
	.loc 1 405 5
	.loc 1 406 5
	.loc 1 408 5
	.loc 1 408 10
	.loc 1 408 17
	.loc 1 409 5
	.loc 1 409 10
	.loc 1 409 17
	.loc 1 414 5
	.loc 1 403 1 is_stmt 0
	addi	sp,sp,-16
	.cfi_def_cfa_offset 16
	sw	s0,8(sp)
	sw	s1,4(sp)
	sw	s2,0(sp)
	sw	ra,12(sp)
	.cfi_offset 8, -8
	.cfi_offset 9, -12
	.cfi_offset 18, -16
	.cfi_offset 1, -4
	.loc 1 414 10
	lw	a5,0(a0)
	.loc 1 416 25
	li	a3,-128
	.loc 1 421 17
	addi	s2,a0,28
	.loc 1 414 10
	andi	a5,a5,63
.LVL41:
	.loc 1 416 5 is_stmt 1
	.loc 1 416 21 is_stmt 0
	addi	a4,a5,1
.LVL42:
	.loc 1 416 25
	add	a5,a0,a5
	sb	a3,28(a5)
	.loc 1 418 5 is_stmt 1
	.loc 1 418 7 is_stmt 0
	li	a2,56
	.loc 1 403 1
	mv	s0,a0
	mv	s1,a1
	.loc 1 421 9
	add	a0,s2,a4
.LVL43:
	.loc 1 418 7
	bgtu	a4,a2,.L31
	.loc 1 421 9 is_stmt 1
	sub	a2,a2,a4
	li	a1,0
.LVL44:
.L35:
	.loc 1 431 9 is_stmt 0
	call	memset
.LVL45:
	.loc 1 437 5 is_stmt 1
	.loc 1 437 24 is_stmt 0
	lw	a4,0(s0)
	.loc 1 438 28
	lw	a2,4(s0)
	.loc 1 444 17
	mv	a0,s0
	.loc 1 437 28
	srli	a5,a4,29
	.loc 1 438 28
	slli	a2,a2,3
	.loc 1 437 10
	or	a5,a2,a5
.LVL46:
	.loc 1 439 5 is_stmt 1
	.loc 1 441 55 is_stmt 0
	srli	a1,a2,24
	.loc 1 441 115
	srli	a2,a2,16
	.loc 1 441 90
	sb	a2,85(s0)
	.loc 1 441 148
	slli	a2,a5,8
	slli	a5,a5,16
.LVL47:
	srli	a5,a5,16
	srli	a5,a5,8
	.loc 1 439 9
	slli	a3,a4,3
.LVL48:
	.loc 1 441 7 is_stmt 1
	.loc 1 441 148 is_stmt 0
	or	a5,a2,a5
	sh	a5,86(s0)
	.loc 1 442 54
	srli	a5,a3,24
	.loc 1 442 30
	sb	a5,88(s0)
	.loc 1 442 113
	srli	a5,a3,16
	.loc 1 442 146
	slli	a3,a3,16
.LVL49:
	srli	a3,a3,16
	slli	a4,a4,11
.LVL50:
	srli	a3,a3,8
	or	a4,a4,a3
	.loc 1 441 30
	sb	a1,84(s0)
	.loc 1 441 64 is_stmt 1
	.loc 1 441 124
	.loc 1 441 183
	.loc 1 441 238
	.loc 1 442 7
	.loc 1 442 63
	.loc 1 442 89 is_stmt 0
	sb	a5,89(s0)
	.loc 1 442 122 is_stmt 1
	.loc 1 442 180
	.loc 1 442 146 is_stmt 0
	sh	a4,90(s0)
	.loc 1 442 234 is_stmt 1
	.loc 1 444 5
	.loc 1 444 17 is_stmt 0
	mv	a1,s2
	call	mbedtls_internal_sha1_process
.LVL51:
	.loc 1 444 7
	bne	a0,zero,.L30
	.loc 1 450 7 is_stmt 1
	.loc 1 450 58 is_stmt 0
	lbu	a5,11(s0)
	.loc 1 450 24
	sb	a5,0(s1)
	.loc 1 450 67 is_stmt 1
	.loc 1 450 121 is_stmt 0
	lhu	a5,10(s0)
	.loc 1 450 87
	sb	a5,1(s1)
	.loc 1 450 130 is_stmt 1
	.loc 1 450 184 is_stmt 0
	lw	a5,8(s0)
	srli	a5,a5,8
	.loc 1 450 150
	sb	a5,2(s1)
	.loc 1 450 192 is_stmt 1
	.loc 1 450 212 is_stmt 0
	lw	a5,8(s0)
	sb	a5,3(s1)
	.loc 1 450 250 is_stmt 1
	.loc 1 451 7
	.loc 1 451 58 is_stmt 0
	lbu	a5,15(s0)
	.loc 1 451 24
	sb	a5,4(s1)
	.loc 1 451 67 is_stmt 1
	.loc 1 451 121 is_stmt 0
	lhu	a5,14(s0)
	.loc 1 451 87
	sb	a5,5(s1)
	.loc 1 451 130 is_stmt 1
	.loc 1 451 184 is_stmt 0
	lw	a5,12(s0)
	srli	a5,a5,8
	.loc 1 451 150
	sb	a5,6(s1)
	.loc 1 451 192 is_stmt 1
	.loc 1 451 212 is_stmt 0
	lw	a5,12(s0)
	sb	a5,7(s1)
	.loc 1 451 250 is_stmt 1
	.loc 1 452 7
	.loc 1 452 58 is_stmt 0
	lbu	a5,19(s0)
	.loc 1 452 24
	sb	a5,8(s1)
	.loc 1 452 67 is_stmt 1
	.loc 1 452 121 is_stmt 0
	lhu	a5,18(s0)
	.loc 1 452 87
	sb	a5,9(s1)
	.loc 1 452 130 is_stmt 1
	.loc 1 452 184 is_stmt 0
	lw	a5,16(s0)
	srli	a5,a5,8
	.loc 1 452 150
	sb	a5,10(s1)
	.loc 1 452 192 is_stmt 1
	.loc 1 452 212 is_stmt 0
	lw	a5,16(s0)
	sb	a5,11(s1)
	.loc 1 452 250 is_stmt 1
	.loc 1 453 7
	.loc 1 453 59 is_stmt 0
	lbu	a5,23(s0)
	.loc 1 453 25
	sb	a5,12(s1)
	.loc 1 453 68 is_stmt 1
	.loc 1 453 123 is_stmt 0
	lhu	a5,22(s0)
	.loc 1 453 89
	sb	a5,13(s1)
	.loc 1 453 132 is_stmt 1
	.loc 1 453 187 is_stmt 0
	lw	a5,20(s0)
	srli	a5,a5,8
	.loc 1 453 153
	sb	a5,14(s1)
	.loc 1 453 195 is_stmt 1
	.loc 1 453 216 is_stmt 0
	lw	a5,20(s0)
	sb	a5,15(s1)
	.loc 1 453 254 is_stmt 1
	.loc 1 454 7
	.loc 1 454 59 is_stmt 0
	lbu	a5,27(s0)
	.loc 1 454 25
	sb	a5,16(s1)
	.loc 1 454 68 is_stmt 1
	.loc 1 454 123 is_stmt 0
	lhu	a5,26(s0)
	.loc 1 454 89
	sb	a5,17(s1)
	.loc 1 454 132 is_stmt 1
	.loc 1 454 187 is_stmt 0
	lw	a5,24(s0)
	srli	a5,a5,8
	.loc 1 454 153
	sb	a5,18(s1)
	.loc 1 454 195 is_stmt 1
	.loc 1 454 216 is_stmt 0
	lw	a5,24(s0)
	sb	a5,19(s1)
	.loc 1 454 254 is_stmt 1
	.loc 1 456 5
.L30:
	.loc 1 457 1 is_stmt 0
	lw	ra,12(sp)
	.cfi_remember_state
	.cfi_restore 1
	lw	s0,8(sp)
	.cfi_restore 8
.LVL52:
	lw	s1,4(sp)
	.cfi_restore 9
.LVL53:
	lw	s2,0(sp)
	.cfi_restore 18
.LVL54:
	addi	sp,sp,16
	.cfi_def_cfa_offset 0
	jr	ra
.LVL55:
.L31:
	.cfi_restore_state
	.loc 1 426 9 is_stmt 1
	li	a2,64
	li	a1,0
	sub	a2,a2,a4
	call	memset
.LVL56:
	.loc 1 428 9
	.loc 1 428 21 is_stmt 0
	mv	a1,s2
	mv	a0,s0
	call	mbedtls_internal_sha1_process
.LVL57:
	.loc 1 428 11
	bne	a0,zero,.L30
	.loc 1 431 9 is_stmt 1
	li	a2,56
	li	a1,0
	mv	a0,s2
.LVL58:
	j	.L35
	.cfi_endproc
.LFE10:
	.size	mbedtls_sha1_finish_ret, .-mbedtls_sha1_finish_ret
	.section	.text.mbedtls_sha1_finish,"ax",@progbits
	.align	1
	.globl	mbedtls_sha1_finish
	.type	mbedtls_sha1_finish, @function
mbedtls_sha1_finish:
.LFB11:
	.loc 1 462 1
	.cfi_startproc
.LVL59:
	.loc 1 463 5
	tail	mbedtls_sha1_finish_ret
.LVL60:
	.cfi_endproc
.LFE11:
	.size	mbedtls_sha1_finish, .-mbedtls_sha1_finish
	.section	.text.mbedtls_sha1_ret,"ax",@progbits
	.align	1
	.globl	mbedtls_sha1_ret
	.type	mbedtls_sha1_ret, @function
mbedtls_sha1_ret:
.LFB12:
	.loc 1 475 1
	.cfi_startproc
.LVL61:
	.loc 1 476 5
	.loc 1 477 5
	.loc 1 479 5
	.loc 1 479 10
	.loc 1 479 17
	.loc 1 480 5
	.loc 1 480 10
	.loc 1 480 17
	.loc 1 482 5
	.loc 1 475 1 is_stmt 0
	addi	sp,sp,-128
	.cfi_def_cfa_offset 128
	sw	s2,112(sp)
	.cfi_offset 18, -16
	mv	s2,a0
	.loc 1 482 5
	addi	a0,sp,4
.LVL62:
	.loc 1 475 1
	sw	ra,124(sp)
	sw	s0,120(sp)
	sw	s1,116(sp)
	sw	s3,108(sp)
	.cfi_offset 1, -4
	.cfi_offset 8, -8
	.cfi_offset 9, -12
	.cfi_offset 19, -20
	.loc 1 475 1
	mv	s1,a2
	mv	s3,a1
	.loc 1 482 5
	call	mbedtls_sha1_init
.LVL63:
	.loc 1 484 5 is_stmt 1
	.loc 1 484 17 is_stmt 0
	addi	a0,sp,4
	call	mbedtls_sha1_starts_ret
.LVL64:
	mv	s0,a0
.LVL65:
	.loc 1 484 7
	bne	a0,zero,.L38
	.loc 1 487 5 is_stmt 1
	.loc 1 487 17 is_stmt 0
	mv	a2,s3
	mv	a1,s2
	addi	a0,sp,4
	call	mbedtls_sha1_update_ret
.LVL66:
	mv	s0,a0
.LVL67:
	.loc 1 487 7
	bne	a0,zero,.L38
	.loc 1 490 5 is_stmt 1
	.loc 1 490 17 is_stmt 0
	mv	a1,s1
	addi	a0,sp,4
	call	mbedtls_sha1_finish_ret
.LVL68:
	mv	s0,a0
.LVL69:
.L38:
	.loc 1 494 5 is_stmt 1
	addi	a0,sp,4
	call	mbedtls_sha1_free
.LVL70:
	.loc 1 496 5
	.loc 1 497 1 is_stmt 0
	lw	ra,124(sp)
	.cfi_restore 1
	mv	a0,s0
	lw	s0,120(sp)
	.cfi_restore 8
.LVL71:
	lw	s1,116(sp)
	.cfi_restore 9
.LVL72:
	lw	s2,112(sp)
	.cfi_restore 18
.LVL73:
	lw	s3,108(sp)
	.cfi_restore 19
.LVL74:
	addi	sp,sp,128
	.cfi_def_cfa_offset 0
	jr	ra
	.cfi_endproc
.LFE12:
	.size	mbedtls_sha1_ret, .-mbedtls_sha1_ret
	.section	.text.mbedtls_sha1,"ax",@progbits
	.align	1
	.globl	mbedtls_sha1
	.type	mbedtls_sha1, @function
mbedtls_sha1:
.LFB13:
	.loc 1 503 1 is_stmt 1
	.cfi_startproc
.LVL75:
	.loc 1 504 5
	tail	mbedtls_sha1_ret
.LVL76:
	.cfi_endproc
.LFE13:
	.size	mbedtls_sha1, .-mbedtls_sha1
	.text
.Letext0:
	.file 2 "/mnt/d/GitHub/bl_iot_sdk_for_aithinker/toolchain/riscv/Linux/lib/gcc/riscv64-unknown-elf/10.2.0/include/stddef.h"
	.file 3 "/mnt/d/GitHub/bl_iot_sdk_for_aithinker/toolchain/riscv/Linux/lib/gcc/riscv64-unknown-elf/10.2.0/include/stdint-gcc.h"
	.file 4 "/mnt/d/GitHub/bl_iot_sdk_for_aithinker/components/security/mbedtls_lts/mbedtls/include/mbedtls/sha1.h"
	.file 5 "/mnt/d/GitHub/bl_iot_sdk_for_aithinker/toolchain/riscv/Linux/riscv64-unknown-elf/include/string.h"
	.file 6 "/mnt/d/GitHub/bl_iot_sdk_for_aithinker/components/security/mbedtls_lts/mbedtls/include/mbedtls/platform_util.h"
	.file 7 "<built-in>"