	.file	"sha256.c"
	.option nopic
	.attribute arch, "rv32i2p0_m2p0_f2p0_c2p0"
	.attribute unaligned_access, 0
	.attribute stack_align, 16
	.text
.Ltext0:
	.cfi_sections	.debug_frame
	.section	.text.mbedtls_sha256_init,"ax",@progbits
	.align	1
	.globl	mbedtls_sha256_init
	.type	mbedtls_sha256_init, @function
mbedtls_sha256_init:
.LFB1:
	.file 1 "/mnt/d/GitHub/bl_iot_sdk_for_aithinker/components/security/mbedtls_lts/mbedtls/library/sha256.c"
	.loc 1 107 1
	.cfi_startproc
.LVL0:
	.loc 1 108 5
	.loc 1 108 10
	.loc 1 108 17
	.loc 1 110 5
	li	a2,108
	li	a1,0
	tail	memset
.LVL1:
	.cfi_endproc
.LFE1:
	.size	mbedtls_sha256_init, .-mbedtls_sha256_init
	.section	.text.mbedtls_sha256_free,"ax",@progbits
	.align	1
	.globl	mbedtls_sha256_free
	.type	mbedtls_sha256_free, @function
mbedtls_sha256_free:
.LFB2:
	.loc 1 114 1
	.cfi_startproc
.LVL2:
	.loc 1 115 5
	.loc 1 115 7 is_stmt 0
	beq	a0,zero,.L2
	.loc 1 118 5 is_stmt 1
	li	a1,108
	tail	mbedtls_platform_zeroize
.LVL3:
.L2:
	.loc 1 119 1 is_stmt 0
	ret
	.cfi_endproc
.LFE2:
	.size	mbedtls_sha256_free, .-mbedtls_sha256_free
	.section	.text.mbedtls_sha256_clone,"ax",@progbits
	.align	1
	.globl	mbedtls_sha256_clone
	.type	mbedtls_sha256_clone, @function
mbedtls_sha256_clone:
.LFB3:
	.loc 1 123 1 is_stmt 1
	.cfi_startproc
.LVL4:
	.loc 1 124 5
	.loc 1 124 10
	.loc 1 124 17
	.loc 1 125 5
	.loc 1 125 10
	.loc 1 125 17
	.loc 1 127 5
	.loc 1 123 1 is_stmt 0
	addi	sp,sp,-16
	.cfi_def_cfa_offset 16
	.loc 1 127 10
	li	a2,108
	.loc 1 123 1
	sw	ra,12(sp)
	.cfi_offset 1, -4
	.loc 1 127 10
	call	memcpy
.LVL5:
	.loc 1 128 1
	lw	ra,12(sp)
	.cfi_restore 1
	addi	sp,sp,16
	.cfi_def_cfa_offset 0
	jr	ra
	.cfi_endproc
.LFE3:
	.size	mbedtls_sha256_clone, .-mbedtls_sha256_clone
	.section	.text.mbedtls_sha256_starts_ret,"ax",@progbits
	.align	1
	.globl	mbedtls_sha256_starts_ret
	.type	mbedtls_sha256_starts_ret, @function
mbedtls_sha256_starts_ret:
.LFB4:
	.loc 1 134 1 is_stmt 1
	.cfi_startproc
.LVL6:
	.loc 1 135 5
	.loc 1 135 10
	.loc 1 135 17
	.loc 1 136 5
	.loc 1 136 10
	.loc 1 136 17
	.loc 1 138 5
	.loc 1 138 19 is_stmt 0
	sw	zero,0(a0)
	.loc 1 139 5 is_stmt 1
	.loc 1 139 19 is_stmt 0
	sw	zero,4(a0)
	.loc 1 141 5 is_stmt 1
	.loc 1 141 7 is_stmt 0
	bne	a1,zero,.L7
	.loc 1 144 9 is_stmt 1
	.loc 1 144 23 is_stmt 0
	li	a5,1779032064
	addi	a5,a5,1639
	sw	a5,8(a0)
	.loc 1 145 9 is_stmt 1
	.loc 1 145 23 is_stmt 0
	li	a5,-1150832640
	addi	a5,a5,-379
	sw	a5,12(a0)
	.loc 1 146 9 is_stmt 1
	.loc 1 146 23 is_stmt 0
	li	a5,1013903360
	addi	a5,a5,882
	sw	a5,16(a0)
	.loc 1 147 9 is_stmt 1
	.loc 1 147 23 is_stmt 0
	li	a5,-1521487872
	addi	a5,a5,1338
	sw	a5,20(a0)
	.loc 1 148 9 is_stmt 1
	.loc 1 148 23 is_stmt 0
	li	a5,1359892480
	addi	a5,a5,639
	sw	a5,24(a0)
	.loc 1 149 9 is_stmt 1
	.loc 1 149 23 is_stmt 0
	li	a5,-1694142464
	addi	a5,a5,-1908
	sw	a5,28(a0)
	.loc 1 150 9 is_stmt 1
	.loc 1 150 23 is_stmt 0
	li	a5,528736256
	addi	a5,a5,-1621
	sw	a5,32(a0)
	.loc 1 151 9 is_stmt 1
	.loc 1 151 23 is_stmt 0
	li	a5,1541459968
	addi	a5,a5,-743
.L9:
	.loc 1 163 23
	sw	a5,36(a0)
	.loc 1 166 5 is_stmt 1
	.loc 1 166 16 is_stmt 0
	sw	a1,104(a0)
	.loc 1 168 5 is_stmt 1
	.loc 1 169 1 is_stmt 0
	li	a0,0
.LVL7:
	ret
.LVL8:
.L7:
	.loc 1 156 9 is_stmt 1
	.loc 1 156 23 is_stmt 0
	li	a5,-1056595968
	addi	a5,a5,-296
	sw	a5,8(a0)
	.loc 1 157 9 is_stmt 1
	.loc 1 157 23 is_stmt 0
	li	a5,914149376
	addi	a5,a5,1287
	sw	a5,12(a0)
	.loc 1 158 9 is_stmt 1
	.loc 1 158 23 is_stmt 0
	li	a5,812703744
	addi	a5,a5,-745
	sw	a5,16(a0)
	.loc 1 159 9 is_stmt 1
	.loc 1 159 23 is_stmt 0
	li	a5,-150052864
	addi	a5,a5,-1735
	sw	a5,20(a0)
	.loc 1 160 9 is_stmt 1
	.loc 1 160 23 is_stmt 0
	li	a5,-4190208
	addi	a5,a5,-1231
	sw	a5,24(a0)
	.loc 1 161 9 is_stmt 1
	.loc 1 161 23 is_stmt 0
	li	a5,1750601728
	addi	a5,a5,1297
	sw	a5,28(a0)
	.loc 1 162 9 is_stmt 1
	.loc 1 162 23 is_stmt 0
	li	a5,1694076928
	addi	a5,a5,-89
	sw	a5,32(a0)
	.loc 1 163 9 is_stmt 1
	.loc 1 163 23 is_stmt 0
	li	a5,-1090891776
	addi	a5,a5,-92
	j	.L9
	.cfi_endproc
.LFE4:
	.size	mbedtls_sha256_starts_ret, .-mbedtls_sha256_starts_ret
	.section	.text.mbedtls_sha256_starts,"ax",@progbits
	.align	1
	.globl	mbedtls_sha256_starts
	.type	mbedtls_sha256_starts, @function
mbedtls_sha256_starts:
.LFB5:
	.loc 1 174 1 is_stmt 1
	.cfi_startproc
.LVL9:
	.loc 1 175 5
	tail	mbedtls_sha256_starts_ret
.LVL10:
	.cfi_endproc
.LFE5:
	.size	mbedtls_sha256_starts, .-mbedtls_sha256_starts
	.section	.text.mbedtls_internal_sha256_process,"ax",@progbits
	.align	1
	.globl	mbedtls_internal_sha256_process
	.type	mbedtls_internal_sha256_process, @function
mbedtls_internal_sha256_process:
.LFB6:
	.loc 1 228 1
	.cfi_startproc
.LVL11:
	.loc 1 229 5
	.loc 1 235 5
	.loc 1 237 5
	.loc 1 237 10
	.loc 1 237 17
	.loc 1 238 5
	.loc 1 238 10
	.loc 1 238 17
	.loc 1 240 5
	.loc 1 240 17
	.loc 1 228 1 is_stmt 0
	addi	sp,sp,-352
	.cfi_def_cfa_offset 352
	sw	s0,344(sp)
	sw	s3,332(sp)
	.cfi_offset 8, -8
	.cfi_offset 19, -20
	addi	s0,sp,8
	addi	s3,a0,8
	sw	s2,336(sp)
	sw	ra,348(sp)
	.cfi_offset 18, -16
	.cfi_offset 1, -4
	addi	s2,a0,40
	sw	s1,340(sp)
	sw	s4,328(sp)
	sw	s5,324(sp)
	sw	s6,320(sp)
	sw	s7,316(sp)
	sw	s8,312(sp)
	.cfi_offset 9, -12
	.cfi_offset 20, -24
	.cfi_offset 21, -28
	.cfi_offset 22, -32
	.cfi_offset 23, -36
	.cfi_offset 24, -40
	.loc 1 228 1
	mv	a4,s0
	mv	a5,s3
	mv	a0,s0
.LVL12:
.L12:
	.loc 1 241 9 is_stmt 1 discriminator 3
	.loc 1 241 20 is_stmt 0 discriminator 3
	lw	a3,0(a5)
	.loc 1 240 5 discriminator 3
	addi	a5,a5,4
	addi	a4,a4,4
	.loc 1 241 20 discriminator 3
	sw	a3,260(a4)
	.loc 1 240 24 is_stmt 1 discriminator 3
	.loc 1 240 17 discriminator 3
	.loc 1 240 5 is_stmt 0 discriminator 3
	bne	s2,a5,.L12
	addi	a2,a1,64
	.loc 1 240 5
	mv	a4,s0
.LVL13:
.L13:
	.loc 1 262 9 is_stmt 1 discriminator 3
	.loc 1 262 14 discriminator 3
	.loc 1 262 31 is_stmt 0 discriminator 3
	lbu	a5,0(a1)
	.loc 1 262 71 discriminator 3
	lbu	a3,1(a1)
	.loc 1 261 5 discriminator 3
	addi	a1,a1,4
	.loc 1 262 59 discriminator 3
	slli	a5,a5,24
	.loc 1 262 102 discriminator 3
	slli	a3,a3,16
	.loc 1 262 152 discriminator 3
	or	a5,a5,a3
	.loc 1 262 156 discriminator 3
	lbu	a3,-1(a1)
	.loc 1 261 5 discriminator 3
	addi	a4,a4,4
	.loc 1 262 152 discriminator 3
	or	a5,a5,a3
	.loc 1 262 114 discriminator 3
	lbu	a3,-2(a1)
	.loc 1 262 145 discriminator 3
	slli	a3,a3,8
	.loc 1 262 152 discriminator 3
	or	a5,a5,a3
	.loc 1 262 27 discriminator 3
	sw	a5,4(a4)
	.loc 1 262 197 is_stmt 1 discriminator 3
	.loc 1 261 25 discriminator 3
	.loc 1 261 17 discriminator 3
	.loc 1 261 5 is_stmt 0 discriminator 3
	bne	a2,a1,.L13
	lw	a1,300(sp)
	lw	a6,288(sp)
	lw	a7,296(sp)
	lw	a2,292(sp)
.LVL14:
	lw	t1,272(sp)
	lw	a3,276(sp)
	lw	a4,280(sp)
	lw	a5,284(sp)
	lui	t4,%hi(.LANCHOR0)
	addi	s1,t4,%lo(.LANCHOR0)
	addi	t6,s0,64
	.loc 1 261 5
	mv	t5,s0
	addi	t4,t4,%lo(.LANCHOR0)
.L14:
	.loc 1 266 9 is_stmt 1 discriminator 3
	.loc 1 266 14 discriminator 3
	.loc 1 266 82 is_stmt 0 discriminator 3
	slli	t0,a6,26
	srli	t3,a6,6
	.loc 1 266 155 discriminator 3
	slli	t2,a6,21
	.loc 1 266 82 discriminator 3
	or	t3,t3,t0
	.loc 1 266 155 discriminator 3
	srli	t0,a6,11
	or	t0,t0,t2
	.loc 1 266 114 discriminator 3
	xor	t3,t3,t0
	.loc 1 266 229 discriminator 3
	srli	t2,a6,25
	slli	t0,a6,7
	or	t0,t0,t2
	.loc 1 266 188 discriminator 3
	xor	t3,t3,t0
	.loc 1 266 348 discriminator 3
	lw	t2,8(t5)
	lw	t0,0(t4)
	.loc 1 264 5 discriminator 3
	addi	t5,t5,32
	addi	t4,t4,32
	.loc 1 266 348 discriminator 3
	add	t0,t0,t2
	add	t3,t3,t0
	.loc 1 266 317 discriminator 3
	xor	t0,a7,a2
	.loc 1 266 299 discriminator 3
	and	t0,t0,a6
	.loc 1 266 281 discriminator 3
	xor	t0,t0,a7
	.loc 1 266 348 discriminator 3
	add	t3,t3,t0
	add	a1,t3,a1
	.loc 1 266 366 is_stmt 1 discriminator 3
	.loc 1 266 694 discriminator 3
	.loc 1 266 419 is_stmt 0 discriminator 3
	slli	t0,t1,30
	srli	t3,t1,2
	.loc 1 266 492 discriminator 3
	slli	t2,t1,19
	.loc 1 266 419 discriminator 3
	or	t3,t3,t0
	.loc 1 266 492 discriminator 3
	srli	t0,t1,13
	or	t0,t0,t2
	.loc 1 266 451 discriminator 3
	xor	t3,t3,t0
	.loc 1 266 566 discriminator 3
	srli	t2,t1,22
	slli	t0,t1,10
	or	t0,t0,t2
	.loc 1 266 525 discriminator 3
	xor	t3,t3,t0
	.loc 1 266 673 discriminator 3
	or	t0,t1,a3
	.loc 1 266 619 discriminator 3
	and	t2,t1,a3
	.loc 1 266 655 discriminator 3
	and	t0,t0,a4
	.loc 1 266 637 discriminator 3
	or	t0,t0,t2
	.loc 1 266 600 discriminator 3
	add	t3,t3,t0
	.loc 1 266 707 discriminator 3
	add	a5,a1,a5
	.loc 1 266 723 is_stmt 1 discriminator 3
	.loc 1 268 348 is_stmt 0 discriminator 3
	lw	t0,-20(t5)
	.loc 1 266 750 discriminator 3
	add	a1,t3,a1
	.loc 1 266 772 is_stmt 1 discriminator 3
	.loc 1 268 9 discriminator 3
	.loc 1 268 14 discriminator 3
	.loc 1 268 348 is_stmt 0 discriminator 3
	lw	t3,-28(t4)
	.loc 1 268 155 discriminator 3
	slli	t2,a5,21
	.loc 1 268 348 discriminator 3
	add	t3,t3,t0
	add	a7,t3,a7
	.loc 1 268 317 discriminator 3
	xor	t3,a6,a2
	.loc 1 268 299 discriminator 3
	and	t3,t3,a5
	.loc 1 268 281 discriminator 3
	xor	t3,t3,a2
	.loc 1 268 348 discriminator 3
	add	a7,a7,t3
	.loc 1 268 82 discriminator 3
	srli	t0,a5,6
	slli	t3,a5,26
	or	t0,t0,t3
	.loc 1 268 155 discriminator 3
	srli	t3,a5,11
	or	t3,t3,t2
	.loc 1 268 114 discriminator 3
	xor	t0,t0,t3
	.loc 1 268 229 discriminator 3
	srli	t2,a5,25
	slli	t3,a5,7
	or	t3,t3,t2
	.loc 1 268 188 discriminator 3
	xor	t3,t0,t3
	.loc 1 268 348 discriminator 3
	add	t3,a7,t3
	.loc 1 268 366 is_stmt 1 discriminator 3
	.loc 1 268 694 discriminator 3
	.loc 1 268 419 is_stmt 0 discriminator 3
	slli	t0,a1,30
	srli	a7,a1,2
	.loc 1 268 492 discriminator 3
	slli	t2,a1,19
	.loc 1 268 419 discriminator 3
	or	a7,a7,t0
	.loc 1 268 492 discriminator 3
	srli	t0,a1,13
	or	t0,t0,t2
	.loc 1 268 451 discriminator 3
	xor	a7,a7,t0
	.loc 1 268 566 discriminator 3
	srli	t2,a1,22
	slli	t0,a1,10
	or	t0,t0,t2
	.loc 1 268 525 discriminator 3
	xor	a7,a7,t0
	.loc 1 268 673 discriminator 3
	or	t0,a1,t1
	.loc 1 268 619 discriminator 3
	and	t2,a1,t1
	.loc 1 268 655 discriminator 3
	and	t0,t0,a3
	.loc 1 268 637 discriminator 3
	or	t0,t0,t2
	.loc 1 268 600 discriminator 3
	add	a7,a7,t0
	.loc 1 268 750 discriminator 3
	add	a7,a7,t3
	.loc 1 268 707 discriminator 3
	add	a4,t3,a4
	.loc 1 268 723 is_stmt 1 discriminator 3
	.loc 1 268 772 discriminator 3
	.loc 1 270 9 discriminator 3
	.loc 1 270 14 discriminator 3
	.loc 1 270 348 is_stmt 0 discriminator 3
	lw	t0,-16(t5)
	lw	t3,-24(t4)
	.loc 1 270 155 discriminator 3
	slli	t2,a4,21
	.loc 1 270 348 discriminator 3
	add	t3,t3,t0
	add	a2,t3,a2
	.loc 1 270 317 discriminator 3
	xor	t3,a5,a6
	.loc 1 270 299 discriminator 3
	and	t3,t3,a4
	.loc 1 270 281 discriminator 3
	xor	t3,t3,a6
	.loc 1 270 348 discriminator 3
	add	a2,a2,t3
	.loc 1 270 82 discriminator 3
	srli	t0,a4,6
	slli	t3,a4,26
	or	t0,t0,t3
	.loc 1 270 155 discriminator 3
	srli	t3,a4,11
	or	t3,t3,t2
	.loc 1 270 114 discriminator 3
	xor	t0,t0,t3
	.loc 1 270 229 discriminator 3
	srli	t2,a4,25
	slli	t3,a4,7
	or	t3,t3,t2
	.loc 1 270 188 discriminator 3
	xor	t3,t0,t3
	.loc 1 270 348 discriminator 3
	add	t3,a2,t3
	.loc 1 270 366 is_stmt 1 discriminator 3
	.loc 1 270 694 discriminator 3
	.loc 1 270 419 is_stmt 0 discriminator 3
	slli	t0,a7,30
	srli	a2,a7,2
	.loc 1 270 492 discriminator 3
	slli	t2,a7,19
	.loc 1 270 419 discriminator 3
	or	a2,a2,t0
	.loc 1 270 492 discriminator 3
	srli	t0,a7,13
	or	t0,t0,t2
	.loc 1 270 451 discriminator 3
	xor	a2,a2,t0
	.loc 1 270 566 discriminator 3
	srli	t2,a7,22
	slli	t0,a7,10
	or	t0,t0,t2
	.loc 1 270 525 discriminator 3
	xor	a2,a2,t0
	.loc 1 270 673 discriminator 3
	or	t0,a1,a7
	.loc 1 270 619 discriminator 3
	and	t2,a1,a7
	.loc 1 270 655 discriminator 3
	and	t0,t0,t1
	.loc 1 270 637 discriminator 3
	or	t0,t0,t2
	.loc 1 270 600 discriminator 3
	add	a2,a2,t0
	.loc 1 270 750 discriminator 3
	add	a2,a2,t3
	.loc 1 270 707 discriminator 3
	add	a3,t3,a3
	.loc 1 270 723 is_stmt 1 discriminator 3
	.loc 1 270 772 discriminator 3
	.loc 1 272 9 discriminator 3
	.loc 1 272 14 discriminator 3
	.loc 1 272 348 is_stmt 0 discriminator 3
	lw	t0,-12(t5)
	lw	t3,-20(t4)
	.loc 1 272 155 discriminator 3
	slli	t2,a3,21
	.loc 1 272 348 discriminator 3
	add	t3,t3,t0
	add	a6,t3,a6
	.loc 1 272 317 discriminator 3
	xor	t3,a5,a4
	.loc 1 272 299 discriminator 3
	and	t3,t3,a3
	.loc 1 272 281 discriminator 3
	xor	t3,t3,a5
	.loc 1 272 348 discriminator 3
	add	a6,a6,t3
	.loc 1 272 82 discriminator 3
	srli	t0,a3,6
	slli	t3,a3,26
	or	t0,t0,t3
	.loc 1 272 155 discriminator 3
	srli	t3,a3,11
	or	t3,t3,t2
	.loc 1 272 114 discriminator 3
	xor	t0,t0,t3
	.loc 1 272 229 discriminator 3
	srli	t2,a3,25
	slli	t3,a3,7
	or	t3,t3,t2
	.loc 1 272 188 discriminator 3
	xor	t3,t0,t3
	.loc 1 272 348 discriminator 3
	add	t3,a6,t3
	.loc 1 272 366 is_stmt 1 discriminator 3
	.loc 1 272 694 discriminator 3
	.loc 1 272 419 is_stmt 0 discriminator 3
	slli	t0,a2,30
	srli	a6,a2,2
	.loc 1 272 492 discriminator 3
	slli	t2,a2,19
	.loc 1 272 419 discriminator 3
	or	a6,a6,t0
	.loc 1 272 492 discriminator 3
	srli	t0,a2,13
	or	t0,t0,t2
	.loc 1 272 451 discriminator 3
	xor	a6,a6,t0
	.loc 1 272 566 discriminator 3
	srli	t2,a2,22
	slli	t0,a2,10
	or	t0,t0,t2
	.loc 1 272 525 discriminator 3
	xor	a6,a6,t0
	.loc 1 272 673 discriminator 3
	or	t0,a7,a2
	.loc 1 272 619 discriminator 3
	and	t2,a7,a2
	.loc 1 272 655 discriminator 3
	and	t0,t0,a1
	.loc 1 272 637 discriminator 3
	or	t0,t0,t2
	.loc 1 272 600 discriminator 3
	add	a6,a6,t0
	.loc 1 272 750 discriminator 3
	add	a6,a6,t3
	.loc 1 272 707 discriminator 3
	add	t1,t3,t1
	.loc 1 272 723 is_stmt 1 discriminator 3
	.loc 1 272 772 discriminator 3
	.loc 1 274 9 discriminator 3
	.loc 1 274 14 discriminator 3
	.loc 1 274 348 is_stmt 0 discriminator 3
	lw	t0,-8(t5)
	lw	t3,-16(t4)
	.loc 1 274 155 discriminator 3
	slli	t2,t1,21
	.loc 1 274 348 discriminator 3
	add	t3,t3,t0
	add	a5,t3,a5
	.loc 1 274 317 discriminator 3
	xor	t3,a4,a3
	.loc 1 274 299 discriminator 3
	and	t3,t3,t1
	.loc 1 274 281 discriminator 3
	xor	t3,t3,a4
	.loc 1 274 348 discriminator 3
	add	a5,a5,t3
	.loc 1 274 82 discriminator 3
	srli	t0,t1,6
	slli	t3,t1,26
	or	t0,t0,t3
	.loc 1 274 155 discriminator 3
	srli	t3,t1,11
	or	t3,t3,t2
	.loc 1 274 114 discriminator 3
	xor	t0,t0,t3
	.loc 1 274 229 discriminator 3
	srli	t2,t1,25
	slli	t3,t1,7
	or	t3,t3,t2
	.loc 1 274 188 discriminator 3
	xor	t3,t0,t3
	.loc 1 274 348 discriminator 3
	add	t3,a5,t3
	.loc 1 274 366 is_stmt 1 discriminator 3
	.loc 1 274 694 discriminator 3
	.loc 1 274 419 is_stmt 0 discriminator 3
	slli	t0,a6,30
	srli	a5,a6,2
	.loc 1 274 492 discriminator 3
	slli	t2,a6,19
	.loc 1 274 419 discriminator 3
	or	a5,a5,t0
	.loc 1 274 492 discriminator 3
	srli	t0,a6,13
	or	t0,t0,t2
	.loc 1 274 451 discriminator 3
	xor	a5,a5,t0
	.loc 1 274 566 discriminator 3
	srli	t2,a6,22
	slli	t0,a6,10
	or	t0,t0,t2
	.loc 1 274 525 discriminator 3
	xor	a5,a5,t0
	.loc 1 274 673 discriminator 3
	or	t0,a2,a6
	.loc 1 274 619 discriminator 3
	and	t2,a2,a6
	.loc 1 274 655 discriminator 3
	and	t0,t0,a7
	.loc 1 274 637 discriminator 3
	or	t0,t0,t2
	.loc 1 274 600 discriminator 3
	add	a5,a5,t0
	.loc 1 274 750 discriminator 3
	add	a5,a5,t3
	.loc 1 274 707 discriminator 3
	add	a1,a1,t3
	.loc 1 274 723 is_stmt 1 discriminator 3
	.loc 1 274 772 discriminator 3
	.loc 1 276 9 discriminator 3
	.loc 1 276 14 discriminator 3
	.loc 1 276 348 is_stmt 0 discriminator 3
	lw	t0,-4(t5)
	lw	t3,-12(t4)
	.loc 1 276 155 discriminator 3
	slli	t2,a1,21
	.loc 1 276 348 discriminator 3
	add	t3,t3,t0
	add	a4,t3,a4
	.loc 1 276 317 discriminator 3
	xor	t3,a3,t1
	.loc 1 276 299 discriminator 3
	and	t3,t3,a1
	.loc 1 276 281 discriminator 3
	xor	t3,t3,a3
	.loc 1 276 348 discriminator 3
	add	a4,a4,t3
	.loc 1 276 82 discriminator 3
	srli	t0,a1,6
	slli	t3,a1,26
	or	t0,t0,t3
	.loc 1 276 155 discriminator 3
	srli	t3,a1,11
	or	t3,t3,t2
	.loc 1 276 114 discriminator 3
	xor	t0,t0,t3
	.loc 1 276 229 discriminator 3
	srli	t2,a1,25
	slli	t3,a1,7
	or	t3,t3,t2
	.loc 1 276 188 discriminator 3
	xor	t3,t0,t3
	.loc 1 276 348 discriminator 3
	add	t3,a4,t3
	.loc 1 276 366 is_stmt 1 discriminator 3
	.loc 1 276 694 discriminator 3
	.loc 1 276 419 is_stmt 0 discriminator 3
	slli	t0,a5,30
	srli	a4,a5,2
	or	a4,a4,t0
	.loc 1 276 492 discriminator 3
	slli	t2,a5,19
	srli	t0,a5,13
	or	t0,t0,t2
	.loc 1 276 451 discriminator 3
	xor	a4,a4,t0
	.loc 1 276 566 discriminator 3
	srli	t2,a5,22
	slli	t0,a5,10
	or	t0,t0,t2
	.loc 1 276 525 discriminator 3
	xor	a4,a4,t0
	.loc 1 276 673 discriminator 3
	or	t0,a6,a5
	.loc 1 276 619 discriminator 3
	and	t2,a6,a5
	.loc 1 276 655 discriminator 3
	and	t0,t0,a2
	.loc 1 276 637 discriminator 3
	or	t0,t0,t2
	.loc 1 276 600 discriminator 3
	add	a4,a4,t0
	.loc 1 276 750 discriminator 3
	add	a4,a4,t3
	.loc 1 276 707 discriminator 3
	add	a7,a7,t3
	.loc 1 276 723 is_stmt 1 discriminator 3
	.loc 1 276 772 discriminator 3
	.loc 1 278 9 discriminator 3
	.loc 1 278 14 discriminator 3
	.loc 1 278 348 is_stmt 0 discriminator 3
	lw	t0,0(t5)
	lw	t3,-8(t4)
	.loc 1 278 155 discriminator 3
	slli	t2,a7,21
	.loc 1 278 348 discriminator 3
	add	t3,t3,t0
	add	a3,t3,a3
	.loc 1 278 317 discriminator 3
	xor	t3,t1,a1
	.loc 1 278 299 discriminator 3
	and	t3,t3,a7
	.loc 1 278 281 discriminator 3
	xor	t3,t3,t1
	.loc 1 278 348 discriminator 3
	add	a3,a3,t3
	.loc 1 278 82 discriminator 3
	srli	t0,a7,6
	slli	t3,a7,26
	or	t0,t0,t3
	.loc 1 278 155 discriminator 3
	srli	t3,a7,11
	or	t3,t3,t2
	.loc 1 278 114 discriminator 3
	xor	t0,t0,t3
	.loc 1 278 229 discriminator 3
	srli	t2,a7,25
	slli	t3,a7,7
	or	t3,t3,t2
	.loc 1 278 188 discriminator 3
	xor	t3,t0,t3
	.loc 1 278 348 discriminator 3
	add	t3,a3,t3
	.loc 1 278 366 is_stmt 1 discriminator 3
	.loc 1 278 694 discriminator 3
	.loc 1 278 419 is_stmt 0 discriminator 3
	slli	t0,a4,30
	srli	a3,a4,2
	or	a3,a3,t0
	.loc 1 278 492 discriminator 3
	slli	t2,a4,19
	srli	t0,a4,13
	or	t0,t0,t2
	.loc 1 278 451 discriminator 3
	xor	a3,a3,t0
	.loc 1 278 566 discriminator 3
	srli	t2,a4,22
	slli	t0,a4,10
	or	t0,t0,t2
	.loc 1 278 525 discriminator 3
	xor	a3,a3,t0
	.loc 1 278 673 discriminator 3
	or	t0,a5,a4
	.loc 1 278 655 discriminator 3
	and	t0,t0,a6
	.loc 1 278 619 discriminator 3
	and	t2,a5,a4
	.loc 1 278 637 discriminator 3
	or	t0,t0,t2
	.loc 1 278 600 discriminator 3
	add	a3,a3,t0
	.loc 1 278 750 discriminator 3
	add	a3,a3,t3
	.loc 1 278 707 discriminator 3
	add	a2,a2,t3
	.loc 1 278 723 is_stmt 1 discriminator 3
	.loc 1 278 772 discriminator 3
	.loc 1 280 9 discriminator 3
	.loc 1 280 14 discriminator 3
	.loc 1 280 348 is_stmt 0 discriminator 3
	lw	t0,4(t5)
	lw	t3,-4(t4)
	.loc 1 280 155 discriminator 3
	slli	t2,a2,21
	.loc 1 280 348 discriminator 3
	add	t3,t3,t0
	add	t1,t3,t1
	.loc 1 280 317 discriminator 3
	xor	t3,a1,a7
	.loc 1 280 299 discriminator 3
	and	t3,t3,a2
	.loc 1 280 281 discriminator 3
	xor	t3,t3,a1
	.loc 1 280 348 discriminator 3
	add	t1,t1,t3
	.loc 1 280 82 discriminator 3
	srli	t0,a2,6
	slli	t3,a2,26
	or	t0,t0,t3
	.loc 1 280 155 discriminator 3
	srli	t3,a2,11
	or	t3,t3,t2
	.loc 1 280 114 discriminator 3
	xor	t0,t0,t3
	.loc 1 280 229 discriminator 3
	srli	t2,a2,25
	slli	t3,a2,7
	or	t3,t3,t2
	.loc 1 280 188 discriminator 3
	xor	t0,t0,t3
	.loc 1 280 348 discriminator 3
	add	t3,t1,t0
	.loc 1 280 366 is_stmt 1 discriminator 3
	.loc 1 280 419 is_stmt 0 discriminator 3
	slli	t1,a3,30
	srli	t0,a3,2
	or	t0,t0,t1
	.loc 1 280 492 discriminator 3
	slli	t2,a3,19
	srli	t1,a3,13
	or	t1,t1,t2
	.loc 1 280 451 discriminator 3
	xor	t0,t0,t1
	.loc 1 280 566 discriminator 3
	srli	t2,a3,22
	slli	t1,a3,10
	or	t1,t1,t2
	.loc 1 280 525 discriminator 3
	xor	t0,t0,t1
	.loc 1 280 673 discriminator 3
	or	t1,a4,a3
	.loc 1 280 655 discriminator 3
	and	t1,t1,a5
	.loc 1 280 619 discriminator 3
	and	t2,a4,a3
	.loc 1 280 637 discriminator 3
	or	t1,t1,t2
	.loc 1 280 600 discriminator 3
	add	t0,t0,t1
	.loc 1 280 694 is_stmt 1 discriminator 3
	.loc 1 280 707 is_stmt 0 discriminator 3
	add	a6,a6,t3
	.loc 1 280 723 is_stmt 1 discriminator 3
	.loc 1 280 750 is_stmt 0 discriminator 3
	add	t1,t3,t0
	.loc 1 280 772 is_stmt 1 discriminator 3
	.loc 1 264 25 discriminator 3
	.loc 1 264 17 discriminator 3
	.loc 1 264 5 is_stmt 0 discriminator 3
	bne	t6,t5,.L14
	sw	t3,8(sp)
	sw	a1,300(sp)
	sw	a6,288(sp)
	sw	a7,296(sp)
	sw	a2,292(sp)
	sw	t1,272(sp)
	sw	a3,276(sp)
	sw	a4,280(sp)
	sw	a5,284(sp)
	sw	t0,12(sp)
	addi	s4,s0,192
	.loc 1 264 5
	mv	t3,s0
.L15:
	.loc 1 286 9 is_stmt 1 discriminator 3
	.loc 1 286 14 discriminator 3
	.loc 1 286 380 is_stmt 0 discriminator 3
	lw	s5,64(t3)
	.loc 1 286 631 discriminator 3
	lw	t5,12(t3)
	.loc 1 288 380 discriminator 3
	lw	s6,68(t3)
	.loc 1 286 416 discriminator 3
	srli	t6,s5,17
	slli	t4,s5,15
	.loc 1 286 506 discriminator 3
	srli	t0,s5,19
	.loc 1 286 416 discriminator 3
	or	t4,t4,t6
	.loc 1 286 506 discriminator 3
	slli	t6,s5,13
	or	t6,t6,t0
	.loc 1 286 457 discriminator 3
	xor	t4,t4,t6
	.loc 1 286 586 discriminator 3
	srli	t6,s5,10
	.loc 1 286 849 discriminator 3
	lw	t0,8(t3)
	.loc 1 286 547 discriminator 3
	xor	t4,t4,t6
	.loc 1 286 849 discriminator 3
	lw	t6,44(t3)
	.loc 1 286 758 discriminator 3
	srli	t2,t5,18
	.loc 1 288 416 discriminator 3
	slli	ra,s6,15
	.loc 1 286 849 discriminator 3
	add	t6,t6,t0
	add	t4,t4,t6
	.loc 1 286 667 discriminator 3
	slli	t0,t5,25
	srli	t6,t5,7
	or	t6,t6,t0
	.loc 1 286 758 discriminator 3
	slli	t0,t5,14
	or	t0,t0,t2
	.loc 1 286 708 discriminator 3
	xor	t6,t6,t0
	.loc 1 286 840 discriminator 3
	srli	t0,t5,3
	.loc 1 286 800 discriminator 3
	xor	t6,t6,t0
	.loc 1 286 849 discriminator 3
	add	t4,t4,t6
	.loc 1 286 82 discriminator 3
	slli	t0,a6,26
	srli	t6,a6,6
	.loc 1 286 155 discriminator 3
	slli	t2,a6,21
	.loc 1 286 82 discriminator 3
	or	t6,t6,t0
	.loc 1 286 155 discriminator 3
	srli	t0,a6,11
	or	t0,t0,t2
	.loc 1 286 114 discriminator 3
	xor	t6,t6,t0
	.loc 1 286 229 discriminator 3
	srli	t2,a6,25
	slli	t0,a6,7
	or	t0,t0,t2
	.loc 1 286 188 discriminator 3
	xor	t6,t6,t0
	.loc 1 286 317 discriminator 3
	xor	t0,a7,a2
	.loc 1 286 299 discriminator 3
	and	t0,t0,a6
	.loc 1 286 281 discriminator 3
	xor	t0,t0,a7
	add	t6,t6,t0
	lw	t0,64(s1)
	.loc 1 286 1001 discriminator 3
	slli	t2,t1,19
	.loc 1 290 631 discriminator 3
	lw	s7,20(t3)
	add	t6,t6,t0
	add	t6,t6,t4
	.loc 1 286 348 discriminator 3
	add	a1,a1,t6
	.loc 1 286 875 is_stmt 1 discriminator 3
	.loc 1 286 1203 discriminator 3
	.loc 1 286 928 is_stmt 0 discriminator 3
	slli	t0,t1,30
	srli	t6,t1,2
	or	t6,t6,t0
	.loc 1 286 1001 discriminator 3
	srli	t0,t1,13
	or	t0,t0,t2
	.loc 1 286 960 discriminator 3
	xor	t6,t6,t0
	.loc 1 286 1075 discriminator 3
	srli	t2,t1,22
	slli	t0,t1,10
	or	t0,t0,t2
	.loc 1 286 1034 discriminator 3
	xor	t6,t6,t0
	.loc 1 286 1182 discriminator 3
	or	t0,t1,a3
	.loc 1 286 1128 discriminator 3
	and	t2,t1,a3
	.loc 1 286 1164 discriminator 3
	and	t0,t0,a4
	.loc 1 286 1146 discriminator 3
	or	t0,t0,t2
	.loc 1 286 1109 discriminator 3
	add	t6,t6,t0
	.loc 1 288 416 discriminator 3
	srli	t0,s6,17
	.loc 1 288 506 discriminator 3
	srli	t2,s6,19
	.loc 1 288 416 discriminator 3
	or	ra,ra,t0
	.loc 1 288 506 discriminator 3
	slli	t0,s6,13
	or	t0,t0,t2
	.loc 1 288 457 discriminator 3
	xor	ra,ra,t0
	.loc 1 288 586 discriminator 3
	srli	t0,s6,10
	.loc 1 288 547 discriminator 3
	xor	ra,ra,t0
	.loc 1 288 849 discriminator 3
	lw	t0,48(t3)
	.loc 1 286 1216 discriminator 3
	add	a5,a5,a1
	.loc 1 286 1232 is_stmt 1 discriminator 3
	.loc 1 286 1259 is_stmt 0 discriminator 3
	add	a1,t6,a1
	.loc 1 286 1281 is_stmt 1 discriminator 3
	.loc 1 288 9 discriminator 3
	.loc 1 288 14 discriminator 3
	.loc 1 288 631 is_stmt 0 discriminator 3
	lw	t6,16(t3)
	.loc 1 288 849 discriminator 3
	add	t5,t5,t0
	add	ra,ra,t5
	.loc 1 288 667 discriminator 3
	srli	t0,t6,7
	slli	t5,t6,25
	.loc 1 288 758 discriminator 3
	srli	t2,t6,18
	.loc 1 288 667 discriminator 3
	or	t0,t0,t5
	.loc 1 288 758 discriminator 3
	slli	t5,t6,14
	or	t5,t5,t2
	.loc 1 288 708 discriminator 3
	xor	t0,t0,t5
	.loc 1 288 840 discriminator 3
	srli	t5,t6,3
	.loc 1 288 800 discriminator 3
	xor	t0,t0,t5
	.loc 1 288 849 discriminator 3
	add	ra,ra,t0
	lw	t0,68(s1)
	.loc 1 288 317 discriminator 3
	xor	t5,a6,a2
	.loc 1 288 299 discriminator 3
	and	t5,t5,a5
	add	a7,a7,t0
	add	a7,a7,ra
	.loc 1 288 281 discriminator 3
	xor	t5,t5,a2
	.loc 1 288 82 discriminator 3
	slli	t0,a5,26
	add	t5,t5,a7
	srli	a7,a5,6
	.loc 1 288 155 discriminator 3
	slli	t2,a5,21
	.loc 1 288 82 discriminator 3
	or	a7,a7,t0
	.loc 1 288 155 discriminator 3
	srli	t0,a5,11
	or	t0,t0,t2
	.loc 1 288 114 discriminator 3
	xor	a7,a7,t0
	.loc 1 288 229 discriminator 3
	srli	t2,a5,25
	slli	t0,a5,7
	or	t0,t0,t2
	.loc 1 288 188 discriminator 3
	xor	a7,a7,t0
	.loc 1 288 348 discriminator 3
	add	t5,a7,t5
	.loc 1 288 875 is_stmt 1 discriminator 3
	.loc 1 288 1203 discriminator 3
	.loc 1 288 928 is_stmt 0 discriminator 3
	slli	t0,a1,30
	srli	a7,a1,2
	.loc 1 288 1001 discriminator 3
	slli	t2,a1,19
	.loc 1 288 928 discriminator 3
	or	a7,a7,t0
	.loc 1 288 1001 discriminator 3
	srli	t0,a1,13
	or	t0,t0,t2
	.loc 1 288 960 discriminator 3
	xor	a7,a7,t0
	.loc 1 288 1075 discriminator 3
	srli	t2,a1,22
	slli	t0,a1,10
	or	t0,t0,t2
	.loc 1 288 1034 discriminator 3
	xor	a7,a7,t0
	.loc 1 288 1182 discriminator 3
	or	t0,t1,a1
	.loc 1 288 1128 discriminator 3
	and	t2,t1,a1
	.loc 1 288 1164 discriminator 3
	and	t0,t0,a3
	.loc 1 288 1146 discriminator 3
	or	t0,t0,t2
	.loc 1 288 1109 discriminator 3
	add	a7,a7,t0
	.loc 1 288 1259 discriminator 3
	add	a7,a7,t5
	.loc 1 288 1216 discriminator 3
	add	a4,a4,t5
	.loc 1 288 1232 is_stmt 1 discriminator 3
	.loc 1 288 1281 discriminator 3
	.loc 1 290 9 discriminator 3
	.loc 1 290 14 discriminator 3
	.loc 1 290 416 is_stmt 0 discriminator 3
	slli	t2,t4,15
	srli	t5,t4,17
	.loc 1 290 506 discriminator 3
	srli	t0,t4,19
	.loc 1 290 416 discriminator 3
	or	t2,t2,t5
	.loc 1 290 506 discriminator 3
	slli	t5,t4,13
	or	t5,t5,t0
	.loc 1 290 457 discriminator 3
	xor	t2,t2,t5
	.loc 1 290 586 discriminator 3
	srli	t5,t4,10
	.loc 1 290 547 discriminator 3
	xor	t2,t2,t5
	.loc 1 290 849 discriminator 3
	lw	t5,52(t3)
	.loc 1 290 758 discriminator 3
	srli	t0,s7,18
	.loc 1 292 506 discriminator 3
	srli	s8,ra,19
	.loc 1 290 849 discriminator 3
	add	t6,t6,t5
	add	t2,t2,t6
	.loc 1 290 667 discriminator 3
	slli	t5,s7,25
	srli	t6,s7,7
	or	t6,t6,t5
	.loc 1 290 758 discriminator 3
	slli	t5,s7,14
	or	t5,t5,t0
	.loc 1 290 708 discriminator 3
	xor	t6,t6,t5
	.loc 1 290 840 discriminator 3
	srli	t5,s7,3
	.loc 1 290 800 discriminator 3
	xor	t6,t6,t5
	.loc 1 290 849 discriminator 3
	add	t2,t2,t6
	lw	t6,72(s1)
	.loc 1 290 317 discriminator 3
	xor	t5,a6,a5
	.loc 1 290 299 discriminator 3
	and	t5,t5,a4
	add	a2,a2,t6
	add	a2,a2,t2
	.loc 1 290 281 discriminator 3
	xor	t5,t5,a6
	.loc 1 290 82 discriminator 3
	slli	t6,a4,26
	add	t5,t5,a2
	srli	a2,a4,6
	.loc 1 290 155 discriminator 3
	slli	t0,a4,21
	.loc 1 290 82 discriminator 3
	or	a2,a2,t6
	.loc 1 290 155 discriminator 3
	srli	t6,a4,11
	or	t6,t6,t0
	.loc 1 290 114 discriminator 3
	xor	a2,a2,t6
	.loc 1 290 229 discriminator 3
	srli	t0,a4,25
	slli	t6,a4,7
	or	t6,t6,t0
	.loc 1 290 188 discriminator 3
	xor	a2,a2,t6
	.loc 1 290 348 discriminator 3
	add	t5,a2,t5
	.loc 1 290 875 is_stmt 1 discriminator 3
	.loc 1 290 1203 discriminator 3
	.loc 1 290 928 is_stmt 0 discriminator 3
	slli	t6,a7,30
	srli	a2,a7,2
	.loc 1 290 1001 discriminator 3
	slli	t0,a7,19
	.loc 1 290 928 discriminator 3
	or	a2,a2,t6
	.loc 1 290 1001 discriminator 3
	srli	t6,a7,13
	or	t6,t6,t0
	.loc 1 290 960 discriminator 3
	xor	a2,a2,t6
	.loc 1 290 1075 discriminator 3
	srli	t0,a7,22
	slli	t6,a7,10
	or	t6,t6,t0
	.loc 1 290 1034 discriminator 3
	xor	a2,a2,t6
	.loc 1 290 1182 discriminator 3
	or	t6,a1,a7
	.loc 1 290 1128 discriminator 3
	and	t0,a1,a7
	.loc 1 290 1164 discriminator 3
	and	t6,t6,t1
	.loc 1 290 1146 discriminator 3
	or	t6,t6,t0
	.loc 1 290 1109 discriminator 3
	add	a2,a2,t6
	.loc 1 292 416 discriminator 3
	slli	t0,ra,15
	srli	t6,ra,17
	or	t0,t0,t6
	.loc 1 292 506 discriminator 3
	slli	t6,ra,13
	or	t6,t6,s8
	.loc 1 292 457 discriminator 3
	xor	t0,t0,t6
	.loc 1 288 366 discriminator 3
	sw	ra,76(t3)
	.loc 1 292 586 discriminator 3
	srli	ra,ra,10
	.loc 1 292 547 discriminator 3
	xor	ra,t0,ra
	.loc 1 292 849 discriminator 3
	lw	t0,56(t3)
	.loc 1 290 1259 discriminator 3
	add	a2,a2,t5
	.loc 1 290 1216 discriminator 3
	add	a3,a3,t5
	.loc 1 290 1232 is_stmt 1 discriminator 3
	.loc 1 290 1281 discriminator 3
	.loc 1 292 9 discriminator 3
	.loc 1 292 14 discriminator 3
	.loc 1 292 631 is_stmt 0 discriminator 3
	lw	t5,24(t3)
	.loc 1 292 849 discriminator 3
	add	s7,s7,t0
	add	t0,ra,s7
	.loc 1 292 667 discriminator 3
	srli	t6,t5,7
	slli	ra,t5,25
	.loc 1 292 758 discriminator 3
	srli	s7,t5,18
	.loc 1 292 667 discriminator 3
	or	t6,t6,ra
	.loc 1 292 758 discriminator 3
	slli	ra,t5,14
	or	ra,ra,s7
	.loc 1 292 708 discriminator 3
	xor	t6,t6,ra
	.loc 1 292 840 discriminator 3
	srli	ra,t5,3
	.loc 1 292 800 discriminator 3
	xor	t6,t6,ra
	lw	ra,76(s1)
	.loc 1 292 849 discriminator 3
	add	t0,t0,t6
	.loc 1 292 317 discriminator 3
	xor	t6,a5,a4
	.loc 1 292 299 discriminator 3
	and	t6,t6,a3
	add	a6,a6,ra
	add	a6,a6,t0
	.loc 1 292 281 discriminator 3
	xor	t6,t6,a5
	.loc 1 292 82 discriminator 3
	slli	ra,a3,26
	add	t6,t6,a6
	srli	a6,a3,6
	.loc 1 292 155 discriminator 3
	slli	s7,a3,21
	.loc 1 292 82 discriminator 3
	or	a6,a6,ra
	.loc 1 292 155 discriminator 3
	srli	ra,a3,11
	or	ra,ra,s7
	.loc 1 292 114 discriminator 3
	xor	a6,a6,ra
	.loc 1 292 229 discriminator 3
	srli	s7,a3,25
	slli	ra,a3,7
	or	ra,ra,s7
	.loc 1 292 188 discriminator 3
	xor	a6,a6,ra
	.loc 1 292 348 discriminator 3
	add	t6,a6,t6
	.loc 1 292 875 is_stmt 1 discriminator 3
	.loc 1 292 1203 discriminator 3
	.loc 1 292 928 is_stmt 0 discriminator 3
	slli	ra,a2,30
	srli	a6,a2,2
	.loc 1 292 1001 discriminator 3
	slli	s7,a2,19
	.loc 1 292 928 discriminator 3
	or	a6,a6,ra
	.loc 1 292 1001 discriminator 3
	srli	ra,a2,13
	or	ra,ra,s7
	.loc 1 292 960 discriminator 3
	xor	a6,a6,ra
	.loc 1 292 1075 discriminator 3
	srli	s7,a2,22
	slli	ra,a2,10
	or	ra,ra,s7
	.loc 1 292 1034 discriminator 3
	xor	a6,a6,ra
	.loc 1 292 1182 discriminator 3
	or	ra,a7,a2
	.loc 1 292 1128 discriminator 3
	and	s7,a7,a2
	.loc 1 292 1164 discriminator 3
	and	ra,ra,a1
	.loc 1 292 1146 discriminator 3
	or	ra,ra,s7
	.loc 1 292 1109 discriminator 3
	add	a6,a6,ra
	.loc 1 292 1259 discriminator 3
	add	a6,a6,t6
	.loc 1 292 1216 discriminator 3
	add	t1,t1,t6
	.loc 1 292 1232 is_stmt 1 discriminator 3
	.loc 1 292 1281 discriminator 3
	.loc 1 294 9 discriminator 3
	.loc 1 294 14 discriminator 3
	.loc 1 294 416 is_stmt 0 discriminator 3
	srli	ra,t2,17
	slli	t6,t2,15
	.loc 1 294 506 discriminator 3
	srli	s8,t2,19
	.loc 1 294 416 discriminator 3
	or	t6,t6,ra
	.loc 1 294 506 discriminator 3
	slli	ra,t2,13
	or	ra,ra,s8
	.loc 1 294 457 discriminator 3
	xor	t6,t6,ra
	.loc 1 290 366 discriminator 3
	sw	t2,80(t3)
	.loc 1 294 586 discriminator 3
	srli	t2,t2,10
	.loc 1 294 547 discriminator 3
	xor	t2,t6,t2
	.loc 1 294 849 discriminator 3
	lw	t6,60(t3)
	.loc 1 294 631 discriminator 3
	lw	s7,28(t3)
	.loc 1 296 506 discriminator 3
	srli	s8,t0,19
	.loc 1 294 849 discriminator 3
	add	t5,t5,t6
	add	t6,t2,t5
	.loc 1 294 667 discriminator 3
	slli	t2,s7,25
	srli	t5,s7,7
	.loc 1 294 758 discriminator 3
	srli	ra,s7,18
	.loc 1 294 667 discriminator 3
	or	t5,t5,t2
	.loc 1 294 758 discriminator 3
	slli	t2,s7,14
	or	t2,t2,ra
	.loc 1 294 708 discriminator 3
	xor	t5,t5,t2
	.loc 1 294 840 discriminator 3
	srli	t2,s7,3
	.loc 1 294 800 discriminator 3
	xor	t5,t5,t2
	lw	t2,80(s1)
	.loc 1 294 849 discriminator 3
	add	t6,t6,t5
	.loc 1 294 317 discriminator 3
	xor	t5,a4,a3
	add	t2,t6,t2
	.loc 1 294 299 discriminator 3
	and	t5,t5,t1
	add	a5,t2,a5
	.loc 1 294 281 discriminator 3
	xor	t5,t5,a4
	.loc 1 294 82 discriminator 3
	slli	t2,t1,26
	add	t5,t5,a5
	srli	a5,t1,6
	.loc 1 294 155 discriminator 3
	slli	ra,t1,21
	.loc 1 294 82 discriminator 3
	or	a5,a5,t2
	.loc 1 294 155 discriminator 3
	srli	t2,t1,11
	or	t2,t2,ra
	.loc 1 294 114 discriminator 3
	xor	a5,a5,t2
	.loc 1 294 229 discriminator 3
	srli	ra,t1,25
	slli	t2,t1,7
	or	t2,t2,ra
	.loc 1 294 188 discriminator 3
	xor	a5,a5,t2
	.loc 1 294 348 discriminator 3
	add	t5,a5,t5
	.loc 1 294 875 is_stmt 1 discriminator 3
	.loc 1 294 1203 discriminator 3
	.loc 1 294 928 is_stmt 0 discriminator 3
	slli	t2,a6,30
	srli	a5,a6,2
	.loc 1 294 1001 discriminator 3
	slli	ra,a6,19
	.loc 1 294 928 discriminator 3
	or	a5,a5,t2
	.loc 1 294 1001 discriminator 3
	srli	t2,a6,13
	or	t2,t2,ra
	.loc 1 294 960 discriminator 3
	xor	a5,a5,t2
	.loc 1 294 1075 discriminator 3
	srli	ra,a6,22
	slli	t2,a6,10
	or	t2,t2,ra
	.loc 1 294 1034 discriminator 3
	xor	a5,a5,t2
	.loc 1 294 1182 discriminator 3
	or	t2,a2,a6
	.loc 1 294 1128 discriminator 3
	and	ra,a2,a6
	.loc 1 294 1164 discriminator 3
	and	t2,t2,a7
	.loc 1 294 1146 discriminator 3
	or	t2,t2,ra
	.loc 1 294 1109 discriminator 3
	add	a5,a5,t2
	.loc 1 294 1259 discriminator 3
	add	a5,a5,t5
	.loc 1 294 1216 discriminator 3
	add	a1,a1,t5
	.loc 1 294 1232 is_stmt 1 discriminator 3
	.loc 1 294 1281 discriminator 3
	.loc 1 296 9 discriminator 3
	.loc 1 296 14 discriminator 3
	.loc 1 296 416 is_stmt 0 discriminator 3
	srli	t2,t0,17
	slli	t5,t0,15
	.loc 1 296 631 discriminator 3
	lw	ra,32(t3)
	.loc 1 296 416 discriminator 3
	or	t5,t5,t2
	.loc 1 296 506 discriminator 3
	slli	t2,t0,13
	or	t2,t2,s8
	.loc 1 292 366 discriminator 3
	sw	t0,84(t3)
	.loc 1 296 457 discriminator 3
	xor	t5,t5,t2
	.loc 1 296 586 discriminator 3
	srli	t0,t0,10
	.loc 1 296 849 discriminator 3
	add	s5,s5,s7
	.loc 1 296 667 discriminator 3
	slli	t2,ra,25
	.loc 1 296 547 discriminator 3
	xor	t5,t5,t0
	.loc 1 296 667 discriminator 3
	srli	t0,ra,7
	.loc 1 296 849 discriminator 3
	add	t5,t5,s5
	.loc 1 296 667 discriminator 3
	or	t0,t0,t2
	.loc 1 296 758 discriminator 3
	srli	s5,ra,18
	slli	t2,ra,14
	or	t2,t2,s5
	.loc 1 296 708 discriminator 3
	xor	t0,t0,t2
	.loc 1 296 840 discriminator 3
	srli	t2,ra,3
	.loc 1 296 800 discriminator 3
	xor	t0,t0,t2
	.loc 1 296 849 discriminator 3
	add	t5,t5,t0
	.loc 1 296 317 discriminator 3
	xor	t0,a3,t1
	.loc 1 296 299 discriminator 3
	and	t0,t0,a1
	.loc 1 296 281 discriminator 3
	xor	t2,t0,a3
	lw	t0,84(s1)
	.loc 1 296 155 discriminator 3
	slli	s5,a1,21
	.loc 1 298 506 discriminator 3
	srli	s7,t6,19
	add	t0,t5,t0
	add	a4,t0,a4
	add	t0,t2,a4
	.loc 1 296 82 discriminator 3
	slli	t2,a1,26
	srli	a4,a1,6
	or	a4,a4,t2
	.loc 1 296 155 discriminator 3
	srli	t2,a1,11
	or	t2,t2,s5
	.loc 1 296 114 discriminator 3
	xor	a4,a4,t2
	.loc 1 296 229 discriminator 3
	srli	s5,a1,25
	slli	t2,a1,7
	or	t2,t2,s5
	.loc 1 296 188 discriminator 3
	xor	a4,a4,t2
	.loc 1 296 348 discriminator 3
	add	t0,a4,t0
	.loc 1 296 875 is_stmt 1 discriminator 3
	.loc 1 296 1203 discriminator 3
	.loc 1 296 928 is_stmt 0 discriminator 3
	slli	t2,a5,30
	srli	a4,a5,2
	or	a4,a4,t2
	.loc 1 296 1001 discriminator 3
	slli	s5,a5,19
	srli	t2,a5,13
	or	t2,t2,s5
	.loc 1 296 960 discriminator 3
	xor	a4,a4,t2
	.loc 1 296 1075 discriminator 3
	srli	s5,a5,22
	slli	t2,a5,10
	or	t2,t2,s5
	.loc 1 296 1034 discriminator 3
	xor	a4,a4,t2
	.loc 1 296 1182 discriminator 3
	or	t2,a6,a5
	.loc 1 296 1128 discriminator 3
	and	s5,a6,a5
	.loc 1 296 1164 discriminator 3
	and	t2,t2,a2
	.loc 1 296 1146 discriminator 3
	or	t2,t2,s5
	.loc 1 296 1109 discriminator 3
	add	a4,a4,t2
	.loc 1 298 416 discriminator 3
	srli	s5,t6,17
	slli	t2,t6,15
	or	t2,t2,s5
	.loc 1 298 506 discriminator 3
	slli	s5,t6,13
	.loc 1 296 1259 discriminator 3
	add	a4,a4,t0
	.loc 1 296 1216 discriminator 3
	add	a7,a7,t0
	.loc 1 296 1232 is_stmt 1 discriminator 3
	.loc 1 296 1281 discriminator 3
	.loc 1 298 9 discriminator 3
	.loc 1 298 14 discriminator 3
	.loc 1 298 506 is_stmt 0 discriminator 3
	or	s5,s5,s7
	.loc 1 298 631 discriminator 3
	lw	t0,36(t3)
	.loc 1 298 457 discriminator 3
	xor	t2,t2,s5
	.loc 1 294 366 discriminator 3
	sw	t6,88(t3)
	.loc 1 298 586 discriminator 3
	srli	t6,t6,10
	.loc 1 298 547 discriminator 3
	xor	t6,t2,t6
	.loc 1 298 849 discriminator 3
	add	s6,s6,ra
	.loc 1 298 667 discriminator 3
	slli	t2,t0,25
	.loc 1 298 849 discriminator 3
	add	s6,t6,s6
	.loc 1 298 667 discriminator 3
	srli	t6,t0,7
	.loc 1 298 758 discriminator 3
	srli	ra,t0,18
	.loc 1 298 667 discriminator 3
	or	t6,t6,t2
	.loc 1 298 758 discriminator 3
	slli	t2,t0,14
	or	t2,t2,ra
	.loc 1 298 708 discriminator 3
	xor	t6,t6,t2
	.loc 1 298 840 discriminator 3
	srli	t2,t0,3
	.loc 1 298 800 discriminator 3
	xor	t6,t6,t2
	.loc 1 298 849 discriminator 3
	add	s6,s6,t6
	.loc 1 298 317 discriminator 3
	xor	t6,t1,a1
	.loc 1 298 299 discriminator 3
	and	t6,t6,a7
	.loc 1 298 281 discriminator 3
	xor	t2,t6,t1
	lw	t6,88(s1)
	.loc 1 298 155 discriminator 3
	slli	ra,a7,21
	.loc 1 300 506 discriminator 3
	srli	s5,t5,19
	add	t6,s6,t6
	add	a3,t6,a3
	add	t6,t2,a3
	.loc 1 298 82 discriminator 3
	slli	t2,a7,26
	srli	a3,a7,6
	or	a3,a3,t2
	.loc 1 298 155 discriminator 3
	srli	t2,a7,11
	or	t2,t2,ra
	.loc 1 298 114 discriminator 3
	xor	a3,a3,t2
	.loc 1 298 229 discriminator 3
	srli	ra,a7,25
	slli	t2,a7,7
	or	t2,t2,ra
	.loc 1 298 188 discriminator 3
	xor	a3,a3,t2
	.loc 1 298 348 discriminator 3
	add	t6,a3,t6
	.loc 1 298 875 is_stmt 1 discriminator 3
	.loc 1 298 1203 discriminator 3
	.loc 1 298 928 is_stmt 0 discriminator 3
	slli	t2,a4,30
	srli	a3,a4,2
	or	a3,a3,t2
	.loc 1 298 1001 discriminator 3
	slli	ra,a4,19
	srli	t2,a4,13
	or	t2,t2,ra
	.loc 1 298 960 discriminator 3
	xor	a3,a3,t2
	.loc 1 298 1075 discriminator 3
	srli	ra,a4,22
	slli	t2,a4,10
	or	t2,t2,ra
	.loc 1 298 1034 discriminator 3
	xor	a3,a3,t2
	.loc 1 298 1182 discriminator 3
	or	t2,a5,a4
	.loc 1 298 1164 discriminator 3
	and	t2,t2,a6
	.loc 1 298 1128 discriminator 3
	and	ra,a5,a4
	.loc 1 298 1146 discriminator 3
	or	t2,t2,ra
	.loc 1 298 1109 discriminator 3
	add	a3,a3,t2
	.loc 1 298 1259 discriminator 3
	add	a3,a3,t6
	.loc 1 298 1216 discriminator 3
	add	a2,a2,t6
	.loc 1 298 1232 is_stmt 1 discriminator 3
	.loc 1 298 1281 discriminator 3
	.loc 1 300 9 discriminator 3
	.loc 1 300 14 discriminator 3
	.loc 1 300 416 is_stmt 0 discriminator 3
	srli	ra,t5,17
	slli	t6,t5,15
	or	t6,t6,ra
	.loc 1 300 506 discriminator 3
	slli	ra,t5,13
	.loc 1 300 631 discriminator 3
	lw	t2,40(t3)
	.loc 1 300 506 discriminator 3
	or	ra,ra,s5
	.loc 1 296 366 discriminator 3
	sw	t5,92(t3)
	.loc 1 300 457 discriminator 3
	xor	t6,t6,ra
	.loc 1 300 586 discriminator 3
	srli	t5,t5,10
	.loc 1 300 547 discriminator 3
	xor	t5,t6,t5
	.loc 1 286 366 discriminator 3
	sw	t4,72(t3)
	.loc 1 300 849 discriminator 3
	add	t4,t4,t0
	.loc 1 300 667 discriminator 3
	slli	t6,t2,25
	.loc 1 300 849 discriminator 3
	add	t4,t5,t4
	.loc 1 300 667 discriminator 3
	srli	t5,t2,7
	or	t5,t5,t6
	.loc 1 300 758 discriminator 3
	srli	t0,t2,18
	slli	t6,t2,14
	or	t6,t6,t0
	.loc 1 300 708 discriminator 3
	xor	t5,t5,t6
	.loc 1 300 840 discriminator 3
	srli	t2,t2,3
	lw	t6,92(s1)
	.loc 1 300 800 discriminator 3
	xor	t5,t5,t2
	.loc 1 300 849 discriminator 3
	add	t4,t4,t5
	.loc 1 300 317 discriminator 3
	xor	t5,a1,a7
	add	t6,t4,t6
	.loc 1 300 299 discriminator 3
	and	t5,t5,a2
	.loc 1 300 281 discriminator 3
	xor	t5,t5,a1
	add	t1,t6,t1
	add	t1,t5,t1
	.loc 1 300 366 discriminator 3
	sw	t4,100(t3)
	.loc 1 300 82 discriminator 3
	slli	t5,a2,26
	srli	t4,a2,6
	or	t4,t4,t5
	.loc 1 300 155 discriminator 3
	slli	t6,a2,21
	srli	t5,a2,11
	or	t5,t5,t6
	.loc 1 300 114 discriminator 3
	xor	t4,t4,t5
	.loc 1 300 229 discriminator 3
	srli	t6,a2,25
	slli	t5,a2,7
	or	t5,t5,t6
	.loc 1 300 188 discriminator 3
	xor	t4,t4,t5
	.loc 1 300 348 discriminator 3
	add	t4,t4,t1
	.loc 1 300 875 is_stmt 1 discriminator 3
	.loc 1 300 928 is_stmt 0 discriminator 3
	srli	t5,a3,2
	slli	t1,a3,30
	or	t5,t5,t1
	.loc 1 300 1001 discriminator 3
	slli	t6,a3,19
	srli	t1,a3,13
	or	t1,t1,t6
	.loc 1 300 960 discriminator 3
	xor	t5,t5,t1
	.loc 1 300 1075 discriminator 3
	srli	t6,a3,22
	slli	t1,a3,10
	or	t1,t1,t6
	.loc 1 300 1034 discriminator 3
	xor	t5,t5,t1
	.loc 1 300 1182 discriminator 3
	or	t1,a4,a3
	.loc 1 300 1164 discriminator 3
	and	t1,t1,a5
	.loc 1 300 1128 discriminator 3
	and	t6,a4,a3
	.loc 1 300 1146 discriminator 3
	or	t1,t1,t6
	.loc 1 298 366 discriminator 3
	sw	s6,96(t3)
	.loc 1 300 1109 discriminator 3
	add	t5,t5,t1
	.loc 1 300 1203 is_stmt 1 discriminator 3
	.loc 1 284 5 is_stmt 0 discriminator 3
	addi	t3,t3,32
	.loc 1 300 1216 discriminator 3
	add	a6,a6,t4
	.loc 1 300 1232 is_stmt 1 discriminator 3
	.loc 1 300 1259 is_stmt 0 discriminator 3
	add	t1,t4,t5
	.loc 1 300 1281 is_stmt 1 discriminator 3
	.loc 1 284 26 discriminator 3
	.loc 1 284 18 discriminator 3
	.loc 1 284 5 is_stmt 0 discriminator 3
	addi	s1,s1,32
	bne	s4,t3,.L15
	sw	a1,300(sp)
	sw	a6,288(sp)
	sw	a7,296(sp)
	sw	a2,292(sp)
	sw	t1,272(sp)
	sw	a3,276(sp)
	sw	a4,280(sp)
	sw	a5,284(sp)
	sw	t4,8(sp)
	sw	t5,12(sp)
.L16:
	.loc 1 306 9 is_stmt 1 discriminator 3
	.loc 1 306 23 is_stmt 0 discriminator 3
	lw	a5,0(s3)
	lw	a4,264(s0)
	.loc 1 305 5 discriminator 3
	addi	s3,s3,4
	addi	s0,s0,4
	.loc 1 306 23 discriminator 3
	add	a5,a5,a4
	sw	a5,-4(s3)
	.loc 1 305 24 is_stmt 1 discriminator 3
	.loc 1 305 17 discriminator 3
	.loc 1 305 5 is_stmt 0 discriminator 3
	bne	s2,s3,.L16
	.loc 1 309 5 is_stmt 1
	li	a1,296
	call	mbedtls_platform_zeroize
.LVL15:
	.loc 1 311 5
	.loc 1 312 1 is_stmt 0
	lw	ra,348(sp)
	.cfi_restore 1
	lw	s0,344(sp)
	.cfi_restore 8
	lw	s1,340(sp)
	.cfi_restore 9
	lw	s2,336(sp)
	.cfi_restore 18
.LVL16:
	lw	s3,332(sp)
	.cfi_restore 19
	lw	s4,328(sp)
	.cfi_restore 20
	lw	s5,324(sp)
	.cfi_restore 21
	lw	s6,320(sp)
	.cfi_restore 22
	lw	s7,316(sp)
	.cfi_restore 23
	lw	s8,312(sp)
	.cfi_restore 24
	li	a0,0
	addi	sp,sp,352
	.cfi_def_cfa_offset 0
	jr	ra
	.cfi_endproc
.LFE6:
	.size	mbedtls_internal_sha256_process, .-mbedtls_internal_sha256_process
	.section	.text.mbedtls_sha256_process,"ax",@progbits
	.align	1
	.globl	mbedtls_sha256_process
	.type	mbedtls_sha256_process, @function
mbedtls_sha256_process:
.LFB7:
	.loc 1 317 1 is_stmt 1
	.cfi_startproc
.LVL17:
	.loc 1 318 5
	tail	mbedtls_internal_sha256_process
.LVL18:
	.cfi_endproc
.LFE7:
	.size	mbedtls_sha256_process, .-mbedtls_sha256_process
	.section	.text.mbedtls_sha256_update_ret,"ax",@progbits
	.align	1
	.globl	mbedtls_sha256_update_ret
	.type	mbedtls_sha256_update_ret, @function
mbedtls_sha256_update_ret:
.LFB8:
	.loc 1 329 1
	.cfi_startproc
.LVL19:
	.loc 1 330 5
	.loc 1 331 5
	.loc 1 332 5
	.loc 1 334 5
	.loc 1 334 10
	.loc 1 334 17
	.loc 1 335 5
	.loc 1 335 10
	.loc 1 335 17
	.loc 1 337 5
	.loc 1 337 7 is_stmt 0
	bne	a2,zero,.L25
	.loc 1 338 15
	li	a0,0
.LVL20:
	.loc 1 374 1
	ret
.LVL21:
.L25:
	.loc 1 329 1
	addi	sp,sp,-32
	.cfi_def_cfa_offset 32
	sw	s0,24(sp)
	sw	s1,20(sp)
	sw	s2,16(sp)
	sw	s3,12(sp)
	sw	ra,28(sp)
	sw	s4,8(sp)
	sw	s5,4(sp)
	.cfi_offset 8, -8
	.cfi_offset 9, -12
	.cfi_offset 18, -16
	.cfi_offset 19, -20
	.cfi_offset 1, -4
	.cfi_offset 20, -24
	.cfi_offset 21, -28
.LBB4:
.LBB5:
	.loc 1 340 22
	lw	a5,0(a0)
	mv	s1,a0
	mv	s2,a1
	.loc 1 340 10
	andi	s3,a5,63
	.loc 1 343 19
	add	a5,a2,a5
	sw	a5,0(a0)
	mv	s0,a2
.LVL22:
	.loc 1 340 5 is_stmt 1
	.loc 1 341 5
	.loc 1 343 5
	.loc 1 344 5
	.loc 1 346 5
	.loc 1 346 7 is_stmt 0
	bleu	a2,a5,.L27
.LVL23:
	.loc 1 347 9 is_stmt 1
	.loc 1 347 22 is_stmt 0
	lw	a5,4(a0)
	addi	a5,a5,1
	sw	a5,4(a0)
.L27:
	.loc 1 349 5 is_stmt 1
	.loc 1 349 7 is_stmt 0
	beq	s3,zero,.L28
	.loc 1 341 10
	li	s4,64
	sub	s4,s4,s3
	.loc 1 349 14
	bltu	s0,s4,.L28
	.loc 1 351 9 is_stmt 1
	.loc 1 351 27 is_stmt 0
	addi	s5,s1,40
	.loc 1 351 9
	mv	a1,s2
.LVL24:
	mv	a2,s4
	add	a0,s5,s3
	call	memcpy
.LVL25:
	.loc 1 353 9 is_stmt 1
	.loc 1 353 21 is_stmt 0
	mv	a1,s5
	mv	a0,s1
	call	mbedtls_internal_sha256_process
.LVL26:
	.loc 1 353 11
	bne	a0,zero,.L24
	.loc 1 356 9 is_stmt 1
.LVL27:
	.loc 1 357 14 is_stmt 0
	add	s0,s0,s3
.LVL28:
	.loc 1 356 15
	add	s2,s2,s4
.LVL29:
	.loc 1 357 9 is_stmt 1
	.loc 1 357 14 is_stmt 0
	addi	s0,s0,-64
.LVL30:
	.loc 1 358 9 is_stmt 1
	.loc 1 358 14 is_stmt 0
	li	s3,0
.LVL31:
.L28:
	add	s2,s2,s0
.LVL32:
	.loc 1 361 10
	li	s4,63
	j	.L29
.LVL33:
.L30:
	.loc 1 363 9 is_stmt 1
	.loc 1 363 21 is_stmt 0
	mv	a0,s1
	call	mbedtls_internal_sha256_process
.LVL34:
	.loc 1 363 11
	bne	a0,zero,.L24
	.loc 1 366 9 is_stmt 1
.LVL35:
	.loc 1 367 9
	.loc 1 367 14 is_stmt 0
	addi	s0,s0,-64
.LVL36:
.L29:
	sub	a1,s2,s0
.LVL37:
	.loc 1 361 10 is_stmt 1
	bgtu	s0,s4,.L30
	.loc 1 370 5
	.loc 1 370 7 is_stmt 0
	beq	s0,zero,.L41
	.loc 1 371 9 is_stmt 1
	.loc 1 371 27 is_stmt 0
	addi	a0,s1,40
	.loc 1 371 9
	mv	a2,s0
	add	a0,a0,s3
	call	memcpy
.LVL38:
.L41:
	.loc 1 373 11
	li	a0,0
.LVL39:
.L24:
.LBE5:
.LBE4:
	.loc 1 374 1
	lw	ra,28(sp)
	.cfi_restore 1
	lw	s0,24(sp)
	.cfi_restore 8
	lw	s1,20(sp)
	.cfi_restore 9
.LVL40:
	lw	s2,16(sp)
	.cfi_restore 18
	lw	s3,12(sp)
	.cfi_restore 19
	lw	s4,8(sp)
	.cfi_restore 20
	lw	s5,4(sp)
	.cfi_restore 21
	addi	sp,sp,32
	.cfi_def_cfa_offset 0
	jr	ra
	.cfi_endproc
.LFE8:
	.size	mbedtls_sha256_update_ret, .-mbedtls_sha256_update_ret
	.section	.text.mbedtls_sha256_update,"ax",@progbits
	.align	1
	.globl	mbedtls_sha256_update
	.type	mbedtls_sha256_update, @function
mbedtls_sha256_update:
.LFB9:
	.loc 1 380 1 is_stmt 1
	.cfi_startproc
.LVL41:
	.loc 1 381 5
	tail	mbedtls_sha256_update_ret
.LVL42:
	.cfi_endproc
.LFE9:
	.size	mbedtls_sha256_update, .-mbedtls_sha256_update
	.section	.text.mbedtls_sha256_finish_ret,"ax",@progbits
	.align	1
	.globl	mbedtls_sha256_finish_ret
	.type	mbedtls_sha256_finish_ret, @function
mbedtls_sha256_finish_ret:
.LFB10:
	.loc 1 390 1
	.cfi_startproc
.LVL43:
	.loc 1 391 5
	.loc 1 392 5
	.loc 1 393 5
	.loc 1 395 5
	.loc 1 395 10
	.loc 1 395 17
	.loc 1 396 5
	.loc 1 396 10
	.loc 1 396 17
	.loc 1 401 5
	.loc 1 390 1 is_stmt 0
	addi	sp,sp,-16
	.cfi_def_cfa_offset 16
	sw	s0,8(sp)
	sw	s1,4(sp)
	sw	s2,0(sp)
	sw	ra,12(sp)
	.cfi_offset 8, -8
	.cfi_offset 9, -12
	.cfi_offset 18, -16
	.cfi_offset 1, -4
	.loc 1 401 10
	lw	a5,0(a0)
	.loc 1 403 25
	li	a3,-128
	.loc 1 408 17
	addi	s2,a0,40
	.loc 1 401 10
	andi	a5,a5,63
.LVL44:
	.loc 1 403 5 is_stmt 1
	.loc 1 403 21 is_stmt 0
	addi	a4,a5,1
.LVL45:
	.loc 1 403 25
	add	a5,a0,a5
	sb	a3,40(a5)
	.loc 1 405 5 is_stmt 1
	.loc 1 405 7 is_stmt 0
	li	a2,56
	.loc 1 390 1
	mv	s0,a0
	mv	s1,a1
	.loc 1 408 9
	add	a0,s2,a4
.LVL46:
	.loc 1 405 7
	bgtu	a4,a2,.L44
	.loc 1 408 9 is_stmt 1
	sub	a2,a2,a4
	li	a1,0
.LVL47:
.L48:
	.loc 1 418 9 is_stmt 0
	call	memset
.LVL48:
	.loc 1 424 5 is_stmt 1
	.loc 1 424 24 is_stmt 0
	lw	a4,0(s0)
	.loc 1 425 28
	lw	a2,4(s0)
	.loc 1 431 17
	mv	a0,s0
	.loc 1 424 28
	srli	a5,a4,29
	.loc 1 425 28
	slli	a2,a2,3
	.loc 1 424 10
	or	a5,a2,a5
.LVL49:
	.loc 1 426 5 is_stmt 1
	.loc 1 428 58 is_stmt 0
	srli	a1,a2,24
	.loc 1 428 118
	srli	a2,a2,16
	.loc 1 428 93
	sb	a2,97(s0)
	.loc 1 428 151
	slli	a2,a5,8
	slli	a5,a5,16
.LVL50:
	srli	a5,a5,16
	srli	a5,a5,8
	.loc 1 426 9
	slli	a3,a4,3
.LVL51:
	.loc 1 428 5 is_stmt 1
	.loc 1 428 10
	.loc 1 428 151 is_stmt 0
	or	a5,a2,a5
	sh	a5,98(s0)
	.loc 1 429 57
	srli	a5,a3,24
	.loc 1 429 33
	sb	a5,100(s0)
	.loc 1 429 116
	srli	a5,a3,16
	.loc 1 429 149
	slli	a3,a3,16
.LVL52:
	srli	a3,a3,16
	slli	a4,a4,11
.LVL53:
	srli	a3,a3,8
	or	a4,a4,a3
	.loc 1 428 33
	sb	a1,96(s0)
	.loc 1 428 67 is_stmt 1
	.loc 1 428 127
	.loc 1 428 186
	.loc 1 428 247
	.loc 1 429 5
	.loc 1 429 10
	.loc 1 429 66
	.loc 1 429 92 is_stmt 0
	sb	a5,101(s0)
	.loc 1 429 125 is_stmt 1
	.loc 1 429 183
	.loc 1 429 149 is_stmt 0
	sh	a4,102(s0)
	.loc 1 429 243 is_stmt 1
	.loc 1 431 5
	.loc 1 431 17 is_stmt 0
	mv	a1,s2
	call	mbedtls_internal_sha256_process
.LVL54:
	.loc 1 431 7
	bne	a0,zero,.L43
	.loc 1 437 5 is_stmt 1
	.loc 1 437 10
	.loc 1 437 61 is_stmt 0
	lbu	a5,11(s0)
	.loc 1 437 27
	sb	a5,0(s1)
	.loc 1 437 70 is_stmt 1
	.loc 1 437 124 is_stmt 0
	lhu	a5,10(s0)
	.loc 1 437 90
	sb	a5,1(s1)
	.loc 1 437 133 is_stmt 1
	.loc 1 437 187 is_stmt 0
	lw	a5,8(s0)
	srli	a5,a5,8
	.loc 1 437 153
	sb	a5,2(s1)
	.loc 1 437 195 is_stmt 1
	.loc 1 437 215 is_stmt 0
	lw	a5,8(s0)
	sb	a5,3(s1)
	.loc 1 437 259 is_stmt 1
	.loc 1 438 5
	.loc 1 438 10
	.loc 1 438 61 is_stmt 0
	lbu	a5,15(s0)
	.loc 1 438 27
	sb	a5,4(s1)
	.loc 1 438 70 is_stmt 1
	.loc 1 438 124 is_stmt 0
	lhu	a5,14(s0)
	.loc 1 438 90
	sb	a5,5(s1)
	.loc 1 438 133 is_stmt 1
	.loc 1 438 187 is_stmt 0
	lw	a5,12(s0)
	srli	a5,a5,8
	.loc 1 438 153
	sb	a5,6(s1)
	.loc 1 438 195 is_stmt 1
	.loc 1 438 215 is_stmt 0
	lw	a5,12(s0)
	sb	a5,7(s1)
	.loc 1 438 259 is_stmt 1
	.loc 1 439 5
	.loc 1 439 10
	.loc 1 439 61 is_stmt 0
	lbu	a5,19(s0)
	.loc 1 439 27
	sb	a5,8(s1)
	.loc 1 439 70 is_stmt 1
	.loc 1 439 124 is_stmt 0
	lhu	a5,18(s0)
	.loc 1 439 90
	sb	a5,9(s1)
	.loc 1 439 133 is_stmt 1
	.loc 1 439 187 is_stmt 0
	lw	a5,16(s0)
	srli	a5,a5,8
	.loc 1 439 153
	sb	a5,10(s1)
	.loc 1 439 195 is_stmt 1
	.loc 1 439 215 is_stmt 0
	lw	a5,16(s0)
	sb	a5,11(s1)
	.loc 1 439 259 is_stmt 1
	.loc 1 440 5
	.loc 1 440 10
	.loc 1 440 62 is_stmt 0
	lbu	a5,23(s0)
	.loc 1 440 28
	sb	a5,12(s1)
	.loc 1 440 71 is_stmt 1
	.loc 1 440 126 is_stmt 0
	lhu	a5,22(s0)
	.loc 1 440 92
	sb	a5,13(s1)
	.loc 1 440 135 is_stmt 1
	.loc 1 440 190 is_stmt 0
	lw	a5,20(s0)
	srli	a5,a5,8
	.loc 1 440 156
	sb	a5,14(s1)
	.loc 1 440 198 is_stmt 1
	.loc 1 440 219 is_stmt 0
	lw	a5,20(s0)
	sb	a5,15(s1)
	.loc 1 440 263 is_stmt 1
	.loc 1 441 5
	.loc 1 441 10
	.loc 1 441 62 is_stmt 0
	lbu	a5,27(s0)
	.loc 1 441 28
	sb	a5,16(s1)
	.loc 1 441 71 is_stmt 1
	.loc 1 441 126 is_stmt 0
	lhu	a5,26(s0)
	.loc 1 441 92
	sb	a5,17(s1)
	.loc 1 441 135 is_stmt 1
	.loc 1 441 190 is_stmt 0
	lw	a5,24(s0)
	srli	a5,a5,8
	.loc 1 441 156
	sb	a5,18(s1)
	.loc 1 441 198 is_stmt 1
	.loc 1 441 219 is_stmt 0
	lw	a5,24(s0)
	sb	a5,19(s1)
	.loc 1 441 263 is_stmt 1
	.loc 1 442 5
	.loc 1 442 10
	.loc 1 442 62 is_stmt 0
	lbu	a5,31(s0)
	.loc 1 442 28
	sb	a5,20(s1)
	.loc 1 442 71 is_stmt 1
	.loc 1 442 126 is_stmt 0
	lhu	a5,30(s0)
	.loc 1 442 92
	sb	a5,21(s1)
	.loc 1 442 135 is_stmt 1
	.loc 1 442 190 is_stmt 0
	lw	a5,28(s0)
	srli	a5,a5,8
	.loc 1 442 156
	sb	a5,22(s1)
	.loc 1 442 198 is_stmt 1
	.loc 1 442 219 is_stmt 0
	lw	a5,28(s0)
	sb	a5,23(s1)
	.loc 1 442 263 is_stmt 1
	.loc 1 443 5
	.loc 1 443 10
	.loc 1 443 62 is_stmt 0
	lbu	a5,35(s0)
	.loc 1 443 28
	sb	a5,24(s1)
	.loc 1 443 71 is_stmt 1
	.loc 1 443 126 is_stmt 0
	lhu	a5,34(s0)
	.loc 1 443 92
	sb	a5,25(s1)
	.loc 1 443 135 is_stmt 1
	.loc 1 443 190 is_stmt 0
	lw	a5,32(s0)
	srli	a5,a5,8
	.loc 1 443 156
	sb	a5,26(s1)
	.loc 1 443 198 is_stmt 1
	.loc 1 443 219 is_stmt 0
	lw	a5,32(s0)
	sb	a5,27(s1)
	.loc 1 443 263 is_stmt 1
	.loc 1 445 5
	.loc 1 445 12 is_stmt 0
	lw	a5,104(s0)
	.loc 1 445 7
	bne	a5,zero,.L43
	.loc 1 446 9 is_stmt 1
	.loc 1 446 14
	.loc 1 446 66 is_stmt 0
	lbu	a5,39(s0)
	.loc 1 446 32
	sb	a5,28(s1)
	.loc 1 446 75 is_stmt 1
	.loc 1 446 130 is_stmt 0
	lhu	a5,38(s0)
	.loc 1 446 96
	sb	a5,29(s1)
	.loc 1 446 139 is_stmt 1
	.loc 1 446 194 is_stmt 0
	lw	a5,36(s0)
	srli	a5,a5,8
	.loc 1 446 160
	sb	a5,30(s1)
	.loc 1 446 202 is_stmt 1
	.loc 1 446 223 is_stmt 0
	lw	a5,36(s0)
	sb	a5,31(s1)
.L43:
	.loc 1 449 1
	lw	ra,12(sp)
	.cfi_remember_state
	.cfi_restore 1
	lw	s0,8(sp)
	.cfi_restore 8
.LVL55:
	lw	s1,4(sp)
	.cfi_restore 9
.LVL56:
	lw	s2,0(sp)
	.cfi_restore 18
.LVL57:
	addi	sp,sp,16
	.cfi_def_cfa_offset 0
	jr	ra
.LVL58:
.L44:
	.cfi_restore_state
	.loc 1 413 9 is_stmt 1
	li	a2,64
	li	a1,0
	sub	a2,a2,a4
	call	memset
.LVL59:
	.loc 1 415 9
	.loc 1 415 21 is_stmt 0
	mv	a1,s2
	mv	a0,s0
	call	mbedtls_internal_sha256_process
.LVL60:
	.loc 1 415 11
	bne	a0,zero,.L43
	.loc 1 418 9 is_stmt 1
	li	a2,56
	li	a1,0
	mv	a0,s2
.LVL61:
	j	.L48
	.cfi_endproc
.LFE10:
	.size	mbedtls_sha256_finish_ret, .-mbedtls_sha256_finish_ret
	.section	.text.mbedtls_sha256_finish,"ax",@progbits
	.align	1
	.globl	mbedtls_sha256_finish
	.type	mbedtls_sha256_finish, @function
mbedtls_sha256_finish:
.LFB11:
	.loc 1 454 1
	.cfi_startproc
.LVL62:
	.loc 1 455 5
	tail	mbedtls_sha256_finish_ret
.LVL63:
	.cfi_endproc
.LFE11:
	.size	mbedtls_sha256_finish, .-mbedtls_sha256_finish
	.section	.text.mbedtls_sha256_ret,"ax",@progbits
	.align	1
	.globl	mbedtls_sha256_ret
	.type	mbedtls_sha256_ret, @function
mbedtls_sha256_ret:
.LFB12:
	.loc 1 468 1
	.cfi_startproc
.LVL64:
	.loc 1 469 5
	.loc 1 470 5
	.loc 1 472 5
	.loc 1 472 10
	.loc 1 472 17
	.loc 1 473 5
	.loc 1 473 10
	.loc 1 473 17
	.loc 1 474 5
	.loc 1 474 10
	.loc 1 474 17
	.loc 1 476 5
	.loc 1 468 1 is_stmt 0
	addi	sp,sp,-160
	.cfi_def_cfa_offset 160
	sw	s2,144(sp)
	.cfi_offset 18, -16
	mv	s2,a0
	.loc 1 476 5
	addi	a0,sp,20
.LVL65:
	.loc 1 468 1
	sw	ra,156(sp)
	sw	s0,152(sp)
	sw	s1,148(sp)
	sw	s3,140(sp)
	.cfi_offset 1, -4
	.cfi_offset 8, -8
	.cfi_offset 9, -12
	.cfi_offset 19, -20
	.loc 1 468 1
	mv	s1,a2
	mv	s3,a1
	sw	a3,12(sp)
	.loc 1 476 5
	call	mbedtls_sha256_init
.LVL66:
	.loc 1 478 5 is_stmt 1
	.loc 1 478 17 is_stmt 0
	lw	a1,12(sp)
	addi	a0,sp,20
	call	mbedtls_sha256_starts_ret
.LVL67:
	mv	s0,a0
.LVL68:
	.loc 1 478 7
	bne	a0,zero,.L51
	.loc 1 481 5 is_stmt 1
	.loc 1 481 17 is_stmt 0
	mv	a2,s3
	mv	a1,s2
	addi	a0,sp,20
	call	mbedtls_sha256_update_ret
.LVL69:
	mv	s0,a0
.LVL70:
	.loc 1 481 7
	bne	a0,zero,.L51
	.loc 1 484 5 is_stmt 1
	.loc 1 484 17 is_stmt 0
	mv	a1,s1
	addi	a0,sp,20
	call	mbedtls_sha256_finish_ret
.LVL71:
	mv	s0,a0
.LVL72:
.L51:
	.loc 1 488 5 is_stmt 1
	addi	a0,sp,20
	call	mbedtls_sha256_free
.LVL73:
	.loc 1 490 5
	.loc 1 491 1 is_stmt 0
	lw	ra,156(sp)
	.cfi_restore 1
	mv	a0,s0
	lw	s0,152(sp)
	.cfi_restore 8
.LVL74:
	lw	s1,148(sp)
	.cfi_restore 9
.LVL75:
	lw	s2,144(sp)
	.cfi_restore 18
.LVL76:
	lw	s3,140(sp)
	.cfi_restore 19
.LVL77:
	addi	sp,sp,160
	.cfi_def_cfa_offset 0
.LVL78:
	jr	ra
	.cfi_endproc
.LFE12:
	.size	mbedtls_sha256_ret, .-mbedtls_sha256_ret
	.section	.text.mbedtls_sha256,"ax",@progbits
	.align	1
	.globl	mbedtls_sha256
	.type	mbedtls_sha256, @function
mbedtls_sha256:
.LFB13:
	.loc 1 498 1 is_stmt 1
	.cfi_startproc
.LVL79:
	.loc 1 499 5
	tail	mbedtls_sha256_ret
.LVL80:
	.cfi_endproc
.LFE13:
	.size	mbedtls_sha256, .-mbedtls_sha256
	.section	.rodata.K,"a"
	.align	2
	.set	.LANCHOR0,. + 0
	.type	K, @object
	.size	K, 256
K:
	.word	1116352408
	.word	1899447441
	.word	-1245643825
	.word	-373957723
	.word	961987163
	.word	1508970993
	.word	-1841331548
	.word	-1424204075
	.word	-670586216
	.word	310598401
	.word	607225278
	.word	1426881987
	.word	1925078388
	.word	-2132889090
	.word	-1680079193
	.word	-1046744716
	.word	-459576895
	.word	-272742522
	.word	264347078
	.word	604807628
	.word	770255983
	.word	1249150122
	.word	1555081692
	.word	1996064986
	.word	-1740746414
	.word	-1473132947
	.word	-1341970488
	.word	-1084653625
	.word	-958395405
	.word	-710438585
	.word	113926993
	.word	338241895
	.word	666307205
	.word	773529912
	.word	1294757372
	.word	1396182291
	.word	1695183700
	.word	1986661051
	.word	-2117940946
	.word	-1838011259
	.word	-1564481375
	.word	-1474664885
	.word	-1035236496
	.word	-949202525
	.word	-778901479
	.word	-694614492
	.word	-200395387
	.word	275423344
	.word	430227734
	.word	506948616
	.word	659060556
	.word	883997877
	.word	958139571
	.word	1322822218
	.word	1537002063
	.word	1747873779
	.word	1955562222
	.word	2024104815
	.word	-2067236844
	.word	-1933114872
	.word	-1866530822
	.word	-1538233109
	.word	-1090935817
	.word	-965641998
	.text
.Letext0:
	.file 2 "/mnt/d/GitHub/bl_iot_sdk_for_aithinker/toolchain/riscv/Linux/lib/gcc/riscv64-unknown-elf/10.2.0/include/stddef.h"
	.file 3 "/mnt/d/GitHub/bl_iot_sdk_for_aithinker/toolchain/riscv/Linux/lib/gcc/riscv64-unknown-elf/10.2.0/include/stdint-gcc.h"
	.file 4 "/mnt/d/GitHub/bl_iot_sdk_for_aithinker/components/security/mbedtls_lts/mbedtls/include/mbedtls/sha256.h"
	.file 5 "/mnt/d/GitHub/bl_iot_sdk_for_aithinker/toolchain/riscv/Linux/riscv64-unknown-elf/include/string.h"
	.file 6 "/mnt/d/GitHub/bl_iot_sdk_for_aithinker/components/security/mbedtls_lts/mbedtls/include/mbedtls/platform_util.h"
	.file 7 "<built-in>"