	.file	"ssl_cli.c"
	.option nopic
	.attribute arch, "rv32i2p0_m2p0_f2p0_c2p0"
	.attribute unaligned_access, 0
	.attribute stack_align, 16
	.text
.Ltext0:
	.cfi_sections	.debug_frame
	.section	.text.mbedtls_ssl_own_key,"ax",@progbits
	.align	1
	.type	mbedtls_ssl_own_key, @function
mbedtls_ssl_own_key:
.LFB23:
	.file 1 "/mnt/d/GitHub/bl_iot_sdk_for_aithinker/components/security/mbedtls_lts/mbedtls/include/mbedtls/ssl_internal.h"
	.loc 1 747 1
	.cfi_startproc
.LVL0:
	.loc 1 748 5
	.loc 1 750 5
	.loc 1 750 12 is_stmt 0
	lw	a4,48(a0)
	.loc 1 747 1
	mv	a5,a0
	.loc 1 750 7
	beq	a4,zero,.L2
	.loc 1 750 48 discriminator 1
	lw	a0,452(a4)
.LVL1:
	.loc 1 750 31 discriminator 1
	bne	a0,zero,.L3
.L2:
	.loc 1 753 9 is_stmt 1
	.loc 1 753 18 is_stmt 0
	lw	a5,0(a5)
.LVL2:
	lw	a0,84(a5)
.LVL3:
	.loc 1 755 5 is_stmt 1
	.loc 1 755 36 is_stmt 0
	beq	a0,zero,.L1
.LVL4:
.L3:
	.loc 1 755 36 discriminator 1
	lw	a0,4(a0)
.LVL5:
.L1:
	.loc 1 756 1
	ret
	.cfi_endproc
.LFE23:
	.size	mbedtls_ssl_own_key, .-mbedtls_ssl_own_key
	.section	.rodata.ssl_write_session_ticket_ext.str1.4,"aMS",@progbits,1
	.align	2
.LC0:
	.string	"client hello, adding session ticket extension"
	.align	2
.LC1:
	.string	"/mnt/d/GitHub/bl_iot_sdk_for_aithinker/components/security/mbedtls_lts/mbedtls/library/ssl_cli.c"
	.align	2
.LC2:
	.string	"sending session ticket of length %d"
	.section	.text.ssl_write_session_ticket_ext,"ax",@progbits
	.align	1
	.type	ssl_write_session_ticket_ext, @function
ssl_write_session_ticket_ext:
.LFB33:
	.file 2 "/mnt/d/GitHub/bl_iot_sdk_for_aithinker/components/security/mbedtls_lts/mbedtls/library/ssl_cli.c"
	.loc 2 603 1 is_stmt 1
	.cfi_startproc
.LVL6:
	.loc 2 604 5
	.loc 2 605 5
	.loc 2 603 1 is_stmt 0
	addi	sp,sp,-32
	.cfi_def_cfa_offset 32
	sw	ra,28(sp)
	sw	s0,24(sp)
	sw	s1,20(sp)
	sw	s2,16(sp)
	sw	s3,12(sp)
	sw	s4,8(sp)
	sw	s5,4(sp)
	.cfi_offset 1, -4
	.cfi_offset 8, -8
	.cfi_offset 9, -12
	.cfi_offset 18, -16
	.cfi_offset 19, -20
	.cfi_offset 20, -24
	.cfi_offset 21, -28
	.loc 2 605 12
	lw	a5,44(a0)
	lw	s1,104(a5)
.LVL7:
	.loc 2 607 5 is_stmt 1
	.loc 2 607 11 is_stmt 0
	sw	zero,0(a3)
	.loc 2 609 5 is_stmt 1
	.loc 2 609 36 is_stmt 0
	lw	a5,0(a0)
	lhu	a5,160(a5)
	.loc 2 609 7
	andi	a5,a5,512
	bne	a5,zero,.L12
.LVL8:
.L24:
	.loc 2 636 5 is_stmt 1
	.loc 2 636 11 is_stmt 0
	li	a0,0
.L11:
	.loc 2 637 1
	lw	ra,28(sp)
	.cfi_remember_state
	.cfi_restore 1
	lw	s0,24(sp)
	.cfi_restore 8
	lw	s1,20(sp)
	.cfi_restore 9
.LVL9:
	lw	s2,16(sp)
	.cfi_restore 18
	lw	s3,12(sp)
	.cfi_restore 19
	lw	s4,8(sp)
	.cfi_restore 20
	lw	s5,4(sp)
	.cfi_restore 21
	addi	sp,sp,32
	.cfi_def_cfa_offset 0
	jr	ra
.LVL10:
.L12:
	.cfi_restore_state
	.loc 2 612 5
	lui	a4,%hi(.LC0)
	lui	s5,%hi(.LC1)
	mv	s0,a1
	mv	s4,a2
	mv	s3,a3
	.loc 2 612 5 is_stmt 1
	addi	a4,a4,%lo(.LC0)
	li	a3,612
.LVL11:
	addi	a2,s5,%lo(.LC1)
.LVL12:
	li	a1,3
.LVL13:
	mv	s2,a0
	call	mbedtls_debug_print_msg
.LVL14:
	.loc 2 616 5
	.loc 2 616 10
.LBB77:
.LBB78:
	.loc 1 302 5
	.loc 1 302 27 is_stmt 0
	bgtu	s0,s4,.L16
.LBE78:
.LBE77:
	.loc 2 616 14
	addi	a5,s1,4
.LVL15:
.LBB80:
.LBB79:
	.loc 1 302 53
	sub	s4,s4,s0
.LVL16:
	.loc 1 302 27
	bgtu	a5,s4,.L16
.LVL17:
.LBE79:
.LBE80:
	.loc 2 616 107 is_stmt 1
	.loc 2 618 5
	.loc 2 619 10 is_stmt 0
	li	a5,35
	sb	a5,1(s0)
	.loc 2 621 36
	srli	a5,s1,8
	.loc 2 621 12
	sb	a5,2(s0)
	.loc 2 618 10
	sb	zero,0(s0)
	.loc 2 619 5 is_stmt 1
.LVL18:
	.loc 2 621 5
	.loc 2 622 5
	.loc 2 622 12 is_stmt 0
	sb	s1,3(s0)
	.loc 2 624 5 is_stmt 1
	.loc 2 624 11 is_stmt 0
	li	a5,4
	sw	a5,0(s3)
	.loc 2 626 5 is_stmt 1
	.loc 2 626 31 is_stmt 0
	lw	a5,44(s2)
	.loc 2 626 7
	lw	a5,100(a5)
	beq	a5,zero,.L24
	.loc 2 626 47 discriminator 1
	beq	s1,zero,.L24
	.loc 2 629 5 is_stmt 1
	lui	a4,%hi(.LC2)
	mv	a5,s1
	addi	a4,a4,%lo(.LC2)
	li	a3,629
	addi	a2,s5,%lo(.LC1)
	li	a1,3
	mv	a0,s2
	call	mbedtls_debug_print_msg
.LVL19:
	.loc 2 632 5
	.loc 2 632 38 is_stmt 0
	lw	a5,44(s2)
	.loc 2 632 5
	mv	a2,s1
	addi	a0,s0,4
.LVL20:
	lw	a1,100(a5)
	call	memcpy
.LVL21:
	.loc 2 634 5 is_stmt 1
	.loc 2 634 11 is_stmt 0
	lw	a5,0(s3)
	add	a5,a5,s1
	sw	a5,0(s3)
	j	.L24
.LVL22:
.L16:
	.loc 2 616 85
	li	a0,-28672
	addi	a0,a0,1536
.LVL23:
	j	.L11
	.cfi_endproc
.LFE33:
	.size	ssl_write_session_ticket_ext, .-ssl_write_session_ticket_ext
	.section	.rodata.ssl_write_alpn_ext.str1.4,"aMS",@progbits,1
	.align	2
.LC3:
	.string	"client hello, adding alpn extension"
	.section	.text.ssl_write_alpn_ext,"ax",@progbits
	.align	1
	.type	ssl_write_alpn_ext, @function
ssl_write_alpn_ext:
.LFB34:
	.loc 2 645 1 is_stmt 1
	.cfi_startproc
.LVL24:
	.loc 2 646 5
	.loc 2 647 5
	.loc 2 648 5
	.loc 2 650 5
	.loc 2 650 11 is_stmt 0
	sw	zero,0(a3)
	.loc 2 652 5 is_stmt 1
	.loc 2 652 18 is_stmt 0
	lw	a5,0(a0)
	.loc 2 652 7
	lw	a5,144(a5)
	beq	a5,zero,.L31
	.loc 2 645 1
	addi	sp,sp,-32
	.cfi_def_cfa_offset 32
	sw	s0,24(sp)
	.loc 2 655 5
	lui	a4,%hi(.LC3)
	.cfi_offset 8, -8
	mv	s0,a2
	lui	a2,%hi(.LC1)
.LVL25:
	.loc 2 645 1
	sw	s1,20(sp)
	sw	s2,16(sp)
	.cfi_offset 9, -12
	.cfi_offset 18, -16
	mv	s1,a1
	mv	s2,a3
	.loc 2 655 5 is_stmt 1
	addi	a4,a4,%lo(.LC3)
	li	a3,655
.LVL26:
	addi	a2,a2,%lo(.LC1)
	li	a1,3
.LVL27:
	.loc 2 645 1 is_stmt 0
	sw	s3,12(sp)
	sw	s4,8(sp)
	sw	s5,4(sp)
	.cfi_offset 19, -20
	.cfi_offset 20, -24
	.cfi_offset 21, -28
	mv	s3,a0
	sw	ra,28(sp)
	.cfi_offset 1, -4
	.loc 2 655 5
	call	mbedtls_debug_print_msg
.LVL28:
	.loc 2 657 5 is_stmt 1
	.loc 2 657 14 is_stmt 0
	lw	a5,0(s3)
	.loc 2 647 12
	li	s4,0
	.loc 2 657 14
	lw	s5,144(a5)
.LVL29:
.L27:
	.loc 2 657 38 is_stmt 1 discriminator 1
	lw	a0,0(s5)
	.loc 2 657 5 is_stmt 0 discriminator 1
	bne	a0,zero,.L28
	.loc 2 660 5 is_stmt 1
	.loc 2 660 10
.LVL30:
.LBB81:
.LBB82:
	.loc 1 302 5
	.loc 1 302 27 is_stmt 0
	bgtu	s1,s0,.L33
.LBE82:
.LBE81:
	.loc 2 660 14
	addi	s4,s4,6
.LVL31:
.LBB84:
.LBB83:
	.loc 1 302 53
	sub	s0,s0,s1
.LVL32:
	.loc 1 302 27
	bgtu	s4,s0,.L33
.LVL33:
.LBE83:
.LBE84:
	.loc 2 660 110 is_stmt 1
	.loc 2 662 5
	.loc 2 663 10 is_stmt 0
	li	a5,16
	.loc 2 662 10
	sb	zero,0(s1)
	.loc 2 663 5 is_stmt 1
.LVL34:
	.loc 2 663 10 is_stmt 0
	sb	a5,1(s1)
	.loc 2 674 5 is_stmt 1
	.loc 2 676 14 is_stmt 0
	lw	a5,0(s3)
	.loc 2 674 7
	addi	s0,s1,6
.LVL35:
	.loc 2 676 5 is_stmt 1
	.loc 2 676 14 is_stmt 0
	lw	s3,144(a5)
.LVL36:
.L29:
	.loc 2 676 38 is_stmt 1 discriminator 1
	lw	a0,0(s3)
	.loc 2 676 5 is_stmt 0 discriminator 1
	bne	a0,zero,.L30
	.loc 2 687 5 is_stmt 1
	.loc 2 687 15 is_stmt 0
	sub	s0,s0,s1
.LVL37:
	.loc 2 687 11
	sw	s0,0(s2)
	.loc 2 690 5 is_stmt 1
	.loc 2 690 41 is_stmt 0
	addi	s0,s0,-6
	.loc 2 690 47
	srli	s0,s0,8
	.loc 2 690 14
	sb	s0,4(s1)
	.loc 2 691 5 is_stmt 1
	.loc 2 691 14 is_stmt 0
	lw	a5,0(s2)
	addi	a5,a5,-6
	.loc 2 691 12
	sb	a5,5(s1)
	.loc 2 694 5 is_stmt 1
	.loc 2 694 41 is_stmt 0
	lw	a5,0(s2)
	addi	a5,a5,-4
	.loc 2 694 47
	srli	a5,a5,8
	.loc 2 694 14
	sb	a5,2(s1)
	.loc 2 695 5 is_stmt 1
	.loc 2 695 14 is_stmt 0
	lw	a5,0(s2)
	addi	a5,a5,-4
	.loc 2 695 12
	sb	a5,3(s1)
	.loc 2 697 5 is_stmt 1
.LVL38:
.L25:
	.loc 2 698 1 is_stmt 0
	lw	ra,28(sp)
	.cfi_remember_state
	.cfi_restore 1
	lw	s0,24(sp)
	.cfi_restore 8
	lw	s1,20(sp)
	.cfi_restore 9
.LVL39:
	lw	s2,16(sp)
	.cfi_restore 18
.LVL40:
	lw	s3,12(sp)
	.cfi_restore 19
	lw	s4,8(sp)
	.cfi_restore 20
	lw	s5,4(sp)
	.cfi_restore 21
	addi	sp,sp,32
	.cfi_def_cfa_offset 0
	jr	ra
.LVL41:
.L28:
	.cfi_restore_state
	.loc 2 658 9 is_stmt 1 discriminator 3
	.loc 2 658 20 is_stmt 0 discriminator 3
	call	strlen
.LVL42:
	.loc 2 658 35 discriminator 3
	addi	a0,a0,1
	.loc 2 658 17 discriminator 3
	add	s4,s4,a0
.LVL43:
	.loc 2 657 51 is_stmt 1 discriminator 3
	.loc 2 657 54 is_stmt 0 discriminator 3
	addi	s5,s5,4
.LVL44:
	j	.L27
.LVL45:
.L30:
	.loc 2 682 9 is_stmt 1 discriminator 3
	.loc 2 682 29 is_stmt 0 discriminator 3
	call	strlen
.LVL46:
	.loc 2 682 14 discriminator 3
	sb	a0,0(s0)
	.loc 2 683 9 is_stmt 1 discriminator 3
	lw	a1,0(s3)
	andi	a2,a0,0xff
	addi	a0,s0,1
	call	memcpy
.LVL47:
	.loc 2 684 9 discriminator 3
	.loc 2 684 18 is_stmt 0 discriminator 3
	lbu	a5,0(s0)
	.loc 2 676 54 discriminator 3
	addi	s3,s3,4
.LVL48:
	.loc 2 684 16 discriminator 3
	addi	a5,a5,1
	.loc 2 684 11 discriminator 3
	add	s0,s0,a5
.LVL49:
	.loc 2 676 51 is_stmt 1 discriminator 3
	j	.L29
.LVL50:
.L31:
	.cfi_def_cfa_offset 0
	.cfi_restore 1
	.cfi_restore 8
	.cfi_restore 9
	.cfi_restore 18
	.cfi_restore 19
	.cfi_restore 20
	.cfi_restore 21
	.loc 2 653 15 is_stmt 0
	li	a0,0
.LVL51:
	.loc 2 698 1
	ret
.LVL52:
.L33:
	.cfi_def_cfa_offset 32
	.cfi_offset 1, -4
	.cfi_offset 8, -8
	.cfi_offset 9, -12
	.cfi_offset 18, -16
	.cfi_offset 19, -20
	.cfi_offset 20, -24
	.cfi_offset 21, -28
	.loc 2 660 88
	li	a0,-28672
	addi	a0,a0,1536
.LVL53:
	j	.L25
	.cfi_endproc
.LFE34:
	.size	ssl_write_alpn_ext, .-ssl_write_alpn_ext
	.section	.rodata.ssl_write_signature_algorithms_ext.str1.4,"aMS",@progbits,1
	.align	2
.LC4:
	.string	"client hello, adding signature_algorithms extension"
	.align	2
.LC5:
	.string	"length in bytes of sig-hash-alg extension too big"
	.section	.text.ssl_write_signature_algorithms_ext,"ax",@progbits
	.align	1
	.type	ssl_write_signature_algorithms_ext, @function
ssl_write_signature_algorithms_ext:
.LFB29:
	.loc 2 198 1 is_stmt 1
	.cfi_startproc
.LVL54:
	.loc 2 199 5
	.loc 2 200 5
	.loc 2 201 5
	.loc 2 204 5
	.loc 2 207 5
	.loc 2 207 11 is_stmt 0
	sw	zero,0(a3)
	.loc 2 209 5 is_stmt 1
	.loc 2 209 18 is_stmt 0
	lw	a5,0(a0)
	.loc 2 209 7
	lbu	a4,157(a5)
	li	a5,3
	bne	a4,a5,.L44
	.loc 2 198 1
	addi	sp,sp,-48
	.cfi_def_cfa_offset 48
	sw	s4,24(sp)
	.loc 2 212 5
	lui	a4,%hi(.LC4)
	.cfi_offset 20, -24
	lui	s4,%hi(.LC1)
	.loc 2 198 1
	sw	s0,40(sp)
	sw	s1,36(sp)
	sw	s3,28(sp)
	.cfi_offset 8, -8
	.cfi_offset 9, -12
	.cfi_offset 19, -20
	mv	s0,a1
	mv	s1,a2
	mv	s3,a3
	.loc 2 212 5 is_stmt 1
	addi	a4,a4,%lo(.LC4)
	li	a3,212
.LVL55:
	addi	a2,s4,%lo(.LC1)
.LVL56:
	li	a1,3
.LVL57:
	.loc 2 198 1 is_stmt 0
	sw	s2,32(sp)
	sw	s5,20(sp)
	.cfi_offset 18, -16
	.cfi_offset 21, -28
	mv	s2,a0
	sw	ra,44(sp)
	sw	s6,16(sp)
	sw	s7,12(sp)
	.cfi_offset 1, -4
	.cfi_offset 22, -32
	.cfi_offset 23, -36
	.loc 2 212 5
	call	mbedtls_debug_print_msg
.LVL58:
	.loc 2 215 5 is_stmt 1
	.loc 2 215 18 is_stmt 0
	lw	a5,0(s2)
	lw	s5,96(a5)
	.loc 2 215 7
	beq	s5,zero,.L46
	.loc 2 200 12
	li	a5,0
	.loc 2 226 11
	li	a3,65536
.LVL59:
.L40:
	.loc 2 218 38 is_stmt 1 discriminator 1
	add	a4,s5,a5
.LVL60:
	.loc 2 218 5 is_stmt 0 discriminator 1
	lw	a4,0(a4)
.LVL61:
	bne	a4,zero,.L41
	.loc 2 235 5 is_stmt 1
	.loc 2 235 7 is_stmt 0
	beq	a5,zero,.L46
	.loc 2 238 5 is_stmt 1
	.loc 2 238 10
.LVL62:
.LBB85:
.LBB86:
	.loc 1 302 5
	.loc 1 302 27 is_stmt 0
	bgtu	s0,s1,.L48
.LBE86:
.LBE85:
	.loc 2 238 14
	addi	a5,a5,6
.LVL63:
.LBB88:
.LBB87:
	.loc 1 302 53
	sub	s1,s1,s0
.LVL64:
	.loc 1 302 27
	bgtu	a5,s1,.L48
.LBE87:
.LBE88:
	.loc 2 204 20
	addi	s2,s0,6
.LVL65:
	.loc 2 243 17
	li	s1,0
	.loc 2 249 37
	li	s6,3
	.loc 2 253 37
	li	s7,1
.LVL66:
.L42:
	.loc 2 245 38 is_stmt 1 discriminator 1
	add	s4,s5,s1
.LVL67:
	lw	a0,0(s4)
	.loc 2 249 33 is_stmt 0 discriminator 1
	addi	a5,s1,2
	.loc 2 245 5 discriminator 1
	bne	a0,zero,.L43
	.loc 2 274 5 is_stmt 1
.LVL68:
	.loc 2 277 51 is_stmt 0
	srli	a5,a5,8
	.loc 2 275 10
	li	a4,13
	.loc 2 277 12
	sb	a5,2(s0)
	.loc 2 278 12
	andi	a5,s1,0xff
	.loc 2 275 10
	sb	a4,1(s0)
	.loc 2 278 12
	addi	a4,a5,2
	.loc 2 278 10
	sb	a4,3(s0)
	.loc 2 280 43
	srli	a4,s1,8
	.loc 2 274 10
	sb	zero,0(s0)
	.loc 2 275 5 is_stmt 1
.LVL69:
	.loc 2 277 5
	.loc 2 278 5
	.loc 2 280 5
	.loc 2 280 12 is_stmt 0
	sb	a4,4(s0)
	.loc 2 281 5 is_stmt 1
.LVL70:
	.loc 2 281 10 is_stmt 0
	sb	a5,5(s0)
	.loc 2 283 5 is_stmt 1
	.loc 2 283 15 is_stmt 0
	addi	s1,s1,6
.LVL71:
	.loc 2 283 11
	sw	s1,0(s3)
	.loc 2 285 5 is_stmt 1
.LVL72:
.L38:
	.loc 2 286 1 is_stmt 0
	lw	ra,44(sp)
	.cfi_remember_state
	.cfi_restore 1
	lw	s0,40(sp)
	.cfi_restore 8
.LVL73:
	lw	s1,36(sp)
	.cfi_restore 9
	lw	s2,32(sp)
	.cfi_restore 18
	lw	s3,28(sp)
	.cfi_restore 19
.LVL74:
	lw	s4,24(sp)
	.cfi_restore 20
	lw	s5,20(sp)
	.cfi_restore 21
	lw	s6,16(sp)
	.cfi_restore 22
	lw	s7,12(sp)
	.cfi_restore 23
	addi	sp,sp,48
	.cfi_def_cfa_offset 0
	jr	ra
.LVL75:
.L41:
	.cfi_restore_state
	.loc 2 221 9 is_stmt 1
	.loc 2 224 9
	.loc 2 224 21 is_stmt 0
	addi	a5,a5,4
.LVL76:
	.loc 2 226 9 is_stmt 1
	.loc 2 226 11 is_stmt 0
	bne	a5,a3,.L40
	.loc 2 228 13 is_stmt 1
	lui	a4,%hi(.LC5)
	addi	a4,a4,%lo(.LC5)
	li	a3,228
	addi	a2,s4,%lo(.LC1)
	li	a1,3
	mv	a0,s2
	call	mbedtls_debug_print_msg
.LVL77:
	.loc 2 230 13
.L46:
	.loc 2 216 15 is_stmt 0
	li	a0,-24576
	addi	a0,a0,384
	j	.L38
.LVL78:
.L43:
	.loc 2 248 9 is_stmt 1 discriminator 3
	.loc 2 248 39 is_stmt 0 discriminator 3
	call	mbedtls_ssl_hash_from_md_alg
.LVL79:
	.loc 2 248 37 discriminator 3
	sb	a0,0(s2)
	.loc 2 249 9 is_stmt 1 discriminator 3
.LVL80:
	.loc 2 249 37 is_stmt 0 discriminator 3
	sb	s6,1(s2)
	.loc 2 252 9 is_stmt 1 discriminator 3
.LVL81:
	.loc 2 252 39 is_stmt 0 discriminator 3
	lw	a0,0(s4)
	.loc 2 253 33 discriminator 3
	addi	s1,s1,4
.LVL82:
	addi	s2,s2,4
	.loc 2 252 39 discriminator 3
	call	mbedtls_ssl_hash_from_md_alg
.LVL83:
	.loc 2 252 37 discriminator 3
	sb	a0,-2(s2)
	.loc 2 253 9 is_stmt 1 discriminator 3
.LVL84:
	.loc 2 253 37 is_stmt 0 discriminator 3
	sb	s7,-1(s2)
	.loc 2 245 62 is_stmt 1 discriminator 3
.LVL85:
	j	.L42
.LVL86:
.L44:
	.cfi_def_cfa_offset 0
	.cfi_restore 1
	.cfi_restore 8
	.cfi_restore 9
	.cfi_restore 18
	.cfi_restore 19
	.cfi_restore 20
	.cfi_restore 21
	.cfi_restore 22
	.cfi_restore 23
	.loc 2 210 15 is_stmt 0
	li	a0,0
.LVL87:
	.loc 2 286 1
	ret
.LVL88:
.L48:
	.cfi_def_cfa_offset 48
	.cfi_offset 1, -4
	.cfi_offset 8, -8
	.cfi_offset 9, -12
	.cfi_offset 18, -16
	.cfi_offset 19, -20
	.cfi_offset 20, -24
	.cfi_offset 21, -28
	.cfi_offset 22, -32
	.cfi_offset 23, -36
	.loc 2 238 92
	li	a0,-28672
	addi	a0,a0,1536
.LVL89:
	j	.L38
	.cfi_endproc
.LFE29:
	.size	ssl_write_signature_algorithms_ext, .-ssl_write_signature_algorithms_ext
	.section	.rodata.ssl_write_supported_elliptic_curves_ext.str1.4,"aMS",@progbits,1
	.align	2
.LC6:
	.string	"client hello, adding supported_elliptic_curves extension"
	.align	2
.LC7:
	.string	"invalid curve in ssl configuration"
	.align	2
.LC8:
	.string	"malformed supported_elliptic_curves extension in config"
	.section	.text.ssl_write_supported_elliptic_curves_ext,"ax",@progbits
	.align	1
	.type	ssl_write_supported_elliptic_curves_ext, @function
ssl_write_supported_elliptic_curves_ext:
.LFB30:
	.loc 2 296 1 is_stmt 1
	.cfi_startproc
.LVL90:
	.loc 2 297 5
	.loc 2 296 1 is_stmt 0
	addi	sp,sp,-48
	.cfi_def_cfa_offset 48
	sw	s0,40(sp)
	sw	s2,32(sp)
	sw	s3,28(sp)
	sw	s4,24(sp)
	sw	s5,20(sp)
	sw	s6,16(sp)
	sw	ra,44(sp)
	sw	s1,36(sp)
	sw	s7,12(sp)
	.cfi_offset 8, -8
	.cfi_offset 18, -16
	.cfi_offset 19, -20
	.cfi_offset 20, -24
	.cfi_offset 21, -28
	.cfi_offset 22, -32
	.cfi_offset 1, -4
	.cfi_offset 9, -12
	.cfi_offset 23, -36
	.loc 2 305 5
	lui	a4,%hi(.LC6)
	lui	s4,%hi(.LC1)
	.loc 2 303 11
	sw	zero,0(a3)
	.loc 2 296 1
	mv	s0,a1
.LVL91:
	.loc 2 298 5 is_stmt 1
	.loc 2 299 5
	.loc 2 300 5
	.loc 2 301 5
	.loc 2 303 5
	.loc 2 305 5
	.loc 2 296 1 is_stmt 0
	mv	s3,a2
	mv	s5,a3
	.loc 2 305 5
	addi	a4,a4,%lo(.LC6)
	li	a3,305
.LVL92:
	addi	a2,s4,%lo(.LC1)
.LVL93:
	li	a1,3
.LVL94:
	.loc 2 296 1
	mv	s2,a0
	.loc 2 305 5
	call	mbedtls_debug_print_msg
.LVL95:
	.loc 2 308 5 is_stmt 1
	.loc 2 308 18 is_stmt 0
	lw	a5,0(s2)
	lw	s6,100(a5)
	.loc 2 308 7
	bne	s6,zero,.L70
.LVL96:
.L72:
	.loc 2 320 13 is_stmt 1
	.loc 2 320 19 is_stmt 0
	li	a0,-24576
	addi	a0,a0,384
.LVL97:
.L54:
	.loc 2 363 1
	lw	ra,44(sp)
	.cfi_remember_state
	.cfi_restore 1
	lw	s0,40(sp)
	.cfi_restore 8
.LVL98:
	lw	s1,36(sp)
	.cfi_restore 9
	lw	s2,32(sp)
	.cfi_restore 18
	lw	s3,28(sp)
	.cfi_restore 19
	lw	s4,24(sp)
	.cfi_restore 20
	lw	s5,20(sp)
	.cfi_restore 21
.LVL99:
	lw	s6,16(sp)
	.cfi_restore 22
	lw	s7,12(sp)
	.cfi_restore 23
	addi	sp,sp,48
	.cfi_def_cfa_offset 0
	jr	ra
.LVL100:
.L58:
	.cfi_restore_state
	.loc 2 315 9 is_stmt 1
	.loc 2 315 16 is_stmt 0
	mv	a0,a5
	call	mbedtls_ecp_curve_info_from_grp_id
.LVL101:
	.loc 2 316 9 is_stmt 1
	.loc 2 316 11 is_stmt 0
	bne	a0,zero,.L57
	.loc 2 318 13 is_stmt 1
	lui	a4,%hi(.LC7)
	addi	a4,a4,%lo(.LC7)
	li	a3,318
	addi	a2,s4,%lo(.LC1)
	li	a1,1
.LVL102:
.L73:
	mv	a0,s2
.LVL103:
	call	mbedtls_debug_print_msg
.LVL104:
	j	.L72
.LVL105:
.L57:
	.loc 2 322 9
	.loc 2 322 28 is_stmt 0
	addi	s1,s1,2
.LVL106:
	.loc 2 324 9 is_stmt 1
	.loc 2 324 11 is_stmt 0
	bne	s1,s7,.L55
	.loc 2 326 13 is_stmt 1
	lui	a4,%hi(.LC8)
	addi	a4,a4,%lo(.LC8)
	li	a3,326
	addi	a2,s4,%lo(.LC1)
	li	a1,3
	j	.L73
.LVL107:
.L70:
	li	s1,0
	li	s7,65536
.LVL108:
.L55:
	.loc 2 312 10 discriminator 1
	slli	a5,s1,1
	add	a5,s6,a5
.LVL109:
	lw	a5,0(a5)
.LVL110:
	.loc 2 311 5 is_stmt 0 discriminator 1
	bne	a5,zero,.L58
	.loc 2 333 5 is_stmt 1
	.loc 2 333 7 is_stmt 0
	beq	s1,zero,.L72
	.loc 2 336 5 is_stmt 1
	.loc 2 336 10
.LVL111:
.LBB89:
.LBB90:
	.loc 1 302 5
	.loc 1 302 27 is_stmt 0
	bgtu	s0,s3,.L64
.LBE90:
.LBE89:
	.loc 2 336 14
	addi	s1,s1,6
.LVL112:
.LBB92:
.LBB91:
	.loc 1 302 53
	sub	s3,s3,s0
.LVL113:
	.loc 1 302 27
	bgtu	s1,s3,.L64
.LVL114:
.LBE91:
.LBE92:
	.loc 2 336 121 is_stmt 1
	.loc 2 338 5
	.loc 2 340 5
	.loc 2 340 17 is_stmt 0
	lw	a4,0(s2)
	.loc 2 298 20
	addi	s2,s0,6
.LVL115:
	.loc 2 340 17
	lw	s3,100(a4)
.LVL116:
.L60:
	.loc 2 341 10 is_stmt 1 discriminator 1
	slli	a4,a5,1
	add	a4,s3,a4
	lw	a0,0(a4)
	.loc 2 346 47 is_stmt 0 discriminator 1
	addi	s1,a5,2
	.loc 2 340 5 discriminator 1
	bne	a0,zero,.L61
	.loc 2 349 5 is_stmt 1
.LVL117:
	.loc 2 351 10 is_stmt 0
	li	a4,10
	sb	a4,1(s0)
	.loc 2 355 12
	andi	a4,a5,0xff
	addi	a3,a4,2
	.loc 2 355 10
	sb	a3,3(s0)
	.loc 2 354 58
	srli	s1,s1,8
	.loc 2 357 54
	srli	a3,a5,8
	.loc 2 349 10
	sb	zero,0(s0)
	.loc 2 351 5 is_stmt 1
.LVL118:
	.loc 2 354 5
	.loc 2 354 12 is_stmt 0
	sb	s1,2(s0)
	.loc 2 355 5 is_stmt 1
.LVL119:
	.loc 2 357 5
	.loc 2 357 12 is_stmt 0
	sb	a3,4(s0)
	.loc 2 358 5 is_stmt 1
.LVL120:
	.loc 2 358 10 is_stmt 0
	sb	a4,5(s0)
	.loc 2 360 5 is_stmt 1
	.loc 2 360 15 is_stmt 0
	addi	a5,a5,6
.LVL121:
	.loc 2 360 11
	sw	a5,0(s5)
	.loc 2 362 5 is_stmt 1
	.loc 2 362 11 is_stmt 0
	j	.L54
.LVL122:
.L61:
	.loc 2 344 9 is_stmt 1
	.loc 2 344 16 is_stmt 0
	call	mbedtls_ecp_curve_info_from_grp_id
.LVL123:
	.loc 2 345 9 is_stmt 1
	.loc 2 345 51 is_stmt 0
	lhu	a5,4(a0)
	addi	s2,s2,2
	srli	a5,a5,8
	sb	a5,-2(s2)
	.loc 2 346 9 is_stmt 1
.LVL124:
	.loc 2 346 51 is_stmt 0
	lhu	a5,4(a0)
	sb	a5,-1(s2)
	.loc 2 342 10 is_stmt 1
.LVL125:
	.loc 2 346 47 is_stmt 0
	mv	a5,s1
	j	.L60
.LVL126:
.L64:
	.loc 2 336 99
	li	a0,-28672
	addi	a0,a0,1536
.LVL127:
	j	.L54
	.cfi_endproc
.LFE30:
	.size	ssl_write_supported_elliptic_curves_ext, .-ssl_write_supported_elliptic_curves_ext
	.section	.rodata.ssl_check_server_ecdh_params.str1.4,"aMS",@progbits,1
	.align	2
.LC9:
	.string	"should never happen"
	.align	2
.LC10:
	.string	"ECDH curve: %s"
	.section	.text.ssl_check_server_ecdh_params,"ax",@progbits
	.align	1
	.type	ssl_check_server_ecdh_params, @function
ssl_check_server_ecdh_params:
.LFB45:
	.loc 2 2252 1 is_stmt 1
	.cfi_startproc
.LVL128:
	.loc 2 2253 5
	.loc 2 2254 5
	.loc 2 2256 5
	.loc 2 2252 1 is_stmt 0
	addi	sp,sp,-32
	.cfi_def_cfa_offset 32
	sw	s1,20(sp)
	sw	s2,16(sp)
	sw	ra,28(sp)
	sw	s0,24(sp)
	sw	s3,12(sp)
	.cfi_offset 9, -12
	.cfi_offset 18, -16
	.cfi_offset 1, -4
	.cfi_offset 8, -8
	.cfi_offset 19, -20
	.loc 2 2256 12
	lw	a5,48(a0)
	.loc 2 2252 1
	mv	s1,a0
	lui	s2,%hi(.LC1)
	.loc 2 2256 12
	lw	s0,132(a5)
.LVL129:
	.loc 2 2261 5 is_stmt 1
	.loc 2 2261 18 is_stmt 0
	mv	a0,s0
.LVL130:
	call	mbedtls_ecp_curve_info_from_grp_id
.LVL131:
	.loc 2 2262 5 is_stmt 1
	.loc 2 2262 7 is_stmt 0
	bne	a0,zero,.L75
	.loc 2 2264 9 is_stmt 1
	lui	a4,%hi(.LC9)
	li	a3,4096
	addi	a4,a4,%lo(.LC9)
	addi	a3,a3,-1832
	addi	a2,s2,%lo(.LC1)
	li	a1,1
	mv	a0,s1
.LVL132:
	.loc 2 2265 15 is_stmt 0
	li	s0,-28672
.LVL133:
	.loc 2 2264 9
	call	mbedtls_debug_print_msg
.LVL134:
	.loc 2 2265 9 is_stmt 1
	.loc 2 2265 15 is_stmt 0
	addi	s0,s0,1024
.L74:
	.loc 2 2282 1
	lw	ra,28(sp)
	.cfi_remember_state
	.cfi_restore 1
	mv	a0,s0
	lw	s0,24(sp)
	.cfi_restore 8
	lw	s1,20(sp)
	.cfi_restore 9
.LVL135:
	lw	s2,16(sp)
	.cfi_restore 18
	lw	s3,12(sp)
	.cfi_restore 19
	addi	sp,sp,32
	.cfi_def_cfa_offset 0
	jr	ra
.LVL136:
.L75:
	.cfi_restore_state
	.loc 2 2268 5 is_stmt 1
	lw	a5,8(a0)
	lui	a4,%hi(.LC10)
	li	s3,4096
	addi	a4,a4,%lo(.LC10)
	addi	a3,s3,-1828
	addi	a2,s2,%lo(.LC1)
	li	a1,2
	mv	a0,s1
.LVL137:
	call	mbedtls_debug_print_msg
.LVL138:
	.loc 2 2271 5
	.loc 2 2271 9 is_stmt 0
	mv	a1,s0
	mv	a0,s1
	call	mbedtls_ssl_check_curve
.LVL139:
	mv	s0,a0
.LVL140:
	.loc 2 2271 7
	bne	a0,zero,.L77
	.loc 2 2278 5 is_stmt 1
	.loc 2 2278 146 is_stmt 0
	lw	a4,48(s1)
	.loc 2 2278 5
	li	a5,1
	addi	a3,s3,-1818
	addi	a4,a4,132
	addi	a2,s2,%lo(.LC1)
	li	a1,3
	mv	a0,s1
	call	mbedtls_debug_printf_ecdh
.LVL141:
	.loc 2 2281 5 is_stmt 1
	.loc 2 2281 11 is_stmt 0
	j	.L74
.L77:
	.loc 2 2276 15
	li	s0,-1
	j	.L74
	.cfi_endproc
.LFE45:
	.size	ssl_check_server_ecdh_params, .-ssl_check_server_ecdh_params
	.section	.rodata.mbedtls_ssl_handshake_client_step.str1.4,"aMS",@progbits,1
	.align	2
.LC11:
	.string	"a"
	.align	2
.LC12:
	.string	"no"
	.align	2
.LC13:
	.string	"client state: %d"
	.align	2
.LC14:
	.string	"=> write client hello"
	.align	2
.LC15:
	.string	"no RNG provided"
	.align	2
.LC16:
	.string	"configured max major version is invalid, consider using mbedtls_ssl_config_defaults()"
	.align	2
.LC17:
	.string	"client hello, max version: [%d:%d]"
	.align	2
.LC18:
	.string	"client hello, random bytes"
	.align	2
.LC19:
	.string	"client hello, session id len.: %d"
	.align	2
.LC20:
	.string	"client hello, session id"
	.align	2
.LC21:
	.string	"client hello, add ciphersuite: %04x"
	.align	2
.LC22:
	.string	"client hello, got %d ciphersuites (excluding SCSVs)"
	.align	2
.LC23:
	.string	"adding EMPTY_RENEGOTIATION_INFO_SCSV"
	.align	2
.LC24:
	.string	"client hello, compress len.: %d"
	.align	2
.LC25:
	.string	"client hello, compress alg.: %d"
	.align	2
.LC26:
	.string	"client hello, adding server name extension: %s"
	.align	2
.LC27:
	.string	"ssl_write_hostname_ext"
	.align	2
.LC28:
	.string	"ssl_write_signature_algorithms_ext"
	.align	2
.LC29:
	.string	"ssl_write_supported_elliptic_curves_ext"
	.align	2
.LC30:
	.string	"client hello, adding supported_point_formats extension"
	.align	2
.LC31:
	.string	"ssl_write_supported_point_formats_ext"
	.align	2
.LC32:
	.string	"client hello, adding max_fragment_length extension"
	.align	2
.LC33:
	.string	"ssl_write_max_fragment_length_ext"
	.align	2
.LC34:
	.string	"ssl_write_alpn_ext"
	.align	2
.LC35:
	.string	"ssl_write_session_ticket_ext"
	.align	2
.LC36:
	.string	"client hello, total extension length: %d"
	.align	2
.LC37:
	.string	"mbedtls_ssl_write_handshake_msg"
	.align	2
.LC38:
	.string	"<= write client hello"
	.align	2
.LC39:
	.string	"=> parse server hello"
	.align	2
.LC40:
	.string	"mbedtls_ssl_read_record"
	.align	2
.LC41:
	.string	"bad server hello message"
	.align	2
.LC42:
	.string	"server hello, version"
	.align	2
.LC43:
	.string	"server version out of bounds -  min: [%d:%d], server: [%d:%d], max: [%d:%d]"
	.align	2
.LC44:
	.string	"server hello, current time: %lu"
	.align	2
.LC45:
	.string	"server hello, random bytes"
	.align	2
.LC46:
	.string	"server hello, bad compression: %d"
	.align	2
.LC47:
	.string	"ciphersuite info for %04x not found"
	.align	2
.LC48:
	.string	"server hello, session id len.: %d"
	.align	2
.LC49:
	.string	"server hello, session id"
	.align	2
.LC50:
	.string	"mbedtls_ssl_derive_keys"
	.align	2
.LC51:
	.string	"%s session has been resumed"
	.align	2
.LC52:
	.string	"server hello, chosen ciphersuite: %04x"
	.align	2
.LC53:
	.string	"server hello, compress alg.: %d"
	.align	2
.LC54:
	.string	"server hello, chosen ciphersuite: %s"
	.align	2
.LC55:
	.string	"server hello, total extension length: %d"
	.align	2
.LC56:
	.string	"found renegotiation extension"
	.align	2
.LC57:
	.string	"non-zero length renegotiation info"
	.align	2
.LC58:
	.string	"found max_fragment_length extension"
	.align	2
.LC59:
	.string	"non-matching max fragment length extension"
	.align	2
.LC60:
	.string	"found session_ticket extension"
	.align	2
.LC61:
	.string	"non-matching session ticket extension"
	.align	2
.LC62:
	.string	"found supported_point_formats extension"
	.align	2
.LC63:
	.string	"point format selected: %d"
	.align	2
.LC64:
	.string	"no point format in common"
	.align	2
.LC65:
	.string	"found alpn extension"
	.align	2
.LC66:
	.string	"non-matching ALPN extension"
	.align	2
.LC67:
	.string	"ALPN extension: no matching protocol"
	.align	2
.LC68:
	.string	"unknown extension found: %d (ignoring)"
	.align	2
.LC69:
	.string	"legacy renegotiation, breaking off handshake"
	.align	2
.LC70:
	.string	"<= parse server hello"
	.align	2
.LC71:
	.string	"=> parse server key exchange"
	.align	2
.LC72:
	.string	"<= skip parse server key exchange"
	.align	2
.LC73:
	.string	"certificate required"
	.align	2
.LC74:
	.string	"server key not ECDH capable"
	.align	2
.LC75:
	.string	"mbedtls_ecdh_get_params"
	.align	2
.LC76:
	.string	"bad server certificate (ECDH curve)"
	.align	2
.LC77:
	.string	"ssl_get_ecdh_params_from_cert"
	.align	2
.LC78:
	.string	"bad server key exchange message"
	.align	2
.LC79:
	.string	"server key exchange message must not be skipped"
	.align	2
.LC80:
	.string	"server key exchange"
	.align	2
.LC81:
	.string	"bad server key exchange message (psk_identity_hint length)"
	.align	2
.LC82:
	.string	"mbedtls_dhm_read_params"
	.align	2
.LC83:
	.string	"DHM prime too short: %d < %d"
	.align	2
.LC84:
	.string	"DHM: P "
	.align	2
.LC85:
	.string	"DHM: G "
	.align	2
.LC86:
	.string	"DHM: GY"
	.align	2
.LC87:
	.string	"mbedtls_ecdh_read_params"
	.align	2
.LC88:
	.string	"bad server key exchange message (ECDHE curve)"
	.align	2
.LC89:
	.string	"Server used unsupported HashAlgorithm %d"
	.align	2
.LC90:
	.string	"server used unsupported SignatureAlgorithm %d"
	.align	2
.LC91:
	.string	"server used HashAlgorithm %d that was not offered"
	.align	2
.LC92:
	.string	"Server used SignatureAlgorithm %d"
	.align	2
.LC93:
	.string	"Server used HashAlgorithm %d"
	.align	2
.LC94:
	.string	"signature"
	.align	2
.LC95:
	.string	"parameters hash"
	.align	2
.LC96:
	.string	"mbedtls_pk_verify"
	.align	2
.LC97:
	.string	"<= parse server key exchange"
	.align	2
.LC98:
	.string	"=> parse certificate request"
	.align	2
.LC99:
	.string	"<= skip parse certificate request"
	.align	2
.LC100:
	.string	"bad certificate request message"
	.align	2
.LC101:
	.string	"got %s certificate request"
	.align	2
.LC102:
	.string	"Supported Signature Algorithm found: %d,%d"
	.align	2
.LC103:
	.string	"<= parse certificate request"
	.align	2
.LC104:
	.string	"=> parse server hello done"
	.align	2
.LC105:
	.string	"bad server hello done message"
	.align	2
.LC106:
	.string	"<= parse server hello done"
	.align	2
.LC107:
	.string	"=> write client key exchange"
	.align	2
.LC108:
	.string	"mbedtls_dhm_make_public"
	.align	2
.LC109:
	.string	"DHM: X "
	.align	2
.LC110:
	.string	"DHM: GX"
	.align	2
.LC111:
	.string	"mbedtls_dhm_calc_secret"
	.align	2
.LC112:
	.string	"DHM: K "
	.align	2
.LC113:
	.string	"mbedtls_ecdh_make_public"
	.align	2
.LC114:
	.string	"mbedtls_ecdh_calc_secret"
	.align	2
.LC115:
	.string	"got no private key for PSK"
	.align	2
.LC116:
	.string	"psk identity too long or SSL buffer too short"
	.align	2
.LC117:
	.string	"mbedtls_ssl_psk_derive_premaster"
	.align	2
.LC118:
	.string	"f_rng"
	.align	2
.LC119:
	.string	"certificate key type mismatch"
	.align	2
.LC120:
	.string	"mbedtls_rsa_pkcs1_encrypt"
	.align	2
.LC121:
	.string	"<= write client key exchange"
	.align	2
.LC122:
	.string	"=> write certificate verify"
	.align	2
.LC123:
	.string	"<= skip write certificate verify"
	.align	2
.LC124:
	.string	"got no private key for certificate"
	.align	2
.LC125:
	.string	"mbedtls_pk_sign"
	.align	2
.LC126:
	.string	"<= write certificate verify"
	.align	2
.LC127:
	.string	"=> parse new session ticket"
	.align	2
.LC128:
	.string	"bad new session ticket message"
	.align	2
.LC129:
	.string	"ticket length: %d"
	.align	2
.LC130:
	.string	"ticket alloc failed"
	.align	2
.LC131:
	.string	"ticket in use, discarding session id"
	.align	2
.LC132:
	.string	"<= parse new session ticket"
	.align	2
.LC133:
	.string	"handshake: done"
	.align	2
.LC134:
	.string	"invalid state %d"
	.align	2
.LC135:
	.string	"ssl_generate_random"
	.section	.text.mbedtls_ssl_handshake_client_step,"ax",@progbits
	.align	1
	.globl	mbedtls_ssl_handshake_client_step
	.type	mbedtls_ssl_handshake_client_step, @function
mbedtls_ssl_handshake_client_step:
.LFB57:
	.loc 2 3779 1 is_stmt 1
	.cfi_startproc
.LVL142:
	.loc 2 3780 5
	.loc 2 3782 5
	.loc 2 3779 1 is_stmt 0
	addi	sp,sp,-176
	.cfi_def_cfa_offset 176
	sw	ra,172(sp)
	sw	s0,168(sp)
	sw	s1,164(sp)
	sw	s2,160(sp)
	sw	s3,156(sp)
	sw	s4,152(sp)
	sw	s5,148(sp)
	sw	s6,144(sp)
	sw	s7,140(sp)
	sw	s8,136(sp)
	sw	s9,132(sp)
	sw	s10,128(sp)
	sw	s11,124(sp)
	.cfi_offset 1, -4
	.cfi_offset 8, -8
	.cfi_offset 9, -12
	.cfi_offset 18, -16
	.cfi_offset 19, -20
	.cfi_offset 20, -24
	.cfi_offset 21, -28
	.cfi_offset 22, -32
	.cfi_offset 23, -36
	.cfi_offset 24, -40
	.cfi_offset 25, -44
	.cfi_offset 26, -48
	.cfi_offset 27, -52
	.loc 2 3782 12
	lw	a5,4(a0)
	.loc 2 3782 7
	li	a4,16
	beq	a5,a4,.L273
	.loc 2 3782 50 discriminator 1
	lw	a4,48(a0)
	mv	s11,a0
	beq	a4,zero,.L273
	.loc 2 3785 5 is_stmt 1
	lui	a4,%hi(.LC13)
	li	a3,4096
	lui	s1,%hi(.LC1)
	addi	a4,a4,%lo(.LC13)
	addi	a3,a3,-311
	addi	a2,s1,%lo(.LC1)
	li	a1,2
	call	mbedtls_debug_print_msg
.LVL143:
	.loc 2 3787 5
	.loc 2 3787 17 is_stmt 0
	mv	a0,s11
	call	mbedtls_ssl_flush_output
.LVL144:
	mv	s0,a0
.LVL145:
	.loc 2 3787 7
	bne	a0,zero,.L79
	.loc 2 3802 5 is_stmt 1
	.loc 2 3802 7 is_stmt 0
	lw	a4,4(s11)
	li	a5,12
	bne	a4,a5,.L81
	.loc 2 3803 23 discriminator 1
	lw	a5,48(s11)
	.loc 2 3802 61 discriminator 1
	lw	a5,1924(a5)
	beq	a5,zero,.L81
	.loc 2 3805 9 is_stmt 1
	.loc 2 3805 20 is_stmt 0
	li	a5,17
	sw	a5,4(s11)
.L81:
	.loc 2 3809 5 is_stmt 1
	.loc 2 3809 16 is_stmt 0
	lw	a5,4(s11)
	li	a4,17
	bgtu	a5,a4,.L82
	lui	a3,%hi(.L84)
	slli	a4,a5,2
	addi	a3,a3,%lo(.L84)
	add	a4,a4,a3
	lw	a4,0(a4)
	jr	a4
	.section	.rodata.mbedtls_ssl_handshake_client_step,"a",@progbits
	.align	2
	.align	2
.L84:
	.word	.L100
	.word	.L99
	.word	.L98
	.word	.L97
	.word	.L96
	.word	.L95
	.word	.L94
	.word	.L93
	.word	.L92
	.word	.L91
	.word	.L90
	.word	.L89
	.word	.L88
	.word	.L87
	.word	.L86
	.word	.L85
	.word	.L82
	.word	.L83
	.section	.text.mbedtls_ssl_handshake_client_step
.L100:
	.loc 2 3812 13 is_stmt 1
	.loc 2 3812 24 is_stmt 0
	li	a4,1
	sw	a4,4(s11)
	.loc 2 3813 13 is_stmt 1
	.loc 2 3787 17 is_stmt 0
	mv	s0,a5
.LVL146:
.L79:
	.loc 2 3910 1
	lw	ra,172(sp)
	.cfi_remember_state
	.cfi_restore 1
	mv	a0,s0
	lw	s0,168(sp)
	.cfi_restore 8
	lw	s1,164(sp)
	.cfi_restore 9
	lw	s2,160(sp)
	.cfi_restore 18
	lw	s3,156(sp)
	.cfi_restore 19
	lw	s4,152(sp)
	.cfi_restore 20
	lw	s5,148(sp)
	.cfi_restore 21
	lw	s6,144(sp)
	.cfi_restore 22
	lw	s7,140(sp)
	.cfi_restore 23
	lw	s8,136(sp)
	.cfi_restore 24
	lw	s9,132(sp)
	.cfi_restore 25
	lw	s10,128(sp)
	.cfi_restore 26
	lw	s11,124(sp)
	.cfi_restore 27
	addi	sp,sp,176
	.cfi_def_cfa_offset 0
	jr	ra
.LVL147:
.L99:
	.cfi_restore_state
	.loc 2 3819 12 is_stmt 1
.LBB169:
.LBB170:
	.loc 2 790 5
	.loc 2 791 5
	.loc 2 793 5
	.loc 2 794 5
	.loc 2 795 5
	.loc 2 797 5
	.loc 2 798 5
	.loc 2 799 5
	.loc 2 802 5
	.loc 2 805 5
	lui	a4,%hi(.LC14)
	addi	a4,a4,%lo(.LC14)
	li	a3,805
	addi	a2,s1,%lo(.LC1)
	li	a1,2
	mv	a0,s11
	call	mbedtls_debug_print_msg
.LVL148:
	.loc 2 807 5
	.loc 2 807 12 is_stmt 0
	lw	a5,0(s11)
	.loc 2 807 7
	lw	a4,24(a5)
	bne	a4,zero,.L101
	.loc 2 809 9 is_stmt 1
	lui	a4,%hi(.LC15)
	mv	a0,s11
	addi	a4,a4,%lo(.LC15)
	li	a3,809
	addi	a2,s1,%lo(.LC1)
	li	a1,1
	call	mbedtls_debug_print_msg
.LVL149:
	.loc 2 810 9
	.loc 2 810 15 is_stmt 0
	li	a0,-28672
	addi	s0,a0,-1024
.LVL150:
	j	.L79
.LVL151:
.L101:
	.loc 2 817 9 is_stmt 1
	.loc 2 817 35 is_stmt 0
	lbu	a4,158(a5)
	sw	a4,8(s11)
	.loc 2 818 9 is_stmt 1
	.loc 2 818 35 is_stmt 0
	lbu	a4,159(a5)
	sw	a4,12(s11)
	.loc 2 821 5 is_stmt 1
	.loc 2 821 18 is_stmt 0
	lbu	a0,156(a5)
	.loc 2 821 7
	bne	a0,zero,.L103
	.loc 2 823 9 is_stmt 1
	lui	a4,%hi(.LC16)
	addi	a4,a4,%lo(.LC16)
	li	a3,823
	addi	a2,s1,%lo(.LC1)
	li	a1,1
	mv	a0,s11
	call	mbedtls_debug_print_msg
.LVL152:
	.loc 2 825 9
.L273:
.LBE170:
.LBE169:
	.loc 2 3783 15 is_stmt 0
	li	a0,-28672
	addi	s0,a0,-256
	j	.L79
.LVL153:
.L103:
.LBB217:
.LBB213:
	.loc 2 828 5 is_stmt 1
	.loc 2 857 41 is_stmt 0
	lw	a2,160(a5)
	.loc 2 828 9
	lw	s6,152(s11)
.LVL154:
	.loc 2 829 5 is_stmt 1
	.loc 2 839 5
	.loc 2 839 10
.LBE213:
.LBE217:
	.loc 1 302 5
.LBB218:
.LBB214:
	.loc 2 839 112
	.loc 2 854 5
	.loc 2 855 5
	lbu	a1,157(a5)
	.loc 2 857 41 is_stmt 0
	srli	a2,a2,1
	.loc 2 855 5
	addi	a3,s6,4
.LVL155:
	andi	a2,a2,1
	call	mbedtls_ssl_write_version
.LVL156:
	.loc 2 858 5 is_stmt 1
	.loc 2 860 5
	lbu	a6,5(s6)
	lbu	a5,4(s6)
	lui	a4,%hi(.LC17)
	addi	a4,a4,%lo(.LC17)
	li	a3,860
	addi	a2,s1,%lo(.LC1)
	li	a1,3
	mv	a0,s11
	call	mbedtls_debug_print_msg
.LVL157:
	.loc 2 863 5
.LBB171:
.LBB172:
	.loc 2 706 5
	.loc 2 707 5
	.loc 2 732 20 is_stmt 0
	lw	a5,0(s11)
	.loc 2 707 27
	lw	s0,48(s11)
.LVL158:
	.loc 2 732 5 is_stmt 1
	.loc 2 732 17 is_stmt 0
	li	a2,4
	lw	a4,24(a5)
	lw	a0,28(a5)
	addi	a1,s0,820
.LVL159:
	jalr	a4
.LVL160:
	mv	s8,a0
.LVL161:
	.loc 2 732 7
	bne	a0,zero,.L104
	.loc 2 735 5 is_stmt 1
.LVL162:
	.loc 2 738 5
	.loc 2 738 20 is_stmt 0
	lw	a5,0(s11)
	.loc 2 738 17
	li	a2,28
	addi	a1,s0,824
.LVL163:
	lw	a4,24(a5)
	lw	a0,28(a5)
.LVL164:
	jalr	a4
.LVL165:
	mv	s8,a0
.LVL166:
	.loc 2 738 7
	bne	a0,zero,.L104
.LBE172:
.LBE171:
	.loc 2 869 30
	lw	a1,48(s11)
	.loc 2 858 7
	addi	a5,s6,6
.LVL167:
	.loc 2 869 5 is_stmt 1
	li	a2,32
	addi	a1,a1,820
	mv	a0,a5
	sw	a5,28(sp)
	call	memcpy
.LVL168:
	.loc 2 870 5
	lw	a5,28(sp)
	lui	a4,%hi(.LC18)
	li	a6,32
	addi	a4,a4,%lo(.LC18)
	li	a1,3
	li	a3,870
	addi	a2,s1,%lo(.LC1)
	mv	a0,s11
	call	mbedtls_debug_print_buf
.LVL169:
	.loc 2 871 5
	.loc 2 885 5
	.loc 2 885 12 is_stmt 0
	lw	a1,44(s11)
	.loc 2 887 7
	li	a5,16
	.loc 2 885 7
	lw	a6,8(a1)
.LVL170:
	.loc 2 887 5 is_stmt 1
	.loc 2 887 16 is_stmt 0
	addi	a4,a6,-16
	.loc 2 887 7
	bgtu	a4,a5,.L274
	.loc 2 891 23
	lw	a5,48(s11)
	.loc 2 887 26
	lw	a5,1908(a5)
	bne	a5,zero,.L105
.L274:
	.loc 2 893 11
	li	a6,0
.LVL171:
.L105:
	.loc 2 905 9 is_stmt 1
	.loc 2 905 11 is_stmt 0
	lw	a5,100(a1)
	beq	a5,zero,.L106
	.loc 2 905 51
	lw	a5,104(a1)
	beq	a5,zero,.L106
	.loc 2 908 13 is_stmt 1
	.loc 2 908 22 is_stmt 0
	lw	a5,0(s11)
	.loc 2 908 19
	li	a2,32
	addi	a1,a1,12
	lw	a4,24(a5)
	lw	a0,28(a5)
	jalr	a4
.LVL172:
	mv	s0,a0
.LVL173:
	.loc 2 911 13 is_stmt 1
	.loc 2 911 15 is_stmt 0
	bne	a0,zero,.L79
	.loc 2 914 13 is_stmt 1
.LVL174:
	.loc 2 914 16 is_stmt 0
	lw	a5,44(s11)
	.loc 2 914 44
	li	a4,32
	.loc 2 914 48
	li	a6,32
	.loc 2 914 44
	sw	a4,8(a5)
.LVL175:
.L106:
	.loc 2 925 5 is_stmt 1
	.loc 2 925 7 is_stmt 0
	addi	s0,s6,39
.LVL176:
	.loc 2 925 12
	sb	a6,38(s6)
	.loc 2 927 5 is_stmt 1
.LVL177:
	.loc 2 927 12 is_stmt 0
	li	a5,0
.LVL178:
.L107:
	.loc 2 927 17 is_stmt 1
	.loc 2 927 5 is_stmt 0
	bne	a6,a5,.L108
	.loc 2 930 5
	lui	a4,%hi(.LC19)
	mv	a5,a6
.LVL179:
	addi	a4,a4,%lo(.LC19)
	li	a3,930
	addi	a2,s1,%lo(.LC1)
	li	a1,3
	mv	a0,s11
	add	s5,s0,a6
	sw	a6,28(sp)
	call	mbedtls_debug_print_msg
.LVL180:
	.loc 2 931 5
	lw	a6,28(sp)
	.loc 2 829 9
	li	s3,16384
	.loc 2 931 5
	lui	a4,%hi(.LC20)
	.loc 2 829 9
	add	s3,s6,s3
	.loc 2 930 5 is_stmt 1
	.loc 2 931 5
	mv	a5,s0
	addi	a4,a4,%lo(.LC20)
	li	a3,931
	addi	a2,s1,%lo(.LC1)
	li	a1,3
	mv	a0,s11
	call	mbedtls_debug_print_buf
.LVL181:
	.loc 2 979 5
	.loc 2 982 5
	.loc 2 983 5
	.loc 2 985 5
	.loc 2 985 10
.LBB173:
.LBB174:
	.loc 1 302 5
	.loc 1 302 27 is_stmt 0
	bgeu	s3,s5,.L109
.LVL182:
.L354:
.LBE174:
.LBE173:
.LBE214:
.LBE218:
.LBB219:
.LBB220:
	.loc 2 3301 13 is_stmt 1
	.loc 2 3301 19 is_stmt 0
	li	a0,-28672
	addi	s0,a0,1536
	j	.L79
.LVL183:
.L108:
.LBE220:
.LBE219:
.LBB230:
.LBB215:
	.loc 2 928 9 is_stmt 1
	.loc 2 928 42 is_stmt 0
	lw	a4,44(s11)
	add	a4,a4,a5
	lbu	a3,12(a4)
	.loc 2 928 14
	add	a4,s6,a5
	.loc 2 927 25
	addi	a5,a5,1
.LVL184:
	.loc 2 928 14
	sb	a3,39(a4)
	.loc 2 927 24 is_stmt 1
.LVL185:
	j	.L107
.LVL186:
.L109:
.LBB176:
.LBB175:
	.loc 1 302 53 is_stmt 0
	sub	a5,s3,s5
	.loc 1 302 27
	li	a4,1
	bleu	a5,a4,.L354
.LVL187:
.LBE175:
.LBE176:
	.loc 2 985 100 is_stmt 1
	.loc 2 986 5
	.loc 2 979 18 is_stmt 0
	lw	a4,12(s11)
	lw	a5,0(s11)
	.loc 2 986 7
	addi	s2,s5,2
.LVL188:
	.loc 2 988 5 is_stmt 1
	.loc 2 979 18 is_stmt 0
	slli	a4,a4,2
	add	a5,a5,a4
	lw	s4,0(a5)
	.loc 2 982 7
	li	s0,0
	.loc 2 997 9
	lui	s9,%hi(.LC21)
.LBB177:
.LBB178:
	.loc 1 302 27
	li	s10,1
.LVL189:
.L111:
.LBE178:
.LBE177:
	.loc 2 988 17 is_stmt 1
	.loc 2 988 29 is_stmt 0
	lw	a0,0(s4)
	.loc 2 988 5
	bne	a0,zero,.L113
	.loc 2 1012 5 is_stmt 1
	lui	a4,%hi(.LC22)
	addi	a4,a4,%lo(.LC22)
	li	a3,1012
	addi	a2,s1,%lo(.LC1)
	li	a1,3
	mv	a0,s11
	mv	a5,s0
	call	mbedtls_debug_print_msg
.LVL190:
	.loc 2 1022 9
	lui	a4,%hi(.LC23)
	addi	a4,a4,%lo(.LC23)
	li	a3,1022
	addi	a2,s1,%lo(.LC1)
	li	a1,3
	mv	a0,s11
	call	mbedtls_debug_print_msg
.LVL191:
	.loc 2 1023 9
	.loc 2 1023 14
.LBB180:
.LBB181:
	.loc 1 302 5
	.loc 1 302 27 is_stmt 0
	bltu	s3,s2,.L354
	.loc 1 302 53
	sub	a5,s3,s2
	.loc 1 302 27
	li	s4,1
	bleu	a5,s4,.L354
.LVL192:
.LBE181:
.LBE180:
	.loc 2 1023 104 is_stmt 1
	.loc 2 1024 9
	.loc 2 1025 14 is_stmt 0
	li	a5,-1
	.loc 2 1026 10
	addi	s0,s0,1
.LVL193:
	.loc 2 1025 14
	sb	a5,1(s2)
	.loc 2 1024 14
	sb	zero,0(s2)
	.loc 2 1025 9 is_stmt 1
	.loc 2 1042 31 is_stmt 0
	srli	a5,s0,7
	.loc 2 1076 9
	lui	a4,%hi(.LC24)
	.loc 2 1043 12
	slli	s0,s0,1
.LVL194:
	.loc 2 1042 12
	sb	a5,0(s5)
	.loc 2 1076 9
	addi	a4,a4,%lo(.LC24)
	li	a5,1
	li	a3,1076
	addi	a2,s1,%lo(.LC1)
	li	a1,3
	mv	a0,s11
	.loc 2 1043 10
	sb	s0,1(s5)
	.loc 2 1076 9
	call	mbedtls_debug_print_msg
.LVL195:
	.loc 2 1077 9
	lui	a4,%hi(.LC25)
	.loc 2 1025 11
	addi	s7,s2,2
.LVL196:
	.loc 2 1026 9 is_stmt 1
	.loc 2 1042 5
	.loc 2 1043 5
	.loc 2 1048 5
	.loc 2 1062 5
	.loc 2 1076 9
	.loc 2 1077 9
	li	a5,0
	addi	a4,a4,%lo(.LC25)
	li	a3,1077
	addi	a2,s1,%lo(.LC1)
	li	a1,3
	mv	a0,s11
	call	mbedtls_debug_print_msg
.LVL197:
	.loc 2 1080 9
	.loc 2 1080 14
.LBB182:
.LBB183:
	.loc 1 302 5
	.loc 1 302 27 is_stmt 0
	bltu	s3,s7,.L354
	.loc 1 302 53
	sub	s7,s3,s7
.LVL198:
	.loc 1 302 27
	bleu	s7,s4,.L354
.LVL199:
.LBE183:
.LBE182:
	.loc 2 1080 104 is_stmt 1
	.loc 2 1081 9
	.loc 2 1081 14 is_stmt 0
	sb	s4,2(s2)
	.loc 2 1082 9 is_stmt 1
	.loc 2 1082 11 is_stmt 0
	addi	s5,s2,4
.LVL200:
	.loc 2 1082 14
	sb	zero,3(s2)
	.loc 2 1087 5 is_stmt 1
	.loc 2 1087 10
.LVL201:
.LBB184:
.LBB185:
	.loc 1 302 5
	.loc 1 302 27 is_stmt 0
	bltu	s3,s5,.L354
	.loc 1 302 53
	sub	a5,s3,s5
	.loc 1 302 27
	bleu	a5,s4,.L354
.LVL202:
.LBE185:
.LBE184:
	.loc 2 1087 100 is_stmt 1
	.loc 2 1090 5
.LBB186:
.LBB187:
	.loc 2 90 12 is_stmt 0
	lw	a5,180(s11)
	.loc 2 88 11
	sw	zero,48(sp)
.LBE187:
.LBE186:
	.loc 2 1090 17
	addi	s7,s2,6
.LVL203:
.LBB193:
.LBB192:
	.loc 2 85 5 is_stmt 1
	.loc 2 86 5
	.loc 2 88 5
	.loc 2 90 5
	.loc 2 90 7 is_stmt 0
	beq	a5,zero,.L114
	.loc 2 93 5 is_stmt 1
	lui	a4,%hi(.LC26)
	addi	a2,s1,%lo(.LC1)
	addi	a4,a4,%lo(.LC26)
	li	a3,93
	li	a1,3
	mv	a0,s11
	call	mbedtls_debug_print_msg
.LVL204:
	.loc 2 97 5
	.loc 2 97 20 is_stmt 0
	lw	a0,180(s11)
	call	strlen
.LVL205:
	mv	a2,a0
.LVL206:
	.loc 2 99 5 is_stmt 1
	.loc 2 99 10
.LBB188:
.LBB189:
	.loc 1 302 5
	.loc 1 302 27 is_stmt 0
	bltu	s3,s7,.L115
.LBE189:
.LBE188:
	.loc 2 99 14
	addi	s0,a0,9
.LVL207:
.LBB191:
.LBB190:
	.loc 1 302 53
	sub	a5,s3,s7
	.loc 1 302 27
	bgtu	s0,a5,.L115
.LVL208:
.LBE190:
.LBE191:
	.loc 2 99 115 is_stmt 1
	.loc 2 127 5
	.loc 2 130 45 is_stmt 0
	addi	a5,a0,5
	.loc 2 130 50
	srli	a5,a5,8
	.loc 2 130 12
	sb	a5,8(s2)
	.loc 2 131 12
	andi	a5,a0,0xff
	addi	a4,a5,5
	.loc 2 131 10
	sb	a4,9(s2)
	.loc 2 133 45
	addi	a4,a0,3
	.loc 2 133 50
	srli	a4,a4,8
	.loc 2 133 12
	sb	a4,10(s2)
	.loc 2 134 12
	addi	a4,a5,3
	.loc 2 134 10
	sb	a4,11(s2)
	.loc 2 137 44
	srli	a4,a0,8
	.loc 2 127 10
	sb	zero,6(s2)
	.loc 2 128 5 is_stmt 1
.LVL209:
	.loc 2 128 10 is_stmt 0
	sb	zero,7(s2)
	.loc 2 130 5 is_stmt 1
.LVL210:
	.loc 2 131 5
	.loc 2 133 5
	.loc 2 134 5
	.loc 2 136 5
	.loc 2 136 10 is_stmt 0
	sb	zero,12(s2)
	.loc 2 137 5 is_stmt 1
.LVL211:
	.loc 2 137 12 is_stmt 0
	sb	a4,13(s2)
	.loc 2 138 5 is_stmt 1
.LVL212:
	.loc 2 138 10 is_stmt 0
	sb	a5,14(s2)
	.loc 2 140 5 is_stmt 1
	lw	a1,180(s11)
	addi	a0,s2,15
.LVL213:
	call	memcpy
.LVL214:
	.loc 2 142 5
	.loc 2 142 11 is_stmt 0
	sw	s0,48(sp)
	.loc 2 144 5 is_stmt 1
.LVL215:
.L114:
.LBE192:
.LBE193:
	.loc 2 1096 5
	.loc 2 1096 13 is_stmt 0
	lw	s4,48(sp)
.LVL216:
	.loc 2 1113 5 is_stmt 1
	.loc 2 1113 17 is_stmt 0
	addi	a3,sp,48
	mv	a2,s3
	.loc 2 1113 64
	addi	a1,s4,2
	.loc 2 1113 17
	add	a1,s5,a1
	mv	a0,s11
	call	ssl_write_signature_algorithms_ext
.LVL217:
	mv	s0,a0
.LVL218:
	.loc 2 1113 7
	beq	a0,zero,.L116
	.loc 2 1116 9 is_stmt 1
	lui	a4,%hi(.LC28)
	mv	a5,a0
	addi	a4,a4,%lo(.LC28)
	li	a3,1116
.LVL219:
.L356:
	.loc 2 1129 13 is_stmt 0
	addi	a2,s1,%lo(.LC1)
	li	a1,1
	mv	a0,s11
	call	mbedtls_debug_print_ret
.LVL220:
	.loc 2 1130 13 is_stmt 1
	.loc 2 1130 19 is_stmt 0
	j	.L79
.LVL221:
.L113:
	.loc 2 990 9 is_stmt 1
	.loc 2 990 28 is_stmt 0
	call	mbedtls_ssl_ciphersuite_from_id
.LVL222:
	.loc 2 993 42
	lw	a5,0(s11)
	.loc 2 990 28
	mv	s7,a0
.LVL223:
	.loc 2 992 9 is_stmt 1
	.loc 2 992 13 is_stmt 0
	lbu	a3,157(a5)
.LVL224:
.LBB194:
.LBB195:
	.loc 2 759 5 is_stmt 1
	.loc 2 760 5
	.loc 2 760 7 is_stmt 0
	beq	a0,zero,.L112
	.loc 2 763 5 is_stmt 1
	.loc 2 763 7 is_stmt 0
	lw	a4,24(a0)
	blt	a3,a4,.L112
.LBE195:
.LBE194:
	.loc 2 992 13
	lbu	a4,159(a5)
.LBB197:
.LBB196:
	.loc 2 763 51
	lw	a5,32(a0)
.LVL225:
	bgt	a4,a5,.L112
.LVL226:
.LBE196:
.LBE197:
	.loc 2 997 9 is_stmt 1
	lw	a5,0(s4)
	mv	a0,s11
.LVL227:
	addi	a4,s9,%lo(.LC21)
	li	a3,997
	addi	a2,s1,%lo(.LC1)
	li	a1,3
	call	mbedtls_debug_print_msg
.LVL228:
	.loc 2 1002 9
	.loc 2 1002 20 is_stmt 0
	mv	a0,s7
	call	mbedtls_ssl_ciphersuite_uses_ec
.LVL229:
	.loc 2 1005 9 is_stmt 1
	.loc 2 1005 14
.LBB198:
.LBB179:
	.loc 1 302 5
	.loc 1 302 27 is_stmt 0
	bltu	s3,s2,.L354
	.loc 1 302 53
	sub	a5,s3,s2
	.loc 1 302 27
	bleu	a5,s10,.L354
.LBE179:
.LBE198:
	.loc 2 1008 49
	lw	a5,0(s4)
	.loc 2 1002 17
	or	s8,s8,a0
.LVL230:
	.loc 2 1005 104 is_stmt 1
	.loc 2 1007 9
	.loc 2 1007 10 is_stmt 0
	addi	s0,s0,1
.LVL231:
	.loc 2 1008 9 is_stmt 1
	.loc 2 1008 49 is_stmt 0
	srai	a5,a5,8
	.loc 2 1008 16
	sb	a5,0(s2)
	.loc 2 1009 9 is_stmt 1
.LVL232:
	.loc 2 1009 16 is_stmt 0
	lw	a5,0(s4)
	.loc 2 1009 11
	addi	s2,s2,2
.LVL233:
	.loc 2 1009 16
	sb	a5,-1(s2)
.L112:
	.loc 2 988 39 is_stmt 1
	addi	s4,s4,4
	j	.L111
.LVL234:
.L115:
	.loc 2 1093 9
	li	s0,-28672
	lui	a4,%hi(.LC27)
	addi	a5,s0,1536
	addi	a4,a4,%lo(.LC27)
	li	a3,1093
.LVL235:
.L355:
	.loc 2 1137 13 is_stmt 0
	addi	a2,s1,%lo(.LC1)
	li	a1,1
	mv	a0,s11
	call	mbedtls_debug_print_ret
.LVL236:
	.loc 2 1138 13 is_stmt 1
	.loc 2 1138 19 is_stmt 0
	addi	s0,s0,1536
	j	.L79
.LVL237:
.L116:
	.loc 2 1119 5 is_stmt 1
	.loc 2 1119 13 is_stmt 0
	lw	a5,48(sp)
	add	s4,s4,a5
.LVL238:
	.loc 2 1124 5 is_stmt 1
	.loc 2 1124 7 is_stmt 0
	beq	s8,zero,.L117
	.loc 2 1126 9 is_stmt 1
	.loc 2 1126 73 is_stmt 0
	addi	a1,s4,2
	.loc 2 1126 21
	addi	a3,sp,48
	mv	a2,s3
	add	a1,s5,a1
	mv	a0,s11
	call	ssl_write_supported_elliptic_curves_ext
.LVL239:
	mv	s0,a0
.LVL240:
	.loc 2 1126 11
	beq	a0,zero,.L118
	.loc 2 1129 13 is_stmt 1
	lui	a4,%hi(.LC29)
	mv	a5,a0
	addi	a4,a4,%lo(.LC29)
	li	a3,1129
	j	.L356
.L118:
	.loc 2 1132 9
	.loc 2 1132 17 is_stmt 0
	lw	a5,48(sp)
.LBB199:
.LBB200:
	.loc 2 375 5
	lui	a4,%hi(.LC30)
	addi	a4,a4,%lo(.LC30)
.LBE200:
.LBE199:
	.loc 2 1132 17
	add	s4,s4,a5
.LVL241:
	.loc 2 1134 9 is_stmt 1
	.loc 2 1134 71 is_stmt 0
	addi	s0,s4,2
.LVL242:
	.loc 2 1134 21
	add	s0,s5,s0
.LVL243:
.LBB204:
.LBB203:
	.loc 2 370 5 is_stmt 1
	.loc 2 371 5
	.loc 2 373 5
	.loc 2 375 5 is_stmt 0
	li	a3,375
	addi	a2,s1,%lo(.LC1)
	li	a1,3
	mv	a0,s11
.LVL244:
	.loc 2 373 11
	sw	zero,48(sp)
	.loc 2 375 5 is_stmt 1
	call	mbedtls_debug_print_msg
.LVL245:
	.loc 2 377 5
	.loc 2 377 10
.LBB201:
.LBB202:
	.loc 1 302 5
	.loc 1 302 27 is_stmt 0
	bltu	s3,s0,.L119
	.loc 1 302 53
	sub	a5,s3,s0
	.loc 1 302 27
	li	a4,5
	bleu	a5,a4,.L119
.LVL246:
.LBE202:
.LBE201:
	.loc 2 377 100 is_stmt 1
	.loc 2 379 5
	.loc 2 381 10 is_stmt 0
	li	a5,11
	sb	a5,1(s0)
	.loc 2 385 10
	li	a5,2
	sb	a5,3(s0)
	.loc 2 387 10
	li	a5,1
	.loc 2 379 10
	sb	zero,0(s0)
	.loc 2 381 5 is_stmt 1
.LVL247:
	.loc 2 384 5
	.loc 2 384 10 is_stmt 0
	sb	zero,2(s0)
	.loc 2 385 5 is_stmt 1
.LVL248:
	.loc 2 387 5
	.loc 2 387 10 is_stmt 0
	sb	a5,4(s0)
	.loc 2 388 5 is_stmt 1
.LVL249:
	.loc 2 388 10 is_stmt 0
	sb	zero,5(s0)
	.loc 2 390 5 is_stmt 1
	.loc 2 392 5
.LVL250:
.LBE203:
.LBE204:
	.loc 2 1140 9
	.loc 2 1140 17 is_stmt 0
	addi	s4,s4,6
.LVL251:
.L117:
	.loc 2 1155 5 is_stmt 1
.LBB205:
.LBB206:
	.loc 2 476 5
	.loc 2 478 5
	.loc 2 480 29 is_stmt 0
	lw	a5,0(s11)
	.loc 2 478 11
	sw	zero,48(sp)
	.loc 2 480 5 is_stmt 1
	.loc 2 480 29 is_stmt 0
	lhu	a5,160(a5)
	.loc 2 480 7
	andi	a5,a5,448
	beq	a5,zero,.L120
.LBE206:
.LBE205:
	.loc 2 1155 63
	addi	s0,s4,2
.LVL252:
.LBB211:
.LBB209:
	.loc 2 483 5
	lui	a4,%hi(.LC32)
.LBE209:
.LBE211:
	.loc 2 1155 17
	add	s0,s5,s0
.LVL253:
.LBB212:
.LBB210:
	.loc 2 483 5 is_stmt 1
	addi	a4,a4,%lo(.LC32)
	li	a3,483
	addi	a2,s1,%lo(.LC1)
	li	a1,3
	mv	a0,s11
	call	mbedtls_debug_print_msg
.LVL254:
	.loc 2 486 5
	.loc 2 486 10
.LBB207:
.LBB208:
	.loc 1 302 5
	.loc 1 302 27 is_stmt 0
	bltu	s3,s0,.L121
	.loc 1 302 53
	sub	a5,s3,s0
	.loc 1 302 27
	li	a4,4
	bleu	a5,a4,.L121
.LVL255:
.LBE208:
.LBE207:
	.loc 2 486 100 is_stmt 1
	.loc 2 488 5
	.loc 2 490 10 is_stmt 0
	li	a5,1
	.loc 2 488 10
	sb	zero,0(s0)
	.loc 2 490 5 is_stmt 1
.LVL256:
	.loc 2 490 10 is_stmt 0
	sb	a5,1(s0)
	.loc 2 493 5 is_stmt 1
.LVL257:
	.loc 2 493 10 is_stmt 0
	sb	zero,2(s0)
	.loc 2 494 5 is_stmt 1
.LVL258:
	.loc 2 494 10 is_stmt 0
	sb	a5,3(s0)
	.loc 2 496 5 is_stmt 1
.LVL259:
	.loc 2 496 21 is_stmt 0
	lw	a5,0(s11)
	lw	a5,160(a5)
	srli	a5,a5,6
	andi	a5,a5,7
	.loc 2 496 10
	sb	a5,4(s0)
	.loc 2 498 5 is_stmt 1
	.loc 2 498 11 is_stmt 0
	li	a5,5
	sw	a5,48(sp)
	.loc 2 500 5 is_stmt 1
.LVL260:
.L120:
.LBE210:
.LBE212:
	.loc 2 1161 5
	.loc 2 1161 13 is_stmt 0
	lw	a5,48(sp)
	.loc 2 1195 17
	addi	a3,sp,48
	mv	a2,s3
	.loc 2 1161 13
	add	s4,s4,a5
.LVL261:
	.loc 2 1195 5 is_stmt 1
	.loc 2 1195 48 is_stmt 0
	addi	a1,s4,2
	.loc 2 1195 17
	add	a1,s5,a1
	mv	a0,s11
	call	ssl_write_alpn_ext
.LVL262:
	mv	s0,a0
.LVL263:
	.loc 2 1195 7
	beq	a0,zero,.L122
	.loc 2 1198 9 is_stmt 1
	lui	a4,%hi(.LC34)
	mv	a5,a0
	addi	a4,a4,%lo(.LC34)
	li	a3,1198
	j	.L356
.LVL264:
.L119:
	.loc 2 1137 13
	li	s0,-28672
.LVL265:
	lui	a4,%hi(.LC31)
	addi	a5,s0,1536
	addi	a4,a4,%lo(.LC31)
	li	a3,1137
	j	.L355
.LVL266:
.L121:
	.loc 2 1158 9
	li	s0,-28672
	lui	a4,%hi(.LC33)
	addi	a5,s0,1536
	addi	a4,a4,%lo(.LC33)
	li	a3,1158
	j	.L355
.LVL267:
.L122:
	.loc 2 1201 5
	.loc 2 1201 13 is_stmt 0
	lw	a5,48(sp)
	.loc 2 1205 17
	addi	a3,sp,48
	mv	a2,s3
	.loc 2 1201 13
	add	s4,s4,a5
.LVL268:
	.loc 2 1205 5 is_stmt 1
	.loc 2 1205 58 is_stmt 0
	addi	a1,s4,2
	.loc 2 1205 17
	add	a1,s5,a1
	mv	a0,s11
	call	ssl_write_session_ticket_ext
.LVL269:
	mv	s0,a0
.LVL270:
	.loc 2 1205 7
	beq	a0,zero,.L123
	.loc 2 1208 9 is_stmt 1
	lui	a4,%hi(.LC35)
	mv	a5,a0
	addi	a4,a4,%lo(.LC35)
	li	a3,1208
	j	.L356
.L123:
	.loc 2 1211 5
	.loc 2 1211 13 is_stmt 0
	lw	a5,48(sp)
	.loc 2 1217 5
	lui	a4,%hi(.LC36)
	addi	a4,a4,%lo(.LC36)
	.loc 2 1211 13
	add	s4,s4,a5
.LVL271:
	.loc 2 1215 5 is_stmt 1
	.loc 2 1217 5
	mv	a5,s4
	li	a3,1217
	addi	a2,s1,%lo(.LC1)
	li	a1,3
	mv	a0,s11
	call	mbedtls_debug_print_msg
.LVL272:
	.loc 2 1220 5
	.loc 2 1220 7 is_stmt 0
	beq	s4,zero,.L124
	.loc 2 1224 9 is_stmt 1
.LVL273:
	.loc 2 1224 43 is_stmt 0
	srli	a5,s4,8
	.loc 2 1224 16
	sb	a5,4(s2)
	.loc 2 1225 9 is_stmt 1
.LVL274:
	.loc 2 1225 16 is_stmt 0
	sb	s4,5(s2)
	.loc 2 1226 9 is_stmt 1
	.loc 2 1226 11 is_stmt 0
	add	s5,s7,s4
.LVL275:
.L124:
	.loc 2 1229 5 is_stmt 1
	.loc 2 1229 21 is_stmt 0
	addi	a5,s11,128
	.loc 2 1230 22
	li	a4,22
	.loc 2 1229 25
	sub	s5,s5,s6
.LVL276:
	.loc 2 1230 22
	sw	a4,28(a5)
	.loc 2 1229 21
	sw	s5,32(a5)
	.loc 2 1230 5 is_stmt 1
	.loc 2 1231 5
	.loc 2 1231 8 is_stmt 0
	lw	a5,24(a5)
	.loc 2 1231 21
	li	a4,1
	.loc 2 1240 17
	mv	a0,s11
	.loc 2 1231 21
	sb	a4,0(a5)
	.loc 2 1233 5 is_stmt 1
	.loc 2 1233 15 is_stmt 0
	lw	a5,4(s11)
	addi	a5,a5,1
	sw	a5,4(s11)
	.loc 2 1240 5 is_stmt 1
	.loc 2 1240 17 is_stmt 0
	call	mbedtls_ssl_write_handshake_msg
.LVL277:
	mv	s0,a0
.LVL278:
	.loc 2 1240 7
	beq	a0,zero,.L125
	.loc 2 1242 9 is_stmt 1
	lui	a4,%hi(.LC37)
	mv	a5,a0
	addi	a4,a4,%lo(.LC37)
	li	a3,1242
	j	.L356
.L125:
	.loc 2 1255 5
	lui	a4,%hi(.LC38)
	addi	a4,a4,%lo(.LC38)
	li	a3,1255
.LVL279:
.L358:
.LBE215:
.LBE230:
.LBB231:
.LBB232:
	.loc 2 3769 5 is_stmt 0
	addi	a2,s1,%lo(.LC1)
	li	a1,2
	mv	a0,s11
	call	mbedtls_debug_print_msg
.LVL280:
	.loc 2 3771 5 is_stmt 1
	.loc 2 3771 11 is_stmt 0
	j	.L79
.LVL281:
.L98:
.LBE232:
.LBE231:
	.loc 2 3830 12 is_stmt 1
.LBB239:
.LBB240:
	.loc 2 1670 5
	.loc 2 1671 5
	.loc 2 1672 5
	.loc 2 1673 5
	.loc 2 1674 5
	.loc 2 1681 5
	.loc 2 1682 5
	.loc 2 1684 5
	lui	a4,%hi(.LC39)
	addi	a4,a4,%lo(.LC39)
	li	a3,1684
	addi	a2,s1,%lo(.LC1)
	li	a1,2
	mv	a0,s11
	call	mbedtls_debug_print_msg
.LVL282:
	.loc 2 1686 5
	.loc 2 1688 17 is_stmt 0
	li	a1,1
	mv	a0,s11
	.loc 2 1686 9
	lw	s3,100(s11)
.LVL283:
	.loc 2 1688 5 is_stmt 1
	.loc 2 1688 17 is_stmt 0
	call	mbedtls_ssl_read_record
.LVL284:
	mv	s0,a0
.LVL285:
	.loc 2 1688 7
	beq	a0,zero,.L126
	.loc 2 1691 9 is_stmt 1
	lui	a4,%hi(.LC40)
	mv	a5,a0
	addi	a4,a4,%lo(.LC40)
	li	a3,1691
	j	.L356
.L126:
	.loc 2 1695 5
	.loc 2 1695 7 is_stmt 0
	lw	a4,108(s11)
	li	a5,22
	beq	a4,a5,.L127
	.loc 2 1718 9 is_stmt 1
	lui	a4,%hi(.LC41)
	addi	a4,a4,%lo(.LC41)
	li	a3,1718
.LVL286:
.L361:
.LBE240:
.LBE239:
.LBB274:
.LBB233:
	.loc 2 3686 9 is_stmt 0
	addi	a2,s1,%lo(.LC1)
	mv	a0,s11
	li	a1,1
	call	mbedtls_debug_print_msg
.LVL287:
	.loc 2 3687 9 is_stmt 1
	li	a2,10
	li	a1,2
	mv	a0,s11
	call	mbedtls_ssl_send_alert_message
.LVL288:
	j	.L362
.LVL289:
.L127:
.LBE233:
.LBE274:
.LBB275:
.LBB268:
	.loc 2 1745 5
.LBE268:
.LBE275:
	.loc 1 807 5
	.loc 1 809 5
.LBB276:
.LBB269:
	.loc 2 1745 7 is_stmt 0
	lw	a4,120(s11)
	li	a5,41
	bleu	a4,a5,.L128
	.loc 2 1745 60
	lbu	a4,0(s3)
	li	a5,2
	beq	a4,a5,.L129
.L128:
	.loc 2 1748 9 is_stmt 1
	lui	a4,%hi(.LC41)
	addi	a4,a4,%lo(.LC41)
	li	a3,1748
.LVL290:
.L363:
	.loc 2 1804 9 is_stmt 0
	addi	a2,s1,%lo(.LC1)
.L370:
	li	a1,1
	mv	a0,s11
	call	mbedtls_debug_print_msg
.LVL291:
.L369:
	.loc 2 1805 9 is_stmt 1
	li	a2,50
.LVL292:
.L366:
	li	a1,2
	mv	a0,s11
	call	mbedtls_ssl_send_alert_message
.LVL293:
.L368:
	.loc 2 1807 9
	.loc 2 1807 15 is_stmt 0
	li	a0,-32768
	addi	s0,a0,1664
	j	.L79
.LVL294:
.L129:
	.loc 2 1765 5 is_stmt 1
.LBE269:
.LBE276:
	.loc 1 807 5
	.loc 1 809 5
.LBB277:
.LBB270:
	.loc 2 1765 9 is_stmt 0
	addi	s6,s3,4
.LVL295:
	.loc 2 1767 5 is_stmt 1
	lui	a4,%hi(.LC42)
	li	a6,2
	addi	a4,a4,%lo(.LC42)
	mv	a5,s6
	li	a3,1767
	addi	a2,s1,%lo(.LC1)
	li	a1,3
	mv	a0,s11
	call	mbedtls_debug_print_buf
.LVL296:
	.loc 2 1768 5
	.loc 2 1769 32 is_stmt 0
	lw	a5,0(s11)
	.loc 2 1768 5
	mv	a3,s6
	addi	a1,s11,12
	.loc 2 1769 32
	lw	a2,160(a5)
	.loc 2 1768 5
	addi	a0,s11,8
	.loc 2 1769 32
	srli	a2,a2,1
	.loc 2 1768 5
	andi	a2,a2,1
	call	mbedtls_ssl_read_version
.LVL297:
	.loc 2 1771 5 is_stmt 1
	.loc 2 1771 29 is_stmt 0
	lw	a4,0(s11)
	.loc 2 1771 12
	lw	a7,8(s11)
	lw	a3,12(s11)
	.loc 2 1771 35
	lbu	a5,158(a4)
	lbu	a2,157(a4)
	lbu	a6,159(a4)
	.loc 2 1771 7
	blt	a7,a5,.L130
	.loc 2 1773 35
	lbu	a1,156(a4)
	.loc 2 1771 51
	blt	a3,a6,.L130
	.loc 2 1772 51
	bgt	a7,a1,.L130
	.loc 2 1773 51
	ble	a3,a2,.L131
.L130:
	.loc 2 1776 9 is_stmt 1
	sw	a2,8(sp)
	lbu	a4,156(a4)
	addi	a2,s1,%lo(.LC1)
	sw	a3,0(sp)
	sw	a4,4(sp)
	lui	a4,%hi(.LC43)
	addi	a4,a4,%lo(.LC43)
	li	a3,1776
	li	a1,1
	mv	a0,s11
	call	mbedtls_debug_print_msg
.LVL298:
	.loc 2 1784 9
	li	a2,70
	li	a1,2
	mv	a0,s11
	call	mbedtls_ssl_send_alert_message
.LVL299:
	.loc 2 1787 9
	.loc 2 1787 15 is_stmt 0
	li	a0,-28672
	addi	s0,a0,384
.LVL300:
	j	.L79
.LVL301:
.L131:
	.loc 2 1790 5 is_stmt 1
	.loc 2 1790 181 is_stmt 0
	lbu	a4,6(s3)
	.loc 2 1790 211
	lbu	a5,7(s3)
	.loc 2 1790 5
	li	a3,1790
	.loc 2 1790 199
	slli	a4,a4,24
	.loc 2 1790 229
	slli	a5,a5,16
	.loc 2 1790 207
	or	a4,a4,a5
	.loc 2 1790 270
	lbu	a5,9(s3)
	.loc 2 1790 5
	addi	a2,s1,%lo(.LC1)
	li	a1,3
	or	a4,a4,a5
	.loc 2 1790 241
	lbu	a5,8(s3)
	.loc 2 1790 5
	mv	a0,s11
	.loc 2 1790 259
	slli	a5,a5,8
	.loc 2 1790 5
	or	a5,a4,a5
	lui	a4,%hi(.LC44)
	addi	a4,a4,%lo(.LC44)
	call	mbedtls_debug_print_msg
.LVL302:
	.loc 2 1796 5 is_stmt 1
	lw	a0,48(s11)
	.loc 2 1796 49 is_stmt 0
	addi	a5,s3,6
	.loc 2 1796 5
	mv	a1,a5
	li	a2,32
	addi	a0,a0,852
	sw	a5,28(sp)
	call	memcpy
.LVL303:
	.loc 2 1798 5 is_stmt 1
	.loc 2 1800 5 is_stmt 0
	lw	a5,28(sp)
	lui	a4,%hi(.LC45)
	.loc 2 1798 7
	lbu	s2,38(s3)
.LVL304:
	.loc 2 1800 5 is_stmt 1
	li	a6,32
	addi	a4,a4,%lo(.LC45)
	li	a3,1800
	addi	a2,s1,%lo(.LC1)
	li	a1,3
	mv	a0,s11
	call	mbedtls_debug_print_buf
.LVL305:
	.loc 2 1802 5
	.loc 2 1802 7 is_stmt 0
	li	a5,32
	bleu	s2,a5,.L132
	.loc 2 1804 9 is_stmt 1
	lui	a4,%hi(.LC41)
	addi	a4,a4,%lo(.LC41)
	li	a3,1804
	j	.L363
.L132:
	.loc 2 1810 5
	.loc 2 1810 12 is_stmt 0
	lw	a4,120(s11)
.LVL306:
.LBE270:
.LBE277:
	.loc 1 807 5 is_stmt 1
	.loc 1 809 5
.LBB278:
.LBB271:
	.loc 2 1810 60 is_stmt 0
	addi	a5,s2,43
	.loc 2 1810 7
	bleu	a4,a5,.L133
	.loc 2 1812 9 is_stmt 1
	.loc 2 1812 26 is_stmt 0
	add	a5,s6,s2
	lbu	s4,38(a5)
	.loc 2 1813 26
	lbu	a5,39(a5)
	.loc 2 1812 35
	slli	s4,s4,8
	.loc 2 1813 19
	or	s4,s4,a5
.LVL307:
	.loc 2 1815 9 is_stmt 1
	.loc 2 1815 27 is_stmt 0
	addi	a3,s4,-1
	.loc 2 1815 11
	li	a5,2
	bleu	a3,a5,.L134
.LVL308:
.LBE271:
.LBE278:
	.loc 1 807 5 is_stmt 1
	.loc 1 809 5
.LBB279:
.LBB272:
	.loc 2 1816 69 is_stmt 0
	addi	a5,s2,44
	add	a5,a5,s4
	.loc 2 1815 44
	beq	a4,a5,.L135
.L134:
	.loc 2 1818 13 is_stmt 1
	lui	a4,%hi(.LC41)
	addi	a4,a4,%lo(.LC41)
	li	a3,1818
	j	.L363
.LVL309:
.L133:
	.loc 2 1826 10
.LBE272:
.LBE279:
	.loc 1 807 5
	.loc 1 809 5
.LBB280:
.LBB273:
	.loc 2 1826 66 is_stmt 0
	addi	a5,s2,42
	.loc 2 1828 17
	li	s4,0
	.loc 2 1826 12
	beq	a4,a5,.L135
	.loc 2 1832 9 is_stmt 1
	lui	a4,%hi(.LC41)
	addi	a4,a4,%lo(.LC41)
	li	a3,1832
	j	.L363
.L135:
.LVL310:
	.loc 2 1839 5
	.loc 2 1839 14 is_stmt 0
	add	a5,s6,s2
	lbu	s5,35(a5)
	.loc 2 1839 35
	lbu	a5,36(a5)
	.loc 2 1844 19
	addi	s7,s2,37
	.loc 2 1839 23
	slli	s5,s5,8
	.loc 2 1844 15
	add	s7,s6,s7
	.loc 2 1839 7
	or	s5,s5,a5
.LVL311:
	.loc 2 1844 5 is_stmt 1
	.loc 2 1844 10 is_stmt 0
	lbu	a5,0(s7)
.LVL312:
	.loc 2 1858 5 is_stmt 1
	.loc 2 1858 7 is_stmt 0
	beq	a5,zero,.L136
	.loc 2 1861 9 is_stmt 1
	lui	a4,%hi(.LC46)
	addi	a4,a4,%lo(.LC46)
	li	a3,1861
	addi	a2,s1,%lo(.LC1)
	li	a1,1
	mv	a0,s11
	call	mbedtls_debug_print_msg
.LVL313:
	.loc 2 1863 9
	li	a2,47
	li	a1,2
	mv	a0,s11
	call	mbedtls_ssl_send_alert_message
.LVL314:
	.loc 2 1867 9
	.loc 2 1867 15 is_stmt 0
	li	a0,-28672
	addi	s0,a0,-128
.LVL315:
	j	.L79
.LVL316:
.L136:
	.loc 2 1873 5 is_stmt 1
	.loc 2 1873 8 is_stmt 0
	lw	s8,64(s11)
	.loc 2 1874 35
	mv	a0,s5
	call	mbedtls_ssl_ciphersuite_from_id
.LVL317:
	.loc 2 1873 48
	sw	a0,0(s8)
	.loc 2 1876 5 is_stmt 1
	.loc 2 1876 33 is_stmt 0
	lw	a5,64(s11)
	lw	a1,0(a5)
	.loc 2 1876 7
	bne	a1,zero,.L137
	.loc 2 1878 9 is_stmt 1
	lui	a4,%hi(.LC47)
	addi	a2,s1,%lo(.LC1)
	mv	a0,s11
	mv	a5,s5
	addi	a4,a4,%lo(.LC47)
	li	a3,1878
	li	a1,1
	call	mbedtls_debug_print_msg
.LVL318:
	.loc 2 1880 9
	li	a2,80
	li	a1,2
	mv	a0,s11
	call	mbedtls_ssl_send_alert_message
.LVL319:
	.loc 2 1882 9
	j	.L273
.L137:
	.loc 2 1885 5
	mv	a0,s11
	call	mbedtls_ssl_optimize_checksum
.LVL320:
	.loc 2 1888 5
	lui	a4,%hi(.LC48)
	mv	a5,s2
	addi	a4,a4,%lo(.LC48)
	li	a3,1888
	addi	a2,s1,%lo(.LC1)
	li	a1,3
	mv	a0,s11
	call	mbedtls_debug_print_msg
.LVL321:
	.loc 2 1889 5
	.loc 2 1889 176 is_stmt 0
	addi	s3,s3,39
	.loc 2 1889 5
	lui	a4,%hi(.LC49)
	mv	a5,s3
	mv	a6,s2
	addi	a4,a4,%lo(.LC49)
	li	a3,1889
	addi	a2,s1,%lo(.LC1)
	li	a1,3
	mv	a0,s11
	call	mbedtls_debug_print_buf
.LVL322:
	.loc 2 1894 5 is_stmt 1
	.loc 2 1894 23 is_stmt 0
	lw	a5,48(s11)
	.loc 2 1894 7
	lw	a5,1908(a5)
	bne	a5,zero,.L138
.L140:
	.loc 2 1903 9 is_stmt 1
	.loc 2 1903 19 is_stmt 0
	lw	a5,4(s11)
	.loc 2 1911 9
	mv	a2,s2
	mv	a1,s3
	.loc 2 1903 19
	addi	a5,a5,1
	sw	a5,4(s11)
	.loc 2 1904 9 is_stmt 1
	.loc 2 1904 12 is_stmt 0
	lw	a5,48(s11)
	.loc 2 1904 32
	sw	zero,1908(a5)
	.loc 2 1908 9 is_stmt 1
	.loc 2 1908 12 is_stmt 0
	lw	a5,44(s11)
	.loc 2 1908 45
	sw	s5,0(a5)
	.loc 2 1909 9 is_stmt 1
	.loc 2 1909 12 is_stmt 0
	lw	a5,44(s11)
	.loc 2 1909 45
	sw	zero,4(a5)
	.loc 2 1910 9 is_stmt 1
	.loc 2 1910 12 is_stmt 0
	lw	a5,44(s11)
	.loc 2 1910 40
	sw	s2,8(a5)
	.loc 2 1911 9 is_stmt 1
	.loc 2 1911 39 is_stmt 0
	lw	a0,44(s11)
	.loc 2 1911 9
	addi	a0,a0,12
	call	memcpy
.LVL323:
.L139:
	.loc 2 1928 5 is_stmt 1
	.loc 2 1928 189 is_stmt 0
	lw	a5,48(s11)
	.loc 2 1928 5
	lw	a5,1908(a5)
	bne	a5,zero,.L276
	lui	a5,%hi(.LC12)
	addi	a5,a5,%lo(.LC12)
.L141:
	lui	a4,%hi(.LC51)
	addi	a4,a4,%lo(.LC51)
	li	a3,1928
	addi	a2,s1,%lo(.LC1)
	li	a1,3
	mv	a0,s11
	call	mbedtls_debug_print_msg
.LVL324:
	.loc 2 1931 5 is_stmt 1
	lui	a4,%hi(.LC52)
	mv	a5,s5
	addi	a4,a4,%lo(.LC52)
	li	a3,1931
	addi	a2,s1,%lo(.LC1)
	li	a1,3
	mv	a0,s11
	call	mbedtls_debug_print_msg
.LVL325:
	.loc 2 1932 5
	lbu	a5,0(s7)
	lui	a4,%hi(.LC53)
	addi	a4,a4,%lo(.LC53)
	li	a3,1932
	addi	a2,s1,%lo(.LC1)
	li	a1,3
	mv	a0,s11
	call	mbedtls_debug_print_msg
.LVL326:
	.loc 2 1938 5
	.loc 2 1941 40 is_stmt 0
	lw	a4,12(s11)
	lw	a5,0(s11)
	slli	a4,a4,2
	add	a5,a5,a4
	lw	a5,0(a5)
.LVL327:
.L143:
	.loc 2 1939 5 is_stmt 1
	.loc 2 1941 9
	.loc 2 1941 56 is_stmt 0
	lw	a0,0(a5)
	.loc 2 1941 11
	bne	a0,zero,.L142
	.loc 2 1943 13 is_stmt 1
	lui	a4,%hi(.LC41)
	addi	a4,a4,%lo(.LC41)
	li	a3,1943
.L371:
	.loc 2 1963 9 is_stmt 0
	addi	a2,s1,%lo(.LC1)
	li	a1,1
	mv	a0,s11
	call	mbedtls_debug_print_msg
.LVL328:
	.loc 2 1964 9 is_stmt 1
	li	a2,47
	j	.L366
.LVL329:
.L138:
	.loc 2 1894 37 is_stmt 0
	beq	s2,zero,.L140
	.loc 2 1898 12
	lw	a0,44(s11)
	.loc 2 1894 47
	lw	a5,0(a0)
	bne	s5,a5,.L140
	.loc 2 1898 50
	lw	a5,4(a0)
	bne	a5,zero,.L140
	.loc 2 1899 53
	lw	a5,8(a0)
	bne	s2,a5,.L140
	.loc 2 1901 9
	mv	a2,s2
	mv	a1,s3
	addi	a0,a0,12
	call	memcmp
.LVL330:
	.loc 2 1900 45
	bne	a0,zero,.L140
	.loc 2 1915 9 is_stmt 1
	.loc 2 1915 20 is_stmt 0
	li	a5,12
	sw	a5,4(s11)
	.loc 2 1917 9 is_stmt 1
	.loc 2 1917 21 is_stmt 0
	mv	a0,s11
	call	mbedtls_ssl_derive_keys
.LVL331:
	mv	s3,a0
.LVL332:
	.loc 2 1917 11
	beq	a0,zero,.L139
	.loc 2 1919 13 is_stmt 1
	lui	a4,%hi(.LC50)
	mv	a5,a0
	addi	a4,a4,%lo(.LC50)
	li	a3,1919
	addi	a2,s1,%lo(.LC1)
	li	a1,1
	mv	a0,s11
.LVL333:
	call	mbedtls_debug_print_ret
.LVL334:
	.loc 2 1920 13
	li	a2,80
	li	a1,2
	mv	a0,s11
	call	mbedtls_ssl_send_alert_message
.LVL335:
	.loc 2 1924 13
	.loc 2 1924 19 is_stmt 0
	mv	s0,s3
	j	.L79
.LVL336:
.L276:
	.loc 2 1928 5
	lui	a5,%hi(.LC11)
	addi	a5,a5,%lo(.LC11)
	j	.L141
.LVL337:
.L142:
	.loc 2 1951 9 is_stmt 1
	.loc 2 1952 35 is_stmt 0
	lw	a4,44(s11)
	.loc 2 1951 11
	addi	a5,a5,4
	.loc 2 1952 35
	lw	a4,0(a4)
	.loc 2 1951 11
	bne	a0,a4,.L143
	.loc 2 1958 5 is_stmt 1
	.loc 2 1958 18 is_stmt 0
	call	mbedtls_ssl_ciphersuite_from_id
.LVL338:
	.loc 2 1960 5 is_stmt 1
.LBB241:
.LBB242:
	.loc 2 759 5
	.loc 2 760 5
	.loc 2 760 7 is_stmt 0
	beq	a0,zero,.L144
.LBE242:
.LBE241:
	.loc 2 1960 9
	lw	a5,12(s11)
.LBB244:
.LBB243:
	.loc 2 763 5 is_stmt 1
	.loc 2 763 7 is_stmt 0
	lw	a4,24(a0)
	blt	a5,a4,.L144
	.loc 2 763 51
	lw	a4,32(a0)
	bgt	a5,a4,.L144
.LVL339:
.LBE243:
.LBE244:
	.loc 2 1971 5 is_stmt 1
	lw	a5,4(a0)
	lui	a4,%hi(.LC54)
	addi	a4,a4,%lo(.LC54)
	li	a3,1971
	addi	a2,s1,%lo(.LC1)
	li	a1,3
	mv	a0,s11
.LVL340:
	call	mbedtls_debug_print_msg
.LVL341:
	.loc 2 1982 5
	.loc 2 1995 5
	.loc 2 1995 8 is_stmt 0
	lw	a5,44(s11)
	.loc 2 1997 20
	addi	a2,s2,40
	.loc 2 1999 5
	lui	a4,%hi(.LC55)
	.loc 2 1995 41
	sw	zero,4(a5)
	.loc 2 1997 5 is_stmt 1
	.loc 2 1997 9 is_stmt 0
	add	s2,s6,a2
.LVL342:
	.loc 2 1999 5 is_stmt 1
	mv	a5,s4
	addi	a4,a4,%lo(.LC55)
	li	a3,1999
	addi	a2,s1,%lo(.LC1)
.LVL343:
	li	a1,2
	mv	a0,s11
.LBB245:
	.loc 2 2018 9 is_stmt 0
	li	s6,65536
.LVL344:
.LBE245:
	.loc 2 1999 5
	call	mbedtls_debug_print_msg
.LVL345:
	.loc 2 2002 5 is_stmt 1
	lui	s5,%hi(.LC1)
.LBB264:
	.loc 2 2018 9 is_stmt 0
	addi	s6,s6,-255
	.loc 2 2034 13
	lui	s10,%hi(.LC58)
.LVL346:
.L145:
.LBE264:
	.loc 2 2002 10 is_stmt 1
	bne	s4,zero,.L170
	.loc 2 2156 5
	.loc 2 2156 7 is_stmt 0
	lw	a5,188(s11)
	bne	a5,zero,.L171
	.loc 2 2157 47
	lw	a5,0(s11)
	.loc 2 2156 40
	li	a4,32
	.loc 2 2157 47
	lhu	a5,160(a5)
	.loc 2 2156 40
	andi	a5,a5,48
	bne	a5,a4,.L171
	.loc 2 2160 9 is_stmt 1
	lui	a4,%hi(.LC69)
	li	a3,4096
	addi	a4,a4,%lo(.LC69)
	addi	a3,a3,-1936
	j	.L373
.LVL347:
.L144:
	.loc 2 1963 9
	lui	a4,%hi(.LC41)
	addi	a4,a4,%lo(.LC41)
	li	a3,1963
	j	.L371
.LVL348:
.L170:
.LBB265:
	.loc 2 2004 9
	lbu	a4,1(s2)
	lbu	a5,0(s2)
	lbu	s3,2(s2)
	slli	a4,a4,8
	or	a4,a4,a5
	slli	a5,a4,8
	srli	a4,a4,8
	or	a4,a5,a4
	slli	a5,a4,16
	lbu	a4,3(s2)
	srli	a5,a5,16
.LVL349:
	.loc 2 2006 9
	slli	a4,a4,8
	or	a4,a4,s3
	slli	s3,a4,8
	srli	a4,a4,8
	or	a4,s3,a4
	slli	s3,a4,16
	srli	s3,s3,16
.LVL350:
	.loc 2 2009 9
	.loc 2 2009 22 is_stmt 0
	addi	s7,s3,4
	.loc 2 2009 11
	bleu	s7,s4,.L146
	.loc 2 2011 13 is_stmt 1
	lui	a4,%hi(.LC41)
	addi	a4,a4,%lo(.LC41)
	li	a3,2011
	j	.L363
.L146:
	.loc 2 2018 9
	li	a4,16
	beq	a5,a4,.L147
	bgt	a5,a4,.L148
	li	a4,1
	beq	a5,a4,.L149
	li	a4,11
	beq	a5,a4,.L150
.L151:
	.loc 2 2139 13
	lui	a4,%hi(.LC68)
	li	a3,4096
	addi	a4,a4,%lo(.LC68)
	addi	a3,a3,-1957
	addi	a2,s1,%lo(.LC1)
	li	a1,3
	j	.L349
.L148:
	.loc 2 2018 9 is_stmt 0
	li	a4,35
	beq	a5,a4,.L152
	bne	a5,s6,.L151
	.loc 2 2021 13 is_stmt 1
	lui	a5,%hi(.LC56)
.LVL351:
	addi	a4,a5,%lo(.LC56)
	li	a3,2021
	addi	a2,s5,%lo(.LC1)
	li	a1,3
	mv	a0,s11
	call	mbedtls_debug_print_msg
.LVL352:
	.loc 2 2026 13
.LBB246:
.LBB247:
	.loc 2 1286 9
	.loc 2 1286 11 is_stmt 0
	li	a5,1
	bne	s3,a5,.L153
	.loc 2 1286 22
	lbu	a5,4(s2)
	beq	a5,zero,.L154
.L153:
	.loc 2 1288 13 is_stmt 1
	lui	a4,%hi(.LC57)
	addi	a4,a4,%lo(.LC57)
	li	a3,1288
.LVL353:
.L374:
.LBE247:
.LBE246:
.LBB249:
.LBB250:
	.loc 2 1316 9 is_stmt 0
	addi	a2,s5,%lo(.LC1)
.LVL354:
.L372:
.LBE250:
.LBE249:
.LBE265:
	.loc 2 2160 9
	li	a1,1
	mv	a0,s11
	call	mbedtls_debug_print_msg
.LVL355:
	.loc 2 2162 9 is_stmt 1
	.loc 2 2191 5
	.loc 2 2193 9
	li	a2,40
	j	.L366
.LVL356:
.L154:
.LBB266:
.LBB252:
.LBB248:
	.loc 2 1297 9
	.loc 2 1297 35 is_stmt 0
	sw	s3,188(s11)
	.loc 2 1300 5 is_stmt 1
.LVL357:
.L155:
.LBE248:
.LBE252:
	.loc 2 2143 9
	.loc 2 2143 17 is_stmt 0
	sub	s3,s4,s3
.LVL358:
	addi	s4,s3,-4
.LVL359:
	.loc 2 2144 9 is_stmt 1
	.loc 2 2146 11 is_stmt 0
	li	a5,2
	.loc 2 2146 25
	addi	s3,s3,-5
	.loc 2 2144 13
	add	s2,s2,s7
.LVL360:
	.loc 2 2146 9 is_stmt 1
	.loc 2 2146 11 is_stmt 0
	bgtu	s3,a5,.L145
	.loc 2 2148 13 is_stmt 1
	lui	a4,%hi(.LC41)
	li	a3,4096
	addi	a4,a4,%lo(.LC41)
	addi	a3,a3,-1948
	addi	a2,s1,%lo(.LC1)
	li	a1,1
	mv	a0,s11
	call	mbedtls_debug_print_msg
.LVL361:
	.loc 2 2149 13
	j	.L368
.LVL362:
.L149:
	.loc 2 2034 13 is_stmt 0
	addi	a4,s10,%lo(.LC58)
	li	a3,2034
	addi	a2,s1,%lo(.LC1)
	li	a1,3
	mv	a0,s11
	sw	a5,28(sp)
	.loc 2 2034 13 is_stmt 1
	call	mbedtls_debug_print_msg
.LVL363:
	.loc 2 2037 13
.LBB253:
.LBB251:
	.loc 2 1312 5
	.loc 2 1312 12 is_stmt 0
	lw	a3,0(s11)
	.loc 2 1312 29
	lhu	a4,160(a3)
	.loc 2 1312 7
	andi	a4,a4,448
	beq	a4,zero,.L156
	.loc 2 1312 34
	lw	a5,28(sp)
	bne	s3,a5,.L156
	.loc 2 1314 28
	lw	a5,160(a3)
	.loc 2 1313 18
	lbu	a4,4(s2)
	.loc 2 1314 28
	srli	a5,a5,6
	.loc 2 1313 18
	andi	a5,a5,7
	beq	a4,a5,.L155
.L156:
	.loc 2 1316 9 is_stmt 1
	lui	a4,%hi(.LC59)
	addi	a4,a4,%lo(.LC59)
	li	a3,1316
	j	.L374
.LVL364:
.L152:
.LBE251:
.LBE253:
	.loc 2 2088 13
	lui	a5,%hi(.LC60)
.LVL365:
	li	a3,4096
	addi	a4,a5,%lo(.LC60)
	addi	a3,a3,-2008
	addi	a2,s1,%lo(.LC1)
	li	a1,3
	mv	a0,s11
	call	mbedtls_debug_print_msg
.LVL366:
	.loc 2 2090 13
.LBB254:
.LBB255:
	.loc 2 1411 5
	.loc 2 1411 36 is_stmt 0
	lw	a5,0(s11)
	lhu	a5,160(a5)
	.loc 2 1411 7
	andi	a5,a5,512
	beq	a5,zero,.L157
	.loc 2 1411 41
	beq	s3,zero,.L158
.L157:
	.loc 2 1414 9 is_stmt 1
	lui	a4,%hi(.LC61)
	addi	a4,a4,%lo(.LC61)
	li	a3,1414
	j	.L374
.L158:
	.loc 2 1423 5
	.loc 2 1425 5
	.loc 2 1425 8 is_stmt 0
	lw	a5,48(s11)
	.loc 2 1425 40
	li	a4,1
	sw	a4,1924(a5)
	.loc 2 1427 5 is_stmt 1
.LVL367:
	j	.L155
.LVL368:
.L150:
.LBE255:
.LBE254:
	.loc 2 2102 13
	lui	a4,%hi(.LC62)
	li	a3,4096
	addi	a4,a4,%lo(.LC62)
	addi	a3,a3,-1994
	addi	a2,s5,%lo(.LC1)
	li	a1,3
	mv	a0,s11
	call	mbedtls_debug_print_msg
.LVL369:
	.loc 2 2105 13
.LBB256:
.LBB257:
	.loc 2 1437 5
	.loc 2 1438 5
	.loc 2 1440 5
	.loc 2 1440 7 is_stmt 0
	beq	s3,zero,.L159
	.loc 2 1440 34
	lbu	a5,4(s2)
	.loc 2 1440 38
	addi	a4,a5,1
	.loc 2 1440 18
	beq	s3,a4,.L160
.L159:
	.loc 2 1442 9 is_stmt 1
	lui	a4,%hi(.LC41)
	addi	a4,a4,%lo(.LC41)
	li	a3,1442
	addi	a2,s5,%lo(.LC1)
	j	.L370
.L160:
	.loc 2 1447 5
.LVL370:
	.loc 2 1449 5
	.loc 2 1449 7 is_stmt 0
	addi	a4,s2,5
.LVL371:
	.loc 2 1450 5 is_stmt 1
	.loc 2 1452 11 is_stmt 0
	li	a2,1
.LVL372:
.L161:
	.loc 2 1450 10 is_stmt 1
	bne	a5,zero,.L163
	.loc 2 1469 5
	lui	a4,%hi(.LC64)
.LVL373:
	addi	a4,a4,%lo(.LC64)
	li	a3,1469
	j	.L374
.LVL374:
.L163:
	.loc 2 1452 9
	.loc 2 1452 14 is_stmt 0
	lbu	a3,0(a4)
	.loc 2 1452 11
	bgtu	a3,a2,.L162
	.loc 2 1456 13 is_stmt 1
	.loc 2 1456 16 is_stmt 0
	lw	a5,48(s11)
.LVL375:
	.loc 2 1461 13
	addi	a2,s5,%lo(.LC1)
	li	a1,4
	.loc 2 1456 54
	sw	a3,352(a5)
	.loc 2 1461 13 is_stmt 1
	lbu	a5,0(a4)
	lui	a4,%hi(.LC63)
.LVL376:
	addi	a4,a4,%lo(.LC63)
	li	a3,1461
.LVL377:
.L349:
.LBE257:
.LBE256:
	.loc 2 2139 13 is_stmt 0
	mv	a0,s11
	call	mbedtls_debug_print_msg
.LVL378:
	j	.L155
.LVL379:
.L162:
.LBB259:
.LBB258:
	.loc 2 1465 9 is_stmt 1
	.loc 2 1465 18 is_stmt 0
	addi	a5,a5,-1
.LVL380:
	.loc 2 1466 9 is_stmt 1
	.loc 2 1466 10 is_stmt 0
	addi	a4,a4,1
.LVL381:
	j	.L161
.LVL382:
.L147:
.LBE258:
.LBE259:
	.loc 2 2130 13 is_stmt 1
	lui	a5,%hi(.LC65)
.LVL383:
	li	a3,4096
	addi	a4,a5,%lo(.LC65)
	addi	a3,a3,-1966
	addi	a2,s1,%lo(.LC1)
	li	a1,3
	mv	a0,s11
	call	mbedtls_debug_print_msg
.LVL384:
	.loc 2 2132 13
.LBB260:
.LBB261:
	.loc 2 1515 5
	.loc 2 1516 5
	.loc 2 1519 5
	.loc 2 1519 18 is_stmt 0
	lw	a5,0(s11)
	lw	s8,144(a5)
	.loc 2 1519 7
	bne	s8,zero,.L164
	.loc 2 1521 9 is_stmt 1
	lui	a4,%hi(.LC66)
	addi	a4,a4,%lo(.LC66)
	li	a3,1521
.LVL385:
.L373:
.LBE261:
.LBE260:
.LBE266:
	.loc 2 2160 9 is_stmt 0
	addi	a2,s1,%lo(.LC1)
	j	.L372
.LVL386:
.L164:
.LBB267:
.LBB263:
.LBB262:
	.loc 2 1540 5 is_stmt 1
	.loc 2 1540 7 is_stmt 0
	li	a5,3
	ble	s3,a5,.L369
	.loc 2 1547 5 is_stmt 1
	.loc 2 1547 14 is_stmt 0
	lbu	a5,5(s2)
	lbu	a3,4(s2)
	slli	a5,a5,8
	or	a5,a5,a3
	slli	a3,a5,8
	srli	a5,a5,8
	or	a5,a3,a5
	slli	a5,a5,16
	srli	a5,a5,16
.LVL387:
	.loc 2 1548 5 is_stmt 1
	.loc 2 1548 25 is_stmt 0
	addi	a3,s3,-2
	.loc 2 1548 7
	bne	a5,a3,.L369
	.loc 2 1555 5 is_stmt 1
	.loc 2 1555 14 is_stmt 0
	lbu	s9,6(s2)
.LVL388:
	.loc 2 1556 5 is_stmt 1
	.loc 2 1556 30 is_stmt 0
	addi	a5,s3,-3
.LVL389:
	.loc 2 1556 7
	bne	s9,a5,.L369
	.loc 2 1567 25
	addi	a5,s2,7
	sw	a5,28(sp)
.LVL390:
.L167:
	.loc 2 1564 36 is_stmt 1
	lw	a0,0(s8)
	.loc 2 1564 5 is_stmt 0
	bne	a0,zero,.L169
	.loc 2 1574 5 is_stmt 1
	lui	a4,%hi(.LC67)
	addi	a4,a4,%lo(.LC67)
	li	a3,1574
	j	.L374
.L169:
	.loc 2 1566 9
	.loc 2 1566 25 is_stmt 0
	call	strlen
.LVL391:
	.loc 2 1566 11
	bne	s9,a0,.L168
	.loc 2 1567 13
	lw	a1,0(s8)
	lw	a0,28(sp)
	mv	a2,s9
	call	memcmp
.LVL392:
	.loc 2 1566 38
	bne	a0,zero,.L168
	.loc 2 1569 13 is_stmt 1
	.loc 2 1569 32 is_stmt 0
	lw	a5,0(s8)
	.loc 2 1569 30
	sw	a5,184(s11)
	.loc 2 1570 13 is_stmt 1
.LVL393:
	j	.L155
.LVL394:
.L168:
	.loc 2 1564 47
	.loc 2 1564 48 is_stmt 0
	addi	s8,s8,4
.LVL395:
	j	.L167
.LVL396:
.L171:
.LBE262:
.LBE263:
.LBE267:
	.loc 2 2200 5 is_stmt 1
	lui	a4,%hi(.LC70)
	li	a3,4096
	addi	a4,a4,%lo(.LC70)
	addi	a3,a3,-1896
	j	.L358
.LVL397:
.L97:
.LBE273:
.LBE280:
	.loc 2 3834 12
	.loc 2 3910 1 is_stmt 0
	lw	s0,168(sp)
	.cfi_remember_state
	.cfi_restore 8
.LVL398:
	lw	ra,172(sp)
	.cfi_restore 1
	lw	s1,164(sp)
	.cfi_restore 9
	lw	s2,160(sp)
	.cfi_restore 18
	lw	s3,156(sp)
	.cfi_restore 19
	lw	s4,152(sp)
	.cfi_restore 20
	lw	s5,148(sp)
	.cfi_restore 21
	lw	s6,144(sp)
	.cfi_restore 22
	lw	s7,140(sp)
	.cfi_restore 23
	lw	s8,136(sp)
	.cfi_restore 24
	lw	s9,132(sp)
	.cfi_restore 25
	lw	s10,128(sp)
	.cfi_restore 26
	.loc 2 3834 18
	mv	a0,s11
.LVL399:
	.loc 2 3910 1
	lw	s11,124(sp)
	.cfi_restore 27
.LVL400:
	addi	sp,sp,176
	.cfi_def_cfa_offset 0
	.loc 2 3834 18
	tail	mbedtls_ssl_parse_certificate
.LVL401:
.L96:
	.cfi_restore_state
	.loc 2 3838 12 is_stmt 1
.LBB281:
.LBB282:
	.loc 2 2561 5
	.loc 2 2562 5
	.loc 2 2562 38 is_stmt 0
	lw	a5,64(s11)
	.loc 2 2566 5
	lui	a4,%hi(.LC71)
	li	s3,4096
	.loc 2 2562 38
	lw	s6,0(a5)
.LVL402:
	.loc 2 2564 5 is_stmt 1
	.loc 2 2566 5 is_stmt 0
	addi	a4,a4,%lo(.LC71)
	addi	a3,s3,-1530
	addi	a2,s1,%lo(.LC1)
	li	a1,2
	mv	a0,s11
	.loc 2 2564 20
	sw	zero,40(sp)
.LVL403:
	.loc 2 2566 5 is_stmt 1
	call	mbedtls_debug_print_msg
.LVL404:
	.loc 2 2569 5
	.loc 2 2569 25 is_stmt 0
	lw	a5,16(s6)
	.loc 2 2569 7
	li	s4,1
	bne	a5,s4,.L172
	.loc 2 2571 9 is_stmt 1
	lui	a4,%hi(.LC72)
	addi	a4,a4,%lo(.LC72)
	addi	a3,s3,-1525
.LVL405:
.L377:
.LBE282:
.LBE281:
.LBB319:
.LBB320:
	.loc 2 3525 9 is_stmt 0
	addi	a2,s1,%lo(.LC1)
	li	a1,2
	mv	a0,s11
	call	mbedtls_debug_print_msg
.LVL406:
	.loc 2 3526 9 is_stmt 1
	.loc 2 3526 19 is_stmt 0
	lw	a5,4(s11)
	addi	a5,a5,1
.L359:
.LBE320:
.LBE319:
	.loc 2 3897 23
	sw	a5,4(s11)
	.loc 2 3898 12 is_stmt 1
	j	.L79
.LVL407:
.L172:
.LBB326:
.LBB314:
	.loc 2 2575 5
	.loc 2 2576 5
	.loc 2 2581 5
	.loc 2 2581 73 is_stmt 0
	addi	a5,a5,-9
	.loc 2 2581 7
	bgtu	a5,s4,.L174
	.loc 2 2584 9 is_stmt 1
.LVL408:
.LBB283:
.LBB284:
	.loc 2 2523 5
	.loc 2 2524 5
	.loc 2 2526 5
	.loc 2 2526 31 is_stmt 0
	lw	a5,44(s11)
	lw	a0,92(a5)
	.loc 2 2526 7
	bne	a0,zero,.L175
	.loc 2 2528 9 is_stmt 1
	lui	a4,%hi(.LC73)
	mv	a0,s11
	addi	a4,a4,%lo(.LC73)
	addi	a3,s3,-1568
	addi	a2,s1,%lo(.LC1)
	li	a1,2
	call	mbedtls_debug_print_msg
.LVL409:
	.loc 2 2529 9
	.loc 2 2529 15 is_stmt 0
	li	a0,-28672
	addi	s0,a0,-1792
.LVL410:
.L176:
.LBE284:
.LBE283:
	.loc 2 2586 13 is_stmt 1
	lui	a4,%hi(.LC77)
	li	a3,4096
	addi	a2,s1,%lo(.LC1)
	mv	a0,s11
	mv	a5,s0
	addi	a4,a4,%lo(.LC77)
	addi	a3,a3,-1510
	li	a1,1
	call	mbedtls_debug_print_ret
.LVL411:
	.loc 2 2587 13
	li	a2,40
	li	a1,2
	mv	a0,s11
	call	mbedtls_ssl_send_alert_message
.LVL412:
	.loc 2 2591 13
	.loc 2 2591 19 is_stmt 0
	j	.L79
.LVL413:
.L175:
.LBB287:
.LBB285:
	.loc 2 2532 5 is_stmt 1
	.loc 2 2532 11 is_stmt 0
	li	a1,2
	addi	a0,a0,188
	call	mbedtls_pk_can_do
.LVL414:
	.loc 2 2532 7
	bne	a0,zero,.L177
	.loc 2 2535 9 is_stmt 1
	lui	a4,%hi(.LC74)
	mv	a0,s11
	addi	a4,a4,%lo(.LC74)
	addi	a3,s3,-1561
	addi	a2,s1,%lo(.LC1)
	li	a1,1
	call	mbedtls_debug_print_msg
.LVL415:
	.loc 2 2536 9
	.loc 2 2536 15 is_stmt 0
	li	a0,-28672
	addi	s0,a0,768
.LVL416:
	j	.L176
.LVL417:
.L177:
	.loc 2 2539 5 is_stmt 1
.LBE285:
.LBE287:
.LBE314:
.LBE326:
	.file 3 "/mnt/d/GitHub/bl_iot_sdk_for_aithinker/components/security/mbedtls_lts/mbedtls/include/mbedtls/pk.h"
	.loc 3 197 5
.LBB327:
.LBB315:
.LBB288:
.LBB286:
	.loc 2 2541 5
	.loc 2 2539 53 is_stmt 0
	lw	a5,44(s11)
	.loc 2 2541 17
	lw	a0,48(s11)
	li	a2,1
	lw	a5,92(a5)
	addi	a0,a0,132
	lw	a1,192(a5)
	call	mbedtls_ecdh_get_params
.LVL418:
	mv	s0,a0
.LVL419:
	.loc 2 2541 7
	beq	a0,zero,.L178
	.loc 2 2544 9 is_stmt 1
	lui	a4,%hi(.LC75)
	mv	a5,a0
	addi	a4,a4,%lo(.LC75)
	addi	a3,s3,-1552
	addi	a2,s1,%lo(.LC1)
	li	a1,1
	mv	a0,s11
	call	mbedtls_debug_print_ret
.LVL420:
	.loc 2 2545 9
	j	.L176
.LVL421:
.L178:
	.loc 2 2548 5
	.loc 2 2548 9 is_stmt 0
	mv	a0,s11
	call	ssl_check_server_ecdh_params
.LVL422:
	mv	s0,a0
.LVL423:
	.loc 2 2548 7
	beq	a0,zero,.L179
	.loc 2 2550 9 is_stmt 1
	lui	a4,%hi(.LC76)
	mv	a0,s11
	addi	a4,a4,%lo(.LC76)
	addi	a3,s3,-1546
	addi	a2,s1,%lo(.LC1)
	li	a1,1
	call	mbedtls_debug_print_msg
.LVL424:
	.loc 2 2551 9
	.loc 2 2551 15 is_stmt 0
	li	a0,-32768
	addi	s0,a0,1536
	j	.L176
.LVL425:
.L179:
.LBE286:
.LBE288:
	.loc 2 2594 9 is_stmt 1
	lui	a4,%hi(.LC72)
	addi	a4,a4,%lo(.LC72)
	addi	a3,s3,-1502
	j	.L377
.LVL426:
.L174:
	.loc 2 2598 5
	.loc 2 2599 5
	.loc 2 2611 5
	.loc 2 2611 17 is_stmt 0
	li	a1,1
	mv	a0,s11
	call	mbedtls_ssl_read_record
.LVL427:
	mv	s0,a0
.LVL428:
	.loc 2 2611 7
	beq	a0,zero,.L180
	.loc 2 2613 9 is_stmt 1
	lui	a4,%hi(.LC40)
	mv	a5,a0
	addi	a4,a4,%lo(.LC40)
	addi	a3,s3,-1483
	j	.L356
.L180:
	.loc 2 2617 5
	.loc 2 2617 7 is_stmt 0
	lw	a4,108(s11)
	li	a5,22
	beq	a4,a5,.L181
	.loc 2 2619 9 is_stmt 1
	lui	a4,%hi(.LC78)
	addi	a4,a4,%lo(.LC78)
	addi	a3,s3,-1477
	j	.L361
.L181:
	.loc 2 2631 5
	.loc 2 2631 12 is_stmt 0
	lw	s2,100(s11)
	.loc 2 2631 7
	li	a5,12
	lbu	a4,0(s2)
	beq	a4,a5,.L182
	.loc 2 2633 9 is_stmt 1
	.loc 2 2633 11 is_stmt 0
	lw	a5,16(s6)
	li	a4,5
	andi	a5,a5,-3
	bne	a5,a4,.L183
	.loc 2 2638 13 is_stmt 1
	.loc 2 2638 39 is_stmt 0
	sw	s4,128(s11)
	.loc 2 2639 13 is_stmt 1
.LVL429:
.L184:
	.loc 2 2924 5
	.loc 2 2924 15 is_stmt 0
	lw	a5,4(s11)
	.loc 2 2926 5
	lui	a4,%hi(.LC97)
	li	a3,4096
	.loc 2 2924 15
	addi	a5,a5,1
	sw	a5,4(s11)
	.loc 2 2926 5 is_stmt 1
	addi	a4,a4,%lo(.LC97)
	addi	a3,a3,-1170
	j	.L358
.LVL430:
.L183:
	.loc 2 2642 9
	lui	a4,%hi(.LC79)
	addi	a4,a4,%lo(.LC79)
	addi	a3,s3,-1454
	j	.L361
.L182:
	.loc 2 2658 5
.LVL431:
.LBE315:
.LBE327:
	.loc 1 807 5
	.loc 1 809 5
.LBB328:
.LBB316:
	.loc 2 2659 28 is_stmt 0
	lw	a6,120(s11)
	.loc 2 2660 5
	lui	a4,%hi(.LC80)
	.loc 2 2658 21
	addi	a5,s2,4
	.loc 2 2660 5
	addi	a4,a4,%lo(.LC80)
	addi	a2,s1,%lo(.LC1)
	.loc 2 2659 9
	add	s2,s2,a6
	.loc 2 2660 5
	addi	a3,s3,-1436
	addi	a6,a6,-4
	li	a1,3
	mv	a0,s11
	.loc 2 2658 7
	sw	a5,40(sp)
	.loc 2 2659 5 is_stmt 1
.LVL432:
	.loc 2 2660 5
	call	mbedtls_debug_print_buf
.LVL433:
	.loc 2 2663 5
	.loc 2 2663 25 is_stmt 0
	lw	a2,16(s6)
	.loc 2 2663 7
	li	a5,3
	addi	a4,a2,-5
	bgtu	a4,a5,.L185
	.loc 2 2668 9 is_stmt 1
.LVL434:
.LBB289:
.LBB290:
	.loc 2 2335 5
	.loc 2 2336 5
	.loc 2 2337 5
	.loc 2 2344 5
	.loc 2 2344 16 is_stmt 0
	lw	a5,40(sp)
	.loc 2 2344 13
	sub	a4,s2,a5
	.loc 2 2344 7
	bgt	a4,s4,.L186
	.loc 2 2346 9 is_stmt 1
	lui	a4,%hi(.LC81)
	addi	a4,a4,%lo(.LC81)
	addi	a3,s3,-1750
.L350:
	.loc 2 2355 9 is_stmt 0
	addi	a2,s1,%lo(.LC1)
	li	a1,1
	mv	a0,s11
	call	mbedtls_debug_print_msg
.LVL435:
	.loc 2 2357 9 is_stmt 1
.LBE290:
.LBE289:
	.loc 2 2670 13
	lui	a4,%hi(.LC78)
	li	a3,4096
	addi	a4,a4,%lo(.LC78)
	addi	a3,a3,-1426
.LVL436:
.L367:
	.loc 2 2715 13 is_stmt 0
	addi	a2,s1,%lo(.LC1)
	li	a1,1
	mv	a0,s11
	call	mbedtls_debug_print_msg
.LVL437:
	.loc 2 2716 13 is_stmt 1
	li	a2,47
	li	a1,2
	mv	a0,s11
	call	mbedtls_ssl_send_alert_message
.LVL438:
	.loc 2 2720 13
	.loc 2 2720 19 is_stmt 0
	li	a0,-32768
	addi	s0,a0,1280
.LVL439:
	j	.L79
.LVL440:
.L186:
.LBB292:
.LBB291:
	.loc 2 2350 5 is_stmt 1
	lbu	a4,1(a5)
	lbu	a3,0(a5)
	.loc 2 2351 8 is_stmt 0
	addi	a5,a5,2
	slli	a4,a4,8
	or	a4,a4,a3
	slli	a3,a4,8
	srli	a4,a4,8
	or	a4,a3,a4
	slli	a4,a4,16
	srli	a4,a4,16
.LVL441:
	.loc 2 2351 5 is_stmt 1
	.loc 2 2351 8 is_stmt 0
	sw	a5,40(sp)
	.loc 2 2353 5 is_stmt 1
	.loc 2 2353 13 is_stmt 0
	sub	a3,s2,a5
	.loc 2 2353 7
	ble	a4,a3,.L188
	.loc 2 2355 9 is_stmt 1
	lui	a4,%hi(.LC81)
.LVL442:
	addi	a4,a4,%lo(.LC81)
	addi	a3,s3,-1741
	j	.L350
.LVL443:
.L188:
	.loc 2 2365 5
	.loc 2 2365 8 is_stmt 0
	add	a5,a5,a4
	sw	a5,40(sp)
	.loc 2 2366 5 is_stmt 1
.LVL444:
	.loc 2 2368 5
.L185:
.LBE291:
.LBE292:
	.loc 2 2682 5
	.loc 2 2682 7 is_stmt 0
	andi	a5,a2,-3
	li	a4,5
	beq	a5,a4,.L194
	.loc 2 2690 5 is_stmt 1
	.loc 2 2690 7 is_stmt 0
	andi	a5,a2,-5
	li	a4,2
	bne	a5,a4,.L190
	.loc 2 2693 9 is_stmt 1
.LVL445:
.LBB293:
.LBB294:
	.loc 2 2211 5
	.loc 2 2222 5
	.loc 2 2222 17 is_stmt 0
	lw	a0,48(s11)
	mv	a2,s2
	addi	a1,sp,40
.LVL446:
	addi	a0,a0,8
	call	mbedtls_dhm_read_params
.LVL447:
	mv	a5,a0
.LVL448:
	.loc 2 2222 7
	beq	a0,zero,.L191
	.loc 2 2225 9 is_stmt 1
	lui	a4,%hi(.LC82)
	li	a3,4096
	addi	a4,a4,%lo(.LC82)
	addi	a3,a3,-1871
	addi	a2,s1,%lo(.LC1)
	li	a1,2
	mv	a0,s11
.LVL449:
	call	mbedtls_debug_print_ret
.LVL450:
	.loc 2 2226 9
.L192:
.LBE294:
.LBE293:
	.loc 2 2695 13
	lui	a4,%hi(.LC78)
	li	a3,4096
	addi	a4,a4,%lo(.LC78)
	addi	a3,a3,-1401
	j	.L367
.LVL451:
.L191:
.LBB296:
.LBB295:
	.loc 2 2229 5
	.loc 2 2229 12 is_stmt 0
	lw	a4,48(s11)
	.loc 2 2229 52
	lw	a3,0(s11)
	.loc 2 2229 37
	lw	a5,8(a4)
	.loc 2 2229 52
	lw	a6,152(a3)
	.loc 2 2229 37
	slli	a5,a5,3
	.loc 2 2229 7
	bgeu	a5,a6,.L193
	.loc 2 2231 9 is_stmt 1
	lui	a4,%hi(.LC83)
	li	a3,4096
	addi	a4,a4,%lo(.LC83)
	addi	a3,a3,-1865
	addi	a2,s1,%lo(.LC1)
	li	a1,1
	mv	a0,s11
.LVL452:
	call	mbedtls_debug_print_msg
.LVL453:
	.loc 2 2234 9
	j	.L192
.LVL454:
.L193:
	.loc 2 2237 5
	addi	a5,a4,12
	li	s3,4096
	lui	a4,%hi(.LC84)
	addi	a4,a4,%lo(.LC84)
	addi	a3,s3,-1859
	addi	a2,s1,%lo(.LC1)
	li	a1,3
	mv	a0,s11
.LVL455:
	call	mbedtls_debug_print_mpi
.LVL456:
	.loc 2 2238 5
	.loc 2 2238 155 is_stmt 0
	lw	a5,48(s11)
	.loc 2 2238 5
	lui	a4,%hi(.LC85)
	addi	a4,a4,%lo(.LC85)
	addi	a5,a5,24
	addi	a3,s3,-1858
	addi	a2,s1,%lo(.LC1)
	li	a1,3
	mv	a0,s11
	call	mbedtls_debug_print_mpi
.LVL457:
	.loc 2 2239 5 is_stmt 1
	.loc 2 2239 155 is_stmt 0
	lw	a5,48(s11)
	.loc 2 2239 5
	lui	a4,%hi(.LC86)
	addi	a4,a4,%lo(.LC86)
	addi	a5,a5,60
	addi	a3,s3,-1857
	addi	a2,s1,%lo(.LC1)
	li	a1,3
	mv	a0,s11
	call	mbedtls_debug_print_mpi
.LVL458:
	.loc 2 2241 5 is_stmt 1
.L194:
.LBE295:
.LBE296:
	.loc 2 2750 5
.LBB297:
.LBB298:
	.file 4 "/mnt/d/GitHub/bl_iot_sdk_for_aithinker/components/security/mbedtls_lts/mbedtls/include/mbedtls/ssl_ciphersuites.h"
	.loc 4 548 5
	lw	a5,16(s6)
	li	a4,2
	addi	a5,a5,-2
	bgtu	a5,a4,.L184
.LVL459:
.LBE298:
.LBE297:
.LBB299:
	.loc 2 2752 9
	.loc 2 2753 9
	.loc 2 2754 9
	.loc 2 2755 9
	.loc 2 2756 9
.LBE299:
.LBE316:
.LBE328:
	.loc 1 807 5
	.loc 1 809 5
.LBB329:
.LBB317:
.LBB308:
	.loc 2 2757 9
	.loc 2 2758 9
	.loc 2 2764 9
	.loc 2 2764 11 is_stmt 0
	lw	a4,12(s11)
	li	a5,3
	bne	a4,a5,.L199
	.loc 2 2757 31
	lw	s8,40(sp)
	.loc 2 2766 13 is_stmt 1
.LVL460:
.LBB300:
.LBB301:
	.loc 2 2461 5
	.loc 2 2462 5
	.loc 2 2463 5
	.loc 2 2466 5
	.loc 2 2471 5
	.loc 2 2471 14 is_stmt 0
	addi	a5,s8,2
	.loc 2 2471 7
	bltu	s2,a5,.L200
	.loc 2 2477 21
	lbu	a0,0(s8)
.LBE301:
.LBE300:
	.loc 2 2756 36
	lw	s7,100(s11)
.LBB305:
.LBB302:
	.loc 2 2477 5 is_stmt 1
	.loc 2 2477 21 is_stmt 0
	call	mbedtls_ssl_md_alg_from_hash
.LVL461:
	lw	a5,40(sp)
	mv	s4,a0
.LVL462:
	.loc 2 2477 7
	bne	a0,zero,.L201
	.loc 2 2480 9 is_stmt 1
	lbu	a5,0(a5)
	lui	a4,%hi(.LC89)
	li	a3,4096
	addi	a4,a4,%lo(.LC89)
	addi	a3,a3,-1616
.LVL463:
.L353:
	.loc 2 2501 9 is_stmt 0
	addi	a2,s1,%lo(.LC1)
	li	a1,1
	mv	a0,s11
	call	mbedtls_debug_print_msg
.LVL464:
	.loc 2 2503 9 is_stmt 1
.L200:
.LBE302:
.LBE305:
	.loc 2 2769 17
	lui	a4,%hi(.LC78)
	li	a3,4096
	addi	a4,a4,%lo(.LC78)
	addi	a3,a3,-1327
	j	.L375
.LVL465:
.L190:
.LBE308:
	.loc 2 2709 5
	.loc 2 2709 7 is_stmt 0
	addi	a5,a2,-3
	li	a4,1
	bleu	a5,a4,.L195
	.loc 2 2709 74
	li	a5,8
	bne	a2,a5,.L196
.L195:
	.loc 2 2713 9 is_stmt 1
.LVL466:
.LBB309:
.LBB310:
	.loc 2 2296 5
	.loc 2 2306 5
	.loc 2 2306 17 is_stmt 0
	lw	a0,48(s11)
	mv	a2,s2
	addi	a1,sp,40
.LVL467:
	addi	a0,a0,132
	call	mbedtls_ecdh_read_params
.LVL468:
	mv	a5,a0
.LVL469:
	.loc 2 2306 7
	beq	a0,zero,.L197
	.loc 2 2309 9 is_stmt 1
	lui	a4,%hi(.LC87)
	li	a3,4096
	addi	a4,a4,%lo(.LC87)
	addi	a3,a3,-1787
	addi	a2,s1,%lo(.LC1)
	li	a1,1
	mv	a0,s11
.LVL470:
	call	mbedtls_debug_print_ret
.LVL471:
	.loc 2 2314 9
.L198:
.LBE310:
.LBE309:
	.loc 2 2715 13
	lui	a4,%hi(.LC78)
	li	a3,4096
	addi	a4,a4,%lo(.LC78)
	addi	a3,a3,-1381
	j	.L367
.LVL472:
.L197:
.LBB312:
.LBB311:
	.loc 2 2317 5
	.loc 2 2317 9 is_stmt 0
	mv	a0,s11
.LVL473:
	call	ssl_check_server_ecdh_params
.LVL474:
	.loc 2 2317 7
	beq	a0,zero,.L194
	.loc 2 2319 9 is_stmt 1
	lui	a4,%hi(.LC88)
	li	a3,4096
	addi	a4,a4,%lo(.LC88)
	addi	a3,a3,-1777
	addi	a2,s1,%lo(.LC1)
	li	a1,1
	mv	a0,s11
	call	mbedtls_debug_print_msg
.LVL475:
	.loc 2 2321 9
	j	.L198
.L196:
.LBE311:
.LBE312:
	.loc 2 2745 9
	lui	a4,%hi(.LC9)
	li	a3,4096
	addi	a4,a4,%lo(.LC9)
	addi	a3,a3,-1351
.LVL476:
.L360:
.LBE317:
.LBE329:
.LBB330:
.LBB323:
	.loc 2 3619 9 is_stmt 0
	mv	a0,s11
	addi	a2,s1,%lo(.LC1)
	li	a1,1
	call	mbedtls_debug_print_msg
.LVL477:
	.loc 2 3620 9 is_stmt 1
	.loc 2 3620 15 is_stmt 0
	li	a0,-28672
	addi	s0,a0,1024
	j	.L79
.LVL478:
.L201:
.LBE323:
.LBE330:
.LBB331:
.LBB318:
.LBB313:
.LBB306:
.LBB303:
	.loc 2 2488 5 is_stmt 1
	.loc 2 2488 21 is_stmt 0
	lbu	a0,1(a5)
.LVL479:
	call	mbedtls_ssl_pk_alg_from_sig
.LVL480:
	mv	s5,a0
.LVL481:
	.loc 2 2488 7
	bne	a0,zero,.L202
	.loc 2 2491 9 is_stmt 1
	lw	a5,40(sp)
	lui	a4,%hi(.LC90)
	li	a3,4096
	lbu	a5,1(a5)
	addi	a4,a4,%lo(.LC90)
	addi	a3,a3,-1605
	j	.L353
.L202:
	.loc 2 2499 5
	.loc 2 2499 9 is_stmt 0
	mv	a1,s4
	mv	a0,s11
.LVL482:
	call	mbedtls_ssl_check_sig_hash
.LVL483:
	lw	a5,40(sp)
	.loc 2 2499 7
	beq	a0,zero,.L203
	.loc 2 2501 9 is_stmt 1
	lui	a4,%hi(.LC91)
	li	a3,4096
	lbu	a5,0(a5)
	addi	a4,a4,%lo(.LC91)
	addi	a3,a3,-1595
	j	.L353
.L203:
	.loc 2 2506 5
	lbu	a5,1(a5)
	li	s9,4096
	lui	a4,%hi(.LC92)
	addi	a4,a4,%lo(.LC92)
	addi	a3,s9,-1590
	addi	a2,s1,%lo(.LC1)
	li	a1,2
	mv	a0,s11
	call	mbedtls_debug_print_msg
.LVL484:
	.loc 2 2508 5
	lw	a5,40(sp)
	lui	a4,%hi(.LC93)
	mv	a0,s11
	lbu	a5,0(a5)
	addi	a4,a4,%lo(.LC93)
	addi	a3,s9,-1588
	addi	a2,s1,%lo(.LC1)
	li	a1,2
	call	mbedtls_debug_print_msg
.LVL485:
	.loc 2 2510 5
	.loc 2 2510 8 is_stmt 0
	lw	a5,40(sp)
.LBE303:
.LBE306:
	.loc 2 2779 17
	mv	a0,s6
.LBB307:
.LBB304:
	.loc 2 2510 8
	addi	a5,a5,2
	sw	a5,40(sp)
	.loc 2 2512 5 is_stmt 1
.LVL486:
.LBE304:
.LBE307:
	.loc 2 2778 13
	.loc 2 2779 17 is_stmt 0
	call	mbedtls_ssl_get_ciphersuite_sig_pk_alg
.LVL487:
	.loc 2 2778 15
	beq	a0,s5,.L204
	.loc 2 2781 17 is_stmt 1
	lui	a4,%hi(.LC78)
	addi	a4,a4,%lo(.LC78)
	addi	a3,s9,-1315
.LVL488:
.L375:
	.loc 2 2769 17 is_stmt 0
	addi	a2,s1,%lo(.LC1)
	li	a1,1
	mv	a0,s11
	call	mbedtls_debug_print_msg
.LVL489:
	.loc 2 2771 17 is_stmt 1
	li	a2,47
	j	.L351
.LVL490:
.L199:
	.loc 2 2805 13
	lui	a4,%hi(.LC9)
	li	a3,4096
	addi	a4,a4,%lo(.LC9)
	addi	a3,a3,-1291
	addi	a2,s1,%lo(.LC1)
	li	a1,1
	mv	a0,s11
	.loc 2 2806 19 is_stmt 0
	li	s2,-28672
.LVL491:
	.loc 2 2805 13
	call	mbedtls_debug_print_msg
.LVL492:
	.loc 2 2806 13 is_stmt 1
	.loc 2 2806 19 is_stmt 0
	addi	s2,s2,1024
.LVL493:
.L205:
	.loc 2 2775 23
	mv	s0,s2
	j	.L79
.LVL494:
.L204:
	.loc 2 2813 9 is_stmt 1
	.loc 2 2813 15 is_stmt 0
	lw	a5,40(sp)
	.loc 2 2813 21
	addi	a4,s2,-2
	.loc 2 2813 11
	bleu	a5,a4,.L206
	.loc 2 2815 13 is_stmt 1
	lui	a4,%hi(.LC78)
	addi	a4,a4,%lo(.LC78)
	addi	a3,s9,-1281
.LVL495:
.L352:
	addi	a2,s1,%lo(.LC1)
	li	a1,1
	mv	a0,s11
	call	mbedtls_debug_print_msg
.LVL496:
	.loc 2 2816 13
	li	a2,50
.LVL497:
.L351:
	li	a1,2
	mv	a0,s11
	.loc 2 2820 19 is_stmt 0
	li	s2,-32768
	.loc 2 2816 13
	call	mbedtls_ssl_send_alert_message
.LVL498:
	.loc 2 2820 13 is_stmt 1
	.loc 2 2820 19 is_stmt 0
	addi	s2,s2,1280
	j	.L205
.LVL499:
.L206:
	.loc 2 2822 9 is_stmt 1
	.loc 2 2822 17 is_stmt 0
	lbu	a4,1(a5)
	lbu	s3,0(a5)
	.loc 2 2823 11
	addi	a5,a5,2
	.loc 2 2822 17
	slli	a4,a4,8
	or	a4,a4,s3
	slli	s3,a4,8
	srli	a4,a4,8
	or	a4,s3,a4
	slli	s3,a4,16
	srli	s3,s3,16
.LVL500:
	.loc 2 2823 9 is_stmt 1
	.loc 2 2823 11 is_stmt 0
	sw	a5,40(sp)
	.loc 2 2825 9 is_stmt 1
	.loc 2 2825 22 is_stmt 0
	sub	s2,s2,s3
.LVL501:
	.loc 2 2825 11
	beq	a5,s2,.L207
	.loc 2 2827 13 is_stmt 1
	lui	a4,%hi(.LC78)
	addi	a4,a4,%lo(.LC78)
	addi	a3,s9,-1269
	j	.L352
.L207:
	.loc 2 2835 9 is_stmt 0
	lui	a4,%hi(.LC94)
	mv	a6,s3
	addi	a4,a4,%lo(.LC94)
	addi	a3,s9,-1261
	addi	a2,s1,%lo(.LC1)
	li	a1,3
	mv	a0,s11
	call	mbedtls_debug_print_buf
.LVL502:
	.loc 2 2756 24
	addi	s7,s7,4
.LVL503:
	.loc 2 2835 9 is_stmt 1
	.loc 2 2855 9
	.loc 2 2857 13
	.loc 2 2857 19 is_stmt 0
	mv	a5,s4
	sub	a4,s8,s7
	mv	a3,s7
	addi	a2,sp,44
	addi	a1,sp,48
	mv	a0,s11
	call	mbedtls_ssl_get_key_exchange_md_tls1_2
.LVL504:
	mv	s2,a0
.LVL505:
	.loc 2 2860 13 is_stmt 1
	.loc 2 2860 15 is_stmt 0
	bne	a0,zero,.L205
	.loc 2 2871 9 is_stmt 1
	lw	a6,44(sp)
	lui	a4,%hi(.LC95)
	li	s6,4096
.LVL506:
	addi	a5,sp,48
	mv	a0,s11
.LVL507:
	addi	a4,a4,%lo(.LC95)
	addi	a3,s6,-1225
	addi	a2,s1,%lo(.LC1)
	li	a1,3
	call	mbedtls_debug_print_buf
.LVL508:
	.loc 2 2873 9
	.loc 2 2873 35 is_stmt 0
	lw	a5,44(s11)
	lw	a0,92(a5)
	.loc 2 2873 11
	bne	a0,zero,.L208
	.loc 2 2875 13 is_stmt 1
	lui	a4,%hi(.LC73)
	addi	a4,a4,%lo(.LC73)
	addi	a3,s6,-1221
	addi	a2,s1,%lo(.LC1)
	li	a1,2
	mv	a0,s11
	call	mbedtls_debug_print_msg
.LVL509:
	.loc 2 2876 13
	li	a2,40
	li	a1,2
	mv	a0,s11
	.loc 2 2880 19 is_stmt 0
	li	s2,-28672
.LVL510:
	.loc 2 2876 13
	call	mbedtls_ssl_send_alert_message
.LVL511:
	.loc 2 2880 13 is_stmt 1
	.loc 2 2880 19 is_stmt 0
	addi	s2,s2,-1792
	j	.L205
.LVL512:
.L208:
	.loc 2 2886 9 is_stmt 1
	.loc 2 2886 15 is_stmt 0
	mv	a1,s5
	addi	a0,a0,188
	call	mbedtls_pk_can_do
.LVL513:
	.loc 2 2886 11
	bne	a0,zero,.L209
	.loc 2 2889 13 is_stmt 1
	lui	a4,%hi(.LC78)
	addi	a4,a4,%lo(.LC78)
	addi	a3,s6,-1207
	addi	a2,s1,%lo(.LC1)
	li	a1,1
	mv	a0,s11
	call	mbedtls_debug_print_msg
.LVL514:
	.loc 2 2890 13
	li	a2,40
	li	a1,2
	mv	a0,s11
	.loc 2 2894 19 is_stmt 0
	li	s2,-28672
.LVL515:
	.loc 2 2890 13
	call	mbedtls_ssl_send_alert_message
.LVL516:
	.loc 2 2894 13 is_stmt 1
	.loc 2 2894 19 is_stmt 0
	addi	s2,s2,768
	j	.L205
.LVL517:
.L209:
	.loc 2 2902 9 is_stmt 1
	.loc 2 2903 48 is_stmt 0
	lw	a5,44(s11)
	.loc 2 2902 21
	lw	a4,40(sp)
	lw	a3,44(sp)
	lw	a0,92(a5)
	li	a6,0
	mv	a5,s3
	addi	a2,sp,48
	mv	a1,s4
	addi	a0,a0,188
	call	mbedtls_pk_verify_restartable
.LVL518:
	mv	s2,a0
.LVL519:
	.loc 2 2902 11
	beq	a0,zero,.L184
	.loc 2 2909 17 is_stmt 1
	li	a2,51
	li	a1,2
	mv	a0,s11
.LVL520:
	call	mbedtls_ssl_send_alert_message
.LVL521:
	.loc 2 2913 13
	lui	a4,%hi(.LC96)
	mv	a5,s2
	addi	a4,a4,%lo(.LC96)
	addi	a3,s6,-1183
	addi	a2,s1,%lo(.LC1)
	li	a1,1
	mv	a0,s11
	call	mbedtls_debug_print_ret
.LVL522:
	.loc 2 2918 13
	.loc 2 2918 19 is_stmt 0
	j	.L205
.LVL523:
.L95:
.LBE313:
.LBE318:
.LBE331:
	.loc 2 3842 12 is_stmt 1
.LBB332:
.LBB333:
	.loc 2 2952 5
	.loc 2 2953 5
	.loc 2 2954 5
	.loc 2 2955 5
	.loc 2 2956 5
	.loc 2 2956 38 is_stmt 0
	lw	a5,64(s11)
	.loc 2 2959 5
	lui	a4,%hi(.LC98)
	li	a3,4096
	.loc 2 2956 38
	lw	s2,0(a5)
.LVL524:
	.loc 2 2959 5 is_stmt 1
	addi	a4,a4,%lo(.LC98)
	addi	a3,a3,-1137
	addi	a2,s1,%lo(.LC1)
	li	a1,2
	mv	a0,s11
	call	mbedtls_debug_print_msg
.LVL525:
	.loc 2 2961 5
	lw	a5,16(s2)
.LVL526:
.LBB334:
.LBB335:
	.loc 4 499 5
	li	a4,4
	bgtu	a5,a4,.L211
	beq	a5,zero,.L213
.L212:
.LVL527:
.LBE335:
.LBE334:
	.loc 2 2968 5
	.loc 2 2968 17 is_stmt 0
	li	a1,1
	mv	a0,s11
	call	mbedtls_ssl_read_record
.LVL528:
	mv	s0,a0
.LVL529:
	.loc 2 2968 7
	beq	a0,zero,.L214
	.loc 2 2970 9 is_stmt 1
	lui	a4,%hi(.LC40)
	li	a3,4096
	mv	a5,a0
	addi	a4,a4,%lo(.LC40)
	addi	a3,a3,-1126
	j	.L356
.LVL530:
.L211:
.LBB337:
.LBB336:
	.loc 4 499 5 is_stmt 0
	addi	a5,a5,-9
	li	a4,1
	bleu	a5,a4,.L212
.L213:
	.loc 4 510 13 is_stmt 1
.LVL531:
.LBE336:
.LBE337:
	.loc 2 2963 9
	lui	a4,%hi(.LC99)
	li	a3,4096
	addi	a4,a4,%lo(.LC99)
	addi	a3,a3,-1133
	j	.L377
.LVL532:
.L214:
	.loc 2 2974 5
	.loc 2 2974 7 is_stmt 0
	lw	a4,108(s11)
	li	a5,22
	beq	a4,a5,.L215
	.loc 2 2976 9 is_stmt 1
	lui	a4,%hi(.LC100)
	li	a3,4096
	addi	a4,a4,%lo(.LC100)
	addi	a3,a3,-1120
	j	.L361
.L215:
	.loc 2 2984 5
	.loc 2 2984 15 is_stmt 0
	lw	a5,4(s11)
	addi	a5,a5,1
	sw	a5,4(s11)
	.loc 2 2985 5 is_stmt 1
	.loc 2 2985 37 is_stmt 0
	lw	a5,100(s11)
	lbu	a4,0(a5)
	.loc 2 2985 41
	addi	a5,a4,-13
	seqz	a5,a5
	.loc 2 2985 22
	sw	a5,176(s11)
	.loc 2 2987 5 is_stmt 1
	li	a5,13
	beq	a4,a5,.L277
	lui	a5,%hi(.LC12)
	addi	a5,a5,%lo(.LC12)
.L216:
	lui	a4,%hi(.LC101)
	li	s6,4096
	addi	a4,a4,%lo(.LC101)
	addi	a3,s6,-1109
	addi	a2,s1,%lo(.LC1)
	li	a1,3
	mv	a0,s11
	call	mbedtls_debug_print_msg
.LVL533:
	.loc 2 2990 5
	.loc 2 2990 7 is_stmt 0
	lw	a5,176(s11)
	bne	a5,zero,.L217
	.loc 2 2993 9 is_stmt 1
	.loc 2 2993 35 is_stmt 0
	li	a5,1
	sw	a5,128(s11)
	.loc 2 2994 9 is_stmt 1
.LVL534:
.L218:
	.loc 2 3115 5
	lui	a4,%hi(.LC103)
	li	a3,4096
	addi	a4,a4,%lo(.LC103)
	addi	a3,a3,-981
	j	.L358
.LVL535:
.L277:
	.loc 2 2987 5 is_stmt 0
	lui	a5,%hi(.LC11)
	addi	a5,a5,%lo(.LC11)
	j	.L216
.L217:
	.loc 2 3021 5 is_stmt 1
	.loc 2 3024 12 is_stmt 0
	lw	a4,120(s11)
	.loc 2 3024 7
	li	a5,4
	.loc 2 3021 9
	lw	s3,100(s11)
.LVL536:
	.loc 2 3024 5 is_stmt 1
.LBE333:
.LBE332:
	.loc 1 807 5
	.loc 1 809 5
.LBB349:
.LBB342:
	.loc 2 3024 7 is_stmt 0
	bgtu	a4,a5,.L219
	.loc 2 3026 9 is_stmt 1
	lui	a4,%hi(.LC100)
	addi	a4,a4,%lo(.LC100)
	addi	a3,s6,-1070
.LVL537:
.L365:
	.loc 2 3108 9 is_stmt 0
	addi	a2,s1,%lo(.LC1)
	li	a1,1
	mv	a0,s11
	call	mbedtls_debug_print_msg
.LVL538:
	.loc 2 3109 9 is_stmt 1
	li	a2,50
	li	a1,2
	mv	a0,s11
	call	mbedtls_ssl_send_alert_message
.LVL539:
	.loc 2 3111 9
	.loc 2 3111 15 is_stmt 0
	li	a0,-32768
	addi	s0,a0,1408
.LVL540:
	j	.L79
.LVL541:
.L219:
	.loc 2 3031 5 is_stmt 1
.LBE342:
.LBE349:
	.loc 1 807 5
	.loc 1 809 5
.LBB350:
.LBB343:
	.loc 2 3031 19 is_stmt 0
	lbu	s2,4(s3)
.LVL542:
	.loc 2 3032 5 is_stmt 1
	.loc 2 3044 5
.LBE343:
.LBE350:
	.loc 1 807 5
	.loc 1 809 5
.LBB351:
.LBB344:
	.loc 2 3044 60 is_stmt 0
	addi	a5,s2,6
	.loc 2 3044 7
	bgtu	a4,a5,.L220
	.loc 2 3046 9 is_stmt 1
	lui	a4,%hi(.LC100)
	addi	a4,a4,%lo(.LC100)
	addi	a3,s6,-1050
	j	.L365
.L220:
	.loc 2 3054 5
	.loc 2 3054 7 is_stmt 0
	lw	a2,12(s11)
	li	a3,3
	bne	a2,a3,.L221
.LBB338:
	.loc 2 3057 20
	add	a3,s3,s2
	lbu	s4,5(a3)
	.loc 2 3058 22
	add	a5,s3,a5
	lbu	a5,0(a5)
	.loc 2 3057 60
	slli	s4,s4,8
	addi	s5,s2,7
	.loc 2 3058 15
	or	s4,s4,a5
	.loc 2 3056 9 is_stmt 1
.LVL543:
.LBE338:
.LBE344:
.LBE351:
	.loc 1 807 5
	.loc 1 809 5
	.loc 1 807 5
	.loc 1 809 5
.LBB352:
.LBB345:
.LBB339:
	.loc 2 3060 9
	.loc 2 3061 9
	.loc 2 3076 9
.LBE339:
.LBE345:
.LBE352:
	.loc 1 807 5
	.loc 1 809 5
.LBB353:
.LBB346:
.LBB340:
	.loc 2 3077 41 is_stmt 0
	add	a5,s4,s5
	.loc 2 3088 17
	add	s5,s3,s5
	.loc 2 3089 9
	mv	s7,s5
	.loc 2 3076 11
	bleu	a4,a5,.L346
	.loc 2 3091 13
	lui	s8,%hi(.LC102)
	addi	s6,s6,-1005
.LVL544:
.L223:
	.loc 2 3089 21 is_stmt 1
	.loc 2 3089 9 is_stmt 0
	sub	a5,s7,s5
	bgtu	s4,a5,.L224
	.loc 2 3097 9 is_stmt 1
	.loc 2 3097 11 is_stmt 0
	addi	s2,s2,2
.LVL545:
	add	s2,s2,s4
.LVL546:
.L221:
.LBE340:
	.loc 2 3102 5 is_stmt 1
.LBE346:
.LBE353:
	.loc 1 807 5
	.loc 1 809 5
	.loc 1 807 5
	.loc 1 809 5
.LBB354:
.LBB347:
	.loc 2 3105 5
	.loc 2 3106 5
.LBE347:
.LBE354:
	.loc 1 807 5
	.loc 1 809 5
.LBB355:
.LBB348:
	.loc 2 3102 21 is_stmt 0
	add	s3,s3,s2
.LVL547:
	lbu	a5,5(s3)
	.loc 2 3103 21
	lbu	a4,6(s3)
	.loc 2 3106 60
	addi	s2,s2,7
	.loc 2 3102 61
	slli	a5,a5,8
	.loc 2 3103 14
	or	a5,a5,a4
	.loc 2 3106 60
	add	s2,a5,s2
	.loc 2 3106 7
	lw	a5,120(s11)
	beq	a5,s2,.L218
	.loc 2 3108 9 is_stmt 1
	lui	a4,%hi(.LC100)
	li	a3,4096
	addi	a4,a4,%lo(.LC100)
	addi	a3,a3,-988
	j	.L365
.LVL548:
.L346:
.LBB341:
	.loc 2 3079 13
	lui	a4,%hi(.LC100)
	addi	a4,a4,%lo(.LC100)
	addi	a3,s6,-1017
	j	.L365
.LVL549:
.L224:
	.loc 2 3091 13
	lbu	a6,1(s7)
	lbu	a5,0(s7)
	addi	a4,s8,%lo(.LC102)
	mv	a3,s6
	addi	a2,s1,%lo(.LC1)
	li	a1,3
	mv	a0,s11
	call	mbedtls_debug_print_msg
.LVL550:
	.loc 2 3089 38
	addi	s7,s7,2
	j	.L223
.LVL551:
.L94:
.LBE341:
.LBE348:
.LBE355:
	.loc 2 3846 12
.LBB356:
.LBB357:
	.loc 2 3123 5
	.loc 2 3125 5
	lui	a4,%hi(.LC104)
	li	s2,4096
	addi	a4,a4,%lo(.LC104)
	addi	a3,s2,-971
	addi	a2,s1,%lo(.LC1)
	li	a1,2
	mv	a0,s11
	call	mbedtls_debug_print_msg
.LVL552:
	.loc 2 3127 5
	.loc 2 3127 17 is_stmt 0
	li	a1,1
	mv	a0,s11
	call	mbedtls_ssl_read_record
.LVL553:
	mv	s0,a0
.LVL554:
	.loc 2 3127 7
	beq	a0,zero,.L225
	.loc 2 3129 9 is_stmt 1
	lui	a4,%hi(.LC40)
	mv	a5,a0
	addi	a4,a4,%lo(.LC40)
	addi	a3,s2,-967
	j	.L356
.L225:
	.loc 2 3133 5
	.loc 2 3133 7 is_stmt 0
	lw	a4,108(s11)
	li	a5,22
	beq	a4,a5,.L226
	.loc 2 3135 9 is_stmt 1
	lui	a4,%hi(.LC105)
	addi	a4,a4,%lo(.LC105)
	addi	a3,s2,-961
	addi	a2,s1,%lo(.LC1)
	li	a1,1
.LVL555:
.L376:
.LBE357:
.LBE356:
.LBB360:
.LBB227:
.LBB221:
.LBB222:
	.loc 2 2412 9 is_stmt 0
	mv	a0,s11
	call	mbedtls_debug_print_msg
.LVL556:
	.loc 2 2413 9 is_stmt 1
.L362:
.LBE222:
.LBE221:
.LBE227:
.LBE360:
.LBB361:
.LBB234:
	.loc 2 3691 9
	.loc 2 3691 15 is_stmt 0
	li	a0,-28672
	addi	s0,a0,-1792
	j	.L79
.LVL557:
.L226:
.LBE234:
.LBE361:
.LBB362:
.LBB358:
	.loc 2 3139 5 is_stmt 1
.LBE358:
.LBE362:
	.loc 1 807 5
	.loc 1 809 5
.LBB363:
.LBB359:
	.loc 2 3139 7 is_stmt 0
	lw	a4,120(s11)
	li	a5,4
	bne	a4,a5,.L227
	.loc 2 3140 20
	lw	a5,100(s11)
	.loc 2 3139 56
	lbu	a4,0(a5)
	li	a5,14
	beq	a4,a5,.L228
.L227:
	.loc 2 3142 9 is_stmt 1
	lui	a4,%hi(.LC105)
	li	a3,4096
	addi	a4,a4,%lo(.LC105)
	addi	a3,a3,-954
	addi	a2,s1,%lo(.LC1)
	li	a1,1
	mv	a0,s11
	call	mbedtls_debug_print_msg
.LVL558:
	.loc 2 3143 9
	li	a2,50
	li	a1,2
	mv	a0,s11
	call	mbedtls_ssl_send_alert_message
.LVL559:
	.loc 2 3145 9
	.loc 2 3145 15 is_stmt 0
	li	a0,-32768
	addi	s0,a0,1152
.LVL560:
	j	.L79
.LVL561:
.L228:
	.loc 2 3148 5 is_stmt 1
	.loc 2 3148 15 is_stmt 0
	lw	a5,4(s11)
	.loc 2 3155 5
	lui	a4,%hi(.LC106)
	addi	a4,a4,%lo(.LC106)
	.loc 2 3148 15
	addi	a5,a5,1
	sw	a5,4(s11)
	.loc 2 3155 5 is_stmt 1
	addi	a3,s2,-941
	j	.L358
.LVL562:
.L93:
.LBE359:
.LBE363:
	.loc 2 3857 12
	.loc 2 3910 1 is_stmt 0
	lw	s0,168(sp)
	.cfi_remember_state
	.cfi_restore 8
.LVL563:
	lw	ra,172(sp)
	.cfi_restore 1
	lw	s1,164(sp)
	.cfi_restore 9
	lw	s2,160(sp)
	.cfi_restore 18
	lw	s3,156(sp)
	.cfi_restore 19
	lw	s4,152(sp)
	.cfi_restore 20
	lw	s5,148(sp)
	.cfi_restore 21
	lw	s6,144(sp)
	.cfi_restore 22
	lw	s7,140(sp)
	.cfi_restore 23
	lw	s8,136(sp)
	.cfi_restore 24
	lw	s9,132(sp)
	.cfi_restore 25
	lw	s10,128(sp)
	.cfi_restore 26
	.loc 2 3857 18
	mv	a0,s11
.LVL564:
	.loc 2 3910 1
	lw	s11,124(sp)
	.cfi_restore 27
.LVL565:
	addi	sp,sp,176
	.cfi_def_cfa_offset 0
	.loc 2 3857 18
	tail	mbedtls_ssl_write_certificate
.LVL566:
.L92:
	.cfi_restore_state
	.loc 2 3861 12 is_stmt 1
.LBB364:
.LBB228:
	.loc 2 3162 5
	.loc 2 3163 5
	.loc 2 3164 5
	.loc 2 3164 38 is_stmt 0
	lw	a5,64(s11)
	.loc 2 3167 5
	lui	a4,%hi(.LC107)
	li	s2,4096
	.loc 2 3164 38
	lw	s0,0(a5)
.LVL567:
	.loc 2 3167 5 is_stmt 1
	addi	a4,a4,%lo(.LC107)
	addi	a3,s2,-929
	addi	a2,s1,%lo(.LC1)
	li	a1,2
	mv	a0,s11
.LVL568:
	call	mbedtls_debug_print_msg
.LVL569:
	.loc 2 3170 5
	.loc 2 3170 25 is_stmt 0
	lw	a5,16(s0)
	.loc 2 3170 7
	li	s4,2
	bne	a5,s4,.L229
	.loc 2 3175 9 is_stmt 1
	.loc 2 3175 36 is_stmt 0
	lw	a5,48(s11)
	.loc 2 3177 12
	addi	s0,s11,128
.LVL570:
	lw	a4,24(s0)
	.loc 2 3175 36
	lw	a5,8(a5)
	.loc 2 3175 11
	sw	a5,48(sp)
	.loc 2 3177 9 is_stmt 1
	.loc 2 3177 46 is_stmt 0
	srli	a3,a5,8
	.loc 2 3177 27
	sb	a3,4(a4)
	.loc 2 3178 9 is_stmt 1
	.loc 2 3178 12 is_stmt 0
	lw	a4,24(s0)
	.loc 2 3178 27
	sb	a5,5(a4)
	.loc 2 3179 9 is_stmt 1
.LVL571:
	.loc 2 3181 9
	.loc 2 3181 44 is_stmt 0
	lw	s3,48(s11)
	.loc 2 3182 33
	addi	a0,s3,12
	call	mbedtls_mpi_size
.LVL572:
	.loc 2 3184 30
	lw	a4,0(s11)
	.loc 2 3181 15
	lw	a2,24(s0)
	lw	a3,48(sp)
	lw	a5,28(a4)
	lw	a4,24(a4)
	.loc 2 3182 33
	mv	a1,a0
	.loc 2 3181 15
	addi	a2,a2,6
	addi	a0,s3,8
	call	mbedtls_dhm_make_public
.LVL573:
	mv	s0,a0
.LVL574:
	.loc 2 3185 9 is_stmt 1
	.loc 2 3185 11 is_stmt 0
	beq	a0,zero,.L230
	.loc 2 3187 13 is_stmt 1
	lui	a4,%hi(.LC108)
	mv	a5,a0
	addi	a4,a4,%lo(.LC108)
	addi	a3,s2,-909
	j	.L356
.L230:
	.loc 2 3191 9
	.loc 2 3191 159 is_stmt 0
	lw	a5,48(s11)
	.loc 2 3191 9
	lui	a4,%hi(.LC109)
	addi	a4,a4,%lo(.LC109)
	addi	a5,a5,36
	addi	a3,s2,-905
	addi	a2,s1,%lo(.LC1)
	li	a1,3
	mv	a0,s11
	call	mbedtls_debug_print_mpi
.LVL575:
	.loc 2 3192 9 is_stmt 1
	.loc 2 3192 159 is_stmt 0
	lw	a5,48(s11)
	.loc 2 3192 9
	lui	a4,%hi(.LC110)
	addi	a4,a4,%lo(.LC110)
	addi	a5,a5,48
	addi	a3,s2,-904
	addi	a2,s1,%lo(.LC1)
	li	a1,3
	mv	a0,s11
	call	mbedtls_debug_print_mpi
.LVL576:
	.loc 2 3194 9 is_stmt 1
	.loc 2 3198 38 is_stmt 0
	lw	a4,0(s11)
	.loc 2 3194 50
	lw	a0,48(s11)
	.loc 2 3194 21
	li	a2,1024
	lw	a5,28(a4)
	lw	a4,24(a4)
	addi	a3,a0,816
	addi	a1,a0,884
	addi	a0,a0,8
	call	mbedtls_dhm_calc_secret
.LVL577:
	mv	s0,a0
.LVL578:
	.loc 2 3194 11
	beq	a0,zero,.L232
	.loc 2 3200 13 is_stmt 1
	lui	a4,%hi(.LC111)
	mv	a5,a0
	addi	a4,a4,%lo(.LC111)
	addi	a3,s2,-896
	j	.L356
.L232:
	.loc 2 3204 9
	.loc 2 3204 159 is_stmt 0
	lw	a5,48(s11)
	.loc 2 3204 9
	lui	a4,%hi(.LC112)
	addi	a4,a4,%lo(.LC112)
	addi	a5,a5,72
	addi	a3,s2,-892
	addi	a2,s1,%lo(.LC1)
	li	a1,3
	mv	a0,s11
	call	mbedtls_debug_print_mpi
.LVL579:
	.loc 2 3179 11
	li	s3,6
.LVL580:
.L233:
	.loc 2 3432 5 is_stmt 1
	.loc 2 3432 25 is_stmt 0
	lw	a5,48(sp)
	.loc 2 3433 22
	li	a4,22
	.loc 2 3438 17
	mv	a0,s11
	.loc 2 3432 25
	add	s3,a5,s3
.LVL581:
	.loc 2 3432 21
	addi	a5,s11,128
	.loc 2 3433 22
	sw	a4,28(a5)
	.loc 2 3432 21
	sw	s3,32(a5)
	.loc 2 3433 5 is_stmt 1
	.loc 2 3434 5
	.loc 2 3434 8 is_stmt 0
	lw	a5,24(a5)
	.loc 2 3434 21
	li	a4,16
	sb	a4,0(a5)
	.loc 2 3436 5 is_stmt 1
	.loc 2 3436 15 is_stmt 0
	lw	a5,4(s11)
	addi	a5,a5,1
	sw	a5,4(s11)
	.loc 2 3438 5 is_stmt 1
	.loc 2 3438 17 is_stmt 0
	call	mbedtls_ssl_write_handshake_msg
.LVL582:
	mv	s0,a0
.LVL583:
	.loc 2 3438 7
	beq	a0,zero,.L250
	.loc 2 3440 9 is_stmt 1
	lui	a4,%hi(.LC37)
	li	a3,4096
	mv	a5,a0
	addi	a4,a4,%lo(.LC37)
	addi	a3,a3,-656
	j	.L356
.LVL584:
.L229:
	.loc 2 3212 5
	.loc 2 3212 74 is_stmt 0
	addi	a4,a5,-3
	.loc 2 3212 7
	li	s3,1
	bleu	a4,s3,.L234
	.loc 2 3213 76
	addi	a5,a5,-9
	bgtu	a5,s3,.L235
.L234:
	.loc 2 3220 9 is_stmt 1
.LVL585:
	.loc 2 3232 9
	.loc 2 3235 36 is_stmt 0
	lw	a4,0(s11)
	.loc 2 3232 15
	lw	a2,152(s11)
	lw	a0,48(s11)
	lw	a5,28(a4)
	lw	a4,24(a4)
	li	a3,1000
	addi	a2,a2,4
	addi	a1,sp,48
	addi	a0,a0,132
	call	mbedtls_ecdh_make_public
.LVL586:
	mv	s0,a0
.LVL587:
	.loc 2 3236 9 is_stmt 1
	.loc 2 3236 11 is_stmt 0
	beq	a0,zero,.L236
	.loc 2 3238 13 is_stmt 1
	lui	a4,%hi(.LC113)
	li	a3,4096
	mv	a5,a0
	addi	a4,a4,%lo(.LC113)
	addi	a3,a3,-858
	j	.L356
.L236:
	.loc 2 3246 9
	.loc 2 3246 150 is_stmt 0
	lw	a4,48(s11)
	.loc 2 3246 9
	li	s2,4096
	li	a5,0
	addi	a4,a4,132
	addi	a3,s2,-850
	addi	a2,s1,%lo(.LC1)
	li	a1,3
	mv	a0,s11
	call	mbedtls_debug_printf_ecdh
.LVL588:
	.loc 2 3260 9 is_stmt 1
	.loc 2 3264 38 is_stmt 0
	lw	a4,0(s11)
	.loc 2 3260 51
	lw	a0,48(s11)
	.loc 2 3260 21
	li	a3,1024
	lw	a5,28(a4)
	lw	a4,24(a4)
	addi	a2,a0,884
	addi	a1,a0,816
	addi	a0,a0,132
	call	mbedtls_ecdh_calc_secret
.LVL589:
	mv	s0,a0
.LVL590:
	.loc 2 3260 11
	beq	a0,zero,.L237
	.loc 2 3266 13 is_stmt 1
	lui	a4,%hi(.LC114)
	mv	a5,a0
	addi	a4,a4,%lo(.LC114)
	addi	a3,s2,-830
	j	.L356
.L237:
	.loc 2 3274 9
	.loc 2 3274 150 is_stmt 0
	lw	a4,48(s11)
	.loc 2 3274 9
	li	a5,2
	addi	a3,s2,-822
	addi	a4,a4,132
	addi	a2,s1,%lo(.LC1)
	li	a1,3
	mv	a0,s11
	call	mbedtls_debug_printf_ecdh
.LVL591:
	.loc 2 3220 11
	li	s3,4
	.loc 2 3274 9
	j	.L233
.LVL592:
.L235:
	.loc 2 3283 5 is_stmt 1
	.loc 2 3283 9 is_stmt 0
	mv	a0,s0
	call	mbedtls_ssl_ciphersuite_uses_psk
.LVL593:
	.loc 2 3283 7
	beq	a0,zero,.L238
	.loc 2 3288 9 is_stmt 1
	.loc 2 3288 16 is_stmt 0
	lw	a5,0(s11)
	.loc 2 3288 11
	lw	a4,128(a5)
	beq	a4,zero,.L239
	.loc 2 3288 35
	lw	a4,136(a5)
	bne	a4,zero,.L240
.L239:
	.loc 2 3290 13 is_stmt 1
	lui	a4,%hi(.LC115)
	li	a3,4096
	addi	a4,a4,%lo(.LC115)
	addi	a3,a3,-806
.LVL594:
.L364:
.LBE228:
.LBE364:
.LBB365:
.LBB324:
	.loc 2 3532 9 is_stmt 0
	mv	a0,s11
	addi	a2,s1,%lo(.LC1)
	li	a1,1
	call	mbedtls_debug_print_msg
.LVL595:
	.loc 2 3533 9 is_stmt 1
	.loc 2 3533 15 is_stmt 0
	li	a0,-28672
	addi	s0,a0,-1536
	j	.L79
.LVL596:
.L240:
.LBE324:
.LBE365:
.LBB366:
.LBB229:
	.loc 2 3294 9 is_stmt 1
	.loc 2 3295 9
	.loc 2 3295 22 is_stmt 0
	lw	a5,140(a5)
	.loc 2 3297 11
	li	a4,16384
	.loc 2 3295 11
	sw	a5,48(sp)
	.loc 2 3297 9 is_stmt 1
	.loc 2 3297 19 is_stmt 0
	addi	a3,a5,6
	.loc 2 3297 11
	bleu	a3,a4,.L241
	.loc 2 3299 13 is_stmt 1
	lui	a4,%hi(.LC116)
	addi	a4,a4,%lo(.LC116)
	addi	a3,s2,-797
	addi	a2,s1,%lo(.LC1)
	li	a1,1
	mv	a0,s11
	call	mbedtls_debug_print_msg
.LVL597:
	j	.L354
.L241:
	.loc 2 3304 9
	.loc 2 3304 12 is_stmt 0
	lw	a4,152(s11)
.LVL598:
	.loc 2 3304 48
	srli	a3,a5,8
	.loc 2 3304 29
	sb	a3,4(a4)
	.loc 2 3305 9 is_stmt 1
	.loc 2 3305 12 is_stmt 0
	lw	a4,152(s11)
.LVL599:
	.loc 2 3305 29
	sb	a5,5(a4)
	.loc 2 3307 9 is_stmt 1
	.loc 2 3308 20 is_stmt 0
	lw	a5,0(s11)
	.loc 2 3307 30
	lw	a0,152(s11)
	.loc 2 3307 9
	lw	a2,140(a5)
	lw	a1,136(a5)
	addi	a0,a0,6
	call	memcpy
.LVL600:
	.loc 2 3310 9 is_stmt 1
	.loc 2 3310 23 is_stmt 0
	lw	a5,0(s11)
	.loc 2 3313 11
	lw	a4,16(s0)
	.loc 2 3310 11
	lw	s3,140(a5)
	.loc 2 3313 11
	li	a5,5
	.loc 2 3310 11
	addi	s3,s3,6
.LVL601:
	.loc 2 3313 9 is_stmt 1
	.loc 2 3313 11 is_stmt 0
	bne	a4,a5,.L242
	.loc 2 3315 13 is_stmt 1
	.loc 2 3382 21 is_stmt 0
	li	a1,5
	mv	a0,s11
	.loc 2 3315 15
	sw	zero,48(sp)
	.loc 2 3382 9 is_stmt 1
	.loc 2 3382 21 is_stmt 0
	call	mbedtls_ssl_psk_derive_premaster
.LVL602:
	mv	s0,a0
.LVL603:
	.loc 2 3382 11
	beq	a0,zero,.L233
	.loc 2 3385 13 is_stmt 1
	lui	a4,%hi(.LC117)
	mv	a5,a0
	addi	a4,a4,%lo(.LC117)
	addi	a3,s2,-711
	j	.L356
.LVL604:
.L242:
	.loc 2 3378 13
	lui	a4,%hi(.LC9)
	addi	a4,a4,%lo(.LC9)
	addi	a3,s2,-718
	j	.L360
.LVL605:
.L238:
	.loc 2 3393 5
	.loc 2 3393 7 is_stmt 0
	lw	a5,16(s0)
	bne	a5,s3,.L244
	.loc 2 3395 9 is_stmt 1
.LVL606:
	.loc 2 3396 9
.LBB225:
.LBB223:
	.loc 2 2381 5
	.loc 2 2382 5
	.loc 2 2398 35 is_stmt 0
	lw	a5,0(s11)
	.loc 2 2383 27
	lw	s0,48(s11)
.LVL607:
	.loc 2 2382 48
	lw	s5,12(s11)
	.loc 2 2400 41
	lw	a2,160(a5)
	.loc 2 2398 5
	lbu	a1,157(a5)
	lbu	a0,156(a5)
	.loc 2 2383 24
	addi	s3,s0,884
	.loc 2 2400 41
	srli	a2,a2,1
	.loc 2 2398 5
	mv	a3,s3
	andi	a2,a2,1
	call	mbedtls_ssl_write_version
.LVL608:
	.loc 2 2402 20
	lw	a5,0(s11)
	.loc 2 2402 17
	addi	a1,s0,886
	.loc 2 2382 48
	snez	s5,s5
	.loc 2 2402 17
	lw	a4,24(a5)
	lw	a0,28(a5)
	li	a2,46
	.loc 2 2382 48
	slli	s5,s5,1
.LVL609:
	.loc 2 2383 5 is_stmt 1
	.loc 2 2385 5
	.loc 2 2402 17 is_stmt 0
	jalr	a4
.LVL610:
	.loc 2 2385 16
	addi	s6,s5,4
	.loc 2 2398 5 is_stmt 1
	.loc 2 2402 5
	.loc 2 2402 17 is_stmt 0
	mv	s0,a0
.LVL611:
	.loc 2 2402 7
	beq	a0,zero,.L246
	.loc 2 2404 9 is_stmt 1
	lui	a4,%hi(.LC118)
	mv	a5,a0
	addi	a4,a4,%lo(.LC118)
	addi	a3,s2,-1692
	j	.L356
.L246:
	.loc 2 2408 5
	.loc 2 2408 8 is_stmt 0
	lw	a5,48(s11)
	.loc 2 2408 28
	li	a4,48
	sw	a4,816(a5)
	.loc 2 2410 5 is_stmt 1
	.loc 2 2410 31 is_stmt 0
	lw	a5,44(s11)
	lw	a0,92(a5)
	.loc 2 2410 7
	bne	a0,zero,.L247
	.loc 2 2412 9 is_stmt 1
	lui	a4,%hi(.LC73)
	addi	a4,a4,%lo(.LC73)
	addi	a3,s2,-1684
	addi	a2,s1,%lo(.LC1)
	li	a1,2
	j	.L376
.L247:
	.loc 2 2419 5
	.loc 2 2419 11 is_stmt 0
	li	a1,1
	addi	a0,a0,188
	call	mbedtls_pk_can_do
.LVL612:
	.loc 2 2419 7
	bne	a0,zero,.L248
	.loc 2 2422 9 is_stmt 1
	lui	a4,%hi(.LC119)
	mv	a0,s11
	addi	a4,a4,%lo(.LC119)
	addi	a3,s2,-1674
	addi	a2,s1,%lo(.LC1)
	li	a1,1
	call	mbedtls_debug_print_msg
.LVL613:
	.loc 2 2423 9
	.loc 2 2423 15 is_stmt 0
	li	a0,-28672
	addi	s0,a0,768
	j	.L79
.LVL614:
.L248:
	.loc 2 2426 5 is_stmt 1
	.loc 2 2426 60 is_stmt 0
	lw	a4,44(s11)
	.loc 2 2430 32
	lw	a5,0(s11)
	.loc 2 2426 17
	lw	a2,48(s11)
	lw	a0,92(a4)
	lw	a3,152(s11)
	lw	a7,28(a5)
	lw	a6,24(a5)
	lw	a2,816(a2)
	li	a5,16384
	sub	a5,a5,s6
	addi	a4,sp,48
.LVL615:
	add	a3,a3,s6
	mv	a1,s3
	addi	a0,a0,188
	call	mbedtls_pk_encrypt
.LVL616:
	mv	s0,a0
.LVL617:
	.loc 2 2426 7
	beq	a0,zero,.L249
	.loc 2 2432 9 is_stmt 1
	lui	a4,%hi(.LC120)
	mv	a5,a0
	addi	a4,a4,%lo(.LC120)
	addi	a3,s2,-1664
	j	.L356
.L249:
	.loc 2 2438 5
.LBE223:
.LBE225:
	.loc 2 3395 11 is_stmt 0
	li	s3,4
.LVL618:
.LBB226:
.LBB224:
	.loc 2 2438 7
	bne	s5,s4,.L233
	.loc 2 2440 51
	lw	a5,48(sp)
	.loc 2 2440 9
	lw	a4,152(s11)
	.loc 2 2440 9 is_stmt 1
	.loc 2 2440 57 is_stmt 0
	srli	a3,a5,8
	.loc 2 2440 34
	sb	a3,4(a4)
	.loc 2 2441 9 is_stmt 1
	.loc 2 2441 12 is_stmt 0
	lw	a4,152(s11)
	.loc 2 2441 34
	sb	a5,5(a4)
	.loc 2 2442 9 is_stmt 1
	.loc 2 2442 15 is_stmt 0
	addi	a5,a5,2
	sw	a5,48(sp)
.LVL619:
	j	.L233
.LVL620:
.L244:
.LBE224:
.LBE226:
	.loc 2 3427 9 is_stmt 1
	.loc 2 3428 9
	lui	a4,%hi(.LC9)
	addi	a4,a4,%lo(.LC9)
	addi	a3,s2,-668
	j	.L360
.LVL621:
.L250:
	.loc 2 3444 5
	lui	a4,%hi(.LC121)
	li	a3,4096
	addi	a4,a4,%lo(.LC121)
	addi	a3,a3,-652
	j	.L358
.LVL622:
.L91:
.LBE229:
.LBE366:
	.loc 2 3865 12
.LBB367:
.LBB325:
	.loc 2 3486 5
	.loc 2 3487 5
	.loc 2 3487 38 is_stmt 0
	lw	a5,64(s11)
	.loc 2 3496 5
	lui	a4,%hi(.LC122)
	li	s2,4096
	addi	a4,a4,%lo(.LC122)
	addi	a3,s2,-600
	addi	a2,s1,%lo(.LC1)
	li	a1,2
	mv	a0,s11
	.loc 2 3487 38
	lw	s3,0(a5)
.LVL623:
	.loc 2 3489 5 is_stmt 1
	.loc 2 3489 12 is_stmt 0
	sw	zero,44(sp)
.LVL624:
	.loc 2 3490 5 is_stmt 1
	.loc 2 3491 5
	.loc 2 3492 5
	.loc 2 3493 5
	.loc 2 3494 5
	.loc 2 3496 5
	call	mbedtls_debug_print_msg
.LVL625:
	.loc 2 3506 5
	.loc 2 3506 17 is_stmt 0
	mv	a0,s11
	call	mbedtls_ssl_derive_keys
.LVL626:
	mv	s0,a0
.LVL627:
	.loc 2 3506 7
	beq	a0,zero,.L251
	.loc 2 3508 9 is_stmt 1
	lui	a4,%hi(.LC50)
	mv	a5,a0
	addi	a4,a4,%lo(.LC50)
	addi	a3,s2,-588
	j	.L356
.L251:
	.loc 2 3512 5
	.loc 2 3512 25 is_stmt 0
	lw	a5,16(s3)
	.loc 2 3512 7
	li	a4,3
	addi	a3,a5,-5
	bleu	a3,a4,.L253
	.loc 2 3515 72
	li	a4,11
	bne	a5,a4,.L254
.L253:
	.loc 2 3518 9 is_stmt 1
	lui	a4,%hi(.LC123)
	li	a3,4096
	addi	a4,a4,%lo(.LC123)
	addi	a3,a3,-578
	j	.L377
.L254:
	.loc 2 3523 5
	.loc 2 3523 7 is_stmt 0
	lw	a5,176(s11)
	beq	a5,zero,.L255
.LVL628:
.LBB321:
.LBB322:
	.loc 1 760 5 is_stmt 1
	.loc 1 762 5
	.loc 1 762 12 is_stmt 0
	lw	s2,48(s11)
	.loc 1 762 7
	beq	s2,zero,.L256
	.loc 1 762 48
	lw	a5,452(s2)
	.loc 1 762 31
	bne	a5,zero,.L257
.L256:
	.loc 1 765 9 is_stmt 1
	.loc 1 765 18 is_stmt 0
	lw	a5,0(s11)
	lw	a5,84(a5)
.LVL629:
	.loc 1 767 5 is_stmt 1
	.loc 1 767 36 is_stmt 0
	beq	a5,zero,.L255
.LVL630:
.L257:
.LBE322:
.LBE321:
	.loc 2 3523 31
	lw	a5,0(a5)
	bne	a5,zero,.L258
.L255:
	.loc 2 3525 9 is_stmt 1
	lui	a4,%hi(.LC123)
	li	a3,4096
	addi	a4,a4,%lo(.LC123)
	addi	a3,a3,-571
	j	.L377
.L258:
	.loc 2 3530 5
	.loc 2 3530 9 is_stmt 0
	mv	a0,s11
	call	mbedtls_ssl_own_key
.LVL631:
	.loc 2 3530 7
	bne	a0,zero,.L259
	.loc 2 3532 9 is_stmt 1
	lui	a4,%hi(.LC124)
	li	a3,4096
	addi	a4,a4,%lo(.LC124)
	addi	a3,a3,-564
	j	.L364
.L259:
	.loc 2 3546 5
	lw	a5,804(s2)
	addi	a1,sp,48
.LVL632:
	mv	a0,s11
	jalr	a5
.LVL633:
	.loc 2 3581 5
	.loc 2 3581 7 is_stmt 0
	lw	a4,12(s11)
	li	a5,3
	bne	a4,a5,.L260
	.loc 2 3599 9 is_stmt 1
	.loc 2 3599 37 is_stmt 0
	lw	a5,64(s11)
	.loc 2 3599 11
	li	a4,7
	.loc 2 3599 55
	lw	a5,0(a5)
	lw	a1,12(a5)
	.loc 2 3603 16
	lw	a5,152(s11)
	.loc 2 3599 11
	bne	a1,a4,.L261
	.loc 2 3602 13 is_stmt 1
.LVL634:
	.loc 2 3603 13
	.loc 2 3603 29 is_stmt 0
	li	a4,5
	sb	a4,4(a5)
.LVL635:
.L262:
	.loc 2 3610 27
	mv	a0,s11
	sw	a1,28(sp)
.LVL636:
	.loc 2 3610 9 is_stmt 1
	.loc 2 3610 27 is_stmt 0
	call	mbedtls_ssl_own_key
.LVL637:
	.loc 2 3610 12
	lw	s0,152(s11)
.LVL638:
	.loc 2 3610 27
	call	mbedtls_ssl_sig_from_pk
.LVL639:
	.loc 2 3610 25
	sb	a0,5(s0)
	.loc 2 3613 9 is_stmt 1
.LVL640:
	.loc 2 3614 9
	.loc 2 3628 5
	.loc 2 3628 17 is_stmt 0
	mv	a0,s11
	call	mbedtls_ssl_own_key
.LVL641:
	.loc 2 3631 29
	lw	a5,0(s11)
	.loc 2 3628 17
	lw	a4,152(s11)
	lw	a1,28(sp)
	lw	a7,28(a5)
	lw	a6,24(a5)
	addi	a4,a4,8
	sw	zero,0(sp)
	addi	a5,sp,44
	li	a3,0
	addi	a2,sp,48
.LVL642:
	call	mbedtls_pk_sign_restartable
.LVL643:
	mv	s0,a0
.LVL644:
	.loc 2 3628 7
	beq	a0,zero,.L347
	.loc 2 3633 9 is_stmt 1
	lui	a4,%hi(.LC125)
	li	a3,4096
	mv	a5,a0
	addi	a4,a4,%lo(.LC125)
	addi	a3,a3,-463
	j	.L356
.LVL645:
.L261:
	.loc 2 3607 13
	.loc 2 3608 13
	.loc 2 3608 29 is_stmt 0
	li	a4,4
	sb	a4,4(a5)
	.loc 2 3607 20
	li	a1,6
	j	.L262
.LVL646:
.L260:
	.loc 2 3619 9 is_stmt 1
	lui	a4,%hi(.LC9)
	li	a3,4096
	addi	a4,a4,%lo(.LC9)
	addi	a3,a3,-477
	j	.L360
.LVL647:
.L347:
	.loc 2 3641 5
	.loc 2 3641 51 is_stmt 0
	lw	a4,44(sp)
	.loc 2 3641 8
	addi	a5,s11,128
	lw	a3,24(a5)
	.loc 2 3641 51
	srli	a2,a4,8
	.loc 2 3650 17
	mv	a0,s11
	.loc 2 3641 32
	sb	a2,6(a3)
	.loc 2 3642 5 is_stmt 1
	.loc 2 3642 8 is_stmt 0
	lw	a3,24(a5)
	.loc 2 3642 32
	sb	a4,7(a3)
	.loc 2 3644 5 is_stmt 1
	.loc 2 3644 29 is_stmt 0
	addi	a4,a4,8
	.loc 2 3644 21
	sw	a4,32(a5)
	.loc 2 3645 5 is_stmt 1
	.loc 2 3645 22 is_stmt 0
	li	a4,22
	sw	a4,28(a5)
	.loc 2 3646 5 is_stmt 1
	.loc 2 3646 8 is_stmt 0
	lw	a5,24(a5)
	.loc 2 3646 21
	li	a4,15
	sb	a4,0(a5)
	.loc 2 3648 5 is_stmt 1
	.loc 2 3648 15 is_stmt 0
	lw	a5,4(s11)
	addi	a5,a5,1
	sw	a5,4(s11)
	.loc 2 3650 5 is_stmt 1
	.loc 2 3650 17 is_stmt 0
	call	mbedtls_ssl_write_handshake_msg
.LVL648:
	mv	s0,a0
.LVL649:
	.loc 2 3650 7
	beq	a0,zero,.L265
	.loc 2 3652 9 is_stmt 1
	lui	a4,%hi(.LC37)
	li	a3,4096
	mv	a5,a0
	addi	a4,a4,%lo(.LC37)
	addi	a3,a3,-444
	j	.L356
.L265:
	.loc 2 3656 5
	lui	a4,%hi(.LC126)
	li	a3,4096
	addi	a4,a4,%lo(.LC126)
	addi	a3,a3,-440
	j	.L358
.LVL650:
.L90:
.LBE325:
.LBE367:
	.loc 2 3869 12
	.loc 2 3910 1 is_stmt 0
	lw	s0,168(sp)
	.cfi_remember_state
	.cfi_restore 8
.LVL651:
	lw	ra,172(sp)
	.cfi_restore 1
	lw	s1,164(sp)
	.cfi_restore 9
	lw	s2,160(sp)
	.cfi_restore 18
	lw	s3,156(sp)
	.cfi_restore 19
	lw	s4,152(sp)
	.cfi_restore 20
	lw	s5,148(sp)
	.cfi_restore 21
	lw	s6,144(sp)
	.cfi_restore 22
	lw	s7,140(sp)
	.cfi_restore 23
	lw	s8,136(sp)
	.cfi_restore 24
	lw	s9,132(sp)
	.cfi_restore 25
	lw	s10,128(sp)
	.cfi_restore 26
	.loc 2 3869 18
	mv	a0,s11
.LVL652:
	.loc 2 3910 1
	lw	s11,124(sp)
	.cfi_restore 27
.LVL653:
	addi	sp,sp,176
	.cfi_def_cfa_offset 0
	.loc 2 3869 18
	tail	mbedtls_ssl_write_change_cipher_spec
.LVL654:
.L89:
	.cfi_restore_state
	.loc 2 3873 12 is_stmt 1
	.loc 2 3910 1 is_stmt 0
	lw	s0,168(sp)
	.cfi_remember_state
	.cfi_restore 8
.LVL655:
	lw	ra,172(sp)
	.cfi_restore 1
	lw	s1,164(sp)
	.cfi_restore 9
	lw	s2,160(sp)
	.cfi_restore 18
	lw	s3,156(sp)
	.cfi_restore 19
	lw	s4,152(sp)
	.cfi_restore 20
	lw	s5,148(sp)
	.cfi_restore 21
	lw	s6,144(sp)
	.cfi_restore 22
	lw	s7,140(sp)
	.cfi_restore 23
	lw	s8,136(sp)
	.cfi_restore 24
	lw	s9,132(sp)
	.cfi_restore 25
	lw	s10,128(sp)
	.cfi_restore 26
	.loc 2 3873 18
	mv	a0,s11
.LVL656:
	.loc 2 3910 1
	lw	s11,124(sp)
	.cfi_restore 27
.LVL657:
	addi	sp,sp,176
	.cfi_def_cfa_offset 0
	.loc 2 3873 18
	tail	mbedtls_ssl_write_finished
.LVL658:
.L83:
	.cfi_restore_state
	.loc 2 3883 12 is_stmt 1
.LBB368:
.LBB235:
	.loc 2 3670 5
	.loc 2 3671 5
	.loc 2 3672 5
	.loc 2 3673 5
	.loc 2 3674 5
	.loc 2 3676 5
	lui	a4,%hi(.LC127)
	li	s3,4096
	addi	a4,a4,%lo(.LC127)
	addi	a3,s3,-420
	addi	a2,s1,%lo(.LC1)
	li	a1,2
	mv	a0,s11
	call	mbedtls_debug_print_msg
.LVL659:
	.loc 2 3678 5
	.loc 2 3678 17 is_stmt 0
	li	a1,1
	mv	a0,s11
	call	mbedtls_ssl_read_record
.LVL660:
	mv	s0,a0
.LVL661:
	.loc 2 3678 7
	beq	a0,zero,.L266
	.loc 2 3680 9 is_stmt 1
	lui	a4,%hi(.LC40)
	mv	a5,a0
	addi	a4,a4,%lo(.LC40)
	addi	a3,s3,-416
	j	.L356
.L266:
	.loc 2 3684 5
	.loc 2 3684 7 is_stmt 0
	lw	a4,108(s11)
	li	a5,22
	beq	a4,a5,.L267
	.loc 2 3686 9 is_stmt 1
	lui	a4,%hi(.LC128)
	addi	a4,a4,%lo(.LC128)
	addi	a3,s3,-410
	j	.L361
.L267:
	.loc 2 3704 5
	.loc 2 3704 12 is_stmt 0
	lw	s4,100(s11)
	.loc 2 3704 7
	li	a5,4
	lbu	a4,0(s4)
	bne	a4,a5,.L268
	.loc 2 3705 12
	lw	a3,120(s11)
.LVL662:
.LBE235:
.LBE368:
	.loc 1 807 5 is_stmt 1
	.loc 1 809 5
.LBB369:
.LBB236:
	.loc 2 3704 29 is_stmt 0
	li	a5,9
	bgtu	a3,a5,.L269
.L268:
	.loc 2 3707 9 is_stmt 1
	lui	a4,%hi(.LC128)
	li	a3,4096
	addi	a4,a4,%lo(.LC128)
	addi	a3,a3,-389
.L357:
	.loc 2 3722 9 is_stmt 0
	addi	a2,s1,%lo(.LC1)
	li	a1,1
	mv	a0,s11
	call	mbedtls_debug_print_msg
.LVL663:
	.loc 2 3723 9 is_stmt 1
	li	a2,50
	li	a1,2
	mv	a0,s11
	call	mbedtls_ssl_send_alert_message
.LVL664:
	.loc 2 3725 9
	.loc 2 3725 15 is_stmt 0
	li	a0,-28672
	addi	s0,a0,512
.LVL665:
	j	.L79
.LVL666:
.L269:
	.loc 2 3713 5 is_stmt 1
.LBE236:
.LBE369:
	.loc 1 807 5
	.loc 1 809 5
.LBB370:
.LBB237:
	.loc 2 3715 5
	lbu	a5,9(s4)
	lbu	a4,8(s4)
	.loc 2 3715 33 is_stmt 0
	lbu	s2,4(s4)
	slli	a5,a5,8
	or	a5,a5,a4
	slli	a4,a5,8
	srli	a5,a5,8
	or	a5,a4,a5
	slli	s9,a5,16
	srli	s9,s9,16
	.loc 2 3720 24
	addi	a5,s9,10
	.loc 2 3715 53
	lbu	s6,5(s4)
	.loc 2 3716 21
	lbu	s5,6(s4)
	.loc 2 3716 39
	lbu	s7,7(s4)
.LVL667:
	.loc 2 3718 5 is_stmt 1
	.loc 2 3720 5
.LBE237:
.LBE370:
	.loc 1 807 5
	.loc 1 809 5
.LBB371:
.LBB238:
	.loc 2 3720 7 is_stmt 0
	beq	a3,a5,.L270
	.loc 2 3722 9 is_stmt 1
	lui	a4,%hi(.LC128)
	addi	a4,a4,%lo(.LC128)
	addi	a3,s3,-374
	j	.L357
.L270:
	.loc 2 3728 5
	lui	a4,%hi(.LC129)
	mv	a5,s9
	addi	a4,a4,%lo(.LC129)
	addi	a3,s3,-368
	addi	a2,s1,%lo(.LC1)
	li	a1,3
	mv	a0,s11
	call	mbedtls_debug_print_msg
.LVL668:
	.loc 2 3731 5
	.loc 2 3731 8 is_stmt 0
	lw	a5,48(s11)
	.loc 2 3731 40
	sw	zero,1924(a5)
	.loc 2 3732 5 is_stmt 1
	.loc 2 3732 16 is_stmt 0
	li	a5,12
	sw	a5,4(s11)
	.loc 2 3738 5 is_stmt 1
	.loc 2 3738 7 is_stmt 0
	beq	s9,zero,.L79
	.loc 2 3741 5 is_stmt 1
	.loc 2 3741 34 is_stmt 0
	lw	a5,44(s11)
	.loc 2 3741 5
	lw	a1,104(a5)
	lw	a0,100(a5)
	call	mbedtls_platform_zeroize
.LVL669:
	.loc 2 3743 5 is_stmt 1
	.loc 2 3743 41 is_stmt 0
	lw	a5,44(s11)
	.loc 2 3743 5
	lw	a0,100(a5)
	call	mbedtls_free
.LVL670:
	.loc 2 3744 5 is_stmt 1
	.loc 2 3744 8 is_stmt 0
	lw	a5,44(s11)
	.loc 2 3747 20
	mv	a1,s9
	li	a0,1
	.loc 2 3744 36
	sw	zero,100(a5)
	.loc 2 3745 5 is_stmt 1
	.loc 2 3745 8 is_stmt 0
	lw	a5,44(s11)
	.loc 2 3745 40
	sw	zero,104(a5)
	.loc 2 3747 5 is_stmt 1
	.loc 2 3747 20 is_stmt 0
	call	mbedtls_calloc
.LVL671:
	mv	s8,a0
.LVL672:
	.loc 2 3747 7
	bne	a0,zero,.L271
	.loc 2 3749 9 is_stmt 1
	lui	a4,%hi(.LC130)
	addi	a4,a4,%lo(.LC130)
	addi	a3,s3,-347
	addi	a2,s1,%lo(.LC1)
	li	a1,1
	mv	a0,s11
.LVL673:
	call	mbedtls_debug_print_msg
.LVL674:
	.loc 2 3750 9
	li	a2,80
	li	a1,2
	mv	a0,s11
	call	mbedtls_ssl_send_alert_message
.LVL675:
	.loc 2 3752 9
	.loc 2 3752 15 is_stmt 0
	li	a0,-32768
	addi	s0,a0,256
.LVL676:
	j	.L79
.LVL677:
.L271:
	.loc 2 3755 5 is_stmt 1
	mv	a2,s9
	addi	a1,s4,10
	call	memcpy
.LVL678:
	.loc 2 3757 5
	.loc 2 3757 8 is_stmt 0
	lw	a5,44(s11)
	.loc 2 3715 57
	slli	s6,s6,16
.LVL679:
	.loc 2 3716 25
	slli	s5,s5,8
	.loc 2 3757 36
	sw	s8,100(a5)
	.loc 2 3758 5 is_stmt 1
	.loc 2 3758 8 is_stmt 0
	lw	a5,44(s11)
	.loc 2 3766 5
	addi	a3,s3,-330
	addi	a2,s1,%lo(.LC1)
	.loc 2 3758 40
	sw	s9,104(a5)
	.loc 2 3759 5 is_stmt 1
	.loc 2 3715 38 is_stmt 0
	slli	a5,s2,24
	.loc 2 3759 8
	lw	a4,44(s11)
	.loc 2 3715 14
	or	a5,a5,s7
	or	a5,a5,s6
	or	a5,a5,s5
	.loc 2 3759 45
	sw	a5,108(a4)
	.loc 2 3766 5 is_stmt 1
	lui	a4,%hi(.LC131)
	addi	a4,a4,%lo(.LC131)
	li	a1,3
	mv	a0,s11
	call	mbedtls_debug_print_msg
.LVL680:
	.loc 2 3767 5
	.loc 2 3767 8 is_stmt 0
	lw	a5,44(s11)
	.loc 2 3769 5
	lui	a4,%hi(.LC132)
	addi	a4,a4,%lo(.LC132)
	.loc 2 3767 36
	sw	zero,8(a5)
	.loc 2 3769 5 is_stmt 1
	addi	a3,s3,-327
	j	.L358
.LVL681:
.L88:
.LBE238:
.LBE371:
	.loc 2 3888 12
	.loc 2 3910 1 is_stmt 0
	lw	s0,168(sp)
	.cfi_remember_state
	.cfi_restore 8
.LVL682:
	lw	ra,172(sp)
	.cfi_restore 1
	lw	s1,164(sp)
	.cfi_restore 9
	lw	s2,160(sp)
	.cfi_restore 18
	lw	s3,156(sp)
	.cfi_restore 19
	lw	s4,152(sp)
	.cfi_restore 20
	lw	s5,148(sp)
	.cfi_restore 21
	lw	s6,144(sp)
	.cfi_restore 22
	lw	s7,140(sp)
	.cfi_restore 23
	lw	s8,136(sp)
	.cfi_restore 24
	lw	s9,132(sp)
	.cfi_restore 25
	lw	s10,128(sp)
	.cfi_restore 26
	.loc 2 3888 18
	mv	a0,s11
.LVL683:
	.loc 2 3910 1
	lw	s11,124(sp)
	.cfi_restore 27
.LVL684:
	addi	sp,sp,176
	.cfi_def_cfa_offset 0
	.loc 2 3888 18
	tail	mbedtls_ssl_parse_change_cipher_spec
.LVL685:
.L87:
	.cfi_restore_state
	.loc 2 3892 12 is_stmt 1
	.loc 2 3910 1 is_stmt 0
	lw	s0,168(sp)
	.cfi_remember_state
	.cfi_restore 8
.LVL686:
	lw	ra,172(sp)
	.cfi_restore 1
	lw	s1,164(sp)
	.cfi_restore 9
	lw	s2,160(sp)
	.cfi_restore 18
	lw	s3,156(sp)
	.cfi_restore 19
	lw	s4,152(sp)
	.cfi_restore 20
	lw	s5,148(sp)
	.cfi_restore 21
	lw	s6,144(sp)
	.cfi_restore 22
	lw	s7,140(sp)
	.cfi_restore 23
	lw	s8,136(sp)
	.cfi_restore 24
	lw	s9,132(sp)
	.cfi_restore 25
	lw	s10,128(sp)
	.cfi_restore 26
	.loc 2 3892 18
	mv	a0,s11
.LVL687:
	.loc 2 3910 1
	lw	s11,124(sp)
	.cfi_restore 27
.LVL688:
	addi	sp,sp,176
	.cfi_def_cfa_offset 0
	.loc 2 3892 18
	tail	mbedtls_ssl_parse_finished
.LVL689:
.L86:
	.cfi_restore_state
	.loc 2 3896 12 is_stmt 1
	lui	a4,%hi(.LC133)
	li	a3,4096
	addi	a4,a4,%lo(.LC133)
	addi	a3,a3,-200
	addi	a2,s1,%lo(.LC1)
	li	a1,2
	mv	a0,s11
	call	mbedtls_debug_print_msg
.LVL690:
	.loc 2 3897 12
	.loc 2 3897 23 is_stmt 0
	li	a5,15
	j	.L359
.L85:
	.loc 2 3901 12 is_stmt 1
	mv	a0,s11
	call	mbedtls_ssl_handshake_wrapup
.LVL691:
	.loc 2 3902 12
	j	.L79
.L82:
	.loc 2 3905 12
	lui	a4,%hi(.LC134)
	li	a3,4096
	addi	a4,a4,%lo(.LC134)
	addi	a3,a3,-191
	addi	a2,s1,%lo(.LC1)
	li	a1,1
	mv	a0,s11
	call	mbedtls_debug_print_msg
.LVL692:
	.loc 2 3906 12
	j	.L273
.LVL693:
.L104:
.LBB372:
.LBB216:
	.loc 2 865 9
	lui	a4,%hi(.LC135)
	mv	a5,s8
	addi	a4,a4,%lo(.LC135)
	li	a3,865
	addi	a2,s1,%lo(.LC1)
	li	a1,1
	mv	a0,s11
.LVL694:
	call	mbedtls_debug_print_ret
.LVL695:
	.loc 2 866 9
	.loc 2 866 15 is_stmt 0
	mv	s0,s8
	j	.L79
.LBE216:
.LBE372:
	.cfi_endproc
.LFE57:
	.size	mbedtls_ssl_handshake_client_step, .-mbedtls_ssl_handshake_client_step
	.text
.Letext0:
	.file 5 "/mnt/d/GitHub/bl_iot_sdk_for_aithinker/toolchain/riscv/Linux/riscv64-unknown-elf/include/machine/_default_types.h"
	.file 6 "/mnt/d/GitHub/bl_iot_sdk_for_aithinker/toolchain/riscv/Linux/lib/gcc/riscv64-unknown-elf/10.2.0/include/stddef.h"
	.file 7 "/mnt/d/GitHub/bl_iot_sdk_for_aithinker/toolchain/riscv/Linux/riscv64-unknown-elf/include/sys/_stdint.h"
	.file 8 "/mnt/d/GitHub/bl_iot_sdk_for_aithinker/components/security/mbedtls_lts/mbedtls/include/mbedtls/bignum.h"
	.file 9 "/mnt/d/GitHub/bl_iot_sdk_for_aithinker/components/security/mbedtls_lts/mbedtls/include/mbedtls/ecp.h"
	.file 10 "/mnt/d/GitHub/bl_iot_sdk_for_aithinker/components/security/mbedtls_lts/mbedtls/include/mbedtls/md.h"
	.file 11 "/mnt/d/GitHub/bl_iot_sdk_for_aithinker/components/security/mbedtls_lts/mbedtls/include/mbedtls/cipher.h"
	.file 12 "/mnt/d/GitHub/bl_iot_sdk_for_aithinker/components/security/mbedtls_lts/mbedtls/include/mbedtls/asn1.h"
	.file 13 "/mnt/d/GitHub/bl_iot_sdk_for_aithinker/components/security/mbedtls_lts/mbedtls/include/mbedtls/x509.h"
	.file 14 "/mnt/d/GitHub/bl_iot_sdk_for_aithinker/components/security/mbedtls_lts/mbedtls/include/mbedtls/x509_crl.h"
	.file 15 "/mnt/d/GitHub/bl_iot_sdk_for_aithinker/components/security/mbedtls_lts/mbedtls/include/mbedtls/x509_crt.h"
	.file 16 "/mnt/d/GitHub/bl_iot_sdk_for_aithinker/components/security/mbedtls_lts/mbedtls/include/mbedtls/dhm.h"
	.file 17 "/mnt/d/GitHub/bl_iot_sdk_for_aithinker/components/security/mbedtls_lts/mbedtls/include/mbedtls/ecdh.h"
	.file 18 "/mnt/d/GitHub/bl_iot_sdk_for_aithinker/components/security/mbedtls_lts/mbedtls/include/mbedtls/ssl.h"
	.file 19 "/mnt/d/GitHub/bl_iot_sdk_for_aithinker/components/security/mbedtls_lts/mbedtls/include/mbedtls/debug.h"
	.file 20 "/mnt/d/GitHub/bl_iot_sdk_for_aithinker/components/security/mbedtls_lts/mbedtls/include/mbedtls/sha256.h"
	.file 21 "/mnt/d/GitHub/bl_iot_sdk_for_aithinker/components/security/mbedtls_lts/mbedtls/include/mbedtls/sha512.h"
	.file 22 "/mnt/d/GitHub/bl_iot_sdk_for_aithinker/toolchain/riscv/Linux/riscv64-unknown-elf/include/string.h"
	.file 23 "/mnt/d/GitHub/bl_iot_sdk_for_aithinker/components/security/mbedtls_lts/mbedtls/include/mbedtls/platform_util.h"
	.file 24 "/mnt/d/GitHub/bl_iot_sdk_for_aithinker/components/security/mbedtls_lts/mbedtls/include/mbedtls/platform.h"