	.file	"x509_crt.c"
	.option nopic
	.attribute arch, "rv32i2p0_m2p0_f2p0_c2p0"
	.attribute unaligned_access, 0
	.attribute stack_align, 16
	.text
.Ltext0:
	.cfi_sections	.debug_frame
	.section	.text.x509_memcasecmp,"ax",@progbits
	.align	1
	.type	x509_memcasecmp, @function
x509_memcasecmp:
.LFB17:
	.file 1 "/mnt/d/GitHub/bl_iot_sdk_for_aithinker/components/security/mbedtls_lts/mbedtls/library/x509_crt.c"
	.loc 1 259 1
	.cfi_startproc
.LVL0:
	.loc 1 260 5
	.loc 1 261 5
	.loc 1 262 5
	.loc 1 264 5
	.loc 1 264 12 is_stmt 0
	li	a4,0
	.loc 1 271 11
	li	a6,32
	.loc 1 272 48
	li	a7,25
.LVL1:
.L2:
	.loc 1 264 17 is_stmt 1 discriminator 1
	.loc 1 264 5 is_stmt 0 discriminator 1
	bne	a4,a2,.L5
	.loc 1 281 11
	li	a0,0
.LVL2:
	ret
.LVL3:
.L5:
	.loc 1 266 9 is_stmt 1
	.loc 1 266 18 is_stmt 0
	add	a5,a0,a4
	.loc 1 266 26
	add	a3,a1,a4
	.loc 1 266 18
	lbu	a5,0(a5)
	.loc 1 266 26
	lbu	a3,0(a3)
	.loc 1 266 14
	xor	t1,a5,a3
.LVL4:
	.loc 1 268 9 is_stmt 1
	.loc 1 268 11 is_stmt 0
	beq	a5,a3,.L3
	.loc 1 271 9 is_stmt 1
	.loc 1 271 11 is_stmt 0
	bne	t1,a6,.L7
	.loc 1 272 48 discriminator 1
	andi	a5,a5,-33
	addi	a5,a5,-65
	andi	a5,a5,0xff
	bgtu	a5,a7,.L7
.L3:
	.loc 1 264 26 is_stmt 1 discriminator 2
	.loc 1 264 27 is_stmt 0 discriminator 2
	addi	a4,a4,1
.LVL5:
	j	.L2
.L7:
	.loc 1 278 15
	li	a0,-1
.LVL6:
	.loc 1 282 1
	ret
	.cfi_endproc
.LFE17:
	.size	x509_memcasecmp, .-x509_memcasecmp
	.section	.text.x509_name_cmp,"ax",@progbits
	.align	1
	.type	x509_name_cmp, @function
x509_name_cmp:
.LFB20:
	.loc 1 354 1 is_stmt 1
	.cfi_startproc
.LVL7:
	.loc 1 356 5
	.loc 1 354 1 is_stmt 0
	addi	sp,sp,-32
	.cfi_def_cfa_offset 32
	sw	s0,24(sp)
	sw	s1,20(sp)
	sw	s2,16(sp)
	sw	s3,12(sp)
	sw	ra,28(sp)
	.cfi_offset 8, -8
	.cfi_offset 9, -12
	.cfi_offset 18, -16
	.cfi_offset 19, -20
	.cfi_offset 1, -4
	.loc 1 354 1
	mv	s1,a0
	mv	s0,a1
	.loc 1 356 10 is_stmt 1
	.loc 1 358 9
.LBB13:
.LBB14:
	.loc 1 332 7 is_stmt 0
	li	s2,12
	.loc 1 333 26
	li	s3,19
.LVL8:
.L9:
.LBE14:
.LBE13:
	.loc 1 362 9 is_stmt 1
	.loc 1 362 11 is_stmt 0
	lw	a4,0(s1)
	lw	a5,0(s0)
	bne	a4,a5,.L11
	.loc 1 363 33 discriminator 1
	lw	a5,4(s0)
	.loc 1 362 38 discriminator 1
	lw	a2,4(s1)
	bne	a2,a5,.L11
	.loc 1 364 13
	lw	a1,8(s0)
	lw	a0,8(s1)
	call	memcmp
.LVL9:
	.loc 1 363 38
	bne	a0,zero,.L11
	.loc 1 370 9 is_stmt 1
.LVL10:
.LBB18:
.LBB15:
	.loc 1 325 5
	.loc 1 325 7 is_stmt 0
	lw	a4,12(s1)
	lw	a5,12(s0)
	beq	a4,a5,.L12
.L15:
	.loc 1 332 5 is_stmt 1
	.loc 1 332 12 is_stmt 0
	lw	a5,12(s1)
	.loc 1 332 7
	bne	a5,s2,.L24
.L13:
	.loc 1 333 12
	lw	a5,12(s0)
	.loc 1 332 46
	beq	a5,s2,.L17
	.loc 1 333 26
	bne	a5,s3,.L11
.L17:
	.loc 1 334 20
	lw	a5,16(s0)
	.loc 1 333 46
	lw	a2,16(s1)
	bne	a2,a5,.L11
	.loc 1 335 9
	lw	a1,20(s0)
	lw	a0,20(s1)
	call	x509_memcasecmp
.LVL11:
	.loc 1 334 26
	beq	a0,zero,.L18
	j	.L11
.LVL12:
.L19:
.LBE15:
.LBE18:
	.loc 1 358 9 is_stmt 1
	.loc 1 358 22 is_stmt 0
	bne	s0,zero,.L9
.L11:
	.loc 1 359 19
	li	a0,-1
.L8:
	.loc 1 383 1
	lw	ra,28(sp)
	.cfi_remember_state
	.cfi_restore 1
	lw	s0,24(sp)
	.cfi_restore 8
.LVL13:
	lw	s1,20(sp)
	.cfi_restore 9
.LVL14:
	lw	s2,16(sp)
	.cfi_restore 18
	lw	s3,12(sp)
	.cfi_restore 19
	addi	sp,sp,32
	.cfi_def_cfa_offset 0
	jr	ra
.LVL15:
.L12:
	.cfi_restore_state
.LBB19:
.LBB16:
	.loc 1 326 20
	lw	a5,16(s0)
	.loc 1 325 26
	lw	a2,16(s1)
	bne	a2,a5,.L15
	.loc 1 327 9
	lw	a1,20(s0)
	lw	a0,20(s1)
	call	memcmp
.LVL16:
	.loc 1 326 26
	bne	a0,zero,.L15
.L18:
.LVL17:
.LBE16:
.LBE19:
	.loc 1 374 9 is_stmt 1
	.loc 1 374 11 is_stmt 0
	lbu	a4,28(s1)
	lbu	a5,28(s0)
	bne	a4,a5,.L11
	.loc 1 377 9 is_stmt 1
	.loc 1 377 11 is_stmt 0
	lw	s1,24(s1)
.LVL18:
	.loc 1 378 9 is_stmt 1
	.loc 1 378 11 is_stmt 0
	lw	s0,24(s0)
.LVL19:
	.loc 1 356 10 is_stmt 1
	bne	s1,zero,.L19
	.loc 1 356 21 is_stmt 0 discriminator 1
	snez	a0,s0
	neg	a0,a0
	j	.L8
.LVL20:
.L24:
.LBB20:
.LBB17:
	.loc 1 332 26
	beq	a5,s3,.L13
	j	.L11
.LBE17:
.LBE20:
	.cfi_endproc
.LFE20:
	.size	x509_name_cmp, .-x509_name_cmp
	.section	.text.x509_crt_check_cn,"ax",@progbits
	.align	1
	.type	x509_crt_check_cn, @function
x509_crt_check_cn:
.LFB50:
	.loc 1 2439 1 is_stmt 1
	.cfi_startproc
.LVL21:
	.loc 1 2441 5
	.loc 1 2439 1 is_stmt 0
	addi	sp,sp,-16
	.cfi_def_cfa_offset 16
	sw	s0,8(sp)
	sw	s1,4(sp)
	sw	ra,12(sp)
	.cfi_offset 8, -8
	.cfi_offset 9, -12
	.cfi_offset 1, -4
	.loc 1 2441 7
	lw	a5,4(a0)
	.loc 1 2439 1
	mv	s0,a0
	mv	s1,a1
	.loc 1 2441 7
	bne	a5,a2,.L28
	.loc 1 2442 9 discriminator 1
	lw	a1,8(a0)
.LVL22:
	mv	a0,s1
.LVL23:
	call	x509_memcasecmp
.LVL24:
	.loc 1 2441 29 discriminator 1
	beq	a0,zero,.L27
.L28:
	.loc 1 2448 5 is_stmt 1
.LVL25:
.LBB23:
.LBB24:
	.loc 1 289 5
	.loc 1 290 5
	.loc 1 290 33 is_stmt 0
	mv	a0,s1
	call	strlen
.LVL26:
	.loc 1 293 13
	lw	a4,4(s0)
	.loc 1 293 7
	li	a5,2
	.loc 1 290 33
	mv	a2,a0
.LVL27:
	.loc 1 293 5 is_stmt 1
.LBE24:
.LBE23:
	.loc 1 2453 11 is_stmt 0
	li	a0,-1
.LVL28:
.LBB28:
.LBB25:
	.loc 1 293 7
	bleu	a4,a5,.L27
	.loc 1 293 30
	lw	a3,8(s0)
	.loc 1 293 23
	li	a5,42
	lbu	a1,0(a3)
	bne	a1,a5,.L27
	.loc 1 293 44
	lbu	a1,1(a3)
	li	a5,46
	bne	a1,a5,.L27
	.loc 1 296 12
	li	a5,0
	.loc 1 298 11
	li	a0,46
.L30:
.LVL29:
	.loc 1 296 17 is_stmt 1
	.loc 1 296 5 is_stmt 0
	bne	a2,a5,.L32
.LBE25:
.LBE28:
	.loc 1 2453 11
	li	a0,-1
.LVL30:
.L27:
	.loc 1 2454 1
	lw	ra,12(sp)
	.cfi_remember_state
	.cfi_restore 1
	lw	s0,8(sp)
	.cfi_restore 8
.LVL31:
	lw	s1,4(sp)
	.cfi_restore 9
.LVL32:
	addi	sp,sp,16
	.cfi_def_cfa_offset 0
	jr	ra
.LVL33:
.L32:
	.cfi_restore_state
.LBB29:
.LBB26:
	.loc 1 298 9 is_stmt 1
	add	a1,s1,a5
	.loc 1 298 11 is_stmt 0
	lbu	a6,0(a1)
	beq	a6,a0,.L31
	.loc 1 296 29 is_stmt 1
	addi	a5,a5,1
.LVL34:
	j	.L30
.L31:
.LVL35:
	.loc 1 305 5
.LBE26:
.LBE29:
	.loc 1 2453 11 is_stmt 0
	li	a0,-1
.LBB30:
.LBB27:
	.loc 1 305 7
	beq	a5,zero,.L27
	.loc 1 308 5 is_stmt 1
	.loc 1 308 38 is_stmt 0
	addi	a4,a4,-1
	.loc 1 308 16
	sub	a2,a2,a5
.LVL36:
	.loc 1 308 7
	bne	a2,a4,.L27
	.loc 1 309 9
	addi	a0,a3,1
	call	x509_memcasecmp
.LVL37:
	.loc 1 308 42
	snez	a0,a0
	neg	a0,a0
	j	.L27
.LBE27:
.LBE30:
	.cfi_endproc
.LFE50:
	.size	x509_crt_check_cn, .-x509_crt_check_cn
	.section	.text.x509_get_uid,"ax",@progbits
	.align	1
	.type	x509_get_uid, @function
x509_get_uid:
.LFB24:
	.loc 1 474 1 is_stmt 1
	.cfi_startproc
.LVL38:
	.loc 1 475 5
	.loc 1 477 5
	.loc 1 477 9 is_stmt 0
	lw	a5,0(a0)
	.loc 1 477 7
	bne	a5,a1,.L43
	.loc 1 478 15
	li	a0,0
.LVL39:
	.loc 1 495 1
	ret
.LVL40:
.L46:
	.cfi_def_cfa_offset 16
	.cfi_offset 1, -4
	.cfi_offset 8, -8
	.cfi_offset 9, -12
	.loc 1 478 15
	li	a0,0
.LVL41:
.L42:
	.loc 1 495 1
	lw	ra,12(sp)
	.cfi_restore 1
	lw	s0,8(sp)
	.cfi_restore 8
.LVL42:
	lw	s1,4(sp)
	.cfi_restore 9
.LVL43:
	addi	sp,sp,16
	.cfi_def_cfa_offset 0
	jr	ra
.LVL44:
.L43:
	.loc 1 474 1
	addi	sp,sp,-16
	.cfi_def_cfa_offset 16
	sw	s0,8(sp)
	sw	s1,4(sp)
	sw	ra,12(sp)
	.cfi_offset 8, -8
	.cfi_offset 9, -12
	.cfi_offset 1, -4
	.loc 1 480 16
	lbu	a5,0(a5)
	mv	s0,a2
	.loc 1 480 5 is_stmt 1
	.loc 1 482 17 is_stmt 0
	ori	a3,a3,160
.LVL45:
	.loc 1 480 16
	sw	a5,0(a2)
	.loc 1 482 5 is_stmt 1
	.loc 1 482 17 is_stmt 0
	addi	a2,a2,4
.LVL46:
	mv	s1,a0
	call	mbedtls_asn1_get_tag
.LVL47:
	.loc 1 482 7
	beq	a0,zero,.L45
	.loc 1 485 9 is_stmt 1
	.loc 1 485 11 is_stmt 0
	li	a5,-98
	beq	a0,a5,.L46
	.loc 1 488 9 is_stmt 1
	.loc 1 488 25 is_stmt 0
	li	a5,-8192
	addi	a5,a5,-384
	add	a0,a0,a5
.LVL48:
	j	.L42
.LVL49:
.L45:
.LBB33:
.LBB34:
	.loc 1 491 5 is_stmt 1
	.loc 1 491 14 is_stmt 0
	lw	a5,0(s1)
	.loc 1 492 8
	lw	a4,4(s0)
	.loc 1 491 12
	sw	a5,8(s0)
	.loc 1 492 5 is_stmt 1
	.loc 1 492 8 is_stmt 0
	add	a5,a5,a4
	sw	a5,0(s1)
	.loc 1 494 5 is_stmt 1
.LVL50:
	j	.L42
.LBE34:
.LBE33:
	.cfi_endproc
.LFE24:
	.size	x509_get_uid, .-x509_get_uid
	.section	.text.x509_profile_check_key,"ax",@progbits
	.align	1
	.type	x509_profile_check_key, @function
x509_profile_check_key:
.LFB16:
	.loc 1 222 1
	.cfi_startproc
.LVL51:
	.loc 1 223 5
	.loc 1 222 1 is_stmt 0
	addi	sp,sp,-16
	.cfi_def_cfa_offset 16
	sw	s1,4(sp)
	.cfi_offset 9, -12
	mv	s1,a0
	.loc 1 223 38
	mv	a0,a1
.LVL52:
	.loc 1 222 1
	sw	s0,8(sp)
	sw	ra,12(sp)
	.cfi_offset 8, -8
	.cfi_offset 1, -4
	.loc 1 222 1
	mv	s0,a1
	.loc 1 223 38
	call	mbedtls_pk_get_type
.LVL53:
	.loc 1 226 5 is_stmt 1
	.loc 1 226 7 is_stmt 0
	li	a5,1
	beq	a0,a5,.L51
	.loc 1 226 34 discriminator 1
	li	a4,6
	bne	a0,a4,.L52
.L51:
	.loc 1 228 9 is_stmt 1
	.loc 1 228 13 is_stmt 0
	mv	a0,s0
.LVL54:
	call	mbedtls_pk_get_bitlen
.LVL55:
	.loc 1 228 11
	lw	a5,12(s1)
	sltu	a0,a0,a5
.L57:
.LBB40:
.LBB41:
.LBB42:
	.loc 1 245 11
	neg	a0,a0
.L50:
.LBE42:
.LBE41:
.LBE40:
	.loc 1 253 1
	lw	ra,12(sp)
	.cfi_remember_state
	.cfi_restore 1
	lw	s0,8(sp)
	.cfi_restore 8
.LVL56:
	lw	s1,4(sp)
	.cfi_restore 9
.LVL57:
	addi	sp,sp,16
	.cfi_def_cfa_offset 0
	jr	ra
.LVL58:
.L52:
	.cfi_restore_state
	.loc 1 236 5 is_stmt 1 discriminator 1
	.loc 1 236 36 is_stmt 0 discriminator 1
	addi	a4,a0,-2
	li	a3,2
	.loc 1 252 11 discriminator 1
	li	a0,-1
.LVL59:
	.loc 1 236 36 discriminator 1
	bgtu	a4,a3,.L50
.LVL60:
.LBB47:
.LBB45:
.LBB43:
	.loc 1 240 9 is_stmt 1
.LBE43:
.LBE45:
.LBE47:
	.file 2 "/mnt/d/GitHub/bl_iot_sdk_for_aithinker/components/security/mbedtls_lts/mbedtls/include/mbedtls/pk.h"
	.loc 2 197 5
.LBB48:
.LBB46:
.LBB44:
	.loc 1 240 36 is_stmt 0
	lw	a4,4(s0)
.LVL61:
	lw	a4,0(a4)
.LVL62:
	.loc 1 242 9 is_stmt 1
	.loc 1 242 11 is_stmt 0
	beq	a4,zero,.L50
	.loc 1 245 9 is_stmt 1
	.loc 1 245 56 is_stmt 0
	addi	a0,a4,-1
	.loc 1 245 45
	sll	a5,a5,a0
	.loc 1 245 39
	lw	a0,8(s1)
	and	a0,a5,a0
	.loc 1 245 11
	seqz	a0,a0
	j	.L57
.LBE44:
.LBE46:
.LBE48:
	.cfi_endproc
.LFE16:
	.size	x509_profile_check_key, .-x509_profile_check_key
	.section	.rodata.mbedtls_x509_crt_info.str1.4,"aMS",@progbits,1
	.align	2
.LC0:
	.string	"true"
	.align	2
.LC1:
	.string	"false"
	.align	2
.LC2:
	.string	""
	.align	2
.LC3:
	.string	", "
	.align	2
.LC4:
	.string	"\nCertificate is uninitialised!\n"
	.align	2
.LC5:
	.string	"%scert. version     : %d\n"
	.align	2
.LC6:
	.string	"%sserial number     : "
	.align	2
.LC7:
	.string	"\n%sissuer name       : "
	.align	2
.LC8:
	.string	"\n%ssubject name      : "
	.align	2
.LC9:
	.string	"\n%sissued  on        : %04d-%02d-%02d %02d:%02d:%02d"
	.align	2
.LC10:
	.string	"\n%sexpires on        : %04d-%02d-%02d %02d:%02d:%02d"
	.align	2
.LC11:
	.string	"\n%ssigned using      : "
	.align	2
.LC12:
	.string	"\n%s%-18s: %d bits"
	.align	2
.LC13:
	.string	"\n%sbasic constraints : CA=%s"
	.align	2
.LC14:
	.string	", max_pathlen=%d"
	.align	2
.LC15:
	.string	"\n%ssubject alt name  : "
	.align	2
.LC16:
	.string	"\n%scert. type        : "
	.align	2
.LC17:
	.string	"%sSSL Client"
	.align	2
.LC18:
	.string	"%sSSL Server"
	.align	2
.LC19:
	.string	"%sEmail"
	.align	2
.LC20:
	.string	"%sObject Signing"
	.align	2
.LC21:
	.string	"%sReserved"
	.align	2
.LC22:
	.string	"%sSSL CA"
	.align	2
.LC23:
	.string	"%sEmail CA"
	.align	2
.LC24:
	.string	"%sObject Signing CA"
	.align	2
.LC25:
	.string	"\n%skey usage         : "
	.align	2
.LC26:
	.string	"%sDigital Signature"
	.align	2
.LC27:
	.string	"%sNon Repudiation"
	.align	2
.LC28:
	.string	"%sKey Encipherment"
	.align	2
.LC29:
	.string	"%sData Encipherment"
	.align	2
.LC30:
	.string	"%sKey Agreement"
	.align	2
.LC31:
	.string	"%sKey Cert Sign"
	.align	2
.LC32:
	.string	"%sCRL Sign"
	.align	2
.LC33:
	.string	"%sEncipher Only"
	.align	2
.LC34:
	.string	"%sDecipher Only"
	.align	2
.LC35:
	.string	"\n%sext key usage     : "
	.align	2
.LC36:
	.string	"???"
	.align	2
.LC37:
	.string	"%s%s"
	.align	2
.LC38:
	.string	"\n"
	.section	.text.mbedtls_x509_crt_info,"ax",@progbits
	.align	1
	.globl	mbedtls_x509_crt_info
	.type	mbedtls_x509_crt_info, @function
mbedtls_x509_crt_info:
.LFB40:
	.loc 1 1563 1 is_stmt 1
	.cfi_startproc
.LVL63:
	.loc 1 1564 5
	.loc 1 1565 5
	.loc 1 1566 5
	.loc 1 1567 5
	.loc 1 1569 5
	.loc 1 1570 5
	.loc 1 1572 5
	.loc 1 1563 1 is_stmt 0
	addi	sp,sp,-112
	.cfi_def_cfa_offset 112
	sw	s5,84(sp)
	sw	ra,108(sp)
	sw	s0,104(sp)
	sw	s1,100(sp)
	sw	s2,96(sp)
	sw	s3,92(sp)
	sw	s4,88(sp)
	sw	s6,80(sp)
	sw	s7,76(sp)
	.cfi_offset 21, -28
	.cfi_offset 1, -4
	.cfi_offset 8, -8
	.cfi_offset 9, -12
	.cfi_offset 18, -16
	.cfi_offset 19, -20
	.cfi_offset 20, -24
	.cfi_offset 22, -32
	.cfi_offset 23, -36
	.loc 1 1563 1
	mv	s5,a1
	.loc 1 1572 7
	bne	a3,zero,.L59
	.loc 1 1574 9 is_stmt 1
	.loc 1 1574 15 is_stmt 0
	lui	a2,%hi(.LC4)
.LVL64:
	addi	a2,a2,%lo(.LC4)
	call	snprintf
.LVL65:
	.loc 1 1575 9 is_stmt 1
	.loc 1 1575 14
	.loc 1 1575 16 is_stmt 0
	bge	a0,zero,.L60
.LVL66:
.L91:
.LBB57:
.LBB58:
	li	a0,-12288
	addi	a0,a0,1664
	j	.L58
.LVL67:
.L60:
.LBE58:
.LBE57:
	.loc 1 1575 26 discriminator 2
	bgeu	a0,s5,.L91
.LVL68:
.L58:
	.loc 1 1691 1
	lw	ra,108(sp)
	.cfi_remember_state
	.cfi_restore 1
	lw	s0,104(sp)
	.cfi_restore 8
	lw	s1,100(sp)
	.cfi_restore 9
	lw	s2,96(sp)
	.cfi_restore 18
	lw	s3,92(sp)
	.cfi_restore 19
	lw	s4,88(sp)
	.cfi_restore 20
	lw	s5,84(sp)
	.cfi_restore 21
.LVL69:
	lw	s6,80(sp)
	.cfi_restore 22
	lw	s7,76(sp)
	.cfi_restore 23
	addi	sp,sp,112
	.cfi_def_cfa_offset 0
	jr	ra
.LVL70:
.L59:
	.cfi_restore_state
	.loc 1 1580 11
	lw	a4,24(a3)
	mv	s4,a2
	mv	s3,a3
	.loc 1 1580 5 is_stmt 1
	.loc 1 1580 11 is_stmt 0
	mv	a3,a2
.LVL71:
	lui	a2,%hi(.LC5)
.LVL72:
	addi	a2,a2,%lo(.LC5)
	mv	s1,a0
	call	snprintf
.LVL73:
	.loc 1 1582 5 is_stmt 1
	.loc 1 1582 10
	.loc 1 1582 12 is_stmt 0
	blt	a0,zero,.L91
	.loc 1 1582 22 discriminator 2
	bgeu	a0,s5,.L91
	.loc 1 1582 64 is_stmt 1 discriminator 4
	.loc 1 1582 66 is_stmt 0 discriminator 4
	sub	s0,s5,a0
.LVL74:
	.loc 1 1582 83 is_stmt 1 discriminator 4
	.loc 1 1582 85 is_stmt 0 discriminator 4
	add	s1,s1,a0
.LVL75:
	.loc 1 1582 109 is_stmt 1 discriminator 4
	.loc 1 1583 5 discriminator 4
	.loc 1 1583 11 is_stmt 0 discriminator 4
	lui	a2,%hi(.LC6)
	mv	a3,s4
	addi	a2,a2,%lo(.LC6)
	mv	a1,s0
	mv	a0,s1
.LVL76:
	call	snprintf
.LVL77:
	.loc 1 1585 5 is_stmt 1 discriminator 4
	.loc 1 1585 10 discriminator 4
	.loc 1 1585 12 is_stmt 0 discriminator 4
	blt	a0,zero,.L91
	.loc 1 1585 22 discriminator 2
	bleu	s0,a0,.L91
	.loc 1 1585 64 is_stmt 1 discriminator 4
	.loc 1 1585 66 is_stmt 0 discriminator 4
	sub	s0,s0,a0
.LVL78:
	.loc 1 1585 83 is_stmt 1 discriminator 4
	.loc 1 1585 85 is_stmt 0 discriminator 4
	add	s1,s1,a0
.LVL79:
	.loc 1 1585 109 is_stmt 1 discriminator 4
	.loc 1 1587 5 discriminator 4
	.loc 1 1587 11 is_stmt 0 discriminator 4
	addi	a2,s3,28
	mv	a1,s0
	mv	a0,s1
.LVL80:
	call	mbedtls_x509_serial_gets
.LVL81:
	.loc 1 1588 5 is_stmt 1 discriminator 4
	.loc 1 1588 10 discriminator 4
	.loc 1 1588 12 is_stmt 0 discriminator 4
	blt	a0,zero,.L91
	.loc 1 1588 22 discriminator 2
	bleu	s0,a0,.L91
	.loc 1 1588 64 is_stmt 1 discriminator 4
	.loc 1 1588 66 is_stmt 0 discriminator 4
	sub	s0,s0,a0
.LVL82:
	.loc 1 1588 83 is_stmt 1 discriminator 4
	.loc 1 1588 85 is_stmt 0 discriminator 4
	add	s6,s1,a0
.LVL83:
	.loc 1 1588 109 is_stmt 1 discriminator 4
	.loc 1 1590 5 discriminator 4
	.loc 1 1590 11 is_stmt 0 discriminator 4
	lui	a2,%hi(.LC7)
	mv	a3,s4
	addi	a2,a2,%lo(.LC7)
	mv	a1,s0
	mv	a0,s6
.LVL84:
	call	snprintf
.LVL85:
	.loc 1 1591 5 is_stmt 1 discriminator 4
	.loc 1 1591 10 discriminator 4
	.loc 1 1591 12 is_stmt 0 discriminator 4
	blt	a0,zero,.L91
	.loc 1 1591 22 discriminator 2
	bleu	s0,a0,.L91
	.loc 1 1591 64 is_stmt 1 discriminator 4
	.loc 1 1591 66 is_stmt 0 discriminator 4
	sub	s0,s0,a0
.LVL86:
	.loc 1 1591 83 is_stmt 1 discriminator 4
	.loc 1 1591 85 is_stmt 0 discriminator 4
	add	s6,s6,a0
.LVL87:
	.loc 1 1591 109 is_stmt 1 discriminator 4
	.loc 1 1592 5 discriminator 4
	.loc 1 1592 11 is_stmt 0 discriminator 4
	addi	a2,s3,76
	mv	a1,s0
	mv	a0,s6
.LVL88:
	call	mbedtls_x509_dn_gets
.LVL89:
	.loc 1 1593 5 is_stmt 1 discriminator 4
	.loc 1 1593 10 discriminator 4
	.loc 1 1593 12 is_stmt 0 discriminator 4
	blt	a0,zero,.L91
	.loc 1 1593 22 discriminator 2
	bleu	s0,a0,.L91
	.loc 1 1593 64 is_stmt 1 discriminator 4
	.loc 1 1593 66 is_stmt 0 discriminator 4
	sub	s0,s0,a0
.LVL90:
	.loc 1 1593 83 is_stmt 1 discriminator 4
	.loc 1 1593 85 is_stmt 0 discriminator 4
	add	s7,s6,a0
.LVL91:
	.loc 1 1593 109 is_stmt 1 discriminator 4
	.loc 1 1595 5 discriminator 4
	.loc 1 1595 11 is_stmt 0 discriminator 4
	lui	a2,%hi(.LC8)
	mv	a3,s4
	addi	a2,a2,%lo(.LC8)
	mv	a1,s0
	mv	a0,s7
.LVL92:
	call	snprintf
.LVL93:
	.loc 1 1596 5 is_stmt 1 discriminator 4
	.loc 1 1596 10 discriminator 4
	.loc 1 1596 12 is_stmt 0 discriminator 4
	blt	a0,zero,.L91
	.loc 1 1596 22 discriminator 2
	bleu	s0,a0,.L91
	.loc 1 1596 64 is_stmt 1 discriminator 4
	.loc 1 1596 66 is_stmt 0 discriminator 4
	sub	s0,s0,a0
.LVL94:
	.loc 1 1596 83 is_stmt 1 discriminator 4
	.loc 1 1596 85 is_stmt 0 discriminator 4
	add	s7,s7,a0
.LVL95:
	.loc 1 1596 109 is_stmt 1 discriminator 4
	.loc 1 1597 5 discriminator 4
	.loc 1 1597 11 is_stmt 0 discriminator 4
	addi	a2,s3,108
	mv	a1,s0
	mv	a0,s7
.LVL96:
	call	mbedtls_x509_dn_gets
.LVL97:
	.loc 1 1598 5 is_stmt 1 discriminator 4
	.loc 1 1598 10 discriminator 4
	.loc 1 1598 12 is_stmt 0 discriminator 4
	blt	a0,zero,.L91
	.loc 1 1598 22 discriminator 2
	bleu	s0,a0,.L91
	.loc 1 1598 64 is_stmt 1 discriminator 4
	.loc 1 1600 11 is_stmt 0 discriminator 4
	lw	a5,160(s3)
	.loc 1 1598 66 discriminator 4
	sub	s0,s0,a0
.LVL98:
	.loc 1 1598 83 is_stmt 1 discriminator 4
	.loc 1 1598 85 is_stmt 0 discriminator 4
	add	s2,s7,a0
.LVL99:
	.loc 1 1598 109 is_stmt 1 discriminator 4
	.loc 1 1600 5 discriminator 4
	.loc 1 1600 11 is_stmt 0 discriminator 4
	sw	a5,4(sp)
	lw	a5,156(s3)
	lui	a2,%hi(.LC9)
	mv	a3,s4
	sw	a5,0(sp)
	lw	a7,152(s3)
	lw	a6,148(s3)
	lw	a5,144(s3)
	lw	a4,140(s3)
	addi	a2,a2,%lo(.LC9)
	mv	a1,s0
	mv	a0,s2
.LVL100:
	call	snprintf
.LVL101:
	.loc 1 1605 5 is_stmt 1 discriminator 4
	.loc 1 1605 10 discriminator 4
	.loc 1 1605 12 is_stmt 0 discriminator 4
	blt	a0,zero,.L91
	.loc 1 1605 22 discriminator 2
	bleu	s0,a0,.L91
	.loc 1 1605 64 is_stmt 1 discriminator 4
	.loc 1 1607 11 is_stmt 0 discriminator 4
	lw	a5,184(s3)
	.loc 1 1605 66 discriminator 4
	sub	s0,s0,a0
.LVL102:
	.loc 1 1605 83 is_stmt 1 discriminator 4
	.loc 1 1605 85 is_stmt 0 discriminator 4
	add	s2,s2,a0
.LVL103:
	.loc 1 1605 109 is_stmt 1 discriminator 4
	.loc 1 1607 5 discriminator 4
	.loc 1 1607 11 is_stmt 0 discriminator 4
	sw	a5,4(sp)
	lw	a5,180(s3)
	lui	a2,%hi(.LC10)
	mv	a3,s4
	sw	a5,0(sp)
	lw	a7,176(s3)
	lw	a6,172(s3)
	lw	a5,168(s3)
	lw	a4,164(s3)
	addi	a2,a2,%lo(.LC10)
	mv	a1,s0
	mv	a0,s2
.LVL104:
	call	snprintf
.LVL105:
	.loc 1 1612 5 is_stmt 1 discriminator 4
	.loc 1 1612 10 discriminator 4
	.loc 1 1612 12 is_stmt 0 discriminator 4
	blt	a0,zero,.L91
	.loc 1 1612 22 discriminator 2
	bleu	s0,a0,.L91
	.loc 1 1612 64 is_stmt 1 discriminator 4
	.loc 1 1612 66 is_stmt 0 discriminator 4
	sub	s0,s0,a0
.LVL106:
	.loc 1 1612 83 is_stmt 1 discriminator 4
	.loc 1 1612 85 is_stmt 0 discriminator 4
	add	s2,s2,a0
.LVL107:
	.loc 1 1612 109 is_stmt 1 discriminator 4
	.loc 1 1614 5 discriminator 4
	.loc 1 1614 11 is_stmt 0 discriminator 4
	lui	a2,%hi(.LC11)
	mv	a3,s4
	addi	a2,a2,%lo(.LC11)
	mv	a1,s0
	mv	a0,s2
.LVL108:
	call	snprintf
.LVL109:
	.loc 1 1615 5 is_stmt 1 discriminator 4
	.loc 1 1615 10 discriminator 4
	.loc 1 1615 12 is_stmt 0 discriminator 4
	blt	a0,zero,.L91
	.loc 1 1615 22 discriminator 2
	bleu	s0,a0,.L91
	.loc 1 1615 64 is_stmt 1 discriminator 4
	.loc 1 1617 11 is_stmt 0 discriminator 4
	lw	a5,304(s3)
	lw	a4,296(s3)
	lw	a3,300(s3)
	.loc 1 1615 66 discriminator 4
	sub	s0,s0,a0
.LVL110:
	.loc 1 1615 83 is_stmt 1 discriminator 4
	.loc 1 1615 85 is_stmt 0 discriminator 4
	add	s6,s2,a0
.LVL111:
	.loc 1 1615 109 is_stmt 1 discriminator 4
	.loc 1 1617 5 discriminator 4
	.loc 1 1617 11 is_stmt 0 discriminator 4
	addi	a2,s3,40
	mv	a1,s0
	mv	a0,s6
.LVL112:
	call	mbedtls_x509_sig_alg_gets
.LVL113:
	mv	s1,a0
.LVL114:
	.loc 1 1619 5 is_stmt 1 discriminator 4
	.loc 1 1619 10 discriminator 4
	.loc 1 1619 12 is_stmt 0 discriminator 4
	blt	a0,zero,.L91
	.loc 1 1619 22 discriminator 2
	bleu	s0,a0,.L91
	.loc 1 1619 64 is_stmt 1 discriminator 4
.LVL115:
	.loc 1 1619 83 discriminator 4
	.loc 1 1619 109 discriminator 4
	.loc 1 1622 5 discriminator 4
	.loc 1 1622 17 is_stmt 0 discriminator 4
	addi	s7,s3,188
	mv	a0,s7
	call	mbedtls_pk_get_name
.LVL116:
	mv	a2,a0
	li	a1,18
	addi	a0,sp,44
	call	mbedtls_x509_key_size_helper
.LVL117:
	.loc 1 1622 7 discriminator 4
	bne	a0,zero,.L58
	.loc 1 1629 33
	mv	a0,s7
.LVL118:
	call	mbedtls_pk_get_bitlen
.LVL119:
	.loc 1 1619 66
	sub	s0,s0,s1
.LVL120:
	.loc 1 1628 11
	lui	a2,%hi(.LC12)
	.loc 1 1619 85
	add	s1,s6,s1
.LVL121:
	.loc 1 1628 5 is_stmt 1
	.loc 1 1629 33 is_stmt 0
	mv	a5,a0
	.loc 1 1628 11
	addi	a4,sp,44
	mv	a3,s4
	addi	a2,a2,%lo(.LC12)
	mv	a1,s0
	mv	a0,s1
	call	snprintf
.LVL122:
	.loc 1 1630 5 is_stmt 1
	.loc 1 1630 10
	.loc 1 1630 12 is_stmt 0
	blt	a0,zero,.L91
	.loc 1 1630 22 discriminator 2
	bleu	s0,a0,.L91
	.loc 1 1630 64 is_stmt 1 discriminator 4
	.loc 1 1636 24 is_stmt 0 discriminator 4
	lw	a5,248(s3)
	.loc 1 1630 66 discriminator 4
	sub	s0,s0,a0
.LVL123:
	.loc 1 1630 83 is_stmt 1 discriminator 4
	.loc 1 1630 85 is_stmt 0 discriminator 4
	add	s1,s1,a0
.LVL124:
	.loc 1 1630 109 is_stmt 1 discriminator 4
	.loc 1 1636 5 discriminator 4
	.loc 1 1636 24 is_stmt 0 discriminator 4
	andi	a5,a5,256
	.loc 1 1636 7 discriminator 4
	beq	a5,zero,.L63
	.loc 1 1638 9 is_stmt 1
	.loc 1 1638 15 is_stmt 0
	lw	a5,252(s3)
	bne	a5,zero,.L94
	lui	a4,%hi(.LC1)
	addi	a4,a4,%lo(.LC1)
.L64:
	.loc 1 1638 15 discriminator 4
	lui	a2,%hi(.LC13)
	mv	a3,s4
	addi	a2,a2,%lo(.LC13)
	mv	a1,s0
	mv	a0,s1
.LVL125:
	call	snprintf
.LVL126:
	.loc 1 1640 9 is_stmt 1 discriminator 4
	.loc 1 1640 14 discriminator 4
	.loc 1 1640 16 is_stmt 0 discriminator 4
	blt	a0,zero,.L91
	.loc 1 1640 26 discriminator 2
	bleu	s0,a0,.L91
	.loc 1 1640 68 is_stmt 1 discriminator 4
.LVL127:
	.loc 1 1642 16 is_stmt 0 discriminator 4
	lw	a3,256(s3)
	.loc 1 1640 70 discriminator 4
	sub	s0,s0,a0
.LVL128:
	.loc 1 1640 87 is_stmt 1 discriminator 4
	.loc 1 1640 89 is_stmt 0 discriminator 4
	add	s1,s1,a0
.LVL129:
	.loc 1 1640 113 is_stmt 1 discriminator 4
	.loc 1 1642 9 discriminator 4
	.loc 1 1642 11 is_stmt 0 discriminator 4
	ble	a3,zero,.L63
	.loc 1 1644 13 is_stmt 1
	.loc 1 1644 19 is_stmt 0
	lui	a2,%hi(.LC14)
	addi	a3,a3,-1
	addi	a2,a2,%lo(.LC14)
	mv	a1,s0
	mv	a0,s1
.LVL130:
	call	snprintf
.LVL131:
	.loc 1 1645 13 is_stmt 1
	.loc 1 1645 18
	.loc 1 1645 20 is_stmt 0
	blt	a0,zero,.L91
	.loc 1 1645 30 discriminator 2
	bleu	s0,a0,.L91
	.loc 1 1645 72 is_stmt 1 discriminator 4
.LVL132:
	.loc 1 1645 74 is_stmt 0 discriminator 4
	sub	s0,s0,a0
.LVL133:
	.loc 1 1645 91 is_stmt 1 discriminator 4
	.loc 1 1645 93 is_stmt 0 discriminator 4
	add	s1,s1,a0
.LVL134:
.L63:
	.loc 1 1645 117 is_stmt 1 discriminator 5
	.loc 1 1649 5 discriminator 5
	.loc 1 1649 24 is_stmt 0 discriminator 5
	lw	a5,248(s3)
	andi	a5,a5,32
	.loc 1 1649 7 discriminator 5
	beq	a5,zero,.L65
	.loc 1 1651 9 is_stmt 1
	.loc 1 1651 15 is_stmt 0
	lui	a2,%hi(.LC15)
	mv	a3,s4
	addi	a2,a2,%lo(.LC15)
	mv	a1,s0
	mv	a0,s1
.LVL135:
	call	snprintf
.LVL136:
	.loc 1 1652 9 is_stmt 1
	.loc 1 1652 14
	.loc 1 1652 16 is_stmt 0
	blt	a0,zero,.L91
	.loc 1 1652 26 discriminator 2
	bgeu	a0,s0,.L91
	.loc 1 1652 68 is_stmt 1 discriminator 4
.LVL137:
.LBB61:
.LBB62:
	.loc 1 1434 17 is_stmt 0 discriminator 4
	lui	a3,%hi(.LC2)
	.loc 1 1451 13 discriminator 4
	lui	a2,%hi(.LC3)
.LBE62:
.LBE61:
	.loc 1 1652 70 discriminator 4
	sub	s0,s0,a0
.LVL138:
	.loc 1 1652 87 is_stmt 1 discriminator 4
	.loc 1 1652 89 is_stmt 0 discriminator 4
	add	s1,s1,a0
.LVL139:
	.loc 1 1652 113 is_stmt 1 discriminator 4
	.loc 1 1654 9 discriminator 4
	.loc 1 1654 21 is_stmt 0 discriminator 4
	addi	a5,s3,232
.LVL140:
.LBB66:
.LBB63:
	.loc 1 1430 5 is_stmt 1 discriminator 4
	.loc 1 1431 5 discriminator 4
	.loc 1 1432 5 discriminator 4
	.loc 1 1433 5 discriminator 4
	.loc 1 1434 5 discriminator 4
	.loc 1 1435 5 discriminator 4
	.loc 1 1437 5 discriminator 4
	.loc 1 1437 10 discriminator 4
	.loc 1 1434 17 is_stmt 0 discriminator 4
	addi	a3,a3,%lo(.LC2)
	.loc 1 1435 12 discriminator 4
	li	a1,0
	.loc 1 1451 13 discriminator 4
	addi	a2,a2,%lo(.LC3)
.LVL141:
.L71:
	.loc 1 1439 9 is_stmt 1
	.loc 1 1439 26 is_stmt 0
	lw	a4,4(a5)
	add	a4,a1,a4
	.loc 1 1439 11
	bltu	a4,s0,.L66
	.loc 1 1441 13 is_stmt 1
	.loc 1 1441 16 is_stmt 0
	sb	zero,0(s1)
	.loc 1 1442 13 is_stmt 1
.LVL142:
	j	.L91
.LVL143:
.L94:
.LBE63:
.LBE66:
	.loc 1 1638 15 is_stmt 0
	lui	a4,%hi(.LC0)
	addi	a4,a4,%lo(.LC0)
	j	.L64
.LVL144:
.L66:
.LBB67:
.LBB64:
	.loc 1 1445 9 is_stmt 1
	.loc 1 1445 11 is_stmt 0
	sub	s0,s0,a4
.LVL145:
	.loc 1 1446 9 is_stmt 1
	.loc 1 1446 16 is_stmt 0
	li	a4,0
.LVL146:
.L67:
	.loc 1 1446 21 is_stmt 1
	add	a0,s1,a4
	.loc 1 1446 9 is_stmt 0
	bne	a4,a1,.L68
	.loc 1 1448 16
	li	a4,0
.LVL147:
.L69:
	.loc 1 1448 9
	lw	a3,4(a5)
	add	s1,a0,a4
.LVL148:
	.loc 1 1448 21 is_stmt 1
	.loc 1 1448 9 is_stmt 0
	bltu	a4,a3,.L70
	.loc 1 1451 9 is_stmt 1
.LVL149:
	.loc 1 1452 9
	.loc 1 1454 9
	.loc 1 1454 13 is_stmt 0
	lw	a5,12(a5)
.LVL150:
	.loc 1 1437 10 is_stmt 1
	.loc 1 1452 17 is_stmt 0
	li	a1,2
	.loc 1 1451 13
	mv	a3,a2
	.loc 1 1437 10
	bne	a5,zero,.L71
	.loc 1 1457 5 is_stmt 1
	.loc 1 1457 8 is_stmt 0
	sb	zero,0(s1)
	.loc 1 1459 5 is_stmt 1
	.loc 1 1460 5
	.loc 1 1462 5
.LVL151:
.L65:
.LBE64:
.LBE67:
	.loc 1 1659 5
	.loc 1 1659 24 is_stmt 0
	lw	a4,248(s3)
	li	a5,65536
	and	a5,a5,a4
	.loc 1 1659 7
	beq	a5,zero,.L72
	.loc 1 1661 9 is_stmt 1
	.loc 1 1661 15 is_stmt 0
	lui	a2,%hi(.LC16)
	mv	a3,s4
	addi	a2,a2,%lo(.LC16)
	mv	a1,s0
	mv	a0,s1
	call	snprintf
.LVL152:
	.loc 1 1662 9 is_stmt 1
	.loc 1 1662 14
	.loc 1 1662 16 is_stmt 0
	blt	a0,zero,.L91
	.loc 1 1662 26 discriminator 2
	bgeu	a0,s0,.L91
	.loc 1 1662 68 is_stmt 1 discriminator 4
.LVL153:
	.loc 1 1664 21 is_stmt 0 discriminator 4
	lbu	s2,280(s3)
	lui	a5,%hi(.LC2)
	.loc 1 1662 70 discriminator 4
	sub	s0,s0,a0
.LVL154:
	.loc 1 1662 87 is_stmt 1 discriminator 4
.LBB68:
.LBB69:
	.loc 1 1484 7 is_stmt 0 discriminator 4
	slli	a4,s2,24
	srai	a4,a4,24
.LBE69:
.LBE68:
	.loc 1 1662 89 discriminator 4
	add	s1,s1,a0
.LVL155:
	.loc 1 1662 113 is_stmt 1 discriminator 4
	.loc 1 1664 9 discriminator 4
.LBB71:
.LBB70:
	.loc 1 1479 5 discriminator 4
	.loc 1 1480 5 discriminator 4
	.loc 1 1481 5 discriminator 4
	.loc 1 1482 5 discriminator 4
	.loc 1 1484 5 discriminator 4
	.loc 1 1482 17 is_stmt 0 discriminator 4
	addi	a3,a5,%lo(.LC2)
	.loc 1 1484 7 discriminator 4
	bge	a4,zero,.L73
	.loc 1 1484 37 is_stmt 1
	.loc 1 1484 43 is_stmt 0
	lui	a2,%hi(.LC17)
	addi	a2,a2,%lo(.LC17)
	mv	a1,s0
	mv	a0,s1
.LVL156:
	call	snprintf
.LVL157:
	.loc 1 1484 85 is_stmt 1
	.loc 1 1484 90
	.loc 1 1484 92 is_stmt 0
	blt	a0,zero,.L91
	.loc 1 1484 102
	bleu	s0,a0,.L91
	.loc 1 1484 144 is_stmt 1
.LVL158:
	.loc 1 1484 200 is_stmt 0
	lui	a3,%hi(.LC3)
	.loc 1 1484 146
	sub	s0,s0,a0
.LVL159:
	.loc 1 1484 163 is_stmt 1
	.loc 1 1484 165 is_stmt 0
	add	s1,s1,a0
.LVL160:
	.loc 1 1484 189 is_stmt 1
	.loc 1 1484 196
	.loc 1 1484 200 is_stmt 0
	addi	a3,a3,%lo(.LC3)
.LVL161:
.L73:
	.loc 1 1484 209 is_stmt 1
	.loc 1 1484 210
	.loc 1 1485 5
	.loc 1 1485 7 is_stmt 0
	andi	a5,s2,64
	beq	a5,zero,.L74
	.loc 1 1485 37 is_stmt 1
	.loc 1 1485 43 is_stmt 0
	lui	a2,%hi(.LC18)
	addi	a2,a2,%lo(.LC18)
	mv	a1,s0
	mv	a0,s1
	call	snprintf
.LVL162:
	.loc 1 1485 85 is_stmt 1
	.loc 1 1485 90
	.loc 1 1485 92 is_stmt 0
	blt	a0,zero,.L91
	.loc 1 1485 102
	bleu	s0,a0,.L91
	.loc 1 1485 144 is_stmt 1
.LVL163:
	.loc 1 1485 200 is_stmt 0
	lui	a3,%hi(.LC3)
	.loc 1 1485 146
	sub	s0,s0,a0
.LVL164:
	.loc 1 1485 163 is_stmt 1
	.loc 1 1485 165 is_stmt 0
	add	s1,s1,a0
.LVL165:
	.loc 1 1485 189 is_stmt 1
	.loc 1 1485 196
	.loc 1 1485 200 is_stmt 0
	addi	a3,a3,%lo(.LC3)
.LVL166:
.L74:
	.loc 1 1485 209 is_stmt 1
	.loc 1 1485 210
	.loc 1 1486 5
	.loc 1 1486 7 is_stmt 0
	andi	a5,s2,32
	beq	a5,zero,.L75
	.loc 1 1486 37 is_stmt 1
	.loc 1 1486 43 is_stmt 0
	lui	a2,%hi(.LC19)
	addi	a2,a2,%lo(.LC19)
	mv	a1,s0
	mv	a0,s1
	call	snprintf
.LVL167:
	.loc 1 1486 80 is_stmt 1
	.loc 1 1486 85
	.loc 1 1486 87 is_stmt 0
	blt	a0,zero,.L91
	.loc 1 1486 97
	bleu	s0,a0,.L91
	.loc 1 1486 139 is_stmt 1
.LVL168:
	.loc 1 1486 195 is_stmt 0
	lui	a3,%hi(.LC3)
	.loc 1 1486 141
	sub	s0,s0,a0
.LVL169:
	.loc 1 1486 158 is_stmt 1
	.loc 1 1486 160 is_stmt 0
	add	s1,s1,a0
.LVL170:
	.loc 1 1486 184 is_stmt 1
	.loc 1 1486 191
	.loc 1 1486 195 is_stmt 0
	addi	a3,a3,%lo(.LC3)
.LVL171:
.L75:
	.loc 1 1486 204 is_stmt 1
	.loc 1 1486 205
	.loc 1 1487 5
	.loc 1 1487 7 is_stmt 0
	andi	a5,s2,16
	beq	a5,zero,.L76
	.loc 1 1487 37 is_stmt 1
	.loc 1 1487 43 is_stmt 0
	lui	a2,%hi(.LC20)
	addi	a2,a2,%lo(.LC20)
	mv	a1,s0
	mv	a0,s1
	call	snprintf
.LVL172:
	.loc 1 1487 89 is_stmt 1
	.loc 1 1487 94
	.loc 1 1487 96 is_stmt 0
	blt	a0,zero,.L91
	.loc 1 1487 106
	bleu	s0,a0,.L91
	.loc 1 1487 148 is_stmt 1
.LVL173:
	.loc 1 1487 204 is_stmt 0
	lui	a3,%hi(.LC3)
	.loc 1 1487 150
	sub	s0,s0,a0
.LVL174:
	.loc 1 1487 167 is_stmt 1
	.loc 1 1487 169 is_stmt 0
	add	s1,s1,a0
.LVL175:
	.loc 1 1487 193 is_stmt 1
	.loc 1 1487 200
	.loc 1 1487 204 is_stmt 0
	addi	a3,a3,%lo(.LC3)
.LVL176:
.L76:
	.loc 1 1487 213 is_stmt 1
	.loc 1 1487 214
	.loc 1 1488 5
	.loc 1 1488 7 is_stmt 0
	andi	a5,s2,8
	beq	a5,zero,.L77
	.loc 1 1488 37 is_stmt 1
	.loc 1 1488 43 is_stmt 0
	lui	a2,%hi(.LC21)
	addi	a2,a2,%lo(.LC21)
	mv	a1,s0
	mv	a0,s1
	call	snprintf
.LVL177:
	.loc 1 1488 83 is_stmt 1
	.loc 1 1488 88
	.loc 1 1488 90 is_stmt 0
	blt	a0,zero,.L91
	.loc 1 1488 100
	bleu	s0,a0,.L91
	.loc 1 1488 142 is_stmt 1
.LVL178:
	.loc 1 1488 198 is_stmt 0
	lui	a3,%hi(.LC3)
	.loc 1 1488 144
	sub	s0,s0,a0
.LVL179:
	.loc 1 1488 161 is_stmt 1
	.loc 1 1488 163 is_stmt 0
	add	s1,s1,a0
.LVL180:
	.loc 1 1488 187 is_stmt 1
	.loc 1 1488 194
	.loc 1 1488 198 is_stmt 0
	addi	a3,a3,%lo(.LC3)
.LVL181:
.L77:
	.loc 1 1488 207 is_stmt 1
	.loc 1 1488 208
	.loc 1 1489 5
	.loc 1 1489 7 is_stmt 0
	andi	a5,s2,4
	beq	a5,zero,.L78
	.loc 1 1489 37 is_stmt 1
	.loc 1 1489 43 is_stmt 0
	lui	a2,%hi(.LC22)
	addi	a2,a2,%lo(.LC22)
	mv	a1,s0
	mv	a0,s1
	call	snprintf
.LVL182:
	.loc 1 1489 81 is_stmt 1
	.loc 1 1489 86
	.loc 1 1489 88 is_stmt 0
	blt	a0,zero,.L91
	.loc 1 1489 98
	bleu	s0,a0,.L91
	.loc 1 1489 140 is_stmt 1
.LVL183:
	.loc 1 1489 196 is_stmt 0
	lui	a3,%hi(.LC3)
	.loc 1 1489 142
	sub	s0,s0,a0
.LVL184:
	.loc 1 1489 159 is_stmt 1
	.loc 1 1489 161 is_stmt 0
	add	s1,s1,a0
.LVL185:
	.loc 1 1489 185 is_stmt 1
	.loc 1 1489 192
	.loc 1 1489 196 is_stmt 0
	addi	a3,a3,%lo(.LC3)
.LVL186:
.L78:
	.loc 1 1489 205 is_stmt 1
	.loc 1 1489 206
	.loc 1 1490 5
	.loc 1 1490 7 is_stmt 0
	andi	a5,s2,2
	beq	a5,zero,.L79
	.loc 1 1490 37 is_stmt 1
	.loc 1 1490 43 is_stmt 0
	lui	a2,%hi(.LC23)
	addi	a2,a2,%lo(.LC23)
	mv	a1,s0
	mv	a0,s1
	call	snprintf
.LVL187:
	.loc 1 1490 83 is_stmt 1
	.loc 1 1490 88
	.loc 1 1490 90 is_stmt 0
	blt	a0,zero,.L91
	.loc 1 1490 100
	bleu	s0,a0,.L91
	.loc 1 1490 142 is_stmt 1
.LVL188:
	.loc 1 1490 198 is_stmt 0
	lui	a3,%hi(.LC3)
	.loc 1 1490 144
	sub	s0,s0,a0
.LVL189:
	.loc 1 1490 161 is_stmt 1
	.loc 1 1490 163 is_stmt 0
	add	s1,s1,a0
.LVL190:
	.loc 1 1490 187 is_stmt 1
	.loc 1 1490 194
	.loc 1 1490 198 is_stmt 0
	addi	a3,a3,%lo(.LC3)
.LVL191:
.L79:
	.loc 1 1490 207 is_stmt 1
	.loc 1 1490 208
	.loc 1 1491 5
	.loc 1 1491 7 is_stmt 0
	andi	s2,s2,1
.LVL192:
	beq	s2,zero,.L72
	.loc 1 1491 37 is_stmt 1
	.loc 1 1491 43 is_stmt 0
	lui	a2,%hi(.LC24)
	addi	a2,a2,%lo(.LC24)
	mv	a1,s0
	mv	a0,s1
	call	snprintf
.LVL193:
	.loc 1 1491 92 is_stmt 1
	.loc 1 1491 97
	.loc 1 1491 99 is_stmt 0
	blt	a0,zero,.L91
	.loc 1 1491 109
	bleu	s0,a0,.L91
	.loc 1 1491 151 is_stmt 1
.LVL194:
	.loc 1 1491 153 is_stmt 0
	sub	s0,s0,a0
.LVL195:
	.loc 1 1491 170 is_stmt 1
	.loc 1 1491 172 is_stmt 0
	add	s1,s1,a0
.LVL196:
	.loc 1 1491 196 is_stmt 1
	.loc 1 1491 203
.L72:
.LBE70:
.LBE71:
	.loc 1 1668 5
	.loc 1 1668 24 is_stmt 0
	lw	a5,248(s3)
	andi	a5,a5,4
	.loc 1 1668 7
	beq	a5,zero,.L80
	.loc 1 1670 9 is_stmt 1
	.loc 1 1670 15 is_stmt 0
	lui	a2,%hi(.LC25)
	mv	a3,s4
	addi	a2,a2,%lo(.LC25)
	mv	a1,s0
	mv	a0,s1
	call	snprintf
.LVL197:
	.loc 1 1671 9 is_stmt 1
	.loc 1 1671 14
	.loc 1 1671 16 is_stmt 0
	blt	a0,zero,.L91
	.loc 1 1671 26 discriminator 2
	bgeu	a0,s0,.L91
	.loc 1 1671 68 is_stmt 1 discriminator 4
.LVL198:
	.loc 1 1673 21 is_stmt 0 discriminator 4
	lw	s2,260(s3)
	lui	a5,%hi(.LC2)
	.loc 1 1671 70 discriminator 4
	sub	s0,s0,a0
.LVL199:
	.loc 1 1671 87 is_stmt 1 discriminator 4
.LBB72:
.LBB73:
	.loc 1 1511 19 is_stmt 0 discriminator 4
	andi	a4,s2,128
.LBE73:
.LBE72:
	.loc 1 1671 89 discriminator 4
	add	s1,s1,a0
.LVL200:
	.loc 1 1671 113 is_stmt 1 discriminator 4
	.loc 1 1673 9 discriminator 4
.LBB75:
.LBB74:
	.loc 1 1506 5 discriminator 4
	.loc 1 1507 5 discriminator 4
	.loc 1 1508 5 discriminator 4
	.loc 1 1509 5 discriminator 4
	.loc 1 1511 5 discriminator 4
	.loc 1 1509 17 is_stmt 0 discriminator 4
	addi	a3,a5,%lo(.LC2)
	.loc 1 1511 7 discriminator 4
	beq	a4,zero,.L81
	.loc 1 1511 34 is_stmt 1
	.loc 1 1511 40 is_stmt 0
	lui	a2,%hi(.LC26)
	addi	a2,a2,%lo(.LC26)
	mv	a1,s0
	mv	a0,s1
.LVL201:
	call	snprintf
.LVL202:
	.loc 1 1511 89 is_stmt 1
	.loc 1 1511 94
	.loc 1 1511 96 is_stmt 0
	blt	a0,zero,.L91
	.loc 1 1511 106
	bleu	s0,a0,.L91
	.loc 1 1511 148 is_stmt 1
.LVL203:
	.loc 1 1511 204 is_stmt 0
	lui	a3,%hi(.LC3)
	.loc 1 1511 150
	sub	s0,s0,a0
.LVL204:
	.loc 1 1511 167 is_stmt 1
	.loc 1 1511 169 is_stmt 0
	add	s1,s1,a0
.LVL205:
	.loc 1 1511 193 is_stmt 1
	.loc 1 1511 200
	.loc 1 1511 204 is_stmt 0
	addi	a3,a3,%lo(.LC3)
.LVL206:
.L81:
	.loc 1 1511 213 is_stmt 1
	.loc 1 1511 214
	.loc 1 1512 5
	.loc 1 1512 19 is_stmt 0
	andi	a5,s2,64
	.loc 1 1512 7
	beq	a5,zero,.L82
	.loc 1 1512 34 is_stmt 1
	.loc 1 1512 40 is_stmt 0
	lui	a2,%hi(.LC27)
	addi	a2,a2,%lo(.LC27)
	mv	a1,s0
	mv	a0,s1
	call	snprintf
.LVL207:
	.loc 1 1512 87 is_stmt 1
	.loc 1 1512 92
	.loc 1 1512 94 is_stmt 0
	blt	a0,zero,.L91
	.loc 1 1512 104
	bleu	s0,a0,.L91
	.loc 1 1512 146 is_stmt 1
.LVL208:
	.loc 1 1512 202 is_stmt 0
	lui	a3,%hi(.LC3)
	.loc 1 1512 148
	sub	s0,s0,a0
.LVL209:
	.loc 1 1512 165 is_stmt 1
	.loc 1 1512 167 is_stmt 0
	add	s1,s1,a0
.LVL210:
	.loc 1 1512 191 is_stmt 1
	.loc 1 1512 198
	.loc 1 1512 202 is_stmt 0
	addi	a3,a3,%lo(.LC3)
.LVL211:
.L82:
	.loc 1 1512 211 is_stmt 1
	.loc 1 1512 212
	.loc 1 1513 5
	.loc 1 1513 19 is_stmt 0
	andi	a5,s2,32
	.loc 1 1513 7
	beq	a5,zero,.L83
	.loc 1 1513 34 is_stmt 1
	.loc 1 1513 40 is_stmt 0
	lui	a2,%hi(.LC28)
	addi	a2,a2,%lo(.LC28)
	mv	a1,s0
	mv	a0,s1
	call	snprintf
.LVL212:
	.loc 1 1513 88 is_stmt 1
	.loc 1 1513 93
	.loc 1 1513 95 is_stmt 0
	blt	a0,zero,.L91
	.loc 1 1513 105
	bleu	s0,a0,.L91
	.loc 1 1513 147 is_stmt 1
.LVL213:
	.loc 1 1513 203 is_stmt 0
	lui	a3,%hi(.LC3)
	.loc 1 1513 149
	sub	s0,s0,a0
.LVL214:
	.loc 1 1513 166 is_stmt 1
	.loc 1 1513 168 is_stmt 0
	add	s1,s1,a0
.LVL215:
	.loc 1 1513 192 is_stmt 1
	.loc 1 1513 199
	.loc 1 1513 203 is_stmt 0
	addi	a3,a3,%lo(.LC3)
.LVL216:
.L83:
	.loc 1 1513 212 is_stmt 1
	.loc 1 1513 213
	.loc 1 1514 5
	.loc 1 1514 19 is_stmt 0
	andi	a5,s2,16
	.loc 1 1514 7
	beq	a5,zero,.L84
	.loc 1 1514 34 is_stmt 1
	.loc 1 1514 40 is_stmt 0
	lui	a2,%hi(.LC29)
	addi	a2,a2,%lo(.LC29)
	mv	a1,s0
	mv	a0,s1
	call	snprintf
.LVL217:
	.loc 1 1514 89 is_stmt 1
	.loc 1 1514 94
	.loc 1 1514 96 is_stmt 0
	blt	a0,zero,.L91
	.loc 1 1514 106
	bleu	s0,a0,.L91
	.loc 1 1514 148 is_stmt 1
.LVL218:
	.loc 1 1514 204 is_stmt 0
	lui	a3,%hi(.LC3)
	.loc 1 1514 150
	sub	s0,s0,a0
.LVL219:
	.loc 1 1514 167 is_stmt 1
	.loc 1 1514 169 is_stmt 0
	add	s1,s1,a0
.LVL220:
	.loc 1 1514 193 is_stmt 1
	.loc 1 1514 200
	.loc 1 1514 204 is_stmt 0
	addi	a3,a3,%lo(.LC3)
.LVL221:
.L84:
	.loc 1 1514 213 is_stmt 1
	.loc 1 1514 214
	.loc 1 1515 5
	.loc 1 1515 19 is_stmt 0
	andi	a5,s2,8
	.loc 1 1515 7
	beq	a5,zero,.L85
	.loc 1 1515 34 is_stmt 1
	.loc 1 1515 40 is_stmt 0
	lui	a2,%hi(.LC30)
	addi	a2,a2,%lo(.LC30)
	mv	a1,s0
	mv	a0,s1
	call	snprintf
.LVL222:
	.loc 1 1515 85 is_stmt 1
	.loc 1 1515 90
	.loc 1 1515 92 is_stmt 0
	blt	a0,zero,.L91
	.loc 1 1515 102
	bleu	s0,a0,.L91
	.loc 1 1515 144 is_stmt 1
.LVL223:
	.loc 1 1515 200 is_stmt 0
	lui	a3,%hi(.LC3)
	.loc 1 1515 146
	sub	s0,s0,a0
.LVL224:
	.loc 1 1515 163 is_stmt 1
	.loc 1 1515 165 is_stmt 0
	add	s1,s1,a0
.LVL225:
	.loc 1 1515 189 is_stmt 1
	.loc 1 1515 196
	.loc 1 1515 200 is_stmt 0
	addi	a3,a3,%lo(.LC3)
.LVL226:
.L85:
	.loc 1 1515 209 is_stmt 1
	.loc 1 1515 210
	.loc 1 1516 5
	.loc 1 1516 19 is_stmt 0
	andi	a5,s2,4
	.loc 1 1516 7
	beq	a5,zero,.L86
	.loc 1 1516 34 is_stmt 1
	.loc 1 1516 40 is_stmt 0
	lui	a2,%hi(.LC31)
	addi	a2,a2,%lo(.LC31)
	mv	a1,s0
	mv	a0,s1
	call	snprintf
.LVL227:
	.loc 1 1516 85 is_stmt 1
	.loc 1 1516 90
	.loc 1 1516 92 is_stmt 0
	blt	a0,zero,.L91
	.loc 1 1516 102
	bleu	s0,a0,.L91
	.loc 1 1516 144 is_stmt 1
.LVL228:
	.loc 1 1516 200 is_stmt 0
	lui	a3,%hi(.LC3)
	.loc 1 1516 146
	sub	s0,s0,a0
.LVL229:
	.loc 1 1516 163 is_stmt 1
	.loc 1 1516 165 is_stmt 0
	add	s1,s1,a0
.LVL230:
	.loc 1 1516 189 is_stmt 1
	.loc 1 1516 196
	.loc 1 1516 200 is_stmt 0
	addi	a3,a3,%lo(.LC3)
.LVL231:
.L86:
	.loc 1 1516 209 is_stmt 1
	.loc 1 1516 210
	.loc 1 1517 5
	.loc 1 1517 19 is_stmt 0
	andi	a5,s2,2
	.loc 1 1517 7
	beq	a5,zero,.L87
	.loc 1 1517 34 is_stmt 1
	.loc 1 1517 40 is_stmt 0
	lui	a2,%hi(.LC32)
	addi	a2,a2,%lo(.LC32)
	mv	a1,s0
	mv	a0,s1
	call	snprintf
.LVL232:
	.loc 1 1517 80 is_stmt 1
	.loc 1 1517 85
	.loc 1 1517 87 is_stmt 0
	blt	a0,zero,.L91
	.loc 1 1517 97
	bleu	s0,a0,.L91
	.loc 1 1517 139 is_stmt 1
.LVL233:
	.loc 1 1517 195 is_stmt 0
	lui	a3,%hi(.LC3)
	.loc 1 1517 141
	sub	s0,s0,a0
.LVL234:
	.loc 1 1517 158 is_stmt 1
	.loc 1 1517 160 is_stmt 0
	add	s1,s1,a0
.LVL235:
	.loc 1 1517 184 is_stmt 1
	.loc 1 1517 191
	.loc 1 1517 195 is_stmt 0
	addi	a3,a3,%lo(.LC3)
.LVL236:
.L87:
	.loc 1 1517 204 is_stmt 1
	.loc 1 1517 205
	.loc 1 1518 5
	.loc 1 1518 19 is_stmt 0
	andi	a5,s2,1
	.loc 1 1518 7
	beq	a5,zero,.L88
	.loc 1 1518 34 is_stmt 1
	.loc 1 1518 40 is_stmt 0
	lui	a2,%hi(.LC33)
	addi	a2,a2,%lo(.LC33)
	mv	a1,s0
	mv	a0,s1
	call	snprintf
.LVL237:
	.loc 1 1518 85 is_stmt 1
	.loc 1 1518 90
	.loc 1 1518 92 is_stmt 0
	blt	a0,zero,.L91
	.loc 1 1518 102
	bleu	s0,a0,.L91
	.loc 1 1518 144 is_stmt 1
.LVL238:
	.loc 1 1518 200 is_stmt 0
	lui	a3,%hi(.LC3)
	.loc 1 1518 146
	sub	s0,s0,a0
.LVL239:
	.loc 1 1518 163 is_stmt 1
	.loc 1 1518 165 is_stmt 0
	add	s1,s1,a0
.LVL240:
	.loc 1 1518 189 is_stmt 1
	.loc 1 1518 196
	.loc 1 1518 200 is_stmt 0
	addi	a3,a3,%lo(.LC3)
.LVL241:
.L88:
	.loc 1 1518 209 is_stmt 1
	.loc 1 1518 210
	.loc 1 1519 5
	.loc 1 1519 19 is_stmt 0
	li	a5,32768
	and	s2,s2,a5
.LVL242:
	.loc 1 1519 7
	beq	s2,zero,.L80
	.loc 1 1519 36 is_stmt 1
	.loc 1 1519 42 is_stmt 0
	lui	a2,%hi(.LC34)
	addi	a2,a2,%lo(.LC34)
	mv	a1,s0
	mv	a0,s1
	call	snprintf
.LVL243:
	.loc 1 1519 87 is_stmt 1
	.loc 1 1519 92
	.loc 1 1519 94 is_stmt 0
	blt	a0,zero,.L91
	.loc 1 1519 104
	bleu	s0,a0,.L91
	.loc 1 1519 146 is_stmt 1
.LVL244:
	.loc 1 1519 148 is_stmt 0
	sub	s0,s0,a0
.LVL245:
	.loc 1 1519 165 is_stmt 1
	.loc 1 1519 167 is_stmt 0
	add	s1,s1,a0
.LVL246:
	.loc 1 1519 191 is_stmt 1
	.loc 1 1519 198
.L80:
.LBE74:
.LBE75:
	.loc 1 1677 5
	.loc 1 1677 24 is_stmt 0
	lw	a5,248(s3)
	srli	a5,a5,11
	andi	a5,a5,1
	.loc 1 1677 7
	beq	a5,zero,.L89
	.loc 1 1679 9 is_stmt 1
	.loc 1 1679 15 is_stmt 0
	lui	a2,%hi(.LC35)
	mv	a3,s4
	addi	a2,a2,%lo(.LC35)
	mv	a1,s0
	mv	a0,s1
	call	snprintf
.LVL247:
	.loc 1 1680 9 is_stmt 1
	.loc 1 1680 14
	.loc 1 1680 16 is_stmt 0
	blt	a0,zero,.L91
	.loc 1 1680 26 discriminator 2
	bgeu	a0,s0,.L91
	.loc 1 1680 68 is_stmt 1 discriminator 4
.LVL248:
.LBB76:
.LBB59:
	.loc 1 1535 17 is_stmt 0 discriminator 4
	lui	a3,%hi(.LC2)
	.loc 1 1540 18 discriminator 4
	lui	s4,%hi(.LC36)
.LVL249:
	.loc 1 1545 13 discriminator 4
	lui	s2,%hi(.LC3)
.LBE59:
.LBE76:
	.loc 1 1680 70 discriminator 4
	sub	s0,s0,a0
.LVL250:
	.loc 1 1680 87 is_stmt 1 discriminator 4
	.loc 1 1680 89 is_stmt 0 discriminator 4
	add	s1,s1,a0
.LVL251:
	.loc 1 1680 113 is_stmt 1 discriminator 4
	.loc 1 1682 9 discriminator 4
	.loc 1 1682 21 is_stmt 0 discriminator 4
	addi	s3,s3,264
.LVL252:
.LBB77:
.LBB60:
	.loc 1 1530 5 is_stmt 1 discriminator 4
	.loc 1 1531 5 discriminator 4
	.loc 1 1532 5 discriminator 4
	.loc 1 1533 5 discriminator 4
	.loc 1 1534 5 discriminator 4
	.loc 1 1535 5 discriminator 4
	.loc 1 1537 5 discriminator 4
	.loc 1 1537 10 discriminator 4
	.loc 1 1535 17 is_stmt 0 discriminator 4
	addi	a3,a3,%lo(.LC2)
	.loc 1 1540 18 discriminator 4
	addi	s4,s4,%lo(.LC36)
	.loc 1 1542 15 discriminator 4
	lui	s6,%hi(.LC37)
	.loc 1 1545 13 discriminator 4
	addi	s2,s2,%lo(.LC3)
.LVL253:
.L92:
	.loc 1 1539 13
	addi	a1,sp,40
	mv	a0,s3
	sw	a3,28(sp)
.LVL254:
	.loc 1 1539 9 is_stmt 1
	.loc 1 1539 13 is_stmt 0
	call	mbedtls_oid_get_extended_key_usage
.LVL255:
	.loc 1 1539 11
	lw	a3,28(sp)
	beq	a0,zero,.L90
	.loc 1 1540 13 is_stmt 1
	.loc 1 1540 18 is_stmt 0
	sw	s4,40(sp)
.L90:
	.loc 1 1542 9 is_stmt 1
	.loc 1 1542 15 is_stmt 0
	lw	a4,40(sp)
	addi	a2,s6,%lo(.LC37)
	mv	a1,s0
	mv	a0,s1
	call	snprintf
.LVL256:
	.loc 1 1543 9 is_stmt 1
	.loc 1 1543 14
	.loc 1 1543 16 is_stmt 0
	blt	a0,zero,.L91
	.loc 1 1543 26
	bgeu	a0,s0,.L91
	.loc 1 1543 68 is_stmt 1
.LVL257:
	.loc 1 1547 13 is_stmt 0
	lw	s3,12(s3)
.LVL258:
	.loc 1 1543 70
	sub	s0,s0,a0
.LVL259:
	.loc 1 1543 87 is_stmt 1
	.loc 1 1543 89 is_stmt 0
	add	s1,s1,a0
.LVL260:
	.loc 1 1543 113 is_stmt 1
	.loc 1 1545 9
	.loc 1 1547 9
	.loc 1 1537 10
	.loc 1 1545 13 is_stmt 0
	mv	a3,s2
	.loc 1 1537 10
	bne	s3,zero,.L92
.LVL261:
.L89:
.LBE60:
.LBE77:
	.loc 1 1687 5 is_stmt 1
	.loc 1 1687 11 is_stmt 0
	lui	a2,%hi(.LC38)
	addi	a2,a2,%lo(.LC38)
	mv	a1,s0
	mv	a0,s1
	call	snprintf
.LVL262:
	.loc 1 1688 5 is_stmt 1
	.loc 1 1688 10
	.loc 1 1688 12 is_stmt 0
	blt	a0,zero,.L91
	.loc 1 1688 22 discriminator 2
	bgeu	a0,s0,.L91
	.loc 1 1688 64 is_stmt 1 discriminator 4
	.loc 1 1688 83 discriminator 4
	.loc 1 1688 109 discriminator 4
	.loc 1 1690 5 discriminator 4
	.loc 1 1690 26 is_stmt 0 discriminator 4
	sub	a0,a0,s0
.LVL263:
	add	a0,a0,s5
.LVL264:
	.loc 1 1690 13 discriminator 4
	j	.L58
.LVL265:
.L68:
.LBB78:
.LBB65:
	.loc 1 1447 13 is_stmt 1
	.loc 1 1447 23 is_stmt 0
	add	a6,a3,a4
	.loc 1 1447 18
	lbu	a6,0(a6)
	.loc 1 1446 35
	addi	a4,a4,1
.LVL266:
	.loc 1 1447 18
	sb	a6,0(a0)
	.loc 1 1446 34 is_stmt 1
.LVL267:
	j	.L67
.LVL268:
.L70:
	.loc 1 1449 13
	.loc 1 1449 30 is_stmt 0
	lw	a3,8(a5)
	add	a3,a3,a4
	lbu	a3,0(a3)
	.loc 1 1448 40
	addi	a4,a4,1
.LVL269:
	.loc 1 1449 18
	sb	a3,0(s1)
	.loc 1 1448 39 is_stmt 1
.LVL270:
	j	.L69
.LBE65:
.LBE78:
	.cfi_endproc
.LFE40:
	.size	mbedtls_x509_crt_info, .-mbedtls_x509_crt_info
	.section	.rodata.mbedtls_x509_crt_verify_info.str1.4,"aMS",@progbits,1
	.align	2
.LC39:
	.string	"%s%s\n"
	.align	2
.LC40:
	.string	"%sUnknown reason (this should not happen)\n"
	.section	.text.mbedtls_x509_crt_verify_info,"ax",@progbits
	.align	1
	.globl	mbedtls_x509_crt_verify_info
	.type	mbedtls_x509_crt_verify_info, @function
mbedtls_x509_crt_verify_info:
.LFB41:
	.loc 1 1724 1
	.cfi_startproc
.LVL271:
	.loc 1 1725 5
	.loc 1 1726 5
	.loc 1 1727 5
	.loc 1 1728 5
	.loc 1 1730 5
	.loc 1 1724 1 is_stmt 0
	addi	sp,sp,-32
	.cfi_def_cfa_offset 32
	sw	s2,16(sp)
	.cfi_offset 18, -16
	.loc 1 1730 14
	lui	s2,%hi(.LANCHOR0)
	.loc 1 1724 1
	sw	s0,24(sp)
	sw	s1,20(sp)
	sw	s3,12(sp)
	sw	s4,8(sp)
	sw	s5,4(sp)
	sw	s6,0(sp)
	sw	ra,28(sp)
	.cfi_offset 8, -8
	.cfi_offset 9, -12
	.cfi_offset 19, -20
	.cfi_offset 20, -24
	.cfi_offset 21, -28
	.cfi_offset 22, -32
	.cfi_offset 1, -4
	.loc 1 1724 1
	mv	s3,a0
	mv	s0,a1
	mv	s5,a2
	mv	s4,a3
	.loc 1 1728 12
	mv	s1,a1
	.loc 1 1730 14
	addi	s2,s2,%lo(.LANCHOR0)
	.loc 1 1735 15
	lui	s6,%hi(.LC39)
.LVL272:
.L165:
	.loc 1 1730 41 is_stmt 1 discriminator 1
	.loc 1 1730 44 is_stmt 0 discriminator 1
	lw	a4,4(s2)
	.loc 1 1730 5 discriminator 1
	bne	a4,zero,.L170
	.loc 1 1740 5 is_stmt 1
	.loc 1 1740 7 is_stmt 0
	beq	s4,zero,.L171
	.loc 1 1742 9 is_stmt 1
	.loc 1 1742 15 is_stmt 0
	lui	a2,%hi(.LC40)
	mv	a3,s5
	addi	a2,a2,%lo(.LC40)
	mv	a1,s1
	mv	a0,s3
	call	snprintf
.LVL273:
	.loc 1 1744 9 is_stmt 1
	.loc 1 1744 14
	.loc 1 1744 16 is_stmt 0
	blt	a0,zero,.L169
	.loc 1 1744 26 discriminator 2
	bgeu	a0,s1,.L169
	.loc 1 1744 68 is_stmt 1 discriminator 4
	.loc 1 1744 70 is_stmt 0 discriminator 4
	sub	s1,s1,a0
.LVL274:
	.loc 1 1744 87 is_stmt 1 discriminator 4
.L171:
	.loc 1 1744 113 discriminator 5
	.loc 1 1747 5 discriminator 5
	.loc 1 1747 26 is_stmt 0 discriminator 5
	sub	a0,s0,s1
	.loc 1 1747 13 discriminator 5
	j	.L164
.LVL275:
.L170:
	.loc 1 1732 9 is_stmt 1
	.loc 1 1732 21 is_stmt 0
	lw	a5,0(s2)
	and	a5,s4,a5
	.loc 1 1732 11
	beq	a5,zero,.L166
	.loc 1 1735 9 is_stmt 1
	.loc 1 1735 15 is_stmt 0
	mv	a3,s5
	addi	a2,s6,%lo(.LC39)
	mv	a1,s1
	mv	a0,s3
	call	snprintf
.LVL276:
	.loc 1 1736 9 is_stmt 1
	.loc 1 1736 14
	.loc 1 1736 16 is_stmt 0
	bge	a0,zero,.L167
.L169:
	.loc 1 1736 55
	li	a0,-12288
.LVL277:
	addi	a0,a0,1664
.LVL278:
.L164:
	.loc 1 1748 1
	lw	ra,28(sp)
	.cfi_remember_state
	.cfi_restore 1
	lw	s0,24(sp)
	.cfi_restore 8
.LVL279:
	lw	s1,20(sp)
	.cfi_restore 9
.LVL280:
	lw	s2,16(sp)
	.cfi_restore 18
.LVL281:
	lw	s3,12(sp)
	.cfi_restore 19
	lw	s4,8(sp)
	.cfi_restore 20
.LVL282:
	lw	s5,4(sp)
	.cfi_restore 21
.LVL283:
	lw	s6,0(sp)
	.cfi_restore 22
	addi	sp,sp,32
	.cfi_def_cfa_offset 0
	jr	ra
.LVL284:
.L167:
	.cfi_restore_state
	.loc 1 1736 26 discriminator 2
	bgeu	a0,s1,.L169
	.loc 1 1736 68 is_stmt 1 discriminator 4
	.loc 1 1737 15 is_stmt 0 discriminator 4
	lw	a5,0(s2)
	.loc 1 1736 70 discriminator 4
	sub	s1,s1,a0
.LVL285:
	.loc 1 1736 87 is_stmt 1 discriminator 4
	.loc 1 1736 89 is_stmt 0 discriminator 4
	add	s3,s3,a0
.LVL286:
	.loc 1 1736 113 is_stmt 1 discriminator 4
	.loc 1 1737 9 discriminator 4
	.loc 1 1737 15 is_stmt 0 discriminator 4
	xor	s4,s4,a5
.LVL287:
.L166:
	.loc 1 1730 62 is_stmt 1 discriminator 2
	.loc 1 1730 65 is_stmt 0 discriminator 2
	addi	s2,s2,8
.LVL288:
	j	.L165
	.cfi_endproc
.LFE41:
	.size	mbedtls_x509_crt_verify_info, .-mbedtls_x509_crt_verify_info
	.section	.text.mbedtls_x509_crt_check_key_usage,"ax",@progbits
	.align	1
	.globl	mbedtls_x509_crt_check_key_usage
	.type	mbedtls_x509_crt_check_key_usage, @function
mbedtls_x509_crt_check_key_usage:
.LFB42:
	.loc 1 1753 1 is_stmt 1
	.cfi_startproc
.LVL289:
	.loc 1 1754 5
	.loc 1 1755 5
	.loc 1 1758 5
	.loc 1 1758 26 is_stmt 0
	lw	a5,248(a0)
	.loc 1 1753 1
	mv	a4,a0
	.loc 1 1758 26
	andi	a0,a5,4
.LVL290:
	.loc 1 1758 7
	beq	a0,zero,.L179
	lw	a4,260(a4)
.LVL291:
.LBB81:
.LBB82:
	.loc 1 1761 5 is_stmt 1
	.loc 1 1761 16 is_stmt 0
	li	a5,-32768
	addi	a5,a5,-2
	and	a5,a1,a5
.LVL292:
	.loc 1 1763 5 is_stmt 1
	.loc 1 1763 42 is_stmt 0
	and	a3,a4,a5
	.loc 1 1763 7
	bne	a5,a3,.L181
	.loc 1 1766 5 is_stmt 1
.LVL293:
	.loc 1 1768 5
	.loc 1 1766 15 is_stmt 0
	li	a5,32768
.LVL294:
	addi	a5,a5,1
	and	a3,a1,a5
	.loc 1 1768 41
	or	a1,a1,a4
.LVL295:
	and	a1,a1,a5
.LBE82:
.LBE81:
	.loc 1 1759 15
	li	a0,0
.LBB84:
.LBB83:
	.loc 1 1768 7
	beq	a3,a1,.L179
.LVL296:
.L181:
	.loc 1 1769 15
	li	a0,-8192
	addi	a0,a0,-2048
.LVL297:
.L179:
.LBE83:
.LBE84:
	.loc 1 1772 1
	ret
	.cfi_endproc
.LFE42:
	.size	mbedtls_x509_crt_check_key_usage, .-mbedtls_x509_crt_check_key_usage
	.section	.text.mbedtls_x509_crt_check_extended_key_usage,"ax",@progbits
	.align	1
	.globl	mbedtls_x509_crt_check_extended_key_usage
	.type	mbedtls_x509_crt_check_extended_key_usage, @function
mbedtls_x509_crt_check_extended_key_usage:
.LFB43:
	.loc 1 1779 1 is_stmt 1
	.cfi_startproc
.LVL298:
	.loc 1 1780 5
	.loc 1 1783 5
	.loc 1 1783 26 is_stmt 0
	lw	a5,248(a0)
	srli	a5,a5,11
	andi	a5,a5,1
	.loc 1 1783 7
	beq	a5,zero,.L203
	.loc 1 1779 1
	addi	sp,sp,-32
	.cfi_def_cfa_offset 32
	sw	s0,24(sp)
	sw	s1,20(sp)
	sw	s2,16(sp)
	sw	s3,12(sp)
	sw	s4,8(sp)
	sw	ra,28(sp)
	.cfi_offset 8, -8
	.cfi_offset 9, -12
	.cfi_offset 18, -16
	.cfi_offset 19, -20
	.cfi_offset 20, -24
	.cfi_offset 1, -4
	mv	s2,a1
	mv	s1,a2
	.loc 1 1789 5 is_stmt 1
	.loc 1 1789 14 is_stmt 0
	addi	s0,a0,264
.LVL299:
	.loc 1 1789 37 is_stmt 1
.LBB85:
	.loc 1 1799 79 is_stmt 0
	li	s4,4
	.loc 1 1799 82
	lui	s3,%hi(.LC41)
.LVL300:
.L192:
	.loc 1 1791 9 is_stmt 1
	.loc 1 1793 9
	.loc 1 1793 11 is_stmt 0
	lw	a5,4(s0)
	beq	a5,s1,.L188
.L191:
	.loc 1 1799 9 is_stmt 1
	.loc 1 1799 79 is_stmt 0
	lw	a5,4(s0)
	bne	a5,s4,.L189
	.loc 1 1799 82 discriminator 2
	lw	a1,8(s0)
	li	a2,4
	addi	a0,s3,%lo(.LC41)
	call	memcmp
.LVL301:
	.loc 1 1799 79 discriminator 2
	beq	a0,zero,.L187
.L189:
.LBE85:
	.loc 1 1789 49 is_stmt 1
	.loc 1 1789 53 is_stmt 0
	lw	s0,12(s0)
.LVL302:
	.loc 1 1789 37 is_stmt 1
	.loc 1 1789 5 is_stmt 0
	bne	s0,zero,.L192
	.loc 1 1803 11
	li	a0,-8192
	addi	a0,a0,-2048
.L186:
	.loc 1 1804 1
	lw	ra,28(sp)
	.cfi_remember_state
	.cfi_restore 1
	lw	s0,24(sp)
	.cfi_restore 8
.LVL303:
	lw	s1,20(sp)
	.cfi_restore 9
.LVL304:
	lw	s2,16(sp)
	.cfi_restore 18
.LVL305:
	lw	s3,12(sp)
	.cfi_restore 19
	lw	s4,8(sp)
	.cfi_restore 20
	addi	sp,sp,32
	.cfi_def_cfa_offset 0
	jr	ra
.LVL306:
.L188:
	.cfi_restore_state
.LBB86:
	.loc 1 1794 13 discriminator 1
	lw	a0,8(s0)
	mv	a2,s1
	mv	a1,s2
	call	memcmp
.LVL307:
	.loc 1 1793 39 discriminator 1
	bne	a0,zero,.L191
.L187:
.LBE86:
	.loc 1 1784 15
	li	a0,0
	j	.L186
.LVL308:
.L203:
	.cfi_def_cfa_offset 0
	.cfi_restore 1
	.cfi_restore 8
	.cfi_restore 9
	.cfi_restore 18
	.cfi_restore 19
	.cfi_restore 20
	li	a0,0
.LVL309:
	.loc 1 1804 1
	ret
	.cfi_endproc
.LFE43:
	.size	mbedtls_x509_crt_check_extended_key_usage, .-mbedtls_x509_crt_check_extended_key_usage
	.section	.rodata.mbedtls_x509_crt_verify_restartable.str1.4,"aMS",@progbits,1
	.align	2
.LC42:
	.string	"U\004\003"
	.section	.text.mbedtls_x509_crt_verify_restartable,"ax",@progbits
	.align	1
	.globl	mbedtls_x509_crt_verify_restartable
	.type	mbedtls_x509_crt_verify_restartable, @function
mbedtls_x509_crt_verify_restartable:
.LFB55:
	.loc 1 2571 1 is_stmt 1
	.cfi_startproc
.LVL310:
	.loc 1 2572 5
	.loc 1 2573 5
	.loc 1 2574 5
	.loc 1 2575 5
	.loc 1 2577 5
	.loc 1 2571 1 is_stmt 0
	addi	sp,sp,-272
	.cfi_def_cfa_offset 272
	sw	s0,264(sp)
	sw	s1,260(sp)
	sw	s2,256(sp)
	sw	s4,248(sp)
	sw	s8,232(sp)
	sw	ra,268(sp)
	sw	s3,252(sp)
	sw	s5,244(sp)
	sw	s6,240(sp)
	sw	s7,236(sp)
	sw	s9,228(sp)
	sw	s10,224(sp)
	sw	s11,220(sp)
	.cfi_offset 8, -8
	.cfi_offset 9, -12
	.cfi_offset 18, -16
	.cfi_offset 20, -24
	.cfi_offset 24, -40
	.cfi_offset 1, -4
	.cfi_offset 19, -20
	.cfi_offset 21, -28
	.cfi_offset 22, -32
	.cfi_offset 23, -36
	.cfi_offset 25, -44
	.cfi_offset 26, -48
	.cfi_offset 27, -52
	addi	s1,sp,124
	.loc 1 2571 1
	mv	s4,a3
	mv	s2,a4
	mv	s8,a5
	.loc 1 2577 12
	sw	zero,0(a5)
	.loc 1 2578 5 is_stmt 1
.LVL311:
	.loc 1 2579 5
.LBB111:
.LBB112:
	.loc 1 391 5
	.loc 1 393 5
	.loc 1 393 17
.LBE112:
.LBE111:
	.loc 1 2571 1 is_stmt 0
	mv	s0,a0
	sw	a1,8(sp)
	sw	a6,12(sp)
	sw	a7,16(sp)
	addi	a4,sp,204
.LVL312:
	.loc 1 2577 12
	mv	a5,s1
.LVL313:
.LBB115:
.LBB113:
	.loc 1 396 35
	li	a3,-1
.LVL314:
.L208:
	.loc 1 395 9 is_stmt 1
	.loc 1 395 33 is_stmt 0
	sw	zero,0(a5)
	.loc 1 396 9 is_stmt 1
	.loc 1 396 35 is_stmt 0
	sw	a3,4(a5)
	.loc 1 393 32 is_stmt 1
	.loc 1 393 17
	.loc 1 393 5 is_stmt 0
	addi	a5,a5,8
	bne	a5,a4,.L208
	.loc 1 399 5 is_stmt 1
.LVL315:
.LBE113:
.LBE115:
	.loc 1 2581 5
	.loc 1 2581 7 is_stmt 0
	beq	s4,zero,.L262
	.loc 1 2588 5 is_stmt 1
	.loc 1 2588 7 is_stmt 0
	bne	s2,zero,.L210
.LVL316:
.L213:
	.loc 1 2578 14
	li	s7,0
.L211:
.LVL317:
	.loc 1 2592 5 is_stmt 1
	.loc 1 2592 36 is_stmt 0
	addi	a1,s0,188
	.loc 1 2592 15
	mv	a0,a1
	sw	a1,0(sp)
	call	mbedtls_pk_get_type
.LVL318:
	.loc 1 2594 5 is_stmt 1
.LBB116:
.LBB117:
	.loc 1 207 5
	.loc 1 207 7 is_stmt 0
	lw	a1,0(sp)
	beq	a0,zero,.L219
	.loc 1 210 5 is_stmt 1
	.loc 1 210 38 is_stmt 0
	li	a5,1
	.loc 1 210 52
	addi	a0,a0,-1
.LVL319:
	.loc 1 210 38
	sll	a0,a5,a0
.LVL320:
	.loc 1 210 32
	lw	a5,4(s4)
	and	a0,a0,a5
	.loc 1 210 7
	bne	a0,zero,.L220
.L219:
.LVL321:
.LBE117:
.LBE116:
	.loc 1 2595 9 is_stmt 1
	.loc 1 2595 18 is_stmt 0
	li	a5,32768
	or	s7,s7,a5
.LVL322:
.L220:
	.loc 1 2597 5 is_stmt 1
	.loc 1 2597 9 is_stmt 0
	mv	a0,s4
	call	x509_profile_check_key
.LVL323:
	.loc 1 2597 7
	beq	a0,zero,.L221
	.loc 1 2598 9 is_stmt 1
	.loc 1 2598 18 is_stmt 0
	li	a5,65536
	or	s7,s7,a5
.LVL324:
.L221:
	.loc 1 2601 5 is_stmt 1
.LBB118:
.LBB119:
	.loc 1 2299 5
	.loc 1 2300 5
	.loc 1 2301 5
	.loc 1 2302 5
	.loc 1 2303 5
	.loc 1 2304 5
	.loc 1 2305 5
	.loc 1 2306 5
	.loc 1 2307 5
	.loc 1 2326 5
	.loc 1 2327 5
	.loc 1 2328 5
	.loc 1 2329 5
.LBE119:
.LBE118:
.LBB154:
.LBB114:
	.loc 1 399 20 is_stmt 0
	li	s5,0
.LBE114:
.LBE154:
.LBB155:
.LBB148:
	.loc 1 2327 14
	li	s9,0
	.loc 1 2329 22
	li	s3,0
.LVL325:
.L222:
	.loc 1 2331 5 is_stmt 1
	.loc 1 2333 9
	.loc 1 2334 9
	.loc 1 2340 13 is_stmt 0
	addi	a0,s0,164
	.loc 1 2334 18
	sw	s0,0(s1)
	.loc 1 2335 9 is_stmt 1
	.loc 1 2335 20 is_stmt 0
	sw	zero,4(s1)
	.loc 1 2336 9 is_stmt 1
	.loc 1 2336 23 is_stmt 0
	addi	s2,s5,1
	.loc 1 2337 9 is_stmt 1
.LVL326:
	.loc 1 2340 9
	.loc 1 2340 13 is_stmt 0
	call	mbedtls_x509_time_is_past
.LVL327:
	.loc 1 2340 11
	beq	a0,zero,.L223
	.loc 1 2341 13 is_stmt 1
	.loc 1 2341 20 is_stmt 0
	li	a5,1
	sw	a5,4(s1)
.L223:
	.loc 1 2343 9 is_stmt 1
	.loc 1 2343 13 is_stmt 0
	addi	a0,s0,140
	call	mbedtls_x509_time_is_future
.LVL328:
	.loc 1 2343 11
	beq	a0,zero,.L224
	.loc 1 2344 13 is_stmt 1
	.loc 1 2344 20 is_stmt 0
	lw	a5,4(s1)
	ori	a5,a5,512
	sw	a5,4(s1)
.L224:
	.loc 1 2347 9 is_stmt 1
	.loc 1 2347 11 is_stmt 0
	bne	s3,zero,.L225
	.loc 1 2351 9 is_stmt 1
	.loc 1 2351 13 is_stmt 0
	lw	a5,296(s0)
.LVL329:
.LBB120:
.LBB121:
	.loc 1 191 5 is_stmt 1
	.loc 1 191 7 is_stmt 0
	beq	a5,zero,.L226
	.loc 1 194 5 is_stmt 1
	.loc 1 194 52 is_stmt 0
	addi	a4,a5,-1
	.loc 1 194 38
	li	a5,1
.LVL330:
	sll	a5,a5,a4
	.loc 1 194 32
	lw	a4,0(s4)
	and	a5,a5,a4
	.loc 1 194 7
	bne	a5,zero,.L227
.L226:
.LVL331:
.LBE121:
.LBE120:
	.loc 1 2352 13 is_stmt 1
	.loc 1 2352 20 is_stmt 0
	lw	a5,4(s1)
	li	a4,16384
	or	a5,a5,a4
	sw	a5,4(s1)
.L227:
	.loc 1 2354 9 is_stmt 1
	.loc 1 2354 13 is_stmt 0
	lw	a5,300(s0)
.LVL332:
.LBB122:
.LBB123:
	.loc 1 207 5 is_stmt 1
	.loc 1 207 7 is_stmt 0
	beq	a5,zero,.L228
	.loc 1 210 5 is_stmt 1
	.loc 1 210 52 is_stmt 0
	addi	a4,a5,-1
	.loc 1 210 38
	li	a5,1
.LVL333:
	sll	a5,a5,a4
	.loc 1 210 32
	lw	a4,4(s4)
	and	a5,a5,a4
	.loc 1 210 7
	bne	a5,zero,.L229
.L228:
.LVL334:
.LBE123:
.LBE122:
	.loc 1 2355 13 is_stmt 1
	.loc 1 2355 20 is_stmt 0
	lw	a5,4(s1)
	li	a4,32768
	or	a5,a5,a4
	sw	a5,4(s1)
.L229:
	.loc 1 2358 9 is_stmt 1
	.loc 1 2358 11 is_stmt 0
	li	a5,1
	beq	s2,a5,.L230
.L232:
.LVL335:
.LBB124:
.LBB125:
	.loc 1 2182 5 is_stmt 1
	.loc 1 2183 9
	li	a5,2
	sw	a5,4(sp)
	.loc 1 2183 53 is_stmt 0
	lw	s11,8(sp)
.LBB126:
.LBB127:
.LBB128:
.LBB129:
	.loc 1 1968 9
	addi	a5,s0,76
	sw	a5,20(sp)
.LBE129:
.LBE128:
	.loc 1 2079 57
	sub	a5,s2,s9
.LBE127:
.LBE126:
	li	s3,1
.LBB138:
.LBB136:
	sw	a5,24(sp)
.LVL336:
.L231:
	.loc 1 2112 15
	sw	zero,0(sp)
	li	s6,0
.LVL337:
.L237:
	.loc 1 2071 31 is_stmt 1
	.loc 1 2071 5 is_stmt 0
	bne	s11,zero,.L249
.LVL338:
	.loc 1 2133 5 is_stmt 1
.LBE136:
.LBE138:
	.loc 1 2198 9
	.loc 1 2202 9
	.loc 1 2202 11 is_stmt 0
	bne	s6,zero,.L263
.LVL339:
	.loc 1 2202 28
	lw	a4,4(sp)
	li	a5,1
	beq	a4,a5,.L250
.LVL340:
	.loc 1 2182 5 is_stmt 1
	.loc 1 2183 9
	.loc 1 2183 53 is_stmt 0
	lw	s11,308(s0)
	li	s3,0
	sw	a5,4(sp)
	j	.L231
.LVL341:
.L210:
.LBE125:
.LBE124:
.LBE148:
.LBE155:
	.loc 1 2589 9 is_stmt 1
.LBB156:
.LBB157:
	.loc 1 2463 5
	.loc 1 2464 5
	.loc 1 2465 5
	.loc 1 2465 21 is_stmt 0
	mv	a0,s2
	call	strlen
.LVL342:
	.loc 1 2467 24
	lw	a5,248(s0)
	.loc 1 2465 21
	mv	s3,a0
.LVL343:
	.loc 1 2467 5 is_stmt 1
	.loc 1 2467 24 is_stmt 0
	andi	a5,a5,32
	.loc 1 2467 7
	beq	a5,zero,.L212
	.loc 1 2469 9 is_stmt 1
	.loc 1 2469 18 is_stmt 0
	addi	s5,s0,232
.LVL344:
	.loc 1 2469 45 is_stmt 1
.L214:
	.loc 1 2471 13
	.loc 1 2471 17 is_stmt 0
	mv	a2,s3
	mv	a1,s2
	mv	a0,s5
	call	x509_crt_check_cn
.LVL345:
	.loc 1 2471 15
	beq	a0,zero,.L213
	.loc 1 2469 57 is_stmt 1
	.loc 1 2469 61 is_stmt 0
	lw	s5,12(s5)
.LVL346:
	.loc 1 2469 45 is_stmt 1
	.loc 1 2469 9 is_stmt 0
	bne	s5,zero,.L214
.LVL347:
.L217:
	.loc 1 2476 20
	li	s7,4
	j	.L211
.LVL348:
.L212:
	.loc 1 2480 9 is_stmt 1
	.loc 1 2480 19 is_stmt 0
	addi	s7,s0,108
.LVL349:
	.loc 1 2480 36 is_stmt 1
	.loc 1 2482 79 is_stmt 0
	li	s5,3
	.loc 1 2482 82
	lui	s6,%hi(.LC42)
.LVL350:
.L216:
	.loc 1 2482 13 is_stmt 1
	.loc 1 2482 79 is_stmt 0
	lw	a5,4(s7)
	beq	a5,s5,.L215
.L218:
	.loc 1 2480 49 is_stmt 1
	.loc 1 2480 54 is_stmt 0
	lw	s7,24(s7)
.LVL351:
	.loc 1 2480 36 is_stmt 1
	.loc 1 2480 9 is_stmt 0
	bne	s7,zero,.L216
	j	.L217
.L215:
	.loc 1 2482 82
	lw	a1,8(s7)
	li	a2,3
	addi	a0,s6,%lo(.LC42)
	call	memcmp
.LVL352:
	.loc 1 2482 79
	bne	a0,zero,.L218
	.loc 1 2483 17
	mv	a2,s3
	mv	a1,s2
	addi	a0,s7,12
	call	x509_crt_check_cn
.LVL353:
	.loc 1 2482 162
	bne	a0,zero,.L218
	j	.L213
.LVL354:
.L230:
.LBE157:
.LBE156:
.LBB158:
.LBB149:
.LBB143:
.LBB144:
	.loc 1 2229 5 is_stmt 1
	.loc 1 2232 5
	.loc 1 2232 9 is_stmt 0
	addi	a1,s0,108
	addi	a0,s0,76
	call	x509_name_cmp
.LVL355:
	.loc 1 2232 7
	bne	a0,zero,.L232
	.loc 1 2236 14
	lw	s3,8(sp)
.L233:
.LVL356:
	.loc 1 2236 26 is_stmt 1
	.loc 1 2236 5 is_stmt 0
	beq	s3,zero,.L232
	.loc 1 2238 9 is_stmt 1
	.loc 1 2238 21 is_stmt 0
	lw	a2,4(s0)
	.loc 1 2238 11
	lw	a5,4(s3)
	beq	a2,a5,.L234
.L235:
	.loc 1 2236 38 is_stmt 1
	.loc 1 2236 42 is_stmt 0
	lw	s3,308(s3)
.LVL357:
	j	.L233
.L234:
	.loc 1 2239 13
	lw	a1,8(s3)
	lw	a0,8(s0)
	call	memcmp
.LVL358:
	.loc 1 2238 42
	bne	a0,zero,.L235
.LVL359:
.L225:
.LBE144:
.LBE143:
.LBE149:
.LBE158:
	.loc 1 2608 5 is_stmt 1
	.loc 1 2608 30 is_stmt 0
	lw	a5,128(sp)
	slli	s0,s2,3
	or	s7,a5,s7
.LVL360:
	addi	a5,sp,124
	sw	s7,128(sp)
	.loc 1 2611 5 is_stmt 1
.LVL361:
.LBB159:
.LBB160:
	.loc 1 2503 5
	.loc 1 2504 5
	.loc 1 2505 5
	.loc 1 2506 5
	.loc 1 2508 5
	add	s0,a5,s0
	.loc 1 2508 30
.LVL362:
.L256:
	.loc 1 2510 9
	.loc 1 2511 19 is_stmt 0
	lw	a5,-4(s0)
	.loc 1 2510 34
	addi	s2,s2,-1
.LVL363:
	.loc 1 2511 9 is_stmt 1
	.loc 1 2511 19 is_stmt 0
	sw	a5,60(sp)
	.loc 1 2513 9 is_stmt 1
	.loc 1 2513 11 is_stmt 0
	lw	a5,12(sp)
	bne	a5,zero,.L255
.L258:
	.loc 1 2517 9 is_stmt 1
	.loc 1 2517 16 is_stmt 0
	lw	a5,0(s8)
	lw	a4,60(sp)
	addi	s0,s0,-8
	or	a5,a5,a4
	sw	a5,0(s8)
	.loc 1 2508 38 is_stmt 1
.LVL364:
	.loc 1 2508 30
	.loc 1 2508 5 is_stmt 0
	bne	s2,zero,.L256
.LVL365:
.LBE160:
.LBE159:
	.loc 1 2622 5 is_stmt 1
	.loc 1 2625 5
	.loc 1 2631 5
	.loc 1 2634 11 is_stmt 0
	li	a0,0
	.loc 1 2631 7
	beq	a5,zero,.L207
	.loc 1 2632 15
	li	a0,-8192
	addi	a0,a0,-1792
	j	.L207
.LVL366:
.L249:
.LBB162:
.LBB150:
.LBB145:
.LBB140:
.LBB139:
.LBB137:
	.loc 1 2074 9 is_stmt 1
.LBB131:
.LBB130:
	.loc 1 1965 5
	.loc 1 1968 5
	.loc 1 1968 9 is_stmt 0
	lw	a0,20(sp)
	addi	a1,s11,108
	call	x509_name_cmp
.LVL367:
	.loc 1 1968 7
	bne	a0,zero,.L238
	.loc 1 1972 5 is_stmt 1
.LVL368:
	.loc 1 1975 5
	.loc 1 1975 7 is_stmt 0
	beq	s3,zero,.L239
	.loc 1 1975 13
	lw	a5,24(s11)
	li	a4,2
	ble	a5,a4,.L240
.L239:
.LVL369:
	.loc 1 1978 21
	lw	a5,252(s11)
	beq	a5,zero,.L238
	.loc 1 1982 5 is_stmt 1
	.loc 1 1983 9 is_stmt 0
	li	a1,4
	mv	a0,s11
	call	mbedtls_x509_crt_check_key_usage
.LVL370:
	.loc 1 1982 21
	bne	a0,zero,.L238
.L240:
.LVL371:
.LBE130:
.LBE131:
	.loc 1 2078 9 is_stmt 1
	.loc 1 2078 19 is_stmt 0
	lw	a5,256(s11)
	.loc 1 2078 11
	ble	a5,zero,.L241
	.loc 1 2078 37
	lw	a4,24(sp)
	bltu	a5,a4,.L238
.L241:
	.loc 1 2088 9 is_stmt 1
.LVL372:
.LBB132:
.LBB133:
	.loc 1 1925 5
	.loc 1 1926 5
	.loc 1 1928 5
	.loc 1 1928 15 is_stmt 0
	lw	a0,296(s0)
	call	mbedtls_md_info_from_type
.LVL373:
	.loc 1 1929 9
	lw	a2,16(s0)
	lw	a1,20(s0)
	addi	a3,sp,60
	.loc 1 1928 15
	mv	s10,a0
.LVL374:
	.loc 1 1929 5 is_stmt 1
	.loc 1 1929 9 is_stmt 0
	call	mbedtls_md
.LVL375:
	.loc 1 1929 7
	beq	a0,zero,.L242
.L244:
	.loc 1 1932 15
	li	a0,-1
.L243:
.LVL376:
.LBE133:
.LBE132:
	.loc 1 2101 9 is_stmt 1
	.loc 1 2104 9
	.loc 1 2104 33 is_stmt 0
	seqz	s10,a0
.LVL377:
	.loc 1 2105 9 is_stmt 1
	.loc 1 2105 11 is_stmt 0
	beq	s3,zero,.L245
	.loc 1 2105 17
	bne	a0,zero,.L238
.L245:
	.loc 1 2109 9 is_stmt 1
	.loc 1 2109 13 is_stmt 0
	addi	a0,s11,164
.LVL378:
	call	mbedtls_x509_time_is_past
.LVL379:
	.loc 1 2109 11
	beq	a0,zero,.L246
.L247:
	.loc 1 2112 13 is_stmt 1
	.loc 1 2112 15 is_stmt 0
	bne	s6,zero,.L238
.LVL380:
	.loc 1 2104 27
	sw	s10,0(sp)
	.loc 1 2112 15
	mv	s6,s11
.LVL381:
.L238:
	.loc 1 2071 46 is_stmt 1
	.loc 1 2071 53 is_stmt 0
	lw	s11,308(s11)
.LVL382:
	j	.L237
.LVL383:
.L242:
.LBB135:
.LBB134:
	.loc 1 1936 5 is_stmt 1
	.loc 1 1936 11 is_stmt 0
	lw	a1,300(s0)
	.loc 1 1936 30
	addi	a2,s11,188
	.loc 1 1936 11
	mv	a0,a2
	sw	a2,44(sp)
	call	mbedtls_pk_can_do
.LVL384:
	.loc 1 1936 7
	beq	a0,zero,.L244
	.loc 1 1947 5 is_stmt 1
	.loc 1 1950 5
	.loc 1 1950 13 is_stmt 0
	addi	a4,s0,256
	lw	t3,44(a4)
	.loc 1 1950 56
	lw	a1,48(a4)
	.loc 1 1950 13
	lw	a3,40(a4)
	.loc 1 1951 38
	mv	a0,s10
	.loc 1 1950 13
	sw	t3,40(sp)
	.loc 1 1950 56
	sw	a1,36(sp)
	.loc 1 1950 13
	sw	a4,32(sp)
	sw	a3,28(sp)
	.loc 1 1951 38
	call	mbedtls_md_get_size
.LVL385:
	.loc 1 1950 13
	lw	a4,32(sp)
	lw	t3,40(sp)
	lw	a3,28(sp)
	lw	a7,32(a4)
	lw	a6,36(a4)
	lw	a2,44(sp)
	lw	a1,36(sp)
	.loc 1 1951 38
	mv	a5,a0
	.loc 1 1950 13
	addi	a4,sp,60
	mv	a0,t3
	call	mbedtls_pk_verify_ext
.LVL386:
	j	.L243
.LVL387:
.L246:
.LBE134:
.LBE135:
	.loc 1 2110 13
	addi	a0,s11,140
	call	mbedtls_x509_time_is_future
.LVL388:
	.loc 1 2109 60
	bne	a0,zero,.L247
	mv	s6,s11
.LVL389:
.L248:
.LBE137:
.LBE139:
	.loc 1 2216 5 is_stmt 1
.LBE140:
.LBE145:
	.loc 1 2383 9
	.loc 1 2387 9
	.loc 1 2396 9
	.loc 1 2396 11 is_stmt 0
	li	a5,1
	beq	s2,a5,.L252
	.loc 1 2397 13
	addi	a1,s0,108
	addi	a0,s0,76
	call	x509_name_cmp
.LVL390:
	.loc 1 2396 33
	bne	a0,zero,.L251
	.loc 1 2399 13 is_stmt 1
	.loc 1 2399 21 is_stmt 0
	addi	s9,s9,1
.LVL391:
.L251:
	.loc 1 2404 9 is_stmt 1
	.loc 1 2404 11 is_stmt 0
	bne	s3,zero,.L252
	.loc 1 2404 33
	li	a5,8
	bleu	s2,a5,.L252
.LVL392:
.L259:
	.loc 1 2408 19
	li	a0,-12288
.L209:
.LBE150:
.LBE162:
	.loc 1 2627 9 is_stmt 1
	.loc 1 2627 16 is_stmt 0
	li	a5,-1
	sw	a5,0(s8)
	.loc 1 2628 9 is_stmt 1
.L207:
	.loc 1 2635 1 is_stmt 0
	lw	ra,268(sp)
	.cfi_remember_state
	.cfi_restore 1
	lw	s0,264(sp)
	.cfi_restore 8
	lw	s1,260(sp)
	.cfi_restore 9
	lw	s2,256(sp)
	.cfi_restore 18
	lw	s3,252(sp)
	.cfi_restore 19
	lw	s4,248(sp)
	.cfi_restore 20
.LVL393:
	lw	s5,244(sp)
	.cfi_restore 21
	lw	s6,240(sp)
	.cfi_restore 22
	lw	s7,236(sp)
	.cfi_restore 23
	lw	s8,232(sp)
	.cfi_restore 24
.LVL394:
	lw	s9,228(sp)
	.cfi_restore 25
	lw	s10,224(sp)
	.cfi_restore 26
	lw	s11,220(sp)
	.cfi_restore 27
	addi	sp,sp,272
	.cfi_def_cfa_offset 0
.LVL395:
	jr	ra
.LVL396:
.L252:
	.cfi_restore_state
.LBB163:
.LBB151:
	.loc 1 2412 9 is_stmt 1
	.loc 1 2412 11 is_stmt 0
	bne	s10,zero,.L253
	.loc 1 2413 13 is_stmt 1
	.loc 1 2413 20 is_stmt 0
	lw	a5,4(s1)
	ori	a5,a5,8
	sw	a5,4(s1)
.L253:
	.loc 1 2416 9 is_stmt 1
	.loc 1 2416 13 is_stmt 0
	addi	a1,s6,188
	mv	a0,s4
	call	x509_profile_check_key
.LVL397:
	.loc 1 2416 11
	beq	a0,zero,.L254
	.loc 1 2417 13 is_stmt 1
	.loc 1 2417 20 is_stmt 0
	lw	a5,4(s1)
	li	a4,65536
	or	a5,a5,a4
	sw	a5,4(s1)
.L254:
	addi	s1,s1,8
	.loc 1 2336 23
	mv	s5,s2
.LVL398:
	mv	s0,s6
.LVL399:
	j	.L222
.LVL400:
.L255:
.LBE151:
.LBE163:
.LBB164:
.LBB161:
	.loc 1 2514 13 is_stmt 1
	.loc 1 2514 25 is_stmt 0
	lw	a1,-8(s0)
	lw	a0,16(sp)
	lw	a5,12(sp)
	addi	a3,sp,60
	mv	a2,s2
	jalr	a5
.LVL401:
	.loc 1 2514 15
	beq	a0,zero,.L258
.LVL402:
.LDL1:
.LBE161:
.LBE164:
	.loc 1 2622 5 is_stmt 1
	.loc 1 2622 7 is_stmt 0
	li	a5,-8192
	addi	a5,a5,-1792
	beq	a0,a5,.L259
	j	.L209
.LVL403:
.L262:
	.loc 1 2583 13
	li	a0,-8192
	addi	a0,a0,-2048
	j	.L209
.LVL404:
.L250:
.LBB165:
.LBB152:
.LBB146:
.LBB141:
	.loc 1 2216 5 is_stmt 1
.LBE141:
.LBE146:
	.loc 1 2383 9
	.loc 1 2387 9
	.loc 1 2389 13
	.loc 1 2389 20 is_stmt 0
	addi	a5,sp,208
	slli	s5,s5,3
.LVL405:
	add	s5,a5,s5
	lw	a5,-80(s5)
	ori	a5,a5,8
	sw	a5,-80(s5)
	.loc 1 2390 13 is_stmt 1
.LVL406:
.LBE152:
.LBE165:
	.loc 1 2604 5
	j	.L225
.LVL407:
.L263:
.LBB166:
.LBB153:
.LBB147:
.LBB142:
	lw	s10,0(sp)
	j	.L248
.LBE142:
.LBE147:
.LBE153:
.LBE166:
	.cfi_endproc
.LFE55:
	.size	mbedtls_x509_crt_verify_restartable, .-mbedtls_x509_crt_verify_restartable
	.section	.text.mbedtls_x509_crt_verify,"ax",@progbits
	.align	1
	.globl	mbedtls_x509_crt_verify
	.type	mbedtls_x509_crt_verify, @function
mbedtls_x509_crt_verify:
.LFB53:
	.loc 1 2532 1
	.cfi_startproc
.LVL408:
	.loc 1 2533 5
	.loc 1 2532 1 is_stmt 0
	addi	sp,sp,-32
	.cfi_def_cfa_offset 32
	.loc 1 2533 13
	mv	a7,a6
	mv	a6,a5
.LVL409:
	mv	a5,a4
.LVL410:
	mv	a4,a3
.LVL411:
	lui	a3,%hi(.LANCHOR1)
.LVL412:
	sw	zero,0(sp)
	addi	a3,a3,%lo(.LANCHOR1)
	.loc 1 2532 1
	sw	ra,28(sp)
	.cfi_offset 1, -4
	.loc 1 2533 13
	call	mbedtls_x509_crt_verify_restartable
.LVL413:
	.loc 1 2536 1
	lw	ra,28(sp)
	.cfi_restore 1
	addi	sp,sp,32
	.cfi_def_cfa_offset 0
	jr	ra
	.cfi_endproc
.LFE53:
	.size	mbedtls_x509_crt_verify, .-mbedtls_x509_crt_verify
	.section	.text.mbedtls_x509_crt_verify_with_profile,"ax",@progbits
	.align	1
	.globl	mbedtls_x509_crt_verify_with_profile
	.type	mbedtls_x509_crt_verify_with_profile, @function
mbedtls_x509_crt_verify_with_profile:
.LFB54:
	.loc 1 2548 1 is_stmt 1
	.cfi_startproc
.LVL414:
	.loc 1 2549 5
	.loc 1 2548 1 is_stmt 0
	addi	sp,sp,-32
	.cfi_def_cfa_offset 32
	.loc 1 2549 13
	sw	zero,0(sp)
	.loc 1 2548 1
	sw	ra,28(sp)
	.cfi_offset 1, -4
	.loc 1 2549 13
	call	mbedtls_x509_crt_verify_restartable
.LVL415:
	.loc 1 2551 1
	lw	ra,28(sp)
	.cfi_restore 1
	addi	sp,sp,32
	.cfi_def_cfa_offset 0
	jr	ra
	.cfi_endproc
.LFE54:
	.size	mbedtls_x509_crt_verify_with_profile, .-mbedtls_x509_crt_verify_with_profile
	.section	.text.mbedtls_x509_crt_init,"ax",@progbits
	.align	1
	.globl	mbedtls_x509_crt_init
	.type	mbedtls_x509_crt_init, @function
mbedtls_x509_crt_init:
.LFB56:
	.loc 1 2641 1 is_stmt 1
	.cfi_startproc
.LVL416:
	.loc 1 2642 5
	li	a2,312
	li	a1,0
	tail	memset
.LVL417:
	.cfi_endproc
.LFE56:
	.size	mbedtls_x509_crt_init, .-mbedtls_x509_crt_init
	.section	.text.mbedtls_x509_crt_free,"ax",@progbits
	.align	1
	.globl	mbedtls_x509_crt_free
	.type	mbedtls_x509_crt_free, @function
mbedtls_x509_crt_free:
.LFB57:
	.loc 1 2649 1
	.cfi_startproc
.LVL418:
	.loc 1 2650 5
	.loc 1 2651 5
	.loc 1 2652 5
	.loc 1 2653 5
	.loc 1 2654 5
	.loc 1 2655 5
	.loc 1 2657 5
	.loc 1 2657 7 is_stmt 0
	beq	a0,zero,.L345
	.loc 1 2649 1
	addi	sp,sp,-32
	.cfi_def_cfa_offset 32
	sw	s0,24(sp)
	sw	s1,20(sp)
	sw	ra,28(sp)
	sw	s2,16(sp)
	.cfi_offset 8, -8
	.cfi_offset 9, -12
	.cfi_offset 1, -4
	.cfi_offset 18, -16
	mv	s1,a0
	mv	s0,a0
.LVL419:
.L333:
.LBB169:
.LBB170:
	.loc 1 2660 5 is_stmt 1
	.loc 1 2662 9
	addi	a0,s0,188
	call	mbedtls_pk_free
.LVL420:
	.loc 1 2668 9
	.loc 1 2668 18 is_stmt 0
	lw	a0,100(s0)
.LVL421:
	.loc 1 2669 9 is_stmt 1
.L324:
	.loc 1 2669 14
	bne	a0,zero,.L325
	.loc 1 2677 9
	.loc 1 2677 18 is_stmt 0
	lw	a0,132(s0)
.LVL422:
	.loc 1 2678 9 is_stmt 1
.L326:
	.loc 1 2678 14
	bne	a0,zero,.L327
	.loc 1 2686 9
	.loc 1 2686 17 is_stmt 0
	lw	a0,276(s0)
.LVL423:
	.loc 1 2687 9 is_stmt 1
.L328:
	.loc 1 2687 14
	bne	a0,zero,.L329
	.loc 1 2696 9
	.loc 1 2696 17 is_stmt 0
	lw	a0,244(s0)
.LVL424:
	.loc 1 2697 9 is_stmt 1
.L330:
	.loc 1 2697 14
	bne	a0,zero,.L331
	.loc 1 2706 9
	.loc 1 2706 26 is_stmt 0
	lw	a0,8(s0)
.LVL425:
	.loc 1 2706 11
	beq	a0,zero,.L332
	.loc 1 2708 13 is_stmt 1
	lw	a1,4(s0)
	call	mbedtls_platform_zeroize
.LVL426:
	.loc 1 2709 13
	lw	a0,8(s0)
	call	mbedtls_free
.LVL427:
.L332:
	.loc 1 2712 9
	.loc 1 2712 18 is_stmt 0
	lw	s0,308(s0)
.LVL428:
	.loc 1 2714 10 is_stmt 1
	.loc 1 2714 28 is_stmt 0
	bne	s0,zero,.L333
	mv	s0,s1
.LVL429:
.L335:
	.loc 1 2717 5 is_stmt 1
	.loc 1 2719 9
	.loc 1 2720 9
	mv	a0,s0
	.loc 1 2722 9 is_stmt 0
	li	a1,312
	sw	a0,12(sp)
	.loc 1 2720 18
	lw	s0,308(s0)
.LVL430:
	.loc 1 2722 9 is_stmt 1
	call	mbedtls_platform_zeroize
.LVL431:
	.loc 1 2723 9
	.loc 1 2723 11 is_stmt 0
	lw	a0,12(sp)
	beq	s1,a0,.L334
	.loc 1 2724 13 is_stmt 1
	call	mbedtls_free
.LVL432:
.L334:
	.loc 1 2726 10
	.loc 1 2726 28 is_stmt 0
	bne	s0,zero,.L335
.LBE170:
.LBE169:
	.loc 1 2727 1
	lw	ra,28(sp)
	.cfi_remember_state
	.cfi_restore 1
	lw	s0,24(sp)
	.cfi_restore 8
.LVL433:
	lw	s1,20(sp)
	.cfi_restore 9
.LVL434:
	lw	s2,16(sp)
	.cfi_restore 18
	addi	sp,sp,32
	.cfi_def_cfa_offset 0
.LVL435:
	jr	ra
.LVL436:
.L325:
	.cfi_restore_state
.LBB172:
.LBB171:
	.loc 1 2671 13 is_stmt 1
	.loc 1 2672 13
	.loc 1 2673 13 is_stmt 0
	li	a1,32
	.loc 1 2672 22
	lw	s2,24(a0)
.LVL437:
	.loc 1 2673 13 is_stmt 1
	sw	a0,12(sp)
	call	mbedtls_platform_zeroize
.LVL438:
	.loc 1 2674 13
	lw	a0,12(sp)
	call	mbedtls_free
.LVL439:
	.loc 1 2672 22 is_stmt 0
	mv	a0,s2
	j	.L324
.LVL440:
.L327:
	.loc 1 2680 13 is_stmt 1
	.loc 1 2681 13
	.loc 1 2682 13 is_stmt 0
	li	a1,32
	.loc 1 2681 22
	lw	s2,24(a0)
.LVL441:
	.loc 1 2682 13 is_stmt 1
	sw	a0,12(sp)
	call	mbedtls_platform_zeroize
.LVL442:
	.loc 1 2683 13
	lw	a0,12(sp)
	call	mbedtls_free
.LVL443:
	.loc 1 2681 22 is_stmt 0
	mv	a0,s2
	j	.L326
.LVL444:
.L329:
	.loc 1 2689 13 is_stmt 1
	.loc 1 2690 13
	.loc 1 2691 13 is_stmt 0
	li	a1,16
	.loc 1 2690 21
	lw	s2,12(a0)
.LVL445:
	.loc 1 2691 13 is_stmt 1
	sw	a0,12(sp)
	call	mbedtls_platform_zeroize
.LVL446:
	.loc 1 2693 13
	lw	a0,12(sp)
	call	mbedtls_free
.LVL447:
	.loc 1 2690 21 is_stmt 0
	mv	a0,s2
	j	.L328
.LVL448:
.L331:
	.loc 1 2699 13 is_stmt 1
	.loc 1 2700 13
	.loc 1 2701 13 is_stmt 0
	li	a1,16
	.loc 1 2700 21
	lw	s2,12(a0)
.LVL449:
	.loc 1 2701 13 is_stmt 1
	sw	a0,12(sp)
	call	mbedtls_platform_zeroize
.LVL450:
	.loc 1 2703 13
	lw	a0,12(sp)
	call	mbedtls_free
.LVL451:
	.loc 1 2700 21 is_stmt 0
	mv	a0,s2
	j	.L330
.LVL452:
.L345:
	.cfi_def_cfa_offset 0
	.cfi_restore 1
	.cfi_restore 8
	.cfi_restore 9
	.cfi_restore 18
	ret
.LBE171:
.LBE172:
	.cfi_endproc
.LFE57:
	.size	mbedtls_x509_crt_free, .-mbedtls_x509_crt_free
	.section	.text.mbedtls_x509_crt_parse_der,"ax",@progbits
	.align	1
	.globl	mbedtls_x509_crt_parse_der
	.type	mbedtls_x509_crt_parse_der, @function
mbedtls_x509_crt_parse_der:
.LFB32:
	.loc 1 1122 1 is_stmt 1
	.cfi_startproc
.LVL453:
	.loc 1 1123 5
	.loc 1 1124 5
	.loc 1 1129 5
	.loc 1 1122 1 is_stmt 0
	addi	sp,sp,-176
	.cfi_def_cfa_offset 176
	sw	ra,172(sp)
	sw	s0,168(sp)
	sw	s1,164(sp)
	sw	s2,160(sp)
	sw	s3,156(sp)
	sw	s4,152(sp)
	sw	s5,148(sp)
	sw	s6,144(sp)
	sw	s7,140(sp)
	sw	s8,136(sp)
	sw	s9,132(sp)
	sw	s10,128(sp)
	sw	s11,124(sp)
	.cfi_offset 1, -4
	.cfi_offset 8, -8
	.cfi_offset 9, -12
	.cfi_offset 18, -16
	.cfi_offset 19, -20
	.cfi_offset 20, -24
	.cfi_offset 21, -28
	.cfi_offset 22, -32
	.cfi_offset 23, -36
	.cfi_offset 24, -40
	.cfi_offset 25, -44
	.cfi_offset 26, -48
	.cfi_offset 27, -52
	.loc 1 1129 7
	beq	a0,zero,.L448
	mv	s2,a1
	.loc 1 1129 20 discriminator 1
	beq	a1,zero,.L448
	mv	s3,a0
	mv	s0,a2
	mv	s1,a0
.LBB194:
.LBB195:
	.loc 1 1124 37
	li	s4,0
.L351:
.LVL454:
	.loc 1 1132 10 is_stmt 1
	lw	a5,24(s1)
	beq	a5,zero,.L350
	.loc 1 1132 36 is_stmt 0
	lw	a5,308(s1)
	mv	s4,s1
.LVL455:
	.loc 1 1132 30
	bne	a5,zero,.L449
	.loc 1 1141 5 is_stmt 1
	.loc 1 1143 9
	.loc 1 1143 21 is_stmt 0
	li	a1,312
.LVL456:
	li	a0,1
.LVL457:
	call	mbedtls_calloc
.LVL458:
	.loc 1 1143 19
	sw	a0,308(s1)
	.loc 1 1145 9 is_stmt 1
	.loc 1 1145 11 is_stmt 0
	bne	a0,zero,.L492
	.loc 1 1146 19
	li	a0,-12288
	addi	s0,a0,1920
.LVL459:
	j	.L348
.LVL460:
.L449:
	mv	s1,a5
.LVL461:
	j	.L351
.LVL462:
.L492:
	.loc 1 1148 9 is_stmt 1
	.loc 1 1149 9
	call	mbedtls_x509_crt_init
.LVL463:
	.loc 1 1150 9
	.loc 1 1150 13 is_stmt 0
	lw	s1,308(s1)
.LVL464:
.L350:
	.loc 1 1153 5 is_stmt 1
.LBB196:
.LBB197:
	.loc 1 865 5
	.loc 1 866 5
	.loc 1 867 5
	.loc 1 868 5
	.loc 1 870 5
	li	a2,12
	li	a1,0
	addi	a0,sp,52
	call	memset
.LVL465:
	.loc 1 871 5
	li	a2,12
	li	a1,0
	addi	a0,sp,64
	call	memset
.LVL466:
	.loc 1 872 5
	li	a2,12
	li	a1,0
	addi	a0,sp,76
	call	memset
.LVL467:
	.loc 1 877 5
	.loc 1 877 7 is_stmt 0
	beq	s1,zero,.L353
	.loc 1 881 5 is_stmt 1
	.loc 1 882 9 is_stmt 0
	sw	s0,28(sp)
	.loc 1 883 9
	add	s0,s2,s0
.LVL468:
	.loc 1 891 17
	li	a3,48
	addi	a2,sp,28
.LVL469:
	mv	a1,s0
	addi	a0,sp,32
	.loc 1 881 7
	sw	s2,32(sp)
	.loc 1 882 5 is_stmt 1
	.loc 1 883 5
.LVL470:
	.loc 1 891 5
	.loc 1 891 17 is_stmt 0
	call	mbedtls_asn1_get_tag
.LVL471:
	.loc 1 891 7
	beq	a0,zero,.L354
	.loc 1 894 9 is_stmt 1
	mv	a0,s1
.LVL472:
	call	mbedtls_x509_crt_free
.LVL473:
	.loc 1 895 9
	.loc 1 895 15 is_stmt 0
	li	a0,-8192
	addi	s0,a0,-384
.LVL474:
.L355:
.LBE197:
.LBE196:
	.loc 1 1155 9 is_stmt 1
	.loc 1 1155 11 is_stmt 0
	beq	s4,zero,.L445
.L443:
	.loc 1 1156 13 is_stmt 1
	.loc 1 1156 24 is_stmt 0
	sw	zero,308(s4)
.L445:
	.loc 1 1158 9 is_stmt 1
	.loc 1 1158 11 is_stmt 0
	bne	s3,s1,.L444
	j	.L348
.LVL475:
.L354:
.LBB271:
.LBB268:
	.loc 1 898 5 is_stmt 1
	.loc 1 898 30 is_stmt 0
	lw	a1,32(sp)
	.loc 1 898 13
	lw	a5,28(sp)
	.loc 1 898 30
	sub	s0,s0,a1
.LVL476:
	.loc 1 898 7
	bgeu	s0,a5,.L356
.LVL477:
.L508:
	.loc 1 1108 9 is_stmt 1
	mv	a0,s1
	call	mbedtls_x509_crt_free
.LVL478:
	.loc 1 1109 9
	.loc 1 1109 15 is_stmt 0
	li	a0,-8192
	addi	s0,a0,-486
	j	.L355
.LVL479:
.L356:
	.loc 1 904 5 is_stmt 1
	.loc 1 907 5
	.loc 1 904 13 is_stmt 0
	add	a1,a1,a5
.LVL480:
	.loc 1 907 28
	sub	a1,a1,s2
.LVL481:
	.loc 1 907 18
	sw	a1,4(s1)
	.loc 1 908 5 is_stmt 1
	.loc 1 908 22 is_stmt 0
	li	a0,1
.LVL482:
	call	mbedtls_calloc
.LVL483:
	.loc 1 908 20
	sw	a0,32(sp)
	.loc 1 908 16
	sw	a0,8(s1)
	.loc 1 909 5 is_stmt 1
	.loc 1 909 7 is_stmt 0
	bne	a0,zero,.L357
.LVL484:
	.loc 1 910 15
	li	a0,-12288
	addi	s0,a0,1920
	j	.L355
.LVL485:
.L357:
	.loc 1 912 5 is_stmt 1
	lw	a2,4(s1)
	mv	a1,s2
	call	memcpy
.LVL486:
	.loc 1 915 5
	.loc 1 915 18 is_stmt 0
	lw	a4,4(s1)
	.loc 1 915 23
	lw	a5,28(sp)
	.loc 1 915 7
	lw	s2,32(sp)
.LVL487:
	.loc 1 923 17
	li	a3,48
	.loc 1 915 23
	sub	a5,a4,a5
	.loc 1 915 7
	add	a5,s2,a5
	.loc 1 916 19
	add	s2,s2,a4
	.loc 1 921 16
	sw	a5,20(s1)
	.loc 1 923 17
	addi	a2,sp,28
	mv	a1,s2
	addi	a0,sp,32
	.loc 1 915 7
	sw	a5,32(sp)
	.loc 1 916 5 is_stmt 1
.LVL488:
	.loc 1 921 5
	.loc 1 923 5
	.loc 1 923 17 is_stmt 0
	call	mbedtls_asn1_get_tag
.LVL489:
	mv	s0,a0
.LVL490:
	.loc 1 923 7
	beq	a0,zero,.L358
.LVL491:
.L506:
	.loc 1 1006 9 is_stmt 1
	mv	a0,s1
	call	mbedtls_x509_crt_free
.LVL492:
	.loc 1 1007 9
	.loc 1 1007 25 is_stmt 0
	li	a0,-8192
	addi	a0,a0,-384
	add	s0,s0,a0
.LVL493:
.LBE268:
.LBE271:
	.loc 1 1153 7
	bne	s0,zero,.L355
.LVL494:
.L348:
.LBE195:
.LBE194:
	.loc 1 1165 1
	lw	ra,172(sp)
	.cfi_remember_state
	.cfi_restore 1
	mv	a0,s0
	lw	s0,168(sp)
	.cfi_restore 8
	lw	s1,164(sp)
	.cfi_restore 9
	lw	s2,160(sp)
	.cfi_restore 18
	lw	s3,156(sp)
	.cfi_restore 19
	lw	s4,152(sp)
	.cfi_restore 20
	lw	s5,148(sp)
	.cfi_restore 21
	lw	s6,144(sp)
	.cfi_restore 22
	lw	s7,140(sp)
	.cfi_restore 23
	lw	s8,136(sp)
	.cfi_restore 24
	lw	s9,132(sp)
	.cfi_restore 25
	lw	s10,128(sp)
	.cfi_restore 26
	lw	s11,124(sp)
	.cfi_restore 27
	addi	sp,sp,176
	.cfi_def_cfa_offset 0
	jr	ra
.LVL495:
.L358:
	.cfi_restore_state
.LBB276:
.LBB274:
.LBB272:
.LBB269:
	.loc 1 930 5 is_stmt 1
	.loc 1 930 9 is_stmt 0
	lw	a5,28(sp)
	lw	s5,32(sp)
.LBB198:
.LBB199:
	.loc 1 412 17
	li	a3,160
	addi	a2,sp,100
.LBE199:
.LBE198:
	.loc 1 930 9
	add	s5,s5,a5
.LVL496:
	.loc 1 931 5 is_stmt 1
	.loc 1 931 24 is_stmt 0
	lw	a5,20(s1)
.LBB204:
.LBB200:
	.loc 1 412 17
	mv	a1,s5
	addi	a0,sp,32
.LBE200:
.LBE204:
	.loc 1 931 24
	sub	a5,s5,a5
	.loc 1 931 18
	sw	a5,16(s1)
	.loc 1 940 5 is_stmt 1
.LVL497:
.LBB205:
.LBB201:
	.loc 1 409 5
	.loc 1 410 5
	.loc 1 412 5
	.loc 1 412 17 is_stmt 0
	call	mbedtls_asn1_get_tag
.LVL498:
	.loc 1 412 7
	beq	a0,zero,.L360
	.loc 1 415 9 is_stmt 1
	.loc 1 415 11 is_stmt 0
	li	a5,-98
	bne	a0,a5,.L361
	.loc 1 417 13 is_stmt 1
	.loc 1 417 18 is_stmt 0
	sw	zero,24(s1)
	.loc 1 418 13 is_stmt 1
.LVL499:
.L362:
.LBE201:
.LBE205:
	.loc 1 941 17 is_stmt 0
	addi	a2,s1,28
	mv	a1,s5
	addi	a0,sp,32
	call	mbedtls_x509_get_serial
.LVL500:
	mv	s0,a0
.LVL501:
	.loc 1 940 67
	bne	a0,zero,.L507
	.loc 1 942 17
	addi	s6,s1,40
	addi	a3,sp,52
	mv	a2,s6
	mv	a1,s5
	addi	a0,sp,32
	call	mbedtls_x509_get_alg
.LVL502:
	mv	s0,a0
.LVL503:
	.loc 1 941 73
	bne	a0,zero,.L507
	.loc 1 949 5 is_stmt 1
	.loc 1 949 12 is_stmt 0
	lw	a5,24(s1)
	.loc 1 949 7
	li	a4,2
	bleu	a5,a4,.L369
	.loc 1 951 9 is_stmt 1
	mv	a0,s1
	call	mbedtls_x509_crt_free
.LVL504:
	.loc 1 952 9
	.loc 1 952 15 is_stmt 0
	li	a0,-8192
	addi	s0,a0,-1408
	j	.L355
.LVL505:
.L361:
.LBB206:
.LBB202:
	.loc 1 421 9 is_stmt 1
	.loc 1 421 25 is_stmt 0
	li	s0,-8192
.LVL506:
	addi	s0,s0,-384
.LVL507:
.L494:
	.loc 1 427 25
	add	s0,a0,s0
.LVL508:
.LBE202:
.LBE206:
	.loc 1 940 7
	beq	s0,zero,.L362
.LVL509:
.L507:
	.loc 1 1102 9 is_stmt 1
	mv	a0,s1
	call	mbedtls_x509_crt_free
.LVL510:
	.loc 1 1103 9
	.loc 1 1103 15 is_stmt 0
	j	.L355
.LVL511:
.L360:
.LBB207:
.LBB203:
	.loc 1 424 5 is_stmt 1
	.loc 1 424 9 is_stmt 0
	lw	a1,100(sp)
	lw	s0,32(sp)
.LVL512:
	.loc 1 426 17
	addi	a2,s1,24
	addi	a0,sp,32
.LVL513:
	.loc 1 424 9
	add	s0,s0,a1
.LVL514:
	.loc 1 426 5 is_stmt 1
	.loc 1 426 17 is_stmt 0
	mv	a1,s0
	call	mbedtls_asn1_get_int
.LVL515:
	.loc 1 426 7
	beq	a0,zero,.L364
	.loc 1 427 9 is_stmt 1
	.loc 1 427 25 is_stmt 0
	li	s0,-8192
.LVL516:
	addi	s0,s0,-512
	j	.L494
.LVL517:
.L364:
	.loc 1 429 5 is_stmt 1
	.loc 1 429 7 is_stmt 0
	lw	a5,32(sp)
	beq	s0,a5,.L362
	.loc 1 430 9 is_stmt 1
.LVL518:
	.loc 1 430 15 is_stmt 0
	li	a0,-8192
	addi	s0,a0,-614
	j	.L507
.LVL519:
.L369:
.LBE203:
.LBE207:
	.loc 1 955 5 is_stmt 1
	.loc 1 955 17 is_stmt 0
	addi	a5,a5,1
	sw	a5,24(s1)
	.loc 1 957 5 is_stmt 1
	.loc 1 957 17 is_stmt 0
	addi	a4,s1,304
	addi	a3,s1,300
	addi	a2,s1,296
	addi	a1,sp,52
	mv	a0,s6
	call	mbedtls_x509_get_sig_alg
.LVL520:
	mv	s0,a0
.LVL521:
	.loc 1 957 7
	bne	a0,zero,.L507
	.loc 1 968 5 is_stmt 1
	.loc 1 968 23 is_stmt 0
	lw	a5,32(sp)
	.loc 1 970 17
	li	a3,48
	addi	a2,sp,28
	.loc 1 968 23
	sw	a5,60(s1)
	.loc 1 970 5 is_stmt 1
	.loc 1 970 17 is_stmt 0
	mv	a1,s5
	addi	a0,sp,32
	call	mbedtls_asn1_get_tag
.LVL522:
	mv	s0,a0
.LVL523:
	.loc 1 970 7
	bne	a0,zero,.L506
	.loc 1 977 5 is_stmt 1
	.loc 1 977 17 is_stmt 0
	lw	a1,32(sp)
	lw	a5,28(sp)
	addi	a2,s1,76
	addi	a0,sp,32
	add	a1,a1,a5
	call	mbedtls_x509_get_name
.LVL524:
	mv	s0,a0
.LVL525:
	.loc 1 977 7
	bne	a0,zero,.L507
	.loc 1 983 5 is_stmt 1
	.loc 1 983 29 is_stmt 0
	lw	a4,60(s1)
	lw	a5,32(sp)
.LBB208:
.LBB209:
	.loc 1 449 17
	li	a3,48
	addi	a2,sp,100
.LBE209:
.LBE208:
	.loc 1 983 29
	sub	a5,a5,a4
	.loc 1 983 25
	sw	a5,56(s1)
	.loc 1 991 5 is_stmt 1
.LVL526:
.LBB212:
.LBB210:
	.loc 1 446 5
	.loc 1 447 5
	.loc 1 449 5
	.loc 1 449 17 is_stmt 0
	mv	a1,s5
	addi	a0,sp,32
.LVL527:
	call	mbedtls_asn1_get_tag
.LVL528:
	.loc 1 449 7
	beq	a0,zero,.L373
	.loc 1 451 9 is_stmt 1
	.loc 1 451 25 is_stmt 0
	li	s0,-8192
.LVL529:
	addi	s0,s0,-1024
	add	s0,a0,s0
.LVL530:
.LBE210:
.LBE212:
	.loc 1 991 7
	bne	s0,zero,.L507
.LVL531:
.L375:
	.loc 1 1001 5 is_stmt 1
	.loc 1 1001 24 is_stmt 0
	lw	a5,32(sp)
	.loc 1 1003 17
	li	a3,48
	addi	a2,sp,28
	.loc 1 1001 24
	sw	a5,72(s1)
	.loc 1 1003 5 is_stmt 1
	.loc 1 1003 17 is_stmt 0
	mv	a1,s5
	addi	a0,sp,32
	call	mbedtls_asn1_get_tag
.LVL532:
	mv	s0,a0
.LVL533:
	.loc 1 1003 7
	bne	a0,zero,.L506
	.loc 1 1010 5 is_stmt 1
	.loc 1 1010 9 is_stmt 0
	lw	a5,28(sp)
	.loc 1 1010 7
	beq	a5,zero,.L379
	.loc 1 1010 24
	lw	a1,32(sp)
	addi	a2,s1,108
	addi	a0,sp,32
	add	a1,a1,a5
	call	mbedtls_x509_get_name
.LVL534:
	mv	s0,a0
.LVL535:
	.loc 1 1010 13
	bne	a0,zero,.L507
.L379:
	.loc 1 1016 5 is_stmt 1
	.loc 1 1016 30 is_stmt 0
	lw	a4,72(s1)
	lw	a5,32(sp)
	.loc 1 1021 17
	addi	a2,s1,188
	mv	a1,s5
	.loc 1 1016 30
	sub	a5,a5,a4
	.loc 1 1016 26
	sw	a5,68(s1)
	.loc 1 1021 5 is_stmt 1
	.loc 1 1021 17 is_stmt 0
	addi	a0,sp,32
	call	mbedtls_pk_parse_subpubkey
.LVL536:
	mv	s0,a0
.LVL537:
	.loc 1 1021 7
	bne	a0,zero,.L507
	.loc 1 1035 5 is_stmt 1
	.loc 1 1035 27 is_stmt 0
	lw	a5,24(s1)
	.loc 1 1035 7
	li	s6,1
	.loc 1 1035 27
	addi	a5,a5,-2
	.loc 1 1035 7
	bgtu	a5,s6,.L381
	.loc 1 1037 9 is_stmt 1
	.loc 1 1037 15 is_stmt 0
	li	a3,1
	addi	a2,s1,196
	mv	a1,s5
	addi	a0,sp,32
	call	x509_get_uid
.LVL538:
	mv	s0,a0
.LVL539:
	.loc 1 1038 9 is_stmt 1
	.loc 1 1038 11 is_stmt 0
	bne	a0,zero,.L507
	.loc 1 1045 5 is_stmt 1
	.loc 1 1045 27 is_stmt 0
	lw	a5,24(s1)
	addi	a5,a5,-2
	.loc 1 1045 7
	bgtu	a5,s6,.L381
	.loc 1 1047 9 is_stmt 1
	.loc 1 1047 15 is_stmt 0
	li	a3,2
	addi	a2,s1,208
	mv	a1,s5
	addi	a0,sp,32
	call	x509_get_uid
.LVL540:
	mv	s0,a0
.LVL541:
	.loc 1 1048 9 is_stmt 1
	.loc 1 1048 11 is_stmt 0
	bne	a0,zero,.L507
.L381:
	.loc 1 1056 5 is_stmt 1
	.loc 1 1056 7 is_stmt 0
	lw	a4,24(s1)
	li	a5,3
	bne	a4,a5,.L435
	.loc 1 1059 9 is_stmt 1
.LVL542:
.LBB213:
.LBB214:
	.loc 1 729 5
	.loc 1 730 5
	.loc 1 731 5
	.loc 1 733 5
	.loc 1 733 7 is_stmt 0
	lw	a5,32(sp)
	beq	s5,a5,.L436
	.loc 1 736 5 is_stmt 1
	.loc 1 736 17 is_stmt 0
	li	a3,3
	addi	a2,s1,220
	mv	a1,s5
	addi	a0,sp,32
.LVL543:
	call	mbedtls_x509_get_ext
.LVL544:
	mv	s0,a0
.LVL545:
	.loc 1 736 7
	bne	a0,zero,.L507
	.loc 1 739 5 is_stmt 1
	.loc 1 739 9 is_stmt 0
	lw	s7,228(s1)
	lw	a5,224(s1)
.LBB215:
.LBB216:
.LBB217:
	.loc 1 544 7
	li	s8,-2147483648
	.loc 1 536 25
	li	s6,-8192
.LBE217:
.LBE216:
.LBE215:
	.loc 1 739 9
	add	s7,s7,a5
.LVL546:
	.loc 1 740 5 is_stmt 1
.LBB246:
.LBB222:
.LBB218:
	.loc 1 544 7 is_stmt 0
	xori	s8,s8,-1
	.loc 1 536 25
	addi	s6,s6,-1280
.LVL547:
.L386:
.LBE218:
.LBE222:
.LBE246:
	.loc 1 740 10 is_stmt 1
	.loc 1 740 12 is_stmt 0
	lw	a5,32(sp)
	.loc 1 740 10
	bgtu	s7,a5,.L433
	.loc 1 852 5 is_stmt 1
	.loc 1 852 7 is_stmt 0
	beq	s7,a5,.L435
	j	.L504
.LVL548:
.L373:
.LBE214:
.LBE213:
.LBB260:
.LBB211:
	.loc 1 453 5 is_stmt 1
	.loc 1 453 9 is_stmt 0
	lw	a1,100(sp)
	lw	s6,32(sp)
	.loc 1 455 17
	addi	a2,s1,140
	addi	a0,sp,32
.LVL549:
	.loc 1 453 9
	add	s6,s6,a1
.LVL550:
	.loc 1 455 5 is_stmt 1
	.loc 1 455 17 is_stmt 0
	mv	a1,s6
	call	mbedtls_x509_get_time
.LVL551:
	mv	s0,a0
.LVL552:
	.loc 1 455 7
	bne	a0,zero,.L507
	.loc 1 458 5 is_stmt 1
	.loc 1 458 17 is_stmt 0
	addi	a2,s1,164
	mv	a1,s6
	addi	a0,sp,32
.LVL553:
	call	mbedtls_x509_get_time
.LVL554:
	mv	s0,a0
.LVL555:
	.loc 1 458 7
	bne	a0,zero,.L507
	.loc 1 461 5 is_stmt 1
	.loc 1 461 7 is_stmt 0
	lw	a5,32(sp)
	beq	s6,a5,.L375
	.loc 1 462 9 is_stmt 1
.LVL556:
	.loc 1 462 15 is_stmt 0
	li	a0,-8192
	addi	s0,a0,-1126
.LVL557:
.LBE211:
.LBE260:
	.loc 1 994 9 is_stmt 1
	j	.L507
.LVL558:
.L433:
.LBB261:
.LBB253:
.LBB247:
	.loc 1 748 9
	.loc 1 752 21 is_stmt 0
	li	a3,48
	addi	a2,sp,36
	mv	a1,s7
	addi	a0,sp,32
.LVL559:
	.loc 1 748 26
	sw	zero,88(sp)
	sw	zero,92(sp)
	sw	zero,96(sp)
	.loc 1 749 9 is_stmt 1
	.loc 1 749 13 is_stmt 0
	sw	zero,40(sp)
	.loc 1 750 9 is_stmt 1
	.loc 1 750 13 is_stmt 0
	sw	zero,44(sp)
	.loc 1 752 9 is_stmt 1
	.loc 1 752 21 is_stmt 0
	call	mbedtls_asn1_get_tag
.LVL560:
	.loc 1 752 11
	beq	a0,zero,.L387
.L498:
	.loc 1 775 13 is_stmt 1
	.loc 1 775 29 is_stmt 0
	li	s0,-8192
	addi	s0,s0,-1280
	add	s0,a0,s0
.LVL561:
.LBE247:
.LBE253:
.LBE261:
	.loc 1 1060 9 is_stmt 1
	.loc 1 1060 11 is_stmt 0
	bne	s0,zero,.L507
.LVL562:
.L435:
	.loc 1 1067 5 is_stmt 1
	.loc 1 1067 7 is_stmt 0
	lw	a5,32(sp)
	bne	s5,a5,.L508
.L436:
	.loc 1 1074 5 is_stmt 1
.LVL563:
	.loc 1 1083 5
	.loc 1 1083 17 is_stmt 0
	addi	a3,sp,64
	addi	a2,sp,76
	mv	a1,s2
	addi	a0,sp,32
	call	mbedtls_x509_get_alg
.LVL564:
	mv	s0,a0
.LVL565:
	.loc 1 1083 7
	bne	a0,zero,.L507
	.loc 1 1089 5 is_stmt 1
	.loc 1 1089 21 is_stmt 0
	lw	a2,44(s1)
	.loc 1 1089 7
	lw	a5,80(sp)
	beq	a2,a5,.L438
.L439:
	.loc 1 1096 9 is_stmt 1
	mv	a0,s1
	call	mbedtls_x509_crt_free
.LVL566:
	.loc 1 1097 9
	.loc 1 1097 15 is_stmt 0
	li	a0,-8192
	addi	s0,a0,-1664
	j	.L355
.LVL567:
.L387:
.LBB262:
.LBB254:
.LBB248:
	.loc 1 756 9 is_stmt 1
	.loc 1 756 22 is_stmt 0
	lw	s0,32(sp)
	lw	a5,36(sp)
	.loc 1 759 21
	li	a3,6
	addi	a2,sp,92
	.loc 1 756 22
	add	s0,s0,a5
.LVL568:
	.loc 1 759 9 is_stmt 1
	.loc 1 759 21 is_stmt 0
	mv	a1,s0
	addi	a0,sp,32
.LVL569:
	call	mbedtls_asn1_get_tag
.LVL570:
	.loc 1 759 11
	bne	a0,zero,.L498
	.loc 1 763 9 is_stmt 1
	.loc 1 763 22 is_stmt 0
	li	a5,6
	.loc 1 765 12
	lw	a4,92(sp)
	.loc 1 763 22
	sw	a5,88(sp)
	.loc 1 764 9 is_stmt 1
	.loc 1 764 22 is_stmt 0
	lw	a5,32(sp)
	.loc 1 768 21
	addi	a2,sp,40
	mv	a1,s0
	.loc 1 764 20
	sw	a5,96(sp)
	.loc 1 765 9 is_stmt 1
	.loc 1 768 21 is_stmt 0
	addi	a0,sp,32
.LVL571:
	.loc 1 765 12
	add	a5,a5,a4
	sw	a5,32(sp)
	.loc 1 768 9 is_stmt 1
	.loc 1 768 21 is_stmt 0
	call	mbedtls_asn1_get_bool
.LVL572:
	.loc 1 768 11
	beq	a0,zero,.L390
	.loc 1 768 83
	li	a5,-98
	bne	a0,a5,.L498
.L390:
	.loc 1 773 9 is_stmt 1
	.loc 1 773 21 is_stmt 0
	li	a3,4
	addi	a2,sp,36
	mv	a1,s0
	addi	a0,sp,32
.LVL573:
	call	mbedtls_asn1_get_tag
.LVL574:
	.loc 1 773 11
	bne	a0,zero,.L498
	.loc 1 777 9 is_stmt 1
	.loc 1 777 23 is_stmt 0
	lw	s9,32(sp)
	lw	a5,36(sp)
	add	s9,s9,a5
.LVL575:
	.loc 1 779 9 is_stmt 1
	.loc 1 779 11 is_stmt 0
	bne	s0,s9,.L504
	.loc 1 786 9 is_stmt 1
	.loc 1 786 15 is_stmt 0
	addi	a1,sp,44
	addi	a0,sp,88
.LVL576:
	call	mbedtls_oid_get_x509_ext_type
.LVL577:
	.loc 1 788 9 is_stmt 1
	.loc 1 788 11 is_stmt 0
	beq	a0,zero,.L393
	.loc 1 791 13 is_stmt 1
	.loc 1 794 15 is_stmt 0
	lw	a5,40(sp)
	.loc 1 791 16
	sw	s0,32(sp)
	.loc 1 794 13 is_stmt 1
	.loc 1 794 15 is_stmt 0
	beq	a5,zero,.L386
.LVL578:
.L451:
	.loc 1 797 23
	li	a0,-8192
	addi	s0,a0,-1378
	j	.L507
.LVL579:
.L393:
	.loc 1 805 9 is_stmt 1
	.loc 1 805 18 is_stmt 0
	lw	a4,248(s1)
	.loc 1 805 30
	lw	a5,44(sp)
	and	a3,a4,a5
	.loc 1 805 11
	bne	a3,zero,.L452
	.loc 1 808 9 is_stmt 1
	.loc 1 808 24 is_stmt 0
	or	a4,a4,a5
	sw	a4,248(s1)
	.loc 1 810 9 is_stmt 1
	li	a4,256
	beq	a5,a4,.L394
	bgt	a5,a4,.L395
	li	a4,4
	beq	a5,a4,.L396
	li	a4,32
	beq	a5,a4,.L397
.L398:
.LVL580:
.LBE248:
.LBE254:
.LBE262:
	.loc 1 1060 9
.LBB263:
.LBB255:
	li	a0,-8192
	addi	s0,a0,-128
	j	.L507
.LVL581:
.L395:
.LBB249:
	.loc 1 810 9 is_stmt 0
	addi	a4,a5,-2048
	beq	a4,zero,.L399
	li	a4,65536
	bne	a5,a4,.L398
	.loc 1 842 13 is_stmt 1
.LVL582:
.LBB223:
.LBB224:
	.loc 1 557 5
	.loc 1 558 5
	.loc 1 560 17 is_stmt 0
	addi	a2,sp,100
	mv	a1,s0
	addi	a0,sp,32
.LVL583:
	.loc 1 558 28
	sw	zero,100(sp)
	sb	zero,104(sp)
	sw	zero,108(sp)
	.loc 1 560 5 is_stmt 1
	.loc 1 560 17 is_stmt 0
	call	mbedtls_asn1_get_bitstring
.LVL584:
	.loc 1 560 7
	bne	a0,zero,.L502
	.loc 1 563 5 is_stmt 1
	.loc 1 563 7 is_stmt 0
	lw	a4,100(sp)
	li	a5,1
	bne	a4,a5,.L453
	.loc 1 568 5 is_stmt 1
	.loc 1 568 21 is_stmt 0
	lw	a5,108(sp)
	lbu	a5,0(a5)
	.loc 1 568 19
	sb	a5,280(s1)
	.loc 1 569 5 is_stmt 1
.LVL585:
.LBE224:
.LBE223:
	.loc 1 801 13
	j	.L386
.LVL586:
.L394:
	.loc 1 814 13
.LBB226:
.LBB219:
	.loc 1 502 5
	.loc 1 503 5
	.loc 1 510 5
	.loc 1 510 16 is_stmt 0
	sw	zero,252(s1)
	.loc 1 511 5 is_stmt 1
	.loc 1 511 18 is_stmt 0
	sw	zero,256(s1)
	.loc 1 513 5 is_stmt 1
	.loc 1 513 17 is_stmt 0
	li	a3,48
	addi	a2,sp,100
	mv	a1,s0
	addi	a0,sp,32
.LVL587:
	call	mbedtls_asn1_get_tag
.LVL588:
	.loc 1 513 7
	beq	a0,zero,.L401
.LVL589:
.L502:
.LBE219:
.LBE226:
.LBB227:
.LBB225:
	.loc 1 561 9 is_stmt 1
	.loc 1 561 25 is_stmt 0
	add	s0,a0,s6
.LVL590:
.LBE225:
.LBE227:
	.loc 1 842 15
	beq	s0,zero,.L386
	j	.L507
.LVL591:
.L401:
.LBB228:
.LBB220:
	.loc 1 517 5 is_stmt 1
	.loc 1 517 7 is_stmt 0
	lw	a5,32(sp)
	beq	s9,a5,.L386
.LBE220:
.LBE228:
	.loc 1 814 25
	addi	a2,s1,252
.LBB229:
.LBB221:
	.loc 1 520 5 is_stmt 1
	.loc 1 520 17 is_stmt 0
	mv	a1,s9
	addi	a0,sp,32
.LVL592:
	sw	a2,12(sp)
	call	mbedtls_asn1_get_bool
.LVL593:
	.loc 1 520 7
	beq	a0,zero,.L405
	.loc 1 522 9 is_stmt 1
	.loc 1 522 11 is_stmt 0
	li	a5,-98
	lw	a2,12(sp)
	bne	a0,a5,.L502
	.loc 1 523 13 is_stmt 1
	.loc 1 523 19 is_stmt 0
	mv	a1,s9
	addi	a0,sp,32
.LVL594:
	call	mbedtls_asn1_get_int
.LVL595:
	.loc 1 525 9 is_stmt 1
	.loc 1 525 11 is_stmt 0
	bne	a0,zero,.L502
	.loc 1 528 9 is_stmt 1
	.loc 1 528 11 is_stmt 0
	lw	a5,252(s1)
	beq	a5,zero,.L405
	.loc 1 529 13 is_stmt 1
	.loc 1 529 24 is_stmt 0
	li	a5,1
	sw	a5,252(s1)
.L405:
	.loc 1 532 5 is_stmt 1
	.loc 1 532 7 is_stmt 0
	lw	a5,32(sp)
	beq	s9,a5,.L386
	.loc 1 535 5 is_stmt 1
	.loc 1 535 17 is_stmt 0
	addi	a2,s1,256
	mv	a1,s9
	addi	a0,sp,32
.LVL596:
	call	mbedtls_asn1_get_int
.LVL597:
	.loc 1 535 7
	bne	a0,zero,.L502
	.loc 1 538 5 is_stmt 1
	.loc 1 538 7 is_stmt 0
	lw	a5,32(sp)
	bne	s9,a5,.L504
	.loc 1 544 5 is_stmt 1
	.loc 1 544 9 is_stmt 0
	lw	a5,256(s1)
	.loc 1 544 7
	beq	a5,s8,.L453
	.loc 1 548 5 is_stmt 1
	.loc 1 548 19 is_stmt 0
	addi	a5,a5,1
	sw	a5,256(s1)
	.loc 1 550 5 is_stmt 1
.LVL598:
	j	.L386
.LVL599:
.L396:
.LBE221:
.LBE229:
	.loc 1 821 13
.LBB230:
.LBB231:
	.loc 1 576 5
	.loc 1 577 5
	.loc 1 578 5
	.loc 1 580 17 is_stmt 0
	addi	a2,sp,100
	mv	a1,s0
	addi	a0,sp,32
.LVL600:
	.loc 1 578 28
	sw	zero,100(sp)
	sb	zero,104(sp)
	sw	zero,108(sp)
	.loc 1 580 5 is_stmt 1
	.loc 1 580 17 is_stmt 0
	call	mbedtls_asn1_get_bitstring
.LVL601:
	.loc 1 580 7
	bne	a0,zero,.L502
	.loc 1 583 5 is_stmt 1
	.loc 1 583 11 is_stmt 0
	lw	a2,100(sp)
	.loc 1 583 7
	bne	a2,zero,.L416
.LVL602:
.L453:
.LBE231:
.LBE230:
.LBB233:
.LBB234:
	.loc 1 613 15
	li	a0,-8192
	addi	s0,a0,-1380
.LVL603:
.LBE234:
.LBE233:
.LBE249:
.LBE255:
.LBE263:
	.loc 1 1060 9 is_stmt 1
	j	.L507
.LVL604:
.L416:
.LBB264:
.LBB256:
.LBB250:
.LBB236:
.LBB232:
	.loc 1 588 5
	.loc 1 588 16 is_stmt 0
	sw	zero,260(s1)
	.loc 1 589 5 is_stmt 1
.LVL605:
	.loc 1 589 17
	.loc 1 591 40 is_stmt 0
	lw	a0,108(sp)
.LVL606:
	.loc 1 589 12
	li	a5,0
	.loc 1 589 28
	li	a1,4
.LVL607:
.L418:
	.loc 1 591 9 is_stmt 1
	.loc 1 591 42 is_stmt 0
	add	a4,a0,a5
	.loc 1 591 23
	lbu	a4,0(a4)
	.loc 1 591 46
	slli	a3,a5,3
	.loc 1 589 60
	addi	a5,a5,1
.LVL608:
	.loc 1 591 46
	sll	a3,a4,a3
	.loc 1 591 20
	lw	a4,260(s1)
	or	a4,a4,a3
	sw	a4,260(s1)
	.loc 1 589 59 is_stmt 1
.LVL609:
	.loc 1 589 17
	.loc 1 589 5 is_stmt 0
	beq	a2,a5,.L386
	.loc 1 589 28
	bne	a5,a1,.L418
	j	.L386
.LVL610:
.L399:
.LBE232:
.LBE236:
	.loc 1 828 13 is_stmt 1
.LBB237:
.LBB235:
	.loc 1 606 5
	.loc 1 608 5
	.loc 1 608 17 is_stmt 0
	li	a3,6
	addi	a2,s1,264
.LVL611:
	mv	a1,s0
	addi	a0,sp,32
.LVL612:
	call	mbedtls_asn1_get_sequence_of
.LVL613:
	.loc 1 608 7
	bne	a0,zero,.L502
	.loc 1 612 5 is_stmt 1
	.loc 1 612 7 is_stmt 0
	lw	a5,272(s1)
	bne	a5,zero,.L386
	j	.L453
.LVL614:
.L397:
.LBE235:
.LBE237:
	.loc 1 835 13 is_stmt 1
.LBB238:
.LBB239:
	.loc 1 649 5
	.loc 1 650 5
	.loc 1 651 5
	.loc 1 652 5
	.loc 1 653 5
	.loc 1 656 5
	.loc 1 656 17 is_stmt 0
	li	a3,48
	addi	a2,sp,48
	mv	a1,s0
	addi	a0,sp,32
.LVL615:
	call	mbedtls_asn1_get_tag
.LVL616:
	.loc 1 656 7
	bne	a0,zero,.L502
	.loc 1 660 5 is_stmt 1
	.loc 1 660 12 is_stmt 0
	lw	a5,32(sp)
	lw	a4,48(sp)
	add	a5,a5,a4
	.loc 1 660 7
	bne	s9,a5,.L504
.LBE239:
.LBE238:
	.loc 1 835 25
	addi	s0,s1,232
.LVL617:
.LBB243:
.LBB240:
	.loc 1 675 11
	li	s11,128
	.loc 1 683 11
	li	s10,130
.LVL618:
.L423:
	.loc 1 664 10 is_stmt 1
	.loc 1 664 12 is_stmt 0
	lw	a5,32(sp)
	.loc 1 664 10
	bgtu	s9,a5,.L429
	.loc 1 712 5 is_stmt 1
	.loc 1 712 15 is_stmt 0
	sw	zero,12(s0)
	.loc 1 714 5 is_stmt 1
	.loc 1 714 7 is_stmt 0
	beq	s9,a5,.L386
.LVL619:
.L504:
.LBE240:
.LBE243:
.LBE250:
	.loc 1 853 9 is_stmt 1
.LBE256:
.LBE264:
	.loc 1 1060 9
.LBB265:
.LBB257:
	.loc 1 853 15 is_stmt 0
	li	a0,-8192
	addi	s0,a0,-1382
.LVL620:
.LBE257:
.LBE265:
	.loc 1 1062 13 is_stmt 1
	j	.L507
.LVL621:
.L429:
.LBB266:
.LBB258:
.LBB251:
.LBB244:
.LBB241:
	.loc 1 666 9
	.loc 1 666 19 is_stmt 0
	sub	a4,s9,a5
	.loc 1 666 11
	ble	a4,zero,.L454
	.loc 1 670 9 is_stmt 1
	.loc 1 670 13 is_stmt 0
	lbu	a4,0(a5)
	.loc 1 672 21
	addi	a2,sp,100
	.loc 1 671 13
	addi	a5,a5,1
	.loc 1 672 21
	mv	a1,s9
	addi	a0,sp,32
.LVL622:
	.loc 1 670 13
	sw	a4,12(sp)
.LVL623:
	.loc 1 671 9 is_stmt 1
	.loc 1 671 13 is_stmt 0
	sw	a5,32(sp)
	.loc 1 672 9 is_stmt 1
	.loc 1 672 21 is_stmt 0
	call	mbedtls_asn1_get_len
.LVL624:
	.loc 1 672 11
	lw	a4,12(sp)
	bne	a0,zero,.L502
	.loc 1 675 9 is_stmt 1
	.loc 1 675 11 is_stmt 0
	andi	a5,a4,192
	bne	a5,s11,.L451
	.loc 1 683 9 is_stmt 1
	.loc 1 683 11 is_stmt 0
	beq	a4,s10,.L426
	.loc 1 685 13 is_stmt 1
	.loc 1 685 16 is_stmt 0
	lw	a5,32(sp)
	lw	a4,100(sp)
.LVL625:
.L496:
	.loc 1 708 9 is_stmt 1
	.loc 1 708 12 is_stmt 0
	add	a5,a5,a4
	sw	a5,32(sp)
	j	.L423
.LVL626:
.L426:
	.loc 1 690 9 is_stmt 1
	.loc 1 690 11 is_stmt 0
	lw	a5,8(s0)
	beq	a5,zero,.L428
	.loc 1 692 13 is_stmt 1
	.loc 1 692 15 is_stmt 0
	lw	a5,12(s0)
	bne	a5,zero,.L452
	.loc 1 695 13 is_stmt 1
	.loc 1 695 25 is_stmt 0
	li	a1,16
	li	a0,1
.LVL627:
	call	mbedtls_calloc
.LVL628:
	.loc 1 695 23
	sw	a0,12(s0)
	.loc 1 697 13 is_stmt 1
	.loc 1 697 15 is_stmt 0
	beq	a0,zero,.L457
	mv	s0,a0
.LVL629:
.L428:
	.loc 1 704 9 is_stmt 1
	.loc 1 705 9
	.loc 1 705 18 is_stmt 0
	sw	s10,0(s0)
	.loc 1 706 9 is_stmt 1
	.loc 1 706 18 is_stmt 0
	lw	a5,32(sp)
	.loc 1 706 16
	sw	a5,8(s0)
	.loc 1 707 9 is_stmt 1
	.loc 1 707 18 is_stmt 0
	lw	a4,100(sp)
	sw	a4,4(s0)
	j	.L496
.LVL630:
.L438:
.LBE241:
.LBE244:
.LBE251:
.LBE258:
.LBE266:
	.loc 1 1090 9
	lw	a1,84(sp)
	lw	a0,48(s1)
	call	memcmp
.LVL631:
	.loc 1 1089 42
	bne	a0,zero,.L439
	.loc 1 1090 69
	lw	a4,52(sp)
	lw	a5,64(sp)
	bne	a4,a5,.L439
	.loc 1 1092 20
	lw	a2,56(sp)
	.loc 1 1091 44
	lw	a5,68(sp)
	bne	a2,a5,.L439
	.loc 1 1092 44
	beq	a2,zero,.L440
	.loc 1 1094 11
	lw	a1,72(sp)
	lw	a0,60(sp)
	call	memcmp
.LVL632:
	.loc 1 1093 32
	bne	a0,zero,.L439
.L440:
	.loc 1 1100 5 is_stmt 1
	.loc 1 1100 17 is_stmt 0
	addi	a2,s1,284
	mv	a1,s2
	addi	a0,sp,32
	call	mbedtls_x509_get_sig
.LVL633:
	mv	s0,a0
.LVL634:
	.loc 1 1100 7
	bne	a0,zero,.L507
	.loc 1 1106 5 is_stmt 1
	.loc 1 1106 7 is_stmt 0
	lw	a5,32(sp)
	beq	s2,a5,.L348
	j	.L508
.LVL635:
.L353:
.LBE269:
.LBE272:
	.loc 1 1155 9 is_stmt 1
	li	a0,-8192
	addi	s0,a0,-2048
.LVL636:
	.loc 1 1155 11 is_stmt 0
	bne	s4,zero,.L443
.LVL637:
.L444:
	.loc 1 1159 13 is_stmt 1
	mv	a0,s1
	call	mbedtls_free
.LVL638:
	j	.L348
.LVL639:
.L448:
.LBE274:
.LBE276:
	.loc 1 1130 15 is_stmt 0
	li	a0,-8192
.LVL640:
	addi	s0,a0,-2048
	j	.L348
.LVL641:
.L454:
.LBB277:
.LBB275:
.LBB273:
.LBB270:
.LBB267:
.LBB259:
.LBB252:
.LBB245:
.LBB242:
	.loc 1 667 19
	li	a0,-8192
	addi	s0,a0,-1376
.LVL642:
	j	.L507
.LVL643:
.L457:
	.loc 1 698 23
	li	a0,-8192
	addi	s0,a0,-1386
.LVL644:
	j	.L507
.LVL645:
.L452:
.LBE242:
.LBE245:
	.loc 1 806 19
	li	a0,-8192
	addi	s0,a0,-1280
	j	.L507
.LBE252:
.LBE259:
.LBE267:
.LBE270:
.LBE273:
.LBE275:
.LBE277:
	.cfi_endproc
.LFE32:
	.size	mbedtls_x509_crt_parse_der, .-mbedtls_x509_crt_parse_der
	.section	.rodata.mbedtls_x509_crt_parse.str1.4,"aMS",@progbits,1
	.align	2
.LC43:
	.string	"-----BEGIN CERTIFICATE-----"
	.align	2
.LC44:
	.string	"-----END CERTIFICATE-----"
	.section	.text.mbedtls_x509_crt_parse,"ax",@progbits
	.align	1
	.globl	mbedtls_x509_crt_parse
	.type	mbedtls_x509_crt_parse, @function
mbedtls_x509_crt_parse:
.LFB33:
	.loc 1 1172 1 is_stmt 1
	.cfi_startproc
.LVL646:
	.loc 1 1174 5
	.loc 1 1175 5
	.loc 1 1181 5
	.loc 1 1172 1 is_stmt 0
	addi	sp,sp,-80
	.cfi_def_cfa_offset 80
	sw	ra,76(sp)
	sw	s0,72(sp)
	sw	s1,68(sp)
	sw	s2,64(sp)
	sw	s3,60(sp)
	sw	s4,56(sp)
	sw	s5,52(sp)
	sw	s6,48(sp)
	sw	s7,44(sp)
	sw	s8,40(sp)
	sw	s9,36(sp)
	sw	s10,32(sp)
	sw	s11,28(sp)
	.cfi_offset 1, -4
	.cfi_offset 8, -8
	.cfi_offset 9, -12
	.cfi_offset 18, -16
	.cfi_offset 19, -20
	.cfi_offset 20, -24
	.cfi_offset 21, -28
	.cfi_offset 22, -32
	.cfi_offset 23, -36
	.cfi_offset 24, -40
	.cfi_offset 25, -44
	.cfi_offset 26, -48
	.cfi_offset 27, -52
	.loc 1 1181 7
	beq	a0,zero,.L525
	mv	s2,a1
	.loc 1 1181 22 discriminator 1
	beq	a1,zero,.L525
	mv	s3,a0
	mv	s10,a2
	.loc 1 1189 5 is_stmt 1
	.loc 1 1189 7 is_stmt 0
	beq	a2,zero,.L511
	.loc 1 1189 27 discriminator 1
	add	a5,a1,a2
	.loc 1 1189 21 discriminator 1
	lbu	a5,-1(a5)
	bne	a5,zero,.L511
	.loc 1 1190 9 discriminator 2
	lui	s4,%hi(.LC43)
	addi	a1,s4,%lo(.LC43)
.LVL647:
	mv	a0,s2
.LVL648:
	call	strstr
.LVL649:
	.loc 1 1189 48 discriminator 2
	bne	a0,zero,.L526
.L511:
.LVL650:
	.loc 1 1196 9 is_stmt 1
	.loc 1 1280 1 is_stmt 0
	lw	s0,72(sp)
	.cfi_remember_state
	.cfi_restore 8
	lw	ra,76(sp)
	.cfi_restore 1
	lw	s1,68(sp)
	.cfi_restore 9
	lw	s4,56(sp)
	.cfi_restore 20
	lw	s5,52(sp)
	.cfi_restore 21
	lw	s6,48(sp)
	.cfi_restore 22
	lw	s7,44(sp)
	.cfi_restore 23
	lw	s8,40(sp)
	.cfi_restore 24
	lw	s9,36(sp)
	.cfi_restore 25
	lw	s11,28(sp)
	.cfi_restore 27
	.loc 1 1196 16
	mv	a2,s10
	mv	a1,s2
	.loc 1 1280 1
	lw	s10,32(sp)
	.cfi_restore 26
.LVL651:
	lw	s2,64(sp)
	.cfi_restore 18
.LVL652:
	.loc 1 1196 16
	mv	a0,s3
	.loc 1 1280 1
	lw	s3,60(sp)
	.cfi_restore 19
.LVL653:
	addi	sp,sp,80
	.cfi_def_cfa_offset 0
	.loc 1 1196 16
	tail	mbedtls_x509_crt_parse_der
.LVL654:
.L523:
	.cfi_restore_state
.LBB278:
.LBB279:
	.loc 1 1210 13 is_stmt 1
	.loc 1 1211 13
	addi	a0,sp,4
	call	mbedtls_pem_init
.LVL655:
	.loc 1 1214 13
	.loc 1 1214 19 is_stmt 0
	mv	a6,sp
	li	a5,0
	li	a4,0
	mv	a3,s2
	addi	a2,s8,%lo(.LC44)
	addi	a1,s4,%lo(.LC43)
	addi	a0,sp,4
	call	mbedtls_pem_read_buffer
.LVL656:
	mv	s1,a0
.LVL657:
	.loc 1 1219 13 is_stmt 1
	.loc 1 1219 15 is_stmt 0
	bne	a0,zero,.L513
	.loc 1 1224 17 is_stmt 1
	.loc 1 1224 24 is_stmt 0
	lw	a5,0(sp)
	.loc 1 1250 19
	lw	a2,8(sp)
	lw	a1,4(sp)
	mv	a0,s3
	.loc 1 1224 24
	sub	s10,s10,a5
.LVL658:
	.loc 1 1225 17 is_stmt 1
	.loc 1 1225 21 is_stmt 0
	add	s2,s2,a5
.LVL659:
	.loc 1 1250 13 is_stmt 1
	.loc 1 1250 19 is_stmt 0
	call	mbedtls_x509_crt_parse_der
.LVL660:
	mv	s1,a0
.LVL661:
	.loc 1 1252 13 is_stmt 1
	addi	a0,sp,4
	call	mbedtls_pem_free
.LVL662:
	.loc 1 1254 13
	.loc 1 1254 15 is_stmt 0
	bne	s1,zero,.L514
	.loc 1 1269 13 is_stmt 1
.LVL663:
	.loc 1 1269 21 is_stmt 0
	li	s7,1
	j	.L512
.LVL664:
.L513:
	.loc 1 1227 18 is_stmt 1
	.loc 1 1227 20 is_stmt 0
	beq	a0,s9,.L516
	.loc 1 1231 18 is_stmt 1
	.loc 1 1231 20 is_stmt 0
	beq	a0,s5,.L522
	.loc 1 1233 17 is_stmt 1
	addi	a0,sp,4
	call	mbedtls_pem_free
.LVL665:
	.loc 1 1238 17
	.loc 1 1238 24 is_stmt 0
	lw	a5,0(sp)
	sub	s10,s10,a5
.LVL666:
	.loc 1 1239 17 is_stmt 1
	.loc 1 1239 21 is_stmt 0
	add	s2,s2,a5
.LVL667:
	.loc 1 1241 17 is_stmt 1
.L535:
	.loc 1 1262 17
	.loc 1 1262 19 is_stmt 0
	bne	s0,zero,.L520
	mv	s0,s1
.LVL668:
.L520:
	.loc 1 1265 17 is_stmt 1
	.loc 1 1265 29 is_stmt 0
	addi	s11,s11,1
.LVL669:
	.loc 1 1266 17 is_stmt 1
.L512:
.LBE279:
	.loc 1 1208 14
	li	a5,1
	bgtu	s10,a5,.L523
.L522:
.LBE278:
	.loc 1 1273 5 discriminator 1
	.loc 1 1273 7 is_stmt 0 discriminator 1
	bne	s7,zero,.L527
	.loc 1 1275 10 is_stmt 1
	.loc 1 1275 12 is_stmt 0
	bne	s0,zero,.L509
	.loc 1 1278 15
	li	s0,-8192
.LVL670:
	addi	s0,s0,-1920
	j	.L509
.LVL671:
.L514:
.LBB283:
.LBB280:
	.loc 1 1259 17 is_stmt 1
	.loc 1 1259 19 is_stmt 0
	bne	s1,s6,.L535
.L516:
.LBE280:
	mv	s0,s1
.LVL672:
.L509:
.LBE283:
	.loc 1 1280 1
	lw	ra,76(sp)
	.cfi_remember_state
	.cfi_restore 1
	mv	a0,s0
	lw	s0,72(sp)
	.cfi_restore 8
	lw	s1,68(sp)
	.cfi_restore 9
	lw	s2,64(sp)
	.cfi_restore 18
	lw	s3,60(sp)
	.cfi_restore 19
	lw	s4,56(sp)
	.cfi_restore 20
	lw	s5,52(sp)
	.cfi_restore 21
	lw	s6,48(sp)
	.cfi_restore 22
	lw	s7,44(sp)
	.cfi_restore 23
	lw	s8,40(sp)
	.cfi_restore 24
	lw	s9,36(sp)
	.cfi_restore 25
	lw	s10,32(sp)
	.cfi_restore 26
	lw	s11,28(sp)
	.cfi_restore 27
	addi	sp,sp,80
	.cfi_def_cfa_offset 0
	jr	ra
.LVL673:
.L526:
	.cfi_restore_state
.LBB284:
.LBB281:
	.loc 1 1227 20
	li	s5,-4096
	.loc 1 1259 19
	li	s6,-12288
	.loc 1 1227 20
	addi	s9,s5,-1152
.LBE281:
.LBE284:
	.loc 1 1174 39
	li	s11,0
	.loc 1 1174 22
	li	s0,0
	.loc 1 1174 9
	li	s7,0
.LBB285:
.LBB282:
	.loc 1 1214 19
	lui	s8,%hi(.LC44)
	.loc 1 1231 20
	addi	s5,s5,-128
	.loc 1 1259 19
	addi	s6,s6,1920
	j	.L512
.LVL674:
.L525:
.LBE282:
.LBE285:
	.loc 1 1182 15
	li	s0,-8192
	addi	s0,s0,-2048
	j	.L509
.LVL675:
.L527:
	mv	s0,s11
.LVL676:
	j	.L509
	.cfi_endproc
.LFE33:
	.size	mbedtls_x509_crt_parse, .-mbedtls_x509_crt_parse
	.section	.text.mbedtls_x509_crt_parse_file,"ax",@progbits
	.align	1
	.globl	mbedtls_x509_crt_parse_file
	.type	mbedtls_x509_crt_parse_file, @function
mbedtls_x509_crt_parse_file:
.LFB34:
	.loc 1 1287 1 is_stmt 1
	.cfi_startproc
.LVL677:
	.loc 1 1288 5
	.loc 1 1289 5
	.loc 1 1290 5
	.loc 1 1292 5
	.loc 1 1287 1 is_stmt 0
	addi	sp,sp,-32
	.cfi_def_cfa_offset 32
	sw	s1,20(sp)
	.loc 1 1292 17
	addi	a2,sp,8
	.cfi_offset 9, -12
	.loc 1 1287 1
	mv	s1,a0
	mv	a0,a1
.LVL678:
	.loc 1 1292 17
	addi	a1,sp,12
.LVL679:
	.loc 1 1287 1
	sw	s0,24(sp)
	sw	ra,28(sp)
	.cfi_offset 8, -8
	.cfi_offset 1, -4
	.loc 1 1292 17
	call	mbedtls_pk_load_file
.LVL680:
	mv	s0,a0
	.loc 1 1292 7
	bne	a0,zero,.L536
	.loc 1 1295 5 is_stmt 1
	.loc 1 1295 11 is_stmt 0
	lw	a2,8(sp)
	lw	a1,12(sp)
	mv	a0,s1
.LVL681:
	call	mbedtls_x509_crt_parse
.LVL682:
	.loc 1 1297 5
	lw	a1,8(sp)
	.loc 1 1295 11
	mv	s0,a0
.LVL683:
	.loc 1 1297 5 is_stmt 1
	lw	a0,12(sp)
	call	mbedtls_platform_zeroize
.LVL684:
	.loc 1 1298 5
	lw	a0,12(sp)
	call	mbedtls_free
.LVL685:
	.loc 1 1300 5
.L536:
	.loc 1 1301 1 is_stmt 0
	lw	ra,28(sp)
	.cfi_restore 1
	mv	a0,s0
	lw	s0,24(sp)
	.cfi_restore 8
	lw	s1,20(sp)
	.cfi_restore 9
.LVL686:
	addi	sp,sp,32
	.cfi_def_cfa_offset 0
	jr	ra
	.cfi_endproc
.LFE34:
	.size	mbedtls_x509_crt_parse_file, .-mbedtls_x509_crt_parse_file
	.section	.rodata.mbedtls_x509_crt_parse_path.str1.4,"aMS",@progbits,1
	.align	2
.LC45:
	.string	"%s/%s"
	.section	.text.mbedtls_x509_crt_parse_path,"ax",@progbits
	.align	1
	.globl	mbedtls_x509_crt_parse_path
	.type	mbedtls_x509_crt_parse_path, @function
mbedtls_x509_crt_parse_path:
.LFB35:
	.loc 1 1304 1 is_stmt 1
	.cfi_startproc
.LVL687:
	.loc 1 1305 5
	.loc 1 1367 5
	.loc 1 1368 5
	.loc 1 1369 5
	.loc 1 1370 5
	.loc 1 1371 5
	.loc 1 1372 5
	.loc 1 1304 1 is_stmt 0
	addi	sp,sp,-656
	.cfi_def_cfa_offset 656
	sw	s3,636(sp)
	.cfi_offset 19, -20
	mv	s3,a0
	.loc 1 1372 16
	mv	a0,a1
.LVL688:
	.loc 1 1304 1
	sw	s2,640(sp)
	sw	ra,652(sp)
	sw	s0,648(sp)
	sw	s1,644(sp)
	sw	s4,632(sp)
	sw	s5,628(sp)
	sw	s6,624(sp)
	sw	s7,620(sp)
	sw	s8,616(sp)
	.cfi_offset 18, -16
	.cfi_offset 1, -4
	.cfi_offset 8, -8
	.cfi_offset 9, -12
	.cfi_offset 20, -24
	.cfi_offset 21, -28
	.cfi_offset 22, -32
	.cfi_offset 23, -36
	.cfi_offset 24, -40
	.loc 1 1304 1
	mv	s2,a1
	.loc 1 1372 16
	call	opendir
.LVL689:
	.loc 1 1374 5 is_stmt 1
	.loc 1 1374 7 is_stmt 0
	beq	a0,zero,.L548
	mv	s1,a0
	.loc 1 1305 9
	li	s0,0
	.loc 1 1387 19
	lui	s4,%hi(.LC45)
	.loc 1 1390 11
	li	s5,511
.LVL690:
.L542:
	.loc 1 1395 16
	li	s6,-1
	.loc 1 1401 14
	li	s7,61440
	.loc 1 1401 11
	li	s8,32768
.L544:
.LVL691:
	.loc 1 1385 10 is_stmt 1
	.loc 1 1385 22 is_stmt 0
	mv	a0,s1
	call	readdir
.LVL692:
	.loc 1 1385 10
	bne	a0,zero,.L547
.LVL693:
.L543:
	.loc 1 1414 5 is_stmt 1
	mv	a0,s1
	call	closedir
.LVL694:
	.loc 1 1423 5
.L540:
	.loc 1 1424 1 is_stmt 0
	lw	ra,652(sp)
	.cfi_remember_state
	.cfi_restore 1
	mv	a0,s0
	lw	s0,648(sp)
	.cfi_restore 8
	lw	s1,644(sp)
	.cfi_restore 9
	lw	s2,640(sp)
	.cfi_restore 18
.LVL695:
	lw	s3,636(sp)
	.cfi_restore 19
.LVL696:
	lw	s4,632(sp)
	.cfi_restore 20
	lw	s5,628(sp)
	.cfi_restore 21
	lw	s6,624(sp)
	.cfi_restore 22
	lw	s7,620(sp)
	.cfi_restore 23
	lw	s8,616(sp)
	.cfi_restore 24
	addi	sp,sp,656
	.cfi_def_cfa_offset 0
	jr	ra
.LVL697:
.L547:
	.cfi_restore_state
	.loc 1 1387 9 is_stmt 1
	.loc 1 1387 19 is_stmt 0
	addi	a4,a0,5
	mv	a3,s2
	addi	a2,s4,%lo(.LC45)
	li	a1,512
	addi	a0,sp,96
.LVL698:
	call	snprintf
.LVL699:
	.loc 1 1390 9 is_stmt 1
	.loc 1 1390 11 is_stmt 0
	bgtu	a0,s5,.L549
	.loc 1 1395 14 is_stmt 1
	.loc 1 1395 18 is_stmt 0
	addi	a1,sp,8
	addi	a0,sp,96
.LVL700:
	call	stat
.LVL701:
	.loc 1 1395 16
	beq	a0,s6,.L550
	.loc 1 1401 9 is_stmt 1
	.loc 1 1401 14 is_stmt 0
	lw	a5,12(sp)
	and	a5,s7,a5
	.loc 1 1401 11
	bne	a5,s8,.L544
	.loc 1 1406 9 is_stmt 1
	.loc 1 1406 17 is_stmt 0
	addi	a1,sp,96
	mv	a0,s3
	call	mbedtls_x509_crt_parse_file
.LVL702:
	.loc 1 1407 9 is_stmt 1
	.loc 1 1407 11 is_stmt 0
	bge	a0,zero,.L545
	.loc 1 1408 13 is_stmt 1
	.loc 1 1408 16 is_stmt 0
	addi	s0,s0,1
.LVL703:
	j	.L542
.L545:
	.loc 1 1410 13 is_stmt 1
	.loc 1 1410 17 is_stmt 0
	add	s0,s0,a0
.LVL704:
	j	.L542
.LVL705:
.L549:
	.loc 1 1392 17
	li	s0,-12288
.LVL706:
	addi	s0,s0,1664
	j	.L543
.LVL707:
.L550:
	.loc 1 1397 17
	li	s0,-12288
.LVL708:
	addi	s0,s0,1792
	j	.L543
.LVL709:
.L548:
	.loc 1 1375 15
	li	s0,-12288
	addi	s0,s0,1792
	j	.L540
	.cfi_endproc
.LFE35:
	.size	mbedtls_x509_crt_parse_path, .-mbedtls_x509_crt_parse_path
	.section	.rodata.str1.4,"aMS",@progbits,1
	.align	2
.LC46:
	.string	"The certificate validity has expired"
	.align	2
.LC47:
	.string	"The certificate has been revoked (is on a CRL)"
	.align	2
.LC48:
	.string	"The certificate Common Name (CN) does not match with the expected CN"
	.align	2
.LC49:
	.string	"The certificate is not correctly signed by the trusted CA"
	.align	2
.LC50:
	.string	"The CRL is not correctly signed by the trusted CA"
	.align	2
.LC51:
	.string	"The CRL is expired"
	.align	2
.LC52:
	.string	"Certificate was missing"
	.align	2
.LC53:
	.string	"Certificate verification was skipped"
	.align	2
.LC54:
	.string	"Other reason (can be used by verify callback)"
	.align	2
.LC55:
	.string	"The certificate validity starts in the future"
	.align	2
.LC56:
	.string	"The CRL is from the future"
	.align	2
.LC57:
	.string	"Usage does not match the keyUsage extension"
	.align	2
.LC58:
	.string	"Usage does not match the extendedKeyUsage extension"
	.align	2
.LC59:
	.string	"Usage does not match the nsCertType extension"
	.align	2
.LC60:
	.string	"The certificate is signed with an unacceptable hash."
	.align	2
.LC61:
	.string	"The certificate is signed with an unacceptable PK alg (eg RSA vs ECDSA)."
	.align	2
.LC62:
	.string	"The certificate is signed with an unacceptable key (eg bad curve, RSA too short)."
	.align	2
.LC63:
	.string	"The CRL is signed with an unacceptable hash."
	.align	2
.LC64:
	.string	"The CRL is signed with an unacceptable PK alg (eg RSA vs ECDSA)."
	.align	2
.LC65:
	.string	"The CRL is signed with an unacceptable key (eg bad curve, RSA too short)."
	.globl	mbedtls_x509_crt_profile_suiteb
	.globl	mbedtls_x509_crt_profile_next
	.globl	mbedtls_x509_crt_profile_default
	.section	.rodata
	.align	2
.LC41:
	.string	"U\035%"
	.string	""
	.section	.rodata.mbedtls_x509_crt_profile_default,"a"
	.align	2
	.set	.LANCHOR1,. + 0
	.type	mbedtls_x509_crt_profile_default, @object
	.size	mbedtls_x509_crt_profile_default, 16
mbedtls_x509_crt_profile_default:
	.word	240
	.word	268435455
	.word	268435455
	.word	2048
	.section	.rodata.mbedtls_x509_crt_profile_next,"a"
	.align	2
	.type	mbedtls_x509_crt_profile_next, @object
	.size	mbedtls_x509_crt_profile_next, 16
mbedtls_x509_crt_profile_next:
	.word	224
	.word	268435455
	.word	2300
	.word	2048
	.section	.rodata.mbedtls_x509_crt_profile_suiteb,"a"
	.align	2
	.type	mbedtls_x509_crt_profile_suiteb, @object
	.size	mbedtls_x509_crt_profile_suiteb, 16
mbedtls_x509_crt_profile_suiteb:
	.word	96
	.word	10
	.word	12
	.word	0
	.section	.rodata.x509_crt_verify_strings,"a"
	.align	2
	.set	.LANCHOR0,. + 0
	.type	x509_crt_verify_strings, @object
	.size	x509_crt_verify_strings, 168
x509_crt_verify_strings:
	.word	1
	.word	.LC46
	.word	2
	.word	.LC47
	.word	4
	.word	.LC48
	.word	8
	.word	.LC49
	.word	16
	.word	.LC50
	.word	32
	.word	.LC51
	.word	64
	.word	.LC52
	.word	128
	.word	.LC53
	.word	256
	.word	.LC54
	.word	512
	.word	.LC55
	.word	1024
	.word	.LC56
	.word	2048
	.word	.LC57
	.word	4096
	.word	.LC58
	.word	8192
	.word	.LC59
	.word	16384
	.word	.LC60
	.word	32768
	.word	.LC61
	.word	65536
	.word	.LC62
	.word	131072
	.word	.LC63
	.word	262144
	.word	.LC64
	.word	524288
	.word	.LC65
	.word	0
	.word	0
	.text
.Letext0:
	.file 3 "/mnt/d/GitHub/bl_iot_sdk_for_aithinker/toolchain/riscv/Linux/riscv64-unknown-elf/include/machine/_default_types.h"
	.file 4 "/mnt/d/GitHub/bl_iot_sdk_for_aithinker/toolchain/riscv/Linux/lib/gcc/riscv64-unknown-elf/10.2.0/include/stddef.h"
	.file 5 "/mnt/d/GitHub/bl_iot_sdk_for_aithinker/toolchain/riscv/Linux/lib/gcc/riscv64-unknown-elf/10.2.0/include/stdint-gcc.h"
	.file 6 "/mnt/d/GitHub/bl_iot_sdk_for_aithinker/toolchain/riscv/Linux/riscv64-unknown-elf/include/sys/_types.h"
	.file 7 "/mnt/d/GitHub/bl_iot_sdk_for_aithinker/toolchain/riscv/Linux/riscv64-unknown-elf/include/sys/_timeval.h"
	.file 8 "/mnt/d/GitHub/bl_iot_sdk_for_aithinker/toolchain/riscv/Linux/riscv64-unknown-elf/include/sys/_timespec.h"
	.file 9 "/mnt/d/GitHub/bl_iot_sdk_for_aithinker/toolchain/riscv/Linux/riscv64-unknown-elf/include/sys/types.h"
	.file 10 "/mnt/d/GitHub/bl_iot_sdk_for_aithinker/components/security/mbedtls_lts/mbedtls/include/mbedtls/bignum.h"
	.file 11 "/mnt/d/GitHub/bl_iot_sdk_for_aithinker/components/security/mbedtls_lts/mbedtls/include/mbedtls/asn1.h"
	.file 12 "/mnt/d/GitHub/bl_iot_sdk_for_aithinker/components/security/mbedtls_lts/mbedtls/include/mbedtls/md.h"
	.file 13 "/mnt/d/GitHub/bl_iot_sdk_for_aithinker/components/security/mbedtls_lts/mbedtls/include/mbedtls/ecp.h"
	.file 14 "/mnt/d/GitHub/bl_iot_sdk_for_aithinker/components/security/mbedtls_lts/mbedtls/include/mbedtls/x509.h"
	.file 15 "/mnt/d/GitHub/bl_iot_sdk_for_aithinker/components/security/mbedtls_lts/mbedtls/include/mbedtls/x509_crl.h"
	.file 16 "/mnt/d/GitHub/bl_iot_sdk_for_aithinker/components/security/mbedtls_lts/mbedtls/include/mbedtls/x509_crt.h"
	.file 17 "/mnt/d/GitHub/bl_iot_sdk_for_aithinker/components/security/mbedtls_lts/mbedtls/include/mbedtls/pem.h"
	.file 18 "/mnt/d/GitHub/bl_iot_sdk_for_aithinker/toolchain/riscv/Linux/riscv64-unknown-elf/include/sys/stat.h"
	.file 19 "/mnt/d/GitHub/bl_iot_sdk_for_aithinker/components/fs/vfs/include/vfs_dir.h"
	.file 20 "/mnt/d/GitHub/bl_iot_sdk_for_aithinker/components/fs/vfs/posix/include/dirent.h"
	.file 21 "/mnt/d/GitHub/bl_iot_sdk_for_aithinker/toolchain/riscv/Linux/riscv64-unknown-elf/include/string.h"
	.file 22 "/mnt/d/GitHub/bl_iot_sdk_for_aithinker/toolchain/riscv/Linux/riscv64-unknown-elf/include/stdio.h"
	.file 23 "/mnt/d/GitHub/bl_iot_sdk_for_aithinker/components/security/mbedtls_lts/mbedtls/include/mbedtls/oid.h"
	.file 24 "/mnt/d/GitHub/bl_iot_sdk_for_aithinker/components/security/mbedtls_lts/mbedtls/include/mbedtls/platform_util.h"
	.file 25 "/mnt/d/GitHub/bl_iot_sdk_for_aithinker/components/security/mbedtls_lts/mbedtls/include/mbedtls/platform.h"