	.file	"test_utils_bitmap_window.c"
	.option nopic
	.attribute arch, "rv32i2p0_m2p0_f2p0_c2p0"
	.attribute unaligned_access, 0
	.attribute stack_align, 16
	.text
.Ltext0:
	.cfi_sections	.debug_frame
	.section	.rodata.cmd_bitmap_window_test.str1.4,"aMS",@progbits,1
	.align	2
.LC0:
	.string	"Set Seq 1 2 3 4 5 6 7...\r\n"
	.align	2
.LC1:
	.string	"  Got ssn %d(0) Bitmap %llx(0), ret %x\r\n"
	.align	2
.LC2:
	.string	"Set Seq 0 ...\r\n"
	.align	2
.LC3:
	.string	"  Got ssn %d(8) Bitmap %llx(0), ret %x\r\n"
	.align	2
.LC4:
	.string	"Set Seq 9 ...\r\n"
	.align	2
.LC5:
	.string	"  Got ssn %d(8) Bitmap %llx(2), ret %x\r\n"
	.align	2
.LC6:
	.string	"  Got ssn %d(8) Bitmap %llx(2), ret %d\r\n"
	.section	.text.cmd_bitmap_window_test,"ax",@progbits
	.align	1
	.type	cmd_bitmap_window_test, @function
cmd_bitmap_window_test:
.LFB3:
	.file 1 "/mnt/d/GitHub/bl_iot_sdk_for_aithinker/components/utils/src/test/test_utils_bitmap_window.c"
	.loc 1 36 1
	.cfi_startproc
.LVL0:
	.loc 1 37 5
	.loc 1 38 5
	.loc 1 40 5
	.loc 1 36 1 is_stmt 0
	addi	sp,sp,-48
	.cfi_def_cfa_offset 48
	.loc 1 40 5
	li	a2,4096
.LVL1:
	addi	a2,a2,-1
	li	a1,0
.LVL2:
	addi	a0,sp,16
.LVL3:
	.loc 1 36 1
	sw	ra,44(sp)
	sw	s0,40(sp)
	sw	s1,36(sp)
	sw	s2,32(sp)
	.cfi_offset 1, -4
	.cfi_offset 8, -8
	.cfi_offset 9, -12
	.cfi_offset 18, -16
	.loc 1 40 5
	call	utils_bitmap_window_init
.LVL4:
	.loc 1 42 5 is_stmt 1
	lui	a0,%hi(.LC0)
	addi	a0,a0,%lo(.LC0)
	call	printf
.LVL5:
	.loc 1 43 5
	li	a1,1
	addi	a0,sp,16
	call	utils_bitmap_window_bit_set
.LVL6:
	.loc 1 44 5
	li	a1,2
	addi	a0,sp,16
	call	utils_bitmap_window_bit_set
.LVL7:
	.loc 1 45 5
	li	a1,3
	addi	a0,sp,16
	call	utils_bitmap_window_bit_set
.LVL8:
	.loc 1 46 5
	li	a1,4
	addi	a0,sp,16
	call	utils_bitmap_window_bit_set
.LVL9:
	.loc 1 47 5
	li	a1,5
	addi	a0,sp,16
	call	utils_bitmap_window_bit_set
.LVL10:
	.loc 1 48 5
	li	a1,6
	addi	a0,sp,16
	call	utils_bitmap_window_bit_set
.LVL11:
	.loc 1 49 5
	.loc 1 49 11 is_stmt 0
	li	a1,7
	addi	a0,sp,16
	call	utils_bitmap_window_bit_set
.LVL12:
	sw	a0,12(sp)
.LVL13:
	.loc 1 50 5 is_stmt 1
	addi	a0,sp,16
.LVL14:
	call	utils_bitmap_window_ssn_get
.LVL15:
	mv	s0,a0
	addi	a0,sp,16
	call	utils_bitmap_window_map_get
.LVL16:
	lw	a4,12(sp)
	mv	a2,a0
	lui	a0,%hi(.LC1)
	mv	a3,a1
	addi	a0,a0,%lo(.LC1)
	mv	a1,s0
	call	printf
.LVL17:
	.loc 1 56 5
	lui	s2,%hi(.LC2)
	addi	a0,s2,%lo(.LC2)
	call	printf
.LVL18:
	.loc 1 57 5
	.loc 1 57 11 is_stmt 0
	li	a1,0
	addi	a0,sp,16
	call	utils_bitmap_window_bit_set
.LVL19:
	sw	a0,12(sp)
.LVL20:
	.loc 1 58 5 is_stmt 1
	addi	a0,sp,16
.LVL21:
	call	utils_bitmap_window_ssn_get
.LVL22:
	mv	s0,a0
	addi	a0,sp,16
	call	utils_bitmap_window_map_get
.LVL23:
	lw	a4,12(sp)
	lui	s1,%hi(.LC3)
	mv	a2,a0
	mv	a3,a1
	addi	a0,s1,%lo(.LC3)
	mv	a1,s0
	call	printf
.LVL24:
	.loc 1 64 5
	addi	a0,s2,%lo(.LC2)
	call	printf
.LVL25:
	.loc 1 65 5
	.loc 1 65 11 is_stmt 0
	li	a1,0
	addi	a0,sp,16
	call	utils_bitmap_window_bit_set
.LVL26:
	sw	a0,12(sp)
.LVL27:
	.loc 1 66 5 is_stmt 1
	addi	a0,sp,16
.LVL28:
	call	utils_bitmap_window_ssn_get
.LVL29:
	mv	s0,a0
	addi	a0,sp,16
	call	utils_bitmap_window_map_get
.LVL30:
	lw	a4,12(sp)
	mv	a2,a0
	mv	a3,a1
	addi	a0,s1,%lo(.LC3)
	mv	a1,s0
	call	printf
.LVL31:
	.loc 1 72 5
	lui	s1,%hi(.LC4)
	addi	a0,s1,%lo(.LC4)
	call	printf
.LVL32:
	.loc 1 73 5
	.loc 1 73 11 is_stmt 0
	li	a1,9
	addi	a0,sp,16
	call	utils_bitmap_window_bit_set
.LVL33:
	sw	a0,12(sp)
.LVL34:
	.loc 1 74 5 is_stmt 1
	addi	a0,sp,16
.LVL35:
	call	utils_bitmap_window_ssn_get
.LVL36:
	mv	s0,a0
	addi	a0,sp,16
	call	utils_bitmap_window_map_get
.LVL37:
	lw	a4,12(sp)
	mv	a2,a0
	lui	a0,%hi(.LC5)
	mv	a3,a1
	addi	a0,a0,%lo(.LC5)
	mv	a1,s0
	call	printf
.LVL38:
	.loc 1 80 5
	addi	a0,s1,%lo(.LC4)
	call	printf
.LVL39:
	.loc 1 81 5
	.loc 1 81 11 is_stmt 0
	li	a1,9
	addi	a0,sp,16
	call	utils_bitmap_window_bit_set
.LVL40:
	sw	a0,12(sp)
.LVL41:
	.loc 1 82 5 is_stmt 1
	addi	a0,sp,16
.LVL42:
	call	utils_bitmap_window_ssn_get
.LVL43:
	mv	s0,a0
	addi	a0,sp,16
	call	utils_bitmap_window_map_get
.LVL44:
	lw	a4,12(sp)
	mv	a2,a0
	lui	a0,%hi(.LC6)
	mv	a3,a1
	addi	a0,a0,%lo(.LC6)
	mv	a1,s0
	call	printf
.LVL45:
	.loc 1 88 1 is_stmt 0
	lw	ra,44(sp)
	.cfi_restore 1
	lw	s0,40(sp)
	.cfi_restore 8
	lw	s1,36(sp)
	.cfi_restore 9
	lw	s2,32(sp)
	.cfi_restore 18
	addi	sp,sp,48
	.cfi_def_cfa_offset 0
.LVL46:
	jr	ra
	.cfi_endproc
.LFE3:
	.size	cmd_bitmap_window_test, .-cmd_bitmap_window_test
	.section	.text.utils_bitmap_window_cli_init,"ax",@progbits
	.align	1
	.globl	utils_bitmap_window_cli_init
	.type	utils_bitmap_window_cli_init, @function
utils_bitmap_window_cli_init:
.LFB4:
	.loc 1 95 1 is_stmt 1
	.cfi_startproc
	.loc 1 100 5
	.loc 1 101 1 is_stmt 0
	li	a0,0
	ret
	.cfi_endproc
.LFE4:
	.size	utils_bitmap_window_cli_init, .-utils_bitmap_window_cli_init
	.section	.rodata.str1.4,"aMS",@progbits,1
	.align	2
.LC7:
	.string	"utils_bitmap_widow_test"
	.align	2
.LC8:
	.string	"bitmap window test"
	.section	.static_cli_cmds,"a"
	.align	2
	.type	cmds_user, @object
	.size	cmds_user, 12
cmds_user:
	.word	.LC7
	.word	.LC8
	.word	cmd_bitmap_window_test
	.text
.Letext0:
	.file 2 "/mnt/d/GitHub/bl_iot_sdk_for_aithinker/toolchain/riscv/Linux/lib/gcc/riscv64-unknown-elf/10.2.0/include/stdint-gcc.h"
	.file 3 "/mnt/d/GitHub/bl_iot_sdk_for_aithinker/components/utils/include/utils_bitmap_window.h"
	.file 4 "/mnt/d/GitHub/bl_iot_sdk_for_aithinker/components/stage/cli/cli/include/cli.h"
	.file 5 "/mnt/d/GitHub/bl_iot_sdk_for_aithinker/toolchain/riscv/Linux/riscv64-unknown-elf/include/stdio.h"