	.file	"test_utils_ringblk.c"
	.option nopic
	.attribute arch, "rv32i2p0_m2p0_f2p0_c2p0"
	.attribute unaligned_access, 0
	.attribute stack_align, 16
	.text
.Ltext0:
	.cfi_sections	.debug_frame
	.section	.rodata.cmd_ringblk_through_test.str1.4,"aMS",@progbits,1
	.align	2
.LC0:
	.string	"rbb_put"
	.align	2
.LC1:
	.string	"rbb_get"
	.section	.text.cmd_ringblk_through_test,"ax",@progbits
	.align	1
	.type	cmd_ringblk_through_test, @function
cmd_ringblk_through_test:
.LFB29:
	.file 1 "/mnt/d/GitHub/bl_iot_sdk_for_aithinker/components/utils/src/test/test_utils_ringblk.c"
	.loc 1 340 1
	.cfi_startproc
.LVL0:
	.loc 1 341 3
	.loc 1 343 3
	.loc 1 340 1 is_stmt 0
	addi	sp,sp,-32
	.cfi_def_cfa_offset 32
	.loc 1 343 9
	li	a1,10
.LVL1:
	li	a0,100
.LVL2:
	.loc 1 340 1
	sw	ra,28(sp)
	.cfi_offset 1, -4
	.loc 1 343 9
	call	utils_rbb_create
.LVL3:
	mv	a3,a0
.LVL4:
	.loc 1 345 3 is_stmt 1
	sw	a0,12(sp)
	lui	a1,%hi(.LC0)
	lui	a0,%hi(put_thread)
.LVL5:
	li	a5,0
	li	a4,10
	li	a2,1024
	addi	a1,a1,%lo(.LC0)
	addi	a0,a0,%lo(put_thread)
	call	xTaskCreate
.LVL6:
	.loc 1 347 3
	lw	a3,12(sp)
	.loc 1 348 1 is_stmt 0
	lw	ra,28(sp)
	.cfi_restore 1
	.loc 1 347 3
	lui	a1,%hi(.LC1)
	lui	a0,%hi(get_thread)
	.loc 1 348 1
	.loc 1 347 3
	li	a5,0
	li	a4,10
	li	a2,1024
	addi	a1,a1,%lo(.LC1)
	addi	a0,a0,%lo(get_thread)
	.loc 1 348 1
	addi	sp,sp,32
	.cfi_def_cfa_offset 0
.LVL7:
	.loc 1 347 3
	tail	xTaskCreate
.LVL8:
	.cfi_endproc
.LFE29:
	.size	cmd_ringblk_through_test, .-cmd_ringblk_through_test
	.section	.rodata.get_thread.str1.4,"aMS",@progbits,1
	.align	2
.LC2:
	.string	"Error: get data (times %ld) has an error!\r\n"
	.align	2
.LC3:
	.string	"free block size %d count %ld\r\n"
	.align	2
.LC4:
	.string	"Get block data finish.\r\n"
	.align	2
.LC5:
	.string	"\n====================== rbb blk not free =====================\r\n"
	.align	2
.LC6:
	.string	"\n====================== rbb dynamic test finish =====================\r\n"
	.section	.text.get_thread,"ax",@progbits
	.align	1
	.type	get_thread, @function
get_thread:
.LFB28:
	.loc 1 298 1 is_stmt 1
	.cfi_startproc
.LVL9:
	.loc 1 299 3
	.loc 1 298 1 is_stmt 0
	addi	sp,sp,-48
	.cfi_def_cfa_offset 48
	sw	s2,32(sp)
	.cfi_offset 18, -16
	.loc 1 303 9
	li	s2,8192
	.loc 1 298 1
	sw	s0,40(sp)
	sw	s3,28(sp)
	sw	s4,24(sp)
	sw	s5,20(sp)
	sw	ra,44(sp)
	sw	s1,36(sp)
	.cfi_offset 8, -8
	.cfi_offset 19, -20
	.cfi_offset 20, -24
	.cfi_offset 21, -28
	.cfi_offset 1, -4
	.cfi_offset 9, -12
	.loc 1 298 1
	mv	s0,a0
.LVL10:
	.loc 1 300 3 is_stmt 1
	.loc 1 301 3
	.loc 1 301 12 is_stmt 0
	sw	zero,12(sp)
	.loc 1 303 3 is_stmt 1
	.loc 1 303 9
	.loc 1 317 14 is_stmt 0
	lui	s4,%hi(.LANCHOR0)
	.loc 1 315 7
	lui	s5,%hi(.LC3)
	.loc 1 321 23
	li	s3,10
	.loc 1 303 9
	addi	s2,s2,1807
.LVL11:
.L9:
	.loc 1 305 5 is_stmt 1
	.loc 1 305 13 is_stmt 0
	mv	a0,s0
	call	utils_rbb_blk_get
.LVL12:
	mv	s1,a0
.LVL13:
	.loc 1 307 5 is_stmt 1
	.loc 1 307 8 is_stmt 0
	beq	a0,zero,.L4
	.loc 1 309 7 is_stmt 1
	.loc 1 309 11 is_stmt 0
	lw	a0,4(a0)
	li	a2,4
	addi	a1,sp,12
	call	memcmp
.LVL14:
	.loc 1 309 10
	beq	a0,zero,.L5
	.loc 1 311 9 is_stmt 1
	lw	a1,12(sp)
	lui	a0,%hi(.LC2)
	addi	a0,a0,%lo(.LC2)
	call	printf
.LVL15:
	.loc 1 312 9
.L6:
	.loc 1 332 3
	lui	a0,%hi(.LC6)
	addi	a0,a0,%lo(.LC6)
	call	printf
.LVL16:
	.loc 1 334 3
	mv	a0,s0
	call	utils_rbb_destroy
.LVL17:
	.loc 1 336 3
	li	a0,0
	call	vTaskDelete
.LVL18:
	.loc 1 337 1 is_stmt 0
	lw	ra,44(sp)
	.cfi_remember_state
	.cfi_restore 1
	lw	s0,40(sp)
	.cfi_restore 8
.LVL19:
	lw	s1,36(sp)
	.cfi_restore 9
.LVL20:
	lw	s2,32(sp)
	.cfi_restore 18
	lw	s3,28(sp)
	.cfi_restore 19
	lw	s4,24(sp)
	.cfi_restore 20
	lw	s5,20(sp)
	.cfi_restore 21
	addi	sp,sp,48
	.cfi_def_cfa_offset 0
	jr	ra
.LVL21:
.L5:
	.cfi_restore_state
	.loc 1 314 7 is_stmt 1
	mv	a1,s1
	mv	a0,s0
	call	utils_rbb_blk_free
.LVL22:
	.loc 1 315 7
	.loc 1 315 59 is_stmt 0
	lw	a1,0(s1)
	.loc 1 315 7
	lw	a2,12(sp)
	addi	a0,s5,%lo(.LC3)
	srli	a1,a1,8
	addi	a5,a2,1
	sw	a5,12(sp)
	call	printf
.LVL23:
.L7:
	.loc 1 321 5 is_stmt 1
	.loc 1 321 16 is_stmt 0
	call	rand
.LVL24:
	.loc 1 321 5
	rem	a0,a0,s3
	call	vTaskDelay
.LVL25:
	.loc 1 303 9 is_stmt 1
	lw	a5,12(sp)
	bleu	a5,s2,.L9
	j	.L8
.L4:
	.loc 1 317 10
	.loc 1 317 13 is_stmt 0
	lbu	a5,%lo(.LANCHOR0)(s4)
	beq	a5,zero,.L7
.L8:
	.loc 1 323 3 is_stmt 1
	lui	a0,%hi(.LC4)
	addi	a0,a0,%lo(.LC4)
	call	printf
.LVL26:
	.loc 1 325 3
	.loc 1 325 29 is_stmt 0
	mv	a0,s0
	call	utils_rbb_find_used_blk
.LVL27:
	.loc 1 326 3 is_stmt 1
	.loc 1 326 6 is_stmt 0
	beq	a0,zero,.L6
	.loc 1 328 5 is_stmt 1
	lui	a0,%hi(.LC5)
.LVL28:
	addi	a0,a0,%lo(.LC5)
	call	printf
.LVL29:
	j	.L6
	.cfi_endproc
.LFE28:
	.size	get_thread, .-get_thread
	.section	.rodata.put_thread.str1.4,"aMS",@progbits,1
	.align	2
.LC7:
	.string	"put block size %d count %ld\r\n"
	.align	2
.LC8:
	.string	"block alloc failed\r\n"
	.align	2
.LC9:
	.string	"Put block data finish.\r\n"
	.section	.text.put_thread,"ax",@progbits
	.align	1
	.type	put_thread, @function
put_thread:
.LFB27:
	.loc 1 268 1
	.cfi_startproc
.LVL30:
	.loc 1 269 3
	.loc 1 268 1 is_stmt 0
	addi	sp,sp,-48
	.cfi_def_cfa_offset 48
	.loc 1 273 14
	lui	a5,%hi(.LANCHOR0)
	.loc 1 268 1
	sw	s1,36(sp)
	.cfi_offset 9, -12
	.loc 1 275 9
	li	s1,8192
	.loc 1 268 1
	sw	s2,32(sp)
	sw	s3,28(sp)
	sw	s4,24(sp)
	sw	s5,20(sp)
	sw	s6,16(sp)
	sw	ra,44(sp)
	sw	s0,40(sp)
	.cfi_offset 18, -16
	.cfi_offset 19, -20
	.cfi_offset 20, -24
	.cfi_offset 21, -28
	.cfi_offset 22, -32
	.cfi_offset 1, -4
	.cfi_offset 8, -8
	.loc 1 268 1
	mv	s2,a0
.LVL31:
	.loc 1 270 3 is_stmt 1
	.loc 1 271 3
	.loc 1 271 12 is_stmt 0
	sw	zero,12(sp)
	.loc 1 273 3 is_stmt 1
	.loc 1 273 14 is_stmt 0
	sb	zero,%lo(.LANCHOR0)(a5)
	.loc 1 275 3 is_stmt 1
	.loc 1 275 9
	addi	s4,a5,%lo(.LANCHOR0)
	.loc 1 277 45 is_stmt 0
	li	s3,10
	.loc 1 286 7
	lui	s5,%hi(.LC8)
	.loc 1 282 7
	lui	s6,%hi(.LC7)
	.loc 1 275 9
	addi	s1,s1,1807
.LVL32:
.L18:
	.loc 1 277 5 is_stmt 1
	.loc 1 277 38 is_stmt 0
	call	rand
.LVL33:
	.loc 1 277 45
	rem	a1,a0,s3
	.loc 1 277 13
	mv	a0,s2
	addi	a1,a1,4
	call	utils_rbb_blk_alloc
.LVL34:
	mv	s0,a0
.LVL35:
	.loc 1 278 5 is_stmt 1
	.loc 1 278 8 is_stmt 0
	beq	a0,zero,.L16
	.loc 1 280 7 is_stmt 1
	lw	a0,4(a0)
	li	a2,4
	addi	a1,sp,12
	call	memcpy
.LVL36:
	.loc 1 281 7
	mv	a0,s0
	call	utils_rbb_blk_put
.LVL37:
	.loc 1 282 7
	.loc 1 282 58 is_stmt 0
	lw	a1,0(s0)
	.loc 1 282 7
	lw	a2,12(sp)
	addi	a0,s6,%lo(.LC7)
	srli	a1,a1,8
	addi	a5,a2,1
	sw	a5,12(sp)
	call	printf
.LVL38:
.L17:
	.loc 1 288 5 is_stmt 1
	.loc 1 288 16 is_stmt 0
	call	rand
.LVL39:
	.loc 1 288 5
	rem	a0,a0,s3
	call	vTaskDelay
.LVL40:
	.loc 1 275 9 is_stmt 1
	lw	a5,12(sp)
	bleu	a5,s1,.L18
	.loc 1 290 3
	lui	a0,%hi(.LC9)
	addi	a0,a0,%lo(.LC9)
	call	printf
.LVL41:
	.loc 1 292 3
	.loc 1 292 14 is_stmt 0
	li	a5,1
	.loc 1 294 3
	li	a0,0
	.loc 1 292 14
	sb	a5,0(s4)
	.loc 1 294 3 is_stmt 1
	call	vTaskDelete
.LVL42:
	.loc 1 295 1 is_stmt 0
	lw	ra,44(sp)
	.cfi_remember_state
	.cfi_restore 1
	lw	s0,40(sp)
	.cfi_restore 8
.LVL43:
	lw	s1,36(sp)
	.cfi_restore 9
	lw	s2,32(sp)
	.cfi_restore 18
.LVL44:
	lw	s3,28(sp)
	.cfi_restore 19
	lw	s4,24(sp)
	.cfi_restore 20
	lw	s5,20(sp)
	.cfi_restore 21
	lw	s6,16(sp)
	.cfi_restore 22
	addi	sp,sp,48
	.cfi_def_cfa_offset 0
	jr	ra
.LVL45:
.L16:
	.cfi_restore_state
	.loc 1 286 7 is_stmt 1
	addi	a0,s5,%lo(.LC8)
	call	printf
.LVL46:
	j	.L17
	.cfi_endproc
.LFE27:
	.size	put_thread, .-put_thread
	.section	.rodata.cmd_ringblk_test.str1.4,"aMS",@progbits,1
	.align	2
.LC10:
	.string	"\n====================== rbb create test =====================\r\n"
	.align	2
.LC11:
	.string	"6 blocks in 52 bytes ring block buffer object create success.\r\n"
	.align	2
.LC12:
	.string	"Test error: 6 blocks in 52 bytes ring block buffer object create failed.\r\n"
	.align	2
.LC13:
	.string	"\n====================== rbb alloc test =====================\r\n"
	.align	2
.LC14:
	.string	"Block1 (2 bytes) allocate success.\r\n"
	.align	2
.LC15:
	.string	"Test error: block1 (2 bytes) allocate failed.\r\n"
	.align	2
.LC16:
	.string	"Block2 (4 bytes) allocate success.\r\n"
	.align	2
.LC17:
	.string	"Test error: block2 (4 bytes) allocate failed.\r\n"
	.align	2
.LC18:
	.string	"Block3 (8 bytes) allocate success.\r\n"
	.align	2
.LC19:
	.string	"Test error: block3 (8 bytes) allocate failed.\r\n"
	.align	2
.LC20:
	.string	"Block4 (16 bytes) allocate success.\r\n"
	.align	2
.LC21:
	.string	"Test error: block4 (16 bytes) allocate failed.\r\n"
	.align	2
.LC22:
	.string	"Block5 (32 bytes) allocate success.\r\n"
	.align	2
.LC23:
	.string	"Block5 (32 bytes) allocate failed.\r\n"
	.align	2
.LC24:
	.string	"Block5 (18 bytes) allocate success.\r\n"
	.align	2
.LC25:
	.string	"Ring block buffer current status:\r\n"
	.align	2
.LC26:
	.string	"next block queue length: %lu\r\n"
	.align	2
.LC27:
	.string	"block list length: %d\r\n"
	.align	2
.LC28:
	.string	"|<- 2 -->|<-- 4 -->|<---- 8 ----->|<------- 16 -------->|<------ 18 ------>|<---- 4 ---->|\r\n"
	.align	2
.LC29:
	.string	"+--------+---------+--------------+---------------------+------------------+-------------+\r\n"
	.align	2
.LC30:
	.string	"| blcok1 | block2  |    block3    |       block4        |       block5     |    empty    |\r\n"
	.align	2
.LC31:
	.string	"| inited | inited  |    inited    |       inited        |       inited     |             |\r\n"
	.align	2
.LC32:
	.string	"\n====================== rbb put test =====================\r\n"
	.align	2
.LC33:
	.string	"Block1 to block5 put success.\r\n"
	.align	2
.LC34:
	.string	"|  put   |  put    |     put      |        put          |        put       |             |\r\n"
	.align	2
.LC35:
	.string	"\n====================== rbb get test =====================\r\n"
	.align	2
.LC36:
	.string	"Test error: block5 (18 bytes) allocate failed.\r\n"
	.align	2
.LC37:
	.string	"Block1 and block2 get success.\r\n"
	.align	2
.LC38:
	.string	"|  get   |   get   |     put      |        put          |        put       |             |\r\n"
	.align	2
.LC39:
	.string	"\n====================== rbb free test =====================\r\n"
	.align	2
.LC40:
	.string	"Block2 free success.\r\n"
	.align	2
.LC41:
	.string	"Block1 free success.\r\n"
	.align	2
.LC42:
	.string	"|<------- 6 ------>|<---- 8 ----->|<------- 16 -------->|<------ 18 ------>|<---- 4 ---->|\r\n"
	.align	2
.LC43:
	.string	"+------------------+--------------+---------------------+------------------+-------------+\r\n"
	.align	2
.LC44:
	.string	"|      empty2      |    block3    |       block4        |       block5     |    empty1   |\r\n"
	.align	2
.LC45:
	.string	"|                  |     put      |        put          |        put       |             |\r\n"
	.align	2
.LC46:
	.string	"Test error: block1 and block2 get failed.\r\n"
	.align	2
.LC47:
	.string	"Block6 (5 bytes) allocate success.\r\n"
	.align	2
.LC48:
	.string	"Block6 put success.\r\n"
	.align	2
.LC49:
	.string	"|<--- 5 ---->|< 1 >|<---- 8 ----->|<------- 16 -------->|<------ 18 ------>|<---- 4 ---->|\r\n"
	.align	2
.LC50:
	.string	"+------------+-----+--------------+---------------------+------------------+-------------+\r\n"
	.align	2
.LC51:
	.string	"|   block6   |empty|    block3    |       block4        |       block5     |   fragment  |\r\n"
	.align	2
.LC52:
	.string	"|     put    |     |     put      |        put          |        put       |             |\r\n"
	.align	2
.LC53:
	.string	"\n====================== rbb block queue get test =====================\r\n"
	.align	2
.LC54:
	.string	"Test error: block6 (5 bytes) allocate failed.\r\n"
	.align	2
.LC55:
	.string	"Block queue (request %lu bytes, actual %lu) get success.\r\n"
	.align	2
.LC56:
	.string	"|            |     |<----- block queue1 (42 bytes continuous buffer) ----->|             |\r\n"
	.align	2
.LC57:
	.string	"|     put    |     |     get      |        get          |        get       |             |\r\n"
	.align	2
.LC58:
	.string	"\n====================== rbb block queue free test =====================\r\n"
	.align	2
.LC59:
	.string	"Block queue1 free success.\r\n"
	.align	2
.LC60:
	.string	"|<--- 5 ---->|<--------------------------------- 47 ------------------------------------>|\r\n"
	.align	2
.LC61:
	.string	"+------------+---------------------------------------------------------------------------+\r\n"
	.align	2
.LC62:
	.string	"|   block6   |                                 empty                                     |\r\n"
	.align	2
.LC63:
	.string	"|     put    |                                                                           |\r\n"
	.align	2
.LC64:
	.string	"\n====================== rbb static test SUCCESS =====================\r\n"
	.align	2
.LC65:
	.string	"\n====================== rbb dynamic test =====================\r\n"
	.align	2
.LC66:
	.string	"Test error: Block queue (request %lu bytes, actual %lu) get failed.\r\n"
	.section	.text.cmd_ringblk_test,"ax",@progbits
	.align	1
	.type	cmd_ringblk_test, @function
cmd_ringblk_test:
.LFB26:
	.loc 1 28 1
	.cfi_startproc
.LVL47:
	.loc 1 29 5
	.loc 1 30 5
	.loc 1 31 5
	.loc 1 32 5
	.loc 1 35 5
	lui	a0,%hi(.LC10)
.LVL48:
	.loc 1 28 1 is_stmt 0
	addi	sp,sp,-96
	.cfi_def_cfa_offset 96
	.loc 1 35 5
	addi	a0,a0,%lo(.LC10)
	.loc 1 28 1
	sw	ra,92(sp)
	sw	s0,88(sp)
	sw	s1,84(sp)
	sw	s2,80(sp)
	sw	s3,76(sp)
	sw	s4,72(sp)
	sw	s5,68(sp)
	sw	s6,64(sp)
	sw	s7,60(sp)
	sw	s8,56(sp)
	sw	s9,52(sp)
	sw	s10,48(sp)
	sw	s11,44(sp)
	.cfi_offset 1, -4
	.cfi_offset 8, -8
	.cfi_offset 9, -12
	.cfi_offset 18, -16
	.cfi_offset 19, -20
	.cfi_offset 20, -24
	.cfi_offset 21, -28
	.cfi_offset 22, -32
	.cfi_offset 23, -36
	.cfi_offset 24, -40
	.cfi_offset 25, -44
	.cfi_offset 26, -48
	.cfi_offset 27, -52
	.loc 1 35 5
	call	printf
.LVL49:
	.loc 1 36 5 is_stmt 1
	.loc 1 36 11 is_stmt 0
	li	a1,6
	li	a0,52
	call	utils_rbb_create
.LVL50:
	mv	s0,a0
.LVL51:
	.loc 1 37 5 is_stmt 1
	.loc 1 37 8 is_stmt 0
	beq	a0,zero,.L22
	.loc 1 39 9 is_stmt 1
	lui	a0,%hi(.LC11)
	addi	a0,a0,%lo(.LC11)
.L81:
	.loc 1 43 9 is_stmt 0
	call	printf
.LVL52:
	.loc 1 46 5 is_stmt 1
	lui	a0,%hi(.LC13)
	addi	a0,a0,%lo(.LC13)
	call	printf
.LVL53:
	.loc 1 47 5
	.loc 1 47 12 is_stmt 0
	li	a1,2
	mv	a0,s0
	call	utils_rbb_blk_alloc
.LVL54:
	mv	s10,a0
.LVL55:
	.loc 1 48 5 is_stmt 1
	.loc 1 48 8 is_stmt 0
	beq	a0,zero,.L24
	.loc 1 48 28 discriminator 1
	lw	a2,0(a0)
	.loc 1 48 14 discriminator 1
	li	a5,512
	.loc 1 48 28 discriminator 1
	andi	a4,a2,-256
	.loc 1 48 14 discriminator 1
	bne	a4,a5,.L24
	.loc 1 50 9 is_stmt 1
	lw	a0,4(a0)
.LVL56:
	srli	a2,a2,8
	li	a1,1
	call	memset
.LVL57:
	.loc 1 51 9
	lui	a0,%hi(.LC14)
	addi	a0,a0,%lo(.LC14)
	call	printf
.LVL58:
	.loc 1 58 5
	.loc 1 58 12 is_stmt 0
	li	a1,4
	mv	a0,s0
	call	utils_rbb_blk_alloc
.LVL59:
	mv	s9,a0
.LVL60:
	.loc 1 59 5 is_stmt 1
	.loc 1 59 8 is_stmt 0
	bne	a0,zero,.L25
.L26:
	.loc 1 66 9 is_stmt 1
	lui	a0,%hi(.LC17)
.LVL61:
	addi	a0,a0,%lo(.LC17)
	j	.L83
.LVL62:
.L22:
	.loc 1 43 9
	lui	a0,%hi(.LC12)
	addi	a0,a0,%lo(.LC12)
	j	.L81
.LVL63:
.L24:
	.loc 1 55 9
	lui	a0,%hi(.LC15)
.LVL64:
	addi	a0,a0,%lo(.LC15)
.LVL65:
.L83:
	.loc 1 257 5 is_stmt 0
	call	printf
.LVL66:
.L27:
	.loc 1 261 5 is_stmt 1
	mv	a0,s0
	call	utils_rbb_destroy
.LVL67:
	.loc 1 262 1 is_stmt 0
	lw	ra,92(sp)
	.cfi_remember_state
	.cfi_restore 1
	lw	s0,88(sp)
	.cfi_restore 8
.LVL68:
	lw	s1,84(sp)
	.cfi_restore 9
	lw	s2,80(sp)
	.cfi_restore 18
	lw	s3,76(sp)
	.cfi_restore 19
	lw	s4,72(sp)
	.cfi_restore 20
	lw	s5,68(sp)
	.cfi_restore 21
	lw	s6,64(sp)
	.cfi_restore 22
	lw	s7,60(sp)
	.cfi_restore 23
	lw	s8,56(sp)
	.cfi_restore 24
	lw	s9,52(sp)
	.cfi_restore 25
	lw	s10,48(sp)
	.cfi_restore 26
	lw	s11,44(sp)
	.cfi_restore 27
	addi	sp,sp,96
	.cfi_def_cfa_offset 0
	jr	ra
.LVL69:
.L25:
	.cfi_restore_state
	.loc 1 59 28 discriminator 1
	lw	a2,0(a0)
	.loc 1 59 14 discriminator 1
	li	a5,1024
	.loc 1 59 28 discriminator 1
	andi	a4,a2,-256
	.loc 1 59 14 discriminator 1
	bne	a4,a5,.L26
	.loc 1 61 9 is_stmt 1
	lw	a0,4(a0)
.LVL70:
	srli	a2,a2,8
	li	a1,2
	call	memset
.LVL71:
	.loc 1 62 9
	lui	a0,%hi(.LC16)
	addi	a0,a0,%lo(.LC16)
	call	printf
.LVL72:
	.loc 1 69 5
	.loc 1 69 12 is_stmt 0
	li	a1,8
	mv	a0,s0
	call	utils_rbb_blk_alloc
.LVL73:
	mv	s8,a0
.LVL74:
	.loc 1 70 5 is_stmt 1
	.loc 1 70 8 is_stmt 0
	bne	a0,zero,.L28
.L29:
	.loc 1 77 9 is_stmt 1
	lui	a0,%hi(.LC19)
.LVL75:
	addi	a0,a0,%lo(.LC19)
	j	.L83
.LVL76:
.L28:
	.loc 1 70 28 is_stmt 0 discriminator 1
	lw	a2,0(a0)
	andi	a5,a2,-256
	.loc 1 70 14 discriminator 1
	addi	a5,a5,-2048
	bne	a5,zero,.L29
	.loc 1 72 9 is_stmt 1
	lw	a0,4(a0)
.LVL77:
	srli	a2,a2,8
	li	a1,3
	call	memset
.LVL78:
	.loc 1 73 9
	lui	a0,%hi(.LC18)
	addi	a0,a0,%lo(.LC18)
	call	printf
.LVL79:
	.loc 1 80 5
	.loc 1 80 12 is_stmt 0
	li	a1,16
	mv	a0,s0
	call	utils_rbb_blk_alloc
.LVL80:
	mv	s7,a0
.LVL81:
	.loc 1 81 5 is_stmt 1
	.loc 1 81 8 is_stmt 0
	bne	a0,zero,.L30
.L31:
	.loc 1 88 9 is_stmt 1
	lui	a0,%hi(.LC21)
.LVL82:
	addi	a0,a0,%lo(.LC21)
	j	.L83
.LVL83:
.L30:
	.loc 1 81 28 is_stmt 0 discriminator 1
	lw	a2,0(a0)
	.loc 1 81 14 discriminator 1
	li	a5,4096
	.loc 1 81 28 discriminator 1
	andi	a4,a2,-256
	.loc 1 81 14 discriminator 1
	bne	a4,a5,.L31
	.loc 1 83 9 is_stmt 1
	lw	a0,4(a0)
.LVL84:
	li	a1,4
	srli	a2,a2,8
	call	memset
.LVL85:
	.loc 1 84 9
	lui	a0,%hi(.LC20)
	addi	a0,a0,%lo(.LC20)
	call	printf
.LVL86:
	.loc 1 91 5
	.loc 1 91 12 is_stmt 0
	li	a1,32
	mv	a0,s0
	call	utils_rbb_blk_alloc
.LVL87:
	.loc 1 92 5 is_stmt 1
	.loc 1 92 8 is_stmt 0
	bne	a0,zero,.L32
.L33:
	.loc 1 99 9 is_stmt 1
	lui	a0,%hi(.LC23)
.LVL88:
	addi	a0,a0,%lo(.LC23)
	j	.L82
.LVL89:
.L32:
	.loc 1 92 28 is_stmt 0 discriminator 1
	lw	a2,0(a0)
	.loc 1 92 14 discriminator 1
	li	a5,8192
	.loc 1 92 28 discriminator 1
	andi	a4,a2,-256
	.loc 1 92 14 discriminator 1
	bne	a4,a5,.L33
	.loc 1 94 9 is_stmt 1
	lw	a0,4(a0)
.LVL90:
	srli	a2,a2,8
	li	a1,5
	call	memset
.LVL91:
	.loc 1 95 9
	lui	a0,%hi(.LC22)
	addi	a0,a0,%lo(.LC22)
.L82:
	.loc 1 99 9 is_stmt 0
	call	printf
.LVL92:
	.loc 1 101 5 is_stmt 1
	.loc 1 101 12 is_stmt 0
	li	a1,18
	mv	a0,s0
	call	utils_rbb_blk_alloc
.LVL93:
	mv	s5,a0
.LVL94:
	.loc 1 102 5 is_stmt 1
	.loc 1 102 8 is_stmt 0
	beq	a0,zero,.L35
	.loc 1 102 28 discriminator 1
	lw	a2,0(a0)
	.loc 1 102 14 discriminator 1
	li	a5,4096
	addi	a5,a5,512
	.loc 1 102 28 discriminator 1
	andi	a4,a2,-256
	.loc 1 102 14 discriminator 1
	bne	a4,a5,.L35
	.loc 1 104 9 is_stmt 1
	lw	a0,4(a0)
.LVL95:
	srli	a2,a2,8
	li	a1,5
	call	memset
.LVL96:
	.loc 1 105 9
	lui	a0,%hi(.LC24)
	addi	a0,a0,%lo(.LC24)
	call	printf
.LVL97:
	.loc 1 112 5
	lui	s4,%hi(.LC25)
	addi	a0,s4,%lo(.LC25)
	call	printf
.LVL98:
	.loc 1 113 5
	mv	a0,s0
	call	utils_rbb_next_blk_queue_len
.LVL99:
	lui	s3,%hi(.LC26)
	mv	a1,a0
	addi	a0,s3,%lo(.LC26)
	call	printf
.LVL100:
	.loc 1 114 5
	addi	s2,s0,16
.LVL101:
.LBB16:
.LBB17:
	.file 2 "/mnt/d/GitHub/bl_iot_sdk_for_aithinker/components/utils/include/utils_list.h"
	.loc 2 593 2
	.loc 2 594 5
	.loc 2 595 5
	.loc 2 594 20 is_stmt 0
	mv	a5,s2
	.loc 2 595 13
	li	a1,0
.LVL102:
.L36:
	.loc 2 595 16 is_stmt 1
	.loc 2 595 19 is_stmt 0
	lw	a5,0(a5)
.LVL103:
	.loc 2 595 5
	bne	a5,zero,.L37
	.loc 2 598 5 is_stmt 1
.LVL104:
.LBE17:
.LBE16:
	.loc 1 114 5 is_stmt 0
	lui	s1,%hi(.LC27)
	addi	a0,s1,%lo(.LC27)
	call	printf
.LVL105:
	.loc 1 115 5 is_stmt 1
	lui	s11,%hi(.LC28)
	addi	a0,s11,%lo(.LC28)
	call	printf
.LVL106:
	.loc 1 116 5
	lui	s6,%hi(.LC29)
	addi	a0,s6,%lo(.LC29)
	call	printf
.LVL107:
	.loc 1 117 5
	lui	a4,%hi(.LC30)
	addi	a0,a4,%lo(.LC30)
	call	printf
.LVL108:
	.loc 1 118 5
	addi	a0,s6,%lo(.LC29)
	call	printf
.LVL109:
	.loc 1 119 5
	lui	a0,%hi(.LC31)
	addi	a0,a0,%lo(.LC31)
	call	printf
.LVL110:
	.loc 1 122 5
	lui	a0,%hi(.LC32)
	addi	a0,a0,%lo(.LC32)
	call	printf
.LVL111:
	.loc 1 123 5
	mv	a0,s10
	call	utils_rbb_blk_put
.LVL112:
	.loc 1 124 5
	mv	a0,s9
	call	utils_rbb_blk_put
.LVL113:
	.loc 1 125 5
	mv	a0,s8
	call	utils_rbb_blk_put
.LVL114:
	.loc 1 126 5
	mv	a0,s7
	call	utils_rbb_blk_put
.LVL115:
	.loc 1 127 5
	mv	a0,s5
	call	utils_rbb_blk_put
.LVL116:
	.loc 1 128 5
	lui	a0,%hi(.LC33)
	addi	a0,a0,%lo(.LC33)
	call	printf
.LVL117:
	.loc 1 129 5
	addi	a0,s4,%lo(.LC25)
	call	printf
.LVL118:
	.loc 1 130 5
	mv	a0,s0
	call	utils_rbb_next_blk_queue_len
.LVL119:
	mv	a1,a0
	addi	a0,s3,%lo(.LC26)
	call	printf
.LVL120:
	.loc 1 131 5
	lui	a4,%hi(.LC30)
.LBB19:
.LBB20:
	.loc 2 594 20 is_stmt 0
	mv	a5,s2
	.loc 2 595 13
	li	a1,0
	sw	s11,4(sp)
	sw	a4,8(sp)
.L38:
.LVL121:
	.loc 2 595 16 is_stmt 1
	.loc 2 595 19 is_stmt 0
	lw	a5,0(a5)
.LVL122:
	.loc 2 595 5
	bne	a5,zero,.L39
	.loc 2 598 5 is_stmt 1
.LVL123:
.LBE20:
.LBE19:
	.loc 1 131 5 is_stmt 0
	addi	a0,s1,%lo(.LC27)
	call	printf
.LVL124:
	.loc 1 132 5 is_stmt 1
	lw	a5,4(sp)
	addi	a0,a5,%lo(.LC28)
	call	printf
.LVL125:
	.loc 1 133 5
	addi	a0,s6,%lo(.LC29)
	call	printf
.LVL126:
	.loc 1 134 5
	lw	a5,8(sp)
	addi	a0,a5,%lo(.LC30)
	call	printf
.LVL127:
	.loc 1 135 5
	addi	a0,s6,%lo(.LC29)
	call	printf
.LVL128:
	.loc 1 136 5
	lui	a0,%hi(.LC34)
	addi	a0,a0,%lo(.LC34)
	call	printf
.LVL129:
	.loc 1 139 5
	lui	a0,%hi(.LC35)
	addi	a0,a0,%lo(.LC35)
	call	printf
.LVL130:
	.loc 1 140 5
	.loc 1 140 13 is_stmt 0
	mv	a0,s0
	call	utils_rbb_blk_get
.LVL131:
	mv	s11,a0
.LVL132:
	.loc 1 141 5 is_stmt 1
	.loc 1 141 13 is_stmt 0
	mv	a0,s0
.LVL133:
	call	utils_rbb_blk_get
.LVL134:
	mv	a4,a0
.LVL135:
	.loc 1 142 5 is_stmt 1
	.loc 1 142 26 is_stmt 0
	lw	a0,0(s11)
.LVL136:
	.loc 1 142 12
	li	a2,0
	.loc 1 144 12
	li	a1,1
	.loc 1 142 26
	srli	a0,a0,8
.LVL137:
.L40:
	.loc 1 142 17 is_stmt 1 discriminator 1
	.loc 1 142 5 is_stmt 0 discriminator 1
	bgtu	a0,a2,.L42
.L41:
	.loc 1 146 26 discriminator 1
	lw	a1,0(a4)
	li	a3,0
	.loc 1 148 12 discriminator 1
	li	a7,2
	.loc 1 146 26 discriminator 1
	srli	a1,a1,8
.L43:
.LVL138:
	.loc 1 146 17 is_stmt 1 discriminator 1
	.loc 1 146 5 is_stmt 0 discriminator 1
	bgtu	a1,a3,.L45
.L44:
	.loc 1 150 5 is_stmt 1
	.loc 1 150 8 is_stmt 0
	bne	s10,s11,.L46
	.loc 1 150 23 discriminator 1
	bne	s9,a4,.L46
	.loc 1 150 40 discriminator 2
	bne	a0,a2,.L46
	.loc 1 150 60 discriminator 3
	bne	a1,a3,.L46
	.loc 1 152 9
	lui	a0,%hi(.LC37)
	addi	a0,a0,%lo(.LC37)
	sw	a4,12(sp)
	.loc 1 152 9 is_stmt 1
	call	printf
.LVL139:
	.loc 1 159 5
	addi	a0,s4,%lo(.LC25)
	call	printf
.LVL140:
	.loc 1 160 5
	mv	a0,s0
	call	utils_rbb_next_blk_queue_len
.LVL141:
	mv	a1,a0
	addi	a0,s3,%lo(.LC26)
	call	printf
.LVL142:
	.loc 1 161 5
.LBB22:
.LBB23:
	.loc 2 593 2
	.loc 2 594 5
	.loc 2 595 5
	lw	a4,12(sp)
	.loc 2 594 20 is_stmt 0
	mv	a3,s2
	.loc 2 595 13
	li	a1,0
.LVL143:
.L47:
	.loc 2 595 16 is_stmt 1
	.loc 2 595 19 is_stmt 0
	lw	a3,0(a3)
.LVL144:
	.loc 2 595 5
	bne	a3,zero,.L48
.LBE23:
.LBE22:
	.loc 1 161 5
	addi	a0,s1,%lo(.LC27)
	sw	a4,12(sp)
.LVL145:
.LBB26:
.LBB24:
	.loc 2 598 5 is_stmt 1
.LBE24:
.LBE26:
	.loc 1 161 5 is_stmt 0
	call	printf
.LVL146:
	.loc 1 162 5 is_stmt 1
	lw	a5,4(sp)
	addi	a0,a5,%lo(.LC28)
	call	printf
.LVL147:
	.loc 1 163 5
	addi	a0,s6,%lo(.LC29)
	call	printf
.LVL148:
	.loc 1 164 5
	lw	a5,8(sp)
	addi	a0,a5,%lo(.LC30)
	call	printf
.LVL149:
	.loc 1 165 5
	addi	a0,s6,%lo(.LC29)
	call	printf
.LVL150:
	.loc 1 166 5
	lui	a0,%hi(.LC38)
	addi	a0,a0,%lo(.LC38)
	call	printf
.LVL151:
	.loc 1 169 5
	lui	a0,%hi(.LC39)
	addi	a0,a0,%lo(.LC39)
	call	printf
.LVL152:
	.loc 1 170 5
	lw	a4,12(sp)
	mv	a0,s0
	mv	a1,a4
	call	utils_rbb_blk_free
.LVL153:
	.loc 1 171 5
	lui	a0,%hi(.LC40)
	addi	a0,a0,%lo(.LC40)
	call	printf
.LVL154:
	.loc 1 172 5
	mv	a1,s11
	mv	a0,s0
	call	utils_rbb_blk_free
.LVL155:
	.loc 1 173 5
	lui	a0,%hi(.LC41)
	addi	a0,a0,%lo(.LC41)
	call	printf
.LVL156:
	.loc 1 174 5
	addi	a0,s4,%lo(.LC25)
	call	printf
.LVL157:
	.loc 1 175 5
	mv	a0,s0
	call	utils_rbb_next_blk_queue_len
.LVL158:
	mv	a1,a0
	addi	a0,s3,%lo(.LC26)
	call	printf
.LVL159:
	.loc 1 176 5
.LBB27:
.LBB28:
	.loc 2 594 20 is_stmt 0
	mv	a5,s2
	.loc 2 595 13
	li	a1,0
.L49:
.LVL160:
	.loc 2 595 16 is_stmt 1
	.loc 2 595 19 is_stmt 0
	lw	a5,0(a5)
.LVL161:
	.loc 2 595 5
	bne	a5,zero,.L50
	.loc 2 598 5 is_stmt 1
.LVL162:
.LBE28:
.LBE27:
	.loc 1 176 5 is_stmt 0
	addi	a0,s1,%lo(.LC27)
	call	printf
.LVL163:
	.loc 1 177 5 is_stmt 1
	lui	a0,%hi(.LC42)
	addi	a0,a0,%lo(.LC42)
	call	printf
.LVL164:
	.loc 1 178 5
	lui	s6,%hi(.LC43)
	addi	a0,s6,%lo(.LC43)
	call	printf
.LVL165:
	.loc 1 179 5
	lui	a0,%hi(.LC44)
	addi	a0,a0,%lo(.LC44)
	call	printf
.LVL166:
	.loc 1 180 5
	addi	a0,s6,%lo(.LC43)
	call	printf
.LVL167:
	.loc 1 181 5
	lui	a0,%hi(.LC45)
	addi	a0,a0,%lo(.LC45)
	call	printf
.LVL168:
	.loc 1 183 5
	.loc 1 183 12 is_stmt 0
	li	a1,5
	mv	a0,s0
	call	utils_rbb_blk_alloc
.LVL169:
	mv	s11,a0
.LVL170:
	.loc 1 184 5 is_stmt 1
	.loc 1 184 8 is_stmt 0
	bne	a0,zero,.L51
	.loc 1 190 9 is_stmt 1
	lui	a0,%hi(.LC54)
.LVL171:
	addi	a0,a0,%lo(.LC54)
	j	.L83
.LVL172:
.L37:
.LBB30:
.LBB18:
	.loc 2 596 3
	.loc 2 595 26
	.loc 2 595 44 is_stmt 0
	addi	a1,a1,1
.LVL173:
	j	.L36
.LVL174:
.L39:
.LBE18:
.LBE30:
.LBB31:
.LBB21:
	.loc 2 596 3 is_stmt 1
	.loc 2 595 26
	.loc 2 595 44 is_stmt 0
	addi	a1,a1,1
.LVL175:
	j	.L38
.LVL176:
.L35:
.LBE21:
.LBE31:
	.loc 1 109 9 is_stmt 1
	lui	a0,%hi(.LC36)
.LVL177:
	addi	a0,a0,%lo(.LC36)
	j	.L83
.LVL178:
.L42:
	.loc 1 144 9
	.loc 1 144 23 is_stmt 0
	lw	a3,4(s11)
	add	a3,a3,a2
	.loc 1 144 12
	lbu	a3,0(a3)
	bne	a3,a1,.L41
	.loc 1 142 34 is_stmt 1 discriminator 2
	.loc 1 142 35 is_stmt 0 discriminator 2
	addi	a2,a2,1
.LVL179:
	j	.L40
.LVL180:
.L45:
	.loc 1 148 9 is_stmt 1
	.loc 1 148 23 is_stmt 0
	lw	a6,4(a4)
	add	a6,a6,a3
	.loc 1 148 12
	lbu	a6,0(a6)
	bne	a6,a7,.L44
	.loc 1 146 34 is_stmt 1 discriminator 2
	.loc 1 146 35 is_stmt 0 discriminator 2
	addi	a3,a3,1
.LVL181:
	j	.L43
.LVL182:
.L48:
.LBB32:
.LBB25:
	.loc 2 596 3 is_stmt 1
	.loc 2 595 26
	.loc 2 595 44 is_stmt 0
	addi	a1,a1,1
.LVL183:
	j	.L47
.LVL184:
.L50:
.LBE25:
.LBE32:
.LBB33:
.LBB29:
	.loc 2 596 3 is_stmt 1
	.loc 2 595 26
	.loc 2 595 44 is_stmt 0
	addi	a1,a1,1
.LVL185:
	j	.L49
.LVL186:
.L46:
.LBE29:
.LBE33:
	.loc 1 156 9 is_stmt 1
	lui	a0,%hi(.LC46)
	addi	a0,a0,%lo(.LC46)
	j	.L83
.LVL187:
.L51:
	.loc 1 186 9
	lui	a0,%hi(.LC47)
.LVL188:
	addi	a0,a0,%lo(.LC47)
	call	printf
.LVL189:
	.loc 1 194 5
	mv	a0,s11
	call	utils_rbb_blk_put
.LVL190:
	.loc 1 195 5
	lui	a0,%hi(.LC48)
	addi	a0,a0,%lo(.LC48)
	call	printf
.LVL191:
	.loc 1 196 5
	addi	a0,s4,%lo(.LC25)
	call	printf
.LVL192:
	.loc 1 197 5
	mv	a0,s0
	call	utils_rbb_next_blk_queue_len
.LVL193:
	mv	a1,a0
	addi	a0,s3,%lo(.LC26)
	call	printf
.LVL194:
	.loc 1 198 5
.LBB34:
.LBB35:
	.loc 2 593 2
	.loc 2 594 5
	.loc 2 595 5
	.loc 2 594 20 is_stmt 0
	mv	a5,s2
	.loc 2 595 13
	li	a1,0
.LVL195:
.L53:
	.loc 2 595 16 is_stmt 1
	.loc 2 595 19 is_stmt 0
	lw	a5,0(a5)
.LVL196:
	.loc 2 595 5
	bne	a5,zero,.L54
	.loc 2 598 5 is_stmt 1
.LVL197:
.LBE35:
.LBE34:
	.loc 1 198 5 is_stmt 0
	addi	a0,s1,%lo(.LC27)
	call	printf
.LVL198:
	.loc 1 199 5 is_stmt 1
	lui	a3,%hi(.LC49)
	addi	a0,a3,%lo(.LC49)
	call	printf
.LVL199:
	.loc 1 200 5
	lui	s6,%hi(.LC50)
	addi	a0,s6,%lo(.LC50)
	call	printf
.LVL200:
	.loc 1 201 5
	lui	a4,%hi(.LC51)
	addi	a0,a4,%lo(.LC51)
	call	printf
.LVL201:
	.loc 1 202 5
	addi	a0,s6,%lo(.LC50)
	call	printf
.LVL202:
	.loc 1 203 5
	lui	a0,%hi(.LC52)
	addi	a0,a0,%lo(.LC52)
	call	printf
.LVL203:
	.loc 1 206 5
	lui	a0,%hi(.LC53)
	addi	a0,a0,%lo(.LC53)
	call	printf
.LVL204:
	.loc 1 207 5
	.loc 1 207 16 is_stmt 0
	mv	a0,s0
	call	utils_rbb_next_blk_queue_len
.LVL205:
	.loc 1 207 14
	addi	a5,a0,5
	.loc 1 208 12
	addi	a2,sp,24
	mv	a1,a5
	mv	a0,s0
	.loc 1 207 14
	sw	a5,4(sp)
.LVL206:
	.loc 1 208 5 is_stmt 1
	.loc 1 208 12 is_stmt 0
	call	utils_rbb_blk_queue_get
.LVL207:
	lui	a3,%hi(.LC49)
	lui	a4,%hi(.LC51)
	mv	s10,a0
.LVL208:
	.loc 1 209 5 is_stmt 1
	.loc 1 210 5
	.loc 1 209 7 is_stmt 0
	li	s9,0
.LVL209:
	sw	a3,8(sp)
	sw	a4,12(sp)
.LVL210:
.L55:
	.loc 1 210 12 is_stmt 1 discriminator 1
	.loc 1 210 20 is_stmt 0 discriminator 1
	lw	a4,0(s8)
	srli	a4,a4,8
	.loc 1 210 5 discriminator 1
	bleu	a4,s9,.L59
	.loc 1 212 9 is_stmt 1
	.loc 1 212 13 is_stmt 0
	addi	a0,sp,24
	call	utils_rbb_blk_queue_buf
.LVL211:
	.loc 1 212 49
	add	a0,a0,s9
	.loc 1 212 12
	lbu	a4,0(a0)
	li	a3,3
	beq	a4,a3,.L56
.L59:
	.loc 1 209 7
	li	s8,0
.LVL212:
.L57:
	.loc 1 214 12 is_stmt 1 discriminator 1
	.loc 1 214 20 is_stmt 0 discriminator 1
	lw	a4,0(s7)
	srli	a4,a4,8
	.loc 1 214 5 discriminator 1
	bleu	a4,s8,.L63
	.loc 1 216 9 is_stmt 1
	.loc 1 216 13 is_stmt 0
	addi	a0,sp,24
	call	utils_rbb_blk_queue_buf
.LVL213:
	.loc 1 216 49
	add	a0,a0,s9
	add	a0,a0,s8
	.loc 1 216 12
	lbu	a4,0(a0)
	li	a3,4
	beq	a4,a3,.L60
.L63:
	.loc 1 209 7
	li	s7,0
.LVL214:
.L61:
	.loc 1 218 12 is_stmt 1 discriminator 1
	.loc 1 218 20 is_stmt 0 discriminator 1
	lw	a4,0(s5)
	srli	a4,a4,8
	.loc 1 218 5 discriminator 1
	bleu	a4,s7,.L68
	.loc 1 220 9 is_stmt 1
	.loc 1 220 13 is_stmt 0
	addi	a0,sp,24
	call	utils_rbb_blk_queue_buf
.LVL215:
	.loc 1 220 49
	add	a0,a0,s9
	add	a0,a0,s8
	add	a0,a0,s7
	.loc 1 220 12
	lbu	a4,0(a0)
	li	a3,5
	beq	a4,a3,.L64
.L68:
	.loc 1 222 5 is_stmt 1
	.loc 1 222 8 is_stmt 0
	li	a5,42
	beq	s10,a5,.L65
.L66:
	.loc 1 228 9 is_stmt 1
	lw	a1,4(sp)
	lui	a0,%hi(.LC66)
	mv	a2,s10
	addi	a0,a0,%lo(.LC66)
	call	printf
.LVL216:
	.loc 1 229 9
	j	.L27
.LVL217:
.L54:
.LBB37:
.LBB36:
	.loc 2 596 3
	.loc 2 595 26
	.loc 2 595 44 is_stmt 0
	addi	a1,a1,1
.LVL218:
	j	.L53
.LVL219:
.L56:
.LBE36:
.LBE37:
	.loc 1 210 28 is_stmt 1
	.loc 1 210 29 is_stmt 0
	addi	s9,s9,1
.LVL220:
	j	.L55
.LVL221:
.L60:
	.loc 1 214 28 is_stmt 1
	.loc 1 214 29 is_stmt 0
	addi	s8,s8,1
.LVL222:
	j	.L57
.LVL223:
.L64:
	.loc 1 218 28 is_stmt 1
	.loc 1 218 29 is_stmt 0
	addi	s7,s7,1
.LVL224:
	j	.L61
.L65:
	.loc 1 222 31 discriminator 1
	addi	a0,sp,24
	call	utils_rbb_blk_queue_len
.LVL225:
	.loc 1 222 28 discriminator 1
	bne	a0,s10,.L66
	.loc 1 222 86 discriminator 2
	lw	a5,0(s5)
	srli	a5,a5,8
	.loc 1 222 74 discriminator 2
	bne	a5,s7,.L66
	.loc 1 224 9 is_stmt 1
	lw	a1,4(sp)
	lui	a0,%hi(.LC55)
	li	a2,42
	addi	a0,a0,%lo(.LC55)
	call	printf
.LVL226:
	.loc 1 231 5
	addi	a0,s4,%lo(.LC25)
	call	printf
.LVL227:
	.loc 1 232 5
	mv	a0,s0
	call	utils_rbb_next_blk_queue_len
.LVL228:
	mv	a1,a0
	addi	a0,s3,%lo(.LC26)
	call	printf
.LVL229:
	.loc 1 233 5
.LBB38:
.LBB39:
	.loc 2 593 2
	.loc 2 594 5
	.loc 2 595 5
	.loc 2 594 20 is_stmt 0
	mv	a5,s2
	.loc 2 595 13
	li	a1,0
.LVL230:
.L69:
	.loc 2 595 16 is_stmt 1
	.loc 2 595 19 is_stmt 0
	lw	a5,0(a5)
.LVL231:
	.loc 2 595 5
	bne	a5,zero,.L70
	.loc 2 598 5 is_stmt 1
.LVL232:
.LBE39:
.LBE38:
	.loc 1 233 5 is_stmt 0
	addi	a0,s1,%lo(.LC27)
	call	printf
.LVL233:
	.loc 1 234 5 is_stmt 1
	lui	a0,%hi(.LC56)
	addi	a0,a0,%lo(.LC56)
	call	printf
.LVL234:
	.loc 1 235 5
	lw	a5,8(sp)
	addi	a0,a5,%lo(.LC49)
	call	printf
.LVL235:
	.loc 1 236 5
	addi	a0,s6,%lo(.LC50)
	call	printf
.LVL236:
	.loc 1 237 5
	lw	a5,12(sp)
	addi	a0,a5,%lo(.LC51)
	call	printf
.LVL237:
	.loc 1 238 5
	addi	a0,s6,%lo(.LC50)
	call	printf
.LVL238:
	.loc 1 239 5
	lui	a0,%hi(.LC57)
	addi	a0,a0,%lo(.LC57)
	call	printf
.LVL239:
	.loc 1 242 5
	lui	a0,%hi(.LC58)
	addi	a0,a0,%lo(.LC58)
	call	printf
.LVL240:
	.loc 1 243 5
	addi	a1,sp,24
	mv	a0,s0
	call	utils_rbb_blk_queue_free
.LVL241:
	.loc 1 244 5
	lui	a0,%hi(.LC59)
	addi	a0,a0,%lo(.LC59)
	call	printf
.LVL242:
	.loc 1 245 5
	addi	a0,s4,%lo(.LC25)
	call	printf
.LVL243:
	.loc 1 246 5
	mv	a0,s0
	call	utils_rbb_next_blk_queue_len
.LVL244:
	mv	a1,a0
	addi	a0,s3,%lo(.LC26)
	call	printf
.LVL245:
	.loc 1 247 5
.LBB41:
.LBB42:
	.loc 2 595 13 is_stmt 0
	li	a1,0
.LVL246:
.L71:
	.loc 2 595 16 is_stmt 1
	.loc 2 595 19 is_stmt 0
	lw	s2,0(s2)
.LVL247:
	.loc 2 595 5
	bne	s2,zero,.L72
	.loc 2 598 5 is_stmt 1
.LVL248:
.LBE42:
.LBE41:
	.loc 1 247 5 is_stmt 0
	addi	a0,s1,%lo(.LC27)
	call	printf
.LVL249:
	.loc 1 248 5 is_stmt 1
	lui	a0,%hi(.LC60)
	addi	a0,a0,%lo(.LC60)
	call	printf
.LVL250:
	.loc 1 249 5
	lui	s1,%hi(.LC61)
	addi	a0,s1,%lo(.LC61)
	call	printf
.LVL251:
	.loc 1 250 5
	lui	a0,%hi(.LC62)
	addi	a0,a0,%lo(.LC62)
	call	printf
.LVL252:
	.loc 1 251 5
	addi	a0,s1,%lo(.LC61)
	call	printf
.LVL253:
	.loc 1 252 5
	lui	a0,%hi(.LC63)
	addi	a0,a0,%lo(.LC63)
	call	printf
.LVL254:
	.loc 1 253 5
	mv	a1,s11
	mv	a0,s0
	call	utils_rbb_blk_free
.LVL255:
	.loc 1 255 5
	lui	a0,%hi(.LC64)
	addi	a0,a0,%lo(.LC64)
	call	printf
.LVL256:
	.loc 1 257 5
	lui	a0,%hi(.LC65)
	addi	a0,a0,%lo(.LC65)
	j	.L83
.LVL257:
.L70:
.LBB44:
.LBB40:
	.loc 2 596 3
	.loc 2 595 26
	.loc 2 595 44 is_stmt 0
	addi	a1,a1,1
.LVL258:
	j	.L69
.LVL259:
.L72:
.LBE40:
.LBE44:
.LBB45:
.LBB43:
	.loc 2 596 3 is_stmt 1
	.loc 2 595 26
	.loc 2 595 44 is_stmt 0
	addi	a1,a1,1
.LVL260:
	j	.L71
.LBE43:
.LBE45:
	.cfi_endproc
.LFE26:
	.size	cmd_ringblk_test, .-cmd_ringblk_test
	.section	.text.utils_rbb_cli_init,"ax",@progbits
	.align	1
	.globl	utils_rbb_cli_init
	.type	utils_rbb_cli_init, @function
utils_rbb_cli_init:
.LFB30:
	.loc 1 355 1 is_stmt 1
	.cfi_startproc
	.loc 1 360 5
	.loc 1 361 1 is_stmt 0
	li	a0,0
	ret
	.cfi_endproc
.LFE30:
	.size	utils_rbb_cli_init, .-utils_rbb_cli_init
	.section	.rodata.str1.4,"aMS",@progbits,1
	.align	2
.LC67:
	.string	"rbb_static_test"
	.align	2
.LC68:
	.string	"ringblk static test"
	.align	2
.LC69:
	.string	"rbb_through_test"
	.align	2
.LC70:
	.string	"ringblk dynamic test"
	.section	.sbss.put_finish,"aw",@nobits
	.set	.LANCHOR0,. + 0
	.type	put_finish, @object
	.size	put_finish, 1
put_finish:
	.zero	1
	.section	.static_cli_cmds,"a"
	.align	2
	.type	cmds_user, @object
	.size	cmds_user, 24
cmds_user:
	.word	.LC67
	.word	.LC68
	.word	cmd_ringblk_test
	.word	.LC69
	.word	.LC70
	.word	cmd_ringblk_through_test
	.text
.Letext0:
	.file 3 "/mnt/d/GitHub/bl_iot_sdk_for_aithinker/toolchain/riscv/Linux/lib/gcc/riscv64-unknown-elf/10.2.0/include/stdint-gcc.h"
	.file 4 "/mnt/d/GitHub/bl_iot_sdk_for_aithinker/components/stage/cli/cli/include/cli.h"
	.file 5 "/mnt/d/GitHub/bl_iot_sdk_for_aithinker/components/utils/include/utils_ringblk.h"
	.file 6 "/mnt/d/GitHub/bl_iot_sdk_for_aithinker/components/platform/soc/bl602/freertos_riscv_ram/config/task.h"
	.file 7 "/mnt/d/GitHub/bl_iot_sdk_for_aithinker/toolchain/riscv/Linux/riscv64-unknown-elf/include/string.h"
	.file 8 "/mnt/d/GitHub/bl_iot_sdk_for_aithinker/toolchain/riscv/Linux/riscv64-unknown-elf/include/stdio.h"
	.file 9 "/mnt/d/GitHub/bl_iot_sdk_for_aithinker/toolchain/riscv/Linux/riscv64-unknown-elf/include/stdlib.h"